ARM GAS  C:\Users\KJA\AppData\Local\Temp\ccGMcFRr.s 			page 1


   1              		.syntax unified
   2              		.cpu cortex-m3
   3              		.fpu softvfp
   4              		.eabi_attribute 20, 1
   5              		.eabi_attribute 21, 1
   6              		.eabi_attribute 23, 3
   7              		.eabi_attribute 24, 1
   8              		.eabi_attribute 25, 1
   9              		.eabi_attribute 26, 1
  10              		.eabi_attribute 30, 6
  11              		.eabi_attribute 34, 1
  12              		.eabi_attribute 18, 4
  13              		.thumb
  14              		.file	"ADC_SAR_2.c"
  15              		.text
  16              	.Ltext0:
  17              		.cfi_sections	.debug_frame
  18              		.global	ADC_SAR_2_initVar
  19              		.bss
  20              		.type	ADC_SAR_2_initVar, %object
  21              		.size	ADC_SAR_2_initVar, 1
  22              	ADC_SAR_2_initVar:
  23 0000 00       		.space	1
  24              		.comm	ADC_SAR_2_offset,2,2
  25              		.comm	ADC_SAR_2_countsPerVolt,2,2
  26              		.comm	ADC_SAR_2_countsPer10Volt,4,4
  27              		.comm	ADC_SAR_2_shift,2,2
  28              		.section	.text.ADC_SAR_2_Start,"ax",%progbits
  29              		.align	2
  30              		.global	ADC_SAR_2_Start
  31              		.thumb
  32              		.thumb_func
  33              		.type	ADC_SAR_2_Start, %function
  34              	ADC_SAR_2_Start:
  35              	.LFB0:
  36              		.file 1 "Generated_Source\\PSoC5\\ADC_SAR_2.c"
   1:Generated_Source\PSoC5/ADC_SAR_2.c **** /*******************************************************************************
   2:Generated_Source\PSoC5/ADC_SAR_2.c **** * File Name: ADC_SAR_2.c
   3:Generated_Source\PSoC5/ADC_SAR_2.c **** * Version 3.0
   4:Generated_Source\PSoC5/ADC_SAR_2.c **** *
   5:Generated_Source\PSoC5/ADC_SAR_2.c **** * Description:
   6:Generated_Source\PSoC5/ADC_SAR_2.c **** *  This file provides the source code to the API for the Successive
   7:Generated_Source\PSoC5/ADC_SAR_2.c **** *  approximation ADC Component.
   8:Generated_Source\PSoC5/ADC_SAR_2.c **** *
   9:Generated_Source\PSoC5/ADC_SAR_2.c **** * Note:
  10:Generated_Source\PSoC5/ADC_SAR_2.c **** *
  11:Generated_Source\PSoC5/ADC_SAR_2.c **** ********************************************************************************
  12:Generated_Source\PSoC5/ADC_SAR_2.c **** * Copyright 2008-2015, Cypress Semiconductor Corporation.  All rights reserved.
  13:Generated_Source\PSoC5/ADC_SAR_2.c **** * You may use this file only in accordance with the license, terms, conditions,
  14:Generated_Source\PSoC5/ADC_SAR_2.c **** * disclaimers, and limitations in the end user license agreement accompanying
  15:Generated_Source\PSoC5/ADC_SAR_2.c **** * the software package with which this file was provided.
  16:Generated_Source\PSoC5/ADC_SAR_2.c **** *******************************************************************************/
  17:Generated_Source\PSoC5/ADC_SAR_2.c **** 
  18:Generated_Source\PSoC5/ADC_SAR_2.c **** #include "CyLib.h"
  19:Generated_Source\PSoC5/ADC_SAR_2.c **** #include "ADC_SAR_2.h"
  20:Generated_Source\PSoC5/ADC_SAR_2.c **** 
  21:Generated_Source\PSoC5/ADC_SAR_2.c **** #if(ADC_SAR_2_DEFAULT_INTERNAL_CLK)
ARM GAS  C:\Users\KJA\AppData\Local\Temp\ccGMcFRr.s 			page 2


  22:Generated_Source\PSoC5/ADC_SAR_2.c ****     #include "ADC_SAR_2_theACLK.h"
  23:Generated_Source\PSoC5/ADC_SAR_2.c **** #endif /* End ADC_SAR_2_DEFAULT_INTERNAL_CLK */
  24:Generated_Source\PSoC5/ADC_SAR_2.c **** 
  25:Generated_Source\PSoC5/ADC_SAR_2.c **** 
  26:Generated_Source\PSoC5/ADC_SAR_2.c **** /***************************************
  27:Generated_Source\PSoC5/ADC_SAR_2.c **** * Forward function references
  28:Generated_Source\PSoC5/ADC_SAR_2.c **** ***************************************/
  29:Generated_Source\PSoC5/ADC_SAR_2.c **** static void ADC_SAR_2_CalcGain(uint8 resolution);
  30:Generated_Source\PSoC5/ADC_SAR_2.c **** 
  31:Generated_Source\PSoC5/ADC_SAR_2.c **** 
  32:Generated_Source\PSoC5/ADC_SAR_2.c **** /***************************************
  33:Generated_Source\PSoC5/ADC_SAR_2.c **** * Global data allocation
  34:Generated_Source\PSoC5/ADC_SAR_2.c **** ***************************************/
  35:Generated_Source\PSoC5/ADC_SAR_2.c **** uint8 ADC_SAR_2_initVar = 0u;
  36:Generated_Source\PSoC5/ADC_SAR_2.c **** volatile int16 ADC_SAR_2_offset;
  37:Generated_Source\PSoC5/ADC_SAR_2.c **** volatile int16 ADC_SAR_2_countsPerVolt;     /* Obsolete Gain compensation */
  38:Generated_Source\PSoC5/ADC_SAR_2.c **** volatile int32 ADC_SAR_2_countsPer10Volt;   /* Gain compensation */
  39:Generated_Source\PSoC5/ADC_SAR_2.c **** volatile int16 ADC_SAR_2_shift;
  40:Generated_Source\PSoC5/ADC_SAR_2.c **** 
  41:Generated_Source\PSoC5/ADC_SAR_2.c **** 
  42:Generated_Source\PSoC5/ADC_SAR_2.c **** /*******************************************************************************
  43:Generated_Source\PSoC5/ADC_SAR_2.c **** * Function Name: ADC_SAR_2_Start
  44:Generated_Source\PSoC5/ADC_SAR_2.c **** ********************************************************************************
  45:Generated_Source\PSoC5/ADC_SAR_2.c **** *
  46:Generated_Source\PSoC5/ADC_SAR_2.c **** * Summary:
  47:Generated_Source\PSoC5/ADC_SAR_2.c **** *  This is the preferred method to begin component operation.
  48:Generated_Source\PSoC5/ADC_SAR_2.c **** *  ADC_SAR_2_Start() sets the initVar variable, calls the
  49:Generated_Source\PSoC5/ADC_SAR_2.c **** *  ADC_SAR_2_Init() function, and then calls the
  50:Generated_Source\PSoC5/ADC_SAR_2.c **** *  ADC_SAR_2_Enable() function.
  51:Generated_Source\PSoC5/ADC_SAR_2.c **** *
  52:Generated_Source\PSoC5/ADC_SAR_2.c **** * Parameters:
  53:Generated_Source\PSoC5/ADC_SAR_2.c **** *  None.
  54:Generated_Source\PSoC5/ADC_SAR_2.c **** *
  55:Generated_Source\PSoC5/ADC_SAR_2.c **** * Return:
  56:Generated_Source\PSoC5/ADC_SAR_2.c **** *  None.
  57:Generated_Source\PSoC5/ADC_SAR_2.c **** *
  58:Generated_Source\PSoC5/ADC_SAR_2.c **** * Global variables:
  59:Generated_Source\PSoC5/ADC_SAR_2.c **** *  The ADC_SAR_2_initVar variable is used to indicate when/if initial
  60:Generated_Source\PSoC5/ADC_SAR_2.c **** *  configuration of this component has happened. The variable is initialized to
  61:Generated_Source\PSoC5/ADC_SAR_2.c **** *  zero and set to 1 the first time ADC_Start() is called. This allows for
  62:Generated_Source\PSoC5/ADC_SAR_2.c **** *  component Re-Start without re-initialization in all subsequent calls to the
  63:Generated_Source\PSoC5/ADC_SAR_2.c **** *  ADC_SAR_2_Start() routine.
  64:Generated_Source\PSoC5/ADC_SAR_2.c **** *  If re-initialization of the component is required the variable should be set
  65:Generated_Source\PSoC5/ADC_SAR_2.c **** *  to zero before call of ADC_SAR_2_Start() routine, or the user may call
  66:Generated_Source\PSoC5/ADC_SAR_2.c **** *  ADC_SAR_2_Init() and ADC_SAR_2_Enable() as done in the
  67:Generated_Source\PSoC5/ADC_SAR_2.c **** *  ADC_SAR_2_Start() routine.
  68:Generated_Source\PSoC5/ADC_SAR_2.c **** *
  69:Generated_Source\PSoC5/ADC_SAR_2.c **** * Side Effect:
  70:Generated_Source\PSoC5/ADC_SAR_2.c **** *  If the initVar variable is already set, this function only calls the
  71:Generated_Source\PSoC5/ADC_SAR_2.c **** *  ADC_SAR_2_Enable() function.
  72:Generated_Source\PSoC5/ADC_SAR_2.c **** *
  73:Generated_Source\PSoC5/ADC_SAR_2.c **** *******************************************************************************/
  74:Generated_Source\PSoC5/ADC_SAR_2.c **** void ADC_SAR_2_Start(void)
  75:Generated_Source\PSoC5/ADC_SAR_2.c **** {
  37              		.loc 1 75 0
  38              		.cfi_startproc
  39              		@ args = 0, pretend = 0, frame = 0
ARM GAS  C:\Users\KJA\AppData\Local\Temp\ccGMcFRr.s 			page 3


  40              		@ frame_needed = 1, uses_anonymous_args = 0
  41 0000 80B5     		push	{r7, lr}
  42              		.cfi_def_cfa_offset 8
  43              		.cfi_offset 7, -8
  44              		.cfi_offset 14, -4
  45 0002 00AF     		add	r7, sp, #0
  46              		.cfi_def_cfa_register 7
  76:Generated_Source\PSoC5/ADC_SAR_2.c **** 
  77:Generated_Source\PSoC5/ADC_SAR_2.c ****     /* If not Initialized then initialize all required hardware and software */
  78:Generated_Source\PSoC5/ADC_SAR_2.c ****     if(ADC_SAR_2_initVar == 0u)
  47              		.loc 1 78 0
  48 0004 054B     		ldr	r3, .L3
  49 0006 1B78     		ldrb	r3, [r3]	@ zero_extendqisi2
  50 0008 002B     		cmp	r3, #0
  51 000a 04D1     		bne	.L2
  79:Generated_Source\PSoC5/ADC_SAR_2.c ****     {
  80:Generated_Source\PSoC5/ADC_SAR_2.c ****         ADC_SAR_2_Init();
  52              		.loc 1 80 0
  53 000c FFF7FEFF 		bl	ADC_SAR_2_Init
  81:Generated_Source\PSoC5/ADC_SAR_2.c ****         ADC_SAR_2_initVar = 1u;
  54              		.loc 1 81 0
  55 0010 024B     		ldr	r3, .L3
  56 0012 0122     		movs	r2, #1
  57 0014 1A70     		strb	r2, [r3]
  58              	.L2:
  82:Generated_Source\PSoC5/ADC_SAR_2.c ****     }
  83:Generated_Source\PSoC5/ADC_SAR_2.c ****     ADC_SAR_2_Enable();
  59              		.loc 1 83 0
  60 0016 FFF7FEFF 		bl	ADC_SAR_2_Enable
  84:Generated_Source\PSoC5/ADC_SAR_2.c **** }
  61              		.loc 1 84 0
  62 001a 80BD     		pop	{r7, pc}
  63              	.L4:
  64              		.align	2
  65              	.L3:
  66 001c 00000000 		.word	ADC_SAR_2_initVar
  67              		.cfi_endproc
  68              	.LFE0:
  69              		.size	ADC_SAR_2_Start, .-ADC_SAR_2_Start
  70              		.section	.text.ADC_SAR_2_Init,"ax",%progbits
  71              		.align	2
  72              		.global	ADC_SAR_2_Init
  73              		.thumb
  74              		.thumb_func
  75              		.type	ADC_SAR_2_Init, %function
  76              	ADC_SAR_2_Init:
  77              	.LFB1:
  85:Generated_Source\PSoC5/ADC_SAR_2.c **** 
  86:Generated_Source\PSoC5/ADC_SAR_2.c **** 
  87:Generated_Source\PSoC5/ADC_SAR_2.c **** /*******************************************************************************
  88:Generated_Source\PSoC5/ADC_SAR_2.c **** * Function Name: ADC_SAR_2_Init
  89:Generated_Source\PSoC5/ADC_SAR_2.c **** ********************************************************************************
  90:Generated_Source\PSoC5/ADC_SAR_2.c **** *
  91:Generated_Source\PSoC5/ADC_SAR_2.c **** * Summary:
  92:Generated_Source\PSoC5/ADC_SAR_2.c **** *  Initialize component's parameters to the parameters set by user in the
  93:Generated_Source\PSoC5/ADC_SAR_2.c **** *  customizer of the component placed onto schematic. Usually called in
  94:Generated_Source\PSoC5/ADC_SAR_2.c **** *  ADC_SAR_2_Start().
ARM GAS  C:\Users\KJA\AppData\Local\Temp\ccGMcFRr.s 			page 4


  95:Generated_Source\PSoC5/ADC_SAR_2.c **** *
  96:Generated_Source\PSoC5/ADC_SAR_2.c **** * Parameters:
  97:Generated_Source\PSoC5/ADC_SAR_2.c **** *  None.
  98:Generated_Source\PSoC5/ADC_SAR_2.c **** *
  99:Generated_Source\PSoC5/ADC_SAR_2.c **** * Return:
 100:Generated_Source\PSoC5/ADC_SAR_2.c **** *  None.
 101:Generated_Source\PSoC5/ADC_SAR_2.c **** *
 102:Generated_Source\PSoC5/ADC_SAR_2.c **** * Global variables:
 103:Generated_Source\PSoC5/ADC_SAR_2.c **** *  The ADC_SAR_2_offset variable is initialized to 0.
 104:Generated_Source\PSoC5/ADC_SAR_2.c **** *
 105:Generated_Source\PSoC5/ADC_SAR_2.c **** *******************************************************************************/
 106:Generated_Source\PSoC5/ADC_SAR_2.c **** void ADC_SAR_2_Init(void)
 107:Generated_Source\PSoC5/ADC_SAR_2.c **** {
  78              		.loc 1 107 0
  79              		.cfi_startproc
  80              		@ args = 0, pretend = 0, frame = 0
  81              		@ frame_needed = 1, uses_anonymous_args = 0
  82 0000 80B5     		push	{r7, lr}
  83              		.cfi_def_cfa_offset 8
  84              		.cfi_offset 7, -8
  85              		.cfi_offset 14, -4
  86 0002 00AF     		add	r7, sp, #0
  87              		.cfi_def_cfa_register 7
 108:Generated_Source\PSoC5/ADC_SAR_2.c **** 
 109:Generated_Source\PSoC5/ADC_SAR_2.c ****     /* This is only valid if there is an internal clock */
 110:Generated_Source\PSoC5/ADC_SAR_2.c ****     #if(ADC_SAR_2_DEFAULT_INTERNAL_CLK)
 111:Generated_Source\PSoC5/ADC_SAR_2.c ****         ADC_SAR_2_theACLK_SetMode(CYCLK_DUTY);
 112:Generated_Source\PSoC5/ADC_SAR_2.c ****     #endif /* End ADC_SAR_2_DEFAULT_INTERNAL_CLK */
 113:Generated_Source\PSoC5/ADC_SAR_2.c **** 
 114:Generated_Source\PSoC5/ADC_SAR_2.c ****     #if(ADC_SAR_2_IRQ_REMOVE == 0u)
 115:Generated_Source\PSoC5/ADC_SAR_2.c ****         /* Start and set interrupt vector */
 116:Generated_Source\PSoC5/ADC_SAR_2.c ****         CyIntSetPriority(ADC_SAR_2_INTC_NUMBER, ADC_SAR_2_INTC_PRIOR_NUMBER);
  88              		.loc 1 116 0
  89 0004 0120     		movs	r0, #1
  90 0006 0721     		movs	r1, #7
  91 0008 FFF7FEFF 		bl	CyIntSetPriority
 117:Generated_Source\PSoC5/ADC_SAR_2.c ****         (void)CyIntSetVector(ADC_SAR_2_INTC_NUMBER, &ADC_SAR_2_ISR);
  92              		.loc 1 117 0
  93 000c 0120     		movs	r0, #1
  94 000e 0949     		ldr	r1, .L6
  95 0010 FFF7FEFF 		bl	CyIntSetVector
 118:Generated_Source\PSoC5/ADC_SAR_2.c ****     #endif   /* End ADC_SAR_2_IRQ_REMOVE */
 119:Generated_Source\PSoC5/ADC_SAR_2.c **** 
 120:Generated_Source\PSoC5/ADC_SAR_2.c ****     /* Enable IRQ mode*/
 121:Generated_Source\PSoC5/ADC_SAR_2.c ****     ADC_SAR_2_SAR_CSR1_REG |= ADC_SAR_2_SAR_IRQ_MASK_EN | ADC_SAR_2_SAR_IRQ_MODE_EDGE;
  96              		.loc 1 121 0
  97 0014 084A     		ldr	r2, .L6+4
  98 0016 084B     		ldr	r3, .L6+4
  99 0018 1B78     		ldrb	r3, [r3]
 100 001a DBB2     		uxtb	r3, r3
 101 001c 43F00603 		orr	r3, r3, #6
 102 0020 DBB2     		uxtb	r3, r3
 103 0022 1370     		strb	r3, [r2]
 122:Generated_Source\PSoC5/ADC_SAR_2.c **** 
 123:Generated_Source\PSoC5/ADC_SAR_2.c ****     /*Set SAR ADC resolution ADC */
 124:Generated_Source\PSoC5/ADC_SAR_2.c ****     ADC_SAR_2_SetResolution(ADC_SAR_2_DEFAULT_RESOLUTION);
 104              		.loc 1 124 0
ARM GAS  C:\Users\KJA\AppData\Local\Temp\ccGMcFRr.s 			page 5


 105 0024 0C20     		movs	r0, #12
 106 0026 FFF7FEFF 		bl	ADC_SAR_2_SetResolution
 125:Generated_Source\PSoC5/ADC_SAR_2.c ****     ADC_SAR_2_offset = 0;
 107              		.loc 1 125 0
 108 002a 044B     		ldr	r3, .L6+8
 109 002c 0022     		movs	r2, #0
 110 002e 1A80     		strh	r2, [r3]	@ movhi
 126:Generated_Source\PSoC5/ADC_SAR_2.c **** }
 111              		.loc 1 126 0
 112 0030 80BD     		pop	{r7, pc}
 113              	.L7:
 114 0032 00BF     		.align	2
 115              	.L6:
 116 0034 00000000 		.word	ADC_SAR_2_ISR
 117 0038 01590040 		.word	1073764609
 118 003c 00000000 		.word	ADC_SAR_2_offset
 119              		.cfi_endproc
 120              	.LFE1:
 121              		.size	ADC_SAR_2_Init, .-ADC_SAR_2_Init
 122              		.section	.text.ADC_SAR_2_Enable,"ax",%progbits
 123              		.align	2
 124              		.global	ADC_SAR_2_Enable
 125              		.thumb
 126              		.thumb_func
 127              		.type	ADC_SAR_2_Enable, %function
 128              	ADC_SAR_2_Enable:
 129              	.LFB2:
 127:Generated_Source\PSoC5/ADC_SAR_2.c **** 
 128:Generated_Source\PSoC5/ADC_SAR_2.c **** 
 129:Generated_Source\PSoC5/ADC_SAR_2.c **** /*******************************************************************************
 130:Generated_Source\PSoC5/ADC_SAR_2.c **** * Function Name: ADC_SAR_2_Enable
 131:Generated_Source\PSoC5/ADC_SAR_2.c **** ********************************************************************************
 132:Generated_Source\PSoC5/ADC_SAR_2.c **** *
 133:Generated_Source\PSoC5/ADC_SAR_2.c **** * Summary:
 134:Generated_Source\PSoC5/ADC_SAR_2.c **** *  Enables the reference, clock and power for SAR ADC.
 135:Generated_Source\PSoC5/ADC_SAR_2.c **** *
 136:Generated_Source\PSoC5/ADC_SAR_2.c **** * Parameters:
 137:Generated_Source\PSoC5/ADC_SAR_2.c **** *  None.
 138:Generated_Source\PSoC5/ADC_SAR_2.c **** *
 139:Generated_Source\PSoC5/ADC_SAR_2.c **** * Return:
 140:Generated_Source\PSoC5/ADC_SAR_2.c **** *  None.
 141:Generated_Source\PSoC5/ADC_SAR_2.c **** *
 142:Generated_Source\PSoC5/ADC_SAR_2.c **** *******************************************************************************/
 143:Generated_Source\PSoC5/ADC_SAR_2.c **** void ADC_SAR_2_Enable(void)
 144:Generated_Source\PSoC5/ADC_SAR_2.c **** {
 130              		.loc 1 144 0
 131              		.cfi_startproc
 132              		@ args = 0, pretend = 0, frame = 8
 133              		@ frame_needed = 1, uses_anonymous_args = 0
 134 0000 80B5     		push	{r7, lr}
 135              		.cfi_def_cfa_offset 8
 136              		.cfi_offset 7, -8
 137              		.cfi_offset 14, -4
 138 0002 82B0     		sub	sp, sp, #8
 139              		.cfi_def_cfa_offset 16
 140 0004 00AF     		add	r7, sp, #0
 141              		.cfi_def_cfa_register 7
ARM GAS  C:\Users\KJA\AppData\Local\Temp\ccGMcFRr.s 			page 6


 145:Generated_Source\PSoC5/ADC_SAR_2.c ****     uint8 tmpReg;
 146:Generated_Source\PSoC5/ADC_SAR_2.c ****     uint8 enableInterrupts;
 147:Generated_Source\PSoC5/ADC_SAR_2.c ****     enableInterrupts = CyEnterCriticalSection();
 142              		.loc 1 147 0
 143 0006 FFF7FEFF 		bl	CyEnterCriticalSection
 144 000a 0346     		mov	r3, r0
 145 000c FB71     		strb	r3, [r7, #7]
 148:Generated_Source\PSoC5/ADC_SAR_2.c **** 
 149:Generated_Source\PSoC5/ADC_SAR_2.c ****     /* Enable the SAR ADC block in Active Power Mode */
 150:Generated_Source\PSoC5/ADC_SAR_2.c ****     ADC_SAR_2_PWRMGR_SAR_REG |= ADC_SAR_2_ACT_PWR_SAR_EN;
 146              		.loc 1 150 0
 147 000e 264A     		ldr	r2, .L9
 148 0010 254B     		ldr	r3, .L9
 149 0012 1B78     		ldrb	r3, [r3]
 150 0014 DBB2     		uxtb	r3, r3
 151 0016 43F00103 		orr	r3, r3, #1
 152 001a DBB2     		uxtb	r3, r3
 153 001c 1370     		strb	r3, [r2]
 151:Generated_Source\PSoC5/ADC_SAR_2.c **** 
 152:Generated_Source\PSoC5/ADC_SAR_2.c ****      /* Enable the SAR ADC in Standby Power Mode*/
 153:Generated_Source\PSoC5/ADC_SAR_2.c ****     ADC_SAR_2_STBY_PWRMGR_SAR_REG |= ADC_SAR_2_STBY_PWR_SAR_EN;
 154              		.loc 1 153 0
 155 001e 234A     		ldr	r2, .L9+4
 156 0020 224B     		ldr	r3, .L9+4
 157 0022 1B78     		ldrb	r3, [r3]
 158 0024 DBB2     		uxtb	r3, r3
 159 0026 43F00103 		orr	r3, r3, #1
 160 002a DBB2     		uxtb	r3, r3
 161 002c 1370     		strb	r3, [r2]
 154:Generated_Source\PSoC5/ADC_SAR_2.c **** 
 155:Generated_Source\PSoC5/ADC_SAR_2.c ****     /* This is only valid if there is an internal clock */
 156:Generated_Source\PSoC5/ADC_SAR_2.c ****     #if(ADC_SAR_2_DEFAULT_INTERNAL_CLK)
 157:Generated_Source\PSoC5/ADC_SAR_2.c ****         ADC_SAR_2_PWRMGR_CLK_REG |= ADC_SAR_2_ACT_PWR_CLK_EN;
 158:Generated_Source\PSoC5/ADC_SAR_2.c ****         ADC_SAR_2_STBY_PWRMGR_CLK_REG |= ADC_SAR_2_STBY_PWR_CLK_EN;
 159:Generated_Source\PSoC5/ADC_SAR_2.c ****     #endif /* End ADC_SAR_2_DEFAULT_INTERNAL_CLK */
 160:Generated_Source\PSoC5/ADC_SAR_2.c **** 
 161:Generated_Source\PSoC5/ADC_SAR_2.c ****     /* Enable VCM buffer and Enable Int Ref Amp */
 162:Generated_Source\PSoC5/ADC_SAR_2.c ****     tmpReg = ADC_SAR_2_SAR_CSR3_REG;
 162              		.loc 1 162 0
 163 002e 204B     		ldr	r3, .L9+8
 164 0030 1B78     		ldrb	r3, [r3]
 165 0032 BB71     		strb	r3, [r7, #6]
 163:Generated_Source\PSoC5/ADC_SAR_2.c ****     tmpReg |= ADC_SAR_2_SAR_EN_BUF_VCM_EN;
 166              		.loc 1 163 0
 167 0034 BB79     		ldrb	r3, [r7, #6]
 168 0036 43F00203 		orr	r3, r3, #2
 169 003a BB71     		strb	r3, [r7, #6]
 164:Generated_Source\PSoC5/ADC_SAR_2.c ****     /* PD_BUF_VREF is OFF in External reference or Vdda reference mode */
 165:Generated_Source\PSoC5/ADC_SAR_2.c ****     #if((ADC_SAR_2_DEFAULT_REFERENCE == ADC_SAR_2__EXT_REF) || \
 166:Generated_Source\PSoC5/ADC_SAR_2.c ****         (ADC_SAR_2_DEFAULT_RANGE == ADC_SAR_2__VNEG_VDDA_DIFF))
 167:Generated_Source\PSoC5/ADC_SAR_2.c ****         tmpReg &= (uint8)~ADC_SAR_2_SAR_EN_BUF_VREF_EN;
 168:Generated_Source\PSoC5/ADC_SAR_2.c ****     #else /* In INTREF or INTREF Bypassed this buffer is ON */
 169:Generated_Source\PSoC5/ADC_SAR_2.c ****         tmpReg |= ADC_SAR_2_SAR_EN_BUF_VREF_EN;
 170              		.loc 1 169 0
 171 003c BB79     		ldrb	r3, [r7, #6]
 172 003e 43F00103 		orr	r3, r3, #1
 173 0042 BB71     		strb	r3, [r7, #6]
ARM GAS  C:\Users\KJA\AppData\Local\Temp\ccGMcFRr.s 			page 7


 170:Generated_Source\PSoC5/ADC_SAR_2.c ****     #endif /* ADC_SAR_2_DEFAULT_REFERENCE == ADC_SAR_2__EXT_REF */
 171:Generated_Source\PSoC5/ADC_SAR_2.c ****     ADC_SAR_2_SAR_CSR3_REG = tmpReg;
 174              		.loc 1 171 0
 175 0044 1A4A     		ldr	r2, .L9+8
 176 0046 BB79     		ldrb	r3, [r7, #6]
 177 0048 1370     		strb	r3, [r2]
 172:Generated_Source\PSoC5/ADC_SAR_2.c **** 
 173:Generated_Source\PSoC5/ADC_SAR_2.c ****     /* Set reference for ADC */
 174:Generated_Source\PSoC5/ADC_SAR_2.c ****     #if(ADC_SAR_2_DEFAULT_RANGE == ADC_SAR_2__VNEG_VDDA_DIFF)
 175:Generated_Source\PSoC5/ADC_SAR_2.c ****         #if(ADC_SAR_2_DEFAULT_REFERENCE == ADC_SAR_2__EXT_REF)
 176:Generated_Source\PSoC5/ADC_SAR_2.c ****             ADC_SAR_2_SAR_CSR6_REG = ADC_SAR_2_INT_BYPASS_EXT_VREF; /* S2 */
 177:Generated_Source\PSoC5/ADC_SAR_2.c ****         #else /* Internal Vdda reference or obsolete bypass mode */
 178:Generated_Source\PSoC5/ADC_SAR_2.c ****             ADC_SAR_2_SAR_CSR6_REG = ADC_SAR_2_VDDA_VREF;           /* S7 */
 179:Generated_Source\PSoC5/ADC_SAR_2.c ****         #endif /* ADC_SAR_2_DEFAULT_REFERENCE == ADC_SAR_2__EXT_REF */
 180:Generated_Source\PSoC5/ADC_SAR_2.c ****     #else  /* Reference goes through internal buffer */
 181:Generated_Source\PSoC5/ADC_SAR_2.c ****         #if(ADC_SAR_2_DEFAULT_REFERENCE == ADC_SAR_2__INT_REF_NOT_BYPASSED)
 182:Generated_Source\PSoC5/ADC_SAR_2.c ****             ADC_SAR_2_SAR_CSR6_REG = ADC_SAR_2_INT_VREF;            /* S3 + S4 */
 178              		.loc 1 182 0
 179 004a 1A4B     		ldr	r3, .L9+12
 180 004c 1822     		movs	r2, #24
 181 004e 1A70     		strb	r2, [r3]
 183:Generated_Source\PSoC5/ADC_SAR_2.c ****         #else /* INTREF Bypassed of External */
 184:Generated_Source\PSoC5/ADC_SAR_2.c ****             ADC_SAR_2_SAR_CSR6_REG = ADC_SAR_2_INT_BYPASS_EXT_VREF; /* S2 */
 185:Generated_Source\PSoC5/ADC_SAR_2.c ****         #endif /* ADC_SAR_2_DEFAULT_REFERENCE == ADC_SAR_2__INT_REF_NOT_BYPASSED */
 186:Generated_Source\PSoC5/ADC_SAR_2.c ****     #endif /* VNEG_VDDA_DIFF */
 187:Generated_Source\PSoC5/ADC_SAR_2.c **** 
 188:Generated_Source\PSoC5/ADC_SAR_2.c ****     /* Low non-overlap delay for sampling clock signals (for 1MSPS) */
 189:Generated_Source\PSoC5/ADC_SAR_2.c ****     #if(ADC_SAR_2_HIGH_POWER_PULSE == 0u) /* MinPulseWidth <= 50 ns */
 190:Generated_Source\PSoC5/ADC_SAR_2.c ****         ADC_SAR_2_SAR_CSR5_REG &= (uint8)~ADC_SAR_2_SAR_DLY_INC;
 191:Generated_Source\PSoC5/ADC_SAR_2.c ****     #else /* Set High non-overlap delay for sampling clock signals (for <500KSPS)*/
 192:Generated_Source\PSoC5/ADC_SAR_2.c ****         ADC_SAR_2_SAR_CSR5_REG |= ADC_SAR_2_SAR_DLY_INC;
 182              		.loc 1 192 0
 183 0050 194A     		ldr	r2, .L9+16
 184 0052 194B     		ldr	r3, .L9+16
 185 0054 1B78     		ldrb	r3, [r3]
 186 0056 DBB2     		uxtb	r3, r3
 187 0058 43F04003 		orr	r3, r3, #64
 188 005c DBB2     		uxtb	r3, r3
 189 005e 1370     		strb	r3, [r2]
 193:Generated_Source\PSoC5/ADC_SAR_2.c ****     #endif /* ADC_SAR_2_HIGH_POWER_PULSE == 0u */
 194:Generated_Source\PSoC5/ADC_SAR_2.c **** 
 195:Generated_Source\PSoC5/ADC_SAR_2.c ****     /* Increase comparator latch enable delay by 20%, 
 196:Generated_Source\PSoC5/ADC_SAR_2.c ****     *  Increase comparator bias current by 30% without impacting delaysDelay 
 197:Generated_Source\PSoC5/ADC_SAR_2.c ****     *  Default for 1MSPS) 
 198:Generated_Source\PSoC5/ADC_SAR_2.c ****     */
 199:Generated_Source\PSoC5/ADC_SAR_2.c ****     #if(ADC_SAR_2_HIGH_POWER_PULSE == 0u)    /* MinPulseWidth <= 50 ns */
 200:Generated_Source\PSoC5/ADC_SAR_2.c ****         ADC_SAR_2_SAR_CSR5_REG |= ADC_SAR_2_SAR_SEL_CSEL_DFT_CHAR;
 201:Generated_Source\PSoC5/ADC_SAR_2.c ****     #else /* for <500ksps */
 202:Generated_Source\PSoC5/ADC_SAR_2.c ****         ADC_SAR_2_SAR_CSR5_REG &= (uint8)~ADC_SAR_2_SAR_SEL_CSEL_DFT_CHAR;
 190              		.loc 1 202 0
 191 0060 154A     		ldr	r2, .L9+16
 192 0062 154B     		ldr	r3, .L9+16
 193 0064 1B78     		ldrb	r3, [r3]
 194 0066 DBB2     		uxtb	r3, r3
 195 0068 23F00303 		bic	r3, r3, #3
 196 006c DBB2     		uxtb	r3, r3
 197 006e 1370     		strb	r3, [r2]
ARM GAS  C:\Users\KJA\AppData\Local\Temp\ccGMcFRr.s 			page 8


 203:Generated_Source\PSoC5/ADC_SAR_2.c ****     #endif /* ADC_SAR_2_HIGH_POWER_PULSE == 0u */
 204:Generated_Source\PSoC5/ADC_SAR_2.c **** 
 205:Generated_Source\PSoC5/ADC_SAR_2.c ****     /* Set default power and other configurations for control register 0 in multiple lines */
 206:Generated_Source\PSoC5/ADC_SAR_2.c ****     ADC_SAR_2_SAR_CSR0_REG = (uint8)((uint8)ADC_SAR_2_DEFAULT_POWER << ADC_SAR_2_SAR_POWER_SHIFT)
 198              		.loc 1 206 0
 199 0070 124B     		ldr	r3, .L9+20
 200 0072 C822     		movs	r2, #200
 201 0074 1A70     		strb	r2, [r3]
 207:Generated_Source\PSoC5/ADC_SAR_2.c ****     /* SAR_HIZ_CLEAR:   Should not be used for LP */
 208:Generated_Source\PSoC5/ADC_SAR_2.c ****     #if ((CY_PSOC5LP) || (ADC_SAR_2_DEFAULT_REFERENCE != ADC_SAR_2__EXT_REF))
 209:Generated_Source\PSoC5/ADC_SAR_2.c ****         | ADC_SAR_2_SAR_HIZ_CLEAR
 210:Generated_Source\PSoC5/ADC_SAR_2.c ****     #endif /* SAR_HIZ_CLEAR */
 211:Generated_Source\PSoC5/ADC_SAR_2.c ****     /*Set Convertion mode */
 212:Generated_Source\PSoC5/ADC_SAR_2.c ****     #if(ADC_SAR_2_DEFAULT_CONV_MODE != ADC_SAR_2__FREE_RUNNING)      /* If triggered mode */
 213:Generated_Source\PSoC5/ADC_SAR_2.c ****         | ADC_SAR_2_SAR_MX_SOF_UDB           /* source: UDB */
 214:Generated_Source\PSoC5/ADC_SAR_2.c ****         | ADC_SAR_2_SAR_SOF_MODE_EDGE        /* Set edge-sensitive sof source */
 215:Generated_Source\PSoC5/ADC_SAR_2.c ****     #endif /* ADC_SAR_2_DEFAULT_CONV_MODE */
 216:Generated_Source\PSoC5/ADC_SAR_2.c ****     ; /* end of multiple line initialization */
 217:Generated_Source\PSoC5/ADC_SAR_2.c **** 
 218:Generated_Source\PSoC5/ADC_SAR_2.c ****     ADC_SAR_2_SAR_TR0_REG = ADC_SAR_2_SAR_CAP_TRIM_2;
 202              		.loc 1 218 0
 203 0076 124B     		ldr	r3, .L9+24
 204 0078 0222     		movs	r2, #2
 205 007a 1A70     		strb	r2, [r3]
 219:Generated_Source\PSoC5/ADC_SAR_2.c **** 
 220:Generated_Source\PSoC5/ADC_SAR_2.c ****     /* Enable clock for SAR ADC*/
 221:Generated_Source\PSoC5/ADC_SAR_2.c ****     ADC_SAR_2_SAR_CLK_REG |= ADC_SAR_2_SAR_MX_CLK_EN;
 206              		.loc 1 221 0
 207 007c 114A     		ldr	r2, .L9+28
 208 007e 114B     		ldr	r3, .L9+28
 209 0080 1B78     		ldrb	r3, [r3]
 210 0082 DBB2     		uxtb	r3, r3
 211 0084 43F00803 		orr	r3, r3, #8
 212 0088 DBB2     		uxtb	r3, r3
 213 008a 1370     		strb	r3, [r2]
 222:Generated_Source\PSoC5/ADC_SAR_2.c **** 
 223:Generated_Source\PSoC5/ADC_SAR_2.c ****     CyDelayUs(10u); /* The block is ready to use 10 us after the enable signal is set high. */
 214              		.loc 1 223 0
 215 008c 0A20     		movs	r0, #10
 216 008e FFF7FEFF 		bl	CyDelayUs
 224:Generated_Source\PSoC5/ADC_SAR_2.c **** 
 225:Generated_Source\PSoC5/ADC_SAR_2.c ****     #if(ADC_SAR_2_IRQ_REMOVE == 0u)
 226:Generated_Source\PSoC5/ADC_SAR_2.c ****         /* Clear a pending interrupt */
 227:Generated_Source\PSoC5/ADC_SAR_2.c ****         CyIntClearPending(ADC_SAR_2_INTC_NUMBER);
 217              		.loc 1 227 0
 218 0092 0D4B     		ldr	r3, .L9+32
 219 0094 0222     		movs	r2, #2
 220 0096 1A60     		str	r2, [r3]
 228:Generated_Source\PSoC5/ADC_SAR_2.c ****     #endif   /* End ADC_SAR_2_IRQ_REMOVE */
 229:Generated_Source\PSoC5/ADC_SAR_2.c **** 
 230:Generated_Source\PSoC5/ADC_SAR_2.c ****     CyExitCriticalSection(enableInterrupts);
 221              		.loc 1 230 0
 222 0098 FB79     		ldrb	r3, [r7, #7]	@ zero_extendqisi2
 223 009a 1846     		mov	r0, r3
 224 009c FFF7FEFF 		bl	CyExitCriticalSection
 231:Generated_Source\PSoC5/ADC_SAR_2.c **** }
 225              		.loc 1 231 0
ARM GAS  C:\Users\KJA\AppData\Local\Temp\ccGMcFRr.s 			page 9


 226 00a0 0837     		adds	r7, r7, #8
 227              		.cfi_def_cfa_offset 8
 228 00a2 BD46     		mov	sp, r7
 229              		.cfi_def_cfa_register 13
 230              		@ sp needed
 231 00a4 80BD     		pop	{r7, pc}
 232              	.L10:
 233 00a6 00BF     		.align	2
 234              	.L9:
 235 00a8 AB430040 		.word	1073759147
 236 00ac BB430040 		.word	1073759163
 237 00b0 03590040 		.word	1073764611
 238 00b4 06590040 		.word	1073764614
 239 00b8 05590040 		.word	1073764613
 240 00bc 00590040 		.word	1073764608
 241 00c0 14460040 		.word	1073759764
 242 00c4 275B0040 		.word	1073765159
 243 00c8 80E200E0 		.word	-536812928
 244              		.cfi_endproc
 245              	.LFE2:
 246              		.size	ADC_SAR_2_Enable, .-ADC_SAR_2_Enable
 247              		.section	.text.ADC_SAR_2_Stop,"ax",%progbits
 248              		.align	2
 249              		.global	ADC_SAR_2_Stop
 250              		.thumb
 251              		.thumb_func
 252              		.type	ADC_SAR_2_Stop, %function
 253              	ADC_SAR_2_Stop:
 254              	.LFB3:
 232:Generated_Source\PSoC5/ADC_SAR_2.c **** 
 233:Generated_Source\PSoC5/ADC_SAR_2.c **** 
 234:Generated_Source\PSoC5/ADC_SAR_2.c **** /*******************************************************************************
 235:Generated_Source\PSoC5/ADC_SAR_2.c **** * Function Name: ADC_SAR_2_Stop
 236:Generated_Source\PSoC5/ADC_SAR_2.c **** ********************************************************************************
 237:Generated_Source\PSoC5/ADC_SAR_2.c **** *
 238:Generated_Source\PSoC5/ADC_SAR_2.c **** * Summary:
 239:Generated_Source\PSoC5/ADC_SAR_2.c **** *  Stops ADC conversions and puts the ADC into its lowest power mode.
 240:Generated_Source\PSoC5/ADC_SAR_2.c **** *
 241:Generated_Source\PSoC5/ADC_SAR_2.c **** * Parameters:
 242:Generated_Source\PSoC5/ADC_SAR_2.c **** *  None.
 243:Generated_Source\PSoC5/ADC_SAR_2.c **** *
 244:Generated_Source\PSoC5/ADC_SAR_2.c **** * Return:
 245:Generated_Source\PSoC5/ADC_SAR_2.c **** *  None.
 246:Generated_Source\PSoC5/ADC_SAR_2.c **** *
 247:Generated_Source\PSoC5/ADC_SAR_2.c **** *******************************************************************************/
 248:Generated_Source\PSoC5/ADC_SAR_2.c **** void ADC_SAR_2_Stop(void)
 249:Generated_Source\PSoC5/ADC_SAR_2.c **** {
 255              		.loc 1 249 0
 256              		.cfi_startproc
 257              		@ args = 0, pretend = 0, frame = 8
 258              		@ frame_needed = 1, uses_anonymous_args = 0
 259 0000 80B5     		push	{r7, lr}
 260              		.cfi_def_cfa_offset 8
 261              		.cfi_offset 7, -8
 262              		.cfi_offset 14, -4
 263 0002 82B0     		sub	sp, sp, #8
 264              		.cfi_def_cfa_offset 16
ARM GAS  C:\Users\KJA\AppData\Local\Temp\ccGMcFRr.s 			page 10


 265 0004 00AF     		add	r7, sp, #0
 266              		.cfi_def_cfa_register 7
 250:Generated_Source\PSoC5/ADC_SAR_2.c ****     uint8 enableInterrupts;
 251:Generated_Source\PSoC5/ADC_SAR_2.c ****     enableInterrupts = CyEnterCriticalSection();
 267              		.loc 1 251 0
 268 0006 FFF7FEFF 		bl	CyEnterCriticalSection
 269 000a 0346     		mov	r3, r0
 270 000c FB71     		strb	r3, [r7, #7]
 252:Generated_Source\PSoC5/ADC_SAR_2.c **** 
 253:Generated_Source\PSoC5/ADC_SAR_2.c ****     /* Stop all conversions */
 254:Generated_Source\PSoC5/ADC_SAR_2.c ****     ADC_SAR_2_SAR_CSR0_REG &= (uint8)~ADC_SAR_2_SAR_SOF_START_CONV;
 271              		.loc 1 254 0
 272 000e 0F4A     		ldr	r2, .L12
 273 0010 0E4B     		ldr	r3, .L12
 274 0012 1B78     		ldrb	r3, [r3]
 275 0014 DBB2     		uxtb	r3, r3
 276 0016 23F00103 		bic	r3, r3, #1
 277 001a DBB2     		uxtb	r3, r3
 278 001c 1370     		strb	r3, [r2]
 255:Generated_Source\PSoC5/ADC_SAR_2.c ****     /* Disable the SAR ADC block in Active Power Mode */
 256:Generated_Source\PSoC5/ADC_SAR_2.c ****     ADC_SAR_2_PWRMGR_SAR_REG &= (uint8)~ADC_SAR_2_ACT_PWR_SAR_EN;
 279              		.loc 1 256 0
 280 001e 0C4A     		ldr	r2, .L12+4
 281 0020 0B4B     		ldr	r3, .L12+4
 282 0022 1B78     		ldrb	r3, [r3]
 283 0024 DBB2     		uxtb	r3, r3
 284 0026 23F00103 		bic	r3, r3, #1
 285 002a DBB2     		uxtb	r3, r3
 286 002c 1370     		strb	r3, [r2]
 257:Generated_Source\PSoC5/ADC_SAR_2.c ****     /* Disable the SAR ADC in Standby Power Mode */
 258:Generated_Source\PSoC5/ADC_SAR_2.c ****     ADC_SAR_2_STBY_PWRMGR_SAR_REG &= (uint8)~ADC_SAR_2_STBY_PWR_SAR_EN;
 287              		.loc 1 258 0
 288 002e 094A     		ldr	r2, .L12+8
 289 0030 084B     		ldr	r3, .L12+8
 290 0032 1B78     		ldrb	r3, [r3]
 291 0034 DBB2     		uxtb	r3, r3
 292 0036 23F00103 		bic	r3, r3, #1
 293 003a DBB2     		uxtb	r3, r3
 294 003c 1370     		strb	r3, [r2]
 259:Generated_Source\PSoC5/ADC_SAR_2.c **** 
 260:Generated_Source\PSoC5/ADC_SAR_2.c ****     /* This is only valid if there is an internal clock */
 261:Generated_Source\PSoC5/ADC_SAR_2.c ****     #if(ADC_SAR_2_DEFAULT_INTERNAL_CLK)
 262:Generated_Source\PSoC5/ADC_SAR_2.c ****         ADC_SAR_2_PWRMGR_CLK_REG &= (uint8)~ADC_SAR_2_ACT_PWR_CLK_EN;
 263:Generated_Source\PSoC5/ADC_SAR_2.c ****         ADC_SAR_2_STBY_PWRMGR_CLK_REG &= (uint8)~ADC_SAR_2_STBY_PWR_CLK_EN;
 264:Generated_Source\PSoC5/ADC_SAR_2.c ****     #endif /* End ADC_SAR_2_DEFAULT_INTERNAL_CLK */
 265:Generated_Source\PSoC5/ADC_SAR_2.c **** 
 266:Generated_Source\PSoC5/ADC_SAR_2.c ****     CyExitCriticalSection(enableInterrupts);
 295              		.loc 1 266 0
 296 003e FB79     		ldrb	r3, [r7, #7]	@ zero_extendqisi2
 297 0040 1846     		mov	r0, r3
 298 0042 FFF7FEFF 		bl	CyExitCriticalSection
 267:Generated_Source\PSoC5/ADC_SAR_2.c **** 
 268:Generated_Source\PSoC5/ADC_SAR_2.c **** }
 299              		.loc 1 268 0
 300 0046 0837     		adds	r7, r7, #8
 301              		.cfi_def_cfa_offset 8
 302 0048 BD46     		mov	sp, r7
ARM GAS  C:\Users\KJA\AppData\Local\Temp\ccGMcFRr.s 			page 11


 303              		.cfi_def_cfa_register 13
 304              		@ sp needed
 305 004a 80BD     		pop	{r7, pc}
 306              	.L13:
 307              		.align	2
 308              	.L12:
 309 004c 00590040 		.word	1073764608
 310 0050 AB430040 		.word	1073759147
 311 0054 BB430040 		.word	1073759163
 312              		.cfi_endproc
 313              	.LFE3:
 314              		.size	ADC_SAR_2_Stop, .-ADC_SAR_2_Stop
 315              		.section	.text.ADC_SAR_2_SetPower,"ax",%progbits
 316              		.align	2
 317              		.global	ADC_SAR_2_SetPower
 318              		.thumb
 319              		.thumb_func
 320              		.type	ADC_SAR_2_SetPower, %function
 321              	ADC_SAR_2_SetPower:
 322              	.LFB4:
 269:Generated_Source\PSoC5/ADC_SAR_2.c **** 
 270:Generated_Source\PSoC5/ADC_SAR_2.c **** 
 271:Generated_Source\PSoC5/ADC_SAR_2.c **** /*******************************************************************************
 272:Generated_Source\PSoC5/ADC_SAR_2.c **** * Function Name: ADC_SAR_2_SetPower
 273:Generated_Source\PSoC5/ADC_SAR_2.c **** ********************************************************************************
 274:Generated_Source\PSoC5/ADC_SAR_2.c **** *
 275:Generated_Source\PSoC5/ADC_SAR_2.c **** * Summary:
 276:Generated_Source\PSoC5/ADC_SAR_2.c **** *  Sets the operational power of the ADC. You should use the higher power
 277:Generated_Source\PSoC5/ADC_SAR_2.c **** *  settings with faster clock speeds.
 278:Generated_Source\PSoC5/ADC_SAR_2.c **** *
 279:Generated_Source\PSoC5/ADC_SAR_2.c **** * Parameters:
 280:Generated_Source\PSoC5/ADC_SAR_2.c **** *  power:  Power setting for ADC
 281:Generated_Source\PSoC5/ADC_SAR_2.c **** *  0 ->    Normal
 282:Generated_Source\PSoC5/ADC_SAR_2.c **** *  1 ->    Medium power
 283:Generated_Source\PSoC5/ADC_SAR_2.c **** *  2 ->    1.25 power
 284:Generated_Source\PSoC5/ADC_SAR_2.c **** *  3 ->    Minimum power.
 285:Generated_Source\PSoC5/ADC_SAR_2.c **** *
 286:Generated_Source\PSoC5/ADC_SAR_2.c **** * Return:
 287:Generated_Source\PSoC5/ADC_SAR_2.c **** *  None.
 288:Generated_Source\PSoC5/ADC_SAR_2.c **** *
 289:Generated_Source\PSoC5/ADC_SAR_2.c **** *******************************************************************************/
 290:Generated_Source\PSoC5/ADC_SAR_2.c **** void ADC_SAR_2_SetPower(uint8 power)
 291:Generated_Source\PSoC5/ADC_SAR_2.c **** {
 323              		.loc 1 291 0
 324              		.cfi_startproc
 325              		@ args = 0, pretend = 0, frame = 16
 326              		@ frame_needed = 1, uses_anonymous_args = 0
 327              		@ link register save eliminated.
 328 0000 80B4     		push	{r7}
 329              		.cfi_def_cfa_offset 4
 330              		.cfi_offset 7, -4
 331 0002 85B0     		sub	sp, sp, #20
 332              		.cfi_def_cfa_offset 24
 333 0004 00AF     		add	r7, sp, #0
 334              		.cfi_def_cfa_register 7
 335 0006 0346     		mov	r3, r0
 336 0008 FB71     		strb	r3, [r7, #7]
ARM GAS  C:\Users\KJA\AppData\Local\Temp\ccGMcFRr.s 			page 12


 292:Generated_Source\PSoC5/ADC_SAR_2.c ****     uint8 tmpReg;
 293:Generated_Source\PSoC5/ADC_SAR_2.c **** 
 294:Generated_Source\PSoC5/ADC_SAR_2.c ****     /* mask off invalid power settings */
 295:Generated_Source\PSoC5/ADC_SAR_2.c ****     power &= ADC_SAR_2_SAR_API_POWER_MASK;
 337              		.loc 1 295 0
 338 000a FB79     		ldrb	r3, [r7, #7]
 339 000c 03F00303 		and	r3, r3, #3
 340 0010 FB71     		strb	r3, [r7, #7]
 296:Generated_Source\PSoC5/ADC_SAR_2.c **** 
 297:Generated_Source\PSoC5/ADC_SAR_2.c ****     /* Set Power parameter  */
 298:Generated_Source\PSoC5/ADC_SAR_2.c ****     tmpReg = ADC_SAR_2_SAR_CSR0_REG & (uint8)~ADC_SAR_2_SAR_POWER_MASK;
 341              		.loc 1 298 0
 342 0012 0A4B     		ldr	r3, .L15
 343 0014 1B78     		ldrb	r3, [r3]
 344 0016 DBB2     		uxtb	r3, r3
 345 0018 03F03F03 		and	r3, r3, #63
 346 001c FB73     		strb	r3, [r7, #15]
 299:Generated_Source\PSoC5/ADC_SAR_2.c ****     tmpReg |= (uint8)(power << ADC_SAR_2_SAR_POWER_SHIFT);
 347              		.loc 1 299 0
 348 001e FB79     		ldrb	r3, [r7, #7]
 349 0020 9B01     		lsls	r3, r3, #6
 350 0022 DAB2     		uxtb	r2, r3
 351 0024 FB7B     		ldrb	r3, [r7, #15]
 352 0026 1343     		orrs	r3, r3, r2
 353 0028 FB73     		strb	r3, [r7, #15]
 300:Generated_Source\PSoC5/ADC_SAR_2.c ****     ADC_SAR_2_SAR_CSR0_REG = tmpReg;
 354              		.loc 1 300 0
 355 002a 044A     		ldr	r2, .L15
 356 002c FB7B     		ldrb	r3, [r7, #15]
 357 002e 1370     		strb	r3, [r2]
 301:Generated_Source\PSoC5/ADC_SAR_2.c **** }
 358              		.loc 1 301 0
 359 0030 1437     		adds	r7, r7, #20
 360              		.cfi_def_cfa_offset 4
 361 0032 BD46     		mov	sp, r7
 362              		.cfi_def_cfa_register 13
 363              		@ sp needed
 364 0034 5DF8047B 		ldr	r7, [sp], #4
 365              		.cfi_restore 7
 366              		.cfi_def_cfa_offset 0
 367 0038 7047     		bx	lr
 368              	.L16:
 369 003a 00BF     		.align	2
 370              	.L15:
 371 003c 00590040 		.word	1073764608
 372              		.cfi_endproc
 373              	.LFE4:
 374              		.size	ADC_SAR_2_SetPower, .-ADC_SAR_2_SetPower
 375              		.section	.text.ADC_SAR_2_SetResolution,"ax",%progbits
 376              		.align	2
 377              		.global	ADC_SAR_2_SetResolution
 378              		.thumb
 379              		.thumb_func
 380              		.type	ADC_SAR_2_SetResolution, %function
 381              	ADC_SAR_2_SetResolution:
 382              	.LFB5:
 302:Generated_Source\PSoC5/ADC_SAR_2.c **** 
ARM GAS  C:\Users\KJA\AppData\Local\Temp\ccGMcFRr.s 			page 13


 303:Generated_Source\PSoC5/ADC_SAR_2.c **** 
 304:Generated_Source\PSoC5/ADC_SAR_2.c **** /*******************************************************************************
 305:Generated_Source\PSoC5/ADC_SAR_2.c **** * Function Name: ADC_SAR_2_SetResolution
 306:Generated_Source\PSoC5/ADC_SAR_2.c **** ********************************************************************************
 307:Generated_Source\PSoC5/ADC_SAR_2.c **** *
 308:Generated_Source\PSoC5/ADC_SAR_2.c **** * Summary:
 309:Generated_Source\PSoC5/ADC_SAR_2.c **** *  Sets the Relution of the SAR.
 310:Generated_Source\PSoC5/ADC_SAR_2.c **** *
 311:Generated_Source\PSoC5/ADC_SAR_2.c **** * Parameters:
 312:Generated_Source\PSoC5/ADC_SAR_2.c **** *  resolution:
 313:Generated_Source\PSoC5/ADC_SAR_2.c **** *  12 ->    RES12
 314:Generated_Source\PSoC5/ADC_SAR_2.c **** *  10 ->    RES10
 315:Generated_Source\PSoC5/ADC_SAR_2.c **** *  8  ->    RES8
 316:Generated_Source\PSoC5/ADC_SAR_2.c **** *
 317:Generated_Source\PSoC5/ADC_SAR_2.c **** * Return:
 318:Generated_Source\PSoC5/ADC_SAR_2.c **** *  None.
 319:Generated_Source\PSoC5/ADC_SAR_2.c **** *
 320:Generated_Source\PSoC5/ADC_SAR_2.c **** * Side Effects:
 321:Generated_Source\PSoC5/ADC_SAR_2.c **** *  The ADC resolution cannot be changed during a conversion cycle. The
 322:Generated_Source\PSoC5/ADC_SAR_2.c **** *  recommended best practice is to stop conversions with
 323:Generated_Source\PSoC5/ADC_SAR_2.c **** *  ADC_StopConvert(), change the resolution, then restart the
 324:Generated_Source\PSoC5/ADC_SAR_2.c **** *  conversions with ADC_StartConvert().
 325:Generated_Source\PSoC5/ADC_SAR_2.c **** *  If you decide not to stop conversions before calling this API, you
 326:Generated_Source\PSoC5/ADC_SAR_2.c **** *  should use ADC_IsEndConversion() to wait until conversion is complete
 327:Generated_Source\PSoC5/ADC_SAR_2.c **** *  before changing the resolution.
 328:Generated_Source\PSoC5/ADC_SAR_2.c **** *  If you call ADC_SetResolution() during a conversion, the resolution will
 329:Generated_Source\PSoC5/ADC_SAR_2.c **** *  not be changed until the current conversion is complete. Data will not be
 330:Generated_Source\PSoC5/ADC_SAR_2.c **** *  available in the new resolution for another 6 + "New Resolution(in bits)"
 331:Generated_Source\PSoC5/ADC_SAR_2.c **** *  clock cycles.
 332:Generated_Source\PSoC5/ADC_SAR_2.c **** *  You may need add a delay of this number of clock cycles after
 333:Generated_Source\PSoC5/ADC_SAR_2.c **** *  ADC_SetResolution() is called before data is valid again.
 334:Generated_Source\PSoC5/ADC_SAR_2.c **** *  Affects ADC_CountsTo_Volts(), ADC_CountsTo_mVolts(), and
 335:Generated_Source\PSoC5/ADC_SAR_2.c **** *  ADC_CountsTo_uVolts() by calculating the correct conversion between ADC
 336:Generated_Source\PSoC5/ADC_SAR_2.c **** *  counts and the applied input voltage. Calculation depends on resolution,
 337:Generated_Source\PSoC5/ADC_SAR_2.c **** *  input range, and voltage reference.
 338:Generated_Source\PSoC5/ADC_SAR_2.c **** *
 339:Generated_Source\PSoC5/ADC_SAR_2.c **** *******************************************************************************/
 340:Generated_Source\PSoC5/ADC_SAR_2.c **** void ADC_SAR_2_SetResolution(uint8 resolution)
 341:Generated_Source\PSoC5/ADC_SAR_2.c **** {
 383              		.loc 1 341 0
 384              		.cfi_startproc
 385              		@ args = 0, pretend = 0, frame = 16
 386              		@ frame_needed = 1, uses_anonymous_args = 0
 387 0000 80B5     		push	{r7, lr}
 388              		.cfi_def_cfa_offset 8
 389              		.cfi_offset 7, -8
 390              		.cfi_offset 14, -4
 391 0002 84B0     		sub	sp, sp, #16
 392              		.cfi_def_cfa_offset 24
 393 0004 00AF     		add	r7, sp, #0
 394              		.cfi_def_cfa_register 7
 395 0006 0346     		mov	r3, r0
 396 0008 FB71     		strb	r3, [r7, #7]
 342:Generated_Source\PSoC5/ADC_SAR_2.c ****     uint8 tmpReg;
 343:Generated_Source\PSoC5/ADC_SAR_2.c **** 
 344:Generated_Source\PSoC5/ADC_SAR_2.c ****     /* Set SAR ADC resolution and sample width: 18 conversion cycles at 12bits + 1 gap */
 345:Generated_Source\PSoC5/ADC_SAR_2.c ****     switch (resolution)
ARM GAS  C:\Users\KJA\AppData\Local\Temp\ccGMcFRr.s 			page 14


 397              		.loc 1 345 0
 398 000a FB79     		ldrb	r3, [r7, #7]	@ zero_extendqisi2
 399 000c 0A2B     		cmp	r3, #10
 400 000e 07D0     		beq	.L19
 401 0010 0C2B     		cmp	r3, #12
 402 0012 02D0     		beq	.L20
 403 0014 082B     		cmp	r3, #8
 404 0016 06D0     		beq	.L21
 405 0018 08E0     		b	.L23
 406              	.L20:
 346:Generated_Source\PSoC5/ADC_SAR_2.c ****     {
 347:Generated_Source\PSoC5/ADC_SAR_2.c ****         case (uint8)ADC_SAR_2__BITS_12:
 348:Generated_Source\PSoC5/ADC_SAR_2.c ****             tmpReg = ADC_SAR_2_SAR_RESOLUTION_12BIT | ADC_SAR_2_SAR_SAMPLE_WIDTH;
 407              		.loc 1 348 0
 408 001a C223     		movs	r3, #194
 409 001c FB73     		strb	r3, [r7, #15]
 349:Generated_Source\PSoC5/ADC_SAR_2.c ****             break;
 410              		.loc 1 349 0
 411 001e 0BE0     		b	.L22
 412              	.L19:
 350:Generated_Source\PSoC5/ADC_SAR_2.c ****         case (uint8)ADC_SAR_2__BITS_10:
 351:Generated_Source\PSoC5/ADC_SAR_2.c ****             tmpReg = ADC_SAR_2_SAR_RESOLUTION_10BIT | ADC_SAR_2_SAR_SAMPLE_WIDTH;
 413              		.loc 1 351 0
 414 0020 8223     		movs	r3, #130
 415 0022 FB73     		strb	r3, [r7, #15]
 352:Generated_Source\PSoC5/ADC_SAR_2.c ****             break;
 416              		.loc 1 352 0
 417 0024 08E0     		b	.L22
 418              	.L21:
 353:Generated_Source\PSoC5/ADC_SAR_2.c ****         case (uint8)ADC_SAR_2__BITS_8:
 354:Generated_Source\PSoC5/ADC_SAR_2.c ****             tmpReg = ADC_SAR_2_SAR_RESOLUTION_8BIT | ADC_SAR_2_SAR_SAMPLE_WIDTH;
 419              		.loc 1 354 0
 420 0026 4223     		movs	r3, #66
 421 0028 FB73     		strb	r3, [r7, #15]
 355:Generated_Source\PSoC5/ADC_SAR_2.c ****             break;
 422              		.loc 1 355 0
 423 002a 05E0     		b	.L22
 424              	.L23:
 356:Generated_Source\PSoC5/ADC_SAR_2.c ****         default:
 357:Generated_Source\PSoC5/ADC_SAR_2.c ****             tmpReg = ADC_SAR_2_SAR_RESOLUTION_12BIT | ADC_SAR_2_SAR_SAMPLE_WIDTH;
 425              		.loc 1 357 0
 426 002c C223     		movs	r3, #194
 427 002e FB73     		strb	r3, [r7, #15]
 358:Generated_Source\PSoC5/ADC_SAR_2.c ****             /* Halt CPU in debug mode if resolution is out of valid range */
 359:Generated_Source\PSoC5/ADC_SAR_2.c ****             CYASSERT(0u != 0u);
 428              		.loc 1 359 0
 429 0030 0020     		movs	r0, #0
 430 0032 FFF7FEFF 		bl	CyHalt
 360:Generated_Source\PSoC5/ADC_SAR_2.c ****             break;
 431              		.loc 1 360 0
 432 0036 00BF     		nop
 433              	.L22:
 361:Generated_Source\PSoC5/ADC_SAR_2.c ****     }
 362:Generated_Source\PSoC5/ADC_SAR_2.c ****     ADC_SAR_2_SAR_CSR2_REG = tmpReg;
 434              		.loc 1 362 0
 435 0038 044A     		ldr	r2, .L24
 436 003a FB7B     		ldrb	r3, [r7, #15]
ARM GAS  C:\Users\KJA\AppData\Local\Temp\ccGMcFRr.s 			page 15


 437 003c 1370     		strb	r3, [r2]
 363:Generated_Source\PSoC5/ADC_SAR_2.c **** 
 364:Generated_Source\PSoC5/ADC_SAR_2.c ****      /* Calculate gain for convert counts to volts */
 365:Generated_Source\PSoC5/ADC_SAR_2.c ****     ADC_SAR_2_CalcGain(resolution);
 438              		.loc 1 365 0
 439 003e FB79     		ldrb	r3, [r7, #7]	@ zero_extendqisi2
 440 0040 1846     		mov	r0, r3
 441 0042 FFF7FEFF 		bl	ADC_SAR_2_CalcGain
 366:Generated_Source\PSoC5/ADC_SAR_2.c **** }
 442              		.loc 1 366 0
 443 0046 1037     		adds	r7, r7, #16
 444              		.cfi_def_cfa_offset 8
 445 0048 BD46     		mov	sp, r7
 446              		.cfi_def_cfa_register 13
 447              		@ sp needed
 448 004a 80BD     		pop	{r7, pc}
 449              	.L25:
 450              		.align	2
 451              	.L24:
 452 004c 02590040 		.word	1073764610
 453              		.cfi_endproc
 454              	.LFE5:
 455              		.size	ADC_SAR_2_SetResolution, .-ADC_SAR_2_SetResolution
 456              		.section	.text.ADC_SAR_2_StartConvert,"ax",%progbits
 457              		.align	2
 458              		.global	ADC_SAR_2_StartConvert
 459              		.thumb
 460              		.thumb_func
 461              		.type	ADC_SAR_2_StartConvert, %function
 462              	ADC_SAR_2_StartConvert:
 463              	.LFB6:
 367:Generated_Source\PSoC5/ADC_SAR_2.c **** 
 368:Generated_Source\PSoC5/ADC_SAR_2.c **** 
 369:Generated_Source\PSoC5/ADC_SAR_2.c **** #if(ADC_SAR_2_DEFAULT_CONV_MODE != ADC_SAR_2__HARDWARE_TRIGGER)
 370:Generated_Source\PSoC5/ADC_SAR_2.c **** 
 371:Generated_Source\PSoC5/ADC_SAR_2.c **** 
 372:Generated_Source\PSoC5/ADC_SAR_2.c ****     /*******************************************************************************
 373:Generated_Source\PSoC5/ADC_SAR_2.c ****     * Function Name: ADC_SAR_2_StartConvert
 374:Generated_Source\PSoC5/ADC_SAR_2.c ****     ********************************************************************************
 375:Generated_Source\PSoC5/ADC_SAR_2.c ****     *
 376:Generated_Source\PSoC5/ADC_SAR_2.c ****     * Summary:
 377:Generated_Source\PSoC5/ADC_SAR_2.c ****     *  Forces the ADC to initiate a conversion. In free-running mode, the ADC runs
 378:Generated_Source\PSoC5/ADC_SAR_2.c ****     *  continuously. In software trigger mode, the function also acts as a software
 379:Generated_Source\PSoC5/ADC_SAR_2.c ****     *  version of the SOC and every conversion must be triggered by
 380:Generated_Source\PSoC5/ADC_SAR_2.c ****     *  ADC_SAR_2_StartConvert(). This function is not available when the
 381:Generated_Source\PSoC5/ADC_SAR_2.c ****     *  Hardware Trigger sample mode is selected.
 382:Generated_Source\PSoC5/ADC_SAR_2.c ****     *
 383:Generated_Source\PSoC5/ADC_SAR_2.c ****     * Parameters:
 384:Generated_Source\PSoC5/ADC_SAR_2.c ****     *  None.
 385:Generated_Source\PSoC5/ADC_SAR_2.c ****     *
 386:Generated_Source\PSoC5/ADC_SAR_2.c ****     * Return:
 387:Generated_Source\PSoC5/ADC_SAR_2.c ****     *  None.
 388:Generated_Source\PSoC5/ADC_SAR_2.c ****     *
 389:Generated_Source\PSoC5/ADC_SAR_2.c ****     * Theory:
 390:Generated_Source\PSoC5/ADC_SAR_2.c ****     *  Forces the ADC to initiate a conversion. In Free Running mode, the ADC will
 391:Generated_Source\PSoC5/ADC_SAR_2.c ****     *  run continuously. In a software trigger mode the function also acts as a
 392:Generated_Source\PSoC5/ADC_SAR_2.c ****     *  software version of the SOC. Here every conversion has to be triggered by
ARM GAS  C:\Users\KJA\AppData\Local\Temp\ccGMcFRr.s 			page 16


 393:Generated_Source\PSoC5/ADC_SAR_2.c ****     *  the routine. This writes into the SOC bit in SAR_CTRL reg.
 394:Generated_Source\PSoC5/ADC_SAR_2.c ****     *
 395:Generated_Source\PSoC5/ADC_SAR_2.c ****     * Side Effects:
 396:Generated_Source\PSoC5/ADC_SAR_2.c ****     *  In a software trigger mode the function switches source for SOF from the
 397:Generated_Source\PSoC5/ADC_SAR_2.c ****     *  external pin to the internal SOF generation. Application should not call
 398:Generated_Source\PSoC5/ADC_SAR_2.c ****     *  StartConvert if external source used for SOF.
 399:Generated_Source\PSoC5/ADC_SAR_2.c ****     *
 400:Generated_Source\PSoC5/ADC_SAR_2.c ****     *******************************************************************************/
 401:Generated_Source\PSoC5/ADC_SAR_2.c ****     void ADC_SAR_2_StartConvert(void)
 402:Generated_Source\PSoC5/ADC_SAR_2.c ****     {
 464              		.loc 1 402 0
 465              		.cfi_startproc
 466              		@ args = 0, pretend = 0, frame = 0
 467              		@ frame_needed = 1, uses_anonymous_args = 0
 468              		@ link register save eliminated.
 469 0000 80B4     		push	{r7}
 470              		.cfi_def_cfa_offset 4
 471              		.cfi_offset 7, -4
 472 0002 00AF     		add	r7, sp, #0
 473              		.cfi_def_cfa_register 7
 403:Generated_Source\PSoC5/ADC_SAR_2.c ****         #if(ADC_SAR_2_DEFAULT_CONV_MODE != ADC_SAR_2__FREE_RUNNING)  /* If software triggered mode 
 404:Generated_Source\PSoC5/ADC_SAR_2.c ****             ADC_SAR_2_SAR_CSR0_REG &= (uint8)~ADC_SAR_2_SAR_MX_SOF_UDB;   /* source: SOF bit */
 405:Generated_Source\PSoC5/ADC_SAR_2.c ****         #endif /* End ADC_SAR_2_DEFAULT_CONV_MODE */
 406:Generated_Source\PSoC5/ADC_SAR_2.c **** 
 407:Generated_Source\PSoC5/ADC_SAR_2.c ****         /* Start the conversion */
 408:Generated_Source\PSoC5/ADC_SAR_2.c ****         ADC_SAR_2_SAR_CSR0_REG |= ADC_SAR_2_SAR_SOF_START_CONV;
 474              		.loc 1 408 0
 475 0004 054A     		ldr	r2, .L27
 476 0006 054B     		ldr	r3, .L27
 477 0008 1B78     		ldrb	r3, [r3]
 478 000a DBB2     		uxtb	r3, r3
 479 000c 43F00103 		orr	r3, r3, #1
 480 0010 DBB2     		uxtb	r3, r3
 481 0012 1370     		strb	r3, [r2]
 409:Generated_Source\PSoC5/ADC_SAR_2.c ****     }
 482              		.loc 1 409 0
 483 0014 BD46     		mov	sp, r7
 484              		.cfi_def_cfa_register 13
 485              		@ sp needed
 486 0016 5DF8047B 		ldr	r7, [sp], #4
 487              		.cfi_restore 7
 488              		.cfi_def_cfa_offset 0
 489 001a 7047     		bx	lr
 490              	.L28:
 491              		.align	2
 492              	.L27:
 493 001c 00590040 		.word	1073764608
 494              		.cfi_endproc
 495              	.LFE6:
 496              		.size	ADC_SAR_2_StartConvert, .-ADC_SAR_2_StartConvert
 497              		.section	.text.ADC_SAR_2_StopConvert,"ax",%progbits
 498              		.align	2
 499              		.global	ADC_SAR_2_StopConvert
 500              		.thumb
 501              		.thumb_func
 502              		.type	ADC_SAR_2_StopConvert, %function
 503              	ADC_SAR_2_StopConvert:
ARM GAS  C:\Users\KJA\AppData\Local\Temp\ccGMcFRr.s 			page 17


 504              	.LFB7:
 410:Generated_Source\PSoC5/ADC_SAR_2.c **** 
 411:Generated_Source\PSoC5/ADC_SAR_2.c **** 
 412:Generated_Source\PSoC5/ADC_SAR_2.c ****     /*******************************************************************************
 413:Generated_Source\PSoC5/ADC_SAR_2.c ****     * Function Name: ADC_SAR_2_StopConvert
 414:Generated_Source\PSoC5/ADC_SAR_2.c ****     ********************************************************************************
 415:Generated_Source\PSoC5/ADC_SAR_2.c ****     *
 416:Generated_Source\PSoC5/ADC_SAR_2.c ****     * Summary:
 417:Generated_Source\PSoC5/ADC_SAR_2.c ****     *  Forces the ADC to stop conversions. If a conversion is currently executing,
 418:Generated_Source\PSoC5/ADC_SAR_2.c ****     *  that conversion will complete, but no further conversions will occur. This
 419:Generated_Source\PSoC5/ADC_SAR_2.c ****     *  function is not available when the Hardware Trigger sample mode is selected.
 420:Generated_Source\PSoC5/ADC_SAR_2.c ****     *
 421:Generated_Source\PSoC5/ADC_SAR_2.c ****     * Parameters:
 422:Generated_Source\PSoC5/ADC_SAR_2.c ****     *  None.
 423:Generated_Source\PSoC5/ADC_SAR_2.c ****     *
 424:Generated_Source\PSoC5/ADC_SAR_2.c ****     * Return:
 425:Generated_Source\PSoC5/ADC_SAR_2.c ****     *  None.
 426:Generated_Source\PSoC5/ADC_SAR_2.c ****     *
 427:Generated_Source\PSoC5/ADC_SAR_2.c ****     * Theory:
 428:Generated_Source\PSoC5/ADC_SAR_2.c ****     *  Stops ADC conversion in Free Running mode.
 429:Generated_Source\PSoC5/ADC_SAR_2.c ****     *
 430:Generated_Source\PSoC5/ADC_SAR_2.c ****     * Side Effects:
 431:Generated_Source\PSoC5/ADC_SAR_2.c ****     *  In Software Trigger sample mode, this function sets a software version of the
 432:Generated_Source\PSoC5/ADC_SAR_2.c ****     *  SOC to low level and switches the SOC source to hardware SOC input.
 433:Generated_Source\PSoC5/ADC_SAR_2.c ****     *
 434:Generated_Source\PSoC5/ADC_SAR_2.c ****     *******************************************************************************/
 435:Generated_Source\PSoC5/ADC_SAR_2.c ****     void ADC_SAR_2_StopConvert(void)
 436:Generated_Source\PSoC5/ADC_SAR_2.c ****     {
 505              		.loc 1 436 0
 506              		.cfi_startproc
 507              		@ args = 0, pretend = 0, frame = 0
 508              		@ frame_needed = 1, uses_anonymous_args = 0
 509              		@ link register save eliminated.
 510 0000 80B4     		push	{r7}
 511              		.cfi_def_cfa_offset 4
 512              		.cfi_offset 7, -4
 513 0002 00AF     		add	r7, sp, #0
 514              		.cfi_def_cfa_register 7
 437:Generated_Source\PSoC5/ADC_SAR_2.c ****         /* Stop all conversions */
 438:Generated_Source\PSoC5/ADC_SAR_2.c ****         ADC_SAR_2_SAR_CSR0_REG &= (uint8)~ADC_SAR_2_SAR_SOF_START_CONV;
 515              		.loc 1 438 0
 516 0004 054A     		ldr	r2, .L30
 517 0006 054B     		ldr	r3, .L30
 518 0008 1B78     		ldrb	r3, [r3]
 519 000a DBB2     		uxtb	r3, r3
 520 000c 23F00103 		bic	r3, r3, #1
 521 0010 DBB2     		uxtb	r3, r3
 522 0012 1370     		strb	r3, [r2]
 439:Generated_Source\PSoC5/ADC_SAR_2.c **** 
 440:Generated_Source\PSoC5/ADC_SAR_2.c ****         #if(ADC_SAR_2_DEFAULT_CONV_MODE != ADC_SAR_2__FREE_RUNNING)  /* If software triggered mode 
 441:Generated_Source\PSoC5/ADC_SAR_2.c ****             /* Return source to UDB for hardware SOF signal */
 442:Generated_Source\PSoC5/ADC_SAR_2.c ****             ADC_SAR_2_SAR_CSR0_REG |= ADC_SAR_2_SAR_MX_SOF_UDB;    /* source: UDB */
 443:Generated_Source\PSoC5/ADC_SAR_2.c ****         #endif /* End ADC_SAR_2_DEFAULT_CONV_MODE */
 444:Generated_Source\PSoC5/ADC_SAR_2.c **** 
 445:Generated_Source\PSoC5/ADC_SAR_2.c ****     }
 523              		.loc 1 445 0
 524 0014 BD46     		mov	sp, r7
ARM GAS  C:\Users\KJA\AppData\Local\Temp\ccGMcFRr.s 			page 18


 525              		.cfi_def_cfa_register 13
 526              		@ sp needed
 527 0016 5DF8047B 		ldr	r7, [sp], #4
 528              		.cfi_restore 7
 529              		.cfi_def_cfa_offset 0
 530 001a 7047     		bx	lr
 531              	.L31:
 532              		.align	2
 533              	.L30:
 534 001c 00590040 		.word	1073764608
 535              		.cfi_endproc
 536              	.LFE7:
 537              		.size	ADC_SAR_2_StopConvert, .-ADC_SAR_2_StopConvert
 538              		.section	.text.ADC_SAR_2_IsEndConversion,"ax",%progbits
 539              		.align	2
 540              		.global	ADC_SAR_2_IsEndConversion
 541              		.thumb
 542              		.thumb_func
 543              		.type	ADC_SAR_2_IsEndConversion, %function
 544              	ADC_SAR_2_IsEndConversion:
 545              	.LFB8:
 446:Generated_Source\PSoC5/ADC_SAR_2.c **** 
 447:Generated_Source\PSoC5/ADC_SAR_2.c **** #endif /* End ADC_SAR_2_DEFAULT_CONV_MODE != ADC_SAR_2__HARDWARE_TRIGGER */
 448:Generated_Source\PSoC5/ADC_SAR_2.c **** 
 449:Generated_Source\PSoC5/ADC_SAR_2.c **** 
 450:Generated_Source\PSoC5/ADC_SAR_2.c **** /*******************************************************************************
 451:Generated_Source\PSoC5/ADC_SAR_2.c **** * Function Name: ADC_SAR_2_IsEndConversion
 452:Generated_Source\PSoC5/ADC_SAR_2.c **** ********************************************************************************
 453:Generated_Source\PSoC5/ADC_SAR_2.c **** *
 454:Generated_Source\PSoC5/ADC_SAR_2.c **** * Summary:
 455:Generated_Source\PSoC5/ADC_SAR_2.c **** *  Immediately returns the status of the conversion or does not return
 456:Generated_Source\PSoC5/ADC_SAR_2.c **** *  (blocking) until the conversion completes, depending on the retMode
 457:Generated_Source\PSoC5/ADC_SAR_2.c **** *  parameter.
 458:Generated_Source\PSoC5/ADC_SAR_2.c **** *
 459:Generated_Source\PSoC5/ADC_SAR_2.c **** * Parameters:
 460:Generated_Source\PSoC5/ADC_SAR_2.c **** *  retMode:  Check conversion return mode.
 461:Generated_Source\PSoC5/ADC_SAR_2.c **** *   ADC_SAR_2_RETURN_STATUS: Immediately returns the status. If the
 462:Generated_Source\PSoC5/ADC_SAR_2.c **** *     value returned is zero, the conversion is not complete, and this function
 463:Generated_Source\PSoC5/ADC_SAR_2.c **** *     should be retried until a nonzero result is returned.
 464:Generated_Source\PSoC5/ADC_SAR_2.c **** *   ADC_SAR_2_WAIT_FOR_RESULT: Does not return a result until the ADC
 465:Generated_Source\PSoC5/ADC_SAR_2.c **** *     conversion is complete.
 466:Generated_Source\PSoC5/ADC_SAR_2.c **** *
 467:Generated_Source\PSoC5/ADC_SAR_2.c **** * Return:
 468:Generated_Source\PSoC5/ADC_SAR_2.c **** *  (uint8)  0 =>  The ADC is still calculating the last result.
 469:Generated_Source\PSoC5/ADC_SAR_2.c **** *           1 =>  The last conversion is complete.
 470:Generated_Source\PSoC5/ADC_SAR_2.c **** *
 471:Generated_Source\PSoC5/ADC_SAR_2.c **** * Side Effects:
 472:Generated_Source\PSoC5/ADC_SAR_2.c **** *  This function reads the end of conversion status, which is cleared on read.
 473:Generated_Source\PSoC5/ADC_SAR_2.c **** *
 474:Generated_Source\PSoC5/ADC_SAR_2.c **** *******************************************************************************/
 475:Generated_Source\PSoC5/ADC_SAR_2.c **** uint8 ADC_SAR_2_IsEndConversion(uint8 retMode)
 476:Generated_Source\PSoC5/ADC_SAR_2.c **** {
 546              		.loc 1 476 0
 547              		.cfi_startproc
 548              		@ args = 0, pretend = 0, frame = 16
 549              		@ frame_needed = 1, uses_anonymous_args = 0
 550 0000 80B5     		push	{r7, lr}
ARM GAS  C:\Users\KJA\AppData\Local\Temp\ccGMcFRr.s 			page 19


 551              		.cfi_def_cfa_offset 8
 552              		.cfi_offset 7, -8
 553              		.cfi_offset 14, -4
 554 0002 84B0     		sub	sp, sp, #16
 555              		.cfi_def_cfa_offset 24
 556 0004 00AF     		add	r7, sp, #0
 557              		.cfi_def_cfa_register 7
 558 0006 0346     		mov	r3, r0
 559 0008 FB71     		strb	r3, [r7, #7]
 560              	.L34:
 477:Generated_Source\PSoC5/ADC_SAR_2.c ****     uint8 status;
 478:Generated_Source\PSoC5/ADC_SAR_2.c **** 
 479:Generated_Source\PSoC5/ADC_SAR_2.c ****     do
 480:Generated_Source\PSoC5/ADC_SAR_2.c ****     {
 481:Generated_Source\PSoC5/ADC_SAR_2.c ****         status = ADC_SAR_2_SAR_CSR1_REG & ADC_SAR_2_SAR_EOF_1;
 561              		.loc 1 481 0 discriminator 2
 562 000a 0C4B     		ldr	r3, .L37
 563 000c 1B78     		ldrb	r3, [r3]
 564 000e DBB2     		uxtb	r3, r3
 565 0010 03F00103 		and	r3, r3, #1
 566 0014 FB73     		strb	r3, [r7, #15]
 482:Generated_Source\PSoC5/ADC_SAR_2.c ****     } while ((status != ADC_SAR_2_SAR_EOF_1) && (retMode == ADC_SAR_2_WAIT_FOR_RESULT));
 567              		.loc 1 482 0 discriminator 2
 568 0016 FB7B     		ldrb	r3, [r7, #15]	@ zero_extendqisi2
 569 0018 012B     		cmp	r3, #1
 570 001a 02D0     		beq	.L33
 571              		.loc 1 482 0 is_stmt 0 discriminator 1
 572 001c FB79     		ldrb	r3, [r7, #7]	@ zero_extendqisi2
 573 001e 002B     		cmp	r3, #0
 574 0020 F3D0     		beq	.L34
 575              	.L33:
 483:Generated_Source\PSoC5/ADC_SAR_2.c ****     /* If convertion complete, wait until EOF bit released */
 484:Generated_Source\PSoC5/ADC_SAR_2.c ****     if(status == ADC_SAR_2_SAR_EOF_1)
 576              		.loc 1 484 0 is_stmt 1
 577 0022 FB7B     		ldrb	r3, [r7, #15]	@ zero_extendqisi2
 578 0024 012B     		cmp	r3, #1
 579 0026 04D1     		bne	.L35
 485:Generated_Source\PSoC5/ADC_SAR_2.c ****     {
 486:Generated_Source\PSoC5/ADC_SAR_2.c ****         /* wait one ADC clock to let the EOC status bit release */
 487:Generated_Source\PSoC5/ADC_SAR_2.c ****         CyDelayUs(1u);
 580              		.loc 1 487 0
 581 0028 0120     		movs	r0, #1
 582 002a FFF7FEFF 		bl	CyDelayUs
 488:Generated_Source\PSoC5/ADC_SAR_2.c ****         /* Do the unconditional read operation of the CSR1 register to make sure the EOC bit has be
 489:Generated_Source\PSoC5/ADC_SAR_2.c ****         CY_GET_REG8(ADC_SAR_2_SAR_CSR1_PTR);
 583              		.loc 1 489 0
 584 002e 034B     		ldr	r3, .L37
 585 0030 1B78     		ldrb	r3, [r3]
 586              	.L35:
 490:Generated_Source\PSoC5/ADC_SAR_2.c ****     }
 491:Generated_Source\PSoC5/ADC_SAR_2.c **** 
 492:Generated_Source\PSoC5/ADC_SAR_2.c ****     return(status);
 587              		.loc 1 492 0
 588 0032 FB7B     		ldrb	r3, [r7, #15]	@ zero_extendqisi2
 493:Generated_Source\PSoC5/ADC_SAR_2.c **** }
 589              		.loc 1 493 0
 590 0034 1846     		mov	r0, r3
ARM GAS  C:\Users\KJA\AppData\Local\Temp\ccGMcFRr.s 			page 20


 591 0036 1037     		adds	r7, r7, #16
 592              		.cfi_def_cfa_offset 8
 593 0038 BD46     		mov	sp, r7
 594              		.cfi_def_cfa_register 13
 595              		@ sp needed
 596 003a 80BD     		pop	{r7, pc}
 597              	.L38:
 598              		.align	2
 599              	.L37:
 600 003c 01590040 		.word	1073764609
 601              		.cfi_endproc
 602              	.LFE8:
 603              		.size	ADC_SAR_2_IsEndConversion, .-ADC_SAR_2_IsEndConversion
 604              		.section	.text.ADC_SAR_2_GetResult8,"ax",%progbits
 605              		.align	2
 606              		.global	ADC_SAR_2_GetResult8
 607              		.thumb
 608              		.thumb_func
 609              		.type	ADC_SAR_2_GetResult8, %function
 610              	ADC_SAR_2_GetResult8:
 611              	.LFB9:
 494:Generated_Source\PSoC5/ADC_SAR_2.c **** 
 495:Generated_Source\PSoC5/ADC_SAR_2.c **** 
 496:Generated_Source\PSoC5/ADC_SAR_2.c **** /*******************************************************************************
 497:Generated_Source\PSoC5/ADC_SAR_2.c **** * Function Name: ADC_SAR_2_GetResult8
 498:Generated_Source\PSoC5/ADC_SAR_2.c **** ********************************************************************************
 499:Generated_Source\PSoC5/ADC_SAR_2.c **** *
 500:Generated_Source\PSoC5/ADC_SAR_2.c **** * Summary:
 501:Generated_Source\PSoC5/ADC_SAR_2.c **** *  Returns the result of an 8-bit conversion. If the resolution is set greater
 502:Generated_Source\PSoC5/ADC_SAR_2.c **** *  than 8 bits, the function returns the LSB of the result.
 503:Generated_Source\PSoC5/ADC_SAR_2.c **** *  ADC_SAR_2_IsEndConversion() should be called to verify that the data
 504:Generated_Source\PSoC5/ADC_SAR_2.c **** *   sample is ready.
 505:Generated_Source\PSoC5/ADC_SAR_2.c **** *
 506:Generated_Source\PSoC5/ADC_SAR_2.c **** * Parameters:
 507:Generated_Source\PSoC5/ADC_SAR_2.c **** *  None.
 508:Generated_Source\PSoC5/ADC_SAR_2.c **** *
 509:Generated_Source\PSoC5/ADC_SAR_2.c **** * Return:
 510:Generated_Source\PSoC5/ADC_SAR_2.c **** *  The LSB of the last ADC conversion.
 511:Generated_Source\PSoC5/ADC_SAR_2.c **** *
 512:Generated_Source\PSoC5/ADC_SAR_2.c **** * Global Variables:
 513:Generated_Source\PSoC5/ADC_SAR_2.c **** *  ADC_SAR_2_shift - used to convert the ADC counts to the 2s
 514:Generated_Source\PSoC5/ADC_SAR_2.c **** *  compliment form.
 515:Generated_Source\PSoC5/ADC_SAR_2.c **** *
 516:Generated_Source\PSoC5/ADC_SAR_2.c **** * Side Effects:
 517:Generated_Source\PSoC5/ADC_SAR_2.c **** *  Converts the ADC counts to the 2s complement form.
 518:Generated_Source\PSoC5/ADC_SAR_2.c **** *
 519:Generated_Source\PSoC5/ADC_SAR_2.c **** *******************************************************************************/
 520:Generated_Source\PSoC5/ADC_SAR_2.c **** int8 ADC_SAR_2_GetResult8( void )
 521:Generated_Source\PSoC5/ADC_SAR_2.c **** {
 612              		.loc 1 521 0
 613              		.cfi_startproc
 614              		@ args = 0, pretend = 0, frame = 0
 615              		@ frame_needed = 1, uses_anonymous_args = 0
 616              		@ link register save eliminated.
 617 0000 80B4     		push	{r7}
 618              		.cfi_def_cfa_offset 4
 619              		.cfi_offset 7, -4
ARM GAS  C:\Users\KJA\AppData\Local\Temp\ccGMcFRr.s 			page 21


 620 0002 00AF     		add	r7, sp, #0
 621              		.cfi_def_cfa_register 7
 522:Generated_Source\PSoC5/ADC_SAR_2.c ****     return( (int8)ADC_SAR_2_SAR_WRK0_REG - (int8)ADC_SAR_2_shift);
 622              		.loc 1 522 0
 623 0004 074B     		ldr	r3, .L41
 624 0006 1B78     		ldrb	r3, [r3]
 625 0008 DAB2     		uxtb	r2, r3
 626 000a 074B     		ldr	r3, .L41+4
 627 000c 1B88     		ldrh	r3, [r3]	@ movhi
 628 000e 9BB2     		uxth	r3, r3
 629 0010 DBB2     		uxtb	r3, r3
 630 0012 D31A     		subs	r3, r2, r3
 631 0014 DBB2     		uxtb	r3, r3
 632 0016 DBB2     		uxtb	r3, r3
 633 0018 5BB2     		sxtb	r3, r3
 523:Generated_Source\PSoC5/ADC_SAR_2.c **** }
 634              		.loc 1 523 0
 635 001a 1846     		mov	r0, r3
 636 001c BD46     		mov	sp, r7
 637              		.cfi_def_cfa_register 13
 638              		@ sp needed
 639 001e 5DF8047B 		ldr	r7, [sp], #4
 640              		.cfi_restore 7
 641              		.cfi_def_cfa_offset 0
 642 0022 7047     		bx	lr
 643              	.L42:
 644              		.align	2
 645              	.L41:
 646 0024 A05B0040 		.word	1073765280
 647 0028 00000000 		.word	ADC_SAR_2_shift
 648              		.cfi_endproc
 649              	.LFE9:
 650              		.size	ADC_SAR_2_GetResult8, .-ADC_SAR_2_GetResult8
 651              		.section	.text.ADC_SAR_2_GetResult16,"ax",%progbits
 652              		.align	2
 653              		.global	ADC_SAR_2_GetResult16
 654              		.thumb
 655              		.thumb_func
 656              		.type	ADC_SAR_2_GetResult16, %function
 657              	ADC_SAR_2_GetResult16:
 658              	.LFB10:
 524:Generated_Source\PSoC5/ADC_SAR_2.c **** 
 525:Generated_Source\PSoC5/ADC_SAR_2.c **** 
 526:Generated_Source\PSoC5/ADC_SAR_2.c **** /*******************************************************************************
 527:Generated_Source\PSoC5/ADC_SAR_2.c **** * Function Name: ADC_SAR_2_GetResult16
 528:Generated_Source\PSoC5/ADC_SAR_2.c **** ********************************************************************************
 529:Generated_Source\PSoC5/ADC_SAR_2.c **** *
 530:Generated_Source\PSoC5/ADC_SAR_2.c **** * Summary:
 531:Generated_Source\PSoC5/ADC_SAR_2.c **** *  Returns a 16-bit result for a conversion with a result that has a resolution
 532:Generated_Source\PSoC5/ADC_SAR_2.c **** *  of 8 to 12 bits.
 533:Generated_Source\PSoC5/ADC_SAR_2.c **** *  ADC_SAR_2_IsEndConversion() should be called to verify that the data
 534:Generated_Source\PSoC5/ADC_SAR_2.c **** *   sample is ready
 535:Generated_Source\PSoC5/ADC_SAR_2.c **** *
 536:Generated_Source\PSoC5/ADC_SAR_2.c **** * Parameters:
 537:Generated_Source\PSoC5/ADC_SAR_2.c **** *  None.
 538:Generated_Source\PSoC5/ADC_SAR_2.c **** *
 539:Generated_Source\PSoC5/ADC_SAR_2.c **** * Return:
ARM GAS  C:\Users\KJA\AppData\Local\Temp\ccGMcFRr.s 			page 22


 540:Generated_Source\PSoC5/ADC_SAR_2.c **** *  The 16-bit result of the last ADC conversion
 541:Generated_Source\PSoC5/ADC_SAR_2.c **** *
 542:Generated_Source\PSoC5/ADC_SAR_2.c **** * Global Variables:
 543:Generated_Source\PSoC5/ADC_SAR_2.c **** *  ADC_SAR_2_shift - used to convert the ADC counts to the 2s
 544:Generated_Source\PSoC5/ADC_SAR_2.c **** *  compliment form.
 545:Generated_Source\PSoC5/ADC_SAR_2.c **** *
 546:Generated_Source\PSoC5/ADC_SAR_2.c **** * Side Effects:
 547:Generated_Source\PSoC5/ADC_SAR_2.c **** *  Converts the ADC counts to the 2s complement form.
 548:Generated_Source\PSoC5/ADC_SAR_2.c **** *
 549:Generated_Source\PSoC5/ADC_SAR_2.c **** *******************************************************************************/
 550:Generated_Source\PSoC5/ADC_SAR_2.c **** int16 ADC_SAR_2_GetResult16( void )
 551:Generated_Source\PSoC5/ADC_SAR_2.c **** {
 659              		.loc 1 551 0
 660              		.cfi_startproc
 661              		@ args = 0, pretend = 0, frame = 8
 662              		@ frame_needed = 1, uses_anonymous_args = 0
 663              		@ link register save eliminated.
 664 0000 80B4     		push	{r7}
 665              		.cfi_def_cfa_offset 4
 666              		.cfi_offset 7, -4
 667 0002 83B0     		sub	sp, sp, #12
 668              		.cfi_def_cfa_offset 16
 669 0004 00AF     		add	r7, sp, #0
 670              		.cfi_def_cfa_register 7
 552:Generated_Source\PSoC5/ADC_SAR_2.c ****     uint16 res;
 553:Generated_Source\PSoC5/ADC_SAR_2.c **** 
 554:Generated_Source\PSoC5/ADC_SAR_2.c ****     res = CY_GET_REG16(ADC_SAR_2_SAR_WRK_PTR);
 671              		.loc 1 554 0
 672 0006 094B     		ldr	r3, .L45
 673 0008 1B88     		ldrh	r3, [r3]	@ movhi
 674 000a FB80     		strh	r3, [r7, #6]	@ movhi
 555:Generated_Source\PSoC5/ADC_SAR_2.c **** 
 556:Generated_Source\PSoC5/ADC_SAR_2.c ****     return( (int16)res - ADC_SAR_2_shift );
 675              		.loc 1 556 0
 676 000c 084B     		ldr	r3, .L45+4
 677 000e 1B88     		ldrh	r3, [r3]	@ movhi
 678 0010 9BB2     		uxth	r3, r3
 679 0012 9BB2     		uxth	r3, r3
 680 0014 FA88     		ldrh	r2, [r7, #6]	@ movhi
 681 0016 D31A     		subs	r3, r2, r3
 682 0018 9BB2     		uxth	r3, r3
 683 001a 9BB2     		uxth	r3, r3
 684 001c 1BB2     		sxth	r3, r3
 557:Generated_Source\PSoC5/ADC_SAR_2.c **** }
 685              		.loc 1 557 0
 686 001e 1846     		mov	r0, r3
 687 0020 0C37     		adds	r7, r7, #12
 688              		.cfi_def_cfa_offset 4
 689 0022 BD46     		mov	sp, r7
 690              		.cfi_def_cfa_register 13
 691              		@ sp needed
 692 0024 5DF8047B 		ldr	r7, [sp], #4
 693              		.cfi_restore 7
 694              		.cfi_def_cfa_offset 0
 695 0028 7047     		bx	lr
 696              	.L46:
 697 002a 00BF     		.align	2
ARM GAS  C:\Users\KJA\AppData\Local\Temp\ccGMcFRr.s 			page 23


 698              	.L45:
 699 002c A05B0040 		.word	1073765280
 700 0030 00000000 		.word	ADC_SAR_2_shift
 701              		.cfi_endproc
 702              	.LFE10:
 703              		.size	ADC_SAR_2_GetResult16, .-ADC_SAR_2_GetResult16
 704              		.section	.text.ADC_SAR_2_SetOffset,"ax",%progbits
 705              		.align	2
 706              		.global	ADC_SAR_2_SetOffset
 707              		.thumb
 708              		.thumb_func
 709              		.type	ADC_SAR_2_SetOffset, %function
 710              	ADC_SAR_2_SetOffset:
 711              	.LFB11:
 558:Generated_Source\PSoC5/ADC_SAR_2.c **** 
 559:Generated_Source\PSoC5/ADC_SAR_2.c **** 
 560:Generated_Source\PSoC5/ADC_SAR_2.c **** /*******************************************************************************
 561:Generated_Source\PSoC5/ADC_SAR_2.c **** * Function Name: ADC_SAR_2_SetOffset
 562:Generated_Source\PSoC5/ADC_SAR_2.c **** ********************************************************************************
 563:Generated_Source\PSoC5/ADC_SAR_2.c **** *
 564:Generated_Source\PSoC5/ADC_SAR_2.c **** * Summary:
 565:Generated_Source\PSoC5/ADC_SAR_2.c **** *  Sets the ADC offset, which is used by ADC_SAR_2_CountsTo_Volts(),
 566:Generated_Source\PSoC5/ADC_SAR_2.c **** *  ADC_SAR_2_CountsTo_mVolts(), and ADC_SAR_2_CountsTo_uVolts()
 567:Generated_Source\PSoC5/ADC_SAR_2.c **** *  to subtract the offset from the given reading before calculating the voltage
 568:Generated_Source\PSoC5/ADC_SAR_2.c **** *  conversion.
 569:Generated_Source\PSoC5/ADC_SAR_2.c **** *
 570:Generated_Source\PSoC5/ADC_SAR_2.c **** * Parameters:
 571:Generated_Source\PSoC5/ADC_SAR_2.c **** *  int16: This value is measured when the inputs are shorted or connected to
 572:Generated_Source\PSoC5/ADC_SAR_2.c ****    the same input voltage.
 573:Generated_Source\PSoC5/ADC_SAR_2.c **** *
 574:Generated_Source\PSoC5/ADC_SAR_2.c **** * Return:
 575:Generated_Source\PSoC5/ADC_SAR_2.c **** *  None.
 576:Generated_Source\PSoC5/ADC_SAR_2.c **** *
 577:Generated_Source\PSoC5/ADC_SAR_2.c **** * Global Variables:
 578:Generated_Source\PSoC5/ADC_SAR_2.c **** *  The ADC_SAR_2_offset variable modified. This variable is used for
 579:Generated_Source\PSoC5/ADC_SAR_2.c **** *  offset calibration purpose.
 580:Generated_Source\PSoC5/ADC_SAR_2.c **** *  Affects the ADC_SAR_2_CountsTo_Volts,
 581:Generated_Source\PSoC5/ADC_SAR_2.c **** *  ADC_SAR_2_CountsTo_mVolts, ADC_SAR_2_CountsTo_uVolts functions
 582:Generated_Source\PSoC5/ADC_SAR_2.c **** *  by subtracting the given offset.
 583:Generated_Source\PSoC5/ADC_SAR_2.c **** *
 584:Generated_Source\PSoC5/ADC_SAR_2.c **** *******************************************************************************/
 585:Generated_Source\PSoC5/ADC_SAR_2.c **** void ADC_SAR_2_SetOffset(int16 offset)
 586:Generated_Source\PSoC5/ADC_SAR_2.c **** {
 712              		.loc 1 586 0
 713              		.cfi_startproc
 714              		@ args = 0, pretend = 0, frame = 8
 715              		@ frame_needed = 1, uses_anonymous_args = 0
 716              		@ link register save eliminated.
 717 0000 80B4     		push	{r7}
 718              		.cfi_def_cfa_offset 4
 719              		.cfi_offset 7, -4
 720 0002 83B0     		sub	sp, sp, #12
 721              		.cfi_def_cfa_offset 16
 722 0004 00AF     		add	r7, sp, #0
 723              		.cfi_def_cfa_register 7
 724 0006 0346     		mov	r3, r0
 725 0008 FB80     		strh	r3, [r7, #6]	@ movhi
ARM GAS  C:\Users\KJA\AppData\Local\Temp\ccGMcFRr.s 			page 24


 587:Generated_Source\PSoC5/ADC_SAR_2.c ****     ADC_SAR_2_offset = offset;
 726              		.loc 1 587 0
 727 000a 044A     		ldr	r2, .L48
 728 000c FB88     		ldrh	r3, [r7, #6]	@ movhi
 729 000e 1380     		strh	r3, [r2]	@ movhi
 588:Generated_Source\PSoC5/ADC_SAR_2.c **** }
 730              		.loc 1 588 0
 731 0010 0C37     		adds	r7, r7, #12
 732              		.cfi_def_cfa_offset 4
 733 0012 BD46     		mov	sp, r7
 734              		.cfi_def_cfa_register 13
 735              		@ sp needed
 736 0014 5DF8047B 		ldr	r7, [sp], #4
 737              		.cfi_restore 7
 738              		.cfi_def_cfa_offset 0
 739 0018 7047     		bx	lr
 740              	.L49:
 741 001a 00BF     		.align	2
 742              	.L48:
 743 001c 00000000 		.word	ADC_SAR_2_offset
 744              		.cfi_endproc
 745              	.LFE11:
 746              		.size	ADC_SAR_2_SetOffset, .-ADC_SAR_2_SetOffset
 747              		.section	.text.ADC_SAR_2_CalcGain,"ax",%progbits
 748              		.align	2
 749              		.thumb
 750              		.thumb_func
 751              		.type	ADC_SAR_2_CalcGain, %function
 752              	ADC_SAR_2_CalcGain:
 753              	.LFB12:
 589:Generated_Source\PSoC5/ADC_SAR_2.c **** 
 590:Generated_Source\PSoC5/ADC_SAR_2.c **** 
 591:Generated_Source\PSoC5/ADC_SAR_2.c **** /*******************************************************************************
 592:Generated_Source\PSoC5/ADC_SAR_2.c **** * Function Name: ADC_SAR_2_CalcGain
 593:Generated_Source\PSoC5/ADC_SAR_2.c **** ********************************************************************************
 594:Generated_Source\PSoC5/ADC_SAR_2.c **** *
 595:Generated_Source\PSoC5/ADC_SAR_2.c **** * Summary:
 596:Generated_Source\PSoC5/ADC_SAR_2.c **** *  This function calculates the ADC gain in counts per 10 volt.
 597:Generated_Source\PSoC5/ADC_SAR_2.c **** *
 598:Generated_Source\PSoC5/ADC_SAR_2.c **** * Parameters:
 599:Generated_Source\PSoC5/ADC_SAR_2.c **** *  uint8: resolution
 600:Generated_Source\PSoC5/ADC_SAR_2.c **** *
 601:Generated_Source\PSoC5/ADC_SAR_2.c **** * Return:
 602:Generated_Source\PSoC5/ADC_SAR_2.c **** *  None.
 603:Generated_Source\PSoC5/ADC_SAR_2.c **** *
 604:Generated_Source\PSoC5/ADC_SAR_2.c **** * Global Variables:
 605:Generated_Source\PSoC5/ADC_SAR_2.c **** *  ADC_SAR_2_shift variable initialized. This variable is used to
 606:Generated_Source\PSoC5/ADC_SAR_2.c **** *  convert the ADC counts to the 2s compliment form.
 607:Generated_Source\PSoC5/ADC_SAR_2.c **** *  ADC_SAR_2_countsPer10Volt variable initialized. This variable is used
 608:Generated_Source\PSoC5/ADC_SAR_2.c **** *  for gain calibration purpose.
 609:Generated_Source\PSoC5/ADC_SAR_2.c **** *
 610:Generated_Source\PSoC5/ADC_SAR_2.c **** *******************************************************************************/
 611:Generated_Source\PSoC5/ADC_SAR_2.c **** static void ADC_SAR_2_CalcGain( uint8 resolution )
 612:Generated_Source\PSoC5/ADC_SAR_2.c **** {
 754              		.loc 1 612 0
 755              		.cfi_startproc
 756              		@ args = 0, pretend = 0, frame = 16
ARM GAS  C:\Users\KJA\AppData\Local\Temp\ccGMcFRr.s 			page 25


 757              		@ frame_needed = 1, uses_anonymous_args = 0
 758 0000 80B5     		push	{r7, lr}
 759              		.cfi_def_cfa_offset 8
 760              		.cfi_offset 7, -8
 761              		.cfi_offset 14, -4
 762 0002 84B0     		sub	sp, sp, #16
 763              		.cfi_def_cfa_offset 24
 764 0004 00AF     		add	r7, sp, #0
 765              		.cfi_def_cfa_register 7
 766 0006 0346     		mov	r3, r0
 767 0008 FB71     		strb	r3, [r7, #7]
 613:Generated_Source\PSoC5/ADC_SAR_2.c ****     int32 counts;
 614:Generated_Source\PSoC5/ADC_SAR_2.c ****     #if(!((ADC_SAR_2_DEFAULT_RANGE == ADC_SAR_2__VSS_TO_VREF) || \
 615:Generated_Source\PSoC5/ADC_SAR_2.c ****          (ADC_SAR_2_DEFAULT_RANGE == ADC_SAR_2__VSSA_TO_VDDA) || \
 616:Generated_Source\PSoC5/ADC_SAR_2.c ****          (ADC_SAR_2_DEFAULT_RANGE == ADC_SAR_2__VSSA_TO_VDAC)) )
 617:Generated_Source\PSoC5/ADC_SAR_2.c ****         uint16 diff_zero;
 618:Generated_Source\PSoC5/ADC_SAR_2.c ****     #endif /* End ADC_SAR_2_DEFAULT_RANGE */
 619:Generated_Source\PSoC5/ADC_SAR_2.c **** 
 620:Generated_Source\PSoC5/ADC_SAR_2.c ****     switch (resolution)
 768              		.loc 1 620 0
 769 000a FB79     		ldrb	r3, [r7, #7]	@ zero_extendqisi2
 770 000c 0A2B     		cmp	r3, #10
 771 000e 08D0     		beq	.L52
 772 0010 0C2B     		cmp	r3, #12
 773 0012 02D0     		beq	.L53
 774 0014 082B     		cmp	r3, #8
 775 0016 08D0     		beq	.L54
 776 0018 0BE0     		b	.L57
 777              	.L53:
 621:Generated_Source\PSoC5/ADC_SAR_2.c ****     {
 622:Generated_Source\PSoC5/ADC_SAR_2.c ****         case (uint8)ADC_SAR_2__BITS_12:
 623:Generated_Source\PSoC5/ADC_SAR_2.c ****             counts = (int32)ADC_SAR_2_SAR_WRK_MAX_12BIT;
 778              		.loc 1 623 0
 779 001a 4FF48053 		mov	r3, #4096
 780 001e FB60     		str	r3, [r7, #12]
 624:Generated_Source\PSoC5/ADC_SAR_2.c ****             #if(!((ADC_SAR_2_DEFAULT_RANGE == ADC_SAR_2__VSS_TO_VREF) || \
 625:Generated_Source\PSoC5/ADC_SAR_2.c ****                  (ADC_SAR_2_DEFAULT_RANGE == ADC_SAR_2__VSSA_TO_VDDA) || \
 626:Generated_Source\PSoC5/ADC_SAR_2.c ****                  (ADC_SAR_2_DEFAULT_RANGE == ADC_SAR_2__VSSA_TO_VDAC)) )
 627:Generated_Source\PSoC5/ADC_SAR_2.c ****                 diff_zero = ADC_SAR_2_SAR_DIFF_SHIFT;
 628:Generated_Source\PSoC5/ADC_SAR_2.c ****             #endif /* End ADC_SAR_2_DEFAULT_RANGE */
 629:Generated_Source\PSoC5/ADC_SAR_2.c ****             break;
 781              		.loc 1 629 0
 782 0020 0DE0     		b	.L55
 783              	.L52:
 630:Generated_Source\PSoC5/ADC_SAR_2.c ****         case (uint8)ADC_SAR_2__BITS_10:
 631:Generated_Source\PSoC5/ADC_SAR_2.c ****             counts = (int32)ADC_SAR_2_SAR_WRK_MAX_10BIT;
 784              		.loc 1 631 0
 785 0022 4FF48063 		mov	r3, #1024
 786 0026 FB60     		str	r3, [r7, #12]
 632:Generated_Source\PSoC5/ADC_SAR_2.c ****             #if(!((ADC_SAR_2_DEFAULT_RANGE == ADC_SAR_2__VSS_TO_VREF) || \
 633:Generated_Source\PSoC5/ADC_SAR_2.c ****                  (ADC_SAR_2_DEFAULT_RANGE == ADC_SAR_2__VSSA_TO_VDDA) || \
 634:Generated_Source\PSoC5/ADC_SAR_2.c ****                  (ADC_SAR_2_DEFAULT_RANGE == ADC_SAR_2__VSSA_TO_VDAC)) )
 635:Generated_Source\PSoC5/ADC_SAR_2.c ****                 diff_zero = ADC_SAR_2_SAR_DIFF_SHIFT >> 2u;
 636:Generated_Source\PSoC5/ADC_SAR_2.c ****             #endif /* End ADC_SAR_2_DEFAULT_RANGE */
 637:Generated_Source\PSoC5/ADC_SAR_2.c ****             break;
 787              		.loc 1 637 0
 788 0028 09E0     		b	.L55
ARM GAS  C:\Users\KJA\AppData\Local\Temp\ccGMcFRr.s 			page 26


 789              	.L54:
 638:Generated_Source\PSoC5/ADC_SAR_2.c ****         case (uint8)ADC_SAR_2__BITS_8:
 639:Generated_Source\PSoC5/ADC_SAR_2.c ****             counts = (int32)ADC_SAR_2_SAR_WRK_MAX_8BIT;
 790              		.loc 1 639 0
 791 002a 4FF48073 		mov	r3, #256
 792 002e FB60     		str	r3, [r7, #12]
 640:Generated_Source\PSoC5/ADC_SAR_2.c ****             #if(!((ADC_SAR_2_DEFAULT_RANGE == ADC_SAR_2__VSS_TO_VREF) || \
 641:Generated_Source\PSoC5/ADC_SAR_2.c ****                  (ADC_SAR_2_DEFAULT_RANGE == ADC_SAR_2__VSSA_TO_VDDA) || \
 642:Generated_Source\PSoC5/ADC_SAR_2.c ****                  (ADC_SAR_2_DEFAULT_RANGE == ADC_SAR_2__VSSA_TO_VDAC)) )
 643:Generated_Source\PSoC5/ADC_SAR_2.c ****                 diff_zero = ADC_SAR_2_SAR_DIFF_SHIFT >> 4u;
 644:Generated_Source\PSoC5/ADC_SAR_2.c ****             #endif /* End ADC_SAR_2_DEFAULT_RANGE */
 645:Generated_Source\PSoC5/ADC_SAR_2.c ****             break;
 793              		.loc 1 645 0
 794 0030 05E0     		b	.L55
 795              	.L57:
 646:Generated_Source\PSoC5/ADC_SAR_2.c ****         default: /* Halt CPU in debug mode if resolution is out of valid range */
 647:Generated_Source\PSoC5/ADC_SAR_2.c ****             counts = 0;
 796              		.loc 1 647 0
 797 0032 0023     		movs	r3, #0
 798 0034 FB60     		str	r3, [r7, #12]
 648:Generated_Source\PSoC5/ADC_SAR_2.c ****             #if(!((ADC_SAR_2_DEFAULT_RANGE == ADC_SAR_2__VSS_TO_VREF) || \
 649:Generated_Source\PSoC5/ADC_SAR_2.c ****                  (ADC_SAR_2_DEFAULT_RANGE == ADC_SAR_2__VSSA_TO_VDDA) || \
 650:Generated_Source\PSoC5/ADC_SAR_2.c ****                  (ADC_SAR_2_DEFAULT_RANGE == ADC_SAR_2__VSSA_TO_VDAC)) )
 651:Generated_Source\PSoC5/ADC_SAR_2.c ****                 diff_zero = 0u;
 652:Generated_Source\PSoC5/ADC_SAR_2.c ****             #endif /* End ADC_SAR_2_DEFAULT_RANGE */
 653:Generated_Source\PSoC5/ADC_SAR_2.c ****             CYASSERT(0u != 0u);
 799              		.loc 1 653 0
 800 0036 0020     		movs	r0, #0
 801 0038 FFF7FEFF 		bl	CyHalt
 654:Generated_Source\PSoC5/ADC_SAR_2.c ****             break;
 802              		.loc 1 654 0
 803 003c 00BF     		nop
 804              	.L55:
 655:Generated_Source\PSoC5/ADC_SAR_2.c ****     }
 656:Generated_Source\PSoC5/ADC_SAR_2.c ****     ADC_SAR_2_countsPerVolt = 0; /* Clear obsolete variable */
 805              		.loc 1 656 0
 806 003e 0C4B     		ldr	r3, .L58
 807 0040 0022     		movs	r2, #0
 808 0042 1A80     		strh	r2, [r3]	@ movhi
 657:Generated_Source\PSoC5/ADC_SAR_2.c ****     /* Calculate gain in counts per 10 volts with rounding */
 658:Generated_Source\PSoC5/ADC_SAR_2.c ****     ADC_SAR_2_countsPer10Volt = (((counts * ADC_SAR_2_10MV_COUNTS) +
 809              		.loc 1 658 0
 810 0044 FB68     		ldr	r3, [r7, #12]
 811 0046 42F21072 		movw	r2, #10000
 812 004a 02FB03F3 		mul	r3, r2, r3
 813 004e 03F58063 		add	r3, r3, #1024
 659:Generated_Source\PSoC5/ADC_SAR_2.c ****                         ADC_SAR_2_DEFAULT_REF_VOLTAGE_MV) / (ADC_SAR_2_DEFAULT_REF_VOLTAGE_MV * 2))
 814              		.loc 1 659 0
 815 0052 002B     		cmp	r3, #0
 816 0054 01DA     		bge	.L56
 817 0056 03F2FF73 		addw	r3, r3, #2047
 818              	.L56:
 819 005a DB12     		asrs	r3, r3, #11
 820 005c 1A46     		mov	r2, r3
 658:Generated_Source\PSoC5/ADC_SAR_2.c ****                         ADC_SAR_2_DEFAULT_REF_VOLTAGE_MV) / (ADC_SAR_2_DEFAULT_REF_VOLTAGE_MV * 2))
 821              		.loc 1 658 0
 822 005e 054B     		ldr	r3, .L58+4
ARM GAS  C:\Users\KJA\AppData\Local\Temp\ccGMcFRr.s 			page 27


 823 0060 1A60     		str	r2, [r3]
 660:Generated_Source\PSoC5/ADC_SAR_2.c **** 
 661:Generated_Source\PSoC5/ADC_SAR_2.c ****     #if( (ADC_SAR_2_DEFAULT_RANGE == ADC_SAR_2__VSS_TO_VREF) || \
 662:Generated_Source\PSoC5/ADC_SAR_2.c ****          (ADC_SAR_2_DEFAULT_RANGE == ADC_SAR_2__VSSA_TO_VDDA) || \
 663:Generated_Source\PSoC5/ADC_SAR_2.c ****          (ADC_SAR_2_DEFAULT_RANGE == ADC_SAR_2__VSSA_TO_VDAC) )
 664:Generated_Source\PSoC5/ADC_SAR_2.c ****         ADC_SAR_2_shift = 0;
 824              		.loc 1 664 0
 825 0062 054B     		ldr	r3, .L58+8
 826 0064 0022     		movs	r2, #0
 827 0066 1A80     		strh	r2, [r3]	@ movhi
 665:Generated_Source\PSoC5/ADC_SAR_2.c ****     #else
 666:Generated_Source\PSoC5/ADC_SAR_2.c ****         ADC_SAR_2_shift = diff_zero;
 667:Generated_Source\PSoC5/ADC_SAR_2.c ****     #endif /* End ADC_SAR_2_DEFAULT_RANGE */
 668:Generated_Source\PSoC5/ADC_SAR_2.c **** }
 828              		.loc 1 668 0
 829 0068 1037     		adds	r7, r7, #16
 830              		.cfi_def_cfa_offset 8
 831 006a BD46     		mov	sp, r7
 832              		.cfi_def_cfa_register 13
 833              		@ sp needed
 834 006c 80BD     		pop	{r7, pc}
 835              	.L59:
 836 006e 00BF     		.align	2
 837              	.L58:
 838 0070 00000000 		.word	ADC_SAR_2_countsPerVolt
 839 0074 00000000 		.word	ADC_SAR_2_countsPer10Volt
 840 0078 00000000 		.word	ADC_SAR_2_shift
 841              		.cfi_endproc
 842              	.LFE12:
 843              		.size	ADC_SAR_2_CalcGain, .-ADC_SAR_2_CalcGain
 844              		.section	.text.ADC_SAR_2_SetGain,"ax",%progbits
 845              		.align	2
 846              		.global	ADC_SAR_2_SetGain
 847              		.thumb
 848              		.thumb_func
 849              		.type	ADC_SAR_2_SetGain, %function
 850              	ADC_SAR_2_SetGain:
 851              	.LFB13:
 669:Generated_Source\PSoC5/ADC_SAR_2.c **** 
 670:Generated_Source\PSoC5/ADC_SAR_2.c **** 
 671:Generated_Source\PSoC5/ADC_SAR_2.c **** /*******************************************************************************
 672:Generated_Source\PSoC5/ADC_SAR_2.c **** * Function Name: ADC_SAR_2_SetGain
 673:Generated_Source\PSoC5/ADC_SAR_2.c **** ********************************************************************************
 674:Generated_Source\PSoC5/ADC_SAR_2.c **** *
 675:Generated_Source\PSoC5/ADC_SAR_2.c **** * Summary:
 676:Generated_Source\PSoC5/ADC_SAR_2.c **** *  Sets the ADC gain in counts per volt for the voltage conversion functions
 677:Generated_Source\PSoC5/ADC_SAR_2.c **** *  that follow. This value is set by default by the reference and input range
 678:Generated_Source\PSoC5/ADC_SAR_2.c **** *  settings. It should only be used to further calibrate the ADC with a known
 679:Generated_Source\PSoC5/ADC_SAR_2.c **** *  input or if the ADC is using an external reference.
 680:Generated_Source\PSoC5/ADC_SAR_2.c **** *
 681:Generated_Source\PSoC5/ADC_SAR_2.c **** * Parameters:
 682:Generated_Source\PSoC5/ADC_SAR_2.c **** *  int16 adcGain counts per volt
 683:Generated_Source\PSoC5/ADC_SAR_2.c **** *
 684:Generated_Source\PSoC5/ADC_SAR_2.c **** * Return:
 685:Generated_Source\PSoC5/ADC_SAR_2.c **** *  None.
 686:Generated_Source\PSoC5/ADC_SAR_2.c **** *
 687:Generated_Source\PSoC5/ADC_SAR_2.c **** * Global Variables:
ARM GAS  C:\Users\KJA\AppData\Local\Temp\ccGMcFRr.s 			page 28


 688:Generated_Source\PSoC5/ADC_SAR_2.c **** *  ADC_SAR_2_countsPer10Volt variable modified. This variable is used
 689:Generated_Source\PSoC5/ADC_SAR_2.c **** *  for gain calibration purpose.
 690:Generated_Source\PSoC5/ADC_SAR_2.c **** *
 691:Generated_Source\PSoC5/ADC_SAR_2.c **** *******************************************************************************/
 692:Generated_Source\PSoC5/ADC_SAR_2.c **** void ADC_SAR_2_SetGain(int16 adcGain)
 693:Generated_Source\PSoC5/ADC_SAR_2.c **** {
 852              		.loc 1 693 0
 853              		.cfi_startproc
 854              		@ args = 0, pretend = 0, frame = 8
 855              		@ frame_needed = 1, uses_anonymous_args = 0
 856              		@ link register save eliminated.
 857 0000 80B4     		push	{r7}
 858              		.cfi_def_cfa_offset 4
 859              		.cfi_offset 7, -4
 860 0002 83B0     		sub	sp, sp, #12
 861              		.cfi_def_cfa_offset 16
 862 0004 00AF     		add	r7, sp, #0
 863              		.cfi_def_cfa_register 7
 864 0006 0346     		mov	r3, r0
 865 0008 FB80     		strh	r3, [r7, #6]	@ movhi
 694:Generated_Source\PSoC5/ADC_SAR_2.c ****     ADC_SAR_2_countsPer10Volt = (int32)adcGain * 10;
 866              		.loc 1 694 0
 867 000a B7F90620 		ldrsh	r2, [r7, #6]
 868 000e 1346     		mov	r3, r2
 869 0010 9B00     		lsls	r3, r3, #2
 870 0012 1344     		add	r3, r3, r2
 871 0014 5B00     		lsls	r3, r3, #1
 872 0016 1A46     		mov	r2, r3
 873 0018 034B     		ldr	r3, .L61
 874 001a 1A60     		str	r2, [r3]
 695:Generated_Source\PSoC5/ADC_SAR_2.c **** }
 875              		.loc 1 695 0
 876 001c 0C37     		adds	r7, r7, #12
 877              		.cfi_def_cfa_offset 4
 878 001e BD46     		mov	sp, r7
 879              		.cfi_def_cfa_register 13
 880              		@ sp needed
 881 0020 5DF8047B 		ldr	r7, [sp], #4
 882              		.cfi_restore 7
 883              		.cfi_def_cfa_offset 0
 884 0024 7047     		bx	lr
 885              	.L62:
 886 0026 00BF     		.align	2
 887              	.L61:
 888 0028 00000000 		.word	ADC_SAR_2_countsPer10Volt
 889              		.cfi_endproc
 890              	.LFE13:
 891              		.size	ADC_SAR_2_SetGain, .-ADC_SAR_2_SetGain
 892              		.section	.text.ADC_SAR_2_SetScaledGain,"ax",%progbits
 893              		.align	2
 894              		.global	ADC_SAR_2_SetScaledGain
 895              		.thumb
 896              		.thumb_func
 897              		.type	ADC_SAR_2_SetScaledGain, %function
 898              	ADC_SAR_2_SetScaledGain:
 899              	.LFB14:
 696:Generated_Source\PSoC5/ADC_SAR_2.c **** 
ARM GAS  C:\Users\KJA\AppData\Local\Temp\ccGMcFRr.s 			page 29


 697:Generated_Source\PSoC5/ADC_SAR_2.c **** 
 698:Generated_Source\PSoC5/ADC_SAR_2.c **** /*******************************************************************************
 699:Generated_Source\PSoC5/ADC_SAR_2.c **** * Function Name: ADC_SAR_2_SetScaledGain
 700:Generated_Source\PSoC5/ADC_SAR_2.c **** ********************************************************************************
 701:Generated_Source\PSoC5/ADC_SAR_2.c **** *
 702:Generated_Source\PSoC5/ADC_SAR_2.c **** * Summary:
 703:Generated_Source\PSoC5/ADC_SAR_2.c **** *  Sets the ADC gain in counts per 10 volt for the voltage conversion functions
 704:Generated_Source\PSoC5/ADC_SAR_2.c **** *  that follow. This value is set by default by the reference and input range
 705:Generated_Source\PSoC5/ADC_SAR_2.c **** *  settings. It should only be used to further calibrate the ADC with a known
 706:Generated_Source\PSoC5/ADC_SAR_2.c **** *  input or if the ADC is using an external reference.
 707:Generated_Source\PSoC5/ADC_SAR_2.c **** *
 708:Generated_Source\PSoC5/ADC_SAR_2.c **** * Parameters:
 709:Generated_Source\PSoC5/ADC_SAR_2.c **** *  int32 adcGain  counts per 10 volt
 710:Generated_Source\PSoC5/ADC_SAR_2.c **** *
 711:Generated_Source\PSoC5/ADC_SAR_2.c **** * Return:
 712:Generated_Source\PSoC5/ADC_SAR_2.c **** *  None.
 713:Generated_Source\PSoC5/ADC_SAR_2.c **** *
 714:Generated_Source\PSoC5/ADC_SAR_2.c **** * Global Variables:
 715:Generated_Source\PSoC5/ADC_SAR_2.c **** *  ADC_SAR_2_countsPer10Volt variable modified. This variable is used
 716:Generated_Source\PSoC5/ADC_SAR_2.c **** *  for gain calibration purpose.
 717:Generated_Source\PSoC5/ADC_SAR_2.c **** *
 718:Generated_Source\PSoC5/ADC_SAR_2.c **** *******************************************************************************/
 719:Generated_Source\PSoC5/ADC_SAR_2.c **** void ADC_SAR_2_SetScaledGain(int32 adcGain)
 720:Generated_Source\PSoC5/ADC_SAR_2.c **** {
 900              		.loc 1 720 0
 901              		.cfi_startproc
 902              		@ args = 0, pretend = 0, frame = 8
 903              		@ frame_needed = 1, uses_anonymous_args = 0
 904              		@ link register save eliminated.
 905 0000 80B4     		push	{r7}
 906              		.cfi_def_cfa_offset 4
 907              		.cfi_offset 7, -4
 908 0002 83B0     		sub	sp, sp, #12
 909              		.cfi_def_cfa_offset 16
 910 0004 00AF     		add	r7, sp, #0
 911              		.cfi_def_cfa_register 7
 912 0006 7860     		str	r0, [r7, #4]
 721:Generated_Source\PSoC5/ADC_SAR_2.c ****     ADC_SAR_2_countsPer10Volt = adcGain;
 913              		.loc 1 721 0
 914 0008 034A     		ldr	r2, .L64
 915 000a 7B68     		ldr	r3, [r7, #4]
 916 000c 1360     		str	r3, [r2]
 722:Generated_Source\PSoC5/ADC_SAR_2.c **** }
 917              		.loc 1 722 0
 918 000e 0C37     		adds	r7, r7, #12
 919              		.cfi_def_cfa_offset 4
 920 0010 BD46     		mov	sp, r7
 921              		.cfi_def_cfa_register 13
 922              		@ sp needed
 923 0012 5DF8047B 		ldr	r7, [sp], #4
 924              		.cfi_restore 7
 925              		.cfi_def_cfa_offset 0
 926 0016 7047     		bx	lr
 927              	.L65:
 928              		.align	2
 929              	.L64:
 930 0018 00000000 		.word	ADC_SAR_2_countsPer10Volt
ARM GAS  C:\Users\KJA\AppData\Local\Temp\ccGMcFRr.s 			page 30


 931              		.cfi_endproc
 932              	.LFE14:
 933              		.size	ADC_SAR_2_SetScaledGain, .-ADC_SAR_2_SetScaledGain
 934              		.section	.text.ADC_SAR_2_CountsTo_mVolts,"ax",%progbits
 935              		.align	2
 936              		.global	ADC_SAR_2_CountsTo_mVolts
 937              		.thumb
 938              		.thumb_func
 939              		.type	ADC_SAR_2_CountsTo_mVolts, %function
 940              	ADC_SAR_2_CountsTo_mVolts:
 941              	.LFB15:
 723:Generated_Source\PSoC5/ADC_SAR_2.c **** 
 724:Generated_Source\PSoC5/ADC_SAR_2.c **** 
 725:Generated_Source\PSoC5/ADC_SAR_2.c **** /*******************************************************************************
 726:Generated_Source\PSoC5/ADC_SAR_2.c **** * Function Name: ADC_SAR_2_CountsTo_mVolts
 727:Generated_Source\PSoC5/ADC_SAR_2.c **** ********************************************************************************
 728:Generated_Source\PSoC5/ADC_SAR_2.c **** *
 729:Generated_Source\PSoC5/ADC_SAR_2.c **** * Summary:
 730:Generated_Source\PSoC5/ADC_SAR_2.c **** *  Converts the ADC output to millivolts as a 16-bit integer.
 731:Generated_Source\PSoC5/ADC_SAR_2.c **** *
 732:Generated_Source\PSoC5/ADC_SAR_2.c **** * Parameters:
 733:Generated_Source\PSoC5/ADC_SAR_2.c **** *  int16 adcCounts:  Result from the ADC conversion
 734:Generated_Source\PSoC5/ADC_SAR_2.c **** *
 735:Generated_Source\PSoC5/ADC_SAR_2.c **** * Return:
 736:Generated_Source\PSoC5/ADC_SAR_2.c **** *  int16 Result in mVolts
 737:Generated_Source\PSoC5/ADC_SAR_2.c **** *
 738:Generated_Source\PSoC5/ADC_SAR_2.c **** * Global Variables:
 739:Generated_Source\PSoC5/ADC_SAR_2.c **** *  ADC_SAR_2_offset variable used.
 740:Generated_Source\PSoC5/ADC_SAR_2.c **** *  ADC_SAR_2_countsPer10Volt variable used.
 741:Generated_Source\PSoC5/ADC_SAR_2.c **** *
 742:Generated_Source\PSoC5/ADC_SAR_2.c **** *******************************************************************************/
 743:Generated_Source\PSoC5/ADC_SAR_2.c **** int16 ADC_SAR_2_CountsTo_mVolts(int16 adcCounts)
 744:Generated_Source\PSoC5/ADC_SAR_2.c **** {
 942              		.loc 1 744 0
 943              		.cfi_startproc
 944              		@ args = 0, pretend = 0, frame = 16
 945              		@ frame_needed = 1, uses_anonymous_args = 0
 946              		@ link register save eliminated.
 947 0000 80B4     		push	{r7}
 948              		.cfi_def_cfa_offset 4
 949              		.cfi_offset 7, -4
 950 0002 85B0     		sub	sp, sp, #20
 951              		.cfi_def_cfa_offset 24
 952 0004 00AF     		add	r7, sp, #0
 953              		.cfi_def_cfa_register 7
 954 0006 0346     		mov	r3, r0
 955 0008 FB80     		strh	r3, [r7, #6]	@ movhi
 745:Generated_Source\PSoC5/ADC_SAR_2.c ****     int16 mVolts;
 746:Generated_Source\PSoC5/ADC_SAR_2.c ****     int32 countsPer10Volt;
 747:Generated_Source\PSoC5/ADC_SAR_2.c **** 
 748:Generated_Source\PSoC5/ADC_SAR_2.c ****     if(ADC_SAR_2_countsPerVolt != 0)
 956              		.loc 1 748 0
 957 000a 1D4B     		ldr	r3, .L72
 958 000c 1B88     		ldrh	r3, [r3]	@ movhi
 959 000e 9BB2     		uxth	r3, r3
 960 0010 002B     		cmp	r3, #0
 961 0012 09D0     		beq	.L67
ARM GAS  C:\Users\KJA\AppData\Local\Temp\ccGMcFRr.s 			page 31


 749:Generated_Source\PSoC5/ADC_SAR_2.c ****     {   /* Support obsolete method */
 750:Generated_Source\PSoC5/ADC_SAR_2.c ****         countsPer10Volt = (int32)ADC_SAR_2_countsPerVolt * 10;
 962              		.loc 1 750 0
 963 0014 1A4B     		ldr	r3, .L72
 964 0016 1B88     		ldrh	r3, [r3]	@ movhi
 965 0018 9BB2     		uxth	r3, r3
 966 001a 1AB2     		sxth	r2, r3
 967 001c 1346     		mov	r3, r2
 968 001e 9B00     		lsls	r3, r3, #2
 969 0020 1344     		add	r3, r3, r2
 970 0022 5B00     		lsls	r3, r3, #1
 971 0024 FB60     		str	r3, [r7, #12]
 972 0026 02E0     		b	.L68
 973              	.L67:
 751:Generated_Source\PSoC5/ADC_SAR_2.c ****     }
 752:Generated_Source\PSoC5/ADC_SAR_2.c ****     else
 753:Generated_Source\PSoC5/ADC_SAR_2.c ****     {
 754:Generated_Source\PSoC5/ADC_SAR_2.c ****         countsPer10Volt = ADC_SAR_2_countsPer10Volt;
 974              		.loc 1 754 0
 975 0028 164B     		ldr	r3, .L72+4
 976 002a 1B68     		ldr	r3, [r3]
 977 002c FB60     		str	r3, [r7, #12]
 978              	.L68:
 755:Generated_Source\PSoC5/ADC_SAR_2.c ****     }
 756:Generated_Source\PSoC5/ADC_SAR_2.c **** 
 757:Generated_Source\PSoC5/ADC_SAR_2.c ****     /* Subtract ADC offset */
 758:Generated_Source\PSoC5/ADC_SAR_2.c ****     adcCounts -= ADC_SAR_2_offset;
 979              		.loc 1 758 0
 980 002e 164B     		ldr	r3, .L72+8
 981 0030 1B88     		ldrh	r3, [r3]	@ movhi
 982 0032 9BB2     		uxth	r3, r3
 983 0034 FA88     		ldrh	r2, [r7, #6]
 984 0036 9BB2     		uxth	r3, r3
 985 0038 D31A     		subs	r3, r2, r3
 986 003a 9BB2     		uxth	r3, r3
 987 003c FB80     		strh	r3, [r7, #6]	@ movhi
 759:Generated_Source\PSoC5/ADC_SAR_2.c ****     /* Convert to millivolts with rounding */
 760:Generated_Source\PSoC5/ADC_SAR_2.c ****     mVolts = (int16)( (( (int32)adcCounts * ADC_SAR_2_10MV_COUNTS ) + ( (adcCounts > 0) ?
 988              		.loc 1 760 0
 989 003e B7F90630 		ldrsh	r3, [r7, #6]
 990 0042 42F21072 		movw	r2, #10000
 991 0046 02FB03F2 		mul	r2, r2, r3
 761:Generated_Source\PSoC5/ADC_SAR_2.c ****                        (countsPer10Volt / 2) : (-(countsPer10Volt / 2)) )) / countsPer10Volt);
 992              		.loc 1 761 0
 993 004a B7F90630 		ldrsh	r3, [r7, #6]
 994 004e 002B     		cmp	r3, #0
 995 0050 04DD     		ble	.L69
 996              		.loc 1 761 0 is_stmt 0 discriminator 1
 997 0052 FB68     		ldr	r3, [r7, #12]
 998 0054 D90F     		lsrs	r1, r3, #31
 999 0056 0B44     		add	r3, r3, r1
 1000 0058 5B10     		asrs	r3, r3, #1
 1001 005a 04E0     		b	.L70
 1002              	.L69:
 1003              		.loc 1 761 0 discriminator 2
 1004 005c FB68     		ldr	r3, [r7, #12]
 1005 005e D90F     		lsrs	r1, r3, #31
ARM GAS  C:\Users\KJA\AppData\Local\Temp\ccGMcFRr.s 			page 32


 1006 0060 0B44     		add	r3, r3, r1
 1007 0062 5B10     		asrs	r3, r3, #1
 1008 0064 5B42     		negs	r3, r3
 1009              	.L70:
 760:Generated_Source\PSoC5/ADC_SAR_2.c ****                        (countsPer10Volt / 2) : (-(countsPer10Volt / 2)) )) / countsPer10Volt);
 1010              		.loc 1 760 0 is_stmt 1
 1011 0066 1A44     		add	r2, r2, r3
 1012              		.loc 1 761 0
 1013 0068 FB68     		ldr	r3, [r7, #12]
 1014 006a 92FBF3F3 		sdiv	r3, r2, r3
 760:Generated_Source\PSoC5/ADC_SAR_2.c ****                        (countsPer10Volt / 2) : (-(countsPer10Volt / 2)) )) / countsPer10Volt);
 1015              		.loc 1 760 0
 1016 006e 7B81     		strh	r3, [r7, #10]	@ movhi
 762:Generated_Source\PSoC5/ADC_SAR_2.c **** 
 763:Generated_Source\PSoC5/ADC_SAR_2.c ****     return( mVolts );
 1017              		.loc 1 763 0
 1018 0070 7B89     		ldrh	r3, [r7, #10]
 1019 0072 1BB2     		sxth	r3, r3
 764:Generated_Source\PSoC5/ADC_SAR_2.c **** }
 1020              		.loc 1 764 0
 1021 0074 1846     		mov	r0, r3
 1022 0076 1437     		adds	r7, r7, #20
 1023              		.cfi_def_cfa_offset 4
 1024 0078 BD46     		mov	sp, r7
 1025              		.cfi_def_cfa_register 13
 1026              		@ sp needed
 1027 007a 5DF8047B 		ldr	r7, [sp], #4
 1028              		.cfi_restore 7
 1029              		.cfi_def_cfa_offset 0
 1030 007e 7047     		bx	lr
 1031              	.L73:
 1032              		.align	2
 1033              	.L72:
 1034 0080 00000000 		.word	ADC_SAR_2_countsPerVolt
 1035 0084 00000000 		.word	ADC_SAR_2_countsPer10Volt
 1036 0088 00000000 		.word	ADC_SAR_2_offset
 1037              		.cfi_endproc
 1038              	.LFE15:
 1039              		.size	ADC_SAR_2_CountsTo_mVolts, .-ADC_SAR_2_CountsTo_mVolts
 1040              		.global	__aeabi_ldivmod
 1041              		.section	.text.ADC_SAR_2_CountsTo_uVolts,"ax",%progbits
 1042              		.align	2
 1043              		.global	ADC_SAR_2_CountsTo_uVolts
 1044              		.thumb
 1045              		.thumb_func
 1046              		.type	ADC_SAR_2_CountsTo_uVolts, %function
 1047              	ADC_SAR_2_CountsTo_uVolts:
 1048              	.LFB16:
 765:Generated_Source\PSoC5/ADC_SAR_2.c **** 
 766:Generated_Source\PSoC5/ADC_SAR_2.c **** 
 767:Generated_Source\PSoC5/ADC_SAR_2.c **** /*******************************************************************************
 768:Generated_Source\PSoC5/ADC_SAR_2.c **** * Function Name: ADC_SAR_2_CountsTo_uVolts
 769:Generated_Source\PSoC5/ADC_SAR_2.c **** ********************************************************************************
 770:Generated_Source\PSoC5/ADC_SAR_2.c **** *
 771:Generated_Source\PSoC5/ADC_SAR_2.c **** * Summary:
 772:Generated_Source\PSoC5/ADC_SAR_2.c **** *  Converts the ADC output to microvolts as a 32-bit integer.
 773:Generated_Source\PSoC5/ADC_SAR_2.c **** *
ARM GAS  C:\Users\KJA\AppData\Local\Temp\ccGMcFRr.s 			page 33


 774:Generated_Source\PSoC5/ADC_SAR_2.c **** * Parameters:
 775:Generated_Source\PSoC5/ADC_SAR_2.c **** *  int16 adcCounts: Result from the ADC conversion
 776:Generated_Source\PSoC5/ADC_SAR_2.c **** *
 777:Generated_Source\PSoC5/ADC_SAR_2.c **** * Return:
 778:Generated_Source\PSoC5/ADC_SAR_2.c **** *  int32 Result in micro Volts
 779:Generated_Source\PSoC5/ADC_SAR_2.c **** *
 780:Generated_Source\PSoC5/ADC_SAR_2.c **** * Global Variables:
 781:Generated_Source\PSoC5/ADC_SAR_2.c **** *  ADC_SAR_2_offset variable used.
 782:Generated_Source\PSoC5/ADC_SAR_2.c **** *  ADC_SAR_2_countsPer10Volt used to convert ADC counts to uVolts.
 783:Generated_Source\PSoC5/ADC_SAR_2.c **** *
 784:Generated_Source\PSoC5/ADC_SAR_2.c **** *******************************************************************************/
 785:Generated_Source\PSoC5/ADC_SAR_2.c **** int32 ADC_SAR_2_CountsTo_uVolts(int16 adcCounts)
 786:Generated_Source\PSoC5/ADC_SAR_2.c **** {
 1049              		.loc 1 786 0
 1050              		.cfi_startproc
 1051              		@ args = 0, pretend = 0, frame = 24
 1052              		@ frame_needed = 1, uses_anonymous_args = 0
 1053 0000 B0B5     		push	{r4, r5, r7, lr}
 1054              		.cfi_def_cfa_offset 16
 1055              		.cfi_offset 4, -16
 1056              		.cfi_offset 5, -12
 1057              		.cfi_offset 7, -8
 1058              		.cfi_offset 14, -4
 1059 0002 86B0     		sub	sp, sp, #24
 1060              		.cfi_def_cfa_offset 40
 1061 0004 00AF     		add	r7, sp, #0
 1062              		.cfi_def_cfa_register 7
 1063 0006 0346     		mov	r3, r0
 1064 0008 FB80     		strh	r3, [r7, #6]	@ movhi
 787:Generated_Source\PSoC5/ADC_SAR_2.c **** 
 788:Generated_Source\PSoC5/ADC_SAR_2.c ****     int64 uVolts;
 789:Generated_Source\PSoC5/ADC_SAR_2.c ****     int32 countsPer10Volt;
 790:Generated_Source\PSoC5/ADC_SAR_2.c **** 
 791:Generated_Source\PSoC5/ADC_SAR_2.c ****     if(ADC_SAR_2_countsPerVolt != 0)
 1065              		.loc 1 791 0
 1066 000a 1E4B     		ldr	r3, .L78
 1067 000c 1B88     		ldrh	r3, [r3]	@ movhi
 1068 000e 9BB2     		uxth	r3, r3
 1069 0010 002B     		cmp	r3, #0
 1070 0012 09D0     		beq	.L75
 792:Generated_Source\PSoC5/ADC_SAR_2.c ****     {   /* Support obsolete method */
 793:Generated_Source\PSoC5/ADC_SAR_2.c ****         countsPer10Volt = (int32)ADC_SAR_2_countsPerVolt * 10;
 1071              		.loc 1 793 0
 1072 0014 1B4B     		ldr	r3, .L78
 1073 0016 1B88     		ldrh	r3, [r3]	@ movhi
 1074 0018 9BB2     		uxth	r3, r3
 1075 001a 1AB2     		sxth	r2, r3
 1076 001c 1346     		mov	r3, r2
 1077 001e 9B00     		lsls	r3, r3, #2
 1078 0020 1344     		add	r3, r3, r2
 1079 0022 5B00     		lsls	r3, r3, #1
 1080 0024 7B61     		str	r3, [r7, #20]
 1081 0026 02E0     		b	.L76
 1082              	.L75:
 794:Generated_Source\PSoC5/ADC_SAR_2.c ****     }
 795:Generated_Source\PSoC5/ADC_SAR_2.c ****     else
 796:Generated_Source\PSoC5/ADC_SAR_2.c ****     {
ARM GAS  C:\Users\KJA\AppData\Local\Temp\ccGMcFRr.s 			page 34


 797:Generated_Source\PSoC5/ADC_SAR_2.c ****         countsPer10Volt = ADC_SAR_2_countsPer10Volt;
 1083              		.loc 1 797 0
 1084 0028 174B     		ldr	r3, .L78+4
 1085 002a 1B68     		ldr	r3, [r3]
 1086 002c 7B61     		str	r3, [r7, #20]
 1087              	.L76:
 798:Generated_Source\PSoC5/ADC_SAR_2.c ****     }
 799:Generated_Source\PSoC5/ADC_SAR_2.c **** 
 800:Generated_Source\PSoC5/ADC_SAR_2.c ****     /* Subtract ADC offset */
 801:Generated_Source\PSoC5/ADC_SAR_2.c ****     adcCounts -= ADC_SAR_2_offset;
 1088              		.loc 1 801 0
 1089 002e 174B     		ldr	r3, .L78+8
 1090 0030 1B88     		ldrh	r3, [r3]	@ movhi
 1091 0032 9BB2     		uxth	r3, r3
 1092 0034 FA88     		ldrh	r2, [r7, #6]
 1093 0036 9BB2     		uxth	r3, r3
 1094 0038 D31A     		subs	r3, r2, r3
 1095 003a 9BB2     		uxth	r3, r3
 1096 003c FB80     		strh	r3, [r7, #6]	@ movhi
 802:Generated_Source\PSoC5/ADC_SAR_2.c ****     /* To convert adcCounts to microVolts it is required to be multiplied
 803:Generated_Source\PSoC5/ADC_SAR_2.c ****     *  on 10 million and later divide on gain in counts per 10V.
 804:Generated_Source\PSoC5/ADC_SAR_2.c ****     */
 805:Generated_Source\PSoC5/ADC_SAR_2.c ****     uVolts = (( (int64)adcCounts * ADC_SAR_2_10UV_COUNTS ) / countsPer10Volt);
 1097              		.loc 1 805 0
 1098 003e B7F90620 		ldrsh	r2, [r7, #6]
 1099 0042 4FEAE273 		asr	r3, r2, #31
 1100 0046 1249     		ldr	r1, .L78+12
 1101 0048 01FB03F0 		mul	r0, r1, r3
 1102 004c 0021     		movs	r1, #0
 1103 004e 01FB02F1 		mul	r1, r1, r2
 1104 0052 0144     		add	r1, r1, r0
 1105 0054 0E48     		ldr	r0, .L78+12
 1106 0056 A2FB0023 		umull	r2, r3, r2, r0
 1107 005a 1944     		add	r1, r1, r3
 1108 005c 0B46     		mov	r3, r1
 1109 005e 7969     		ldr	r1, [r7, #20]
 1110 0060 0C46     		mov	r4, r1
 1111 0062 4FEAE475 		asr	r5, r4, #31
 1112 0066 1046     		mov	r0, r2
 1113 0068 1946     		mov	r1, r3
 1114 006a 2246     		mov	r2, r4
 1115 006c 2B46     		mov	r3, r5
 1116 006e FFF7FEFF 		bl	__aeabi_ldivmod
 1117 0072 0246     		mov	r2, r0
 1118 0074 0B46     		mov	r3, r1
 1119 0076 C7E90223 		strd	r2, [r7, #8]
 806:Generated_Source\PSoC5/ADC_SAR_2.c **** 
 807:Generated_Source\PSoC5/ADC_SAR_2.c ****     return( uVolts );
 1120              		.loc 1 807 0
 1121 007a BB68     		ldr	r3, [r7, #8]
 808:Generated_Source\PSoC5/ADC_SAR_2.c **** }
 1122              		.loc 1 808 0
 1123 007c 1846     		mov	r0, r3
 1124 007e 1837     		adds	r7, r7, #24
 1125              		.cfi_def_cfa_offset 16
 1126 0080 BD46     		mov	sp, r7
 1127              		.cfi_def_cfa_register 13
ARM GAS  C:\Users\KJA\AppData\Local\Temp\ccGMcFRr.s 			page 35


 1128              		@ sp needed
 1129 0082 B0BD     		pop	{r4, r5, r7, pc}
 1130              	.L79:
 1131              		.align	2
 1132              	.L78:
 1133 0084 00000000 		.word	ADC_SAR_2_countsPerVolt
 1134 0088 00000000 		.word	ADC_SAR_2_countsPer10Volt
 1135 008c 00000000 		.word	ADC_SAR_2_offset
 1136 0090 80969800 		.word	10000000
 1137              		.cfi_endproc
 1138              	.LFE16:
 1139              		.size	ADC_SAR_2_CountsTo_uVolts, .-ADC_SAR_2_CountsTo_uVolts
 1140              		.global	__aeabi_i2f
 1141              		.global	__aeabi_fmul
 1142              		.global	__aeabi_fdiv
 1143              		.section	.text.ADC_SAR_2_CountsTo_Volts,"ax",%progbits
 1144              		.align	2
 1145              		.global	ADC_SAR_2_CountsTo_Volts
 1146              		.thumb
 1147              		.thumb_func
 1148              		.type	ADC_SAR_2_CountsTo_Volts, %function
 1149              	ADC_SAR_2_CountsTo_Volts:
 1150              	.LFB17:
 809:Generated_Source\PSoC5/ADC_SAR_2.c **** 
 810:Generated_Source\PSoC5/ADC_SAR_2.c **** 
 811:Generated_Source\PSoC5/ADC_SAR_2.c **** /*******************************************************************************
 812:Generated_Source\PSoC5/ADC_SAR_2.c **** * Function Name: ADC_SAR_2_CountsTo_Volts
 813:Generated_Source\PSoC5/ADC_SAR_2.c **** ********************************************************************************
 814:Generated_Source\PSoC5/ADC_SAR_2.c **** *
 815:Generated_Source\PSoC5/ADC_SAR_2.c **** * Summary:
 816:Generated_Source\PSoC5/ADC_SAR_2.c **** *  Converts the ADC output to volts as a floating-point number.
 817:Generated_Source\PSoC5/ADC_SAR_2.c **** *
 818:Generated_Source\PSoC5/ADC_SAR_2.c **** * Parameters:
 819:Generated_Source\PSoC5/ADC_SAR_2.c **** *  int16 adcCounts: Result from the ADC conversion
 820:Generated_Source\PSoC5/ADC_SAR_2.c **** *
 821:Generated_Source\PSoC5/ADC_SAR_2.c **** * Return:
 822:Generated_Source\PSoC5/ADC_SAR_2.c **** *  float Result in Volts
 823:Generated_Source\PSoC5/ADC_SAR_2.c **** *
 824:Generated_Source\PSoC5/ADC_SAR_2.c **** * Global Variables:
 825:Generated_Source\PSoC5/ADC_SAR_2.c **** *  ADC_SAR_2_offset variable used.
 826:Generated_Source\PSoC5/ADC_SAR_2.c **** *  ADC_SAR_2_countsPer10Volt used to convert ADC counts to Volts.
 827:Generated_Source\PSoC5/ADC_SAR_2.c **** *
 828:Generated_Source\PSoC5/ADC_SAR_2.c **** *******************************************************************************/
 829:Generated_Source\PSoC5/ADC_SAR_2.c **** float32 ADC_SAR_2_CountsTo_Volts(int16 adcCounts)
 830:Generated_Source\PSoC5/ADC_SAR_2.c **** {
 1151              		.loc 1 830 0
 1152              		.cfi_startproc
 1153              		@ args = 0, pretend = 0, frame = 16
 1154              		@ frame_needed = 1, uses_anonymous_args = 0
 1155 0000 90B5     		push	{r4, r7, lr}
 1156              		.cfi_def_cfa_offset 12
 1157              		.cfi_offset 4, -12
 1158              		.cfi_offset 7, -8
 1159              		.cfi_offset 14, -4
 1160 0002 85B0     		sub	sp, sp, #20
 1161              		.cfi_def_cfa_offset 32
 1162 0004 00AF     		add	r7, sp, #0
ARM GAS  C:\Users\KJA\AppData\Local\Temp\ccGMcFRr.s 			page 36


 1163              		.cfi_def_cfa_register 7
 1164 0006 0346     		mov	r3, r0
 1165 0008 FB80     		strh	r3, [r7, #6]	@ movhi
 831:Generated_Source\PSoC5/ADC_SAR_2.c ****     float32 volts;
 832:Generated_Source\PSoC5/ADC_SAR_2.c ****     int32 countsPer10Volt;
 833:Generated_Source\PSoC5/ADC_SAR_2.c **** 
 834:Generated_Source\PSoC5/ADC_SAR_2.c ****     if(ADC_SAR_2_countsPerVolt != 0)
 1166              		.loc 1 834 0
 1167 000a 1A4B     		ldr	r3, .L84
 1168 000c 1B88     		ldrh	r3, [r3]	@ movhi
 1169 000e 9BB2     		uxth	r3, r3
 1170 0010 002B     		cmp	r3, #0
 1171 0012 09D0     		beq	.L81
 835:Generated_Source\PSoC5/ADC_SAR_2.c ****     {   /* Support obsolete method */
 836:Generated_Source\PSoC5/ADC_SAR_2.c ****         countsPer10Volt = (int32)ADC_SAR_2_countsPerVolt * 10;
 1172              		.loc 1 836 0
 1173 0014 174B     		ldr	r3, .L84
 1174 0016 1B88     		ldrh	r3, [r3]	@ movhi
 1175 0018 9BB2     		uxth	r3, r3
 1176 001a 1AB2     		sxth	r2, r3
 1177 001c 1346     		mov	r3, r2
 1178 001e 9B00     		lsls	r3, r3, #2
 1179 0020 1344     		add	r3, r3, r2
 1180 0022 5B00     		lsls	r3, r3, #1
 1181 0024 FB60     		str	r3, [r7, #12]
 1182 0026 02E0     		b	.L82
 1183              	.L81:
 837:Generated_Source\PSoC5/ADC_SAR_2.c ****     }
 838:Generated_Source\PSoC5/ADC_SAR_2.c ****     else
 839:Generated_Source\PSoC5/ADC_SAR_2.c ****     {
 840:Generated_Source\PSoC5/ADC_SAR_2.c ****         countsPer10Volt = ADC_SAR_2_countsPer10Volt;
 1184              		.loc 1 840 0
 1185 0028 134B     		ldr	r3, .L84+4
 1186 002a 1B68     		ldr	r3, [r3]
 1187 002c FB60     		str	r3, [r7, #12]
 1188              	.L82:
 841:Generated_Source\PSoC5/ADC_SAR_2.c ****     }
 842:Generated_Source\PSoC5/ADC_SAR_2.c **** 
 843:Generated_Source\PSoC5/ADC_SAR_2.c ****     /* Subtract ADC offset */
 844:Generated_Source\PSoC5/ADC_SAR_2.c ****     adcCounts -= ADC_SAR_2_offset;
 1189              		.loc 1 844 0
 1190 002e 134B     		ldr	r3, .L84+8
 1191 0030 1B88     		ldrh	r3, [r3]	@ movhi
 1192 0032 9BB2     		uxth	r3, r3
 1193 0034 FA88     		ldrh	r2, [r7, #6]
 1194 0036 9BB2     		uxth	r3, r3
 1195 0038 D31A     		subs	r3, r2, r3
 1196 003a 9BB2     		uxth	r3, r3
 1197 003c FB80     		strh	r3, [r7, #6]	@ movhi
 845:Generated_Source\PSoC5/ADC_SAR_2.c **** 
 846:Generated_Source\PSoC5/ADC_SAR_2.c ****     volts = ((float32)adcCounts * ADC_SAR_2_10V_COUNTS) / (float32)countsPer10Volt;
 1198              		.loc 1 846 0
 1199 003e B7F90630 		ldrsh	r3, [r7, #6]
 1200 0042 1846     		mov	r0, r3
 1201 0044 FFF7FEFF 		bl	__aeabi_i2f
 1202 0048 0346     		mov	r3, r0
 1203 004a 1846     		mov	r0, r3
ARM GAS  C:\Users\KJA\AppData\Local\Temp\ccGMcFRr.s 			page 37


 1204 004c 0C49     		ldr	r1, .L84+12
 1205 004e FFF7FEFF 		bl	__aeabi_fmul
 1206 0052 0346     		mov	r3, r0
 1207 0054 1C46     		mov	r4, r3
 1208 0056 F868     		ldr	r0, [r7, #12]
 1209 0058 FFF7FEFF 		bl	__aeabi_i2f
 1210 005c 0346     		mov	r3, r0
 1211 005e 2046     		mov	r0, r4
 1212 0060 1946     		mov	r1, r3
 1213 0062 FFF7FEFF 		bl	__aeabi_fdiv
 1214 0066 0346     		mov	r3, r0
 1215 0068 BB60     		str	r3, [r7, #8]	@ float
 847:Generated_Source\PSoC5/ADC_SAR_2.c **** 
 848:Generated_Source\PSoC5/ADC_SAR_2.c ****     return( volts );
 1216              		.loc 1 848 0
 1217 006a BB68     		ldr	r3, [r7, #8]	@ float
 849:Generated_Source\PSoC5/ADC_SAR_2.c **** }
 1218              		.loc 1 849 0
 1219 006c 1846     		mov	r0, r3
 1220 006e 1437     		adds	r7, r7, #20
 1221              		.cfi_def_cfa_offset 12
 1222 0070 BD46     		mov	sp, r7
 1223              		.cfi_def_cfa_register 13
 1224              		@ sp needed
 1225 0072 90BD     		pop	{r4, r7, pc}
 1226              	.L85:
 1227              		.align	2
 1228              	.L84:
 1229 0074 00000000 		.word	ADC_SAR_2_countsPerVolt
 1230 0078 00000000 		.word	ADC_SAR_2_countsPer10Volt
 1231 007c 00000000 		.word	ADC_SAR_2_offset
 1232 0080 00002041 		.word	1092616192
 1233              		.cfi_endproc
 1234              	.LFE17:
 1235              		.size	ADC_SAR_2_CountsTo_Volts, .-ADC_SAR_2_CountsTo_Volts
 1236              		.text
 1237              	.Letext0:
 1238              		.file 2 "Generated_Source\\PSoC5\\cytypes.h"