ARM GAS  C:\Users\KJA\AppData\Local\Temp\ccpq7VYT.s 			page 1


   1              		.syntax unified
   2              		.cpu cortex-m3
   3              		.fpu softvfp
   4              		.eabi_attribute 20, 1
   5              		.eabi_attribute 21, 1
   6              		.eabi_attribute 23, 3
   7              		.eabi_attribute 24, 1
   8              		.eabi_attribute 25, 1
   9              		.eabi_attribute 26, 1
  10              		.eabi_attribute 30, 6
  11              		.eabi_attribute 34, 1
  12              		.eabi_attribute 18, 4
  13              		.thumb
  14              		.file	"Button4_Reg.c"
  15              		.text
  16              	.Ltext0:
  17              		.cfi_sections	.debug_frame
  18              		.section	.text.Button4_Reg_Read,"ax",%progbits
  19              		.align	2
  20              		.global	Button4_Reg_Read
  21              		.thumb
  22              		.thumb_func
  23              		.type	Button4_Reg_Read, %function
  24              	Button4_Reg_Read:
  25              	.LFB0:
  26              		.file 1 "Generated_Source\\PSoC5\\Button4_Reg.c"
   1:Generated_Source\PSoC5/Button4_Reg.c **** /*******************************************************************************
   2:Generated_Source\PSoC5/Button4_Reg.c **** * File Name: Button4_Reg.c  
   3:Generated_Source\PSoC5/Button4_Reg.c **** * Version 1.90
   4:Generated_Source\PSoC5/Button4_Reg.c **** *
   5:Generated_Source\PSoC5/Button4_Reg.c **** * Description:
   6:Generated_Source\PSoC5/Button4_Reg.c **** *  This file contains API to enable firmware to read the value of a Status 
   7:Generated_Source\PSoC5/Button4_Reg.c **** *  Register.
   8:Generated_Source\PSoC5/Button4_Reg.c **** *
   9:Generated_Source\PSoC5/Button4_Reg.c **** * Note:
  10:Generated_Source\PSoC5/Button4_Reg.c **** *
  11:Generated_Source\PSoC5/Button4_Reg.c **** ********************************************************************************
  12:Generated_Source\PSoC5/Button4_Reg.c **** * Copyright 2008-2015, Cypress Semiconductor Corporation.  All rights reserved.
  13:Generated_Source\PSoC5/Button4_Reg.c **** * You may use this file only in accordance with the license, terms, conditions, 
  14:Generated_Source\PSoC5/Button4_Reg.c **** * disclaimers, and limitations in the end user license agreement accompanying 
  15:Generated_Source\PSoC5/Button4_Reg.c **** * the software package with which this file was provided.
  16:Generated_Source\PSoC5/Button4_Reg.c **** *******************************************************************************/
  17:Generated_Source\PSoC5/Button4_Reg.c **** 
  18:Generated_Source\PSoC5/Button4_Reg.c **** #include "Button4_Reg.h"
  19:Generated_Source\PSoC5/Button4_Reg.c **** 
  20:Generated_Source\PSoC5/Button4_Reg.c **** #if !defined(Button4_Reg_sts_sts_reg__REMOVED) /* Check for removal by optimization */
  21:Generated_Source\PSoC5/Button4_Reg.c **** 
  22:Generated_Source\PSoC5/Button4_Reg.c **** 
  23:Generated_Source\PSoC5/Button4_Reg.c **** /*******************************************************************************
  24:Generated_Source\PSoC5/Button4_Reg.c **** * Function Name: Button4_Reg_Read
  25:Generated_Source\PSoC5/Button4_Reg.c **** ********************************************************************************
  26:Generated_Source\PSoC5/Button4_Reg.c **** *
  27:Generated_Source\PSoC5/Button4_Reg.c **** * Summary:
  28:Generated_Source\PSoC5/Button4_Reg.c **** *  Reads the current value assigned to the Status Register.
  29:Generated_Source\PSoC5/Button4_Reg.c **** *
  30:Generated_Source\PSoC5/Button4_Reg.c **** * Parameters:
  31:Generated_Source\PSoC5/Button4_Reg.c **** *  None.
ARM GAS  C:\Users\KJA\AppData\Local\Temp\ccpq7VYT.s 			page 2


  32:Generated_Source\PSoC5/Button4_Reg.c **** *
  33:Generated_Source\PSoC5/Button4_Reg.c **** * Return:
  34:Generated_Source\PSoC5/Button4_Reg.c **** *  The current value in the Status Register.
  35:Generated_Source\PSoC5/Button4_Reg.c **** *
  36:Generated_Source\PSoC5/Button4_Reg.c **** *******************************************************************************/
  37:Generated_Source\PSoC5/Button4_Reg.c **** uint8 Button4_Reg_Read(void) 
  38:Generated_Source\PSoC5/Button4_Reg.c **** { 
  27              		.loc 1 38 0
  28              		.cfi_startproc
  29              		@ args = 0, pretend = 0, frame = 0
  30              		@ frame_needed = 1, uses_anonymous_args = 0
  31              		@ link register save eliminated.
  32 0000 80B4     		push	{r7}
  33              		.cfi_def_cfa_offset 4
  34              		.cfi_offset 7, -4
  35 0002 00AF     		add	r7, sp, #0
  36              		.cfi_def_cfa_register 7
  39:Generated_Source\PSoC5/Button4_Reg.c ****     return Button4_Reg_Status;
  37              		.loc 1 39 0
  38 0004 034B     		ldr	r3, .L3
  39 0006 1B78     		ldrb	r3, [r3]
  40 0008 DBB2     		uxtb	r3, r3
  40:Generated_Source\PSoC5/Button4_Reg.c **** }
  41              		.loc 1 40 0
  42 000a 1846     		mov	r0, r3
  43 000c BD46     		mov	sp, r7
  44              		.cfi_def_cfa_register 13
  45              		@ sp needed
  46 000e 5DF8047B 		ldr	r7, [sp], #4
  47              		.cfi_restore 7
  48              		.cfi_def_cfa_offset 0
  49 0012 7047     		bx	lr
  50              	.L4:
  51              		.align	2
  52              	.L3:
  53 0014 69640040 		.word	1073767529
  54              		.cfi_endproc
  55              	.LFE0:
  56              		.size	Button4_Reg_Read, .-Button4_Reg_Read
  57              		.section	.text.Button4_Reg_InterruptEnable,"ax",%progbits
  58              		.align	2
  59              		.global	Button4_Reg_InterruptEnable
  60              		.thumb
  61              		.thumb_func
  62              		.type	Button4_Reg_InterruptEnable, %function
  63              	Button4_Reg_InterruptEnable:
  64              	.LFB1:
  41:Generated_Source\PSoC5/Button4_Reg.c **** 
  42:Generated_Source\PSoC5/Button4_Reg.c **** 
  43:Generated_Source\PSoC5/Button4_Reg.c **** /*******************************************************************************
  44:Generated_Source\PSoC5/Button4_Reg.c **** * Function Name: Button4_Reg_InterruptEnable
  45:Generated_Source\PSoC5/Button4_Reg.c **** ********************************************************************************
  46:Generated_Source\PSoC5/Button4_Reg.c **** *
  47:Generated_Source\PSoC5/Button4_Reg.c **** * Summary:
  48:Generated_Source\PSoC5/Button4_Reg.c **** *  Enables the Status Register interrupt.
  49:Generated_Source\PSoC5/Button4_Reg.c **** *
  50:Generated_Source\PSoC5/Button4_Reg.c **** * Parameters:
ARM GAS  C:\Users\KJA\AppData\Local\Temp\ccpq7VYT.s 			page 3


  51:Generated_Source\PSoC5/Button4_Reg.c **** *  None.
  52:Generated_Source\PSoC5/Button4_Reg.c **** *
  53:Generated_Source\PSoC5/Button4_Reg.c **** * Return:
  54:Generated_Source\PSoC5/Button4_Reg.c **** *  None.
  55:Generated_Source\PSoC5/Button4_Reg.c **** *
  56:Generated_Source\PSoC5/Button4_Reg.c **** *******************************************************************************/
  57:Generated_Source\PSoC5/Button4_Reg.c **** void Button4_Reg_InterruptEnable(void) 
  58:Generated_Source\PSoC5/Button4_Reg.c **** {
  65              		.loc 1 58 0
  66              		.cfi_startproc
  67              		@ args = 0, pretend = 0, frame = 8
  68              		@ frame_needed = 1, uses_anonymous_args = 0
  69 0000 80B5     		push	{r7, lr}
  70              		.cfi_def_cfa_offset 8
  71              		.cfi_offset 7, -8
  72              		.cfi_offset 14, -4
  73 0002 82B0     		sub	sp, sp, #8
  74              		.cfi_def_cfa_offset 16
  75 0004 00AF     		add	r7, sp, #0
  76              		.cfi_def_cfa_register 7
  59:Generated_Source\PSoC5/Button4_Reg.c ****     uint8 interruptState;
  60:Generated_Source\PSoC5/Button4_Reg.c ****     interruptState = CyEnterCriticalSection();
  77              		.loc 1 60 0
  78 0006 FFF7FEFF 		bl	CyEnterCriticalSection
  79 000a 0346     		mov	r3, r0
  80 000c FB71     		strb	r3, [r7, #7]
  61:Generated_Source\PSoC5/Button4_Reg.c ****     Button4_Reg_Status_Aux_Ctrl |= Button4_Reg_STATUS_INTR_ENBL;
  81              		.loc 1 61 0
  82 000e 074A     		ldr	r2, .L6
  83 0010 064B     		ldr	r3, .L6
  84 0012 1B78     		ldrb	r3, [r3]
  85 0014 DBB2     		uxtb	r3, r3
  86 0016 43F01003 		orr	r3, r3, #16
  87 001a DBB2     		uxtb	r3, r3
  88 001c 1370     		strb	r3, [r2]
  62:Generated_Source\PSoC5/Button4_Reg.c ****     CyExitCriticalSection(interruptState);
  89              		.loc 1 62 0
  90 001e FB79     		ldrb	r3, [r7, #7]	@ zero_extendqisi2
  91 0020 1846     		mov	r0, r3
  92 0022 FFF7FEFF 		bl	CyExitCriticalSection
  63:Generated_Source\PSoC5/Button4_Reg.c **** }
  93              		.loc 1 63 0
  94 0026 0837     		adds	r7, r7, #8
  95              		.cfi_def_cfa_offset 8
  96 0028 BD46     		mov	sp, r7
  97              		.cfi_def_cfa_register 13
  98              		@ sp needed
  99 002a 80BD     		pop	{r7, pc}
 100              	.L7:
 101              		.align	2
 102              	.L6:
 103 002c 99640040 		.word	1073767577
 104              		.cfi_endproc
 105              	.LFE1:
 106              		.size	Button4_Reg_InterruptEnable, .-Button4_Reg_InterruptEnable
 107              		.section	.text.Button4_Reg_InterruptDisable,"ax",%progbits
 108              		.align	2
ARM GAS  C:\Users\KJA\AppData\Local\Temp\ccpq7VYT.s 			page 4


 109              		.global	Button4_Reg_InterruptDisable
 110              		.thumb
 111              		.thumb_func
 112              		.type	Button4_Reg_InterruptDisable, %function
 113              	Button4_Reg_InterruptDisable:
 114              	.LFB2:
  64:Generated_Source\PSoC5/Button4_Reg.c **** 
  65:Generated_Source\PSoC5/Button4_Reg.c **** 
  66:Generated_Source\PSoC5/Button4_Reg.c **** /*******************************************************************************
  67:Generated_Source\PSoC5/Button4_Reg.c **** * Function Name: Button4_Reg_InterruptDisable
  68:Generated_Source\PSoC5/Button4_Reg.c **** ********************************************************************************
  69:Generated_Source\PSoC5/Button4_Reg.c **** *
  70:Generated_Source\PSoC5/Button4_Reg.c **** * Summary:
  71:Generated_Source\PSoC5/Button4_Reg.c **** *  Disables the Status Register interrupt.
  72:Generated_Source\PSoC5/Button4_Reg.c **** *
  73:Generated_Source\PSoC5/Button4_Reg.c **** * Parameters:
  74:Generated_Source\PSoC5/Button4_Reg.c **** *  None.
  75:Generated_Source\PSoC5/Button4_Reg.c **** *
  76:Generated_Source\PSoC5/Button4_Reg.c **** * Return:
  77:Generated_Source\PSoC5/Button4_Reg.c **** *  None.
  78:Generated_Source\PSoC5/Button4_Reg.c **** *
  79:Generated_Source\PSoC5/Button4_Reg.c **** *******************************************************************************/
  80:Generated_Source\PSoC5/Button4_Reg.c **** void Button4_Reg_InterruptDisable(void) 
  81:Generated_Source\PSoC5/Button4_Reg.c **** {
 115              		.loc 1 81 0
 116              		.cfi_startproc
 117              		@ args = 0, pretend = 0, frame = 8
 118              		@ frame_needed = 1, uses_anonymous_args = 0
 119 0000 80B5     		push	{r7, lr}
 120              		.cfi_def_cfa_offset 8
 121              		.cfi_offset 7, -8
 122              		.cfi_offset 14, -4
 123 0002 82B0     		sub	sp, sp, #8
 124              		.cfi_def_cfa_offset 16
 125 0004 00AF     		add	r7, sp, #0
 126              		.cfi_def_cfa_register 7
  82:Generated_Source\PSoC5/Button4_Reg.c ****     uint8 interruptState;
  83:Generated_Source\PSoC5/Button4_Reg.c ****     interruptState = CyEnterCriticalSection();
 127              		.loc 1 83 0
 128 0006 FFF7FEFF 		bl	CyEnterCriticalSection
 129 000a 0346     		mov	r3, r0
 130 000c FB71     		strb	r3, [r7, #7]
  84:Generated_Source\PSoC5/Button4_Reg.c ****     Button4_Reg_Status_Aux_Ctrl &= (uint8)(~Button4_Reg_STATUS_INTR_ENBL);
 131              		.loc 1 84 0
 132 000e 074A     		ldr	r2, .L9
 133 0010 064B     		ldr	r3, .L9
 134 0012 1B78     		ldrb	r3, [r3]
 135 0014 DBB2     		uxtb	r3, r3
 136 0016 23F01003 		bic	r3, r3, #16
 137 001a DBB2     		uxtb	r3, r3
 138 001c 1370     		strb	r3, [r2]
  85:Generated_Source\PSoC5/Button4_Reg.c ****     CyExitCriticalSection(interruptState);
 139              		.loc 1 85 0
 140 001e FB79     		ldrb	r3, [r7, #7]	@ zero_extendqisi2
 141 0020 1846     		mov	r0, r3
 142 0022 FFF7FEFF 		bl	CyExitCriticalSection
  86:Generated_Source\PSoC5/Button4_Reg.c **** }
ARM GAS  C:\Users\KJA\AppData\Local\Temp\ccpq7VYT.s 			page 5


 143              		.loc 1 86 0
 144 0026 0837     		adds	r7, r7, #8
 145              		.cfi_def_cfa_offset 8
 146 0028 BD46     		mov	sp, r7
 147              		.cfi_def_cfa_register 13
 148              		@ sp needed
 149 002a 80BD     		pop	{r7, pc}
 150              	.L10:
 151              		.align	2
 152              	.L9:
 153 002c 99640040 		.word	1073767577
 154              		.cfi_endproc
 155              	.LFE2:
 156              		.size	Button4_Reg_InterruptDisable, .-Button4_Reg_InterruptDisable
 157              		.section	.text.Button4_Reg_WriteMask,"ax",%progbits
 158              		.align	2
 159              		.global	Button4_Reg_WriteMask
 160              		.thumb
 161              		.thumb_func
 162              		.type	Button4_Reg_WriteMask, %function
 163              	Button4_Reg_WriteMask:
 164              	.LFB3:
  87:Generated_Source\PSoC5/Button4_Reg.c **** 
  88:Generated_Source\PSoC5/Button4_Reg.c **** 
  89:Generated_Source\PSoC5/Button4_Reg.c **** /*******************************************************************************
  90:Generated_Source\PSoC5/Button4_Reg.c **** * Function Name: Button4_Reg_WriteMask
  91:Generated_Source\PSoC5/Button4_Reg.c **** ********************************************************************************
  92:Generated_Source\PSoC5/Button4_Reg.c **** *
  93:Generated_Source\PSoC5/Button4_Reg.c **** * Summary:
  94:Generated_Source\PSoC5/Button4_Reg.c **** *  Writes the current mask value assigned to the Status Register.
  95:Generated_Source\PSoC5/Button4_Reg.c **** *
  96:Generated_Source\PSoC5/Button4_Reg.c **** * Parameters:
  97:Generated_Source\PSoC5/Button4_Reg.c **** *  mask:  Value to write into the mask register.
  98:Generated_Source\PSoC5/Button4_Reg.c **** *
  99:Generated_Source\PSoC5/Button4_Reg.c **** * Return:
 100:Generated_Source\PSoC5/Button4_Reg.c **** *  None.
 101:Generated_Source\PSoC5/Button4_Reg.c **** *
 102:Generated_Source\PSoC5/Button4_Reg.c **** *******************************************************************************/
 103:Generated_Source\PSoC5/Button4_Reg.c **** void Button4_Reg_WriteMask(uint8 mask) 
 104:Generated_Source\PSoC5/Button4_Reg.c **** {
 165              		.loc 1 104 0
 166              		.cfi_startproc
 167              		@ args = 0, pretend = 0, frame = 8
 168              		@ frame_needed = 1, uses_anonymous_args = 0
 169              		@ link register save eliminated.
 170 0000 80B4     		push	{r7}
 171              		.cfi_def_cfa_offset 4
 172              		.cfi_offset 7, -4
 173 0002 83B0     		sub	sp, sp, #12
 174              		.cfi_def_cfa_offset 16
 175 0004 00AF     		add	r7, sp, #0
 176              		.cfi_def_cfa_register 7
 177 0006 0346     		mov	r3, r0
 178 0008 FB71     		strb	r3, [r7, #7]
 105:Generated_Source\PSoC5/Button4_Reg.c ****     #if(Button4_Reg_INPUTS < 8u)
 106:Generated_Source\PSoC5/Button4_Reg.c ****     	mask &= ((uint8)(1u << Button4_Reg_INPUTS) - 1u);
 179              		.loc 1 106 0
ARM GAS  C:\Users\KJA\AppData\Local\Temp\ccpq7VYT.s 			page 6


 180 000a FB79     		ldrb	r3, [r7, #7]
 181 000c 03F00103 		and	r3, r3, #1
 182 0010 FB71     		strb	r3, [r7, #7]
 107:Generated_Source\PSoC5/Button4_Reg.c **** 	#endif /* End Button4_Reg_INPUTS < 8u */
 108:Generated_Source\PSoC5/Button4_Reg.c ****     Button4_Reg_Status_Mask = mask;
 183              		.loc 1 108 0
 184 0012 044A     		ldr	r2, .L12
 185 0014 FB79     		ldrb	r3, [r7, #7]
 186 0016 1370     		strb	r3, [r2]
 109:Generated_Source\PSoC5/Button4_Reg.c **** }
 187              		.loc 1 109 0
 188 0018 0C37     		adds	r7, r7, #12
 189              		.cfi_def_cfa_offset 4
 190 001a BD46     		mov	sp, r7
 191              		.cfi_def_cfa_register 13
 192              		@ sp needed
 193 001c 5DF8047B 		ldr	r7, [sp], #4
 194              		.cfi_restore 7
 195              		.cfi_def_cfa_offset 0
 196 0020 7047     		bx	lr
 197              	.L13:
 198 0022 00BF     		.align	2
 199              	.L12:
 200 0024 89640040 		.word	1073767561
 201              		.cfi_endproc
 202              	.LFE3:
 203              		.size	Button4_Reg_WriteMask, .-Button4_Reg_WriteMask
 204              		.section	.text.Button4_Reg_ReadMask,"ax",%progbits
 205              		.align	2
 206              		.global	Button4_Reg_ReadMask
 207              		.thumb
 208              		.thumb_func
 209              		.type	Button4_Reg_ReadMask, %function
 210              	Button4_Reg_ReadMask:
 211              	.LFB4:
 110:Generated_Source\PSoC5/Button4_Reg.c **** 
 111:Generated_Source\PSoC5/Button4_Reg.c **** 
 112:Generated_Source\PSoC5/Button4_Reg.c **** /*******************************************************************************
 113:Generated_Source\PSoC5/Button4_Reg.c **** * Function Name: Button4_Reg_ReadMask
 114:Generated_Source\PSoC5/Button4_Reg.c **** ********************************************************************************
 115:Generated_Source\PSoC5/Button4_Reg.c **** *
 116:Generated_Source\PSoC5/Button4_Reg.c **** * Summary:
 117:Generated_Source\PSoC5/Button4_Reg.c **** *  Reads the current interrupt mask assigned to the Status Register.
 118:Generated_Source\PSoC5/Button4_Reg.c **** *
 119:Generated_Source\PSoC5/Button4_Reg.c **** * Parameters:
 120:Generated_Source\PSoC5/Button4_Reg.c **** *  None.
 121:Generated_Source\PSoC5/Button4_Reg.c **** *
 122:Generated_Source\PSoC5/Button4_Reg.c **** * Return:
 123:Generated_Source\PSoC5/Button4_Reg.c **** *  The value of the interrupt mask of the Status Register.
 124:Generated_Source\PSoC5/Button4_Reg.c **** *
 125:Generated_Source\PSoC5/Button4_Reg.c **** *******************************************************************************/
 126:Generated_Source\PSoC5/Button4_Reg.c **** uint8 Button4_Reg_ReadMask(void) 
 127:Generated_Source\PSoC5/Button4_Reg.c **** {
 212              		.loc 1 127 0
 213              		.cfi_startproc
 214              		@ args = 0, pretend = 0, frame = 0
 215              		@ frame_needed = 1, uses_anonymous_args = 0
ARM GAS  C:\Users\KJA\AppData\Local\Temp\ccpq7VYT.s 			page 7


 216              		@ link register save eliminated.
 217 0000 80B4     		push	{r7}
 218              		.cfi_def_cfa_offset 4
 219              		.cfi_offset 7, -4
 220 0002 00AF     		add	r7, sp, #0
 221              		.cfi_def_cfa_register 7
 128:Generated_Source\PSoC5/Button4_Reg.c ****     return Button4_Reg_Status_Mask;
 222              		.loc 1 128 0
 223 0004 034B     		ldr	r3, .L16
 224 0006 1B78     		ldrb	r3, [r3]
 225 0008 DBB2     		uxtb	r3, r3
 129:Generated_Source\PSoC5/Button4_Reg.c **** }
 226              		.loc 1 129 0
 227 000a 1846     		mov	r0, r3
 228 000c BD46     		mov	sp, r7
 229              		.cfi_def_cfa_register 13
 230              		@ sp needed
 231 000e 5DF8047B 		ldr	r7, [sp], #4
 232              		.cfi_restore 7
 233              		.cfi_def_cfa_offset 0
 234 0012 7047     		bx	lr
 235              	.L17:
 236              		.align	2
 237              	.L16:
 238 0014 89640040 		.word	1073767561
 239              		.cfi_endproc
 240              	.LFE4:
 241              		.size	Button4_Reg_ReadMask, .-Button4_Reg_ReadMask
 242              		.text
 243              	.Letext0:
 244              		.file 2 "Generated_Source\\PSoC5\\cytypes.h"