ARM GAS  C:\Users\Shiguruy\AppData\Local\Temp\cc80dKKp.s 			page 1


   1              		.syntax unified
   2              		.cpu cortex-m3
   3              		.fpu softvfp
   4              		.eabi_attribute 20, 1
   5              		.eabi_attribute 21, 1
   6              		.eabi_attribute 23, 3
   7              		.eabi_attribute 24, 1
   8              		.eabi_attribute 25, 1
   9              		.eabi_attribute 26, 1
  10              		.eabi_attribute 30, 6
  11              		.eabi_attribute 34, 1
  12              		.eabi_attribute 18, 4
  13              		.thumb
  14              		.file	"Buzzer_Counter.c"
  15              		.text
  16              	.Ltext0:
  17              		.cfi_sections	.debug_frame
  18              		.global	Buzzer_Counter_initVar
  19              		.bss
  20              		.type	Buzzer_Counter_initVar, %object
  21              		.size	Buzzer_Counter_initVar, 1
  22              	Buzzer_Counter_initVar:
  23 0000 00       		.space	1
  24              		.section	.text.Buzzer_Counter_Init,"ax",%progbits
  25              		.align	2
  26              		.global	Buzzer_Counter_Init
  27              		.thumb
  28              		.thumb_func
  29              		.type	Buzzer_Counter_Init, %function
  30              	Buzzer_Counter_Init:
  31              	.LFB0:
  32              		.file 1 ".\\Generated_Source\\PSoC5\\Buzzer_Counter.c"
   1:.\Generated_Source\PSoC5/Buzzer_Counter.c **** /*******************************************************************************
   2:.\Generated_Source\PSoC5/Buzzer_Counter.c **** * File Name: Buzzer_Counter.c  
   3:.\Generated_Source\PSoC5/Buzzer_Counter.c **** * Version 3.0
   4:.\Generated_Source\PSoC5/Buzzer_Counter.c **** *
   5:.\Generated_Source\PSoC5/Buzzer_Counter.c **** *  Description:
   6:.\Generated_Source\PSoC5/Buzzer_Counter.c **** *     The Counter component consists of a 8, 16, 24 or 32-bit counter with
   7:.\Generated_Source\PSoC5/Buzzer_Counter.c **** *     a selectable period between 2 and 2^Width - 1.  
   8:.\Generated_Source\PSoC5/Buzzer_Counter.c **** *
   9:.\Generated_Source\PSoC5/Buzzer_Counter.c **** *   Note:
  10:.\Generated_Source\PSoC5/Buzzer_Counter.c **** *     None
  11:.\Generated_Source\PSoC5/Buzzer_Counter.c **** *
  12:.\Generated_Source\PSoC5/Buzzer_Counter.c **** ********************************************************************************
  13:.\Generated_Source\PSoC5/Buzzer_Counter.c **** * Copyright 2008-2012, Cypress Semiconductor Corporation.  All rights reserved.
  14:.\Generated_Source\PSoC5/Buzzer_Counter.c **** * You may use this file only in accordance with the license, terms, conditions, 
  15:.\Generated_Source\PSoC5/Buzzer_Counter.c **** * disclaimers, and limitations in the end user license agreement accompanying 
  16:.\Generated_Source\PSoC5/Buzzer_Counter.c **** * the software package with which this file was provided.
  17:.\Generated_Source\PSoC5/Buzzer_Counter.c **** *******************************************************************************/
  18:.\Generated_Source\PSoC5/Buzzer_Counter.c **** 
  19:.\Generated_Source\PSoC5/Buzzer_Counter.c **** #include "Buzzer_Counter.h"
  20:.\Generated_Source\PSoC5/Buzzer_Counter.c **** 
  21:.\Generated_Source\PSoC5/Buzzer_Counter.c **** uint8 Buzzer_Counter_initVar = 0u;
  22:.\Generated_Source\PSoC5/Buzzer_Counter.c **** 
  23:.\Generated_Source\PSoC5/Buzzer_Counter.c **** 
  24:.\Generated_Source\PSoC5/Buzzer_Counter.c **** /*******************************************************************************
  25:.\Generated_Source\PSoC5/Buzzer_Counter.c **** * Function Name: Buzzer_Counter_Init
ARM GAS  C:\Users\Shiguruy\AppData\Local\Temp\cc80dKKp.s 			page 2


  26:.\Generated_Source\PSoC5/Buzzer_Counter.c **** ********************************************************************************
  27:.\Generated_Source\PSoC5/Buzzer_Counter.c **** * Summary:
  28:.\Generated_Source\PSoC5/Buzzer_Counter.c **** *     Initialize to the schematic state
  29:.\Generated_Source\PSoC5/Buzzer_Counter.c **** * 
  30:.\Generated_Source\PSoC5/Buzzer_Counter.c **** * Parameters:  
  31:.\Generated_Source\PSoC5/Buzzer_Counter.c **** *  void  
  32:.\Generated_Source\PSoC5/Buzzer_Counter.c **** *
  33:.\Generated_Source\PSoC5/Buzzer_Counter.c **** * Return: 
  34:.\Generated_Source\PSoC5/Buzzer_Counter.c **** *  void
  35:.\Generated_Source\PSoC5/Buzzer_Counter.c **** *
  36:.\Generated_Source\PSoC5/Buzzer_Counter.c **** *******************************************************************************/
  37:.\Generated_Source\PSoC5/Buzzer_Counter.c **** void Buzzer_Counter_Init(void) 
  38:.\Generated_Source\PSoC5/Buzzer_Counter.c **** {
  33              		.loc 1 38 0
  34              		.cfi_startproc
  35              		@ args = 0, pretend = 0, frame = 0
  36              		@ frame_needed = 1, uses_anonymous_args = 0
  37 0000 80B5     		push	{r7, lr}
  38              		.cfi_def_cfa_offset 8
  39              		.cfi_offset 7, -8
  40              		.cfi_offset 14, -4
  41 0002 00AF     		add	r7, sp, #0
  42              		.cfi_def_cfa_register 7
  39:.\Generated_Source\PSoC5/Buzzer_Counter.c ****         #if (!Buzzer_Counter_UsingFixedFunction && !Buzzer_Counter_ControlRegRemoved)
  40:.\Generated_Source\PSoC5/Buzzer_Counter.c ****             uint8 ctrl;
  41:.\Generated_Source\PSoC5/Buzzer_Counter.c ****         #endif /* (!Buzzer_Counter_UsingFixedFunction && !Buzzer_Counter_ControlRegRemoved) */
  42:.\Generated_Source\PSoC5/Buzzer_Counter.c ****         
  43:.\Generated_Source\PSoC5/Buzzer_Counter.c ****         #if(!Buzzer_Counter_UsingFixedFunction) 
  44:.\Generated_Source\PSoC5/Buzzer_Counter.c ****             /* Interrupt State Backup for Critical Region*/
  45:.\Generated_Source\PSoC5/Buzzer_Counter.c ****             uint8 Buzzer_Counter_interruptState;
  46:.\Generated_Source\PSoC5/Buzzer_Counter.c ****         #endif /* (!Buzzer_Counter_UsingFixedFunction) */
  47:.\Generated_Source\PSoC5/Buzzer_Counter.c ****         
  48:.\Generated_Source\PSoC5/Buzzer_Counter.c ****         #if (Buzzer_Counter_UsingFixedFunction)
  49:.\Generated_Source\PSoC5/Buzzer_Counter.c ****             /* Clear all bits but the enable bit (if it's already set for Timer operation */
  50:.\Generated_Source\PSoC5/Buzzer_Counter.c ****             Buzzer_Counter_CONTROL &= Buzzer_Counter_CTRL_ENABLE;
  43              		.loc 1 50 0
  44 0004 244A     		ldr	r2, .L2
  45 0006 244B     		ldr	r3, .L2
  46 0008 1B78     		ldrb	r3, [r3]
  47 000a DBB2     		uxtb	r3, r3
  48 000c 03F00103 		and	r3, r3, #1
  49 0010 DBB2     		uxtb	r3, r3
  50 0012 1370     		strb	r3, [r2]
  51:.\Generated_Source\PSoC5/Buzzer_Counter.c ****             
  52:.\Generated_Source\PSoC5/Buzzer_Counter.c ****             /* Clear the mode bits for continuous run mode */
  53:.\Generated_Source\PSoC5/Buzzer_Counter.c ****             #if (CY_PSOC5A)
  54:.\Generated_Source\PSoC5/Buzzer_Counter.c ****                 Buzzer_Counter_CONTROL2 &= ((uint8)(~Buzzer_Counter_CTRL_MODE_MASK));
  55:.\Generated_Source\PSoC5/Buzzer_Counter.c ****             #endif /* (CY_PSOC5A) */
  56:.\Generated_Source\PSoC5/Buzzer_Counter.c ****             #if (CY_PSOC3 || CY_PSOC5LP)
  57:.\Generated_Source\PSoC5/Buzzer_Counter.c ****                 Buzzer_Counter_CONTROL3 &= ((uint8)(~Buzzer_Counter_CTRL_MODE_MASK));              
  51              		.loc 1 57 0
  52 0014 214A     		ldr	r2, .L2+4
  53 0016 214B     		ldr	r3, .L2+4
  54 0018 1B78     		ldrb	r3, [r3]
  55 001a DBB2     		uxtb	r3, r3
  56 001c 23F00303 		bic	r3, r3, #3
  57 0020 DBB2     		uxtb	r3, r3
ARM GAS  C:\Users\Shiguruy\AppData\Local\Temp\cc80dKKp.s 			page 3


  58 0022 1370     		strb	r3, [r2]
  58:.\Generated_Source\PSoC5/Buzzer_Counter.c ****             #endif /* (CY_PSOC3 || CY_PSOC5LP) */
  59:.\Generated_Source\PSoC5/Buzzer_Counter.c ****             /* Check if One Shot mode is enabled i.e. RunMode !=0*/
  60:.\Generated_Source\PSoC5/Buzzer_Counter.c ****             #if (Buzzer_Counter_RunModeUsed != 0x0u)
  61:.\Generated_Source\PSoC5/Buzzer_Counter.c ****                 /* Set 3rd bit of Control register to enable one shot mode */
  62:.\Generated_Source\PSoC5/Buzzer_Counter.c ****                 Buzzer_Counter_CONTROL |= Buzzer_Counter_ONESHOT;
  59              		.loc 1 62 0
  60 0024 1C4A     		ldr	r2, .L2
  61 0026 1C4B     		ldr	r3, .L2
  62 0028 1B78     		ldrb	r3, [r3]
  63 002a DBB2     		uxtb	r3, r3
  64 002c 43F00403 		orr	r3, r3, #4
  65 0030 DBB2     		uxtb	r3, r3
  66 0032 1370     		strb	r3, [r2]
  63:.\Generated_Source\PSoC5/Buzzer_Counter.c ****             #endif /* (Buzzer_Counter_RunModeUsed != 0x0u) */
  64:.\Generated_Source\PSoC5/Buzzer_Counter.c ****             
  65:.\Generated_Source\PSoC5/Buzzer_Counter.c ****             /* Set the IRQ to use the status register interrupts */
  66:.\Generated_Source\PSoC5/Buzzer_Counter.c ****             Buzzer_Counter_CONTROL2 |= Buzzer_Counter_CTRL2_IRQ_SEL;
  67              		.loc 1 66 0
  68 0034 1A4A     		ldr	r2, .L2+8
  69 0036 1A4B     		ldr	r3, .L2+8
  70 0038 1B78     		ldrb	r3, [r3]
  71 003a DBB2     		uxtb	r3, r3
  72 003c 43F00103 		orr	r3, r3, #1
  73 0040 DBB2     		uxtb	r3, r3
  74 0042 1370     		strb	r3, [r2]
  67:.\Generated_Source\PSoC5/Buzzer_Counter.c ****             
  68:.\Generated_Source\PSoC5/Buzzer_Counter.c ****             /* Clear and Set SYNCTC and SYNCCMP bits of RT1 register */
  69:.\Generated_Source\PSoC5/Buzzer_Counter.c ****             Buzzer_Counter_RT1 &= ((uint8)(~Buzzer_Counter_RT1_MASK));
  75              		.loc 1 69 0
  76 0044 174A     		ldr	r2, .L2+12
  77 0046 174B     		ldr	r3, .L2+12
  78 0048 1B78     		ldrb	r3, [r3]
  79 004a DBB2     		uxtb	r3, r3
  80 004c 23F03003 		bic	r3, r3, #48
  81 0050 DBB2     		uxtb	r3, r3
  82 0052 1370     		strb	r3, [r2]
  70:.\Generated_Source\PSoC5/Buzzer_Counter.c ****             Buzzer_Counter_RT1 |= Buzzer_Counter_SYNC;     
  83              		.loc 1 70 0
  84 0054 134A     		ldr	r2, .L2+12
  85 0056 134B     		ldr	r3, .L2+12
  86 0058 1B78     		ldrb	r3, [r3]
  87 005a DBB2     		uxtb	r3, r3
  88 005c 43F03003 		orr	r3, r3, #48
  89 0060 DBB2     		uxtb	r3, r3
  90 0062 1370     		strb	r3, [r2]
  71:.\Generated_Source\PSoC5/Buzzer_Counter.c ****                     
  72:.\Generated_Source\PSoC5/Buzzer_Counter.c ****             /*Enable DSI Sync all all inputs of the Timer*/
  73:.\Generated_Source\PSoC5/Buzzer_Counter.c ****             Buzzer_Counter_RT1 &= ((uint8)(~Buzzer_Counter_SYNCDSI_MASK));
  91              		.loc 1 73 0
  92 0064 0F4A     		ldr	r2, .L2+12
  93 0066 0F4B     		ldr	r3, .L2+12
  94 0068 1B78     		ldrb	r3, [r3]
  95 006a DBB2     		uxtb	r3, r3
  96 006c 23F00F03 		bic	r3, r3, #15
  97 0070 DBB2     		uxtb	r3, r3
  98 0072 1370     		strb	r3, [r2]
ARM GAS  C:\Users\Shiguruy\AppData\Local\Temp\cc80dKKp.s 			page 4


  74:.\Generated_Source\PSoC5/Buzzer_Counter.c ****             Buzzer_Counter_RT1 |= Buzzer_Counter_SYNCDSI_EN;
  99              		.loc 1 74 0
 100 0074 0B4A     		ldr	r2, .L2+12
 101 0076 0B4B     		ldr	r3, .L2+12
 102 0078 1B78     		ldrb	r3, [r3]
 103 007a DBB2     		uxtb	r3, r3
 104 007c 43F00F03 		orr	r3, r3, #15
 105 0080 DBB2     		uxtb	r3, r3
 106 0082 1370     		strb	r3, [r2]
  75:.\Generated_Source\PSoC5/Buzzer_Counter.c **** 
  76:.\Generated_Source\PSoC5/Buzzer_Counter.c ****         #else
  77:.\Generated_Source\PSoC5/Buzzer_Counter.c ****             #if(!Buzzer_Counter_ControlRegRemoved)
  78:.\Generated_Source\PSoC5/Buzzer_Counter.c ****             /* Set the default compare mode defined in the parameter */
  79:.\Generated_Source\PSoC5/Buzzer_Counter.c ****             ctrl = Buzzer_Counter_CONTROL & ((uint8)(~Buzzer_Counter_CTRL_CMPMODE_MASK));
  80:.\Generated_Source\PSoC5/Buzzer_Counter.c ****             Buzzer_Counter_CONTROL = ctrl | Buzzer_Counter_DEFAULT_COMPARE_MODE;
  81:.\Generated_Source\PSoC5/Buzzer_Counter.c ****             
  82:.\Generated_Source\PSoC5/Buzzer_Counter.c ****             /* Set the default capture mode defined in the parameter */
  83:.\Generated_Source\PSoC5/Buzzer_Counter.c ****             ctrl = Buzzer_Counter_CONTROL & ((uint8)(~Buzzer_Counter_CTRL_CAPMODE_MASK));
  84:.\Generated_Source\PSoC5/Buzzer_Counter.c ****             
  85:.\Generated_Source\PSoC5/Buzzer_Counter.c ****             #if( 0 != Buzzer_Counter_CAPTURE_MODE_CONF)
  86:.\Generated_Source\PSoC5/Buzzer_Counter.c ****                 Buzzer_Counter_CONTROL = ctrl | Buzzer_Counter_DEFAULT_CAPTURE_MODE;
  87:.\Generated_Source\PSoC5/Buzzer_Counter.c ****             #else
  88:.\Generated_Source\PSoC5/Buzzer_Counter.c ****                 Buzzer_Counter_CONTROL = ctrl;
  89:.\Generated_Source\PSoC5/Buzzer_Counter.c ****             #endif /* 0 != Buzzer_Counter_CAPTURE_MODE */ 
  90:.\Generated_Source\PSoC5/Buzzer_Counter.c ****             
  91:.\Generated_Source\PSoC5/Buzzer_Counter.c ****             #endif /* (!Buzzer_Counter_ControlRegRemoved) */
  92:.\Generated_Source\PSoC5/Buzzer_Counter.c ****         #endif /* (Buzzer_Counter_UsingFixedFunction) */
  93:.\Generated_Source\PSoC5/Buzzer_Counter.c ****         
  94:.\Generated_Source\PSoC5/Buzzer_Counter.c ****         /* Clear all data in the FIFO's */
  95:.\Generated_Source\PSoC5/Buzzer_Counter.c ****         #if (!Buzzer_Counter_UsingFixedFunction)
  96:.\Generated_Source\PSoC5/Buzzer_Counter.c ****             Buzzer_Counter_ClearFIFO();
  97:.\Generated_Source\PSoC5/Buzzer_Counter.c ****         #endif /* (!Buzzer_Counter_UsingFixedFunction) */
  98:.\Generated_Source\PSoC5/Buzzer_Counter.c ****         
  99:.\Generated_Source\PSoC5/Buzzer_Counter.c ****         /* Set Initial values from Configuration */
 100:.\Generated_Source\PSoC5/Buzzer_Counter.c ****         Buzzer_Counter_WritePeriod(Buzzer_Counter_INIT_PERIOD_VALUE);
 107              		.loc 1 100 0
 108 0084 FF20     		movs	r0, #255
 109 0086 FFF7FEFF 		bl	Buzzer_Counter_WritePeriod
 101:.\Generated_Source\PSoC5/Buzzer_Counter.c ****         #if (!(Buzzer_Counter_UsingFixedFunction && (CY_PSOC5A)))
 102:.\Generated_Source\PSoC5/Buzzer_Counter.c ****             Buzzer_Counter_WriteCounter(Buzzer_Counter_INIT_COUNTER_VALUE);
 110              		.loc 1 102 0
 111 008a FF20     		movs	r0, #255
 112 008c FFF7FEFF 		bl	Buzzer_Counter_WriteCounter
 103:.\Generated_Source\PSoC5/Buzzer_Counter.c ****         #endif /* (!(Buzzer_Counter_UsingFixedFunction && (CY_PSOC5A))) */
 104:.\Generated_Source\PSoC5/Buzzer_Counter.c ****         Buzzer_Counter_SetInterruptMode(Buzzer_Counter_INIT_INTERRUPTS_MASK);
 113              		.loc 1 104 0
 114 0090 0020     		movs	r0, #0
 115 0092 FFF7FEFF 		bl	Buzzer_Counter_SetInterruptMode
 105:.\Generated_Source\PSoC5/Buzzer_Counter.c ****         
 106:.\Generated_Source\PSoC5/Buzzer_Counter.c ****         #if (!Buzzer_Counter_UsingFixedFunction)
 107:.\Generated_Source\PSoC5/Buzzer_Counter.c ****             /* Read the status register to clear the unwanted interrupts */
 108:.\Generated_Source\PSoC5/Buzzer_Counter.c ****             (void)Buzzer_Counter_ReadStatusRegister();
 109:.\Generated_Source\PSoC5/Buzzer_Counter.c ****             /* Set the compare value (only available to non-fixed function implementation */
 110:.\Generated_Source\PSoC5/Buzzer_Counter.c ****             Buzzer_Counter_WriteCompare(Buzzer_Counter_INIT_COMPARE_VALUE);
 111:.\Generated_Source\PSoC5/Buzzer_Counter.c ****             /* Use the interrupt output of the status register for IRQ output */
 112:.\Generated_Source\PSoC5/Buzzer_Counter.c ****             
 113:.\Generated_Source\PSoC5/Buzzer_Counter.c ****             /* CyEnterCriticalRegion and CyExitCriticalRegion are used to mark following region cri
ARM GAS  C:\Users\Shiguruy\AppData\Local\Temp\cc80dKKp.s 			page 5


 114:.\Generated_Source\PSoC5/Buzzer_Counter.c ****             /* Enter Critical Region*/
 115:.\Generated_Source\PSoC5/Buzzer_Counter.c ****             Buzzer_Counter_interruptState = CyEnterCriticalSection();
 116:.\Generated_Source\PSoC5/Buzzer_Counter.c ****             
 117:.\Generated_Source\PSoC5/Buzzer_Counter.c ****             Buzzer_Counter_STATUS_AUX_CTRL |= Buzzer_Counter_STATUS_ACTL_INT_EN_MASK;
 118:.\Generated_Source\PSoC5/Buzzer_Counter.c ****             
 119:.\Generated_Source\PSoC5/Buzzer_Counter.c ****             /* Exit Critical Region*/
 120:.\Generated_Source\PSoC5/Buzzer_Counter.c ****             CyExitCriticalSection(Buzzer_Counter_interruptState);
 121:.\Generated_Source\PSoC5/Buzzer_Counter.c ****             
 122:.\Generated_Source\PSoC5/Buzzer_Counter.c ****         #endif /* (!Buzzer_Counter_UsingFixedFunction) */
 123:.\Generated_Source\PSoC5/Buzzer_Counter.c **** }
 116              		.loc 1 123 0
 117 0096 80BD     		pop	{r7, pc}
 118              	.L3:
 119              		.align	2
 120              	.L2:
 121 0098 004F0040 		.word	1073762048
 122 009c 024F0040 		.word	1073762050
 123 00a0 014F0040 		.word	1073762049
 124 00a4 0B4F0040 		.word	1073762059
 125              		.cfi_endproc
 126              	.LFE0:
 127              		.size	Buzzer_Counter_Init, .-Buzzer_Counter_Init
 128              		.section	.text.Buzzer_Counter_Enable,"ax",%progbits
 129              		.align	2
 130              		.global	Buzzer_Counter_Enable
 131              		.thumb
 132              		.thumb_func
 133              		.type	Buzzer_Counter_Enable, %function
 134              	Buzzer_Counter_Enable:
 135              	.LFB1:
 124:.\Generated_Source\PSoC5/Buzzer_Counter.c **** 
 125:.\Generated_Source\PSoC5/Buzzer_Counter.c **** 
 126:.\Generated_Source\PSoC5/Buzzer_Counter.c **** /*******************************************************************************
 127:.\Generated_Source\PSoC5/Buzzer_Counter.c **** * Function Name: Buzzer_Counter_Enable
 128:.\Generated_Source\PSoC5/Buzzer_Counter.c **** ********************************************************************************
 129:.\Generated_Source\PSoC5/Buzzer_Counter.c **** * Summary:
 130:.\Generated_Source\PSoC5/Buzzer_Counter.c **** *     Enable the Counter
 131:.\Generated_Source\PSoC5/Buzzer_Counter.c **** * 
 132:.\Generated_Source\PSoC5/Buzzer_Counter.c **** * Parameters:  
 133:.\Generated_Source\PSoC5/Buzzer_Counter.c **** *  void  
 134:.\Generated_Source\PSoC5/Buzzer_Counter.c **** *
 135:.\Generated_Source\PSoC5/Buzzer_Counter.c **** * Return: 
 136:.\Generated_Source\PSoC5/Buzzer_Counter.c **** *  void
 137:.\Generated_Source\PSoC5/Buzzer_Counter.c **** *
 138:.\Generated_Source\PSoC5/Buzzer_Counter.c **** * Side Effects: 
 139:.\Generated_Source\PSoC5/Buzzer_Counter.c **** *   If the Enable mode is set to Hardware only then this function has no effect 
 140:.\Generated_Source\PSoC5/Buzzer_Counter.c **** *   on the operation of the counter.
 141:.\Generated_Source\PSoC5/Buzzer_Counter.c **** *
 142:.\Generated_Source\PSoC5/Buzzer_Counter.c **** *******************************************************************************/
 143:.\Generated_Source\PSoC5/Buzzer_Counter.c **** void Buzzer_Counter_Enable(void) 
 144:.\Generated_Source\PSoC5/Buzzer_Counter.c **** {
 136              		.loc 1 144 0
 137              		.cfi_startproc
 138              		@ args = 0, pretend = 0, frame = 0
 139              		@ frame_needed = 1, uses_anonymous_args = 0
 140              		@ link register save eliminated.
 141 0000 80B4     		push	{r7}
ARM GAS  C:\Users\Shiguruy\AppData\Local\Temp\cc80dKKp.s 			page 6


 142              		.cfi_def_cfa_offset 4
 143              		.cfi_offset 7, -4
 144 0002 00AF     		add	r7, sp, #0
 145              		.cfi_def_cfa_register 7
 145:.\Generated_Source\PSoC5/Buzzer_Counter.c ****     /* Globally Enable the Fixed Function Block chosen */
 146:.\Generated_Source\PSoC5/Buzzer_Counter.c ****     #if (Buzzer_Counter_UsingFixedFunction)
 147:.\Generated_Source\PSoC5/Buzzer_Counter.c ****         Buzzer_Counter_GLOBAL_ENABLE |= Buzzer_Counter_BLOCK_EN_MASK;
 146              		.loc 1 147 0
 147 0004 0D4A     		ldr	r2, .L5
 148 0006 0D4B     		ldr	r3, .L5
 149 0008 1B78     		ldrb	r3, [r3]
 150 000a DBB2     		uxtb	r3, r3
 151 000c 43F00103 		orr	r3, r3, #1
 152 0010 DBB2     		uxtb	r3, r3
 153 0012 1370     		strb	r3, [r2]
 148:.\Generated_Source\PSoC5/Buzzer_Counter.c ****         Buzzer_Counter_GLOBAL_STBY_ENABLE |= Buzzer_Counter_BLOCK_STBY_EN_MASK;
 154              		.loc 1 148 0
 155 0014 0A4A     		ldr	r2, .L5+4
 156 0016 0A4B     		ldr	r3, .L5+4
 157 0018 1B78     		ldrb	r3, [r3]
 158 001a DBB2     		uxtb	r3, r3
 159 001c 43F00103 		orr	r3, r3, #1
 160 0020 DBB2     		uxtb	r3, r3
 161 0022 1370     		strb	r3, [r2]
 149:.\Generated_Source\PSoC5/Buzzer_Counter.c ****     #endif /* (Buzzer_Counter_UsingFixedFunction) */  
 150:.\Generated_Source\PSoC5/Buzzer_Counter.c ****         
 151:.\Generated_Source\PSoC5/Buzzer_Counter.c ****     /* Enable the counter from the control register  */
 152:.\Generated_Source\PSoC5/Buzzer_Counter.c ****     /* If Fixed Function then make sure Mode is set correctly */
 153:.\Generated_Source\PSoC5/Buzzer_Counter.c ****     /* else make sure reset is clear */
 154:.\Generated_Source\PSoC5/Buzzer_Counter.c ****     #if(!Buzzer_Counter_ControlRegRemoved || Buzzer_Counter_UsingFixedFunction)
 155:.\Generated_Source\PSoC5/Buzzer_Counter.c ****         Buzzer_Counter_CONTROL |= Buzzer_Counter_CTRL_ENABLE;                
 162              		.loc 1 155 0
 163 0024 074A     		ldr	r2, .L5+8
 164 0026 074B     		ldr	r3, .L5+8
 165 0028 1B78     		ldrb	r3, [r3]
 166 002a DBB2     		uxtb	r3, r3
 167 002c 43F00103 		orr	r3, r3, #1
 168 0030 DBB2     		uxtb	r3, r3
 169 0032 1370     		strb	r3, [r2]
 156:.\Generated_Source\PSoC5/Buzzer_Counter.c ****     #endif /* (!Buzzer_Counter_ControlRegRemoved || Buzzer_Counter_UsingFixedFunction) */
 157:.\Generated_Source\PSoC5/Buzzer_Counter.c ****     
 158:.\Generated_Source\PSoC5/Buzzer_Counter.c **** }
 170              		.loc 1 158 0
 171 0034 BD46     		mov	sp, r7
 172              		.cfi_def_cfa_register 13
 173              		@ sp needed
 174 0036 5DF8047B 		ldr	r7, [sp], #4
 175              		.cfi_restore 7
 176              		.cfi_def_cfa_offset 0
 177 003a 7047     		bx	lr
 178              	.L6:
 179              		.align	2
 180              	.L5:
 181 003c A3430040 		.word	1073759139
 182 0040 B3430040 		.word	1073759155
 183 0044 004F0040 		.word	1073762048
 184              		.cfi_endproc
ARM GAS  C:\Users\Shiguruy\AppData\Local\Temp\cc80dKKp.s 			page 7


 185              	.LFE1:
 186              		.size	Buzzer_Counter_Enable, .-Buzzer_Counter_Enable
 187              		.section	.text.Buzzer_Counter_Start,"ax",%progbits
 188              		.align	2
 189              		.global	Buzzer_Counter_Start
 190              		.thumb
 191              		.thumb_func
 192              		.type	Buzzer_Counter_Start, %function
 193              	Buzzer_Counter_Start:
 194              	.LFB2:
 159:.\Generated_Source\PSoC5/Buzzer_Counter.c **** 
 160:.\Generated_Source\PSoC5/Buzzer_Counter.c **** 
 161:.\Generated_Source\PSoC5/Buzzer_Counter.c **** /*******************************************************************************
 162:.\Generated_Source\PSoC5/Buzzer_Counter.c **** * Function Name: Buzzer_Counter_Start
 163:.\Generated_Source\PSoC5/Buzzer_Counter.c **** ********************************************************************************
 164:.\Generated_Source\PSoC5/Buzzer_Counter.c **** * Summary:
 165:.\Generated_Source\PSoC5/Buzzer_Counter.c **** *  Enables the counter for operation 
 166:.\Generated_Source\PSoC5/Buzzer_Counter.c **** *
 167:.\Generated_Source\PSoC5/Buzzer_Counter.c **** * Parameters:  
 168:.\Generated_Source\PSoC5/Buzzer_Counter.c **** *  void  
 169:.\Generated_Source\PSoC5/Buzzer_Counter.c **** *
 170:.\Generated_Source\PSoC5/Buzzer_Counter.c **** * Return: 
 171:.\Generated_Source\PSoC5/Buzzer_Counter.c **** *  void
 172:.\Generated_Source\PSoC5/Buzzer_Counter.c **** *
 173:.\Generated_Source\PSoC5/Buzzer_Counter.c **** * Global variables:
 174:.\Generated_Source\PSoC5/Buzzer_Counter.c **** *  Buzzer_Counter_initVar: Is modified when this function is called for the  
 175:.\Generated_Source\PSoC5/Buzzer_Counter.c **** *   first time. Is used to ensure that initialization happens only once.
 176:.\Generated_Source\PSoC5/Buzzer_Counter.c **** *
 177:.\Generated_Source\PSoC5/Buzzer_Counter.c **** *******************************************************************************/
 178:.\Generated_Source\PSoC5/Buzzer_Counter.c **** void Buzzer_Counter_Start(void) 
 179:.\Generated_Source\PSoC5/Buzzer_Counter.c **** {
 195              		.loc 1 179 0
 196              		.cfi_startproc
 197              		@ args = 0, pretend = 0, frame = 0
 198              		@ frame_needed = 1, uses_anonymous_args = 0
 199 0000 80B5     		push	{r7, lr}
 200              		.cfi_def_cfa_offset 8
 201              		.cfi_offset 7, -8
 202              		.cfi_offset 14, -4
 203 0002 00AF     		add	r7, sp, #0
 204              		.cfi_def_cfa_register 7
 180:.\Generated_Source\PSoC5/Buzzer_Counter.c ****     if(Buzzer_Counter_initVar == 0u)
 205              		.loc 1 180 0
 206 0004 054B     		ldr	r3, .L9
 207 0006 1B78     		ldrb	r3, [r3]	@ zero_extendqisi2
 208 0008 002B     		cmp	r3, #0
 209 000a 04D1     		bne	.L8
 181:.\Generated_Source\PSoC5/Buzzer_Counter.c ****     {
 182:.\Generated_Source\PSoC5/Buzzer_Counter.c ****         Buzzer_Counter_Init();
 210              		.loc 1 182 0
 211 000c FFF7FEFF 		bl	Buzzer_Counter_Init
 183:.\Generated_Source\PSoC5/Buzzer_Counter.c ****         
 184:.\Generated_Source\PSoC5/Buzzer_Counter.c ****         Buzzer_Counter_initVar = 1u; /* Clear this bit for Initialization */        
 212              		.loc 1 184 0
 213 0010 024B     		ldr	r3, .L9
 214 0012 0122     		movs	r2, #1
 215 0014 1A70     		strb	r2, [r3]
ARM GAS  C:\Users\Shiguruy\AppData\Local\Temp\cc80dKKp.s 			page 8


 216              	.L8:
 185:.\Generated_Source\PSoC5/Buzzer_Counter.c ****     }
 186:.\Generated_Source\PSoC5/Buzzer_Counter.c ****     
 187:.\Generated_Source\PSoC5/Buzzer_Counter.c ****     /* Enable the Counter */
 188:.\Generated_Source\PSoC5/Buzzer_Counter.c ****     Buzzer_Counter_Enable();        
 217              		.loc 1 188 0
 218 0016 FFF7FEFF 		bl	Buzzer_Counter_Enable
 189:.\Generated_Source\PSoC5/Buzzer_Counter.c **** }
 219              		.loc 1 189 0
 220 001a 80BD     		pop	{r7, pc}
 221              	.L10:
 222              		.align	2
 223              	.L9:
 224 001c 00000000 		.word	Buzzer_Counter_initVar
 225              		.cfi_endproc
 226              	.LFE2:
 227              		.size	Buzzer_Counter_Start, .-Buzzer_Counter_Start
 228              		.section	.text.Buzzer_Counter_Stop,"ax",%progbits
 229              		.align	2
 230              		.global	Buzzer_Counter_Stop
 231              		.thumb
 232              		.thumb_func
 233              		.type	Buzzer_Counter_Stop, %function
 234              	Buzzer_Counter_Stop:
 235              	.LFB3:
 190:.\Generated_Source\PSoC5/Buzzer_Counter.c **** 
 191:.\Generated_Source\PSoC5/Buzzer_Counter.c **** 
 192:.\Generated_Source\PSoC5/Buzzer_Counter.c **** /*******************************************************************************
 193:.\Generated_Source\PSoC5/Buzzer_Counter.c **** * Function Name: Buzzer_Counter_Stop
 194:.\Generated_Source\PSoC5/Buzzer_Counter.c **** ********************************************************************************
 195:.\Generated_Source\PSoC5/Buzzer_Counter.c **** * Summary:
 196:.\Generated_Source\PSoC5/Buzzer_Counter.c **** * Halts the counter, but does not change any modes or disable interrupts.
 197:.\Generated_Source\PSoC5/Buzzer_Counter.c **** *
 198:.\Generated_Source\PSoC5/Buzzer_Counter.c **** * Parameters:  
 199:.\Generated_Source\PSoC5/Buzzer_Counter.c **** *  void  
 200:.\Generated_Source\PSoC5/Buzzer_Counter.c **** *
 201:.\Generated_Source\PSoC5/Buzzer_Counter.c **** * Return: 
 202:.\Generated_Source\PSoC5/Buzzer_Counter.c **** *  void
 203:.\Generated_Source\PSoC5/Buzzer_Counter.c **** *
 204:.\Generated_Source\PSoC5/Buzzer_Counter.c **** * Side Effects: If the Enable mode is set to Hardware only then this function
 205:.\Generated_Source\PSoC5/Buzzer_Counter.c **** *               has no effect on the operation of the counter.
 206:.\Generated_Source\PSoC5/Buzzer_Counter.c **** *
 207:.\Generated_Source\PSoC5/Buzzer_Counter.c **** *******************************************************************************/
 208:.\Generated_Source\PSoC5/Buzzer_Counter.c **** void Buzzer_Counter_Stop(void) 
 209:.\Generated_Source\PSoC5/Buzzer_Counter.c **** {
 236              		.loc 1 209 0
 237              		.cfi_startproc
 238              		@ args = 0, pretend = 0, frame = 0
 239              		@ frame_needed = 1, uses_anonymous_args = 0
 240              		@ link register save eliminated.
 241 0000 80B4     		push	{r7}
 242              		.cfi_def_cfa_offset 4
 243              		.cfi_offset 7, -4
 244 0002 00AF     		add	r7, sp, #0
 245              		.cfi_def_cfa_register 7
 210:.\Generated_Source\PSoC5/Buzzer_Counter.c ****     /* Disable Counter */
 211:.\Generated_Source\PSoC5/Buzzer_Counter.c ****     #if(!Buzzer_Counter_ControlRegRemoved || Buzzer_Counter_UsingFixedFunction)
ARM GAS  C:\Users\Shiguruy\AppData\Local\Temp\cc80dKKp.s 			page 9


 212:.\Generated_Source\PSoC5/Buzzer_Counter.c ****         Buzzer_Counter_CONTROL &= ((uint8)(~Buzzer_Counter_CTRL_ENABLE));        
 246              		.loc 1 212 0
 247 0004 0D4A     		ldr	r2, .L12
 248 0006 0D4B     		ldr	r3, .L12
 249 0008 1B78     		ldrb	r3, [r3]
 250 000a DBB2     		uxtb	r3, r3
 251 000c 23F00103 		bic	r3, r3, #1
 252 0010 DBB2     		uxtb	r3, r3
 253 0012 1370     		strb	r3, [r2]
 213:.\Generated_Source\PSoC5/Buzzer_Counter.c ****     #endif /* (!Buzzer_Counter_ControlRegRemoved || Buzzer_Counter_UsingFixedFunction) */
 214:.\Generated_Source\PSoC5/Buzzer_Counter.c ****     
 215:.\Generated_Source\PSoC5/Buzzer_Counter.c ****     /* Globally disable the Fixed Function Block chosen */
 216:.\Generated_Source\PSoC5/Buzzer_Counter.c ****     #if (Buzzer_Counter_UsingFixedFunction)
 217:.\Generated_Source\PSoC5/Buzzer_Counter.c ****         Buzzer_Counter_GLOBAL_ENABLE &= ((uint8)(~Buzzer_Counter_BLOCK_EN_MASK));
 254              		.loc 1 217 0
 255 0014 0A4A     		ldr	r2, .L12+4
 256 0016 0A4B     		ldr	r3, .L12+4
 257 0018 1B78     		ldrb	r3, [r3]
 258 001a DBB2     		uxtb	r3, r3
 259 001c 23F00103 		bic	r3, r3, #1
 260 0020 DBB2     		uxtb	r3, r3
 261 0022 1370     		strb	r3, [r2]
 218:.\Generated_Source\PSoC5/Buzzer_Counter.c ****         Buzzer_Counter_GLOBAL_STBY_ENABLE &= ((uint8)(~Buzzer_Counter_BLOCK_STBY_EN_MASK));
 262              		.loc 1 218 0
 263 0024 074A     		ldr	r2, .L12+8
 264 0026 074B     		ldr	r3, .L12+8
 265 0028 1B78     		ldrb	r3, [r3]
 266 002a DBB2     		uxtb	r3, r3
 267 002c 23F00103 		bic	r3, r3, #1
 268 0030 DBB2     		uxtb	r3, r3
 269 0032 1370     		strb	r3, [r2]
 219:.\Generated_Source\PSoC5/Buzzer_Counter.c ****     #endif /* (Buzzer_Counter_UsingFixedFunction) */
 220:.\Generated_Source\PSoC5/Buzzer_Counter.c **** }
 270              		.loc 1 220 0
 271 0034 BD46     		mov	sp, r7
 272              		.cfi_def_cfa_register 13
 273              		@ sp needed
 274 0036 5DF8047B 		ldr	r7, [sp], #4
 275              		.cfi_restore 7
 276              		.cfi_def_cfa_offset 0
 277 003a 7047     		bx	lr
 278              	.L13:
 279              		.align	2
 280              	.L12:
 281 003c 004F0040 		.word	1073762048
 282 0040 A3430040 		.word	1073759139
 283 0044 B3430040 		.word	1073759155
 284              		.cfi_endproc
 285              	.LFE3:
 286              		.size	Buzzer_Counter_Stop, .-Buzzer_Counter_Stop
 287              		.section	.text.Buzzer_Counter_SetInterruptMode,"ax",%progbits
 288              		.align	2
 289              		.global	Buzzer_Counter_SetInterruptMode
 290              		.thumb
 291              		.thumb_func
 292              		.type	Buzzer_Counter_SetInterruptMode, %function
 293              	Buzzer_Counter_SetInterruptMode:
ARM GAS  C:\Users\Shiguruy\AppData\Local\Temp\cc80dKKp.s 			page 10


 294              	.LFB4:
 221:.\Generated_Source\PSoC5/Buzzer_Counter.c **** 
 222:.\Generated_Source\PSoC5/Buzzer_Counter.c **** 
 223:.\Generated_Source\PSoC5/Buzzer_Counter.c **** /*******************************************************************************
 224:.\Generated_Source\PSoC5/Buzzer_Counter.c **** * Function Name: Buzzer_Counter_SetInterruptMode
 225:.\Generated_Source\PSoC5/Buzzer_Counter.c **** ********************************************************************************
 226:.\Generated_Source\PSoC5/Buzzer_Counter.c **** * Summary:
 227:.\Generated_Source\PSoC5/Buzzer_Counter.c **** * Configures which interrupt sources are enabled to generate the final interrupt
 228:.\Generated_Source\PSoC5/Buzzer_Counter.c **** *
 229:.\Generated_Source\PSoC5/Buzzer_Counter.c **** * Parameters:  
 230:.\Generated_Source\PSoC5/Buzzer_Counter.c **** *  InterruptsMask: This parameter is an or'd collection of the status bits
 231:.\Generated_Source\PSoC5/Buzzer_Counter.c **** *                   which will be allowed to generate the counters interrupt.   
 232:.\Generated_Source\PSoC5/Buzzer_Counter.c **** *
 233:.\Generated_Source\PSoC5/Buzzer_Counter.c **** * Return: 
 234:.\Generated_Source\PSoC5/Buzzer_Counter.c **** *  void
 235:.\Generated_Source\PSoC5/Buzzer_Counter.c **** *
 236:.\Generated_Source\PSoC5/Buzzer_Counter.c **** *******************************************************************************/
 237:.\Generated_Source\PSoC5/Buzzer_Counter.c **** void Buzzer_Counter_SetInterruptMode(uint8 interruptsMask) 
 238:.\Generated_Source\PSoC5/Buzzer_Counter.c **** {
 295              		.loc 1 238 0
 296              		.cfi_startproc
 297              		@ args = 0, pretend = 0, frame = 8
 298              		@ frame_needed = 1, uses_anonymous_args = 0
 299              		@ link register save eliminated.
 300 0000 80B4     		push	{r7}
 301              		.cfi_def_cfa_offset 4
 302              		.cfi_offset 7, -4
 303 0002 83B0     		sub	sp, sp, #12
 304              		.cfi_def_cfa_offset 16
 305 0004 00AF     		add	r7, sp, #0
 306              		.cfi_def_cfa_register 7
 307 0006 0346     		mov	r3, r0
 308 0008 FB71     		strb	r3, [r7, #7]
 239:.\Generated_Source\PSoC5/Buzzer_Counter.c ****     Buzzer_Counter_STATUS_MASK = interruptsMask;
 309              		.loc 1 239 0
 310 000a 044A     		ldr	r2, .L15
 311 000c FB79     		ldrb	r3, [r7, #7]
 312 000e 1370     		strb	r3, [r2]
 240:.\Generated_Source\PSoC5/Buzzer_Counter.c **** }
 313              		.loc 1 240 0
 314 0010 0C37     		adds	r7, r7, #12
 315              		.cfi_def_cfa_offset 4
 316 0012 BD46     		mov	sp, r7
 317              		.cfi_def_cfa_register 13
 318              		@ sp needed
 319 0014 5DF8047B 		ldr	r7, [sp], #4
 320              		.cfi_restore 7
 321              		.cfi_def_cfa_offset 0
 322 0018 7047     		bx	lr
 323              	.L16:
 324 001a 00BF     		.align	2
 325              	.L15:
 326 001c 034F0040 		.word	1073762051
 327              		.cfi_endproc
 328              	.LFE4:
 329              		.size	Buzzer_Counter_SetInterruptMode, .-Buzzer_Counter_SetInterruptMode
 330              		.section	.text.Buzzer_Counter_ReadStatusRegister,"ax",%progbits
ARM GAS  C:\Users\Shiguruy\AppData\Local\Temp\cc80dKKp.s 			page 11


 331              		.align	2
 332              		.global	Buzzer_Counter_ReadStatusRegister
 333              		.thumb
 334              		.thumb_func
 335              		.type	Buzzer_Counter_ReadStatusRegister, %function
 336              	Buzzer_Counter_ReadStatusRegister:
 337              	.LFB5:
 241:.\Generated_Source\PSoC5/Buzzer_Counter.c **** 
 242:.\Generated_Source\PSoC5/Buzzer_Counter.c **** 
 243:.\Generated_Source\PSoC5/Buzzer_Counter.c **** /*******************************************************************************
 244:.\Generated_Source\PSoC5/Buzzer_Counter.c **** * Function Name: Buzzer_Counter_ReadStatusRegister
 245:.\Generated_Source\PSoC5/Buzzer_Counter.c **** ********************************************************************************
 246:.\Generated_Source\PSoC5/Buzzer_Counter.c **** * Summary:
 247:.\Generated_Source\PSoC5/Buzzer_Counter.c **** *   Reads the status register and returns it's state. This function should use
 248:.\Generated_Source\PSoC5/Buzzer_Counter.c **** *       defined types for the bit-field information as the bits in this
 249:.\Generated_Source\PSoC5/Buzzer_Counter.c **** *       register may be permuteable.
 250:.\Generated_Source\PSoC5/Buzzer_Counter.c **** *
 251:.\Generated_Source\PSoC5/Buzzer_Counter.c **** * Parameters:  
 252:.\Generated_Source\PSoC5/Buzzer_Counter.c **** *  void
 253:.\Generated_Source\PSoC5/Buzzer_Counter.c **** *
 254:.\Generated_Source\PSoC5/Buzzer_Counter.c **** * Return: 
 255:.\Generated_Source\PSoC5/Buzzer_Counter.c **** *  (uint8) The contents of the status register
 256:.\Generated_Source\PSoC5/Buzzer_Counter.c **** *
 257:.\Generated_Source\PSoC5/Buzzer_Counter.c **** * Side Effects:
 258:.\Generated_Source\PSoC5/Buzzer_Counter.c **** *   Status register bits may be clear on read. 
 259:.\Generated_Source\PSoC5/Buzzer_Counter.c **** *
 260:.\Generated_Source\PSoC5/Buzzer_Counter.c **** *******************************************************************************/
 261:.\Generated_Source\PSoC5/Buzzer_Counter.c **** uint8   Buzzer_Counter_ReadStatusRegister(void) 
 262:.\Generated_Source\PSoC5/Buzzer_Counter.c **** {
 338              		.loc 1 262 0
 339              		.cfi_startproc
 340              		@ args = 0, pretend = 0, frame = 0
 341              		@ frame_needed = 1, uses_anonymous_args = 0
 342              		@ link register save eliminated.
 343 0000 80B4     		push	{r7}
 344              		.cfi_def_cfa_offset 4
 345              		.cfi_offset 7, -4
 346 0002 00AF     		add	r7, sp, #0
 347              		.cfi_def_cfa_register 7
 263:.\Generated_Source\PSoC5/Buzzer_Counter.c ****     return Buzzer_Counter_STATUS;
 348              		.loc 1 263 0
 349 0004 034B     		ldr	r3, .L19
 350 0006 1B78     		ldrb	r3, [r3]
 351 0008 DBB2     		uxtb	r3, r3
 264:.\Generated_Source\PSoC5/Buzzer_Counter.c **** }
 352              		.loc 1 264 0
 353 000a 1846     		mov	r0, r3
 354 000c BD46     		mov	sp, r7
 355              		.cfi_def_cfa_register 13
 356              		@ sp needed
 357 000e 5DF8047B 		ldr	r7, [sp], #4
 358              		.cfi_restore 7
 359              		.cfi_def_cfa_offset 0
 360 0012 7047     		bx	lr
 361              	.L20:
 362              		.align	2
 363              	.L19:
ARM GAS  C:\Users\Shiguruy\AppData\Local\Temp\cc80dKKp.s 			page 12


 364 0014 034F0040 		.word	1073762051
 365              		.cfi_endproc
 366              	.LFE5:
 367              		.size	Buzzer_Counter_ReadStatusRegister, .-Buzzer_Counter_ReadStatusRegister
 368              		.section	.text.Buzzer_Counter_ReadControlRegister,"ax",%progbits
 369              		.align	2
 370              		.global	Buzzer_Counter_ReadControlRegister
 371              		.thumb
 372              		.thumb_func
 373              		.type	Buzzer_Counter_ReadControlRegister, %function
 374              	Buzzer_Counter_ReadControlRegister:
 375              	.LFB6:
 265:.\Generated_Source\PSoC5/Buzzer_Counter.c **** 
 266:.\Generated_Source\PSoC5/Buzzer_Counter.c **** 
 267:.\Generated_Source\PSoC5/Buzzer_Counter.c **** #if(!Buzzer_Counter_ControlRegRemoved)
 268:.\Generated_Source\PSoC5/Buzzer_Counter.c **** /*******************************************************************************
 269:.\Generated_Source\PSoC5/Buzzer_Counter.c **** * Function Name: Buzzer_Counter_ReadControlRegister
 270:.\Generated_Source\PSoC5/Buzzer_Counter.c **** ********************************************************************************
 271:.\Generated_Source\PSoC5/Buzzer_Counter.c **** * Summary:
 272:.\Generated_Source\PSoC5/Buzzer_Counter.c **** *   Reads the control register and returns it's state. This function should use
 273:.\Generated_Source\PSoC5/Buzzer_Counter.c **** *       defined types for the bit-field information as the bits in this
 274:.\Generated_Source\PSoC5/Buzzer_Counter.c **** *       register may be permuteable.
 275:.\Generated_Source\PSoC5/Buzzer_Counter.c **** *
 276:.\Generated_Source\PSoC5/Buzzer_Counter.c **** * Parameters:  
 277:.\Generated_Source\PSoC5/Buzzer_Counter.c **** *  void
 278:.\Generated_Source\PSoC5/Buzzer_Counter.c **** *
 279:.\Generated_Source\PSoC5/Buzzer_Counter.c **** * Return: 
 280:.\Generated_Source\PSoC5/Buzzer_Counter.c **** *  (uint8) The contents of the control register
 281:.\Generated_Source\PSoC5/Buzzer_Counter.c **** *
 282:.\Generated_Source\PSoC5/Buzzer_Counter.c **** *******************************************************************************/
 283:.\Generated_Source\PSoC5/Buzzer_Counter.c **** uint8   Buzzer_Counter_ReadControlRegister(void) 
 284:.\Generated_Source\PSoC5/Buzzer_Counter.c **** {
 376              		.loc 1 284 0
 377              		.cfi_startproc
 378              		@ args = 0, pretend = 0, frame = 0
 379              		@ frame_needed = 1, uses_anonymous_args = 0
 380              		@ link register save eliminated.
 381 0000 80B4     		push	{r7}
 382              		.cfi_def_cfa_offset 4
 383              		.cfi_offset 7, -4
 384 0002 00AF     		add	r7, sp, #0
 385              		.cfi_def_cfa_register 7
 285:.\Generated_Source\PSoC5/Buzzer_Counter.c ****     return Buzzer_Counter_CONTROL;
 386              		.loc 1 285 0
 387 0004 034B     		ldr	r3, .L23
 388 0006 1B78     		ldrb	r3, [r3]
 389 0008 DBB2     		uxtb	r3, r3
 286:.\Generated_Source\PSoC5/Buzzer_Counter.c **** }
 390              		.loc 1 286 0
 391 000a 1846     		mov	r0, r3
 392 000c BD46     		mov	sp, r7
 393              		.cfi_def_cfa_register 13
 394              		@ sp needed
 395 000e 5DF8047B 		ldr	r7, [sp], #4
 396              		.cfi_restore 7
 397              		.cfi_def_cfa_offset 0
 398 0012 7047     		bx	lr
ARM GAS  C:\Users\Shiguruy\AppData\Local\Temp\cc80dKKp.s 			page 13


 399              	.L24:
 400              		.align	2
 401              	.L23:
 402 0014 004F0040 		.word	1073762048
 403              		.cfi_endproc
 404              	.LFE6:
 405              		.size	Buzzer_Counter_ReadControlRegister, .-Buzzer_Counter_ReadControlRegister
 406              		.section	.text.Buzzer_Counter_WriteControlRegister,"ax",%progbits
 407              		.align	2
 408              		.global	Buzzer_Counter_WriteControlRegister
 409              		.thumb
 410              		.thumb_func
 411              		.type	Buzzer_Counter_WriteControlRegister, %function
 412              	Buzzer_Counter_WriteControlRegister:
 413              	.LFB7:
 287:.\Generated_Source\PSoC5/Buzzer_Counter.c **** 
 288:.\Generated_Source\PSoC5/Buzzer_Counter.c **** 
 289:.\Generated_Source\PSoC5/Buzzer_Counter.c **** /*******************************************************************************
 290:.\Generated_Source\PSoC5/Buzzer_Counter.c **** * Function Name: Buzzer_Counter_WriteControlRegister
 291:.\Generated_Source\PSoC5/Buzzer_Counter.c **** ********************************************************************************
 292:.\Generated_Source\PSoC5/Buzzer_Counter.c **** * Summary:
 293:.\Generated_Source\PSoC5/Buzzer_Counter.c **** *   Sets the bit-field of the control register.  This function should use
 294:.\Generated_Source\PSoC5/Buzzer_Counter.c **** *       defined types for the bit-field information as the bits in this
 295:.\Generated_Source\PSoC5/Buzzer_Counter.c **** *       register may be permuteable.
 296:.\Generated_Source\PSoC5/Buzzer_Counter.c **** *
 297:.\Generated_Source\PSoC5/Buzzer_Counter.c **** * Parameters:  
 298:.\Generated_Source\PSoC5/Buzzer_Counter.c **** *  void
 299:.\Generated_Source\PSoC5/Buzzer_Counter.c **** *
 300:.\Generated_Source\PSoC5/Buzzer_Counter.c **** * Return: 
 301:.\Generated_Source\PSoC5/Buzzer_Counter.c **** *  (uint8) The contents of the control register
 302:.\Generated_Source\PSoC5/Buzzer_Counter.c **** *
 303:.\Generated_Source\PSoC5/Buzzer_Counter.c **** *******************************************************************************/
 304:.\Generated_Source\PSoC5/Buzzer_Counter.c **** void    Buzzer_Counter_WriteControlRegister(uint8 control) 
 305:.\Generated_Source\PSoC5/Buzzer_Counter.c **** {
 414              		.loc 1 305 0
 415              		.cfi_startproc
 416              		@ args = 0, pretend = 0, frame = 8
 417              		@ frame_needed = 1, uses_anonymous_args = 0
 418              		@ link register save eliminated.
 419 0000 80B4     		push	{r7}
 420              		.cfi_def_cfa_offset 4
 421              		.cfi_offset 7, -4
 422 0002 83B0     		sub	sp, sp, #12
 423              		.cfi_def_cfa_offset 16
 424 0004 00AF     		add	r7, sp, #0
 425              		.cfi_def_cfa_register 7
 426 0006 0346     		mov	r3, r0
 427 0008 FB71     		strb	r3, [r7, #7]
 306:.\Generated_Source\PSoC5/Buzzer_Counter.c ****     Buzzer_Counter_CONTROL = control;
 428              		.loc 1 306 0
 429 000a 044A     		ldr	r2, .L26
 430 000c FB79     		ldrb	r3, [r7, #7]
 431 000e 1370     		strb	r3, [r2]
 307:.\Generated_Source\PSoC5/Buzzer_Counter.c **** }
 432              		.loc 1 307 0
 433 0010 0C37     		adds	r7, r7, #12
 434              		.cfi_def_cfa_offset 4
ARM GAS  C:\Users\Shiguruy\AppData\Local\Temp\cc80dKKp.s 			page 14


 435 0012 BD46     		mov	sp, r7
 436              		.cfi_def_cfa_register 13
 437              		@ sp needed
 438 0014 5DF8047B 		ldr	r7, [sp], #4
 439              		.cfi_restore 7
 440              		.cfi_def_cfa_offset 0
 441 0018 7047     		bx	lr
 442              	.L27:
 443 001a 00BF     		.align	2
 444              	.L26:
 445 001c 004F0040 		.word	1073762048
 446              		.cfi_endproc
 447              	.LFE7:
 448              		.size	Buzzer_Counter_WriteControlRegister, .-Buzzer_Counter_WriteControlRegister
 449              		.section	.text.Buzzer_Counter_WriteCounter,"ax",%progbits
 450              		.align	2
 451              		.global	Buzzer_Counter_WriteCounter
 452              		.thumb
 453              		.thumb_func
 454              		.type	Buzzer_Counter_WriteCounter, %function
 455              	Buzzer_Counter_WriteCounter:
 456              	.LFB8:
 308:.\Generated_Source\PSoC5/Buzzer_Counter.c **** 
 309:.\Generated_Source\PSoC5/Buzzer_Counter.c **** #endif  /* (!Buzzer_Counter_ControlRegRemoved) */
 310:.\Generated_Source\PSoC5/Buzzer_Counter.c **** 
 311:.\Generated_Source\PSoC5/Buzzer_Counter.c **** 
 312:.\Generated_Source\PSoC5/Buzzer_Counter.c **** #if (!(Buzzer_Counter_UsingFixedFunction && (CY_PSOC5A)))
 313:.\Generated_Source\PSoC5/Buzzer_Counter.c **** /*******************************************************************************
 314:.\Generated_Source\PSoC5/Buzzer_Counter.c **** * Function Name: Buzzer_Counter_WriteCounter
 315:.\Generated_Source\PSoC5/Buzzer_Counter.c **** ********************************************************************************
 316:.\Generated_Source\PSoC5/Buzzer_Counter.c **** * Summary:
 317:.\Generated_Source\PSoC5/Buzzer_Counter.c **** *   This funtion is used to set the counter to a specific value
 318:.\Generated_Source\PSoC5/Buzzer_Counter.c **** *
 319:.\Generated_Source\PSoC5/Buzzer_Counter.c **** * Parameters:  
 320:.\Generated_Source\PSoC5/Buzzer_Counter.c **** *  counter:  New counter value. 
 321:.\Generated_Source\PSoC5/Buzzer_Counter.c **** *
 322:.\Generated_Source\PSoC5/Buzzer_Counter.c **** * Return: 
 323:.\Generated_Source\PSoC5/Buzzer_Counter.c **** *  void 
 324:.\Generated_Source\PSoC5/Buzzer_Counter.c **** *
 325:.\Generated_Source\PSoC5/Buzzer_Counter.c **** *******************************************************************************/
 326:.\Generated_Source\PSoC5/Buzzer_Counter.c **** void Buzzer_Counter_WriteCounter(uint8 counter) \
 327:.\Generated_Source\PSoC5/Buzzer_Counter.c ****                                    
 328:.\Generated_Source\PSoC5/Buzzer_Counter.c **** {
 457              		.loc 1 328 0
 458              		.cfi_startproc
 459              		@ args = 0, pretend = 0, frame = 8
 460              		@ frame_needed = 1, uses_anonymous_args = 0
 461 0000 80B5     		push	{r7, lr}
 462              		.cfi_def_cfa_offset 8
 463              		.cfi_offset 7, -8
 464              		.cfi_offset 14, -4
 465 0002 82B0     		sub	sp, sp, #8
 466              		.cfi_def_cfa_offset 16
 467 0004 00AF     		add	r7, sp, #0
 468              		.cfi_def_cfa_register 7
 469 0006 0346     		mov	r3, r0
 470 0008 FB71     		strb	r3, [r7, #7]
ARM GAS  C:\Users\Shiguruy\AppData\Local\Temp\cc80dKKp.s 			page 15


 329:.\Generated_Source\PSoC5/Buzzer_Counter.c ****     #if(Buzzer_Counter_UsingFixedFunction)
 330:.\Generated_Source\PSoC5/Buzzer_Counter.c ****         /* assert if block is already enabled */
 331:.\Generated_Source\PSoC5/Buzzer_Counter.c ****         CYASSERT (0u == (Buzzer_Counter_GLOBAL_ENABLE & Buzzer_Counter_BLOCK_EN_MASK));
 471              		.loc 1 331 0
 472 000a 104B     		ldr	r3, .L30
 473 000c 1B78     		ldrb	r3, [r3]
 474 000e DBB2     		uxtb	r3, r3
 475 0010 03F00103 		and	r3, r3, #1
 476 0014 002B     		cmp	r3, #0
 477 0016 02D0     		beq	.L29
 478              		.loc 1 331 0 is_stmt 0 discriminator 1
 479 0018 0020     		movs	r0, #0
 480 001a FFF7FEFF 		bl	CyHalt
 481              	.L29:
 332:.\Generated_Source\PSoC5/Buzzer_Counter.c ****         /* If block is disabled, enable it and then write the counter */
 333:.\Generated_Source\PSoC5/Buzzer_Counter.c ****         Buzzer_Counter_GLOBAL_ENABLE |= Buzzer_Counter_BLOCK_EN_MASK;
 482              		.loc 1 333 0 is_stmt 1
 483 001e 0B4A     		ldr	r2, .L30
 484 0020 0A4B     		ldr	r3, .L30
 485 0022 1B78     		ldrb	r3, [r3]
 486 0024 DBB2     		uxtb	r3, r3
 487 0026 43F00103 		orr	r3, r3, #1
 488 002a DBB2     		uxtb	r3, r3
 489 002c 1370     		strb	r3, [r2]
 334:.\Generated_Source\PSoC5/Buzzer_Counter.c ****         CY_SET_REG16(Buzzer_Counter_COUNTER_LSB_PTR, (uint16)counter);
 490              		.loc 1 334 0
 491 002e 084B     		ldr	r3, .L30+4
 492 0030 FA79     		ldrb	r2, [r7, #7]	@ zero_extendqisi2
 493 0032 92B2     		uxth	r2, r2
 494 0034 1A80     		strh	r2, [r3]	@ movhi
 335:.\Generated_Source\PSoC5/Buzzer_Counter.c ****         Buzzer_Counter_GLOBAL_ENABLE &= ((uint8)(~Buzzer_Counter_BLOCK_EN_MASK));
 495              		.loc 1 335 0
 496 0036 054A     		ldr	r2, .L30
 497 0038 044B     		ldr	r3, .L30
 498 003a 1B78     		ldrb	r3, [r3]
 499 003c DBB2     		uxtb	r3, r3
 500 003e 23F00103 		bic	r3, r3, #1
 501 0042 DBB2     		uxtb	r3, r3
 502 0044 1370     		strb	r3, [r2]
 336:.\Generated_Source\PSoC5/Buzzer_Counter.c ****     #else
 337:.\Generated_Source\PSoC5/Buzzer_Counter.c ****         CY_SET_REG8(Buzzer_Counter_COUNTER_LSB_PTR, counter);
 338:.\Generated_Source\PSoC5/Buzzer_Counter.c ****     #endif /* (Buzzer_Counter_UsingFixedFunction) */
 339:.\Generated_Source\PSoC5/Buzzer_Counter.c **** }
 503              		.loc 1 339 0
 504 0046 0837     		adds	r7, r7, #8
 505              		.cfi_def_cfa_offset 8
 506 0048 BD46     		mov	sp, r7
 507              		.cfi_def_cfa_register 13
 508              		@ sp needed
 509 004a 80BD     		pop	{r7, pc}
 510              	.L31:
 511              		.align	2
 512              	.L30:
 513 004c A3430040 		.word	1073759139
 514 0050 064F0040 		.word	1073762054
 515              		.cfi_endproc
 516              	.LFE8:
ARM GAS  C:\Users\Shiguruy\AppData\Local\Temp\cc80dKKp.s 			page 16


 517              		.size	Buzzer_Counter_WriteCounter, .-Buzzer_Counter_WriteCounter
 518              		.section	.text.Buzzer_Counter_ReadCounter,"ax",%progbits
 519              		.align	2
 520              		.global	Buzzer_Counter_ReadCounter
 521              		.thumb
 522              		.thumb_func
 523              		.type	Buzzer_Counter_ReadCounter, %function
 524              	Buzzer_Counter_ReadCounter:
 525              	.LFB9:
 340:.\Generated_Source\PSoC5/Buzzer_Counter.c **** #endif /* (!(Buzzer_Counter_UsingFixedFunction && (CY_PSOC5A))) */
 341:.\Generated_Source\PSoC5/Buzzer_Counter.c **** 
 342:.\Generated_Source\PSoC5/Buzzer_Counter.c **** 
 343:.\Generated_Source\PSoC5/Buzzer_Counter.c **** /*******************************************************************************
 344:.\Generated_Source\PSoC5/Buzzer_Counter.c **** * Function Name: Buzzer_Counter_ReadCounter
 345:.\Generated_Source\PSoC5/Buzzer_Counter.c **** ********************************************************************************
 346:.\Generated_Source\PSoC5/Buzzer_Counter.c **** * Summary:
 347:.\Generated_Source\PSoC5/Buzzer_Counter.c **** * Returns the current value of the counter.  It doesn't matter
 348:.\Generated_Source\PSoC5/Buzzer_Counter.c **** * if the counter is enabled or running.
 349:.\Generated_Source\PSoC5/Buzzer_Counter.c **** *
 350:.\Generated_Source\PSoC5/Buzzer_Counter.c **** * Parameters:  
 351:.\Generated_Source\PSoC5/Buzzer_Counter.c **** *  void:  
 352:.\Generated_Source\PSoC5/Buzzer_Counter.c **** *
 353:.\Generated_Source\PSoC5/Buzzer_Counter.c **** * Return: 
 354:.\Generated_Source\PSoC5/Buzzer_Counter.c **** *  (uint8) The present value of the counter.
 355:.\Generated_Source\PSoC5/Buzzer_Counter.c **** *
 356:.\Generated_Source\PSoC5/Buzzer_Counter.c **** *******************************************************************************/
 357:.\Generated_Source\PSoC5/Buzzer_Counter.c **** uint8 Buzzer_Counter_ReadCounter(void) 
 358:.\Generated_Source\PSoC5/Buzzer_Counter.c **** {
 526              		.loc 1 358 0
 527              		.cfi_startproc
 528              		@ args = 0, pretend = 0, frame = 0
 529              		@ frame_needed = 1, uses_anonymous_args = 0
 530              		@ link register save eliminated.
 531 0000 80B4     		push	{r7}
 532              		.cfi_def_cfa_offset 4
 533              		.cfi_offset 7, -4
 534 0002 00AF     		add	r7, sp, #0
 535              		.cfi_def_cfa_register 7
 359:.\Generated_Source\PSoC5/Buzzer_Counter.c ****     /* Force capture by reading Accumulator */
 360:.\Generated_Source\PSoC5/Buzzer_Counter.c ****     /* Must first do a software capture to be able to read the counter */
 361:.\Generated_Source\PSoC5/Buzzer_Counter.c ****     /* It is up to the user code to make sure there isn't already captured data in the FIFO */
 362:.\Generated_Source\PSoC5/Buzzer_Counter.c ****     #if(Buzzer_Counter_UsingFixedFunction)
 363:.\Generated_Source\PSoC5/Buzzer_Counter.c **** 		(void)CY_GET_REG16(Buzzer_Counter_COUNTER_LSB_PTR);
 536              		.loc 1 363 0
 537 0004 054B     		ldr	r3, .L34
 538 0006 1B88     		ldrh	r3, [r3]	@ movhi
 364:.\Generated_Source\PSoC5/Buzzer_Counter.c **** 	#else
 365:.\Generated_Source\PSoC5/Buzzer_Counter.c **** 		(void)CY_GET_REG8(Buzzer_Counter_COUNTER_LSB_PTR_8BIT);
 366:.\Generated_Source\PSoC5/Buzzer_Counter.c **** 	#endif/* (Buzzer_Counter_UsingFixedFunction) */
 367:.\Generated_Source\PSoC5/Buzzer_Counter.c ****     
 368:.\Generated_Source\PSoC5/Buzzer_Counter.c ****     /* Read the data from the FIFO (or capture register for Fixed Function)*/
 369:.\Generated_Source\PSoC5/Buzzer_Counter.c ****     #if(Buzzer_Counter_UsingFixedFunction)
 370:.\Generated_Source\PSoC5/Buzzer_Counter.c ****         return ((uint8)CY_GET_REG16(Buzzer_Counter_STATICCOUNT_LSB_PTR));
 539              		.loc 1 370 0
 540 0008 054B     		ldr	r3, .L34+4
 541 000a 1B88     		ldrh	r3, [r3]	@ movhi
 542 000c 9BB2     		uxth	r3, r3
ARM GAS  C:\Users\Shiguruy\AppData\Local\Temp\cc80dKKp.s 			page 17


 543 000e DBB2     		uxtb	r3, r3
 371:.\Generated_Source\PSoC5/Buzzer_Counter.c ****     #else
 372:.\Generated_Source\PSoC5/Buzzer_Counter.c ****         return (CY_GET_REG8(Buzzer_Counter_STATICCOUNT_LSB_PTR));
 373:.\Generated_Source\PSoC5/Buzzer_Counter.c ****     #endif /* (Buzzer_Counter_UsingFixedFunction) */
 374:.\Generated_Source\PSoC5/Buzzer_Counter.c **** }
 544              		.loc 1 374 0
 545 0010 1846     		mov	r0, r3
 546 0012 BD46     		mov	sp, r7
 547              		.cfi_def_cfa_register 13
 548              		@ sp needed
 549 0014 5DF8047B 		ldr	r7, [sp], #4
 550              		.cfi_restore 7
 551              		.cfi_def_cfa_offset 0
 552 0018 7047     		bx	lr
 553              	.L35:
 554 001a 00BF     		.align	2
 555              	.L34:
 556 001c 064F0040 		.word	1073762054
 557 0020 084F0040 		.word	1073762056
 558              		.cfi_endproc
 559              	.LFE9:
 560              		.size	Buzzer_Counter_ReadCounter, .-Buzzer_Counter_ReadCounter
 561              		.section	.text.Buzzer_Counter_ReadCapture,"ax",%progbits
 562              		.align	2
 563              		.global	Buzzer_Counter_ReadCapture
 564              		.thumb
 565              		.thumb_func
 566              		.type	Buzzer_Counter_ReadCapture, %function
 567              	Buzzer_Counter_ReadCapture:
 568              	.LFB10:
 375:.\Generated_Source\PSoC5/Buzzer_Counter.c **** 
 376:.\Generated_Source\PSoC5/Buzzer_Counter.c **** 
 377:.\Generated_Source\PSoC5/Buzzer_Counter.c **** /*******************************************************************************
 378:.\Generated_Source\PSoC5/Buzzer_Counter.c **** * Function Name: Buzzer_Counter_ReadCapture
 379:.\Generated_Source\PSoC5/Buzzer_Counter.c **** ********************************************************************************
 380:.\Generated_Source\PSoC5/Buzzer_Counter.c **** * Summary:
 381:.\Generated_Source\PSoC5/Buzzer_Counter.c **** *   This function returns the last value captured.
 382:.\Generated_Source\PSoC5/Buzzer_Counter.c **** *
 383:.\Generated_Source\PSoC5/Buzzer_Counter.c **** * Parameters:  
 384:.\Generated_Source\PSoC5/Buzzer_Counter.c **** *  void
 385:.\Generated_Source\PSoC5/Buzzer_Counter.c **** *
 386:.\Generated_Source\PSoC5/Buzzer_Counter.c **** * Return: 
 387:.\Generated_Source\PSoC5/Buzzer_Counter.c **** *  (uint8) Present Capture value.
 388:.\Generated_Source\PSoC5/Buzzer_Counter.c **** *
 389:.\Generated_Source\PSoC5/Buzzer_Counter.c **** *******************************************************************************/
 390:.\Generated_Source\PSoC5/Buzzer_Counter.c **** uint8 Buzzer_Counter_ReadCapture(void) 
 391:.\Generated_Source\PSoC5/Buzzer_Counter.c **** {
 569              		.loc 1 391 0
 570              		.cfi_startproc
 571              		@ args = 0, pretend = 0, frame = 0
 572              		@ frame_needed = 1, uses_anonymous_args = 0
 573              		@ link register save eliminated.
 574 0000 80B4     		push	{r7}
 575              		.cfi_def_cfa_offset 4
 576              		.cfi_offset 7, -4
 577 0002 00AF     		add	r7, sp, #0
 578              		.cfi_def_cfa_register 7
ARM GAS  C:\Users\Shiguruy\AppData\Local\Temp\cc80dKKp.s 			page 18


 392:.\Generated_Source\PSoC5/Buzzer_Counter.c ****     #if(Buzzer_Counter_UsingFixedFunction)
 393:.\Generated_Source\PSoC5/Buzzer_Counter.c ****         return ((uint8)CY_GET_REG16(Buzzer_Counter_STATICCOUNT_LSB_PTR));
 579              		.loc 1 393 0
 580 0004 044B     		ldr	r3, .L38
 581 0006 1B88     		ldrh	r3, [r3]	@ movhi
 582 0008 9BB2     		uxth	r3, r3
 583 000a DBB2     		uxtb	r3, r3
 394:.\Generated_Source\PSoC5/Buzzer_Counter.c ****     #else
 395:.\Generated_Source\PSoC5/Buzzer_Counter.c ****         return (CY_GET_REG8(Buzzer_Counter_STATICCOUNT_LSB_PTR));
 396:.\Generated_Source\PSoC5/Buzzer_Counter.c ****     #endif /* (Buzzer_Counter_UsingFixedFunction) */
 397:.\Generated_Source\PSoC5/Buzzer_Counter.c **** }
 584              		.loc 1 397 0
 585 000c 1846     		mov	r0, r3
 586 000e BD46     		mov	sp, r7
 587              		.cfi_def_cfa_register 13
 588              		@ sp needed
 589 0010 5DF8047B 		ldr	r7, [sp], #4
 590              		.cfi_restore 7
 591              		.cfi_def_cfa_offset 0
 592 0014 7047     		bx	lr
 593              	.L39:
 594 0016 00BF     		.align	2
 595              	.L38:
 596 0018 084F0040 		.word	1073762056
 597              		.cfi_endproc
 598              	.LFE10:
 599              		.size	Buzzer_Counter_ReadCapture, .-Buzzer_Counter_ReadCapture
 600              		.section	.text.Buzzer_Counter_WritePeriod,"ax",%progbits
 601              		.align	2
 602              		.global	Buzzer_Counter_WritePeriod
 603              		.thumb
 604              		.thumb_func
 605              		.type	Buzzer_Counter_WritePeriod, %function
 606              	Buzzer_Counter_WritePeriod:
 607              	.LFB11:
 398:.\Generated_Source\PSoC5/Buzzer_Counter.c **** 
 399:.\Generated_Source\PSoC5/Buzzer_Counter.c **** 
 400:.\Generated_Source\PSoC5/Buzzer_Counter.c **** /*******************************************************************************
 401:.\Generated_Source\PSoC5/Buzzer_Counter.c **** * Function Name: Buzzer_Counter_WritePeriod
 402:.\Generated_Source\PSoC5/Buzzer_Counter.c **** ********************************************************************************
 403:.\Generated_Source\PSoC5/Buzzer_Counter.c **** * Summary:
 404:.\Generated_Source\PSoC5/Buzzer_Counter.c **** * Changes the period of the counter.  The new period 
 405:.\Generated_Source\PSoC5/Buzzer_Counter.c **** * will be loaded the next time terminal count is detected.
 406:.\Generated_Source\PSoC5/Buzzer_Counter.c **** *
 407:.\Generated_Source\PSoC5/Buzzer_Counter.c **** * Parameters:  
 408:.\Generated_Source\PSoC5/Buzzer_Counter.c **** *  period: (uint8) A value of 0 will result in
 409:.\Generated_Source\PSoC5/Buzzer_Counter.c **** *         the counter remaining at zero.  
 410:.\Generated_Source\PSoC5/Buzzer_Counter.c **** *
 411:.\Generated_Source\PSoC5/Buzzer_Counter.c **** * Return: 
 412:.\Generated_Source\PSoC5/Buzzer_Counter.c **** *  void
 413:.\Generated_Source\PSoC5/Buzzer_Counter.c **** *
 414:.\Generated_Source\PSoC5/Buzzer_Counter.c **** *******************************************************************************/
 415:.\Generated_Source\PSoC5/Buzzer_Counter.c **** void Buzzer_Counter_WritePeriod(uint8 period) 
 416:.\Generated_Source\PSoC5/Buzzer_Counter.c **** {
 608              		.loc 1 416 0
 609              		.cfi_startproc
 610              		@ args = 0, pretend = 0, frame = 8
ARM GAS  C:\Users\Shiguruy\AppData\Local\Temp\cc80dKKp.s 			page 19


 611              		@ frame_needed = 1, uses_anonymous_args = 0
 612              		@ link register save eliminated.
 613 0000 80B4     		push	{r7}
 614              		.cfi_def_cfa_offset 4
 615              		.cfi_offset 7, -4
 616 0002 83B0     		sub	sp, sp, #12
 617              		.cfi_def_cfa_offset 16
 618 0004 00AF     		add	r7, sp, #0
 619              		.cfi_def_cfa_register 7
 620 0006 0346     		mov	r3, r0
 621 0008 FB71     		strb	r3, [r7, #7]
 417:.\Generated_Source\PSoC5/Buzzer_Counter.c ****     #if(Buzzer_Counter_UsingFixedFunction)
 418:.\Generated_Source\PSoC5/Buzzer_Counter.c ****         CY_SET_REG16(Buzzer_Counter_PERIOD_LSB_PTR,(uint16)period);
 622              		.loc 1 418 0
 623 000a 044B     		ldr	r3, .L41
 624 000c FA79     		ldrb	r2, [r7, #7]	@ zero_extendqisi2
 625 000e 92B2     		uxth	r2, r2
 626 0010 1A80     		strh	r2, [r3]	@ movhi
 419:.\Generated_Source\PSoC5/Buzzer_Counter.c ****     #else
 420:.\Generated_Source\PSoC5/Buzzer_Counter.c ****         CY_SET_REG8(Buzzer_Counter_PERIOD_LSB_PTR, period);
 421:.\Generated_Source\PSoC5/Buzzer_Counter.c ****     #endif /* (Buzzer_Counter_UsingFixedFunction) */
 422:.\Generated_Source\PSoC5/Buzzer_Counter.c **** }
 627              		.loc 1 422 0
 628 0012 0C37     		adds	r7, r7, #12
 629              		.cfi_def_cfa_offset 4
 630 0014 BD46     		mov	sp, r7
 631              		.cfi_def_cfa_register 13
 632              		@ sp needed
 633 0016 5DF8047B 		ldr	r7, [sp], #4
 634              		.cfi_restore 7
 635              		.cfi_def_cfa_offset 0
 636 001a 7047     		bx	lr
 637              	.L42:
 638              		.align	2
 639              	.L41:
 640 001c 044F0040 		.word	1073762052
 641              		.cfi_endproc
 642              	.LFE11:
 643              		.size	Buzzer_Counter_WritePeriod, .-Buzzer_Counter_WritePeriod
 644              		.section	.text.Buzzer_Counter_ReadPeriod,"ax",%progbits
 645              		.align	2
 646              		.global	Buzzer_Counter_ReadPeriod
 647              		.thumb
 648              		.thumb_func
 649              		.type	Buzzer_Counter_ReadPeriod, %function
 650              	Buzzer_Counter_ReadPeriod:
 651              	.LFB12:
 423:.\Generated_Source\PSoC5/Buzzer_Counter.c **** 
 424:.\Generated_Source\PSoC5/Buzzer_Counter.c **** 
 425:.\Generated_Source\PSoC5/Buzzer_Counter.c **** /*******************************************************************************
 426:.\Generated_Source\PSoC5/Buzzer_Counter.c **** * Function Name: Buzzer_Counter_ReadPeriod
 427:.\Generated_Source\PSoC5/Buzzer_Counter.c **** ********************************************************************************
 428:.\Generated_Source\PSoC5/Buzzer_Counter.c **** * Summary:
 429:.\Generated_Source\PSoC5/Buzzer_Counter.c **** * Reads the current period value without affecting counter operation.
 430:.\Generated_Source\PSoC5/Buzzer_Counter.c **** *
 431:.\Generated_Source\PSoC5/Buzzer_Counter.c **** * Parameters:  
 432:.\Generated_Source\PSoC5/Buzzer_Counter.c **** *  void:  
ARM GAS  C:\Users\Shiguruy\AppData\Local\Temp\cc80dKKp.s 			page 20


 433:.\Generated_Source\PSoC5/Buzzer_Counter.c **** *
 434:.\Generated_Source\PSoC5/Buzzer_Counter.c **** * Return: 
 435:.\Generated_Source\PSoC5/Buzzer_Counter.c **** *  (uint8) Present period value.
 436:.\Generated_Source\PSoC5/Buzzer_Counter.c **** *
 437:.\Generated_Source\PSoC5/Buzzer_Counter.c **** *******************************************************************************/
 438:.\Generated_Source\PSoC5/Buzzer_Counter.c **** uint8 Buzzer_Counter_ReadPeriod(void) 
 439:.\Generated_Source\PSoC5/Buzzer_Counter.c **** {
 652              		.loc 1 439 0
 653              		.cfi_startproc
 654              		@ args = 0, pretend = 0, frame = 0
 655              		@ frame_needed = 1, uses_anonymous_args = 0
 656              		@ link register save eliminated.
 657 0000 80B4     		push	{r7}
 658              		.cfi_def_cfa_offset 4
 659              		.cfi_offset 7, -4
 660 0002 00AF     		add	r7, sp, #0
 661              		.cfi_def_cfa_register 7
 440:.\Generated_Source\PSoC5/Buzzer_Counter.c ****     #if(Buzzer_Counter_UsingFixedFunction)
 441:.\Generated_Source\PSoC5/Buzzer_Counter.c ****         return ((uint8)CY_GET_REG16(Buzzer_Counter_PERIOD_LSB_PTR));
 662              		.loc 1 441 0
 663 0004 044B     		ldr	r3, .L45
 664 0006 1B88     		ldrh	r3, [r3]	@ movhi
 665 0008 9BB2     		uxth	r3, r3
 666 000a DBB2     		uxtb	r3, r3
 442:.\Generated_Source\PSoC5/Buzzer_Counter.c ****     #else
 443:.\Generated_Source\PSoC5/Buzzer_Counter.c ****         return (CY_GET_REG8(Buzzer_Counter_PERIOD_LSB_PTR));
 444:.\Generated_Source\PSoC5/Buzzer_Counter.c ****     #endif /* (Buzzer_Counter_UsingFixedFunction) */
 445:.\Generated_Source\PSoC5/Buzzer_Counter.c **** }
 667              		.loc 1 445 0
 668 000c 1846     		mov	r0, r3
 669 000e BD46     		mov	sp, r7
 670              		.cfi_def_cfa_register 13
 671              		@ sp needed
 672 0010 5DF8047B 		ldr	r7, [sp], #4
 673              		.cfi_restore 7
 674              		.cfi_def_cfa_offset 0
 675 0014 7047     		bx	lr
 676              	.L46:
 677 0016 00BF     		.align	2
 678              	.L45:
 679 0018 044F0040 		.word	1073762052
 680              		.cfi_endproc
 681              	.LFE12:
 682              		.size	Buzzer_Counter_ReadPeriod, .-Buzzer_Counter_ReadPeriod
 683              		.text
 684              	.Letext0:
 685              		.file 2 ".\\Generated_Source\\PSoC5\\cytypes.h"