ARM GAS  C:\Users\KJA\AppData\Local\Temp\ccNNA7zi.s 			page 1


   1              		.syntax unified
   2              		.cpu cortex-m3
   3              		.fpu softvfp
   4              		.eabi_attribute 20, 1
   5              		.eabi_attribute 21, 1
   6              		.eabi_attribute 23, 3
   7              		.eabi_attribute 24, 1
   8              		.eabi_attribute 25, 1
   9              		.eabi_attribute 26, 1
  10              		.eabi_attribute 30, 6
  11              		.eabi_attribute 34, 1
  12              		.eabi_attribute 18, 4
  13              		.thumb
  14              		.file	"chessengine.c"
  15              		.text
  16              	.Ltext0:
  17              		.cfi_sections	.debug_frame
  18              		.comm	lrc_u8g,4,4
  19              		.comm	lrc_obj,248,4
  20              		.section	.text.stack_GetCurrElement,"ax",%progbits
  21              		.align	2
  22              		.global	stack_GetCurrElement
  23              		.thumb
  24              		.thumb_func
  25              		.type	stack_GetCurrElement, %function
  26              	stack_GetCurrElement:
  27              	.LFB0:
  28              		.file 1 "u8glib_arm_v1.18.1\\src\\chessengine.c"
   1:u8glib_arm_v1.18.1\src/chessengine.c **** /*
   2:u8glib_arm_v1.18.1\src/chessengine.c ****   chessengine.c
   3:u8glib_arm_v1.18.1\src/chessengine.c ****   
   4:u8glib_arm_v1.18.1\src/chessengine.c ****   "Little Rook Chess" (lrc)
   5:u8glib_arm_v1.18.1\src/chessengine.c **** 
   6:u8glib_arm_v1.18.1\src/chessengine.c ****   Port to u8g library
   7:u8glib_arm_v1.18.1\src/chessengine.c **** 
   8:u8glib_arm_v1.18.1\src/chessengine.c ****   chess for embedded 8-Bit controllers
   9:u8glib_arm_v1.18.1\src/chessengine.c **** 
  10:u8glib_arm_v1.18.1\src/chessengine.c ****   Copyright (c) 2012, olikraus@gmail.com
  11:u8glib_arm_v1.18.1\src/chessengine.c ****   All rights reserved.
  12:u8glib_arm_v1.18.1\src/chessengine.c **** 
  13:u8glib_arm_v1.18.1\src/chessengine.c ****   Redistribution and use in source and binary forms, with or without modification, 
  14:u8glib_arm_v1.18.1\src/chessengine.c ****   are permitted provided that the following conditions are met:
  15:u8glib_arm_v1.18.1\src/chessengine.c **** 
  16:u8glib_arm_v1.18.1\src/chessengine.c ****   * Redistributions of source code must retain the above copyright notice, this list 
  17:u8glib_arm_v1.18.1\src/chessengine.c ****     of conditions and the following disclaimer.
  18:u8glib_arm_v1.18.1\src/chessengine.c ****     
  19:u8glib_arm_v1.18.1\src/chessengine.c ****   * Redistributions in binary form must reproduce the above copyright notice, this 
  20:u8glib_arm_v1.18.1\src/chessengine.c ****     list of conditions and the following disclaimer in the documentation and/or other 
  21:u8glib_arm_v1.18.1\src/chessengine.c ****     materials provided with the distribution.
  22:u8glib_arm_v1.18.1\src/chessengine.c **** 
  23:u8glib_arm_v1.18.1\src/chessengine.c ****   THIS SOFTWARE IS PROVIDED BY THE COPYRIGHT HOLDERS AND 
  24:u8glib_arm_v1.18.1\src/chessengine.c ****   CONTRIBUTORS "AS IS" AND ANY EXPRESS OR IMPLIED WARRANTIES, 
  25:u8glib_arm_v1.18.1\src/chessengine.c ****   INCLUDING, BUT NOT LIMITED TO, THE IMPLIED WARRANTIES OF 
  26:u8glib_arm_v1.18.1\src/chessengine.c ****   MERCHANTABILITY AND FITNESS FOR A PARTICULAR PURPOSE ARE 
  27:u8glib_arm_v1.18.1\src/chessengine.c ****   DISCLAIMED. IN NO EVENT SHALL THE COPYRIGHT HOLDER OR 
  28:u8glib_arm_v1.18.1\src/chessengine.c ****   CONTRIBUTORS BE LIABLE FOR ANY DIRECT, INDIRECT, INCIDENTAL, 
  29:u8glib_arm_v1.18.1\src/chessengine.c ****   SPECIAL, EXEMPLARY, OR CONSEQUENTIAL DAMAGES (INCLUDING, BUT 
ARM GAS  C:\Users\KJA\AppData\Local\Temp\ccNNA7zi.s 			page 2


  30:u8glib_arm_v1.18.1\src/chessengine.c ****   NOT LIMITED TO, PROCUREMENT OF SUBSTITUTE GOODS OR SERVICES; 
  31:u8glib_arm_v1.18.1\src/chessengine.c ****   LOSS OF USE, DATA, OR PROFITS; OR BUSINESS INTERRUPTION) HOWEVER 
  32:u8glib_arm_v1.18.1\src/chessengine.c ****   CAUSED AND ON ANY THEORY OF LIABILITY, WHETHER IN CONTRACT, 
  33:u8glib_arm_v1.18.1\src/chessengine.c ****   STRICT LIABILITY, OR TORT (INCLUDING NEGLIGENCE OR OTHERWISE) 
  34:u8glib_arm_v1.18.1\src/chessengine.c ****   ARISING IN ANY WAY OUT OF THE USE OF THIS SOFTWARE, EVEN IF 
  35:u8glib_arm_v1.18.1\src/chessengine.c ****   ADVISED OF THE POSSIBILITY OF SUCH DAMAGE.  
  36:u8glib_arm_v1.18.1\src/chessengine.c **** 
  37:u8glib_arm_v1.18.1\src/chessengine.c ****   Note:
  38:u8glib_arm_v1.18.1\src/chessengine.c ****     UNIX_MAIN --> unix console executable
  39:u8glib_arm_v1.18.1\src/chessengine.c **** 
  40:u8glib_arm_v1.18.1\src/chessengine.c ****   Current Rule Limitation
  41:u8glib_arm_v1.18.1\src/chessengine.c ****     - no minor promotion, only "Queening" of the pawn
  42:u8glib_arm_v1.18.1\src/chessengine.c ****     - threefold repetition is not detected (same board situation appears three times)
  43:u8glib_arm_v1.18.1\src/chessengine.c **** 	Note: Could be implemented, but requires tracking of the complete game
  44:u8glib_arm_v1.18.1\src/chessengine.c ****     - Fifty-move rule is not checked (no pawn move, no capture within last 50 moves)
  45:u8glib_arm_v1.18.1\src/chessengine.c **** 	
  46:u8glib_arm_v1.18.1\src/chessengine.c ****   Words
  47:u8glib_arm_v1.18.1\src/chessengine.c ****     Ply		a half move
  48:u8glib_arm_v1.18.1\src/chessengine.c ****     
  49:u8glib_arm_v1.18.1\src/chessengine.c ****   General Links
  50:u8glib_arm_v1.18.1\src/chessengine.c ****     http://chessprogramming.wikispaces.com/
  51:u8glib_arm_v1.18.1\src/chessengine.c **** 
  52:u8glib_arm_v1.18.1\src/chessengine.c ****   Arduino specific
  53:u8glib_arm_v1.18.1\src/chessengine.c ****     http://www.arduino.cc/cgi-bin/yabb2/YaBB.pl?num=1260055596
  54:u8glib_arm_v1.18.1\src/chessengine.c ****     
  55:u8glib_arm_v1.18.1\src/chessengine.c ****   Prefixes  
  56:u8glib_arm_v1.18.1\src/chessengine.c ****     chess_		Generic Chess Application Interface
  57:u8glib_arm_v1.18.1\src/chessengine.c ****     ce_		Chess engine, used internally, these function should not be called directly
  58:u8glib_arm_v1.18.1\src/chessengine.c ****     cu_		Chess utility function
  59:u8glib_arm_v1.18.1\src/chessengine.c ****     stack_		Internal function for stack handling
  60:u8glib_arm_v1.18.1\src/chessengine.c **** 
  61:u8glib_arm_v1.18.1\src/chessengine.c ****   Issues
  62:u8glib_arm_v1.18.1\src/chessengine.c ****     10.01.2011
  63:u8glib_arm_v1.18.1\src/chessengine.c ****       - castling to the right does not move the rook
  64:u8glib_arm_v1.18.1\src/chessengine.c **** 	  --> done
  65:u8glib_arm_v1.18.1\src/chessengine.c ****       - castling to the left: King can only move two squares
  66:u8glib_arm_v1.18.1\src/chessengine.c **** 	  --> done
  67:u8glib_arm_v1.18.1\src/chessengine.c ****       
  68:u8glib_arm_v1.18.1\src/chessengine.c ****     11.01.2011	
  69:u8glib_arm_v1.18.1\src/chessengine.c ****       Next Steps:
  70:u8glib_arm_v1.18.1\src/chessengine.c **** 	- replace stack_NextCurrentPos with cu_NextPos, cleanup code according to the loop variable
  71:u8glib_arm_v1.18.1\src/chessengine.c **** 	    --> done
  72:u8glib_arm_v1.18.1\src/chessengine.c **** 	- Castling: Need to check for fields under attack
  73:u8glib_arm_v1.18.1\src/chessengine.c **** 	    --> done
  74:u8glib_arm_v1.18.1\src/chessengine.c **** 	
  75:u8glib_arm_v1.18.1\src/chessengine.c **** 	- Check for WIN / LOOSE situation, perhaps call ce_Eval() once on the top-level board setup
  76:u8glib_arm_v1.18.1\src/chessengine.c **** 	    just after the real move
  77:u8glib_arm_v1.18.1\src/chessengine.c **** 	- cleanup cu_Move
  78:u8glib_arm_v1.18.1\src/chessengine.c **** 	    --> almost done
  79:u8glib_arm_v1.18.1\src/chessengine.c **** 	- add some heuristics to the eval procedure
  80:u8glib_arm_v1.18.1\src/chessengine.c **** 	- add right side menu
  81:u8glib_arm_v1.18.1\src/chessengine.c **** 	  --> done
  82:u8glib_arm_v1.18.1\src/chessengine.c **** 	- clean up chess_ManualMove
  83:u8glib_arm_v1.18.1\src/chessengine.c **** 	  --> done
  84:u8glib_arm_v1.18.1\src/chessengine.c **** 	- finish menu (consider is_game_end, undo move)
  85:u8glib_arm_v1.18.1\src/chessengine.c ****         - end condition: if KING is under attack and if KING can not move to a field which is under
  86:u8glib_arm_v1.18.1\src/chessengine.c **** 	      then the game is lost. What will be returned by the Eval procedure? is it -INF?
ARM GAS  C:\Users\KJA\AppData\Local\Temp\ccNNA7zi.s 			page 3


  87:u8glib_arm_v1.18.1\src/chessengine.c **** 	    --> finished
  88:u8glib_arm_v1.18.1\src/chessengine.c **** 	    
  89:u8glib_arm_v1.18.1\src/chessengine.c **** 	- reduce the use of variable color, all should be reduced to board_orientation and ply&1
  90:u8glib_arm_v1.18.1\src/chessengine.c **** 	
  91:u8glib_arm_v1.18.1\src/chessengine.c **** 	- chess_GetNextMarked shoud make use of cu_NextPos
  92:u8glib_arm_v1.18.1\src/chessengine.c **** 	    --> done
  93:u8glib_arm_v1.18.1\src/chessengine.c **** 	- chess_ManualMove: again cleanup, solve draw issue (KING is not in check and no legal moves are a
  94:u8glib_arm_v1.18.1\src/chessengine.c **** 	    --> done
  95:u8glib_arm_v1.18.1\src/chessengine.c ****     22.01.2011
  96:u8glib_arm_v1.18.1\src/chessengine.c **** 	- simplify eval_t ce_Eval(void)
  97:u8glib_arm_v1.18.1\src/chessengine.c **** 	- position eval does not work, still moves side pawn :-(
  98:u8glib_arm_v1.18.1\src/chessengine.c **** 	      maybe because all pieces are considered
  99:u8glib_arm_v1.18.1\src/chessengine.c **** 	    --> done
 100:u8glib_arm_v1.18.1\src/chessengine.c **** 
 101:u8glib_arm_v1.18.1\src/chessengine.c **** */
 102:u8glib_arm_v1.18.1\src/chessengine.c **** 
 103:u8glib_arm_v1.18.1\src/chessengine.c **** #include "u8g.h"
 104:u8glib_arm_v1.18.1\src/chessengine.c **** 
 105:u8glib_arm_v1.18.1\src/chessengine.c **** //#ifndef __unix__
 106:u8glib_arm_v1.18.1\src/chessengine.c **** //#else
 107:u8glib_arm_v1.18.1\src/chessengine.c **** //#include <assert.h>
 108:u8glib_arm_v1.18.1\src/chessengine.c **** //#define U8G_NOINLINE
 109:u8glib_arm_v1.18.1\src/chessengine.c **** //#endif
 110:u8glib_arm_v1.18.1\src/chessengine.c **** 
 111:u8glib_arm_v1.18.1\src/chessengine.c **** /*
 112:u8glib_arm_v1.18.1\src/chessengine.c **** SAN identifies each piece by a single upper case letter.  The standard English
 113:u8glib_arm_v1.18.1\src/chessengine.c **** values: pawn = "P", knight = "N", bishop = "B", rook = "R", queen = "Q", and
 114:u8glib_arm_v1.18.1\src/chessengine.c **** king = "K".
 115:u8glib_arm_v1.18.1\src/chessengine.c **** */
 116:u8glib_arm_v1.18.1\src/chessengine.c **** 
 117:u8glib_arm_v1.18.1\src/chessengine.c **** /* numbers for the various pieces */
 118:u8glib_arm_v1.18.1\src/chessengine.c **** #define PIECE_NONE	0
 119:u8glib_arm_v1.18.1\src/chessengine.c **** #define PIECE_PAWN 	1
 120:u8glib_arm_v1.18.1\src/chessengine.c **** #define PIECE_KNIGHT  	2
 121:u8glib_arm_v1.18.1\src/chessengine.c **** #define PIECE_BISHOP 	3
 122:u8glib_arm_v1.18.1\src/chessengine.c **** #define PIECE_ROOK	4
 123:u8glib_arm_v1.18.1\src/chessengine.c **** #define PIECE_QUEEN 	5
 124:u8glib_arm_v1.18.1\src/chessengine.c **** #define PIECE_KING		6
 125:u8glib_arm_v1.18.1\src/chessengine.c **** 
 126:u8glib_arm_v1.18.1\src/chessengine.c **** /* color definitions */
 127:u8glib_arm_v1.18.1\src/chessengine.c **** #define COLOR_WHITE	0
 128:u8glib_arm_v1.18.1\src/chessengine.c **** #define COLOR_BLACK	1
 129:u8glib_arm_v1.18.1\src/chessengine.c **** 
 130:u8glib_arm_v1.18.1\src/chessengine.c **** /* a mask, which includes COLOR and PIECE number */
 131:u8glib_arm_v1.18.1\src/chessengine.c **** #define COLOR_PIECE_MASK 0x01f
 132:u8glib_arm_v1.18.1\src/chessengine.c **** 
 133:u8glib_arm_v1.18.1\src/chessengine.c **** #define CP_MARK_MASK 0x20
 134:u8glib_arm_v1.18.1\src/chessengine.c **** 
 135:u8glib_arm_v1.18.1\src/chessengine.c **** #define ILLEGAL_POSITION 255
 136:u8glib_arm_v1.18.1\src/chessengine.c **** 
 137:u8glib_arm_v1.18.1\src/chessengine.c **** /* This is the build in upper limit of the search stack */
 138:u8glib_arm_v1.18.1\src/chessengine.c **** /* This value defines the amount of memory allocated for the search stack */
 139:u8glib_arm_v1.18.1\src/chessengine.c **** /* The search depth of this chess engine can never exceed this value */
 140:u8glib_arm_v1.18.1\src/chessengine.c **** #define STACK_MAX_SIZE 5
 141:u8glib_arm_v1.18.1\src/chessengine.c **** 
 142:u8glib_arm_v1.18.1\src/chessengine.c **** /* chess half move stack: twice the number of undo's, a user can do */ 
 143:u8glib_arm_v1.18.1\src/chessengine.c **** #define CHM_USER_SIZE 6
ARM GAS  C:\Users\KJA\AppData\Local\Temp\ccNNA7zi.s 			page 4


 144:u8glib_arm_v1.18.1\src/chessengine.c **** 
 145:u8glib_arm_v1.18.1\src/chessengine.c **** /* the CHM_LIST_SIZE must be larger than the maximum search depth */
 146:u8glib_arm_v1.18.1\src/chessengine.c **** /* the overall size of ste half move stack */
 147:u8glib_arm_v1.18.1\src/chessengine.c **** #define CHM_LIST_SIZE (STACK_MAX_SIZE+CHM_USER_SIZE+2)
 148:u8glib_arm_v1.18.1\src/chessengine.c **** 
 149:u8glib_arm_v1.18.1\src/chessengine.c **** typedef int16_t eval_t;	/* a variable type to store results from the evaluation */ 
 150:u8glib_arm_v1.18.1\src/chessengine.c **** //#define EVAL_T_LOST -32768
 151:u8glib_arm_v1.18.1\src/chessengine.c **** #define EVAL_T_MIN -32767
 152:u8glib_arm_v1.18.1\src/chessengine.c **** #define EVAL_T_MAX 32767
 153:u8glib_arm_v1.18.1\src/chessengine.c **** //#define EVAL_T_WIN 32767
 154:u8glib_arm_v1.18.1\src/chessengine.c **** 
 155:u8glib_arm_v1.18.1\src/chessengine.c **** /* for maintainance of our own stack: this is the definition of one element on the stack */
 156:u8glib_arm_v1.18.1\src/chessengine.c **** struct _stack_element_struct
 157:u8glib_arm_v1.18.1\src/chessengine.c **** {
 158:u8glib_arm_v1.18.1\src/chessengine.c ****   /* the current source position which is investigated */
 159:u8glib_arm_v1.18.1\src/chessengine.c ****   uint8_t current_pos;
 160:u8glib_arm_v1.18.1\src/chessengine.c ****   uint8_t current_cp;
 161:u8glib_arm_v1.18.1\src/chessengine.c ****   uint8_t current_color;	/* COLOR_WHITE or COLOR_BLACK: must be predefines */
 162:u8glib_arm_v1.18.1\src/chessengine.c ****   
 163:u8glib_arm_v1.18.1\src/chessengine.c ****   /* the move which belongs to that value, both values are game positions */
 164:u8glib_arm_v1.18.1\src/chessengine.c ****   uint8_t best_from_pos;
 165:u8glib_arm_v1.18.1\src/chessengine.c ****   uint8_t best_to_pos;
 166:u8glib_arm_v1.18.1\src/chessengine.c ****   /* the best value, which has been dicovered so far */
 167:u8glib_arm_v1.18.1\src/chessengine.c ****   eval_t best_eval;
 168:u8glib_arm_v1.18.1\src/chessengine.c **** };
 169:u8glib_arm_v1.18.1\src/chessengine.c **** typedef struct _stack_element_struct stack_element_t;
 170:u8glib_arm_v1.18.1\src/chessengine.c **** typedef struct _stack_element_struct *stack_element_p;
 171:u8glib_arm_v1.18.1\src/chessengine.c **** 
 172:u8glib_arm_v1.18.1\src/chessengine.c **** /* chess half move history */
 173:u8glib_arm_v1.18.1\src/chessengine.c **** struct _chm_struct
 174:u8glib_arm_v1.18.1\src/chessengine.c **** {
 175:u8glib_arm_v1.18.1\src/chessengine.c ****   uint8_t main_cp;		/* the main piece, which is moved */
 176:u8glib_arm_v1.18.1\src/chessengine.c ****   uint8_t main_src;		/* the source position of the main piece */
 177:u8glib_arm_v1.18.1\src/chessengine.c ****   uint8_t main_dest; 	/* the destination of the main piece */
 178:u8glib_arm_v1.18.1\src/chessengine.c ****   
 179:u8glib_arm_v1.18.1\src/chessengine.c ****   uint8_t other_cp;		/* another piece: the captured one, the ROOK in case of castling or PIECE_NONE
 180:u8glib_arm_v1.18.1\src/chessengine.c ****   uint8_t other_src;		/* the delete position of other_cp. Often identical to main_dest except for e
 181:u8glib_arm_v1.18.1\src/chessengine.c ****   uint8_t other_dest;		/* only used for castling: ROOK destination pos */
 182:u8glib_arm_v1.18.1\src/chessengine.c ****   
 183:u8glib_arm_v1.18.1\src/chessengine.c ****   /* the position of the last pawn, which did a double move forward */
 184:u8glib_arm_v1.18.1\src/chessengine.c ****   /* this is required to check en passant conditions */
 185:u8glib_arm_v1.18.1\src/chessengine.c ****   /* this array can be indexed by the color of the current player */
 186:u8glib_arm_v1.18.1\src/chessengine.c ****   /* this is the condition BEFORE the move was done */
 187:u8glib_arm_v1.18.1\src/chessengine.c ****   uint8_t pawn_dbl_move[2];
 188:u8glib_arm_v1.18.1\src/chessengine.c ****   
 189:u8glib_arm_v1.18.1\src/chessengine.c ****   /* flags for the movement of rook and king; required for castling */
 190:u8glib_arm_v1.18.1\src/chessengine.c ****   /* a 1 means: castling is (still) possible */
 191:u8glib_arm_v1.18.1\src/chessengine.c ****   /* a 0 means: castling not possible */
 192:u8glib_arm_v1.18.1\src/chessengine.c ****   /*  bit 0 left side white */
 193:u8glib_arm_v1.18.1\src/chessengine.c ****   /*  bit 1 right side white */
 194:u8glib_arm_v1.18.1\src/chessengine.c ****   /*  bit 2 left side black */
 195:u8glib_arm_v1.18.1\src/chessengine.c ****   /*  bit 3 right side black */
 196:u8glib_arm_v1.18.1\src/chessengine.c ****   /* this is the condition BEFORE the move was done */
 197:u8glib_arm_v1.18.1\src/chessengine.c ****   uint8_t castling_possible;   
 198:u8glib_arm_v1.18.1\src/chessengine.c **** };
 199:u8glib_arm_v1.18.1\src/chessengine.c **** 
 200:u8glib_arm_v1.18.1\src/chessengine.c **** typedef struct _chm_struct chm_t;
ARM GAS  C:\Users\KJA\AppData\Local\Temp\ccNNA7zi.s 			page 5


 201:u8glib_arm_v1.18.1\src/chessengine.c **** typedef struct _chm_struct *chm_p;
 202:u8glib_arm_v1.18.1\src/chessengine.c **** 
 203:u8glib_arm_v1.18.1\src/chessengine.c **** /* little rook chess, main structure */
 204:u8glib_arm_v1.18.1\src/chessengine.c **** struct _lrc_struct
 205:u8glib_arm_v1.18.1\src/chessengine.c **** {  
 206:u8glib_arm_v1.18.1\src/chessengine.c ****   /* half-move (ply) counter: Counts the number of half-moves so far. Starts with 0 */
 207:u8glib_arm_v1.18.1\src/chessengine.c ****   /* the lowest bit is used to derive the color of the current player */
 208:u8glib_arm_v1.18.1\src/chessengine.c ****   /* will be set to zero in chess_SetupBoard() */
 209:u8glib_arm_v1.18.1\src/chessengine.c ****   uint8_t ply_count;
 210:u8glib_arm_v1.18.1\src/chessengine.c ****   
 211:u8glib_arm_v1.18.1\src/chessengine.c ****   /* the half move stack position counter, counts the number of elements in chm_list */
 212:u8glib_arm_v1.18.1\src/chessengine.c ****   uint8_t chm_pos;
 213:u8glib_arm_v1.18.1\src/chessengine.c ****   
 214:u8glib_arm_v1.18.1\src/chessengine.c ****   /* each element contains a colored piece, empty fields have value 0 */
 215:u8glib_arm_v1.18.1\src/chessengine.c ****   /* the field with index 0 is black (lower left) */
 216:u8glib_arm_v1.18.1\src/chessengine.c ****   uint8_t board[64];	
 217:u8glib_arm_v1.18.1\src/chessengine.c ****   /* the position of the last pawn, which did a double move forward */
 218:u8glib_arm_v1.18.1\src/chessengine.c ****   /* this is required to check en passant conditions */
 219:u8glib_arm_v1.18.1\src/chessengine.c ****   /* this array can be indexed by the color of the current player */
 220:u8glib_arm_v1.18.1\src/chessengine.c ****   uint8_t pawn_dbl_move[2]; 
 221:u8glib_arm_v1.18.1\src/chessengine.c ****   
 222:u8glib_arm_v1.18.1\src/chessengine.c ****   /* flags for the movement of rook and king; required for castling */
 223:u8glib_arm_v1.18.1\src/chessengine.c ****   /* a 1 means: castling is (still) possible */
 224:u8glib_arm_v1.18.1\src/chessengine.c ****   /* a 0 means: castling not possible */
 225:u8glib_arm_v1.18.1\src/chessengine.c ****   /*  bit 0 left side white */
 226:u8glib_arm_v1.18.1\src/chessengine.c ****   /*  bit 1 right side white */
 227:u8glib_arm_v1.18.1\src/chessengine.c ****   /*  bit 2 left side black */
 228:u8glib_arm_v1.18.1\src/chessengine.c ****   /*  bit 3 right side black */
 229:u8glib_arm_v1.18.1\src/chessengine.c ****   uint8_t castling_possible; 
 230:u8glib_arm_v1.18.1\src/chessengine.c ****   
 231:u8glib_arm_v1.18.1\src/chessengine.c ****   /* board orientation */
 232:u8glib_arm_v1.18.1\src/chessengine.c ****   /* 0: white is below COLOR_WHITE */
 233:u8glib_arm_v1.18.1\src/chessengine.c ****   /* 1: black is below COLOR_BLACK */
 234:u8glib_arm_v1.18.1\src/chessengine.c ****   /* bascially, this can be used as a color */
 235:u8glib_arm_v1.18.1\src/chessengine.c ****   uint8_t orientation;
 236:u8glib_arm_v1.18.1\src/chessengine.c ****   
 237:u8glib_arm_v1.18.1\src/chessengine.c ****   /* exchange colors of the pieces */
 238:u8glib_arm_v1.18.1\src/chessengine.c ****   /* 0: white has an empty body, use this for bright background color */
 239:u8glib_arm_v1.18.1\src/chessengine.c ****   /* 1: black has an empty body, use this for dark backround color */
 240:u8glib_arm_v1.18.1\src/chessengine.c ****   uint8_t strike_out_color;
 241:u8glib_arm_v1.18.1\src/chessengine.c ****   
 242:u8glib_arm_v1.18.1\src/chessengine.c ****   /* 0, when the game is ongoing */
 243:u8glib_arm_v1.18.1\src/chessengine.c ****   /* 1, when the game is stopped (lost or draw) */
 244:u8glib_arm_v1.18.1\src/chessengine.c ****   uint8_t is_game_end;
 245:u8glib_arm_v1.18.1\src/chessengine.c ****   /* the color of the side which lost the game */
 246:u8glib_arm_v1.18.1\src/chessengine.c ****   /* this value is only valid, when is_game_end is not 0 */
 247:u8glib_arm_v1.18.1\src/chessengine.c ****   /* values 0 and 1 represent WHITE and BLACK, 2 means a draw */
 248:u8glib_arm_v1.18.1\src/chessengine.c ****   uint8_t lost_side_color;
 249:u8glib_arm_v1.18.1\src/chessengine.c ****   
 250:u8glib_arm_v1.18.1\src/chessengine.c ****   
 251:u8glib_arm_v1.18.1\src/chessengine.c ****   
 252:u8glib_arm_v1.18.1\src/chessengine.c ****   /* checks are executed in ce_LoopRecur */
 253:u8glib_arm_v1.18.1\src/chessengine.c ****   /* these checks will put some marks on the board */
 254:u8glib_arm_v1.18.1\src/chessengine.c ****   /* this will be used by the interface to find out */
 255:u8glib_arm_v1.18.1\src/chessengine.c ****   /* legal moves */
 256:u8glib_arm_v1.18.1\src/chessengine.c ****   uint8_t check_src_pos;
 257:u8glib_arm_v1.18.1\src/chessengine.c ****   uint8_t check_mode;		/* CHECK_MODE_NONE, CHECK_MODE_MOVEABLE, CHECK_MODE_TARGET_MOVE */
ARM GAS  C:\Users\KJA\AppData\Local\Temp\ccNNA7zi.s 			page 6


 258:u8glib_arm_v1.18.1\src/chessengine.c ****   
 259:u8glib_arm_v1.18.1\src/chessengine.c ****   
 260:u8glib_arm_v1.18.1\src/chessengine.c ****   /* count of the attacking pieces, indexed by color */
 261:u8glib_arm_v1.18.1\src/chessengine.c ****   uint8_t find_piece_cnt[2];
 262:u8glib_arm_v1.18.1\src/chessengine.c **** 
 263:u8glib_arm_v1.18.1\src/chessengine.c ****   /* sum of the attacking pieces, indexed by color */
 264:u8glib_arm_v1.18.1\src/chessengine.c ****   uint8_t find_piece_weight[2];
 265:u8glib_arm_v1.18.1\src/chessengine.c **** 
 266:u8glib_arm_v1.18.1\src/chessengine.c ****   /* points to the current element of the search stack */
 267:u8glib_arm_v1.18.1\src/chessengine.c ****   /* this stack is NEVER empty. The value 0 points to the first element of the stack */
 268:u8glib_arm_v1.18.1\src/chessengine.c ****   /* actually "curr_depth" represent half-moves (plies) */
 269:u8glib_arm_v1.18.1\src/chessengine.c ****   uint8_t curr_depth;
 270:u8glib_arm_v1.18.1\src/chessengine.c ****   uint8_t max_depth;
 271:u8glib_arm_v1.18.1\src/chessengine.c ****   stack_element_p curr_element;
 272:u8glib_arm_v1.18.1\src/chessengine.c ****   
 273:u8glib_arm_v1.18.1\src/chessengine.c ****   /* allocated memory for the search stack */
 274:u8glib_arm_v1.18.1\src/chessengine.c ****   stack_element_t stack_memory[STACK_MAX_SIZE];
 275:u8glib_arm_v1.18.1\src/chessengine.c **** 
 276:u8glib_arm_v1.18.1\src/chessengine.c ****   /* the half move stack, used for move undo and depth search, size is stored in chm_pos */
 277:u8glib_arm_v1.18.1\src/chessengine.c ****   chm_t chm_list[CHM_LIST_SIZE];
 278:u8glib_arm_v1.18.1\src/chessengine.c **** };
 279:u8glib_arm_v1.18.1\src/chessengine.c **** typedef struct _lrc_struct lrc_t;
 280:u8glib_arm_v1.18.1\src/chessengine.c **** 
 281:u8glib_arm_v1.18.1\src/chessengine.c **** #define CHECK_MODE_NONE 0
 282:u8glib_arm_v1.18.1\src/chessengine.c **** #define CHECK_MODE_MOVEABLE 1
 283:u8glib_arm_v1.18.1\src/chessengine.c **** #define CHECK_MODE_TARGET_MOVE 2
 284:u8glib_arm_v1.18.1\src/chessengine.c **** 
 285:u8glib_arm_v1.18.1\src/chessengine.c **** 
 286:u8glib_arm_v1.18.1\src/chessengine.c **** 
 287:u8glib_arm_v1.18.1\src/chessengine.c **** /*==============================================================*/
 288:u8glib_arm_v1.18.1\src/chessengine.c **** /* global variables */
 289:u8glib_arm_v1.18.1\src/chessengine.c **** /*==============================================================*/
 290:u8glib_arm_v1.18.1\src/chessengine.c **** 
 291:u8glib_arm_v1.18.1\src/chessengine.c **** u8g_t *lrc_u8g;
 292:u8glib_arm_v1.18.1\src/chessengine.c **** 
 293:u8glib_arm_v1.18.1\src/chessengine.c **** lrc_t lrc_obj;
 294:u8glib_arm_v1.18.1\src/chessengine.c **** 
 295:u8glib_arm_v1.18.1\src/chessengine.c **** 
 296:u8glib_arm_v1.18.1\src/chessengine.c **** /*==============================================================*/
 297:u8glib_arm_v1.18.1\src/chessengine.c **** /* forward declarations */
 298:u8glib_arm_v1.18.1\src/chessengine.c **** /*==============================================================*/
 299:u8glib_arm_v1.18.1\src/chessengine.c **** 
 300:u8glib_arm_v1.18.1\src/chessengine.c **** /* 
 301:u8glib_arm_v1.18.1\src/chessengine.c ****   apply no inline to some of the functions:
 302:u8glib_arm_v1.18.1\src/chessengine.c ****   avr-gcc very often inlines functions, however not inline saves a lot of program memory!
 303:u8glib_arm_v1.18.1\src/chessengine.c ****   On the other hand there are some really short procedures which should be inlined (like cp_GetColo
 304:u8glib_arm_v1.18.1\src/chessengine.c ****   These procedures are marked static to prevent the generation of the expanded procedure, which
 305:u8glib_arm_v1.18.1\src/chessengine.c ****   also saves space.
 306:u8glib_arm_v1.18.1\src/chessengine.c **** */
 307:u8glib_arm_v1.18.1\src/chessengine.c **** 
 308:u8glib_arm_v1.18.1\src/chessengine.c **** uint8_t stack_Push(uint8_t color) U8G_NOINLINE;
 309:u8glib_arm_v1.18.1\src/chessengine.c **** void stack_Pop(void) U8G_NOINLINE;
 310:u8glib_arm_v1.18.1\src/chessengine.c **** void stack_InitCurrElement(void) U8G_NOINLINE;
 311:u8glib_arm_v1.18.1\src/chessengine.c **** void stack_Init(uint8_t max) U8G_NOINLINE;
 312:u8glib_arm_v1.18.1\src/chessengine.c **** void stack_SetMove(eval_t val, uint8_t to_pos) U8G_NOINLINE;
 313:u8glib_arm_v1.18.1\src/chessengine.c **** uint8_t cu_NextPos(uint8_t pos) U8G_NOINLINE;
 314:u8glib_arm_v1.18.1\src/chessengine.c **** static uint8_t cu_gpos2bpos(uint8_t gpos);
ARM GAS  C:\Users\KJA\AppData\Local\Temp\ccNNA7zi.s 			page 7


 315:u8glib_arm_v1.18.1\src/chessengine.c **** static uint8_t cp_Construct(uint8_t color, uint8_t piece);
 316:u8glib_arm_v1.18.1\src/chessengine.c **** static uint8_t cp_GetPiece(uint8_t cp);
 317:u8glib_arm_v1.18.1\src/chessengine.c **** static uint8_t cp_GetColor(uint8_t cp);
 318:u8glib_arm_v1.18.1\src/chessengine.c **** uint8_t cp_GetFromBoard(uint8_t pos) U8G_NOINLINE;
 319:u8glib_arm_v1.18.1\src/chessengine.c **** void cp_SetOnBoard(uint8_t pos, uint8_t cp) U8G_NOINLINE;
 320:u8glib_arm_v1.18.1\src/chessengine.c **** 
 321:u8glib_arm_v1.18.1\src/chessengine.c **** void cu_ClearBoard(void) U8G_NOINLINE;
 322:u8glib_arm_v1.18.1\src/chessengine.c **** void chess_SetupBoard(void) U8G_NOINLINE;
 323:u8glib_arm_v1.18.1\src/chessengine.c **** eval_t ce_Eval(void);
 324:u8glib_arm_v1.18.1\src/chessengine.c **** 
 325:u8glib_arm_v1.18.1\src/chessengine.c **** void cu_ClearMoveHistory(void) U8G_NOINLINE;
 326:u8glib_arm_v1.18.1\src/chessengine.c **** void cu_ReduceHistoryByFullMove(void) U8G_NOINLINE;
 327:u8glib_arm_v1.18.1\src/chessengine.c **** void cu_UndoHalfMove(void) U8G_NOINLINE;
 328:u8glib_arm_v1.18.1\src/chessengine.c **** chm_p cu_PushHalfMove(void) U8G_NOINLINE;
 329:u8glib_arm_v1.18.1\src/chessengine.c **** 
 330:u8glib_arm_v1.18.1\src/chessengine.c **** 
 331:u8glib_arm_v1.18.1\src/chessengine.c **** void ce_CalculatePositionWeight(uint8_t pos);
 332:u8glib_arm_v1.18.1\src/chessengine.c **** uint8_t ce_GetPositionAttackWeight(uint8_t pos, uint8_t color);
 333:u8glib_arm_v1.18.1\src/chessengine.c **** 
 334:u8glib_arm_v1.18.1\src/chessengine.c **** void chess_Thinking(void);
 335:u8glib_arm_v1.18.1\src/chessengine.c **** void ce_LoopPieces(void);
 336:u8glib_arm_v1.18.1\src/chessengine.c **** 
 337:u8glib_arm_v1.18.1\src/chessengine.c **** 
 338:u8glib_arm_v1.18.1\src/chessengine.c **** /*==============================================================*/
 339:u8glib_arm_v1.18.1\src/chessengine.c **** /* search stack */
 340:u8glib_arm_v1.18.1\src/chessengine.c **** /*==============================================================*/
 341:u8glib_arm_v1.18.1\src/chessengine.c **** 
 342:u8glib_arm_v1.18.1\src/chessengine.c **** /* get current element from stack */
 343:u8glib_arm_v1.18.1\src/chessengine.c **** stack_element_p stack_GetCurrElement(void)
 344:u8glib_arm_v1.18.1\src/chessengine.c **** {
  29              		.loc 1 344 0
  30              		.cfi_startproc
  31              		@ args = 0, pretend = 0, frame = 0
  32              		@ frame_needed = 1, uses_anonymous_args = 0
  33              		@ link register save eliminated.
  34 0000 80B4     		push	{r7}
  35              		.cfi_def_cfa_offset 4
  36              		.cfi_offset 7, -4
  37 0002 00AF     		add	r7, sp, #0
  38              		.cfi_def_cfa_register 7
 345:u8glib_arm_v1.18.1\src/chessengine.c ****   return lrc_obj.curr_element;
  39              		.loc 1 345 0
  40 0004 034B     		ldr	r3, .L3
  41 0006 5B6D     		ldr	r3, [r3, #84]
 346:u8glib_arm_v1.18.1\src/chessengine.c **** }
  42              		.loc 1 346 0
  43 0008 1846     		mov	r0, r3
  44 000a BD46     		mov	sp, r7
  45              		.cfi_def_cfa_register 13
  46              		@ sp needed
  47 000c 5DF8047B 		ldr	r7, [sp], #4
  48              		.cfi_restore 7
  49              		.cfi_def_cfa_offset 0
  50 0010 7047     		bx	lr
  51              	.L4:
  52 0012 00BF     		.align	2
  53              	.L3:
ARM GAS  C:\Users\KJA\AppData\Local\Temp\ccNNA7zi.s 			page 8


  54 0014 00000000 		.word	lrc_obj
  55              		.cfi_endproc
  56              	.LFE0:
  57              		.size	stack_GetCurrElement, .-stack_GetCurrElement
  58              		.section	.text.stack_Push,"ax",%progbits
  59              		.align	2
  60              		.global	stack_Push
  61              		.thumb
  62              		.thumb_func
  63              		.type	stack_Push, %function
  64              	stack_Push:
  65              	.LFB1:
 347:u8glib_arm_v1.18.1\src/chessengine.c **** 
 348:u8glib_arm_v1.18.1\src/chessengine.c **** uint8_t stack_Push(uint8_t color)
 349:u8glib_arm_v1.18.1\src/chessengine.c **** {
  66              		.loc 1 349 0
  67              		.cfi_startproc
  68              		@ args = 0, pretend = 0, frame = 8
  69              		@ frame_needed = 1, uses_anonymous_args = 0
  70 0000 80B5     		push	{r7, lr}
  71              		.cfi_def_cfa_offset 8
  72              		.cfi_offset 7, -8
  73              		.cfi_offset 14, -4
  74 0002 82B0     		sub	sp, sp, #8
  75              		.cfi_def_cfa_offset 16
  76 0004 00AF     		add	r7, sp, #0
  77              		.cfi_def_cfa_register 7
  78 0006 0346     		mov	r3, r0
  79 0008 FB71     		strb	r3, [r7, #7]
 350:u8glib_arm_v1.18.1\src/chessengine.c ****   if ( lrc_obj.curr_depth == lrc_obj.max_depth )
  80              		.loc 1 350 0
  81 000a 144B     		ldr	r3, .L8
  82 000c 93F84F20 		ldrb	r2, [r3, #79]	@ zero_extendqisi2
  83 0010 124B     		ldr	r3, .L8
  84 0012 93F85030 		ldrb	r3, [r3, #80]	@ zero_extendqisi2
  85 0016 9A42     		cmp	r2, r3
  86 0018 01D1     		bne	.L6
 351:u8glib_arm_v1.18.1\src/chessengine.c ****     return 0;
  87              		.loc 1 351 0
  88 001a 0023     		movs	r3, #0
  89 001c 1AE0     		b	.L7
  90              	.L6:
 352:u8glib_arm_v1.18.1\src/chessengine.c ****   lrc_obj.curr_depth++;
  91              		.loc 1 352 0
  92 001e 0F4B     		ldr	r3, .L8
  93 0020 93F84F30 		ldrb	r3, [r3, #79]	@ zero_extendqisi2
  94 0024 0133     		adds	r3, r3, #1
  95 0026 DAB2     		uxtb	r2, r3
  96 0028 0C4B     		ldr	r3, .L8
  97 002a 83F84F20 		strb	r2, [r3, #79]
 353:u8glib_arm_v1.18.1\src/chessengine.c ****   lrc_obj.curr_element = lrc_obj.stack_memory+lrc_obj.curr_depth;
  98              		.loc 1 353 0
  99 002e 0B4B     		ldr	r3, .L8
 100 0030 93F84F30 		ldrb	r3, [r3, #79]	@ zero_extendqisi2
 101 0034 0B33     		adds	r3, r3, #11
 102 0036 DB00     		lsls	r3, r3, #3
 103 0038 084A     		ldr	r2, .L8
ARM GAS  C:\Users\KJA\AppData\Local\Temp\ccNNA7zi.s 			page 9


 104 003a 1344     		add	r3, r3, r2
 105 003c 074A     		ldr	r2, .L8
 106 003e 5365     		str	r3, [r2, #84]
 354:u8glib_arm_v1.18.1\src/chessengine.c ****   
 355:u8glib_arm_v1.18.1\src/chessengine.c ****   /* change view for the evaluation */
 356:u8glib_arm_v1.18.1\src/chessengine.c ****   color ^= 1;
 107              		.loc 1 356 0
 108 0040 FB79     		ldrb	r3, [r7, #7]
 109 0042 83F00103 		eor	r3, r3, #1
 110 0046 FB71     		strb	r3, [r7, #7]
 357:u8glib_arm_v1.18.1\src/chessengine.c ****   stack_GetCurrElement()->current_color = color;
 111              		.loc 1 357 0
 112 0048 FFF7FEFF 		bl	stack_GetCurrElement
 113 004c 0246     		mov	r2, r0
 114 004e FB79     		ldrb	r3, [r7, #7]
 115 0050 9370     		strb	r3, [r2, #2]
 358:u8glib_arm_v1.18.1\src/chessengine.c **** 
 359:u8glib_arm_v1.18.1\src/chessengine.c ****   return 1;
 116              		.loc 1 359 0
 117 0052 0123     		movs	r3, #1
 118              	.L7:
 360:u8glib_arm_v1.18.1\src/chessengine.c **** }
 119              		.loc 1 360 0
 120 0054 1846     		mov	r0, r3
 121 0056 0837     		adds	r7, r7, #8
 122              		.cfi_def_cfa_offset 8
 123 0058 BD46     		mov	sp, r7
 124              		.cfi_def_cfa_register 13
 125              		@ sp needed
 126 005a 80BD     		pop	{r7, pc}
 127              	.L9:
 128              		.align	2
 129              	.L8:
 130 005c 00000000 		.word	lrc_obj
 131              		.cfi_endproc
 132              	.LFE1:
 133              		.size	stack_Push, .-stack_Push
 134              		.section	.text.stack_Pop,"ax",%progbits
 135              		.align	2
 136              		.global	stack_Pop
 137              		.thumb
 138              		.thumb_func
 139              		.type	stack_Pop, %function
 140              	stack_Pop:
 141              	.LFB2:
 361:u8glib_arm_v1.18.1\src/chessengine.c **** 
 362:u8glib_arm_v1.18.1\src/chessengine.c **** void stack_Pop(void)
 363:u8glib_arm_v1.18.1\src/chessengine.c **** {
 142              		.loc 1 363 0
 143              		.cfi_startproc
 144              		@ args = 0, pretend = 0, frame = 0
 145              		@ frame_needed = 1, uses_anonymous_args = 0
 146              		@ link register save eliminated.
 147 0000 80B4     		push	{r7}
 148              		.cfi_def_cfa_offset 4
 149              		.cfi_offset 7, -4
 150 0002 00AF     		add	r7, sp, #0
ARM GAS  C:\Users\KJA\AppData\Local\Temp\ccNNA7zi.s 			page 10


 151              		.cfi_def_cfa_register 7
 364:u8glib_arm_v1.18.1\src/chessengine.c ****   lrc_obj.curr_depth--;
 152              		.loc 1 364 0
 153 0004 0A4B     		ldr	r3, .L11
 154 0006 93F84F30 		ldrb	r3, [r3, #79]	@ zero_extendqisi2
 155 000a 013B     		subs	r3, r3, #1
 156 000c DAB2     		uxtb	r2, r3
 157 000e 084B     		ldr	r3, .L11
 158 0010 83F84F20 		strb	r2, [r3, #79]
 365:u8glib_arm_v1.18.1\src/chessengine.c ****   lrc_obj.curr_element = lrc_obj.stack_memory+lrc_obj.curr_depth;
 159              		.loc 1 365 0
 160 0014 064B     		ldr	r3, .L11
 161 0016 93F84F30 		ldrb	r3, [r3, #79]	@ zero_extendqisi2
 162 001a 0B33     		adds	r3, r3, #11
 163 001c DB00     		lsls	r3, r3, #3
 164 001e 044A     		ldr	r2, .L11
 165 0020 1344     		add	r3, r3, r2
 166 0022 034A     		ldr	r2, .L11
 167 0024 5365     		str	r3, [r2, #84]
 366:u8glib_arm_v1.18.1\src/chessengine.c **** }
 168              		.loc 1 366 0
 169 0026 BD46     		mov	sp, r7
 170              		.cfi_def_cfa_register 13
 171              		@ sp needed
 172 0028 5DF8047B 		ldr	r7, [sp], #4
 173              		.cfi_restore 7
 174              		.cfi_def_cfa_offset 0
 175 002c 7047     		bx	lr
 176              	.L12:
 177 002e 00BF     		.align	2
 178              	.L11:
 179 0030 00000000 		.word	lrc_obj
 180              		.cfi_endproc
 181              	.LFE2:
 182              		.size	stack_Pop, .-stack_Pop
 183              		.section	.text.stack_InitCurrElement,"ax",%progbits
 184              		.align	2
 185              		.global	stack_InitCurrElement
 186              		.thumb
 187              		.thumb_func
 188              		.type	stack_InitCurrElement, %function
 189              	stack_InitCurrElement:
 190              	.LFB3:
 367:u8glib_arm_v1.18.1\src/chessengine.c **** 
 368:u8glib_arm_v1.18.1\src/chessengine.c **** /* reset the current element on the stack */
 369:u8glib_arm_v1.18.1\src/chessengine.c **** void stack_InitCurrElement(void)
 370:u8glib_arm_v1.18.1\src/chessengine.c **** {
 191              		.loc 1 370 0
 192              		.cfi_startproc
 193              		@ args = 0, pretend = 0, frame = 8
 194              		@ frame_needed = 1, uses_anonymous_args = 0
 195 0000 80B5     		push	{r7, lr}
 196              		.cfi_def_cfa_offset 8
 197              		.cfi_offset 7, -8
 198              		.cfi_offset 14, -4
 199 0002 82B0     		sub	sp, sp, #8
 200              		.cfi_def_cfa_offset 16
ARM GAS  C:\Users\KJA\AppData\Local\Temp\ccNNA7zi.s 			page 11


 201 0004 00AF     		add	r7, sp, #0
 202              		.cfi_def_cfa_register 7
 371:u8glib_arm_v1.18.1\src/chessengine.c ****   stack_element_p e = stack_GetCurrElement();
 203              		.loc 1 371 0
 204 0006 FFF7FEFF 		bl	stack_GetCurrElement
 205 000a 7860     		str	r0, [r7, #4]
 372:u8glib_arm_v1.18.1\src/chessengine.c ****   e->best_eval = EVAL_T_MIN;
 206              		.loc 1 372 0
 207 000c 7B68     		ldr	r3, [r7, #4]
 208 000e 48F20102 		movw	r2, #32769
 209 0012 DA80     		strh	r2, [r3, #6]	@ movhi
 373:u8glib_arm_v1.18.1\src/chessengine.c ****   e->best_from_pos = ILLEGAL_POSITION;
 210              		.loc 1 373 0
 211 0014 7B68     		ldr	r3, [r7, #4]
 212 0016 FF22     		movs	r2, #255
 213 0018 DA70     		strb	r2, [r3, #3]
 374:u8glib_arm_v1.18.1\src/chessengine.c ****   e->best_to_pos = ILLEGAL_POSITION;
 214              		.loc 1 374 0
 215 001a 7B68     		ldr	r3, [r7, #4]
 216 001c FF22     		movs	r2, #255
 217 001e 1A71     		strb	r2, [r3, #4]
 375:u8glib_arm_v1.18.1\src/chessengine.c **** }
 218              		.loc 1 375 0
 219 0020 0837     		adds	r7, r7, #8
 220              		.cfi_def_cfa_offset 8
 221 0022 BD46     		mov	sp, r7
 222              		.cfi_def_cfa_register 13
 223              		@ sp needed
 224 0024 80BD     		pop	{r7, pc}
 225              		.cfi_endproc
 226              	.LFE3:
 227              		.size	stack_InitCurrElement, .-stack_InitCurrElement
 228 0026 00BF     		.section	.text.stack_Init,"ax",%progbits
 229              		.align	2
 230              		.global	stack_Init
 231              		.thumb
 232              		.thumb_func
 233              		.type	stack_Init, %function
 234              	stack_Init:
 235              	.LFB4:
 376:u8glib_arm_v1.18.1\src/chessengine.c **** 
 377:u8glib_arm_v1.18.1\src/chessengine.c **** /* resets the search stack (and the check mode) */
 378:u8glib_arm_v1.18.1\src/chessengine.c **** void stack_Init(uint8_t max)
 379:u8glib_arm_v1.18.1\src/chessengine.c **** {
 236              		.loc 1 379 0
 237              		.cfi_startproc
 238              		@ args = 0, pretend = 0, frame = 8
 239              		@ frame_needed = 1, uses_anonymous_args = 0
 240 0000 80B5     		push	{r7, lr}
 241              		.cfi_def_cfa_offset 8
 242              		.cfi_offset 7, -8
 243              		.cfi_offset 14, -4
 244 0002 82B0     		sub	sp, sp, #8
 245              		.cfi_def_cfa_offset 16
 246 0004 00AF     		add	r7, sp, #0
 247              		.cfi_def_cfa_register 7
 248 0006 0346     		mov	r3, r0
ARM GAS  C:\Users\KJA\AppData\Local\Temp\ccNNA7zi.s 			page 12


 249 0008 FB71     		strb	r3, [r7, #7]
 380:u8glib_arm_v1.18.1\src/chessengine.c ****   lrc_obj.curr_depth = 0;
 250              		.loc 1 380 0
 251 000a 114B     		ldr	r3, .L15
 252 000c 0022     		movs	r2, #0
 253 000e 83F84F20 		strb	r2, [r3, #79]
 381:u8glib_arm_v1.18.1\src/chessengine.c ****   lrc_obj.curr_element = lrc_obj.stack_memory;
 254              		.loc 1 381 0
 255 0012 0F4B     		ldr	r3, .L15
 256 0014 0F4A     		ldr	r2, .L15+4
 257 0016 5A65     		str	r2, [r3, #84]
 382:u8glib_arm_v1.18.1\src/chessengine.c ****   lrc_obj.max_depth = max;
 258              		.loc 1 382 0
 259 0018 0D4A     		ldr	r2, .L15
 260 001a FB79     		ldrb	r3, [r7, #7]
 261 001c 82F85030 		strb	r3, [r2, #80]
 383:u8glib_arm_v1.18.1\src/chessengine.c ****   lrc_obj.check_mode = CHECK_MODE_NONE;
 262              		.loc 1 383 0
 263 0020 0B4B     		ldr	r3, .L15
 264 0022 0022     		movs	r2, #0
 265 0024 83F84A20 		strb	r2, [r3, #74]
 384:u8glib_arm_v1.18.1\src/chessengine.c ****   stack_InitCurrElement();
 266              		.loc 1 384 0
 267 0028 FFF7FEFF 		bl	stack_InitCurrElement
 385:u8glib_arm_v1.18.1\src/chessengine.c ****   stack_GetCurrElement()->current_color = lrc_obj.ply_count;
 268              		.loc 1 385 0
 269 002c FFF7FEFF 		bl	stack_GetCurrElement
 270 0030 0246     		mov	r2, r0
 271 0032 074B     		ldr	r3, .L15
 272 0034 1B78     		ldrb	r3, [r3]	@ zero_extendqisi2
 273 0036 9370     		strb	r3, [r2, #2]
 386:u8glib_arm_v1.18.1\src/chessengine.c ****   stack_GetCurrElement()->current_color &= 1;
 274              		.loc 1 386 0
 275 0038 FFF7FEFF 		bl	stack_GetCurrElement
 276 003c 0346     		mov	r3, r0
 277 003e 9A78     		ldrb	r2, [r3, #2]	@ zero_extendqisi2
 278 0040 02F00102 		and	r2, r2, #1
 279 0044 D2B2     		uxtb	r2, r2
 280 0046 9A70     		strb	r2, [r3, #2]
 387:u8glib_arm_v1.18.1\src/chessengine.c **** }
 281              		.loc 1 387 0
 282 0048 0837     		adds	r7, r7, #8
 283              		.cfi_def_cfa_offset 8
 284 004a BD46     		mov	sp, r7
 285              		.cfi_def_cfa_register 13
 286              		@ sp needed
 287 004c 80BD     		pop	{r7, pc}
 288              	.L16:
 289 004e 00BF     		.align	2
 290              	.L15:
 291 0050 00000000 		.word	lrc_obj
 292 0054 58000000 		.word	lrc_obj+88
 293              		.cfi_endproc
 294              	.LFE4:
 295              		.size	stack_Init, .-stack_Init
 296              		.section	.text.stack_SetMove,"ax",%progbits
 297              		.align	2
ARM GAS  C:\Users\KJA\AppData\Local\Temp\ccNNA7zi.s 			page 13


 298              		.global	stack_SetMove
 299              		.thumb
 300              		.thumb_func
 301              		.type	stack_SetMove, %function
 302              	stack_SetMove:
 303              	.LFB5:
 388:u8glib_arm_v1.18.1\src/chessengine.c **** 
 389:u8glib_arm_v1.18.1\src/chessengine.c **** /* assign evaluation value and store the move, if this is the best move */
 390:u8glib_arm_v1.18.1\src/chessengine.c **** /* assumes, that current_pos contains the source position */
 391:u8glib_arm_v1.18.1\src/chessengine.c **** void stack_SetMove(eval_t val, uint8_t to_pos)
 392:u8glib_arm_v1.18.1\src/chessengine.c **** {
 304              		.loc 1 392 0
 305              		.cfi_startproc
 306              		@ args = 0, pretend = 0, frame = 16
 307              		@ frame_needed = 1, uses_anonymous_args = 0
 308 0000 80B5     		push	{r7, lr}
 309              		.cfi_def_cfa_offset 8
 310              		.cfi_offset 7, -8
 311              		.cfi_offset 14, -4
 312 0002 84B0     		sub	sp, sp, #16
 313              		.cfi_def_cfa_offset 24
 314 0004 00AF     		add	r7, sp, #0
 315              		.cfi_def_cfa_register 7
 316 0006 0346     		mov	r3, r0
 317 0008 0A46     		mov	r2, r1
 318 000a FB80     		strh	r3, [r7, #6]	@ movhi
 319 000c 1346     		mov	r3, r2
 320 000e 7B71     		strb	r3, [r7, #5]
 393:u8glib_arm_v1.18.1\src/chessengine.c ****   stack_element_p e = stack_GetCurrElement();
 321              		.loc 1 393 0
 322 0010 FFF7FEFF 		bl	stack_GetCurrElement
 323 0014 F860     		str	r0, [r7, #12]
 394:u8glib_arm_v1.18.1\src/chessengine.c ****   if ( e->best_eval < val )
 324              		.loc 1 394 0
 325 0016 FB68     		ldr	r3, [r7, #12]
 326 0018 DB88     		ldrh	r3, [r3, #6]
 327 001a B7F90620 		ldrsh	r2, [r7, #6]
 328 001e 1BB2     		sxth	r3, r3
 329 0020 9A42     		cmp	r2, r3
 330 0022 09DD     		ble	.L17
 395:u8glib_arm_v1.18.1\src/chessengine.c ****   {
 396:u8glib_arm_v1.18.1\src/chessengine.c ****     e->best_eval = val;
 331              		.loc 1 396 0
 332 0024 FB68     		ldr	r3, [r7, #12]
 333 0026 FA88     		ldrh	r2, [r7, #6]	@ movhi
 334 0028 DA80     		strh	r2, [r3, #6]	@ movhi
 397:u8glib_arm_v1.18.1\src/chessengine.c ****     e->best_from_pos = e->current_pos;
 335              		.loc 1 397 0
 336 002a FB68     		ldr	r3, [r7, #12]
 337 002c 1A78     		ldrb	r2, [r3]	@ zero_extendqisi2
 338 002e FB68     		ldr	r3, [r7, #12]
 339 0030 DA70     		strb	r2, [r3, #3]
 398:u8glib_arm_v1.18.1\src/chessengine.c ****     e->best_to_pos = to_pos;
 340              		.loc 1 398 0
 341 0032 FB68     		ldr	r3, [r7, #12]
 342 0034 7A79     		ldrb	r2, [r7, #5]
 343 0036 1A71     		strb	r2, [r3, #4]
ARM GAS  C:\Users\KJA\AppData\Local\Temp\ccNNA7zi.s 			page 14


 344              	.L17:
 399:u8glib_arm_v1.18.1\src/chessengine.c ****   }
 400:u8glib_arm_v1.18.1\src/chessengine.c **** }
 345              		.loc 1 400 0
 346 0038 1037     		adds	r7, r7, #16
 347              		.cfi_def_cfa_offset 8
 348 003a BD46     		mov	sp, r7
 349              		.cfi_def_cfa_register 13
 350              		@ sp needed
 351 003c 80BD     		pop	{r7, pc}
 352              		.cfi_endproc
 353              	.LFE5:
 354              		.size	stack_SetMove, .-stack_SetMove
 355 003e 00BF     		.section	.text.cu_NextPos,"ax",%progbits
 356              		.align	2
 357              		.global	cu_NextPos
 358              		.thumb
 359              		.thumb_func
 360              		.type	cu_NextPos, %function
 361              	cu_NextPos:
 362              	.LFB6:
 401:u8glib_arm_v1.18.1\src/chessengine.c **** 
 402:u8glib_arm_v1.18.1\src/chessengine.c **** /* 
 403:u8glib_arm_v1.18.1\src/chessengine.c ****   calculate next position on a 0x88 board 
 404:u8glib_arm_v1.18.1\src/chessengine.c ****   loop is constructed in this way:
 405:u8glib_arm_v1.18.1\src/chessengine.c ****   i = 0;
 406:u8glib_arm_v1.18.1\src/chessengine.c ****   do
 407:u8glib_arm_v1.18.1\src/chessengine.c ****   {
 408:u8glib_arm_v1.18.1\src/chessengine.c ****     ...
 409:u8glib_arm_v1.18.1\src/chessengine.c ****     i = cu_NextPos(i);
 410:u8glib_arm_v1.18.1\src/chessengine.c ****   } while( i != 0 );
 411:u8glib_arm_v1.18.1\src/chessengine.c **** 
 412:u8glib_arm_v1.18.1\src/chessengine.c ****   next pos might be started with an illegal position like 255
 413:u8glib_arm_v1.18.1\src/chessengine.c **** */
 414:u8glib_arm_v1.18.1\src/chessengine.c **** uint8_t cu_NextPos(uint8_t pos)
 415:u8glib_arm_v1.18.1\src/chessengine.c **** {
 363              		.loc 1 415 0
 364              		.cfi_startproc
 365              		@ args = 0, pretend = 0, frame = 8
 366              		@ frame_needed = 1, uses_anonymous_args = 0
 367              		@ link register save eliminated.
 368 0000 80B4     		push	{r7}
 369              		.cfi_def_cfa_offset 4
 370              		.cfi_offset 7, -4
 371 0002 83B0     		sub	sp, sp, #12
 372              		.cfi_def_cfa_offset 16
 373 0004 00AF     		add	r7, sp, #0
 374              		.cfi_def_cfa_register 7
 375 0006 0346     		mov	r3, r0
 376 0008 FB71     		strb	r3, [r7, #7]
 416:u8glib_arm_v1.18.1\src/chessengine.c ****   /* calculate next gpos */
 417:u8glib_arm_v1.18.1\src/chessengine.c ****   pos++;
 377              		.loc 1 417 0
 378 000a FB79     		ldrb	r3, [r7, #7]	@ zero_extendqisi2
 379 000c 0133     		adds	r3, r3, #1
 380 000e FB71     		strb	r3, [r7, #7]
 418:u8glib_arm_v1.18.1\src/chessengine.c ****   if ( ( pos & 0x08 ) != 0 )
ARM GAS  C:\Users\KJA\AppData\Local\Temp\ccNNA7zi.s 			page 15


 381              		.loc 1 418 0
 382 0010 FB79     		ldrb	r3, [r7, #7]	@ zero_extendqisi2
 383 0012 03F00803 		and	r3, r3, #8
 384 0016 002B     		cmp	r3, #0
 385 0018 06D0     		beq	.L20
 419:u8glib_arm_v1.18.1\src/chessengine.c ****   {
 420:u8glib_arm_v1.18.1\src/chessengine.c ****     pos+= 0x10;
 386              		.loc 1 420 0
 387 001a FB79     		ldrb	r3, [r7, #7]
 388 001c 1033     		adds	r3, r3, #16
 389 001e FB71     		strb	r3, [r7, #7]
 421:u8glib_arm_v1.18.1\src/chessengine.c ****     pos&= 0xf0; 
 390              		.loc 1 421 0
 391 0020 FB79     		ldrb	r3, [r7, #7]
 392 0022 23F00F03 		bic	r3, r3, #15
 393 0026 FB71     		strb	r3, [r7, #7]
 394              	.L20:
 422:u8glib_arm_v1.18.1\src/chessengine.c ****   }
 423:u8glib_arm_v1.18.1\src/chessengine.c ****   if ( ( pos & 0x80 ) != 0 )
 395              		.loc 1 423 0
 396 0028 FB79     		ldrb	r3, [r7, #7]	@ zero_extendqisi2
 397 002a 5BB2     		sxtb	r3, r3
 398 002c 002B     		cmp	r3, #0
 399 002e 01DA     		bge	.L21
 424:u8glib_arm_v1.18.1\src/chessengine.c ****     pos = 0;
 400              		.loc 1 424 0
 401 0030 0023     		movs	r3, #0
 402 0032 FB71     		strb	r3, [r7, #7]
 403              	.L21:
 425:u8glib_arm_v1.18.1\src/chessengine.c ****   return pos;
 404              		.loc 1 425 0
 405 0034 FB79     		ldrb	r3, [r7, #7]	@ zero_extendqisi2
 426:u8glib_arm_v1.18.1\src/chessengine.c **** }
 406              		.loc 1 426 0
 407 0036 1846     		mov	r0, r3
 408 0038 0C37     		adds	r7, r7, #12
 409              		.cfi_def_cfa_offset 4
 410 003a BD46     		mov	sp, r7
 411              		.cfi_def_cfa_register 13
 412              		@ sp needed
 413 003c 5DF8047B 		ldr	r7, [sp], #4
 414              		.cfi_restore 7
 415              		.cfi_def_cfa_offset 0
 416 0040 7047     		bx	lr
 417              		.cfi_endproc
 418              	.LFE6:
 419              		.size	cu_NextPos, .-cu_NextPos
 420 0042 00BF     		.section	.text.cu_PrevPos,"ax",%progbits
 421              		.align	2
 422              		.global	cu_PrevPos
 423              		.thumb
 424              		.thumb_func
 425              		.type	cu_PrevPos, %function
 426              	cu_PrevPos:
 427              	.LFB7:
 427:u8glib_arm_v1.18.1\src/chessengine.c **** 
 428:u8glib_arm_v1.18.1\src/chessengine.c **** uint8_t cu_PrevPos(uint8_t pos)
ARM GAS  C:\Users\KJA\AppData\Local\Temp\ccNNA7zi.s 			page 16


 429:u8glib_arm_v1.18.1\src/chessengine.c **** {
 428              		.loc 1 429 0
 429              		.cfi_startproc
 430              		@ args = 0, pretend = 0, frame = 8
 431              		@ frame_needed = 1, uses_anonymous_args = 0
 432              		@ link register save eliminated.
 433 0000 80B4     		push	{r7}
 434              		.cfi_def_cfa_offset 4
 435              		.cfi_offset 7, -4
 436 0002 83B0     		sub	sp, sp, #12
 437              		.cfi_def_cfa_offset 16
 438 0004 00AF     		add	r7, sp, #0
 439              		.cfi_def_cfa_register 7
 440 0006 0346     		mov	r3, r0
 441 0008 FB71     		strb	r3, [r7, #7]
 430:u8glib_arm_v1.18.1\src/chessengine.c ****   /* calculate prev gpos */
 431:u8glib_arm_v1.18.1\src/chessengine.c ****   pos--;
 442              		.loc 1 431 0
 443 000a FB79     		ldrb	r3, [r7, #7]	@ zero_extendqisi2
 444 000c 013B     		subs	r3, r3, #1
 445 000e FB71     		strb	r3, [r7, #7]
 432:u8glib_arm_v1.18.1\src/chessengine.c ****   if ( ( pos & 0x80 ) != 0 )
 446              		.loc 1 432 0
 447 0010 FB79     		ldrb	r3, [r7, #7]	@ zero_extendqisi2
 448 0012 5BB2     		sxtb	r3, r3
 449 0014 002B     		cmp	r3, #0
 450 0016 02DA     		bge	.L24
 433:u8glib_arm_v1.18.1\src/chessengine.c ****     pos = 0x077;
 451              		.loc 1 433 0
 452 0018 7723     		movs	r3, #119
 453 001a FB71     		strb	r3, [r7, #7]
 454 001c 0CE0     		b	.L25
 455              	.L24:
 434:u8glib_arm_v1.18.1\src/chessengine.c ****   else if ( ( pos & 0x08 ) != 0 )
 456              		.loc 1 434 0
 457 001e FB79     		ldrb	r3, [r7, #7]	@ zero_extendqisi2
 458 0020 03F00803 		and	r3, r3, #8
 459 0024 002B     		cmp	r3, #0
 460 0026 07D0     		beq	.L25
 435:u8glib_arm_v1.18.1\src/chessengine.c ****   {
 436:u8glib_arm_v1.18.1\src/chessengine.c ****     pos &= 0xf0; 
 461              		.loc 1 436 0
 462 0028 FB79     		ldrb	r3, [r7, #7]
 463 002a 23F00F03 		bic	r3, r3, #15
 464 002e FB71     		strb	r3, [r7, #7]
 437:u8glib_arm_v1.18.1\src/chessengine.c ****     pos |= 0x07;
 465              		.loc 1 437 0
 466 0030 FB79     		ldrb	r3, [r7, #7]
 467 0032 43F00703 		orr	r3, r3, #7
 468 0036 FB71     		strb	r3, [r7, #7]
 469              	.L25:
 438:u8glib_arm_v1.18.1\src/chessengine.c ****   }
 439:u8glib_arm_v1.18.1\src/chessengine.c ****   return pos;
 470              		.loc 1 439 0
 471 0038 FB79     		ldrb	r3, [r7, #7]	@ zero_extendqisi2
 440:u8glib_arm_v1.18.1\src/chessengine.c **** }
 472              		.loc 1 440 0
ARM GAS  C:\Users\KJA\AppData\Local\Temp\ccNNA7zi.s 			page 17


 473 003a 1846     		mov	r0, r3
 474 003c 0C37     		adds	r7, r7, #12
 475              		.cfi_def_cfa_offset 4
 476 003e BD46     		mov	sp, r7
 477              		.cfi_def_cfa_register 13
 478              		@ sp needed
 479 0040 5DF8047B 		ldr	r7, [sp], #4
 480              		.cfi_restore 7
 481              		.cfi_def_cfa_offset 0
 482 0044 7047     		bx	lr
 483              		.cfi_endproc
 484              	.LFE7:
 485              		.size	cu_PrevPos, .-cu_PrevPos
 486 0046 00BF     		.section	.text.cu_gpos2bpos,"ax",%progbits
 487              		.align	2
 488              		.thumb
 489              		.thumb_func
 490              		.type	cu_gpos2bpos, %function
 491              	cu_gpos2bpos:
 492              	.LFB8:
 441:u8glib_arm_v1.18.1\src/chessengine.c **** 
 442:u8glib_arm_v1.18.1\src/chessengine.c **** 
 443:u8glib_arm_v1.18.1\src/chessengine.c **** /*==============================================================*/
 444:u8glib_arm_v1.18.1\src/chessengine.c **** /* position transltion */
 445:u8glib_arm_v1.18.1\src/chessengine.c **** /*==============================================================*/
 446:u8glib_arm_v1.18.1\src/chessengine.c **** /*
 447:u8glib_arm_v1.18.1\src/chessengine.c ****   there are two positions
 448:u8glib_arm_v1.18.1\src/chessengine.c ****     1. game position (gpos): BCD encoded x-y values
 449:u8glib_arm_v1.18.1\src/chessengine.c ****     2. board position (bpos): a number between 0 and 63, only used to access the board.
 450:u8glib_arm_v1.18.1\src/chessengine.c **** */
 451:u8glib_arm_v1.18.1\src/chessengine.c **** /*
 452:u8glib_arm_v1.18.1\src/chessengine.c ****   gpos:	game position value
 453:u8glib_arm_v1.18.1\src/chessengine.c ****   returns:	board position
 454:u8glib_arm_v1.18.1\src/chessengine.c ****   note:	does not do any checks
 455:u8glib_arm_v1.18.1\src/chessengine.c **** */
 456:u8glib_arm_v1.18.1\src/chessengine.c **** static uint8_t cu_gpos2bpos(uint8_t gpos)
 457:u8glib_arm_v1.18.1\src/chessengine.c **** {
 493              		.loc 1 457 0
 494              		.cfi_startproc
 495              		@ args = 0, pretend = 0, frame = 16
 496              		@ frame_needed = 1, uses_anonymous_args = 0
 497              		@ link register save eliminated.
 498 0000 80B4     		push	{r7}
 499              		.cfi_def_cfa_offset 4
 500              		.cfi_offset 7, -4
 501 0002 85B0     		sub	sp, sp, #20
 502              		.cfi_def_cfa_offset 24
 503 0004 00AF     		add	r7, sp, #0
 504              		.cfi_def_cfa_register 7
 505 0006 0346     		mov	r3, r0
 506 0008 FB71     		strb	r3, [r7, #7]
 458:u8glib_arm_v1.18.1\src/chessengine.c ****   uint8_t bpos = gpos;
 507              		.loc 1 458 0
 508 000a FB79     		ldrb	r3, [r7, #7]
 509 000c FB73     		strb	r3, [r7, #15]
 459:u8glib_arm_v1.18.1\src/chessengine.c ****   bpos &= 0xf0;
 510              		.loc 1 459 0
ARM GAS  C:\Users\KJA\AppData\Local\Temp\ccNNA7zi.s 			page 18


 511 000e FB7B     		ldrb	r3, [r7, #15]
 512 0010 23F00F03 		bic	r3, r3, #15
 513 0014 FB73     		strb	r3, [r7, #15]
 460:u8glib_arm_v1.18.1\src/chessengine.c ****   bpos >>= 1;
 514              		.loc 1 460 0
 515 0016 FB7B     		ldrb	r3, [r7, #15]	@ zero_extendqisi2
 516 0018 5B08     		lsrs	r3, r3, #1
 517 001a FB73     		strb	r3, [r7, #15]
 461:u8glib_arm_v1.18.1\src/chessengine.c ****   gpos &= 0x0f;
 518              		.loc 1 461 0
 519 001c FB79     		ldrb	r3, [r7, #7]
 520 001e 03F00F03 		and	r3, r3, #15
 521 0022 FB71     		strb	r3, [r7, #7]
 462:u8glib_arm_v1.18.1\src/chessengine.c ****   bpos |= gpos;
 522              		.loc 1 462 0
 523 0024 FA7B     		ldrb	r2, [r7, #15]
 524 0026 FB79     		ldrb	r3, [r7, #7]
 525 0028 1343     		orrs	r3, r3, r2
 526 002a FB73     		strb	r3, [r7, #15]
 463:u8glib_arm_v1.18.1\src/chessengine.c ****   return bpos;
 527              		.loc 1 463 0
 528 002c FB7B     		ldrb	r3, [r7, #15]	@ zero_extendqisi2
 464:u8glib_arm_v1.18.1\src/chessengine.c **** }
 529              		.loc 1 464 0
 530 002e 1846     		mov	r0, r3
 531 0030 1437     		adds	r7, r7, #20
 532              		.cfi_def_cfa_offset 4
 533 0032 BD46     		mov	sp, r7
 534              		.cfi_def_cfa_register 13
 535              		@ sp needed
 536 0034 5DF8047B 		ldr	r7, [sp], #4
 537              		.cfi_restore 7
 538              		.cfi_def_cfa_offset 0
 539 0038 7047     		bx	lr
 540              		.cfi_endproc
 541              	.LFE8:
 542              		.size	cu_gpos2bpos, .-cu_gpos2bpos
 543 003a 00BF     		.section	.text.cp_Construct,"ax",%progbits
 544              		.align	2
 545              		.thumb
 546              		.thumb_func
 547              		.type	cp_Construct, %function
 548              	cp_Construct:
 549              	.LFB9:
 465:u8glib_arm_v1.18.1\src/chessengine.c **** 
 466:u8glib_arm_v1.18.1\src/chessengine.c **** #define gpos_IsIllegal(gpos) ((gpos) & 0x088)
 467:u8glib_arm_v1.18.1\src/chessengine.c **** 
 468:u8glib_arm_v1.18.1\src/chessengine.c **** 
 469:u8glib_arm_v1.18.1\src/chessengine.c **** /*==============================================================*/
 470:u8glib_arm_v1.18.1\src/chessengine.c **** /* colored piece handling */
 471:u8glib_arm_v1.18.1\src/chessengine.c **** /*==============================================================*/
 472:u8glib_arm_v1.18.1\src/chessengine.c **** 
 473:u8glib_arm_v1.18.1\src/chessengine.c **** #define cp_IsMarked(cp)  ((cp) & CP_MARK_MASK)
 474:u8glib_arm_v1.18.1\src/chessengine.c **** 
 475:u8glib_arm_v1.18.1\src/chessengine.c **** 
 476:u8glib_arm_v1.18.1\src/chessengine.c **** /*
 477:u8glib_arm_v1.18.1\src/chessengine.c ****   piece: one of PIECE_xxx
ARM GAS  C:\Users\KJA\AppData\Local\Temp\ccNNA7zi.s 			page 19


 478:u8glib_arm_v1.18.1\src/chessengine.c ****   color: COLOR_WHITE or COLOR_BLACK
 479:u8glib_arm_v1.18.1\src/chessengine.c **** 
 480:u8glib_arm_v1.18.1\src/chessengine.c ****   returns: A colored piece
 481:u8glib_arm_v1.18.1\src/chessengine.c **** */
 482:u8glib_arm_v1.18.1\src/chessengine.c **** static uint8_t cp_Construct(uint8_t color, uint8_t piece)
 483:u8glib_arm_v1.18.1\src/chessengine.c **** {
 550              		.loc 1 483 0
 551              		.cfi_startproc
 552              		@ args = 0, pretend = 0, frame = 8
 553              		@ frame_needed = 1, uses_anonymous_args = 0
 554              		@ link register save eliminated.
 555 0000 80B4     		push	{r7}
 556              		.cfi_def_cfa_offset 4
 557              		.cfi_offset 7, -4
 558 0002 83B0     		sub	sp, sp, #12
 559              		.cfi_def_cfa_offset 16
 560 0004 00AF     		add	r7, sp, #0
 561              		.cfi_def_cfa_register 7
 562 0006 0346     		mov	r3, r0
 563 0008 0A46     		mov	r2, r1
 564 000a FB71     		strb	r3, [r7, #7]
 565 000c 1346     		mov	r3, r2
 566 000e BB71     		strb	r3, [r7, #6]
 484:u8glib_arm_v1.18.1\src/chessengine.c ****   color <<= 4;
 567              		.loc 1 484 0
 568 0010 FB79     		ldrb	r3, [r7, #7]
 569 0012 1B01     		lsls	r3, r3, #4
 570 0014 FB71     		strb	r3, [r7, #7]
 485:u8glib_arm_v1.18.1\src/chessengine.c ****   color |= piece;
 571              		.loc 1 485 0
 572 0016 FA79     		ldrb	r2, [r7, #7]
 573 0018 BB79     		ldrb	r3, [r7, #6]
 574 001a 1343     		orrs	r3, r3, r2
 575 001c FB71     		strb	r3, [r7, #7]
 486:u8glib_arm_v1.18.1\src/chessengine.c ****   return color;
 576              		.loc 1 486 0
 577 001e FB79     		ldrb	r3, [r7, #7]	@ zero_extendqisi2
 487:u8glib_arm_v1.18.1\src/chessengine.c **** }
 578              		.loc 1 487 0
 579 0020 1846     		mov	r0, r3
 580 0022 0C37     		adds	r7, r7, #12
 581              		.cfi_def_cfa_offset 4
 582 0024 BD46     		mov	sp, r7
 583              		.cfi_def_cfa_register 13
 584              		@ sp needed
 585 0026 5DF8047B 		ldr	r7, [sp], #4
 586              		.cfi_restore 7
 587              		.cfi_def_cfa_offset 0
 588 002a 7047     		bx	lr
 589              		.cfi_endproc
 590              	.LFE9:
 591              		.size	cp_Construct, .-cp_Construct
 592              		.section	.text.cp_GetPiece,"ax",%progbits
 593              		.align	2
 594              		.thumb
 595              		.thumb_func
 596              		.type	cp_GetPiece, %function
ARM GAS  C:\Users\KJA\AppData\Local\Temp\ccNNA7zi.s 			page 20


 597              	cp_GetPiece:
 598              	.LFB10:
 488:u8glib_arm_v1.18.1\src/chessengine.c **** 
 489:u8glib_arm_v1.18.1\src/chessengine.c **** /* inline is better than a macro */
 490:u8glib_arm_v1.18.1\src/chessengine.c **** static uint8_t cp_GetPiece(uint8_t cp)
 491:u8glib_arm_v1.18.1\src/chessengine.c **** {
 599              		.loc 1 491 0
 600              		.cfi_startproc
 601              		@ args = 0, pretend = 0, frame = 8
 602              		@ frame_needed = 1, uses_anonymous_args = 0
 603              		@ link register save eliminated.
 604 0000 80B4     		push	{r7}
 605              		.cfi_def_cfa_offset 4
 606              		.cfi_offset 7, -4
 607 0002 83B0     		sub	sp, sp, #12
 608              		.cfi_def_cfa_offset 16
 609 0004 00AF     		add	r7, sp, #0
 610              		.cfi_def_cfa_register 7
 611 0006 0346     		mov	r3, r0
 612 0008 FB71     		strb	r3, [r7, #7]
 492:u8glib_arm_v1.18.1\src/chessengine.c ****   cp &= 0x0f;
 613              		.loc 1 492 0
 614 000a FB79     		ldrb	r3, [r7, #7]
 615 000c 03F00F03 		and	r3, r3, #15
 616 0010 FB71     		strb	r3, [r7, #7]
 493:u8glib_arm_v1.18.1\src/chessengine.c ****   return cp;
 617              		.loc 1 493 0
 618 0012 FB79     		ldrb	r3, [r7, #7]	@ zero_extendqisi2
 494:u8glib_arm_v1.18.1\src/chessengine.c **** }
 619              		.loc 1 494 0
 620 0014 1846     		mov	r0, r3
 621 0016 0C37     		adds	r7, r7, #12
 622              		.cfi_def_cfa_offset 4
 623 0018 BD46     		mov	sp, r7
 624              		.cfi_def_cfa_register 13
 625              		@ sp needed
 626 001a 5DF8047B 		ldr	r7, [sp], #4
 627              		.cfi_restore 7
 628              		.cfi_def_cfa_offset 0
 629 001e 7047     		bx	lr
 630              		.cfi_endproc
 631              	.LFE10:
 632              		.size	cp_GetPiece, .-cp_GetPiece
 633              		.section	.text.cp_GetColor,"ax",%progbits
 634              		.align	2
 635              		.thumb
 636              		.thumb_func
 637              		.type	cp_GetColor, %function
 638              	cp_GetColor:
 639              	.LFB11:
 495:u8glib_arm_v1.18.1\src/chessengine.c **** 
 496:u8glib_arm_v1.18.1\src/chessengine.c **** /*
 497:u8glib_arm_v1.18.1\src/chessengine.c ****   we could use a macro:
 498:u8glib_arm_v1.18.1\src/chessengine.c ****   #define cp_GetColor(cp)	(((cp) >> 4)&1)
 499:u8glib_arm_v1.18.1\src/chessengine.c ****   however, inlined functions are sometimes much better
 500:u8glib_arm_v1.18.1\src/chessengine.c **** */
 501:u8glib_arm_v1.18.1\src/chessengine.c **** static uint8_t cp_GetColor(uint8_t cp)
ARM GAS  C:\Users\KJA\AppData\Local\Temp\ccNNA7zi.s 			page 21


 502:u8glib_arm_v1.18.1\src/chessengine.c **** {
 640              		.loc 1 502 0
 641              		.cfi_startproc
 642              		@ args = 0, pretend = 0, frame = 8
 643              		@ frame_needed = 1, uses_anonymous_args = 0
 644              		@ link register save eliminated.
 645 0000 80B4     		push	{r7}
 646              		.cfi_def_cfa_offset 4
 647              		.cfi_offset 7, -4
 648 0002 83B0     		sub	sp, sp, #12
 649              		.cfi_def_cfa_offset 16
 650 0004 00AF     		add	r7, sp, #0
 651              		.cfi_def_cfa_register 7
 652 0006 0346     		mov	r3, r0
 653 0008 FB71     		strb	r3, [r7, #7]
 503:u8glib_arm_v1.18.1\src/chessengine.c ****   cp >>= 4;
 654              		.loc 1 503 0
 655 000a FB79     		ldrb	r3, [r7, #7]	@ zero_extendqisi2
 656 000c 1B09     		lsrs	r3, r3, #4
 657 000e FB71     		strb	r3, [r7, #7]
 504:u8glib_arm_v1.18.1\src/chessengine.c ****   cp &= 1;
 658              		.loc 1 504 0
 659 0010 FB79     		ldrb	r3, [r7, #7]
 660 0012 03F00103 		and	r3, r3, #1
 661 0016 FB71     		strb	r3, [r7, #7]
 505:u8glib_arm_v1.18.1\src/chessengine.c ****   return cp;
 662              		.loc 1 505 0
 663 0018 FB79     		ldrb	r3, [r7, #7]	@ zero_extendqisi2
 506:u8glib_arm_v1.18.1\src/chessengine.c **** }
 664              		.loc 1 506 0
 665 001a 1846     		mov	r0, r3
 666 001c 0C37     		adds	r7, r7, #12
 667              		.cfi_def_cfa_offset 4
 668 001e BD46     		mov	sp, r7
 669              		.cfi_def_cfa_register 13
 670              		@ sp needed
 671 0020 5DF8047B 		ldr	r7, [sp], #4
 672              		.cfi_restore 7
 673              		.cfi_def_cfa_offset 0
 674 0024 7047     		bx	lr
 675              		.cfi_endproc
 676              	.LFE11:
 677              		.size	cp_GetColor, .-cp_GetColor
 678 0026 00BF     		.section	.text.cp_GetFromBoard,"ax",%progbits
 679              		.align	2
 680              		.global	cp_GetFromBoard
 681              		.thumb
 682              		.thumb_func
 683              		.type	cp_GetFromBoard, %function
 684              	cp_GetFromBoard:
 685              	.LFB12:
 507:u8glib_arm_v1.18.1\src/chessengine.c **** 
 508:u8glib_arm_v1.18.1\src/chessengine.c **** /*
 509:u8glib_arm_v1.18.1\src/chessengine.c ****   pos: game position
 510:u8glib_arm_v1.18.1\src/chessengine.c ****   returns the colored piece at the given position
 511:u8glib_arm_v1.18.1\src/chessengine.c **** */
 512:u8glib_arm_v1.18.1\src/chessengine.c **** uint8_t cp_GetFromBoard(uint8_t pos)
ARM GAS  C:\Users\KJA\AppData\Local\Temp\ccNNA7zi.s 			page 22


 513:u8glib_arm_v1.18.1\src/chessengine.c **** {
 686              		.loc 1 513 0
 687              		.cfi_startproc
 688              		@ args = 0, pretend = 0, frame = 8
 689              		@ frame_needed = 1, uses_anonymous_args = 0
 690 0000 80B5     		push	{r7, lr}
 691              		.cfi_def_cfa_offset 8
 692              		.cfi_offset 7, -8
 693              		.cfi_offset 14, -4
 694 0002 82B0     		sub	sp, sp, #8
 695              		.cfi_def_cfa_offset 16
 696 0004 00AF     		add	r7, sp, #0
 697              		.cfi_def_cfa_register 7
 698 0006 0346     		mov	r3, r0
 699 0008 FB71     		strb	r3, [r7, #7]
 514:u8glib_arm_v1.18.1\src/chessengine.c ****   return lrc_obj.board[cu_gpos2bpos(pos)];
 700              		.loc 1 514 0
 701 000a FB79     		ldrb	r3, [r7, #7]	@ zero_extendqisi2
 702 000c 1846     		mov	r0, r3
 703 000e FFF7FEFF 		bl	cu_gpos2bpos
 704 0012 0346     		mov	r3, r0
 705 0014 1A46     		mov	r2, r3
 706 0016 034B     		ldr	r3, .L37
 707 0018 1344     		add	r3, r3, r2
 708 001a 9B78     		ldrb	r3, [r3, #2]	@ zero_extendqisi2
 515:u8glib_arm_v1.18.1\src/chessengine.c **** }
 709              		.loc 1 515 0
 710 001c 1846     		mov	r0, r3
 711 001e 0837     		adds	r7, r7, #8
 712              		.cfi_def_cfa_offset 8
 713 0020 BD46     		mov	sp, r7
 714              		.cfi_def_cfa_register 13
 715              		@ sp needed
 716 0022 80BD     		pop	{r7, pc}
 717              	.L38:
 718              		.align	2
 719              	.L37:
 720 0024 00000000 		.word	lrc_obj
 721              		.cfi_endproc
 722              	.LFE12:
 723              		.size	cp_GetFromBoard, .-cp_GetFromBoard
 724              		.section	.text.cp_SetOnBoard,"ax",%progbits
 725              		.align	2
 726              		.global	cp_SetOnBoard
 727              		.thumb
 728              		.thumb_func
 729              		.type	cp_SetOnBoard, %function
 730              	cp_SetOnBoard:
 731              	.LFB13:
 516:u8glib_arm_v1.18.1\src/chessengine.c **** 
 517:u8glib_arm_v1.18.1\src/chessengine.c **** /*
 518:u8glib_arm_v1.18.1\src/chessengine.c ****   pos: game position
 519:u8glib_arm_v1.18.1\src/chessengine.c ****   cp: colored piece
 520:u8glib_arm_v1.18.1\src/chessengine.c **** */
 521:u8glib_arm_v1.18.1\src/chessengine.c **** void cp_SetOnBoard(uint8_t pos, uint8_t cp)
 522:u8glib_arm_v1.18.1\src/chessengine.c **** {
 732              		.loc 1 522 0
ARM GAS  C:\Users\KJA\AppData\Local\Temp\ccNNA7zi.s 			page 23


 733              		.cfi_startproc
 734              		@ args = 0, pretend = 0, frame = 8
 735              		@ frame_needed = 1, uses_anonymous_args = 0
 736 0000 80B5     		push	{r7, lr}
 737              		.cfi_def_cfa_offset 8
 738              		.cfi_offset 7, -8
 739              		.cfi_offset 14, -4
 740 0002 82B0     		sub	sp, sp, #8
 741              		.cfi_def_cfa_offset 16
 742 0004 00AF     		add	r7, sp, #0
 743              		.cfi_def_cfa_register 7
 744 0006 0346     		mov	r3, r0
 745 0008 0A46     		mov	r2, r1
 746 000a FB71     		strb	r3, [r7, #7]
 747 000c 1346     		mov	r3, r2
 748 000e BB71     		strb	r3, [r7, #6]
 523:u8glib_arm_v1.18.1\src/chessengine.c ****   /*printf("cp_SetOnBoard gpos:%02x cp:%02x\n", pos, cp);*/
 524:u8glib_arm_v1.18.1\src/chessengine.c ****   lrc_obj.board[cu_gpos2bpos(pos)] = cp;
 749              		.loc 1 524 0
 750 0010 FB79     		ldrb	r3, [r7, #7]	@ zero_extendqisi2
 751 0012 1846     		mov	r0, r3
 752 0014 FFF7FEFF 		bl	cu_gpos2bpos
 753 0018 0346     		mov	r3, r0
 754 001a 1A46     		mov	r2, r3
 755 001c 034B     		ldr	r3, .L40
 756 001e 1344     		add	r3, r3, r2
 757 0020 BA79     		ldrb	r2, [r7, #6]
 758 0022 9A70     		strb	r2, [r3, #2]
 525:u8glib_arm_v1.18.1\src/chessengine.c **** }
 759              		.loc 1 525 0
 760 0024 0837     		adds	r7, r7, #8
 761              		.cfi_def_cfa_offset 8
 762 0026 BD46     		mov	sp, r7
 763              		.cfi_def_cfa_register 13
 764              		@ sp needed
 765 0028 80BD     		pop	{r7, pc}
 766              	.L41:
 767 002a 00BF     		.align	2
 768              	.L40:
 769 002c 00000000 		.word	lrc_obj
 770              		.cfi_endproc
 771              	.LFE13:
 772              		.size	cp_SetOnBoard, .-cp_SetOnBoard
 773              		.section	.text.cu_ClearBoard,"ax",%progbits
 774              		.align	2
 775              		.global	cu_ClearBoard
 776              		.thumb
 777              		.thumb_func
 778              		.type	cu_ClearBoard, %function
 779              	cu_ClearBoard:
 780              	.LFB14:
 526:u8glib_arm_v1.18.1\src/chessengine.c **** 
 527:u8glib_arm_v1.18.1\src/chessengine.c **** /*==============================================================*/
 528:u8glib_arm_v1.18.1\src/chessengine.c **** /* global board access */
 529:u8glib_arm_v1.18.1\src/chessengine.c **** /*==============================================================*/
 530:u8glib_arm_v1.18.1\src/chessengine.c **** 
 531:u8glib_arm_v1.18.1\src/chessengine.c **** void cu_ClearBoard(void)
ARM GAS  C:\Users\KJA\AppData\Local\Temp\ccNNA7zi.s 			page 24


 532:u8glib_arm_v1.18.1\src/chessengine.c **** {
 781              		.loc 1 532 0
 782              		.cfi_startproc
 783              		@ args = 0, pretend = 0, frame = 8
 784              		@ frame_needed = 1, uses_anonymous_args = 0
 785 0000 80B5     		push	{r7, lr}
 786              		.cfi_def_cfa_offset 8
 787              		.cfi_offset 7, -8
 788              		.cfi_offset 14, -4
 789 0002 82B0     		sub	sp, sp, #8
 790              		.cfi_def_cfa_offset 16
 791 0004 00AF     		add	r7, sp, #0
 792              		.cfi_def_cfa_register 7
 533:u8glib_arm_v1.18.1\src/chessengine.c ****   uint8_t i;
 534:u8glib_arm_v1.18.1\src/chessengine.c ****   /* clear the board */
 535:u8glib_arm_v1.18.1\src/chessengine.c ****   for( i = 0; i < 64; i++ )
 793              		.loc 1 535 0
 794 0006 0023     		movs	r3, #0
 795 0008 FB71     		strb	r3, [r7, #7]
 796 000a 07E0     		b	.L43
 797              	.L44:
 536:u8glib_arm_v1.18.1\src/chessengine.c ****     lrc_obj.board[i] = PIECE_NONE;
 798              		.loc 1 536 0 discriminator 3
 799 000c FB79     		ldrb	r3, [r7, #7]	@ zero_extendqisi2
 800 000e 154A     		ldr	r2, .L45
 801 0010 1344     		add	r3, r3, r2
 802 0012 0022     		movs	r2, #0
 803 0014 9A70     		strb	r2, [r3, #2]
 535:u8glib_arm_v1.18.1\src/chessengine.c ****     lrc_obj.board[i] = PIECE_NONE;
 804              		.loc 1 535 0 discriminator 3
 805 0016 FB79     		ldrb	r3, [r7, #7]	@ zero_extendqisi2
 806 0018 0133     		adds	r3, r3, #1
 807 001a FB71     		strb	r3, [r7, #7]
 808              	.L43:
 535:u8glib_arm_v1.18.1\src/chessengine.c ****     lrc_obj.board[i] = PIECE_NONE;
 809              		.loc 1 535 0 is_stmt 0 discriminator 1
 810 001c FB79     		ldrb	r3, [r7, #7]	@ zero_extendqisi2
 811 001e 3F2B     		cmp	r3, #63
 812 0020 F4D9     		bls	.L44
 537:u8glib_arm_v1.18.1\src/chessengine.c ****   
 538:u8glib_arm_v1.18.1\src/chessengine.c ****   lrc_obj.ply_count = 0;
 813              		.loc 1 538 0 is_stmt 1
 814 0022 104B     		ldr	r3, .L45
 815 0024 0022     		movs	r2, #0
 816 0026 1A70     		strb	r2, [r3]
 539:u8glib_arm_v1.18.1\src/chessengine.c ****   lrc_obj.orientation = COLOR_WHITE;
 817              		.loc 1 539 0
 818 0028 0E4B     		ldr	r3, .L45
 819 002a 0022     		movs	r2, #0
 820 002c 83F84520 		strb	r2, [r3, #69]
 540:u8glib_arm_v1.18.1\src/chessengine.c ****   
 541:u8glib_arm_v1.18.1\src/chessengine.c ****   lrc_obj.pawn_dbl_move[0] = ILLEGAL_POSITION;
 821              		.loc 1 541 0
 822 0030 0C4B     		ldr	r3, .L45
 823 0032 FF22     		movs	r2, #255
 824 0034 83F84220 		strb	r2, [r3, #66]
 542:u8glib_arm_v1.18.1\src/chessengine.c ****   lrc_obj.pawn_dbl_move[1] = ILLEGAL_POSITION;
ARM GAS  C:\Users\KJA\AppData\Local\Temp\ccNNA7zi.s 			page 25


 825              		.loc 1 542 0
 826 0038 0A4B     		ldr	r3, .L45
 827 003a FF22     		movs	r2, #255
 828 003c 83F84320 		strb	r2, [r3, #67]
 543:u8glib_arm_v1.18.1\src/chessengine.c ****   
 544:u8glib_arm_v1.18.1\src/chessengine.c ****   lrc_obj.castling_possible = 0x0f;
 829              		.loc 1 544 0
 830 0040 084B     		ldr	r3, .L45
 831 0042 0F22     		movs	r2, #15
 832 0044 83F84420 		strb	r2, [r3, #68]
 545:u8glib_arm_v1.18.1\src/chessengine.c ****   
 546:u8glib_arm_v1.18.1\src/chessengine.c ****   lrc_obj.is_game_end = 0;
 833              		.loc 1 546 0
 834 0048 064B     		ldr	r3, .L45
 835 004a 0022     		movs	r2, #0
 836 004c 83F84720 		strb	r2, [r3, #71]
 547:u8glib_arm_v1.18.1\src/chessengine.c ****   lrc_obj.lost_side_color = 0;
 837              		.loc 1 547 0
 838 0050 044B     		ldr	r3, .L45
 839 0052 0022     		movs	r2, #0
 840 0054 83F84820 		strb	r2, [r3, #72]
 548:u8glib_arm_v1.18.1\src/chessengine.c **** 
 549:u8glib_arm_v1.18.1\src/chessengine.c ****   /* clear half move history */
 550:u8glib_arm_v1.18.1\src/chessengine.c ****   cu_ClearMoveHistory();
 841              		.loc 1 550 0
 842 0058 FFF7FEFF 		bl	cu_ClearMoveHistory
 551:u8glib_arm_v1.18.1\src/chessengine.c **** 
 552:u8glib_arm_v1.18.1\src/chessengine.c **** }
 843              		.loc 1 552 0
 844 005c 0837     		adds	r7, r7, #8
 845              		.cfi_def_cfa_offset 8
 846 005e BD46     		mov	sp, r7
 847              		.cfi_def_cfa_register 13
 848              		@ sp needed
 849 0060 80BD     		pop	{r7, pc}
 850              	.L46:
 851 0062 00BF     		.align	2
 852              	.L45:
 853 0064 00000000 		.word	lrc_obj
 854              		.cfi_endproc
 855              	.LFE14:
 856              		.size	cu_ClearBoard, .-cu_ClearBoard
 857              		.section	.text.chess_SetupBoardTest01,"ax",%progbits
 858              		.align	2
 859              		.global	chess_SetupBoardTest01
 860              		.thumb
 861              		.thumb_func
 862              		.type	chess_SetupBoardTest01, %function
 863              	chess_SetupBoardTest01:
 864              	.LFB15:
 553:u8glib_arm_v1.18.1\src/chessengine.c **** 
 554:u8glib_arm_v1.18.1\src/chessengine.c **** /*
 555:u8glib_arm_v1.18.1\src/chessengine.c ****   test setup
 556:u8glib_arm_v1.18.1\src/chessengine.c ****   white wins in one move
 557:u8glib_arm_v1.18.1\src/chessengine.c **** */
 558:u8glib_arm_v1.18.1\src/chessengine.c **** void chess_SetupBoardTest01(void)
 559:u8glib_arm_v1.18.1\src/chessengine.c **** {
ARM GAS  C:\Users\KJA\AppData\Local\Temp\ccNNA7zi.s 			page 26


 865              		.loc 1 559 0
 866              		.cfi_startproc
 867              		@ args = 0, pretend = 0, frame = 0
 868              		@ frame_needed = 1, uses_anonymous_args = 0
 869 0000 80B5     		push	{r7, lr}
 870              		.cfi_def_cfa_offset 8
 871              		.cfi_offset 7, -8
 872              		.cfi_offset 14, -4
 873 0002 00AF     		add	r7, sp, #0
 874              		.cfi_def_cfa_register 7
 560:u8glib_arm_v1.18.1\src/chessengine.c ****   cu_ClearBoard();
 875              		.loc 1 560 0
 876 0004 FFF7FEFF 		bl	cu_ClearBoard
 561:u8glib_arm_v1.18.1\src/chessengine.c ****   lrc_obj.board[7+7*8] = cp_Construct(COLOR_BLACK, PIECE_KING);
 877              		.loc 1 561 0
 878 0008 0120     		movs	r0, #1
 879 000a 0621     		movs	r1, #6
 880 000c FFF7FEFF 		bl	cp_Construct
 881 0010 0346     		mov	r3, r0
 882 0012 1A46     		mov	r2, r3
 883 0014 124B     		ldr	r3, .L48
 884 0016 83F84120 		strb	r2, [r3, #65]
 562:u8glib_arm_v1.18.1\src/chessengine.c ****   lrc_obj.board[7+5*8] = cp_Construct(COLOR_WHITE, PIECE_PAWN);
 885              		.loc 1 562 0
 886 001a 0020     		movs	r0, #0
 887 001c 0121     		movs	r1, #1
 888 001e FFF7FEFF 		bl	cp_Construct
 889 0022 0346     		mov	r3, r0
 890 0024 1A46     		mov	r2, r3
 891 0026 0E4B     		ldr	r3, .L48
 892 0028 83F83120 		strb	r2, [r3, #49]
 563:u8glib_arm_v1.18.1\src/chessengine.c ****   lrc_obj.board[3] = cp_Construct(COLOR_WHITE, PIECE_KING);
 893              		.loc 1 563 0
 894 002c 0020     		movs	r0, #0
 895 002e 0621     		movs	r1, #6
 896 0030 FFF7FEFF 		bl	cp_Construct
 897 0034 0346     		mov	r3, r0
 898 0036 1A46     		mov	r2, r3
 899 0038 094B     		ldr	r3, .L48
 900 003a 5A71     		strb	r2, [r3, #5]
 564:u8glib_arm_v1.18.1\src/chessengine.c ****   lrc_obj.board[0+7*8] = cp_Construct(COLOR_BLACK, PIECE_ROOK);
 901              		.loc 1 564 0
 902 003c 0120     		movs	r0, #1
 903 003e 0421     		movs	r1, #4
 904 0040 FFF7FEFF 		bl	cp_Construct
 905 0044 0346     		mov	r3, r0
 906 0046 1A46     		mov	r2, r3
 907 0048 054B     		ldr	r3, .L48
 908 004a 83F83A20 		strb	r2, [r3, #58]
 565:u8glib_arm_v1.18.1\src/chessengine.c ****   lrc_obj.board[6] = cp_Construct(COLOR_WHITE, PIECE_QUEEN);
 909              		.loc 1 565 0
 910 004e 0020     		movs	r0, #0
 911 0050 0521     		movs	r1, #5
 912 0052 FFF7FEFF 		bl	cp_Construct
 913 0056 0346     		mov	r3, r0
 914 0058 1A46     		mov	r2, r3
 915 005a 014B     		ldr	r3, .L48
ARM GAS  C:\Users\KJA\AppData\Local\Temp\ccNNA7zi.s 			page 27


 916 005c 1A72     		strb	r2, [r3, #8]
 566:u8glib_arm_v1.18.1\src/chessengine.c **** } 
 917              		.loc 1 566 0
 918 005e 80BD     		pop	{r7, pc}
 919              	.L49:
 920              		.align	2
 921              	.L48:
 922 0060 00000000 		.word	lrc_obj
 923              		.cfi_endproc
 924              	.LFE15:
 925              		.size	chess_SetupBoardTest01, .-chess_SetupBoardTest01
 926              		.section	.text.chess_SetupBoard,"ax",%progbits
 927              		.align	2
 928              		.global	chess_SetupBoard
 929              		.thumb
 930              		.thumb_func
 931              		.type	chess_SetupBoard, %function
 932              	chess_SetupBoard:
 933              	.LFB16:
 567:u8glib_arm_v1.18.1\src/chessengine.c **** 
 568:u8glib_arm_v1.18.1\src/chessengine.c **** /* setup the global board */
 569:u8glib_arm_v1.18.1\src/chessengine.c **** void chess_SetupBoard(void)
 570:u8glib_arm_v1.18.1\src/chessengine.c **** {
 934              		.loc 1 570 0
 935              		.cfi_startproc
 936              		@ args = 0, pretend = 0, frame = 8
 937              		@ frame_needed = 1, uses_anonymous_args = 0
 938 0000 B0B5     		push	{r4, r5, r7, lr}
 939              		.cfi_def_cfa_offset 16
 940              		.cfi_offset 4, -16
 941              		.cfi_offset 5, -12
 942              		.cfi_offset 7, -8
 943              		.cfi_offset 14, -4
 944 0002 82B0     		sub	sp, sp, #8
 945              		.cfi_def_cfa_offset 24
 946 0004 00AF     		add	r7, sp, #0
 947              		.cfi_def_cfa_register 7
 571:u8glib_arm_v1.18.1\src/chessengine.c ****   uint8_t i;
 572:u8glib_arm_v1.18.1\src/chessengine.c ****   register uint8_t bp, wp;
 573:u8glib_arm_v1.18.1\src/chessengine.c ****   
 574:u8glib_arm_v1.18.1\src/chessengine.c ****   /* clear the board */
 575:u8glib_arm_v1.18.1\src/chessengine.c ****   cu_ClearBoard();
 948              		.loc 1 575 0
 949 0006 FFF7FEFF 		bl	cu_ClearBoard
 576:u8glib_arm_v1.18.1\src/chessengine.c ****   
 577:u8glib_arm_v1.18.1\src/chessengine.c ****   /* precronstruct pawns */
 578:u8glib_arm_v1.18.1\src/chessengine.c ****   wp = cp_Construct(COLOR_WHITE, PIECE_PAWN);
 950              		.loc 1 578 0
 951 000a 0020     		movs	r0, #0
 952 000c 0121     		movs	r1, #1
 953 000e FFF7FEFF 		bl	cp_Construct
 954 0012 0346     		mov	r3, r0
 955 0014 1C46     		mov	r4, r3
 579:u8glib_arm_v1.18.1\src/chessengine.c ****   bp = cp_Construct(COLOR_BLACK, PIECE_PAWN);
 956              		.loc 1 579 0
 957 0016 0120     		movs	r0, #1
 958 0018 0121     		movs	r1, #1
ARM GAS  C:\Users\KJA\AppData\Local\Temp\ccNNA7zi.s 			page 28


 959 001a FFF7FEFF 		bl	cp_Construct
 960 001e 0346     		mov	r3, r0
 961 0020 1D46     		mov	r5, r3
 580:u8glib_arm_v1.18.1\src/chessengine.c ****   
 581:u8glib_arm_v1.18.1\src/chessengine.c ****   /* setup pawn */
 582:u8glib_arm_v1.18.1\src/chessengine.c ****   for( i = 0; i < 8; i++ )
 962              		.loc 1 582 0
 963 0022 0023     		movs	r3, #0
 964 0024 FB71     		strb	r3, [r7, #7]
 965 0026 0EE0     		b	.L51
 966              	.L52:
 583:u8glib_arm_v1.18.1\src/chessengine.c ****   {
 584:u8glib_arm_v1.18.1\src/chessengine.c ****     lrc_obj.board[i+8] = wp;
 967              		.loc 1 584 0 discriminator 3
 968 0028 FB79     		ldrb	r3, [r7, #7]	@ zero_extendqisi2
 969 002a 0833     		adds	r3, r3, #8
 970 002c 4D4A     		ldr	r2, .L53
 971 002e 1344     		add	r3, r3, r2
 972 0030 2246     		mov	r2, r4
 973 0032 9A70     		strb	r2, [r3, #2]
 585:u8glib_arm_v1.18.1\src/chessengine.c ****     lrc_obj.board[i+6*8] = bp;
 974              		.loc 1 585 0 discriminator 3
 975 0034 FB79     		ldrb	r3, [r7, #7]	@ zero_extendqisi2
 976 0036 3033     		adds	r3, r3, #48
 977 0038 4A4A     		ldr	r2, .L53
 978 003a 1344     		add	r3, r3, r2
 979 003c 2A46     		mov	r2, r5
 980 003e 9A70     		strb	r2, [r3, #2]
 582:u8glib_arm_v1.18.1\src/chessengine.c ****   {
 981              		.loc 1 582 0 discriminator 3
 982 0040 FB79     		ldrb	r3, [r7, #7]	@ zero_extendqisi2
 983 0042 0133     		adds	r3, r3, #1
 984 0044 FB71     		strb	r3, [r7, #7]
 985              	.L51:
 582:u8glib_arm_v1.18.1\src/chessengine.c ****   {
 986              		.loc 1 582 0 is_stmt 0 discriminator 1
 987 0046 FB79     		ldrb	r3, [r7, #7]	@ zero_extendqisi2
 988 0048 072B     		cmp	r3, #7
 989 004a EDD9     		bls	.L52
 586:u8glib_arm_v1.18.1\src/chessengine.c ****   }
 587:u8glib_arm_v1.18.1\src/chessengine.c ****   
 588:u8glib_arm_v1.18.1\src/chessengine.c ****   /* assign remaining pieces */
 589:u8glib_arm_v1.18.1\src/chessengine.c ****   
 590:u8glib_arm_v1.18.1\src/chessengine.c ****   lrc_obj.board[0] = cp_Construct(COLOR_WHITE, PIECE_ROOK);
 990              		.loc 1 590 0 is_stmt 1
 991 004c 0020     		movs	r0, #0
 992 004e 0421     		movs	r1, #4
 993 0050 FFF7FEFF 		bl	cp_Construct
 994 0054 0346     		mov	r3, r0
 995 0056 1A46     		mov	r2, r3
 996 0058 424B     		ldr	r3, .L53
 997 005a 9A70     		strb	r2, [r3, #2]
 591:u8glib_arm_v1.18.1\src/chessengine.c ****   lrc_obj.board[1] = cp_Construct(COLOR_WHITE, PIECE_KNIGHT);
 998              		.loc 1 591 0
 999 005c 0020     		movs	r0, #0
 1000 005e 0221     		movs	r1, #2
 1001 0060 FFF7FEFF 		bl	cp_Construct
ARM GAS  C:\Users\KJA\AppData\Local\Temp\ccNNA7zi.s 			page 29


 1002 0064 0346     		mov	r3, r0
 1003 0066 1A46     		mov	r2, r3
 1004 0068 3E4B     		ldr	r3, .L53
 1005 006a DA70     		strb	r2, [r3, #3]
 592:u8glib_arm_v1.18.1\src/chessengine.c ****   lrc_obj.board[2] = cp_Construct(COLOR_WHITE, PIECE_BISHOP);
 1006              		.loc 1 592 0
 1007 006c 0020     		movs	r0, #0
 1008 006e 0321     		movs	r1, #3
 1009 0070 FFF7FEFF 		bl	cp_Construct
 1010 0074 0346     		mov	r3, r0
 1011 0076 1A46     		mov	r2, r3
 1012 0078 3A4B     		ldr	r3, .L53
 1013 007a 1A71     		strb	r2, [r3, #4]
 593:u8glib_arm_v1.18.1\src/chessengine.c ****   lrc_obj.board[3] = cp_Construct(COLOR_WHITE, PIECE_QUEEN);
 1014              		.loc 1 593 0
 1015 007c 0020     		movs	r0, #0
 1016 007e 0521     		movs	r1, #5
 1017 0080 FFF7FEFF 		bl	cp_Construct
 1018 0084 0346     		mov	r3, r0
 1019 0086 1A46     		mov	r2, r3
 1020 0088 364B     		ldr	r3, .L53
 1021 008a 5A71     		strb	r2, [r3, #5]
 594:u8glib_arm_v1.18.1\src/chessengine.c ****   lrc_obj.board[4] = cp_Construct(COLOR_WHITE, PIECE_KING);
 1022              		.loc 1 594 0
 1023 008c 0020     		movs	r0, #0
 1024 008e 0621     		movs	r1, #6
 1025 0090 FFF7FEFF 		bl	cp_Construct
 1026 0094 0346     		mov	r3, r0
 1027 0096 1A46     		mov	r2, r3
 1028 0098 324B     		ldr	r3, .L53
 1029 009a 9A71     		strb	r2, [r3, #6]
 595:u8glib_arm_v1.18.1\src/chessengine.c ****   lrc_obj.board[5] = cp_Construct(COLOR_WHITE, PIECE_BISHOP);
 1030              		.loc 1 595 0
 1031 009c 0020     		movs	r0, #0
 1032 009e 0321     		movs	r1, #3
 1033 00a0 FFF7FEFF 		bl	cp_Construct
 1034 00a4 0346     		mov	r3, r0
 1035 00a6 1A46     		mov	r2, r3
 1036 00a8 2E4B     		ldr	r3, .L53
 1037 00aa DA71     		strb	r2, [r3, #7]
 596:u8glib_arm_v1.18.1\src/chessengine.c ****   lrc_obj.board[6] = cp_Construct(COLOR_WHITE, PIECE_KNIGHT);
 1038              		.loc 1 596 0
 1039 00ac 0020     		movs	r0, #0
 1040 00ae 0221     		movs	r1, #2
 1041 00b0 FFF7FEFF 		bl	cp_Construct
 1042 00b4 0346     		mov	r3, r0
 1043 00b6 1A46     		mov	r2, r3
 1044 00b8 2A4B     		ldr	r3, .L53
 1045 00ba 1A72     		strb	r2, [r3, #8]
 597:u8glib_arm_v1.18.1\src/chessengine.c ****   lrc_obj.board[7] = cp_Construct(COLOR_WHITE, PIECE_ROOK);
 1046              		.loc 1 597 0
 1047 00bc 0020     		movs	r0, #0
 1048 00be 0421     		movs	r1, #4
 1049 00c0 FFF7FEFF 		bl	cp_Construct
 1050 00c4 0346     		mov	r3, r0
 1051 00c6 1A46     		mov	r2, r3
 1052 00c8 264B     		ldr	r3, .L53
ARM GAS  C:\Users\KJA\AppData\Local\Temp\ccNNA7zi.s 			page 30


 1053 00ca 5A72     		strb	r2, [r3, #9]
 598:u8glib_arm_v1.18.1\src/chessengine.c **** 
 599:u8glib_arm_v1.18.1\src/chessengine.c ****   lrc_obj.board[0+7*8] = cp_Construct(COLOR_BLACK, PIECE_ROOK);
 1054              		.loc 1 599 0
 1055 00cc 0120     		movs	r0, #1
 1056 00ce 0421     		movs	r1, #4
 1057 00d0 FFF7FEFF 		bl	cp_Construct
 1058 00d4 0346     		mov	r3, r0
 1059 00d6 1A46     		mov	r2, r3
 1060 00d8 224B     		ldr	r3, .L53
 1061 00da 83F83A20 		strb	r2, [r3, #58]
 600:u8glib_arm_v1.18.1\src/chessengine.c ****   lrc_obj.board[1+7*8] = cp_Construct(COLOR_BLACK, PIECE_KNIGHT);
 1062              		.loc 1 600 0
 1063 00de 0120     		movs	r0, #1
 1064 00e0 0221     		movs	r1, #2
 1065 00e2 FFF7FEFF 		bl	cp_Construct
 1066 00e6 0346     		mov	r3, r0
 1067 00e8 1A46     		mov	r2, r3
 1068 00ea 1E4B     		ldr	r3, .L53
 1069 00ec 83F83B20 		strb	r2, [r3, #59]
 601:u8glib_arm_v1.18.1\src/chessengine.c ****   lrc_obj.board[2+7*8] = cp_Construct(COLOR_BLACK, PIECE_BISHOP);
 1070              		.loc 1 601 0
 1071 00f0 0120     		movs	r0, #1
 1072 00f2 0321     		movs	r1, #3
 1073 00f4 FFF7FEFF 		bl	cp_Construct
 1074 00f8 0346     		mov	r3, r0
 1075 00fa 1A46     		mov	r2, r3
 1076 00fc 194B     		ldr	r3, .L53
 1077 00fe 83F83C20 		strb	r2, [r3, #60]
 602:u8glib_arm_v1.18.1\src/chessengine.c ****   lrc_obj.board[3+7*8] = cp_Construct(COLOR_BLACK, PIECE_QUEEN);
 1078              		.loc 1 602 0
 1079 0102 0120     		movs	r0, #1
 1080 0104 0521     		movs	r1, #5
 1081 0106 FFF7FEFF 		bl	cp_Construct
 1082 010a 0346     		mov	r3, r0
 1083 010c 1A46     		mov	r2, r3
 1084 010e 154B     		ldr	r3, .L53
 1085 0110 83F83D20 		strb	r2, [r3, #61]
 603:u8glib_arm_v1.18.1\src/chessengine.c ****   lrc_obj.board[4+7*8] = cp_Construct(COLOR_BLACK, PIECE_KING);
 1086              		.loc 1 603 0
 1087 0114 0120     		movs	r0, #1
 1088 0116 0621     		movs	r1, #6
 1089 0118 FFF7FEFF 		bl	cp_Construct
 1090 011c 0346     		mov	r3, r0
 1091 011e 1A46     		mov	r2, r3
 1092 0120 104B     		ldr	r3, .L53
 1093 0122 83F83E20 		strb	r2, [r3, #62]
 604:u8glib_arm_v1.18.1\src/chessengine.c ****   lrc_obj.board[5+7*8] = cp_Construct(COLOR_BLACK, PIECE_BISHOP);
 1094              		.loc 1 604 0
 1095 0126 0120     		movs	r0, #1
 1096 0128 0321     		movs	r1, #3
 1097 012a FFF7FEFF 		bl	cp_Construct
 1098 012e 0346     		mov	r3, r0
 1099 0130 1A46     		mov	r2, r3
 1100 0132 0C4B     		ldr	r3, .L53
 1101 0134 83F83F20 		strb	r2, [r3, #63]
 605:u8glib_arm_v1.18.1\src/chessengine.c ****   lrc_obj.board[6+7*8] = cp_Construct(COLOR_BLACK, PIECE_KNIGHT);
ARM GAS  C:\Users\KJA\AppData\Local\Temp\ccNNA7zi.s 			page 31


 1102              		.loc 1 605 0
 1103 0138 0120     		movs	r0, #1
 1104 013a 0221     		movs	r1, #2
 1105 013c FFF7FEFF 		bl	cp_Construct
 1106 0140 0346     		mov	r3, r0
 1107 0142 1A46     		mov	r2, r3
 1108 0144 074B     		ldr	r3, .L53
 1109 0146 83F84020 		strb	r2, [r3, #64]
 606:u8glib_arm_v1.18.1\src/chessengine.c ****   lrc_obj.board[7+7*8] = cp_Construct(COLOR_BLACK, PIECE_ROOK);
 1110              		.loc 1 606 0
 1111 014a 0120     		movs	r0, #1
 1112 014c 0421     		movs	r1, #4
 1113 014e FFF7FEFF 		bl	cp_Construct
 1114 0152 0346     		mov	r3, r0
 1115 0154 1A46     		mov	r2, r3
 1116 0156 034B     		ldr	r3, .L53
 1117 0158 83F84120 		strb	r2, [r3, #65]
 607:u8glib_arm_v1.18.1\src/chessengine.c **** 
 608:u8glib_arm_v1.18.1\src/chessengine.c ****   //chess_SetupBoardTest01();
 609:u8glib_arm_v1.18.1\src/chessengine.c **** 
 610:u8glib_arm_v1.18.1\src/chessengine.c **** }
 1118              		.loc 1 610 0
 1119 015c 0837     		adds	r7, r7, #8
 1120              		.cfi_def_cfa_offset 16
 1121 015e BD46     		mov	sp, r7
 1122              		.cfi_def_cfa_register 13
 1123              		@ sp needed
 1124 0160 B0BD     		pop	{r4, r5, r7, pc}
 1125              	.L54:
 1126 0162 00BF     		.align	2
 1127              	.L53:
 1128 0164 00000000 		.word	lrc_obj
 1129              		.cfi_endproc
 1130              	.LFE16:
 1131              		.size	chess_SetupBoard, .-chess_SetupBoard
 1132              		.section	.text.cu_IsIllegalPosition,"ax",%progbits
 1133              		.align	2
 1134              		.global	cu_IsIllegalPosition
 1135              		.thumb
 1136              		.thumb_func
 1137              		.type	cu_IsIllegalPosition, %function
 1138              	cu_IsIllegalPosition:
 1139              	.LFB17:
 611:u8glib_arm_v1.18.1\src/chessengine.c **** 
 612:u8glib_arm_v1.18.1\src/chessengine.c **** 
 613:u8glib_arm_v1.18.1\src/chessengine.c **** 
 614:u8glib_arm_v1.18.1\src/chessengine.c **** /*==============================================================*/
 615:u8glib_arm_v1.18.1\src/chessengine.c **** /* checks */
 616:u8glib_arm_v1.18.1\src/chessengine.c **** /*==============================================================*/
 617:u8glib_arm_v1.18.1\src/chessengine.c **** 
 618:u8glib_arm_v1.18.1\src/chessengine.c **** /*
 619:u8glib_arm_v1.18.1\src/chessengine.c ****   checks if the position is somehow illegal
 620:u8glib_arm_v1.18.1\src/chessengine.c **** */
 621:u8glib_arm_v1.18.1\src/chessengine.c **** uint8_t cu_IsIllegalPosition(uint8_t pos, uint8_t my_color)
 622:u8glib_arm_v1.18.1\src/chessengine.c **** {
 1140              		.loc 1 622 0
 1141              		.cfi_startproc
ARM GAS  C:\Users\KJA\AppData\Local\Temp\ccNNA7zi.s 			page 32


 1142              		@ args = 0, pretend = 0, frame = 16
 1143              		@ frame_needed = 1, uses_anonymous_args = 0
 1144 0000 80B5     		push	{r7, lr}
 1145              		.cfi_def_cfa_offset 8
 1146              		.cfi_offset 7, -8
 1147              		.cfi_offset 14, -4
 1148 0002 84B0     		sub	sp, sp, #16
 1149              		.cfi_def_cfa_offset 24
 1150 0004 00AF     		add	r7, sp, #0
 1151              		.cfi_def_cfa_register 7
 1152 0006 0346     		mov	r3, r0
 1153 0008 0A46     		mov	r2, r1
 1154 000a FB71     		strb	r3, [r7, #7]
 1155 000c 1346     		mov	r3, r2
 1156 000e BB71     		strb	r3, [r7, #6]
 623:u8glib_arm_v1.18.1\src/chessengine.c ****   uint8_t board_cp;
 624:u8glib_arm_v1.18.1\src/chessengine.c ****   /* check, if the position is offboard */
 625:u8glib_arm_v1.18.1\src/chessengine.c ****   if ( gpos_IsIllegal(pos) != 0 )
 1157              		.loc 1 625 0
 1158 0010 FB79     		ldrb	r3, [r7, #7]	@ zero_extendqisi2
 1159 0012 03F08803 		and	r3, r3, #136
 1160 0016 002B     		cmp	r3, #0
 1161 0018 01D0     		beq	.L56
 626:u8glib_arm_v1.18.1\src/chessengine.c ****     return 1;
 1162              		.loc 1 626 0
 1163 001a 0123     		movs	r3, #1
 1164 001c 14E0     		b	.L57
 1165              	.L56:
 627:u8glib_arm_v1.18.1\src/chessengine.c ****   /* get the piece from the board */
 628:u8glib_arm_v1.18.1\src/chessengine.c ****   board_cp = cp_GetFromBoard(pos);
 1166              		.loc 1 628 0
 1167 001e FB79     		ldrb	r3, [r7, #7]	@ zero_extendqisi2
 1168 0020 1846     		mov	r0, r3
 1169 0022 FFF7FEFF 		bl	cp_GetFromBoard
 1170 0026 0346     		mov	r3, r0
 1171 0028 FB73     		strb	r3, [r7, #15]
 629:u8glib_arm_v1.18.1\src/chessengine.c ****   /* check if hit our own pieces */
 630:u8glib_arm_v1.18.1\src/chessengine.c ****   if ( board_cp != 0 ) 
 1172              		.loc 1 630 0
 1173 002a FB7B     		ldrb	r3, [r7, #15]	@ zero_extendqisi2
 1174 002c 002B     		cmp	r3, #0
 1175 002e 0AD0     		beq	.L58
 631:u8glib_arm_v1.18.1\src/chessengine.c ****     if ( cp_GetColor(board_cp) == my_color )
 1176              		.loc 1 631 0
 1177 0030 FB7B     		ldrb	r3, [r7, #15]	@ zero_extendqisi2
 1178 0032 1846     		mov	r0, r3
 1179 0034 FFF7FEFF 		bl	cp_GetColor
 1180 0038 0346     		mov	r3, r0
 1181 003a 1A46     		mov	r2, r3
 1182 003c BB79     		ldrb	r3, [r7, #6]	@ zero_extendqisi2
 1183 003e 9342     		cmp	r3, r2
 1184 0040 01D1     		bne	.L58
 632:u8glib_arm_v1.18.1\src/chessengine.c ****       return 1;
 1185              		.loc 1 632 0
 1186 0042 0123     		movs	r3, #1
 1187 0044 00E0     		b	.L57
 1188              	.L58:
ARM GAS  C:\Users\KJA\AppData\Local\Temp\ccNNA7zi.s 			page 33


 633:u8glib_arm_v1.18.1\src/chessengine.c ****   /* all ok, we could go to this position */
 634:u8glib_arm_v1.18.1\src/chessengine.c ****   return 0;
 1189              		.loc 1 634 0
 1190 0046 0023     		movs	r3, #0
 1191              	.L57:
 635:u8glib_arm_v1.18.1\src/chessengine.c **** }
 1192              		.loc 1 635 0
 1193 0048 1846     		mov	r0, r3
 1194 004a 1037     		adds	r7, r7, #16
 1195              		.cfi_def_cfa_offset 8
 1196 004c BD46     		mov	sp, r7
 1197              		.cfi_def_cfa_register 13
 1198              		@ sp needed
 1199 004e 80BD     		pop	{r7, pc}
 1200              		.cfi_endproc
 1201              	.LFE17:
 1202              		.size	cu_IsIllegalPosition, .-cu_IsIllegalPosition
 1203              		.global	ce_piece_weight
 1204              		.data
 1205              		.align	2
 1206              		.type	ce_piece_weight, %object
 1207              		.size	ce_piece_weight, 7
 1208              	ce_piece_weight:
 1209 0000 00       		.byte	0
 1210 0001 01       		.byte	1
 1211 0002 03       		.byte	3
 1212 0003 03       		.byte	3
 1213 0004 05       		.byte	5
 1214 0005 09       		.byte	9
 1215 0006 00       		.byte	0
 1216              		.global	ce_pos_weight
 1217 0007 00       		.align	2
 1218              		.type	ce_pos_weight, %object
 1219              		.size	ce_pos_weight, 8
 1220              	ce_pos_weight:
 1221 0008 00       		.byte	0
 1222 0009 01       		.byte	1
 1223 000a 01       		.byte	1
 1224 000b 02       		.byte	2
 1225 000c 02       		.byte	2
 1226 000d 01       		.byte	1
 1227 000e 01       		.byte	1
 1228 000f 00       		.byte	0
 1229              		.section	.text.ce_Eval,"ax",%progbits
 1230              		.align	2
 1231              		.global	ce_Eval
 1232              		.thumb
 1233              		.thumb_func
 1234              		.type	ce_Eval, %function
 1235              	ce_Eval:
 1236              	.LFB18:
 636:u8glib_arm_v1.18.1\src/chessengine.c **** 
 637:u8glib_arm_v1.18.1\src/chessengine.c **** /*==============================================================*/
 638:u8glib_arm_v1.18.1\src/chessengine.c **** /* evaluation procedure */
 639:u8glib_arm_v1.18.1\src/chessengine.c **** /*==============================================================*/
 640:u8glib_arm_v1.18.1\src/chessengine.c **** 
 641:u8glib_arm_v1.18.1\src/chessengine.c **** /*
ARM GAS  C:\Users\KJA\AppData\Local\Temp\ccNNA7zi.s 			page 34


 642:u8glib_arm_v1.18.1\src/chessengine.c ****   basic idea is to return a value between EVAL_T_MIN and EVAL_T_MAX
 643:u8glib_arm_v1.18.1\src/chessengine.c **** */
 644:u8glib_arm_v1.18.1\src/chessengine.c **** 
 645:u8glib_arm_v1.18.1\src/chessengine.c **** /*
 646:u8glib_arm_v1.18.1\src/chessengine.c ****   the weight table uses the PIECE number as index:
 647:u8glib_arm_v1.18.1\src/chessengine.c ****       #define PIECE_NONE	0
 648:u8glib_arm_v1.18.1\src/chessengine.c ****       #define PIECE_PAWN 	1
 649:u8glib_arm_v1.18.1\src/chessengine.c ****       #define PIECE_KNIGHT  	2
 650:u8glib_arm_v1.18.1\src/chessengine.c ****       #define PIECE_BISHOP 	3
 651:u8glib_arm_v1.18.1\src/chessengine.c ****       #define PIECE_ROOK	4
 652:u8glib_arm_v1.18.1\src/chessengine.c ****       #define PIECE_QUEEN 	5
 653:u8glib_arm_v1.18.1\src/chessengine.c ****       #define PIECE_KING		6
 654:u8glib_arm_v1.18.1\src/chessengine.c ****   the king itself is not counted
 655:u8glib_arm_v1.18.1\src/chessengine.c **** */
 656:u8glib_arm_v1.18.1\src/chessengine.c **** uint8_t ce_piece_weight[] = { 0, 1, 3, 3, 5, 9, 0 };
 657:u8glib_arm_v1.18.1\src/chessengine.c **** uint8_t ce_pos_weight[] = { 0, 1, 1, 2, 2, 1, 1, 0};
 658:u8glib_arm_v1.18.1\src/chessengine.c **** /*
 659:u8glib_arm_v1.18.1\src/chessengine.c ****   evaluate the current situation on the global board
 660:u8glib_arm_v1.18.1\src/chessengine.c **** */
 661:u8glib_arm_v1.18.1\src/chessengine.c **** eval_t ce_Eval(void)
 662:u8glib_arm_v1.18.1\src/chessengine.c **** {
 1237              		.loc 1 662 0
 1238              		.cfi_startproc
 1239              		@ args = 0, pretend = 0, frame = 16
 1240              		@ frame_needed = 1, uses_anonymous_args = 0
 1241 0000 90B5     		push	{r4, r7, lr}
 1242              		.cfi_def_cfa_offset 12
 1243              		.cfi_offset 4, -12
 1244              		.cfi_offset 7, -8
 1245              		.cfi_offset 14, -4
 1246 0002 85B0     		sub	sp, sp, #20
 1247              		.cfi_def_cfa_offset 32
 1248 0004 00AF     		add	r7, sp, #0
 1249              		.cfi_def_cfa_register 7
 663:u8glib_arm_v1.18.1\src/chessengine.c ****   uint8_t cp;
 664:u8glib_arm_v1.18.1\src/chessengine.c ****   uint8_t is_my_king_present = 0;
 1250              		.loc 1 664 0
 1251 0006 0023     		movs	r3, #0
 1252 0008 FB73     		strb	r3, [r7, #15]
 665:u8glib_arm_v1.18.1\src/chessengine.c ****   uint8_t is_opposit_king_present = 0;
 1253              		.loc 1 665 0
 1254 000a 0023     		movs	r3, #0
 1255 000c BB73     		strb	r3, [r7, #14]
 666:u8glib_arm_v1.18.1\src/chessengine.c ****   eval_t material_my_color = 0;
 1256              		.loc 1 666 0
 1257 000e 0023     		movs	r3, #0
 1258 0010 BB81     		strh	r3, [r7, #12]	@ movhi
 667:u8glib_arm_v1.18.1\src/chessengine.c ****   eval_t material_opposit_color = 0;
 1259              		.loc 1 667 0
 1260 0012 0023     		movs	r3, #0
 1261 0014 7B81     		strh	r3, [r7, #10]	@ movhi
 668:u8glib_arm_v1.18.1\src/chessengine.c ****   eval_t position_my_color = 0;
 1262              		.loc 1 668 0
 1263 0016 0023     		movs	r3, #0
 1264 0018 3B81     		strh	r3, [r7, #8]	@ movhi
 669:u8glib_arm_v1.18.1\src/chessengine.c ****   eval_t position_opposit_color = 0;
 1265              		.loc 1 669 0
ARM GAS  C:\Users\KJA\AppData\Local\Temp\ccNNA7zi.s 			page 35


 1266 001a 0023     		movs	r3, #0
 1267 001c FB80     		strh	r3, [r7, #6]	@ movhi
 670:u8glib_arm_v1.18.1\src/chessengine.c ****   eval_t result;
 671:u8glib_arm_v1.18.1\src/chessengine.c ****   uint8_t pos;
 672:u8glib_arm_v1.18.1\src/chessengine.c ****   
 673:u8glib_arm_v1.18.1\src/chessengine.c ****   pos = 0;
 1268              		.loc 1 673 0
 1269 001e 0023     		movs	r3, #0
 1270 0020 7B71     		strb	r3, [r7, #5]
 1271              	.L67:
 674:u8glib_arm_v1.18.1\src/chessengine.c ****   do
 675:u8glib_arm_v1.18.1\src/chessengine.c ****   {
 676:u8glib_arm_v1.18.1\src/chessengine.c ****     /* get colored piece from the board */
 677:u8glib_arm_v1.18.1\src/chessengine.c ****     cp = cp_GetFromBoard(pos);
 1272              		.loc 1 677 0
 1273 0022 7B79     		ldrb	r3, [r7, #5]	@ zero_extendqisi2
 1274 0024 1846     		mov	r0, r3
 1275 0026 FFF7FEFF 		bl	cp_GetFromBoard
 1276 002a 0346     		mov	r3, r0
 1277 002c 3B71     		strb	r3, [r7, #4]
 678:u8glib_arm_v1.18.1\src/chessengine.c ****     
 679:u8glib_arm_v1.18.1\src/chessengine.c ****     if ( cp_GetPiece(cp) != PIECE_NONE )
 1278              		.loc 1 679 0
 1279 002e 3B79     		ldrb	r3, [r7, #4]	@ zero_extendqisi2
 1280 0030 1846     		mov	r0, r3
 1281 0032 FFF7FEFF 		bl	cp_GetPiece
 1282 0036 0346     		mov	r3, r0
 1283 0038 002B     		cmp	r3, #0
 1284 003a 7DD0     		beq	.L60
 680:u8glib_arm_v1.18.1\src/chessengine.c ****     {
 681:u8glib_arm_v1.18.1\src/chessengine.c ****       if ( stack_GetCurrElement()->current_color == cp_GetColor(cp) )
 1285              		.loc 1 681 0
 1286 003c FFF7FEFF 		bl	stack_GetCurrElement
 1287 0040 0346     		mov	r3, r0
 1288 0042 9C78     		ldrb	r4, [r3, #2]	@ zero_extendqisi2
 1289 0044 3B79     		ldrb	r3, [r7, #4]	@ zero_extendqisi2
 1290 0046 1846     		mov	r0, r3
 1291 0048 FFF7FEFF 		bl	cp_GetColor
 1292 004c 0346     		mov	r3, r0
 1293 004e 9C42     		cmp	r4, r3
 1294 0050 39D1     		bne	.L61
 682:u8glib_arm_v1.18.1\src/chessengine.c ****       {
 683:u8glib_arm_v1.18.1\src/chessengine.c **** 	/* this is our color */
 684:u8glib_arm_v1.18.1\src/chessengine.c **** 	/* check if we found our king */
 685:u8glib_arm_v1.18.1\src/chessengine.c **** 	if ( cp_GetPiece(cp) == PIECE_KING  )
 1295              		.loc 1 685 0
 1296 0052 3B79     		ldrb	r3, [r7, #4]	@ zero_extendqisi2
 1297 0054 1846     		mov	r0, r3
 1298 0056 FFF7FEFF 		bl	cp_GetPiece
 1299 005a 0346     		mov	r3, r0
 1300 005c 062B     		cmp	r3, #6
 1301 005e 01D1     		bne	.L62
 686:u8glib_arm_v1.18.1\src/chessengine.c **** 	  is_my_king_present = 1;
 1302              		.loc 1 686 0
 1303 0060 0123     		movs	r3, #1
 1304 0062 FB73     		strb	r3, [r7, #15]
 1305              	.L62:
ARM GAS  C:\Users\KJA\AppData\Local\Temp\ccNNA7zi.s 			page 36


 687:u8glib_arm_v1.18.1\src/chessengine.c **** 	material_my_color += ce_piece_weight[cp_GetPiece(cp)];
 1306              		.loc 1 687 0
 1307 0064 3B79     		ldrb	r3, [r7, #4]	@ zero_extendqisi2
 1308 0066 1846     		mov	r0, r3
 1309 0068 FFF7FEFF 		bl	cp_GetPiece
 1310 006c 0346     		mov	r3, r0
 1311 006e 1A46     		mov	r2, r3
 1312 0070 484B     		ldr	r3, .L71
 1313 0072 9B5C     		ldrb	r3, [r3, r2]	@ zero_extendqisi2
 1314 0074 9AB2     		uxth	r2, r3
 1315 0076 BB89     		ldrh	r3, [r7, #12]
 1316 0078 1344     		add	r3, r3, r2
 1317 007a 9BB2     		uxth	r3, r3
 1318 007c BB81     		strh	r3, [r7, #12]	@ movhi
 688:u8glib_arm_v1.18.1\src/chessengine.c **** 	if ( cp_GetPiece(cp) == PIECE_PAWN || cp_GetPiece(cp) == PIECE_KNIGHT  )
 1319              		.loc 1 688 0
 1320 007e 3B79     		ldrb	r3, [r7, #4]	@ zero_extendqisi2
 1321 0080 1846     		mov	r0, r3
 1322 0082 FFF7FEFF 		bl	cp_GetPiece
 1323 0086 0346     		mov	r3, r0
 1324 0088 012B     		cmp	r3, #1
 1325 008a 06D0     		beq	.L63
 1326              		.loc 1 688 0 is_stmt 0 discriminator 1
 1327 008c 3B79     		ldrb	r3, [r7, #4]	@ zero_extendqisi2
 1328 008e 1846     		mov	r0, r3
 1329 0090 FFF7FEFF 		bl	cp_GetPiece
 1330 0094 0346     		mov	r3, r0
 1331 0096 022B     		cmp	r3, #2
 1332 0098 4ED1     		bne	.L60
 1333              	.L63:
 689:u8glib_arm_v1.18.1\src/chessengine.c **** 	{
 690:u8glib_arm_v1.18.1\src/chessengine.c **** 	  position_my_color += ce_pos_weight[pos&7]*ce_pos_weight[(pos>>4)&7];
 1334              		.loc 1 690 0 is_stmt 1
 1335 009a 7B79     		ldrb	r3, [r7, #5]	@ zero_extendqisi2
 1336 009c 03F00703 		and	r3, r3, #7
 1337 00a0 3D4A     		ldr	r2, .L71+4
 1338 00a2 D35C     		ldrb	r3, [r2, r3]	@ zero_extendqisi2
 1339 00a4 9BB2     		uxth	r3, r3
 1340 00a6 7A79     		ldrb	r2, [r7, #5]	@ zero_extendqisi2
 1341 00a8 1209     		lsrs	r2, r2, #4
 1342 00aa D2B2     		uxtb	r2, r2
 1343 00ac 02F00702 		and	r2, r2, #7
 1344 00b0 3949     		ldr	r1, .L71+4
 1345 00b2 8A5C     		ldrb	r2, [r1, r2]	@ zero_extendqisi2
 1346 00b4 92B2     		uxth	r2, r2
 1347 00b6 02FB03F3 		mul	r3, r2, r3
 1348 00ba 9AB2     		uxth	r2, r3
 1349 00bc 3B89     		ldrh	r3, [r7, #8]
 1350 00be 1344     		add	r3, r3, r2
 1351 00c0 9BB2     		uxth	r3, r3
 1352 00c2 3B81     		strh	r3, [r7, #8]	@ movhi
 1353 00c4 38E0     		b	.L60
 1354              	.L61:
 691:u8glib_arm_v1.18.1\src/chessengine.c **** 	}
 692:u8glib_arm_v1.18.1\src/chessengine.c ****       }
 693:u8glib_arm_v1.18.1\src/chessengine.c ****       else
 694:u8glib_arm_v1.18.1\src/chessengine.c ****       {
ARM GAS  C:\Users\KJA\AppData\Local\Temp\ccNNA7zi.s 			page 37


 695:u8glib_arm_v1.18.1\src/chessengine.c **** 	/* this is the opposit color */
 696:u8glib_arm_v1.18.1\src/chessengine.c **** 	if ( cp_GetPiece(cp) == PIECE_KING  )
 1355              		.loc 1 696 0
 1356 00c6 3B79     		ldrb	r3, [r7, #4]	@ zero_extendqisi2
 1357 00c8 1846     		mov	r0, r3
 1358 00ca FFF7FEFF 		bl	cp_GetPiece
 1359 00ce 0346     		mov	r3, r0
 1360 00d0 062B     		cmp	r3, #6
 1361 00d2 01D1     		bne	.L65
 697:u8glib_arm_v1.18.1\src/chessengine.c **** 	  is_opposit_king_present = 1;
 1362              		.loc 1 697 0
 1363 00d4 0123     		movs	r3, #1
 1364 00d6 BB73     		strb	r3, [r7, #14]
 1365              	.L65:
 698:u8glib_arm_v1.18.1\src/chessengine.c **** 	material_opposit_color += ce_piece_weight[cp_GetPiece(cp)];
 1366              		.loc 1 698 0
 1367 00d8 3B79     		ldrb	r3, [r7, #4]	@ zero_extendqisi2
 1368 00da 1846     		mov	r0, r3
 1369 00dc FFF7FEFF 		bl	cp_GetPiece
 1370 00e0 0346     		mov	r3, r0
 1371 00e2 1A46     		mov	r2, r3
 1372 00e4 2B4B     		ldr	r3, .L71
 1373 00e6 9B5C     		ldrb	r3, [r3, r2]	@ zero_extendqisi2
 1374 00e8 9AB2     		uxth	r2, r3
 1375 00ea 7B89     		ldrh	r3, [r7, #10]
 1376 00ec 1344     		add	r3, r3, r2
 1377 00ee 9BB2     		uxth	r3, r3
 1378 00f0 7B81     		strh	r3, [r7, #10]	@ movhi
 699:u8glib_arm_v1.18.1\src/chessengine.c **** 	if ( cp_GetPiece(cp) == PIECE_PAWN || cp_GetPiece(cp) == PIECE_KNIGHT )
 1379              		.loc 1 699 0
 1380 00f2 3B79     		ldrb	r3, [r7, #4]	@ zero_extendqisi2
 1381 00f4 1846     		mov	r0, r3
 1382 00f6 FFF7FEFF 		bl	cp_GetPiece
 1383 00fa 0346     		mov	r3, r0
 1384 00fc 012B     		cmp	r3, #1
 1385 00fe 06D0     		beq	.L66
 1386              		.loc 1 699 0 is_stmt 0 discriminator 1
 1387 0100 3B79     		ldrb	r3, [r7, #4]	@ zero_extendqisi2
 1388 0102 1846     		mov	r0, r3
 1389 0104 FFF7FEFF 		bl	cp_GetPiece
 1390 0108 0346     		mov	r3, r0
 1391 010a 022B     		cmp	r3, #2
 1392 010c 14D1     		bne	.L60
 1393              	.L66:
 700:u8glib_arm_v1.18.1\src/chessengine.c **** 	{
 701:u8glib_arm_v1.18.1\src/chessengine.c **** 	  position_opposit_color += ce_pos_weight[pos&7]*ce_pos_weight[(pos>>4)&7];
 1394              		.loc 1 701 0 is_stmt 1
 1395 010e 7B79     		ldrb	r3, [r7, #5]	@ zero_extendqisi2
 1396 0110 03F00703 		and	r3, r3, #7
 1397 0114 204A     		ldr	r2, .L71+4
 1398 0116 D35C     		ldrb	r3, [r2, r3]	@ zero_extendqisi2
 1399 0118 9BB2     		uxth	r3, r3
 1400 011a 7A79     		ldrb	r2, [r7, #5]	@ zero_extendqisi2
 1401 011c 1209     		lsrs	r2, r2, #4
 1402 011e D2B2     		uxtb	r2, r2
 1403 0120 02F00702 		and	r2, r2, #7
 1404 0124 1C49     		ldr	r1, .L71+4
ARM GAS  C:\Users\KJA\AppData\Local\Temp\ccNNA7zi.s 			page 38


 1405 0126 8A5C     		ldrb	r2, [r1, r2]	@ zero_extendqisi2
 1406 0128 92B2     		uxth	r2, r2
 1407 012a 02FB03F3 		mul	r3, r2, r3
 1408 012e 9AB2     		uxth	r2, r3
 1409 0130 FB88     		ldrh	r3, [r7, #6]
 1410 0132 1344     		add	r3, r3, r2
 1411 0134 9BB2     		uxth	r3, r3
 1412 0136 FB80     		strh	r3, [r7, #6]	@ movhi
 1413              	.L60:
 702:u8glib_arm_v1.18.1\src/chessengine.c **** 	}
 703:u8glib_arm_v1.18.1\src/chessengine.c ****       }
 704:u8glib_arm_v1.18.1\src/chessengine.c ****     }
 705:u8glib_arm_v1.18.1\src/chessengine.c ****     pos = cu_NextPos(pos);
 1414              		.loc 1 705 0
 1415 0138 7B79     		ldrb	r3, [r7, #5]	@ zero_extendqisi2
 1416 013a 1846     		mov	r0, r3
 1417 013c FFF7FEFF 		bl	cu_NextPos
 1418 0140 0346     		mov	r3, r0
 1419 0142 7B71     		strb	r3, [r7, #5]
 706:u8glib_arm_v1.18.1\src/chessengine.c ****   } while( pos != 0 );
 1420              		.loc 1 706 0
 1421 0144 7B79     		ldrb	r3, [r7, #5]	@ zero_extendqisi2
 1422 0146 002B     		cmp	r3, #0
 1423 0148 7FF46BAF 		bne	.L67
 707:u8glib_arm_v1.18.1\src/chessengine.c **** 
 708:u8glib_arm_v1.18.1\src/chessengine.c ****     
 709:u8glib_arm_v1.18.1\src/chessengine.c ****   /* decide if we lost or won the game */
 710:u8glib_arm_v1.18.1\src/chessengine.c ****   if ( is_my_king_present == 0 )
 1424              		.loc 1 710 0
 1425 014c FB7B     		ldrb	r3, [r7, #15]	@ zero_extendqisi2
 1426 014e 002B     		cmp	r3, #0
 1427 0150 02D1     		bne	.L68
 711:u8glib_arm_v1.18.1\src/chessengine.c ****     return EVAL_T_MIN;	/*_LOST*/
 1428              		.loc 1 711 0
 1429 0152 48F20103 		movw	r3, #32769
 1430 0156 17E0     		b	.L69
 1431              	.L68:
 712:u8glib_arm_v1.18.1\src/chessengine.c ****   if ( is_opposit_king_present == 0 )
 1432              		.loc 1 712 0
 1433 0158 BB7B     		ldrb	r3, [r7, #14]	@ zero_extendqisi2
 1434 015a 002B     		cmp	r3, #0
 1435 015c 02D1     		bne	.L70
 713:u8glib_arm_v1.18.1\src/chessengine.c ****     return EVAL_T_MAX;	/*_WIN*/
 1436              		.loc 1 713 0
 1437 015e 47F6FF73 		movw	r3, #32767
 1438 0162 11E0     		b	.L69
 1439              	.L70:
 714:u8glib_arm_v1.18.1\src/chessengine.c ****   
 715:u8glib_arm_v1.18.1\src/chessengine.c ****   /* here is the evaluation function */
 716:u8glib_arm_v1.18.1\src/chessengine.c ****   
 717:u8glib_arm_v1.18.1\src/chessengine.c ****   result = material_my_color - material_opposit_color;
 1440              		.loc 1 717 0
 1441 0164 BA89     		ldrh	r2, [r7, #12]
 1442 0166 7B89     		ldrh	r3, [r7, #10]
 1443 0168 D31A     		subs	r3, r2, r3
 1444 016a 9BB2     		uxth	r3, r3
 1445 016c 7B80     		strh	r3, [r7, #2]	@ movhi
ARM GAS  C:\Users\KJA\AppData\Local\Temp\ccNNA7zi.s 			page 39


 718:u8glib_arm_v1.18.1\src/chessengine.c ****   result <<= 3;
 1446              		.loc 1 718 0
 1447 016e B7F90230 		ldrsh	r3, [r7, #2]
 1448 0172 DB00     		lsls	r3, r3, #3
 1449 0174 7B80     		strh	r3, [r7, #2]	@ movhi
 719:u8glib_arm_v1.18.1\src/chessengine.c ****   result += position_my_color - position_opposit_color;
 1450              		.loc 1 719 0
 1451 0176 3A89     		ldrh	r2, [r7, #8]
 1452 0178 FB88     		ldrh	r3, [r7, #6]
 1453 017a D31A     		subs	r3, r2, r3
 1454 017c 9AB2     		uxth	r2, r3
 1455 017e 7B88     		ldrh	r3, [r7, #2]
 1456 0180 1344     		add	r3, r3, r2
 1457 0182 9BB2     		uxth	r3, r3
 1458 0184 7B80     		strh	r3, [r7, #2]	@ movhi
 720:u8glib_arm_v1.18.1\src/chessengine.c ****   return result;
 1459              		.loc 1 720 0
 1460 0186 7B88     		ldrh	r3, [r7, #2]
 1461              	.L69:
 1462 0188 1BB2     		sxth	r3, r3
 721:u8glib_arm_v1.18.1\src/chessengine.c **** }
 1463              		.loc 1 721 0
 1464 018a 1846     		mov	r0, r3
 1465 018c 1437     		adds	r7, r7, #20
 1466              		.cfi_def_cfa_offset 12
 1467 018e BD46     		mov	sp, r7
 1468              		.cfi_def_cfa_register 13
 1469              		@ sp needed
 1470 0190 90BD     		pop	{r4, r7, pc}
 1471              	.L72:
 1472 0192 00BF     		.align	2
 1473              	.L71:
 1474 0194 00000000 		.word	ce_piece_weight
 1475 0198 00000000 		.word	ce_pos_weight
 1476              		.cfi_endproc
 1477              	.LFE18:
 1478              		.size	ce_Eval, .-ce_Eval
 1479              		.section	.text.cu_ClearMoveHistory,"ax",%progbits
 1480              		.align	2
 1481              		.global	cu_ClearMoveHistory
 1482              		.thumb
 1483              		.thumb_func
 1484              		.type	cu_ClearMoveHistory, %function
 1485              	cu_ClearMoveHistory:
 1486              	.LFB19:
 722:u8glib_arm_v1.18.1\src/chessengine.c **** 
 723:u8glib_arm_v1.18.1\src/chessengine.c **** /*==============================================================*/
 724:u8glib_arm_v1.18.1\src/chessengine.c **** /* move backup and restore */
 725:u8glib_arm_v1.18.1\src/chessengine.c **** /*==============================================================*/
 726:u8glib_arm_v1.18.1\src/chessengine.c **** 
 727:u8glib_arm_v1.18.1\src/chessengine.c **** 
 728:u8glib_arm_v1.18.1\src/chessengine.c **** /* this procedure must be called to keep the size as low as possible */
 729:u8glib_arm_v1.18.1\src/chessengine.c **** /* if the chm_list is large enough, it could hold the complete history */
 730:u8glib_arm_v1.18.1\src/chessengine.c **** /* but for an embedded controler... it is deleted for every engine search */
 731:u8glib_arm_v1.18.1\src/chessengine.c **** void cu_ClearMoveHistory(void)
 732:u8glib_arm_v1.18.1\src/chessengine.c **** {
 1487              		.loc 1 732 0
ARM GAS  C:\Users\KJA\AppData\Local\Temp\ccNNA7zi.s 			page 40


 1488              		.cfi_startproc
 1489              		@ args = 0, pretend = 0, frame = 0
 1490              		@ frame_needed = 1, uses_anonymous_args = 0
 1491              		@ link register save eliminated.
 1492 0000 80B4     		push	{r7}
 1493              		.cfi_def_cfa_offset 4
 1494              		.cfi_offset 7, -4
 1495 0002 00AF     		add	r7, sp, #0
 1496              		.cfi_def_cfa_register 7
 733:u8glib_arm_v1.18.1\src/chessengine.c ****   lrc_obj.chm_pos = 0;
 1497              		.loc 1 733 0
 1498 0004 034B     		ldr	r3, .L74
 1499 0006 0022     		movs	r2, #0
 1500 0008 5A70     		strb	r2, [r3, #1]
 734:u8glib_arm_v1.18.1\src/chessengine.c **** }
 1501              		.loc 1 734 0
 1502 000a BD46     		mov	sp, r7
 1503              		.cfi_def_cfa_register 13
 1504              		@ sp needed
 1505 000c 5DF8047B 		ldr	r7, [sp], #4
 1506              		.cfi_restore 7
 1507              		.cfi_def_cfa_offset 0
 1508 0010 7047     		bx	lr
 1509              	.L75:
 1510 0012 00BF     		.align	2
 1511              	.L74:
 1512 0014 00000000 		.word	lrc_obj
 1513              		.cfi_endproc
 1514              	.LFE19:
 1515              		.size	cu_ClearMoveHistory, .-cu_ClearMoveHistory
 1516              		.section	.text.cu_ReduceHistoryByFullMove,"ax",%progbits
 1517              		.align	2
 1518              		.global	cu_ReduceHistoryByFullMove
 1519              		.thumb
 1520              		.thumb_func
 1521              		.type	cu_ReduceHistoryByFullMove, %function
 1522              	cu_ReduceHistoryByFullMove:
 1523              	.LFB20:
 735:u8glib_arm_v1.18.1\src/chessengine.c **** 
 736:u8glib_arm_v1.18.1\src/chessengine.c **** void cu_ReduceHistoryByFullMove(void)
 737:u8glib_arm_v1.18.1\src/chessengine.c **** {
 1524              		.loc 1 737 0
 1525              		.cfi_startproc
 1526              		@ args = 0, pretend = 0, frame = 8
 1527              		@ frame_needed = 1, uses_anonymous_args = 0
 1528              		@ link register save eliminated.
 1529 0000 80B4     		push	{r7}
 1530              		.cfi_def_cfa_offset 4
 1531              		.cfi_offset 7, -4
 1532 0002 83B0     		sub	sp, sp, #12
 1533              		.cfi_def_cfa_offset 16
 1534 0004 00AF     		add	r7, sp, #0
 1535              		.cfi_def_cfa_register 7
 738:u8glib_arm_v1.18.1\src/chessengine.c ****   uint8_t i;
 739:u8glib_arm_v1.18.1\src/chessengine.c ****   while( lrc_obj.chm_pos > CHM_USER_SIZE )
 1536              		.loc 1 739 0
 1537 0006 2AE0     		b	.L77
ARM GAS  C:\Users\KJA\AppData\Local\Temp\ccNNA7zi.s 			page 41


 1538              	.L81:
 740:u8glib_arm_v1.18.1\src/chessengine.c ****   {
 741:u8glib_arm_v1.18.1\src/chessengine.c ****     i = 0;
 1539              		.loc 1 741 0
 1540 0008 0023     		movs	r3, #0
 1541 000a FB71     		strb	r3, [r7, #7]
 1542              	.L80:
 742:u8glib_arm_v1.18.1\src/chessengine.c ****     for(;;)
 743:u8glib_arm_v1.18.1\src/chessengine.c ****     {
 744:u8glib_arm_v1.18.1\src/chessengine.c ****       if ( i+2 >= lrc_obj.chm_pos )
 1543              		.loc 1 744 0
 1544 000c FB79     		ldrb	r3, [r7, #7]	@ zero_extendqisi2
 1545 000e 0233     		adds	r3, r3, #2
 1546 0010 174A     		ldr	r2, .L83
 1547 0012 5278     		ldrb	r2, [r2, #1]	@ zero_extendqisi2
 1548 0014 9342     		cmp	r3, r2
 1549 0016 00DB     		blt	.L78
 745:u8glib_arm_v1.18.1\src/chessengine.c **** 	break;
 1550              		.loc 1 745 0
 1551 0018 1BE0     		b	.L82
 1552              	.L78:
 746:u8glib_arm_v1.18.1\src/chessengine.c ****       lrc_obj.chm_list[i] = lrc_obj.chm_list[i+2];
 1553              		.loc 1 746 0
 1554 001a F979     		ldrb	r1, [r7, #7]	@ zero_extendqisi2
 1555 001c FB79     		ldrb	r3, [r7, #7]	@ zero_extendqisi2
 1556 001e 9A1C     		adds	r2, r3, #2
 1557 0020 1348     		ldr	r0, .L83
 1558 0022 0B46     		mov	r3, r1
 1559 0024 DB00     		lsls	r3, r3, #3
 1560 0026 0B44     		add	r3, r3, r1
 1561 0028 0344     		add	r3, r3, r0
 1562 002a 03F18000 		add	r0, r3, #128
 1563 002e 1049     		ldr	r1, .L83
 1564 0030 1346     		mov	r3, r2
 1565 0032 DB00     		lsls	r3, r3, #3
 1566 0034 1344     		add	r3, r3, r2
 1567 0036 0B44     		add	r3, r3, r1
 1568 0038 03F18002 		add	r2, r3, #128
 1569 003c 0346     		mov	r3, r0
 1570 003e 1068     		ldr	r0, [r2]	@ unaligned
 1571 0040 5168     		ldr	r1, [r2, #4]	@ unaligned
 1572 0042 1860     		str	r0, [r3]	@ unaligned
 1573 0044 5960     		str	r1, [r3, #4]	@ unaligned
 1574 0046 127A     		ldrb	r2, [r2, #8]
 1575 0048 1A72     		strb	r2, [r3, #8]
 747:u8glib_arm_v1.18.1\src/chessengine.c ****       i++;
 1576              		.loc 1 747 0
 1577 004a FB79     		ldrb	r3, [r7, #7]	@ zero_extendqisi2
 1578 004c 0133     		adds	r3, r3, #1
 1579 004e FB71     		strb	r3, [r7, #7]
 748:u8glib_arm_v1.18.1\src/chessengine.c ****     }
 1580              		.loc 1 748 0
 1581 0050 DCE7     		b	.L80
 1582              	.L82:
 749:u8glib_arm_v1.18.1\src/chessengine.c ****     lrc_obj.chm_pos -= 2;
 1583              		.loc 1 749 0
 1584 0052 074B     		ldr	r3, .L83
ARM GAS  C:\Users\KJA\AppData\Local\Temp\ccNNA7zi.s 			page 42


 1585 0054 5B78     		ldrb	r3, [r3, #1]	@ zero_extendqisi2
 1586 0056 023B     		subs	r3, r3, #2
 1587 0058 DAB2     		uxtb	r2, r3
 1588 005a 054B     		ldr	r3, .L83
 1589 005c 5A70     		strb	r2, [r3, #1]
 1590              	.L77:
 739:u8glib_arm_v1.18.1\src/chessengine.c ****   {
 1591              		.loc 1 739 0
 1592 005e 044B     		ldr	r3, .L83
 1593 0060 5B78     		ldrb	r3, [r3, #1]	@ zero_extendqisi2
 1594 0062 062B     		cmp	r3, #6
 1595 0064 D0D8     		bhi	.L81
 750:u8glib_arm_v1.18.1\src/chessengine.c ****   }
 751:u8glib_arm_v1.18.1\src/chessengine.c **** }
 1596              		.loc 1 751 0
 1597 0066 0C37     		adds	r7, r7, #12
 1598              		.cfi_def_cfa_offset 4
 1599 0068 BD46     		mov	sp, r7
 1600              		.cfi_def_cfa_register 13
 1601              		@ sp needed
 1602 006a 5DF8047B 		ldr	r7, [sp], #4
 1603              		.cfi_restore 7
 1604              		.cfi_def_cfa_offset 0
 1605 006e 7047     		bx	lr
 1606              	.L84:
 1607              		.align	2
 1608              	.L83:
 1609 0070 00000000 		.word	lrc_obj
 1610              		.cfi_endproc
 1611              	.LFE20:
 1612              		.size	cu_ReduceHistoryByFullMove, .-cu_ReduceHistoryByFullMove
 1613              		.section	.text.cu_UndoHalfMove,"ax",%progbits
 1614              		.align	2
 1615              		.global	cu_UndoHalfMove
 1616              		.thumb
 1617              		.thumb_func
 1618              		.type	cu_UndoHalfMove, %function
 1619              	cu_UndoHalfMove:
 1620              	.LFB21:
 752:u8glib_arm_v1.18.1\src/chessengine.c **** 
 753:u8glib_arm_v1.18.1\src/chessengine.c **** void cu_UndoHalfMove(void)
 754:u8glib_arm_v1.18.1\src/chessengine.c **** {
 1621              		.loc 1 754 0
 1622              		.cfi_startproc
 1623              		@ args = 0, pretend = 0, frame = 8
 1624              		@ frame_needed = 1, uses_anonymous_args = 0
 1625 0000 80B5     		push	{r7, lr}
 1626              		.cfi_def_cfa_offset 8
 1627              		.cfi_offset 7, -8
 1628              		.cfi_offset 14, -4
 1629 0002 82B0     		sub	sp, sp, #8
 1630              		.cfi_def_cfa_offset 16
 1631 0004 00AF     		add	r7, sp, #0
 1632              		.cfi_def_cfa_register 7
 755:u8glib_arm_v1.18.1\src/chessengine.c ****   chm_p chm;
 756:u8glib_arm_v1.18.1\src/chessengine.c ****   
 757:u8glib_arm_v1.18.1\src/chessengine.c ****   if ( lrc_obj.chm_pos == 0 )
ARM GAS  C:\Users\KJA\AppData\Local\Temp\ccNNA7zi.s 			page 43


 1633              		.loc 1 757 0
 1634 0006 254B     		ldr	r3, .L89
 1635 0008 5B78     		ldrb	r3, [r3, #1]	@ zero_extendqisi2
 1636 000a 002B     		cmp	r3, #0
 1637 000c 00D1     		bne	.L86
 758:u8glib_arm_v1.18.1\src/chessengine.c ****     return;
 1638              		.loc 1 758 0
 1639 000e 42E0     		b	.L85
 1640              	.L86:
 759:u8glib_arm_v1.18.1\src/chessengine.c ****   
 760:u8glib_arm_v1.18.1\src/chessengine.c ****   lrc_obj.chm_pos--;
 1641              		.loc 1 760 0
 1642 0010 224B     		ldr	r3, .L89
 1643 0012 5B78     		ldrb	r3, [r3, #1]	@ zero_extendqisi2
 1644 0014 013B     		subs	r3, r3, #1
 1645 0016 DAB2     		uxtb	r2, r3
 1646 0018 204B     		ldr	r3, .L89
 1647 001a 5A70     		strb	r2, [r3, #1]
 761:u8glib_arm_v1.18.1\src/chessengine.c **** 
 762:u8glib_arm_v1.18.1\src/chessengine.c ****   chm = lrc_obj.chm_list+lrc_obj.chm_pos;
 1648              		.loc 1 762 0
 1649 001c 1F4B     		ldr	r3, .L89
 1650 001e 5B78     		ldrb	r3, [r3, #1]	@ zero_extendqisi2
 1651 0020 1A46     		mov	r2, r3
 1652 0022 1346     		mov	r3, r2
 1653 0024 DB00     		lsls	r3, r3, #3
 1654 0026 1344     		add	r3, r3, r2
 1655 0028 8033     		adds	r3, r3, #128
 1656 002a 1C4A     		ldr	r2, .L89
 1657 002c 1344     		add	r3, r3, r2
 1658 002e 7B60     		str	r3, [r7, #4]
 763:u8glib_arm_v1.18.1\src/chessengine.c ****   
 764:u8glib_arm_v1.18.1\src/chessengine.c ****   lrc_obj.pawn_dbl_move[0] = chm->pawn_dbl_move[0];
 1659              		.loc 1 764 0
 1660 0030 7B68     		ldr	r3, [r7, #4]
 1661 0032 9A79     		ldrb	r2, [r3, #6]	@ zero_extendqisi2
 1662 0034 194B     		ldr	r3, .L89
 1663 0036 83F84220 		strb	r2, [r3, #66]
 765:u8glib_arm_v1.18.1\src/chessengine.c ****   lrc_obj.pawn_dbl_move[1] = chm->pawn_dbl_move[1];
 1664              		.loc 1 765 0
 1665 003a 7B68     		ldr	r3, [r7, #4]
 1666 003c DA79     		ldrb	r2, [r3, #7]	@ zero_extendqisi2
 1667 003e 174B     		ldr	r3, .L89
 1668 0040 83F84320 		strb	r2, [r3, #67]
 766:u8glib_arm_v1.18.1\src/chessengine.c ****   lrc_obj.castling_possible = chm->castling_possible;
 1669              		.loc 1 766 0
 1670 0044 7B68     		ldr	r3, [r7, #4]
 1671 0046 1A7A     		ldrb	r2, [r3, #8]	@ zero_extendqisi2
 1672 0048 144B     		ldr	r3, .L89
 1673 004a 83F84420 		strb	r2, [r3, #68]
 767:u8glib_arm_v1.18.1\src/chessengine.c ****   
 768:u8glib_arm_v1.18.1\src/chessengine.c ****   cp_SetOnBoard(chm->main_src, chm->main_cp);
 1674              		.loc 1 768 0
 1675 004e 7B68     		ldr	r3, [r7, #4]
 1676 0050 5A78     		ldrb	r2, [r3, #1]	@ zero_extendqisi2
 1677 0052 7B68     		ldr	r3, [r7, #4]
 1678 0054 1B78     		ldrb	r3, [r3]	@ zero_extendqisi2
ARM GAS  C:\Users\KJA\AppData\Local\Temp\ccNNA7zi.s 			page 44


 1679 0056 1046     		mov	r0, r2
 1680 0058 1946     		mov	r1, r3
 1681 005a FFF7FEFF 		bl	cp_SetOnBoard
 769:u8glib_arm_v1.18.1\src/chessengine.c ****   cp_SetOnBoard(chm->main_dest, PIECE_NONE);
 1682              		.loc 1 769 0
 1683 005e 7B68     		ldr	r3, [r7, #4]
 1684 0060 9B78     		ldrb	r3, [r3, #2]	@ zero_extendqisi2
 1685 0062 1846     		mov	r0, r3
 1686 0064 0021     		movs	r1, #0
 1687 0066 FFF7FEFF 		bl	cp_SetOnBoard
 770:u8glib_arm_v1.18.1\src/chessengine.c ****   
 771:u8glib_arm_v1.18.1\src/chessengine.c ****   if ( chm->other_src != ILLEGAL_POSITION )
 1688              		.loc 1 771 0
 1689 006a 7B68     		ldr	r3, [r7, #4]
 1690 006c 1B79     		ldrb	r3, [r3, #4]	@ zero_extendqisi2
 1691 006e FF2B     		cmp	r3, #255
 1692 0070 07D0     		beq	.L88
 772:u8glib_arm_v1.18.1\src/chessengine.c ****     cp_SetOnBoard(chm->other_src, chm->other_cp);
 1693              		.loc 1 772 0
 1694 0072 7B68     		ldr	r3, [r7, #4]
 1695 0074 1A79     		ldrb	r2, [r3, #4]	@ zero_extendqisi2
 1696 0076 7B68     		ldr	r3, [r7, #4]
 1697 0078 DB78     		ldrb	r3, [r3, #3]	@ zero_extendqisi2
 1698 007a 1046     		mov	r0, r2
 1699 007c 1946     		mov	r1, r3
 1700 007e FFF7FEFF 		bl	cp_SetOnBoard
 1701              	.L88:
 773:u8glib_arm_v1.18.1\src/chessengine.c ****   if ( chm->other_dest != ILLEGAL_POSITION )
 1702              		.loc 1 773 0
 1703 0082 7B68     		ldr	r3, [r7, #4]
 1704 0084 5B79     		ldrb	r3, [r3, #5]	@ zero_extendqisi2
 1705 0086 FF2B     		cmp	r3, #255
 1706 0088 05D0     		beq	.L85
 774:u8glib_arm_v1.18.1\src/chessengine.c ****     cp_SetOnBoard(chm->other_dest, PIECE_NONE);
 1707              		.loc 1 774 0
 1708 008a 7B68     		ldr	r3, [r7, #4]
 1709 008c 5B79     		ldrb	r3, [r3, #5]	@ zero_extendqisi2
 1710 008e 1846     		mov	r0, r3
 1711 0090 0021     		movs	r1, #0
 1712 0092 FFF7FEFF 		bl	cp_SetOnBoard
 1713              	.L85:
 775:u8glib_arm_v1.18.1\src/chessengine.c **** 
 776:u8glib_arm_v1.18.1\src/chessengine.c **** }
 1714              		.loc 1 776 0
 1715 0096 0837     		adds	r7, r7, #8
 1716              		.cfi_def_cfa_offset 8
 1717 0098 BD46     		mov	sp, r7
 1718              		.cfi_def_cfa_register 13
 1719              		@ sp needed
 1720 009a 80BD     		pop	{r7, pc}
 1721              	.L90:
 1722              		.align	2
 1723              	.L89:
 1724 009c 00000000 		.word	lrc_obj
 1725              		.cfi_endproc
 1726              	.LFE21:
 1727              		.size	cu_UndoHalfMove, .-cu_UndoHalfMove
ARM GAS  C:\Users\KJA\AppData\Local\Temp\ccNNA7zi.s 			page 45


 1728              		.section	.text.cu_PushHalfMove,"ax",%progbits
 1729              		.align	2
 1730              		.global	cu_PushHalfMove
 1731              		.thumb
 1732              		.thumb_func
 1733              		.type	cu_PushHalfMove, %function
 1734              	cu_PushHalfMove:
 1735              	.LFB22:
 777:u8glib_arm_v1.18.1\src/chessengine.c **** 
 778:u8glib_arm_v1.18.1\src/chessengine.c **** /*
 779:u8glib_arm_v1.18.1\src/chessengine.c ****   assumes, that the following members of the returned chm structure are filled 
 780:u8glib_arm_v1.18.1\src/chessengine.c ****   uint8_t main_cp;		the main piece, which is moved
 781:u8glib_arm_v1.18.1\src/chessengine.c ****   uint8_t main_src;		the source position of the main piece
 782:u8glib_arm_v1.18.1\src/chessengine.c ****   uint8_t main_dest; 	the destination of the main piece
 783:u8glib_arm_v1.18.1\src/chessengine.c ****   
 784:u8glib_arm_v1.18.1\src/chessengine.c ****   uint8_t other_cp;		another piece: the captured one, the ROOK in case of castling or PIECE_NONE
 785:u8glib_arm_v1.18.1\src/chessengine.c ****   uint8_t other_src;		the delete position of other_cp. Often identical to main_dest except for e.p.
 786:u8glib_arm_v1.18.1\src/chessengine.c ****   uint8_t other_dest;		only used for castling: ROOK destination pos
 787:u8glib_arm_v1.18.1\src/chessengine.c **** 
 788:u8glib_arm_v1.18.1\src/chessengine.c **** */
 789:u8glib_arm_v1.18.1\src/chessengine.c **** chm_p cu_PushHalfMove(void)
 790:u8glib_arm_v1.18.1\src/chessengine.c **** {
 1736              		.loc 1 790 0
 1737              		.cfi_startproc
 1738              		@ args = 0, pretend = 0, frame = 8
 1739              		@ frame_needed = 1, uses_anonymous_args = 0
 1740              		@ link register save eliminated.
 1741 0000 80B4     		push	{r7}
 1742              		.cfi_def_cfa_offset 4
 1743              		.cfi_offset 7, -4
 1744 0002 83B0     		sub	sp, sp, #12
 1745              		.cfi_def_cfa_offset 16
 1746 0004 00AF     		add	r7, sp, #0
 1747              		.cfi_def_cfa_register 7
 791:u8glib_arm_v1.18.1\src/chessengine.c ****   chm_p chm;
 792:u8glib_arm_v1.18.1\src/chessengine.c ****   
 793:u8glib_arm_v1.18.1\src/chessengine.c ****   chm = lrc_obj.chm_list+lrc_obj.chm_pos;
 1748              		.loc 1 793 0
 1749 0006 154B     		ldr	r3, .L94
 1750 0008 5B78     		ldrb	r3, [r3, #1]	@ zero_extendqisi2
 1751 000a 1A46     		mov	r2, r3
 1752 000c 1346     		mov	r3, r2
 1753 000e DB00     		lsls	r3, r3, #3
 1754 0010 1344     		add	r3, r3, r2
 1755 0012 8033     		adds	r3, r3, #128
 1756 0014 114A     		ldr	r2, .L94
 1757 0016 1344     		add	r3, r3, r2
 1758 0018 7B60     		str	r3, [r7, #4]
 794:u8glib_arm_v1.18.1\src/chessengine.c ****   if ( lrc_obj.chm_pos < CHM_LIST_SIZE-1)
 1759              		.loc 1 794 0
 1760 001a 104B     		ldr	r3, .L94
 1761 001c 5B78     		ldrb	r3, [r3, #1]	@ zero_extendqisi2
 1762 001e 0B2B     		cmp	r3, #11
 1763 0020 05D8     		bhi	.L92
 795:u8glib_arm_v1.18.1\src/chessengine.c ****     lrc_obj.chm_pos++;
 1764              		.loc 1 795 0
 1765 0022 0E4B     		ldr	r3, .L94
ARM GAS  C:\Users\KJA\AppData\Local\Temp\ccNNA7zi.s 			page 46


 1766 0024 5B78     		ldrb	r3, [r3, #1]	@ zero_extendqisi2
 1767 0026 0133     		adds	r3, r3, #1
 1768 0028 DAB2     		uxtb	r2, r3
 1769 002a 0C4B     		ldr	r3, .L94
 1770 002c 5A70     		strb	r2, [r3, #1]
 1771              	.L92:
 796:u8glib_arm_v1.18.1\src/chessengine.c **** 
 797:u8glib_arm_v1.18.1\src/chessengine.c ****   chm->pawn_dbl_move[0] = lrc_obj.pawn_dbl_move[0];
 1772              		.loc 1 797 0
 1773 002e 0B4B     		ldr	r3, .L94
 1774 0030 93F84220 		ldrb	r2, [r3, #66]	@ zero_extendqisi2
 1775 0034 7B68     		ldr	r3, [r7, #4]
 1776 0036 9A71     		strb	r2, [r3, #6]
 798:u8glib_arm_v1.18.1\src/chessengine.c ****   chm->pawn_dbl_move[1] = lrc_obj.pawn_dbl_move[1];
 1777              		.loc 1 798 0
 1778 0038 084B     		ldr	r3, .L94
 1779 003a 93F84320 		ldrb	r2, [r3, #67]	@ zero_extendqisi2
 1780 003e 7B68     		ldr	r3, [r7, #4]
 1781 0040 DA71     		strb	r2, [r3, #7]
 799:u8glib_arm_v1.18.1\src/chessengine.c ****   chm->castling_possible = lrc_obj.castling_possible;
 1782              		.loc 1 799 0
 1783 0042 064B     		ldr	r3, .L94
 1784 0044 93F84420 		ldrb	r2, [r3, #68]	@ zero_extendqisi2
 1785 0048 7B68     		ldr	r3, [r7, #4]
 1786 004a 1A72     		strb	r2, [r3, #8]
 800:u8glib_arm_v1.18.1\src/chessengine.c ****   return chm;
 1787              		.loc 1 800 0
 1788 004c 7B68     		ldr	r3, [r7, #4]
 801:u8glib_arm_v1.18.1\src/chessengine.c **** }
 1789              		.loc 1 801 0
 1790 004e 1846     		mov	r0, r3
 1791 0050 0C37     		adds	r7, r7, #12
 1792              		.cfi_def_cfa_offset 4
 1793 0052 BD46     		mov	sp, r7
 1794              		.cfi_def_cfa_register 13
 1795              		@ sp needed
 1796 0054 5DF8047B 		ldr	r7, [sp], #4
 1797              		.cfi_restore 7
 1798              		.cfi_def_cfa_offset 0
 1799 0058 7047     		bx	lr
 1800              	.L95:
 1801 005a 00BF     		.align	2
 1802              	.L94:
 1803 005c 00000000 		.word	lrc_obj
 1804              		.cfi_endproc
 1805              	.LFE22:
 1806              		.size	cu_PushHalfMove, .-cu_PushHalfMove
 1807              		.global	chess_piece_to_char
 1808              		.data
 1809              		.align	2
 1810              		.type	chess_piece_to_char, %object
 1811              		.size	chess_piece_to_char, 6
 1812              	chess_piece_to_char:
 1813 0010 4E425251 		.ascii	"NBRQK\000"
 1813      4B00
 1814              		.section	.text.cu_add_pos,"ax",%progbits
 1815              		.align	2
ARM GAS  C:\Users\KJA\AppData\Local\Temp\ccNNA7zi.s 			page 47


 1816              		.thumb
 1817              		.thumb_func
 1818              		.type	cu_add_pos, %function
 1819              	cu_add_pos:
 1820              	.LFB23:
 802:u8glib_arm_v1.18.1\src/chessengine.c **** 
 803:u8glib_arm_v1.18.1\src/chessengine.c **** 
 804:u8glib_arm_v1.18.1\src/chessengine.c **** char chess_piece_to_char[] = "NBRQK";
 805:u8glib_arm_v1.18.1\src/chessengine.c **** 
 806:u8glib_arm_v1.18.1\src/chessengine.c **** /*
 807:u8glib_arm_v1.18.1\src/chessengine.c ****   simple moves on empty field: 	Ka1-b2
 808:u8glib_arm_v1.18.1\src/chessengine.c ****   capture moves:				Ka1xb2
 809:u8glib_arm_v1.18.1\src/chessengine.c ****   castling:						0-0 or 0-0-0
 810:u8glib_arm_v1.18.1\src/chessengine.c **** */
 811:u8glib_arm_v1.18.1\src/chessengine.c **** 
 812:u8glib_arm_v1.18.1\src/chessengine.c **** static void cu_add_pos(char *s, uint8_t pos) U8G_NOINLINE;
 813:u8glib_arm_v1.18.1\src/chessengine.c **** 
 814:u8glib_arm_v1.18.1\src/chessengine.c **** static void cu_add_pos(char *s, uint8_t pos)
 815:u8glib_arm_v1.18.1\src/chessengine.c **** {
 1821              		.loc 1 815 0
 1822              		.cfi_startproc
 1823              		@ args = 0, pretend = 0, frame = 8
 1824              		@ frame_needed = 1, uses_anonymous_args = 0
 1825              		@ link register save eliminated.
 1826 0000 80B4     		push	{r7}
 1827              		.cfi_def_cfa_offset 4
 1828              		.cfi_offset 7, -4
 1829 0002 83B0     		sub	sp, sp, #12
 1830              		.cfi_def_cfa_offset 16
 1831 0004 00AF     		add	r7, sp, #0
 1832              		.cfi_def_cfa_register 7
 1833 0006 7860     		str	r0, [r7, #4]
 1834 0008 0B46     		mov	r3, r1
 1835 000a FB70     		strb	r3, [r7, #3]
 816:u8glib_arm_v1.18.1\src/chessengine.c ****   *s = pos;
 1836              		.loc 1 816 0
 1837 000c 7B68     		ldr	r3, [r7, #4]
 1838 000e FA78     		ldrb	r2, [r7, #3]
 1839 0010 1A70     		strb	r2, [r3]
 817:u8glib_arm_v1.18.1\src/chessengine.c ****   *s >>= 4;
 1840              		.loc 1 817 0
 1841 0012 7B68     		ldr	r3, [r7, #4]
 1842 0014 1B78     		ldrb	r3, [r3]	@ zero_extendqisi2
 1843 0016 1B09     		lsrs	r3, r3, #4
 1844 0018 DAB2     		uxtb	r2, r3
 1845 001a 7B68     		ldr	r3, [r7, #4]
 1846 001c 1A70     		strb	r2, [r3]
 818:u8glib_arm_v1.18.1\src/chessengine.c ****   *s += 'a';
 1847              		.loc 1 818 0
 1848 001e 7B68     		ldr	r3, [r7, #4]
 1849 0020 1B78     		ldrb	r3, [r3]	@ zero_extendqisi2
 1850 0022 6133     		adds	r3, r3, #97
 1851 0024 DAB2     		uxtb	r2, r3
 1852 0026 7B68     		ldr	r3, [r7, #4]
 1853 0028 1A70     		strb	r2, [r3]
 819:u8glib_arm_v1.18.1\src/chessengine.c ****   s++;
 1854              		.loc 1 819 0
ARM GAS  C:\Users\KJA\AppData\Local\Temp\ccNNA7zi.s 			page 48


 1855 002a 7B68     		ldr	r3, [r7, #4]
 1856 002c 0133     		adds	r3, r3, #1
 1857 002e 7B60     		str	r3, [r7, #4]
 820:u8glib_arm_v1.18.1\src/chessengine.c ****   *s = pos;
 1858              		.loc 1 820 0
 1859 0030 7B68     		ldr	r3, [r7, #4]
 1860 0032 FA78     		ldrb	r2, [r7, #3]
 1861 0034 1A70     		strb	r2, [r3]
 821:u8glib_arm_v1.18.1\src/chessengine.c ****   *s &= 15;
 1862              		.loc 1 821 0
 1863 0036 7B68     		ldr	r3, [r7, #4]
 1864 0038 1B78     		ldrb	r3, [r3]	@ zero_extendqisi2
 1865 003a 03F00F03 		and	r3, r3, #15
 1866 003e DAB2     		uxtb	r2, r3
 1867 0040 7B68     		ldr	r3, [r7, #4]
 1868 0042 1A70     		strb	r2, [r3]
 822:u8glib_arm_v1.18.1\src/chessengine.c ****   *s += '1';
 1869              		.loc 1 822 0
 1870 0044 7B68     		ldr	r3, [r7, #4]
 1871 0046 1B78     		ldrb	r3, [r3]	@ zero_extendqisi2
 1872 0048 3133     		adds	r3, r3, #49
 1873 004a DAB2     		uxtb	r2, r3
 1874 004c 7B68     		ldr	r3, [r7, #4]
 1875 004e 1A70     		strb	r2, [r3]
 823:u8glib_arm_v1.18.1\src/chessengine.c **** }
 1876              		.loc 1 823 0
 1877 0050 0C37     		adds	r7, r7, #12
 1878              		.cfi_def_cfa_offset 4
 1879 0052 BD46     		mov	sp, r7
 1880              		.cfi_def_cfa_register 13
 1881              		@ sp needed
 1882 0054 5DF8047B 		ldr	r7, [sp], #4
 1883              		.cfi_restore 7
 1884              		.cfi_def_cfa_offset 0
 1885 0058 7047     		bx	lr
 1886              		.cfi_endproc
 1887              	.LFE23:
 1888              		.size	cu_add_pos, .-cu_add_pos
 1889 005a 00BF     		.section	.text.cu_GetHalfMoveStr,"ax",%progbits
 1890              		.align	2
 1891              		.global	cu_GetHalfMoveStr
 1892              		.thumb
 1893              		.thumb_func
 1894              		.type	cu_GetHalfMoveStr, %function
 1895              	cu_GetHalfMoveStr:
 1896              	.LFB24:
 824:u8glib_arm_v1.18.1\src/chessengine.c **** 
 825:u8glib_arm_v1.18.1\src/chessengine.c **** const char *cu_GetHalfMoveStr(uint8_t idx)
 826:u8glib_arm_v1.18.1\src/chessengine.c **** {
 1897              		.loc 1 826 0
 1898              		.cfi_startproc
 1899              		@ args = 0, pretend = 0, frame = 16
 1900              		@ frame_needed = 1, uses_anonymous_args = 0
 1901 0000 90B5     		push	{r4, r7, lr}
 1902              		.cfi_def_cfa_offset 12
 1903              		.cfi_offset 4, -12
 1904              		.cfi_offset 7, -8
ARM GAS  C:\Users\KJA\AppData\Local\Temp\ccNNA7zi.s 			page 49


 1905              		.cfi_offset 14, -4
 1906 0002 85B0     		sub	sp, sp, #20
 1907              		.cfi_def_cfa_offset 32
 1908 0004 00AF     		add	r7, sp, #0
 1909              		.cfi_def_cfa_register 7
 1910 0006 0346     		mov	r3, r0
 1911 0008 FB71     		strb	r3, [r7, #7]
 827:u8glib_arm_v1.18.1\src/chessengine.c ****   chm_p chm;
 828:u8glib_arm_v1.18.1\src/chessengine.c ****   static char buf[7];		/*Ka1-b2*/
 829:u8glib_arm_v1.18.1\src/chessengine.c ****   char *p = buf;
 1912              		.loc 1 829 0
 1913 000a 2A4B     		ldr	r3, .L103
 1914 000c FB60     		str	r3, [r7, #12]
 830:u8glib_arm_v1.18.1\src/chessengine.c ****   chm = lrc_obj.chm_list+idx;
 1915              		.loc 1 830 0
 1916 000e FA79     		ldrb	r2, [r7, #7]	@ zero_extendqisi2
 1917 0010 1346     		mov	r3, r2
 1918 0012 DB00     		lsls	r3, r3, #3
 1919 0014 1344     		add	r3, r3, r2
 1920 0016 8033     		adds	r3, r3, #128
 1921 0018 274A     		ldr	r2, .L103+4
 1922 001a 1344     		add	r3, r3, r2
 1923 001c BB60     		str	r3, [r7, #8]
 831:u8glib_arm_v1.18.1\src/chessengine.c ****   
 832:u8glib_arm_v1.18.1\src/chessengine.c ****   if ( cp_GetPiece(chm->main_cp) != PIECE_NONE )
 1924              		.loc 1 832 0
 1925 001e BB68     		ldr	r3, [r7, #8]
 1926 0020 1B78     		ldrb	r3, [r3]	@ zero_extendqisi2
 1927 0022 1846     		mov	r0, r3
 1928 0024 FFF7FEFF 		bl	cp_GetPiece
 1929 0028 0346     		mov	r3, r0
 1930 002a 002B     		cmp	r3, #0
 1931 002c 39D0     		beq	.L98
 833:u8glib_arm_v1.18.1\src/chessengine.c ****   {
 834:u8glib_arm_v1.18.1\src/chessengine.c ****     if ( cp_GetPiece(chm->main_cp) > PIECE_PAWN )
 1932              		.loc 1 834 0
 1933 002e BB68     		ldr	r3, [r7, #8]
 1934 0030 1B78     		ldrb	r3, [r3]	@ zero_extendqisi2
 1935 0032 1846     		mov	r0, r3
 1936 0034 FFF7FEFF 		bl	cp_GetPiece
 1937 0038 0346     		mov	r3, r0
 1938 003a 012B     		cmp	r3, #1
 1939 003c 0CD9     		bls	.L99
 835:u8glib_arm_v1.18.1\src/chessengine.c ****     {
 836:u8glib_arm_v1.18.1\src/chessengine.c ****       *p++ = chess_piece_to_char[cp_GetPiece(chm->main_cp)-2];
 1940              		.loc 1 836 0
 1941 003e FC68     		ldr	r4, [r7, #12]
 1942 0040 631C     		adds	r3, r4, #1
 1943 0042 FB60     		str	r3, [r7, #12]
 1944 0044 BB68     		ldr	r3, [r7, #8]
 1945 0046 1B78     		ldrb	r3, [r3]	@ zero_extendqisi2
 1946 0048 1846     		mov	r0, r3
 1947 004a FFF7FEFF 		bl	cp_GetPiece
 1948 004e 0346     		mov	r3, r0
 1949 0050 023B     		subs	r3, r3, #2
 1950 0052 1A4A     		ldr	r2, .L103+8
 1951 0054 D35C     		ldrb	r3, [r2, r3]	@ zero_extendqisi2
ARM GAS  C:\Users\KJA\AppData\Local\Temp\ccNNA7zi.s 			page 50


 1952 0056 2370     		strb	r3, [r4]
 1953              	.L99:
 837:u8glib_arm_v1.18.1\src/chessengine.c ****     }
 838:u8glib_arm_v1.18.1\src/chessengine.c ****     cu_add_pos(p, chm->main_src);
 1954              		.loc 1 838 0
 1955 0058 BB68     		ldr	r3, [r7, #8]
 1956 005a 5B78     		ldrb	r3, [r3, #1]	@ zero_extendqisi2
 1957 005c F868     		ldr	r0, [r7, #12]
 1958 005e 1946     		mov	r1, r3
 1959 0060 FFF7FEFF 		bl	cu_add_pos
 839:u8glib_arm_v1.18.1\src/chessengine.c ****     p+=2;
 1960              		.loc 1 839 0
 1961 0064 FB68     		ldr	r3, [r7, #12]
 1962 0066 0233     		adds	r3, r3, #2
 1963 0068 FB60     		str	r3, [r7, #12]
 840:u8glib_arm_v1.18.1\src/chessengine.c ****     if ( cp_GetPiece(chm->other_cp) == PIECE_NONE )
 1964              		.loc 1 840 0
 1965 006a BB68     		ldr	r3, [r7, #8]
 1966 006c DB78     		ldrb	r3, [r3, #3]	@ zero_extendqisi2
 1967 006e 1846     		mov	r0, r3
 1968 0070 FFF7FEFF 		bl	cp_GetPiece
 1969 0074 0346     		mov	r3, r0
 1970 0076 002B     		cmp	r3, #0
 1971 0078 05D1     		bne	.L100
 841:u8glib_arm_v1.18.1\src/chessengine.c ****       *p++ = '-';
 1972              		.loc 1 841 0
 1973 007a FB68     		ldr	r3, [r7, #12]
 1974 007c 5A1C     		adds	r2, r3, #1
 1975 007e FA60     		str	r2, [r7, #12]
 1976 0080 2D22     		movs	r2, #45
 1977 0082 1A70     		strb	r2, [r3]
 1978 0084 04E0     		b	.L101
 1979              	.L100:
 842:u8glib_arm_v1.18.1\src/chessengine.c ****     else
 843:u8glib_arm_v1.18.1\src/chessengine.c ****       *p++ = 'x';
 1980              		.loc 1 843 0
 1981 0086 FB68     		ldr	r3, [r7, #12]
 1982 0088 5A1C     		adds	r2, r3, #1
 1983 008a FA60     		str	r2, [r7, #12]
 1984 008c 7822     		movs	r2, #120
 1985 008e 1A70     		strb	r2, [r3]
 1986              	.L101:
 844:u8glib_arm_v1.18.1\src/chessengine.c ****     cu_add_pos(p, chm->main_dest);
 1987              		.loc 1 844 0
 1988 0090 BB68     		ldr	r3, [r7, #8]
 1989 0092 9B78     		ldrb	r3, [r3, #2]	@ zero_extendqisi2
 1990 0094 F868     		ldr	r0, [r7, #12]
 1991 0096 1946     		mov	r1, r3
 1992 0098 FFF7FEFF 		bl	cu_add_pos
 845:u8glib_arm_v1.18.1\src/chessengine.c ****     p+=2;
 1993              		.loc 1 845 0
 1994 009c FB68     		ldr	r3, [r7, #12]
 1995 009e 0233     		adds	r3, r3, #2
 1996 00a0 FB60     		str	r3, [r7, #12]
 1997              	.L98:
 846:u8glib_arm_v1.18.1\src/chessengine.c ****   }
 847:u8glib_arm_v1.18.1\src/chessengine.c ****   *p = '\0';
ARM GAS  C:\Users\KJA\AppData\Local\Temp\ccNNA7zi.s 			page 51


 1998              		.loc 1 847 0
 1999 00a2 FB68     		ldr	r3, [r7, #12]
 2000 00a4 0022     		movs	r2, #0
 2001 00a6 1A70     		strb	r2, [r3]
 848:u8glib_arm_v1.18.1\src/chessengine.c ****   return buf;
 2002              		.loc 1 848 0
 2003 00a8 024B     		ldr	r3, .L103
 849:u8glib_arm_v1.18.1\src/chessengine.c **** }
 2004              		.loc 1 849 0
 2005 00aa 1846     		mov	r0, r3
 2006 00ac 1437     		adds	r7, r7, #20
 2007              		.cfi_def_cfa_offset 12
 2008 00ae BD46     		mov	sp, r7
 2009              		.cfi_def_cfa_register 13
 2010              		@ sp needed
 2011 00b0 90BD     		pop	{r4, r7, pc}
 2012              	.L104:
 2013 00b2 00BF     		.align	2
 2014              	.L103:
 2015 00b4 04000000 		.word	buf.5954
 2016 00b8 00000000 		.word	lrc_obj
 2017 00bc 00000000 		.word	chess_piece_to_char
 2018              		.cfi_endproc
 2019              	.LFE24:
 2020              		.size	cu_GetHalfMoveStr, .-cu_GetHalfMoveStr
 2021              		.section	.text.cu_Move,"ax",%progbits
 2022              		.align	2
 2023              		.global	cu_Move
 2024              		.thumb
 2025              		.thumb_func
 2026              		.type	cu_Move, %function
 2027              	cu_Move:
 2028              	.LFB25:
 850:u8glib_arm_v1.18.1\src/chessengine.c **** 
 851:u8glib_arm_v1.18.1\src/chessengine.c **** 
 852:u8glib_arm_v1.18.1\src/chessengine.c **** 
 853:u8glib_arm_v1.18.1\src/chessengine.c **** 
 854:u8glib_arm_v1.18.1\src/chessengine.c **** 
 855:u8glib_arm_v1.18.1\src/chessengine.c **** /*==============================================================*/
 856:u8glib_arm_v1.18.1\src/chessengine.c **** /* move */
 857:u8glib_arm_v1.18.1\src/chessengine.c **** /*==============================================================*/
 858:u8glib_arm_v1.18.1\src/chessengine.c **** 
 859:u8glib_arm_v1.18.1\src/chessengine.c **** /*
 860:u8glib_arm_v1.18.1\src/chessengine.c ****   Move a piece from source position to a destination on the board
 861:u8glib_arm_v1.18.1\src/chessengine.c ****   This function
 862:u8glib_arm_v1.18.1\src/chessengine.c ****     - does not perform any checking
 863:u8glib_arm_v1.18.1\src/chessengine.c ****     - however it processes "en passant" and casteling
 864:u8glib_arm_v1.18.1\src/chessengine.c ****     - backup the move and allow 1x undo
 865:u8glib_arm_v1.18.1\src/chessengine.c ****   
 866:u8glib_arm_v1.18.1\src/chessengine.c ****   2011-02-05: 
 867:u8glib_arm_v1.18.1\src/chessengine.c ****     - fill pawn_dbl_move[] for double pawn moves
 868:u8glib_arm_v1.18.1\src/chessengine.c **** 	--> done
 869:u8glib_arm_v1.18.1\src/chessengine.c ****     - Implement casteling 
 870:u8glib_arm_v1.18.1\src/chessengine.c **** 	--> done
 871:u8glib_arm_v1.18.1\src/chessengine.c ****     - en passant
 872:u8glib_arm_v1.18.1\src/chessengine.c **** 	--> done
 873:u8glib_arm_v1.18.1\src/chessengine.c ****     - pawn conversion/promotion
ARM GAS  C:\Users\KJA\AppData\Local\Temp\ccNNA7zi.s 			page 52


 874:u8glib_arm_v1.18.1\src/chessengine.c **** 	--> done
 875:u8glib_arm_v1.18.1\src/chessengine.c ****     - half-move backup 
 876:u8glib_arm_v1.18.1\src/chessengine.c **** 	--> done
 877:u8glib_arm_v1.18.1\src/chessengine.c ****     - cleanup everything, minimize variables
 878:u8glib_arm_v1.18.1\src/chessengine.c **** 	--> done
 879:u8glib_arm_v1.18.1\src/chessengine.c **** */
 880:u8glib_arm_v1.18.1\src/chessengine.c **** 
 881:u8glib_arm_v1.18.1\src/chessengine.c **** void cu_Move(uint8_t src, uint8_t dest)
 882:u8glib_arm_v1.18.1\src/chessengine.c **** {  
 2029              		.loc 1 882 0
 2030              		.cfi_startproc
 2031              		@ args = 0, pretend = 0, frame = 24
 2032              		@ frame_needed = 1, uses_anonymous_args = 0
 2033 0000 80B5     		push	{r7, lr}
 2034              		.cfi_def_cfa_offset 8
 2035              		.cfi_offset 7, -8
 2036              		.cfi_offset 14, -4
 2037 0002 86B0     		sub	sp, sp, #24
 2038              		.cfi_def_cfa_offset 32
 2039 0004 00AF     		add	r7, sp, #0
 2040              		.cfi_def_cfa_register 7
 2041 0006 0346     		mov	r3, r0
 2042 0008 0A46     		mov	r2, r1
 2043 000a FB71     		strb	r3, [r7, #7]
 2044 000c 1346     		mov	r3, r2
 2045 000e BB71     		strb	r3, [r7, #6]
 883:u8glib_arm_v1.18.1\src/chessengine.c ****   /* start backup structure */
 884:u8glib_arm_v1.18.1\src/chessengine.c ****   chm_p chm = cu_PushHalfMove();
 2046              		.loc 1 884 0
 2047 0010 FFF7FEFF 		bl	cu_PushHalfMove
 2048 0014 3861     		str	r0, [r7, #16]
 885:u8glib_arm_v1.18.1\src/chessengine.c **** 
 886:u8glib_arm_v1.18.1\src/chessengine.c ****   /* these are the values from the board at the positions, provided as arguments to this function *
 887:u8glib_arm_v1.18.1\src/chessengine.c ****   uint8_t cp_src, cp_dest;
 888:u8glib_arm_v1.18.1\src/chessengine.c ****   
 889:u8glib_arm_v1.18.1\src/chessengine.c ****   /* Maybe a second position is cleared and one additional location is set */
 890:u8glib_arm_v1.18.1\src/chessengine.c ****   uint8_t clr_pos2;
 891:u8glib_arm_v1.18.1\src/chessengine.c ****   uint8_t set_pos2;
 892:u8glib_arm_v1.18.1\src/chessengine.c ****   uint8_t set_cp2;
 893:u8glib_arm_v1.18.1\src/chessengine.c ****   
 894:u8glib_arm_v1.18.1\src/chessengine.c ****   /* get values from board */
 895:u8glib_arm_v1.18.1\src/chessengine.c ****   cp_src = cp_GetFromBoard(src);
 2049              		.loc 1 895 0
 2050 0016 FB79     		ldrb	r3, [r7, #7]	@ zero_extendqisi2
 2051 0018 1846     		mov	r0, r3
 2052 001a FFF7FEFF 		bl	cp_GetFromBoard
 2053 001e 0346     		mov	r3, r0
 2054 0020 FB75     		strb	r3, [r7, #23]
 896:u8glib_arm_v1.18.1\src/chessengine.c ****   cp_dest = cp_GetFromBoard(dest);
 2055              		.loc 1 896 0
 2056 0022 BB79     		ldrb	r3, [r7, #6]	@ zero_extendqisi2
 2057 0024 1846     		mov	r0, r3
 2058 0026 FFF7FEFF 		bl	cp_GetFromBoard
 2059 002a 0346     		mov	r3, r0
 2060 002c FB73     		strb	r3, [r7, #15]
 897:u8glib_arm_v1.18.1\src/chessengine.c **** 
 898:u8glib_arm_v1.18.1\src/chessengine.c ****   /* fill backup structure */
ARM GAS  C:\Users\KJA\AppData\Local\Temp\ccNNA7zi.s 			page 53


 899:u8glib_arm_v1.18.1\src/chessengine.c ****   
 900:u8glib_arm_v1.18.1\src/chessengine.c ****   chm->main_cp = cp_src;
 2061              		.loc 1 900 0
 2062 002e 3B69     		ldr	r3, [r7, #16]
 2063 0030 FA7D     		ldrb	r2, [r7, #23]
 2064 0032 1A70     		strb	r2, [r3]
 901:u8glib_arm_v1.18.1\src/chessengine.c ****   chm->main_src = src;
 2065              		.loc 1 901 0
 2066 0034 3B69     		ldr	r3, [r7, #16]
 2067 0036 FA79     		ldrb	r2, [r7, #7]
 2068 0038 5A70     		strb	r2, [r3, #1]
 902:u8glib_arm_v1.18.1\src/chessengine.c ****   chm->main_dest = dest;
 2069              		.loc 1 902 0
 2070 003a 3B69     		ldr	r3, [r7, #16]
 2071 003c BA79     		ldrb	r2, [r7, #6]
 2072 003e 9A70     		strb	r2, [r3, #2]
 903:u8glib_arm_v1.18.1\src/chessengine.c ****   
 904:u8glib_arm_v1.18.1\src/chessengine.c ****   chm->other_cp = cp_dest;		/* prepace capture backup */
 2073              		.loc 1 904 0
 2074 0040 3B69     		ldr	r3, [r7, #16]
 2075 0042 FA7B     		ldrb	r2, [r7, #15]
 2076 0044 DA70     		strb	r2, [r3, #3]
 905:u8glib_arm_v1.18.1\src/chessengine.c ****   chm->other_src = dest;
 2077              		.loc 1 905 0
 2078 0046 3B69     		ldr	r3, [r7, #16]
 2079 0048 BA79     		ldrb	r2, [r7, #6]
 2080 004a 1A71     		strb	r2, [r3, #4]
 906:u8glib_arm_v1.18.1\src/chessengine.c ****   chm->other_dest = ILLEGAL_POSITION;
 2081              		.loc 1 906 0
 2082 004c 3B69     		ldr	r3, [r7, #16]
 2083 004e FF22     		movs	r2, #255
 2084 0050 5A71     		strb	r2, [r3, #5]
 907:u8glib_arm_v1.18.1\src/chessengine.c ****   
 908:u8glib_arm_v1.18.1\src/chessengine.c ****   /* setup results as far as possible with some suitable values */
 909:u8glib_arm_v1.18.1\src/chessengine.c ****   
 910:u8glib_arm_v1.18.1\src/chessengine.c ****   clr_pos2 = ILLEGAL_POSITION;	/* for en passant and castling, two positions might be cleared */
 2085              		.loc 1 910 0
 2086 0052 FF23     		movs	r3, #255
 2087 0054 BB75     		strb	r3, [r7, #22]
 911:u8glib_arm_v1.18.1\src/chessengine.c ****   set_pos2 = ILLEGAL_POSITION;	/* only used for castling */
 2088              		.loc 1 911 0
 2089 0056 FF23     		movs	r3, #255
 2090 0058 7B75     		strb	r3, [r7, #21]
 912:u8glib_arm_v1.18.1\src/chessengine.c ****   set_cp2 = PIECE_NONE;			/* ROOK for castling */
 2091              		.loc 1 912 0
 2092 005a 0023     		movs	r3, #0
 2093 005c 3B75     		strb	r3, [r7, #20]
 913:u8glib_arm_v1.18.1\src/chessengine.c ****   
 914:u8glib_arm_v1.18.1\src/chessengine.c ****   /* check for PAWN */
 915:u8glib_arm_v1.18.1\src/chessengine.c ****   if ( cp_GetPiece(cp_src) == PIECE_PAWN )
 2094              		.loc 1 915 0
 2095 005e FB7D     		ldrb	r3, [r7, #23]	@ zero_extendqisi2
 2096 0060 1846     		mov	r0, r3
 2097 0062 FFF7FEFF 		bl	cp_GetPiece
 2098 0066 0346     		mov	r3, r0
 2099 0068 012B     		cmp	r3, #1
 2100 006a 53D1     		bne	.L106
ARM GAS  C:\Users\KJA\AppData\Local\Temp\ccNNA7zi.s 			page 54


 916:u8glib_arm_v1.18.1\src/chessengine.c ****   {
 917:u8glib_arm_v1.18.1\src/chessengine.c ****     
 918:u8glib_arm_v1.18.1\src/chessengine.c ****     /* double step: is the distance 2 rows */
 919:u8glib_arm_v1.18.1\src/chessengine.c ****     if ( (src - dest == 32) || ( dest - src == 32 ) )
 2101              		.loc 1 919 0
 2102 006c FA79     		ldrb	r2, [r7, #7]	@ zero_extendqisi2
 2103 006e BB79     		ldrb	r3, [r7, #6]	@ zero_extendqisi2
 2104 0070 D31A     		subs	r3, r2, r3
 2105 0072 202B     		cmp	r3, #32
 2106 0074 04D0     		beq	.L107
 2107              		.loc 1 919 0 is_stmt 0 discriminator 1
 2108 0076 BA79     		ldrb	r2, [r7, #6]	@ zero_extendqisi2
 2109 0078 FB79     		ldrb	r3, [r7, #7]	@ zero_extendqisi2
 2110 007a D31A     		subs	r3, r2, r3
 2111 007c 202B     		cmp	r3, #32
 2112 007e 0BD1     		bne	.L108
 2113              	.L107:
 920:u8glib_arm_v1.18.1\src/chessengine.c ****     {
 921:u8glib_arm_v1.18.1\src/chessengine.c ****       /* remember the destination position */
 922:u8glib_arm_v1.18.1\src/chessengine.c ****       lrc_obj.pawn_dbl_move[cp_GetColor(cp_src)] = dest;
 2114              		.loc 1 922 0 is_stmt 1
 2115 0080 FB7D     		ldrb	r3, [r7, #23]	@ zero_extendqisi2
 2116 0082 1846     		mov	r0, r3
 2117 0084 FFF7FEFF 		bl	cp_GetColor
 2118 0088 0346     		mov	r3, r0
 2119 008a 1A46     		mov	r2, r3
 2120 008c 7A4B     		ldr	r3, .L123
 2121 008e 1344     		add	r3, r3, r2
 2122 0090 BA79     		ldrb	r2, [r7, #6]
 2123 0092 83F84220 		strb	r2, [r3, #66]
 2124 0096 3CE0     		b	.L109
 2125              	.L108:
 923:u8glib_arm_v1.18.1\src/chessengine.c ****     }
 924:u8glib_arm_v1.18.1\src/chessengine.c ****     
 925:u8glib_arm_v1.18.1\src/chessengine.c ****     /* check if the PAWN is able to promote */
 926:u8glib_arm_v1.18.1\src/chessengine.c ****     else if ( (dest>>4) == 0 || (dest>>4) == 7 )
 2126              		.loc 1 926 0
 2127 0098 BB79     		ldrb	r3, [r7, #6]	@ zero_extendqisi2
 2128 009a 1B09     		lsrs	r3, r3, #4
 2129 009c DBB2     		uxtb	r3, r3
 2130 009e 002B     		cmp	r3, #0
 2131 00a0 04D0     		beq	.L110
 2132              		.loc 1 926 0 is_stmt 0 discriminator 1
 2133 00a2 BB79     		ldrb	r3, [r7, #6]	@ zero_extendqisi2
 2134 00a4 1B09     		lsrs	r3, r3, #4
 2135 00a6 DBB2     		uxtb	r3, r3
 2136 00a8 072B     		cmp	r3, #7
 2137 00aa 08D1     		bne	.L111
 2138              	.L110:
 927:u8glib_arm_v1.18.1\src/chessengine.c ****     {
 928:u8glib_arm_v1.18.1\src/chessengine.c ****       /* do simple "queening" */
 929:u8glib_arm_v1.18.1\src/chessengine.c ****       cp_src &= ~PIECE_PAWN;
 2139              		.loc 1 929 0 is_stmt 1
 2140 00ac FB7D     		ldrb	r3, [r7, #23]
 2141 00ae 23F00103 		bic	r3, r3, #1
 2142 00b2 FB75     		strb	r3, [r7, #23]
 930:u8glib_arm_v1.18.1\src/chessengine.c ****       cp_src |= PIECE_QUEEN;
ARM GAS  C:\Users\KJA\AppData\Local\Temp\ccNNA7zi.s 			page 55


 2143              		.loc 1 930 0
 2144 00b4 FB7D     		ldrb	r3, [r7, #23]
 2145 00b6 43F00503 		orr	r3, r3, #5
 2146 00ba FB75     		strb	r3, [r7, #23]
 2147 00bc 29E0     		b	.L109
 2148              	.L111:
 931:u8glib_arm_v1.18.1\src/chessengine.c ****     }
 932:u8glib_arm_v1.18.1\src/chessengine.c ****     
 933:u8glib_arm_v1.18.1\src/chessengine.c ****     /* is it en passant capture? */
 934:u8glib_arm_v1.18.1\src/chessengine.c ****     /* check for side move */
 935:u8glib_arm_v1.18.1\src/chessengine.c ****     else if ( ((src + dest) & 1) != 0 )
 2149              		.loc 1 935 0
 2150 00be FA79     		ldrb	r2, [r7, #7]	@ zero_extendqisi2
 2151 00c0 BB79     		ldrb	r3, [r7, #6]	@ zero_extendqisi2
 2152 00c2 1344     		add	r3, r3, r2
 2153 00c4 03F00103 		and	r3, r3, #1
 2154 00c8 002B     		cmp	r3, #0
 2155 00ca 00F0B580 		beq	.L112
 936:u8glib_arm_v1.18.1\src/chessengine.c ****     {
 937:u8glib_arm_v1.18.1\src/chessengine.c ****       /* check, if target field is empty */
 938:u8glib_arm_v1.18.1\src/chessengine.c ****       if (  cp_GetPiece(cp_dest) == PIECE_NONE )
 2156              		.loc 1 938 0
 2157 00ce FB7B     		ldrb	r3, [r7, #15]	@ zero_extendqisi2
 2158 00d0 1846     		mov	r0, r3
 2159 00d2 FFF7FEFF 		bl	cp_GetPiece
 2160 00d6 0346     		mov	r3, r0
 2161 00d8 002B     		cmp	r3, #0
 2162 00da 40F0AD80 		bne	.L112
 939:u8glib_arm_v1.18.1\src/chessengine.c ****       {
 940:u8glib_arm_v1.18.1\src/chessengine.c **** 	/* this is en passant */
 941:u8glib_arm_v1.18.1\src/chessengine.c **** 	/* no further checking required, because legal moves are assumed here */
 942:u8glib_arm_v1.18.1\src/chessengine.c **** 	/* however... the captured pawn position must be valid */
 943:u8glib_arm_v1.18.1\src/chessengine.c **** 	clr_pos2 = lrc_obj.pawn_dbl_move[cp_GetColor(cp_src) ^ 1];
 2163              		.loc 1 943 0
 2164 00de FB7D     		ldrb	r3, [r7, #23]	@ zero_extendqisi2
 2165 00e0 1846     		mov	r0, r3
 2166 00e2 FFF7FEFF 		bl	cp_GetColor
 2167 00e6 0346     		mov	r3, r0
 2168 00e8 83F00103 		eor	r3, r3, #1
 2169 00ec DBB2     		uxtb	r3, r3
 2170 00ee 1A46     		mov	r2, r3
 2171 00f0 614B     		ldr	r3, .L123
 2172 00f2 1344     		add	r3, r3, r2
 2173 00f4 93F84230 		ldrb	r3, [r3, #66]
 2174 00f8 BB75     		strb	r3, [r7, #22]
 944:u8glib_arm_v1.18.1\src/chessengine.c **** 	chm->other_src = clr_pos2;
 2175              		.loc 1 944 0
 2176 00fa 3B69     		ldr	r3, [r7, #16]
 2177 00fc BA7D     		ldrb	r2, [r7, #22]
 2178 00fe 1A71     		strb	r2, [r3, #4]
 945:u8glib_arm_v1.18.1\src/chessengine.c **** 	chm->other_cp = cp_GetFromBoard(clr_pos2);
 2179              		.loc 1 945 0
 2180 0100 BB7D     		ldrb	r3, [r7, #22]	@ zero_extendqisi2
 2181 0102 1846     		mov	r0, r3
 2182 0104 FFF7FEFF 		bl	cp_GetFromBoard
 2183 0108 0346     		mov	r3, r0
 2184 010a 1A46     		mov	r2, r3
ARM GAS  C:\Users\KJA\AppData\Local\Temp\ccNNA7zi.s 			page 56


 2185 010c 3B69     		ldr	r3, [r7, #16]
 2186 010e DA70     		strb	r2, [r3, #3]
 2187 0110 92E0     		b	.L112
 2188              	.L109:
 2189 0112 91E0     		b	.L112
 2190              	.L106:
 946:u8glib_arm_v1.18.1\src/chessengine.c ****       }
 947:u8glib_arm_v1.18.1\src/chessengine.c ****     }    
 948:u8glib_arm_v1.18.1\src/chessengine.c ****   }
 949:u8glib_arm_v1.18.1\src/chessengine.c ****   
 950:u8glib_arm_v1.18.1\src/chessengine.c ****   /* check for the KING */
 951:u8glib_arm_v1.18.1\src/chessengine.c ****   else if ( cp_GetPiece(cp_src) == PIECE_KING )
 2191              		.loc 1 951 0
 2192 0114 FB7D     		ldrb	r3, [r7, #23]	@ zero_extendqisi2
 2193 0116 1846     		mov	r0, r3
 2194 0118 FFF7FEFF 		bl	cp_GetPiece
 2195 011c 0346     		mov	r3, r0
 2196 011e 062B     		cmp	r3, #6
 2197 0120 53D1     		bne	.L113
 952:u8glib_arm_v1.18.1\src/chessengine.c ****   {
 953:u8glib_arm_v1.18.1\src/chessengine.c ****     /* disallow castling, if the KING has moved */
 954:u8glib_arm_v1.18.1\src/chessengine.c ****     if ( cp_GetColor(cp_src) == COLOR_WHITE )
 2198              		.loc 1 954 0
 2199 0122 FB7D     		ldrb	r3, [r7, #23]	@ zero_extendqisi2
 2200 0124 1846     		mov	r0, r3
 2201 0126 FFF7FEFF 		bl	cp_GetColor
 2202 012a 0346     		mov	r3, r0
 2203 012c 002B     		cmp	r3, #0
 2204 012e 09D1     		bne	.L114
 955:u8glib_arm_v1.18.1\src/chessengine.c ****     {
 956:u8glib_arm_v1.18.1\src/chessengine.c ****       /* if white KING has moved, disallow castling for white */
 957:u8glib_arm_v1.18.1\src/chessengine.c ****       lrc_obj.castling_possible &= 0x0c;
 2205              		.loc 1 957 0
 2206 0130 514B     		ldr	r3, .L123
 2207 0132 93F84430 		ldrb	r3, [r3, #68]	@ zero_extendqisi2
 2208 0136 03F00C03 		and	r3, r3, #12
 2209 013a DAB2     		uxtb	r2, r3
 2210 013c 4E4B     		ldr	r3, .L123
 2211 013e 83F84420 		strb	r2, [r3, #68]
 2212 0142 08E0     		b	.L115
 2213              	.L114:
 958:u8glib_arm_v1.18.1\src/chessengine.c ****     }
 959:u8glib_arm_v1.18.1\src/chessengine.c ****     else
 960:u8glib_arm_v1.18.1\src/chessengine.c ****     {
 961:u8glib_arm_v1.18.1\src/chessengine.c ****       /* if black KING has moved, disallow castling for black */
 962:u8glib_arm_v1.18.1\src/chessengine.c ****       lrc_obj.castling_possible &= 0x03;
 2214              		.loc 1 962 0
 2215 0144 4C4B     		ldr	r3, .L123
 2216 0146 93F84430 		ldrb	r3, [r3, #68]	@ zero_extendqisi2
 2217 014a 03F00303 		and	r3, r3, #3
 2218 014e DAB2     		uxtb	r2, r3
 2219 0150 494B     		ldr	r3, .L123
 2220 0152 83F84420 		strb	r2, [r3, #68]
 2221              	.L115:
 963:u8glib_arm_v1.18.1\src/chessengine.c ****     }
 964:u8glib_arm_v1.18.1\src/chessengine.c ****     
 965:u8glib_arm_v1.18.1\src/chessengine.c ****     /* has it been castling to the left? */
ARM GAS  C:\Users\KJA\AppData\Local\Temp\ccNNA7zi.s 			page 57


 966:u8glib_arm_v1.18.1\src/chessengine.c ****     if ( src - dest == 2 )
 2222              		.loc 1 966 0
 2223 0156 FA79     		ldrb	r2, [r7, #7]	@ zero_extendqisi2
 2224 0158 BB79     		ldrb	r3, [r7, #6]	@ zero_extendqisi2
 2225 015a D31A     		subs	r3, r2, r3
 2226 015c 022B     		cmp	r3, #2
 2227 015e 17D1     		bne	.L116
 967:u8glib_arm_v1.18.1\src/chessengine.c ****     {
 968:u8glib_arm_v1.18.1\src/chessengine.c ****       /* let the ROOK move to pos2 */
 969:u8glib_arm_v1.18.1\src/chessengine.c ****       set_pos2 = src-1;
 2228              		.loc 1 969 0
 2229 0160 FB79     		ldrb	r3, [r7, #7]
 2230 0162 013B     		subs	r3, r3, #1
 2231 0164 7B75     		strb	r3, [r7, #21]
 970:u8glib_arm_v1.18.1\src/chessengine.c ****       set_cp2 = cp_GetFromBoard(src-4);
 2232              		.loc 1 970 0
 2233 0166 FB79     		ldrb	r3, [r7, #7]
 2234 0168 043B     		subs	r3, r3, #4
 2235 016a DBB2     		uxtb	r3, r3
 2236 016c 1846     		mov	r0, r3
 2237 016e FFF7FEFF 		bl	cp_GetFromBoard
 2238 0172 0346     		mov	r3, r0
 2239 0174 3B75     		strb	r3, [r7, #20]
 971:u8glib_arm_v1.18.1\src/chessengine.c ****       
 972:u8glib_arm_v1.18.1\src/chessengine.c ****       /* the ROOK must be cleared from the original position */
 973:u8glib_arm_v1.18.1\src/chessengine.c ****       clr_pos2 = src-4;
 2240              		.loc 1 973 0
 2241 0176 FB79     		ldrb	r3, [r7, #7]
 2242 0178 043B     		subs	r3, r3, #4
 2243 017a BB75     		strb	r3, [r7, #22]
 974:u8glib_arm_v1.18.1\src/chessengine.c ****       
 975:u8glib_arm_v1.18.1\src/chessengine.c ****       chm->other_cp = set_cp2;
 2244              		.loc 1 975 0
 2245 017c 3B69     		ldr	r3, [r7, #16]
 2246 017e 3A7D     		ldrb	r2, [r7, #20]
 2247 0180 DA70     		strb	r2, [r3, #3]
 976:u8glib_arm_v1.18.1\src/chessengine.c ****       chm->other_src = clr_pos2;
 2248              		.loc 1 976 0
 2249 0182 3B69     		ldr	r3, [r7, #16]
 2250 0184 BA7D     		ldrb	r2, [r7, #22]
 2251 0186 1A71     		strb	r2, [r3, #4]
 977:u8glib_arm_v1.18.1\src/chessengine.c ****       chm->other_dest = set_pos2;
 2252              		.loc 1 977 0
 2253 0188 3B69     		ldr	r3, [r7, #16]
 2254 018a 7A7D     		ldrb	r2, [r7, #21]
 2255 018c 5A71     		strb	r2, [r3, #5]
 2256 018e 53E0     		b	.L112
 2257              	.L116:
 978:u8glib_arm_v1.18.1\src/chessengine.c ****     }
 979:u8glib_arm_v1.18.1\src/chessengine.c ****     
 980:u8glib_arm_v1.18.1\src/chessengine.c ****     /* has it been castling to the right? */
 981:u8glib_arm_v1.18.1\src/chessengine.c ****     else if ( dest - src == 2 )
 2258              		.loc 1 981 0
 2259 0190 BA79     		ldrb	r2, [r7, #6]	@ zero_extendqisi2
 2260 0192 FB79     		ldrb	r3, [r7, #7]	@ zero_extendqisi2
 2261 0194 D31A     		subs	r3, r2, r3
 2262 0196 022B     		cmp	r3, #2
ARM GAS  C:\Users\KJA\AppData\Local\Temp\ccNNA7zi.s 			page 58


 2263 0198 4ED1     		bne	.L112
 982:u8glib_arm_v1.18.1\src/chessengine.c ****     {
 983:u8glib_arm_v1.18.1\src/chessengine.c ****       /* let the ROOK move to pos2 */
 984:u8glib_arm_v1.18.1\src/chessengine.c ****       set_pos2 = src+1;
 2264              		.loc 1 984 0
 2265 019a FB79     		ldrb	r3, [r7, #7]
 2266 019c 0133     		adds	r3, r3, #1
 2267 019e 7B75     		strb	r3, [r7, #21]
 985:u8glib_arm_v1.18.1\src/chessengine.c ****       set_cp2 = cp_GetFromBoard(src+3);
 2268              		.loc 1 985 0
 2269 01a0 FB79     		ldrb	r3, [r7, #7]
 2270 01a2 0333     		adds	r3, r3, #3
 2271 01a4 DBB2     		uxtb	r3, r3
 2272 01a6 1846     		mov	r0, r3
 2273 01a8 FFF7FEFF 		bl	cp_GetFromBoard
 2274 01ac 0346     		mov	r3, r0
 2275 01ae 3B75     		strb	r3, [r7, #20]
 986:u8glib_arm_v1.18.1\src/chessengine.c ****       
 987:u8glib_arm_v1.18.1\src/chessengine.c ****       /* the ROOK must be cleared from the original position */
 988:u8glib_arm_v1.18.1\src/chessengine.c ****       clr_pos2 = src+3;
 2276              		.loc 1 988 0
 2277 01b0 FB79     		ldrb	r3, [r7, #7]
 2278 01b2 0333     		adds	r3, r3, #3
 2279 01b4 BB75     		strb	r3, [r7, #22]
 989:u8glib_arm_v1.18.1\src/chessengine.c ****       
 990:u8glib_arm_v1.18.1\src/chessengine.c ****       chm->other_cp = set_cp2;
 2280              		.loc 1 990 0
 2281 01b6 3B69     		ldr	r3, [r7, #16]
 2282 01b8 3A7D     		ldrb	r2, [r7, #20]
 2283 01ba DA70     		strb	r2, [r3, #3]
 991:u8glib_arm_v1.18.1\src/chessengine.c ****       chm->other_src = clr_pos2;
 2284              		.loc 1 991 0
 2285 01bc 3B69     		ldr	r3, [r7, #16]
 2286 01be BA7D     		ldrb	r2, [r7, #22]
 2287 01c0 1A71     		strb	r2, [r3, #4]
 992:u8glib_arm_v1.18.1\src/chessengine.c ****       chm->other_dest = set_pos2;
 2288              		.loc 1 992 0
 2289 01c2 3B69     		ldr	r3, [r7, #16]
 2290 01c4 7A7D     		ldrb	r2, [r7, #21]
 2291 01c6 5A71     		strb	r2, [r3, #5]
 2292 01c8 36E0     		b	.L112
 2293              	.L113:
 993:u8glib_arm_v1.18.1\src/chessengine.c ****       
 994:u8glib_arm_v1.18.1\src/chessengine.c ****     }
 995:u8glib_arm_v1.18.1\src/chessengine.c ****     
 996:u8glib_arm_v1.18.1\src/chessengine.c ****   }
 997:u8glib_arm_v1.18.1\src/chessengine.c ****   
 998:u8glib_arm_v1.18.1\src/chessengine.c ****   /* check for the ROOK */
 999:u8glib_arm_v1.18.1\src/chessengine.c ****   else if ( cp_GetPiece(cp_src) == PIECE_ROOK )
 2294              		.loc 1 999 0
 2295 01ca FB7D     		ldrb	r3, [r7, #23]	@ zero_extendqisi2
 2296 01cc 1846     		mov	r0, r3
 2297 01ce FFF7FEFF 		bl	cp_GetPiece
 2298 01d2 0346     		mov	r3, r0
 2299 01d4 042B     		cmp	r3, #4
 2300 01d6 2FD1     		bne	.L112
1000:u8glib_arm_v1.18.1\src/chessengine.c ****   {
ARM GAS  C:\Users\KJA\AppData\Local\Temp\ccNNA7zi.s 			page 59


1001:u8glib_arm_v1.18.1\src/chessengine.c ****     /* disallow white left castling */
1002:u8glib_arm_v1.18.1\src/chessengine.c ****     if ( src == 0x00 )
 2301              		.loc 1 1002 0
 2302 01d8 FB79     		ldrb	r3, [r7, #7]	@ zero_extendqisi2
 2303 01da 002B     		cmp	r3, #0
 2304 01dc 08D1     		bne	.L118
1003:u8glib_arm_v1.18.1\src/chessengine.c ****       lrc_obj.castling_possible &= ~0x01;
 2305              		.loc 1 1003 0
 2306 01de 264B     		ldr	r3, .L123
 2307 01e0 93F84430 		ldrb	r3, [r3, #68]	@ zero_extendqisi2
 2308 01e4 23F00103 		bic	r3, r3, #1
 2309 01e8 DAB2     		uxtb	r2, r3
 2310 01ea 234B     		ldr	r3, .L123
 2311 01ec 83F84420 		strb	r2, [r3, #68]
 2312              	.L118:
1004:u8glib_arm_v1.18.1\src/chessengine.c ****     /* disallow white right castling */
1005:u8glib_arm_v1.18.1\src/chessengine.c ****     if ( src == 0x07 )
 2313              		.loc 1 1005 0
 2314 01f0 FB79     		ldrb	r3, [r7, #7]	@ zero_extendqisi2
 2315 01f2 072B     		cmp	r3, #7
 2316 01f4 08D1     		bne	.L119
1006:u8glib_arm_v1.18.1\src/chessengine.c ****       lrc_obj.castling_possible &= ~0x02;
 2317              		.loc 1 1006 0
 2318 01f6 204B     		ldr	r3, .L123
 2319 01f8 93F84430 		ldrb	r3, [r3, #68]	@ zero_extendqisi2
 2320 01fc 23F00203 		bic	r3, r3, #2
 2321 0200 DAB2     		uxtb	r2, r3
 2322 0202 1D4B     		ldr	r3, .L123
 2323 0204 83F84420 		strb	r2, [r3, #68]
 2324              	.L119:
1007:u8glib_arm_v1.18.1\src/chessengine.c ****     /* disallow black left castling */
1008:u8glib_arm_v1.18.1\src/chessengine.c ****     if ( src == 0x70 )
 2325              		.loc 1 1008 0
 2326 0208 FB79     		ldrb	r3, [r7, #7]	@ zero_extendqisi2
 2327 020a 702B     		cmp	r3, #112
 2328 020c 08D1     		bne	.L120
1009:u8glib_arm_v1.18.1\src/chessengine.c ****       lrc_obj.castling_possible &= ~0x04;
 2329              		.loc 1 1009 0
 2330 020e 1A4B     		ldr	r3, .L123
 2331 0210 93F84430 		ldrb	r3, [r3, #68]	@ zero_extendqisi2
 2332 0214 23F00403 		bic	r3, r3, #4
 2333 0218 DAB2     		uxtb	r2, r3
 2334 021a 174B     		ldr	r3, .L123
 2335 021c 83F84420 		strb	r2, [r3, #68]
 2336              	.L120:
1010:u8glib_arm_v1.18.1\src/chessengine.c ****     /* disallow black right castling */
1011:u8glib_arm_v1.18.1\src/chessengine.c ****     if ( src == 0x77 )
 2337              		.loc 1 1011 0
 2338 0220 FB79     		ldrb	r3, [r7, #7]	@ zero_extendqisi2
 2339 0222 772B     		cmp	r3, #119
 2340 0224 08D1     		bne	.L112
1012:u8glib_arm_v1.18.1\src/chessengine.c ****       lrc_obj.castling_possible &= ~0x08;
 2341              		.loc 1 1012 0
 2342 0226 144B     		ldr	r3, .L123
 2343 0228 93F84430 		ldrb	r3, [r3, #68]	@ zero_extendqisi2
 2344 022c 23F00803 		bic	r3, r3, #8
 2345 0230 DAB2     		uxtb	r2, r3
ARM GAS  C:\Users\KJA\AppData\Local\Temp\ccNNA7zi.s 			page 60


 2346 0232 114B     		ldr	r3, .L123
 2347 0234 83F84420 		strb	r2, [r3, #68]
 2348              	.L112:
1013:u8glib_arm_v1.18.1\src/chessengine.c ****   }
1014:u8glib_arm_v1.18.1\src/chessengine.c ****   
1015:u8glib_arm_v1.18.1\src/chessengine.c ****   
1016:u8glib_arm_v1.18.1\src/chessengine.c ****   /* apply new board situation */
1017:u8glib_arm_v1.18.1\src/chessengine.c ****   
1018:u8glib_arm_v1.18.1\src/chessengine.c ****   cp_SetOnBoard(dest, cp_src);
 2349              		.loc 1 1018 0
 2350 0238 BA79     		ldrb	r2, [r7, #6]	@ zero_extendqisi2
 2351 023a FB7D     		ldrb	r3, [r7, #23]	@ zero_extendqisi2
 2352 023c 1046     		mov	r0, r2
 2353 023e 1946     		mov	r1, r3
 2354 0240 FFF7FEFF 		bl	cp_SetOnBoard
1019:u8glib_arm_v1.18.1\src/chessengine.c ****   
1020:u8glib_arm_v1.18.1\src/chessengine.c ****   if ( set_pos2 != ILLEGAL_POSITION )
 2355              		.loc 1 1020 0
 2356 0244 7B7D     		ldrb	r3, [r7, #21]	@ zero_extendqisi2
 2357 0246 FF2B     		cmp	r3, #255
 2358 0248 05D0     		beq	.L121
1021:u8glib_arm_v1.18.1\src/chessengine.c ****     cp_SetOnBoard(set_pos2, set_cp2);
 2359              		.loc 1 1021 0
 2360 024a 7A7D     		ldrb	r2, [r7, #21]	@ zero_extendqisi2
 2361 024c 3B7D     		ldrb	r3, [r7, #20]	@ zero_extendqisi2
 2362 024e 1046     		mov	r0, r2
 2363 0250 1946     		mov	r1, r3
 2364 0252 FFF7FEFF 		bl	cp_SetOnBoard
 2365              	.L121:
1022:u8glib_arm_v1.18.1\src/chessengine.c ****   
1023:u8glib_arm_v1.18.1\src/chessengine.c ****   cp_SetOnBoard(src, PIECE_NONE);
 2366              		.loc 1 1023 0
 2367 0256 FB79     		ldrb	r3, [r7, #7]	@ zero_extendqisi2
 2368 0258 1846     		mov	r0, r3
 2369 025a 0021     		movs	r1, #0
 2370 025c FFF7FEFF 		bl	cp_SetOnBoard
1024:u8glib_arm_v1.18.1\src/chessengine.c ****   
1025:u8glib_arm_v1.18.1\src/chessengine.c ****   if ( clr_pos2 != ILLEGAL_POSITION )
 2371              		.loc 1 1025 0
 2372 0260 BB7D     		ldrb	r3, [r7, #22]	@ zero_extendqisi2
 2373 0262 FF2B     		cmp	r3, #255
 2374 0264 04D0     		beq	.L105
1026:u8glib_arm_v1.18.1\src/chessengine.c ****     cp_SetOnBoard(clr_pos2, PIECE_NONE);
 2375              		.loc 1 1026 0
 2376 0266 BB7D     		ldrb	r3, [r7, #22]	@ zero_extendqisi2
 2377 0268 1846     		mov	r0, r3
 2378 026a 0021     		movs	r1, #0
 2379 026c FFF7FEFF 		bl	cp_SetOnBoard
 2380              	.L105:
1027:u8glib_arm_v1.18.1\src/chessengine.c ****   
1028:u8glib_arm_v1.18.1\src/chessengine.c ****   
1029:u8glib_arm_v1.18.1\src/chessengine.c **** }
 2381              		.loc 1 1029 0
 2382 0270 1837     		adds	r7, r7, #24
 2383              		.cfi_def_cfa_offset 8
 2384 0272 BD46     		mov	sp, r7
 2385              		.cfi_def_cfa_register 13
ARM GAS  C:\Users\KJA\AppData\Local\Temp\ccNNA7zi.s 			page 61


 2386              		@ sp needed
 2387 0274 80BD     		pop	{r7, pc}
 2388              	.L124:
 2389 0276 00BF     		.align	2
 2390              	.L123:
 2391 0278 00000000 		.word	lrc_obj
 2392              		.cfi_endproc
 2393              	.LFE25:
 2394              		.size	cu_Move, .-cu_Move
 2395              		.section	.text.ce_LoopRecur,"ax",%progbits
 2396              		.align	2
 2397              		.global	ce_LoopRecur
 2398              		.thumb
 2399              		.thumb_func
 2400              		.type	ce_LoopRecur, %function
 2401              	ce_LoopRecur:
 2402              	.LFB26:
1030:u8glib_arm_v1.18.1\src/chessengine.c **** 
1031:u8glib_arm_v1.18.1\src/chessengine.c **** /*
1032:u8glib_arm_v1.18.1\src/chessengine.c ****   this subprocedure decides for evaluation of the current board situation or further (deeper) inves
1033:u8glib_arm_v1.18.1\src/chessengine.c ****   Argument pos is the new target position if the current piece 
1034:u8glib_arm_v1.18.1\src/chessengine.c **** 
1035:u8glib_arm_v1.18.1\src/chessengine.c **** */
1036:u8glib_arm_v1.18.1\src/chessengine.c **** uint8_t ce_LoopRecur(uint8_t pos)
1037:u8glib_arm_v1.18.1\src/chessengine.c **** {
 2403              		.loc 1 1037 0
 2404              		.cfi_startproc
 2405              		@ args = 0, pretend = 0, frame = 16
 2406              		@ frame_needed = 1, uses_anonymous_args = 0
 2407 0000 80B5     		push	{r7, lr}
 2408              		.cfi_def_cfa_offset 8
 2409              		.cfi_offset 7, -8
 2410              		.cfi_offset 14, -4
 2411 0002 84B0     		sub	sp, sp, #16
 2412              		.cfi_def_cfa_offset 24
 2413 0004 00AF     		add	r7, sp, #0
 2414              		.cfi_def_cfa_register 7
 2415 0006 0346     		mov	r3, r0
 2416 0008 FB71     		strb	r3, [r7, #7]
1038:u8glib_arm_v1.18.1\src/chessengine.c ****   eval_t eval;
1039:u8glib_arm_v1.18.1\src/chessengine.c ****   
1040:u8glib_arm_v1.18.1\src/chessengine.c ****   /* 1. check if target position is occupied by the same player (my_color) */
1041:u8glib_arm_v1.18.1\src/chessengine.c ****   /*     of if pos is somehow illegal or not valid */
1042:u8glib_arm_v1.18.1\src/chessengine.c ****   if ( cu_IsIllegalPosition(pos, stack_GetCurrElement()->current_color) != 0 )
 2417              		.loc 1 1042 0
 2418 000a FFF7FEFF 		bl	stack_GetCurrElement
 2419 000e 0346     		mov	r3, r0
 2420 0010 9B78     		ldrb	r3, [r3, #2]	@ zero_extendqisi2
 2421 0012 FA79     		ldrb	r2, [r7, #7]	@ zero_extendqisi2
 2422 0014 1046     		mov	r0, r2
 2423 0016 1946     		mov	r1, r3
 2424 0018 FFF7FEFF 		bl	cu_IsIllegalPosition
 2425 001c 0346     		mov	r3, r0
 2426 001e 002B     		cmp	r3, #0
 2427 0020 01D0     		beq	.L126
1043:u8glib_arm_v1.18.1\src/chessengine.c ****     return 0;
 2428              		.loc 1 1043 0
ARM GAS  C:\Users\KJA\AppData\Local\Temp\ccNNA7zi.s 			page 62


 2429 0022 0023     		movs	r3, #0
 2430 0024 61E0     		b	.L127
 2431              	.L126:
1044:u8glib_arm_v1.18.1\src/chessengine.c **** 
1045:u8glib_arm_v1.18.1\src/chessengine.c ****   /* 2. move piece to the specified position, capture opponent piece if required */
1046:u8glib_arm_v1.18.1\src/chessengine.c ****   cu_Move(stack_GetCurrElement()->current_pos, pos);
 2432              		.loc 1 1046 0
 2433 0026 FFF7FEFF 		bl	stack_GetCurrElement
 2434 002a 0346     		mov	r3, r0
 2435 002c 1A78     		ldrb	r2, [r3]	@ zero_extendqisi2
 2436 002e FB79     		ldrb	r3, [r7, #7]	@ zero_extendqisi2
 2437 0030 1046     		mov	r0, r2
 2438 0032 1946     		mov	r1, r3
 2439 0034 FFF7FEFF 		bl	cu_Move
1047:u8glib_arm_v1.18.1\src/chessengine.c **** 
1048:u8glib_arm_v1.18.1\src/chessengine.c ****   
1049:u8glib_arm_v1.18.1\src/chessengine.c ****   /* 3. */
1050:u8glib_arm_v1.18.1\src/chessengine.c ****   /* if depth reached: evaluate */
1051:u8glib_arm_v1.18.1\src/chessengine.c ****   /* else: go down next level */
1052:u8glib_arm_v1.18.1\src/chessengine.c ****   /* no eval if there had been any valid half-moves, so the default value (MIN) will be returned. *
1053:u8glib_arm_v1.18.1\src/chessengine.c ****   if ( stack_Push(stack_GetCurrElement()->current_color) == 0 )
 2440              		.loc 1 1053 0
 2441 0038 FFF7FEFF 		bl	stack_GetCurrElement
 2442 003c 0346     		mov	r3, r0
 2443 003e 9B78     		ldrb	r3, [r3, #2]	@ zero_extendqisi2
 2444 0040 1846     		mov	r0, r3
 2445 0042 FFF7FEFF 		bl	stack_Push
 2446 0046 0346     		mov	r3, r0
 2447 0048 002B     		cmp	r3, #0
 2448 004a 04D1     		bne	.L128
1054:u8glib_arm_v1.18.1\src/chessengine.c ****   {
1055:u8glib_arm_v1.18.1\src/chessengine.c ****     eval = ce_Eval();
 2449              		.loc 1 1055 0
 2450 004c FFF7FEFF 		bl	ce_Eval
 2451 0050 0346     		mov	r3, r0
 2452 0052 FB81     		strh	r3, [r7, #14]	@ movhi
 2453 0054 0DE0     		b	.L129
 2454              	.L128:
1056:u8glib_arm_v1.18.1\src/chessengine.c ****   }
1057:u8glib_arm_v1.18.1\src/chessengine.c ****   else
1058:u8glib_arm_v1.18.1\src/chessengine.c ****   {
1059:u8glib_arm_v1.18.1\src/chessengine.c ****     /* init the element, which has been pushed */
1060:u8glib_arm_v1.18.1\src/chessengine.c ****     stack_InitCurrElement();
 2455              		.loc 1 1060 0
 2456 0056 FFF7FEFF 		bl	stack_InitCurrElement
1061:u8glib_arm_v1.18.1\src/chessengine.c ****     /* start over with ntext level */
1062:u8glib_arm_v1.18.1\src/chessengine.c ****     ce_LoopPieces();
 2457              		.loc 1 1062 0
 2458 005a FFF7FEFF 		bl	ce_LoopPieces
1063:u8glib_arm_v1.18.1\src/chessengine.c ****     /* get the best move from opponents view, so invert the result */
1064:u8glib_arm_v1.18.1\src/chessengine.c ****     eval = -stack_GetCurrElement()->best_eval;
 2459              		.loc 1 1064 0
 2460 005e FFF7FEFF 		bl	stack_GetCurrElement
 2461 0062 0346     		mov	r3, r0
 2462 0064 DB88     		ldrh	r3, [r3, #6]
 2463 0066 9BB2     		uxth	r3, r3
 2464 0068 5B42     		negs	r3, r3
ARM GAS  C:\Users\KJA\AppData\Local\Temp\ccNNA7zi.s 			page 63


 2465 006a 9BB2     		uxth	r3, r3
 2466 006c FB81     		strh	r3, [r7, #14]	@ movhi
1065:u8glib_arm_v1.18.1\src/chessengine.c ****     stack_Pop();
 2467              		.loc 1 1065 0
 2468 006e FFF7FEFF 		bl	stack_Pop
 2469              	.L129:
1066:u8glib_arm_v1.18.1\src/chessengine.c ****   }
1067:u8glib_arm_v1.18.1\src/chessengine.c ****   
1068:u8glib_arm_v1.18.1\src/chessengine.c ****   /* 4. store result */
1069:u8glib_arm_v1.18.1\src/chessengine.c ****   stack_SetMove(eval, pos);
 2470              		.loc 1 1069 0
 2471 0072 B7F90E20 		ldrsh	r2, [r7, #14]
 2472 0076 FB79     		ldrb	r3, [r7, #7]	@ zero_extendqisi2
 2473 0078 1046     		mov	r0, r2
 2474 007a 1946     		mov	r1, r3
 2475 007c FFF7FEFF 		bl	stack_SetMove
1070:u8glib_arm_v1.18.1\src/chessengine.c ****   
1071:u8glib_arm_v1.18.1\src/chessengine.c ****   /* 5. undo the move */
1072:u8glib_arm_v1.18.1\src/chessengine.c ****   cu_UndoHalfMove();
 2476              		.loc 1 1072 0
 2477 0080 FFF7FEFF 		bl	cu_UndoHalfMove
1073:u8glib_arm_v1.18.1\src/chessengine.c ****   
1074:u8glib_arm_v1.18.1\src/chessengine.c ****   /* 6. check special modes */
1075:u8glib_arm_v1.18.1\src/chessengine.c ****   /* the purpose of these checks is to mark special pieces and positions on the board */
1076:u8glib_arm_v1.18.1\src/chessengine.c ****   /* these marks can be checked by the user interface to highlight special positions */
1077:u8glib_arm_v1.18.1\src/chessengine.c ****   if ( lrc_obj.check_mode != 0 )
 2478              		.loc 1 1077 0
 2479 0084 1B4B     		ldr	r3, .L132
 2480 0086 93F84A30 		ldrb	r3, [r3, #74]	@ zero_extendqisi2
 2481 008a 002B     		cmp	r3, #0
 2482 008c 2CD0     		beq	.L130
 2483              	.LBB2:
1078:u8glib_arm_v1.18.1\src/chessengine.c ****   {
1079:u8glib_arm_v1.18.1\src/chessengine.c ****     stack_element_p e = stack_GetCurrElement();
 2484              		.loc 1 1079 0
 2485 008e FFF7FEFF 		bl	stack_GetCurrElement
 2486 0092 B860     		str	r0, [r7, #8]
1080:u8glib_arm_v1.18.1\src/chessengine.c ****     if ( lrc_obj.check_mode == CHECK_MODE_MOVEABLE )
 2487              		.loc 1 1080 0
 2488 0094 174B     		ldr	r3, .L132
 2489 0096 93F84A30 		ldrb	r3, [r3, #74]	@ zero_extendqisi2
 2490 009a 012B     		cmp	r3, #1
 2491 009c 0BD1     		bne	.L131
1081:u8glib_arm_v1.18.1\src/chessengine.c ****     {
1082:u8glib_arm_v1.18.1\src/chessengine.c ****       cp_SetOnBoard(e->current_pos, e->current_cp | CP_MARK_MASK );
 2492              		.loc 1 1082 0
 2493 009e BB68     		ldr	r3, [r7, #8]
 2494 00a0 1A78     		ldrb	r2, [r3]	@ zero_extendqisi2
 2495 00a2 BB68     		ldr	r3, [r7, #8]
 2496 00a4 5B78     		ldrb	r3, [r3, #1]	@ zero_extendqisi2
 2497 00a6 43F02003 		orr	r3, r3, #32
 2498 00aa DBB2     		uxtb	r3, r3
 2499 00ac 1046     		mov	r0, r2
 2500 00ae 1946     		mov	r1, r3
 2501 00b0 FFF7FEFF 		bl	cp_SetOnBoard
 2502 00b4 18E0     		b	.L130
 2503              	.L131:
ARM GAS  C:\Users\KJA\AppData\Local\Temp\ccNNA7zi.s 			page 64


1083:u8glib_arm_v1.18.1\src/chessengine.c ****     }
1084:u8glib_arm_v1.18.1\src/chessengine.c ****     else if ( lrc_obj.check_mode == CHECK_MODE_TARGET_MOVE )
 2504              		.loc 1 1084 0
 2505 00b6 0F4B     		ldr	r3, .L132
 2506 00b8 93F84A30 		ldrb	r3, [r3, #74]	@ zero_extendqisi2
 2507 00bc 022B     		cmp	r3, #2
 2508 00be 13D1     		bne	.L130
1085:u8glib_arm_v1.18.1\src/chessengine.c ****     {
1086:u8glib_arm_v1.18.1\src/chessengine.c ****       if ( e->current_pos == lrc_obj.check_src_pos )
 2509              		.loc 1 1086 0
 2510 00c0 BB68     		ldr	r3, [r7, #8]
 2511 00c2 1A78     		ldrb	r2, [r3]	@ zero_extendqisi2
 2512 00c4 0B4B     		ldr	r3, .L132
 2513 00c6 93F84930 		ldrb	r3, [r3, #73]	@ zero_extendqisi2
 2514 00ca 9A42     		cmp	r2, r3
 2515 00cc 0CD1     		bne	.L130
1087:u8glib_arm_v1.18.1\src/chessengine.c ****       {
1088:u8glib_arm_v1.18.1\src/chessengine.c **** 	cp_SetOnBoard(pos, cp_GetFromBoard(pos)  | CP_MARK_MASK );
 2516              		.loc 1 1088 0
 2517 00ce FB79     		ldrb	r3, [r7, #7]	@ zero_extendqisi2
 2518 00d0 1846     		mov	r0, r3
 2519 00d2 FFF7FEFF 		bl	cp_GetFromBoard
 2520 00d6 0346     		mov	r3, r0
 2521 00d8 43F02003 		orr	r3, r3, #32
 2522 00dc DBB2     		uxtb	r3, r3
 2523 00de FA79     		ldrb	r2, [r7, #7]	@ zero_extendqisi2
 2524 00e0 1046     		mov	r0, r2
 2525 00e2 1946     		mov	r1, r3
 2526 00e4 FFF7FEFF 		bl	cp_SetOnBoard
 2527              	.L130:
 2528              	.LBE2:
1089:u8glib_arm_v1.18.1\src/chessengine.c ****       }
1090:u8glib_arm_v1.18.1\src/chessengine.c ****     }
1091:u8glib_arm_v1.18.1\src/chessengine.c ****   }
1092:u8glib_arm_v1.18.1\src/chessengine.c ****   return 1;
 2529              		.loc 1 1092 0
 2530 00e8 0123     		movs	r3, #1
 2531              	.L127:
1093:u8glib_arm_v1.18.1\src/chessengine.c **** }
 2532              		.loc 1 1093 0
 2533 00ea 1846     		mov	r0, r3
 2534 00ec 1037     		adds	r7, r7, #16
 2535              		.cfi_def_cfa_offset 8
 2536 00ee BD46     		mov	sp, r7
 2537              		.cfi_def_cfa_register 13
 2538              		@ sp needed
 2539 00f0 80BD     		pop	{r7, pc}
 2540              	.L133:
 2541 00f2 00BF     		.align	2
 2542              	.L132:
 2543 00f4 00000000 		.word	lrc_obj
 2544              		.cfi_endproc
 2545              	.LFE26:
 2546              		.size	ce_LoopRecur, .-ce_LoopRecur
 2547              		.section	.rodata
 2548              		.align	2
 2549              		.type	ce_dir_offset_rook, %object
ARM GAS  C:\Users\KJA\AppData\Local\Temp\ccNNA7zi.s 			page 65


 2550              		.size	ce_dir_offset_rook, 5
 2551              	ce_dir_offset_rook:
 2552 0000 01       		.byte	1
 2553 0001 10       		.byte	16
 2554 0002 F0       		.byte	-16
 2555 0003 FF       		.byte	-1
 2556 0004 00       		.byte	0
 2557 0005 000000   		.align	2
 2558              		.type	ce_dir_offset_bishop, %object
 2559              		.size	ce_dir_offset_bishop, 5
 2560              	ce_dir_offset_bishop:
 2561 0008 0F       		.byte	15
 2562 0009 11       		.byte	17
 2563 000a EF       		.byte	-17
 2564 000b F1       		.byte	-15
 2565 000c 00       		.byte	0
 2566 000d 000000   		.align	2
 2567              		.type	ce_dir_offset_queen, %object
 2568              		.size	ce_dir_offset_queen, 9
 2569              	ce_dir_offset_queen:
 2570 0010 01       		.byte	1
 2571 0011 10       		.byte	16
 2572 0012 F0       		.byte	-16
 2573 0013 FF       		.byte	-1
 2574 0014 0F       		.byte	15
 2575 0015 11       		.byte	17
 2576 0016 EF       		.byte	-17
 2577 0017 F1       		.byte	-15
 2578 0018 00       		.byte	0
 2579 0019 000000   		.align	2
 2580              		.type	ce_dir_offset_knight, %object
 2581              		.size	ce_dir_offset_knight, 9
 2582              	ce_dir_offset_knight:
 2583 001c 0E       		.byte	14
 2584 001d F2       		.byte	-14
 2585 001e 12       		.byte	18
 2586 001f EE       		.byte	-18
 2587 0020 1F       		.byte	31
 2588 0021 E1       		.byte	-31
 2589 0022 21       		.byte	33
 2590 0023 DF       		.byte	-33
 2591 0024 00       		.byte	0
 2592              		.section	.text.ce_LoopDirsSingleMultiStep,"ax",%progbits
 2593              		.align	2
 2594              		.global	ce_LoopDirsSingleMultiStep
 2595              		.thumb
 2596              		.thumb_func
 2597              		.type	ce_LoopDirsSingleMultiStep, %function
 2598              	ce_LoopDirsSingleMultiStep:
 2599              	.LFB27:
1094:u8glib_arm_v1.18.1\src/chessengine.c **** 
1095:u8glib_arm_v1.18.1\src/chessengine.c **** /*==============================================================*/
1096:u8glib_arm_v1.18.1\src/chessengine.c **** /* move pieces which can move one or more steps into a direction */
1097:u8glib_arm_v1.18.1\src/chessengine.c **** /*==============================================================*/
1098:u8glib_arm_v1.18.1\src/chessengine.c **** 
1099:u8glib_arm_v1.18.1\src/chessengine.c **** /*
1100:u8glib_arm_v1.18.1\src/chessengine.c ****   subprocedure to generate various target positions for some pieces
ARM GAS  C:\Users\KJA\AppData\Local\Temp\ccNNA7zi.s 			page 66


1101:u8glib_arm_v1.18.1\src/chessengine.c ****   special cases are handled in the piece specific sub-procedure
1102:u8glib_arm_v1.18.1\src/chessengine.c **** 
1103:u8glib_arm_v1.18.1\src/chessengine.c ****   Arguments:
1104:u8glib_arm_v1.18.1\src/chessengine.c ****     d: a list of potential directions
1105:u8glib_arm_v1.18.1\src/chessengine.c ****     is_multi_step: if the piece can only do one step (zero for KING and KNIGHT)
1106:u8glib_arm_v1.18.1\src/chessengine.c **** */
1107:u8glib_arm_v1.18.1\src/chessengine.c **** static const uint8_t ce_dir_offset_rook[] PROGMEM = { 1, 16, -16, -1, 0 };
1108:u8glib_arm_v1.18.1\src/chessengine.c **** static const uint8_t ce_dir_offset_bishop[] PROGMEM = { 15, 17, -17, -15, 0 };
1109:u8glib_arm_v1.18.1\src/chessengine.c **** static const uint8_t ce_dir_offset_queen[] PROGMEM = { 1, 16, -16, -1, 15, 17, -17, -15, 0 };
1110:u8glib_arm_v1.18.1\src/chessengine.c **** static const uint8_t ce_dir_offset_knight[] PROGMEM = {14, -14, 18, -18, 31, -31, 33, -33, 0};
1111:u8glib_arm_v1.18.1\src/chessengine.c **** 
1112:u8glib_arm_v1.18.1\src/chessengine.c **** void ce_LoopDirsSingleMultiStep(const uint8_t *d, uint8_t is_multi_step)
1113:u8glib_arm_v1.18.1\src/chessengine.c **** {
 2600              		.loc 1 1113 0
 2601              		.cfi_startproc
 2602              		@ args = 0, pretend = 0, frame = 16
 2603              		@ frame_needed = 1, uses_anonymous_args = 0
 2604 0000 80B5     		push	{r7, lr}
 2605              		.cfi_def_cfa_offset 8
 2606              		.cfi_offset 7, -8
 2607              		.cfi_offset 14, -4
 2608 0002 84B0     		sub	sp, sp, #16
 2609              		.cfi_def_cfa_offset 24
 2610 0004 00AF     		add	r7, sp, #0
 2611              		.cfi_def_cfa_register 7
 2612 0006 7860     		str	r0, [r7, #4]
 2613 0008 0B46     		mov	r3, r1
 2614 000a FB70     		strb	r3, [r7, #3]
 2615              	.L141:
1114:u8glib_arm_v1.18.1\src/chessengine.c ****   uint8_t loop_pos;
1115:u8glib_arm_v1.18.1\src/chessengine.c ****   
1116:u8glib_arm_v1.18.1\src/chessengine.c ****   /* with all directions */
1117:u8glib_arm_v1.18.1\src/chessengine.c ****   for(;;)
1118:u8glib_arm_v1.18.1\src/chessengine.c ****   {
1119:u8glib_arm_v1.18.1\src/chessengine.c ****     if ( u8g_pgm_read(d) == 0 )
 2616              		.loc 1 1119 0
 2617 000c 7B68     		ldr	r3, [r7, #4]
 2618 000e 1B78     		ldrb	r3, [r3]	@ zero_extendqisi2
 2619 0010 002B     		cmp	r3, #0
 2620 0012 00D1     		bne	.L135
1120:u8glib_arm_v1.18.1\src/chessengine.c ****       break;
 2621              		.loc 1 1120 0
 2622 0014 24E0     		b	.L142
 2623              	.L135:
1121:u8glib_arm_v1.18.1\src/chessengine.c ****     
1122:u8glib_arm_v1.18.1\src/chessengine.c ****     /* start again from the initial position */
1123:u8glib_arm_v1.18.1\src/chessengine.c ****     loop_pos = stack_GetCurrElement()->current_pos;
 2624              		.loc 1 1123 0
 2625 0016 FFF7FEFF 		bl	stack_GetCurrElement
 2626 001a 0346     		mov	r3, r0
 2627 001c 1B78     		ldrb	r3, [r3]
 2628 001e FB73     		strb	r3, [r7, #15]
 2629              	.L140:
1124:u8glib_arm_v1.18.1\src/chessengine.c ****     
1125:u8glib_arm_v1.18.1\src/chessengine.c ****     /* check direction */
1126:u8glib_arm_v1.18.1\src/chessengine.c ****     do
1127:u8glib_arm_v1.18.1\src/chessengine.c ****     {
ARM GAS  C:\Users\KJA\AppData\Local\Temp\ccNNA7zi.s 			page 67


1128:u8glib_arm_v1.18.1\src/chessengine.c ****       /* check next position into one direction */
1129:u8glib_arm_v1.18.1\src/chessengine.c ****       loop_pos += u8g_pgm_read(d);
 2630              		.loc 1 1129 0
 2631 0020 7B68     		ldr	r3, [r7, #4]
 2632 0022 1A78     		ldrb	r2, [r3]	@ zero_extendqisi2
 2633 0024 FB7B     		ldrb	r3, [r7, #15]
 2634 0026 1344     		add	r3, r3, r2
 2635 0028 FB73     		strb	r3, [r7, #15]
1130:u8glib_arm_v1.18.1\src/chessengine.c ****       
1131:u8glib_arm_v1.18.1\src/chessengine.c ****       /*
1132:u8glib_arm_v1.18.1\src/chessengine.c **** 	go further to ce_LoopRecur()
1133:u8glib_arm_v1.18.1\src/chessengine.c **** 	0 will be returned if the target position is illegal or a piece of the own color
1134:u8glib_arm_v1.18.1\src/chessengine.c **** 	this is used to stop walking into one direction
1135:u8glib_arm_v1.18.1\src/chessengine.c ****       */
1136:u8glib_arm_v1.18.1\src/chessengine.c ****       if ( ce_LoopRecur(loop_pos) == 0 )
 2636              		.loc 1 1136 0
 2637 002a FB7B     		ldrb	r3, [r7, #15]	@ zero_extendqisi2
 2638 002c 1846     		mov	r0, r3
 2639 002e FFF7FEFF 		bl	ce_LoopRecur
 2640 0032 0346     		mov	r3, r0
 2641 0034 002B     		cmp	r3, #0
 2642 0036 00D1     		bne	.L137
1137:u8glib_arm_v1.18.1\src/chessengine.c **** 	break;
 2643              		.loc 1 1137 0
 2644 0038 0EE0     		b	.L138
 2645              	.L137:
1138:u8glib_arm_v1.18.1\src/chessengine.c ****       
1139:u8glib_arm_v1.18.1\src/chessengine.c ****       /* stop if we had hit another piece */
1140:u8glib_arm_v1.18.1\src/chessengine.c ****       if ( cp_GetPiece(cp_GetFromBoard(loop_pos)) != PIECE_NONE )
 2646              		.loc 1 1140 0
 2647 003a FB7B     		ldrb	r3, [r7, #15]	@ zero_extendqisi2
 2648 003c 1846     		mov	r0, r3
 2649 003e FFF7FEFF 		bl	cp_GetFromBoard
 2650 0042 0346     		mov	r3, r0
 2651 0044 1846     		mov	r0, r3
 2652 0046 FFF7FEFF 		bl	cp_GetPiece
 2653 004a 0346     		mov	r3, r0
 2654 004c 002B     		cmp	r3, #0
 2655 004e 00D0     		beq	.L139
1141:u8glib_arm_v1.18.1\src/chessengine.c **** 	break;
 2656              		.loc 1 1141 0
 2657 0050 02E0     		b	.L138
 2658              	.L139:
1142:u8glib_arm_v1.18.1\src/chessengine.c ****     } while( is_multi_step );
 2659              		.loc 1 1142 0
 2660 0052 FB78     		ldrb	r3, [r7, #3]	@ zero_extendqisi2
 2661 0054 002B     		cmp	r3, #0
 2662 0056 E3D1     		bne	.L140
 2663              	.L138:
1143:u8glib_arm_v1.18.1\src/chessengine.c ****     d++;
 2664              		.loc 1 1143 0
 2665 0058 7B68     		ldr	r3, [r7, #4]
 2666 005a 0133     		adds	r3, r3, #1
 2667 005c 7B60     		str	r3, [r7, #4]
1144:u8glib_arm_v1.18.1\src/chessengine.c ****   }
 2668              		.loc 1 1144 0
 2669 005e D5E7     		b	.L141
ARM GAS  C:\Users\KJA\AppData\Local\Temp\ccNNA7zi.s 			page 68


 2670              	.L142:
1145:u8glib_arm_v1.18.1\src/chessengine.c **** }
 2671              		.loc 1 1145 0
 2672 0060 1037     		adds	r7, r7, #16
 2673              		.cfi_def_cfa_offset 8
 2674 0062 BD46     		mov	sp, r7
 2675              		.cfi_def_cfa_register 13
 2676              		@ sp needed
 2677 0064 80BD     		pop	{r7, pc}
 2678              		.cfi_endproc
 2679              	.LFE27:
 2680              		.size	ce_LoopDirsSingleMultiStep, .-ce_LoopDirsSingleMultiStep
 2681 0066 00BF     		.section	.text.ce_LoopRook,"ax",%progbits
 2682              		.align	2
 2683              		.global	ce_LoopRook
 2684              		.thumb
 2685              		.thumb_func
 2686              		.type	ce_LoopRook, %function
 2687              	ce_LoopRook:
 2688              	.LFB28:
1146:u8glib_arm_v1.18.1\src/chessengine.c **** 
1147:u8glib_arm_v1.18.1\src/chessengine.c **** void ce_LoopRook(void)
1148:u8glib_arm_v1.18.1\src/chessengine.c **** {
 2689              		.loc 1 1148 0
 2690              		.cfi_startproc
 2691              		@ args = 0, pretend = 0, frame = 0
 2692              		@ frame_needed = 1, uses_anonymous_args = 0
 2693 0000 80B5     		push	{r7, lr}
 2694              		.cfi_def_cfa_offset 8
 2695              		.cfi_offset 7, -8
 2696              		.cfi_offset 14, -4
 2697 0002 00AF     		add	r7, sp, #0
 2698              		.cfi_def_cfa_register 7
1149:u8glib_arm_v1.18.1\src/chessengine.c ****   ce_LoopDirsSingleMultiStep(ce_dir_offset_rook, 1);
 2699              		.loc 1 1149 0
 2700 0004 0248     		ldr	r0, .L144
 2701 0006 0121     		movs	r1, #1
 2702 0008 FFF7FEFF 		bl	ce_LoopDirsSingleMultiStep
1150:u8glib_arm_v1.18.1\src/chessengine.c **** }
 2703              		.loc 1 1150 0
 2704 000c 80BD     		pop	{r7, pc}
 2705              	.L145:
 2706 000e 00BF     		.align	2
 2707              	.L144:
 2708 0010 00000000 		.word	ce_dir_offset_rook
 2709              		.cfi_endproc
 2710              	.LFE28:
 2711              		.size	ce_LoopRook, .-ce_LoopRook
 2712              		.section	.text.ce_LoopBishop,"ax",%progbits
 2713              		.align	2
 2714              		.global	ce_LoopBishop
 2715              		.thumb
 2716              		.thumb_func
 2717              		.type	ce_LoopBishop, %function
 2718              	ce_LoopBishop:
 2719              	.LFB29:
1151:u8glib_arm_v1.18.1\src/chessengine.c **** 
ARM GAS  C:\Users\KJA\AppData\Local\Temp\ccNNA7zi.s 			page 69


1152:u8glib_arm_v1.18.1\src/chessengine.c **** void ce_LoopBishop(void)
1153:u8glib_arm_v1.18.1\src/chessengine.c **** {
 2720              		.loc 1 1153 0
 2721              		.cfi_startproc
 2722              		@ args = 0, pretend = 0, frame = 0
 2723              		@ frame_needed = 1, uses_anonymous_args = 0
 2724 0000 80B5     		push	{r7, lr}
 2725              		.cfi_def_cfa_offset 8
 2726              		.cfi_offset 7, -8
 2727              		.cfi_offset 14, -4
 2728 0002 00AF     		add	r7, sp, #0
 2729              		.cfi_def_cfa_register 7
1154:u8glib_arm_v1.18.1\src/chessengine.c ****   ce_LoopDirsSingleMultiStep(ce_dir_offset_bishop, 1);
 2730              		.loc 1 1154 0
 2731 0004 0248     		ldr	r0, .L147
 2732 0006 0121     		movs	r1, #1
 2733 0008 FFF7FEFF 		bl	ce_LoopDirsSingleMultiStep
1155:u8glib_arm_v1.18.1\src/chessengine.c **** }
 2734              		.loc 1 1155 0
 2735 000c 80BD     		pop	{r7, pc}
 2736              	.L148:
 2737 000e 00BF     		.align	2
 2738              	.L147:
 2739 0010 08000000 		.word	ce_dir_offset_bishop
 2740              		.cfi_endproc
 2741              	.LFE29:
 2742              		.size	ce_LoopBishop, .-ce_LoopBishop
 2743              		.section	.text.ce_LoopQueen,"ax",%progbits
 2744              		.align	2
 2745              		.global	ce_LoopQueen
 2746              		.thumb
 2747              		.thumb_func
 2748              		.type	ce_LoopQueen, %function
 2749              	ce_LoopQueen:
 2750              	.LFB30:
1156:u8glib_arm_v1.18.1\src/chessengine.c **** 
1157:u8glib_arm_v1.18.1\src/chessengine.c **** void ce_LoopQueen(void)
1158:u8glib_arm_v1.18.1\src/chessengine.c **** {
 2751              		.loc 1 1158 0
 2752              		.cfi_startproc
 2753              		@ args = 0, pretend = 0, frame = 0
 2754              		@ frame_needed = 1, uses_anonymous_args = 0
 2755 0000 80B5     		push	{r7, lr}
 2756              		.cfi_def_cfa_offset 8
 2757              		.cfi_offset 7, -8
 2758              		.cfi_offset 14, -4
 2759 0002 00AF     		add	r7, sp, #0
 2760              		.cfi_def_cfa_register 7
1159:u8glib_arm_v1.18.1\src/chessengine.c ****   ce_LoopDirsSingleMultiStep(ce_dir_offset_queen, 1);
 2761              		.loc 1 1159 0
 2762 0004 0248     		ldr	r0, .L150
 2763 0006 0121     		movs	r1, #1
 2764 0008 FFF7FEFF 		bl	ce_LoopDirsSingleMultiStep
1160:u8glib_arm_v1.18.1\src/chessengine.c **** }
 2765              		.loc 1 1160 0
 2766 000c 80BD     		pop	{r7, pc}
 2767              	.L151:
ARM GAS  C:\Users\KJA\AppData\Local\Temp\ccNNA7zi.s 			page 70


 2768 000e 00BF     		.align	2
 2769              	.L150:
 2770 0010 10000000 		.word	ce_dir_offset_queen
 2771              		.cfi_endproc
 2772              	.LFE30:
 2773              		.size	ce_LoopQueen, .-ce_LoopQueen
 2774              		.section	.text.ce_LoopKnight,"ax",%progbits
 2775              		.align	2
 2776              		.global	ce_LoopKnight
 2777              		.thumb
 2778              		.thumb_func
 2779              		.type	ce_LoopKnight, %function
 2780              	ce_LoopKnight:
 2781              	.LFB31:
1161:u8glib_arm_v1.18.1\src/chessengine.c **** 
1162:u8glib_arm_v1.18.1\src/chessengine.c **** void ce_LoopKnight(void)
1163:u8glib_arm_v1.18.1\src/chessengine.c **** {
 2782              		.loc 1 1163 0
 2783              		.cfi_startproc
 2784              		@ args = 0, pretend = 0, frame = 0
 2785              		@ frame_needed = 1, uses_anonymous_args = 0
 2786 0000 80B5     		push	{r7, lr}
 2787              		.cfi_def_cfa_offset 8
 2788              		.cfi_offset 7, -8
 2789              		.cfi_offset 14, -4
 2790 0002 00AF     		add	r7, sp, #0
 2791              		.cfi_def_cfa_register 7
1164:u8glib_arm_v1.18.1\src/chessengine.c ****   ce_LoopDirsSingleMultiStep(ce_dir_offset_knight, 0);
 2792              		.loc 1 1164 0
 2793 0004 0248     		ldr	r0, .L153
 2794 0006 0021     		movs	r1, #0
 2795 0008 FFF7FEFF 		bl	ce_LoopDirsSingleMultiStep
1165:u8glib_arm_v1.18.1\src/chessengine.c **** }
 2796              		.loc 1 1165 0
 2797 000c 80BD     		pop	{r7, pc}
 2798              	.L154:
 2799 000e 00BF     		.align	2
 2800              	.L153:
 2801 0010 1C000000 		.word	ce_dir_offset_knight
 2802              		.cfi_endproc
 2803              	.LFE31:
 2804              		.size	ce_LoopKnight, .-ce_LoopKnight
 2805              		.section	.text.cu_IsKingCastling,"ax",%progbits
 2806              		.align	2
 2807              		.global	cu_IsKingCastling
 2808              		.thumb
 2809              		.thumb_func
 2810              		.type	cu_IsKingCastling, %function
 2811              	cu_IsKingCastling:
 2812              	.LFB32:
1166:u8glib_arm_v1.18.1\src/chessengine.c **** 
1167:u8glib_arm_v1.18.1\src/chessengine.c **** 
1168:u8glib_arm_v1.18.1\src/chessengine.c **** 
1169:u8glib_arm_v1.18.1\src/chessengine.c **** /*==============================================================*/
1170:u8glib_arm_v1.18.1\src/chessengine.c **** /* move king */
1171:u8glib_arm_v1.18.1\src/chessengine.c **** /*==============================================================*/
1172:u8glib_arm_v1.18.1\src/chessengine.c **** 
ARM GAS  C:\Users\KJA\AppData\Local\Temp\ccNNA7zi.s 			page 71


1173:u8glib_arm_v1.18.1\src/chessengine.c **** uint8_t cu_IsKingCastling(uint8_t mask, int8_t direction, uint8_t cnt) U8G_NOINLINE;
1174:u8glib_arm_v1.18.1\src/chessengine.c **** 
1175:u8glib_arm_v1.18.1\src/chessengine.c **** /*
1176:u8glib_arm_v1.18.1\src/chessengine.c ****   checks, if the king can do castling
1177:u8glib_arm_v1.18.1\src/chessengine.c **** 
1178:u8glib_arm_v1.18.1\src/chessengine.c ****   Arguments:
1179:u8glib_arm_v1.18.1\src/chessengine.c ****     mask:		the bit-mask for the global "castling possible" flag
1180:u8glib_arm_v1.18.1\src/chessengine.c ****     direction:	left castling: -1, right castling 1
1181:u8glib_arm_v1.18.1\src/chessengine.c ****     cnt:		number of fields to be checked: 3 or 2
1182:u8glib_arm_v1.18.1\src/chessengine.c **** */
1183:u8glib_arm_v1.18.1\src/chessengine.c **** uint8_t cu_IsKingCastling(uint8_t mask, int8_t direction, uint8_t cnt)
1184:u8glib_arm_v1.18.1\src/chessengine.c **** {
 2813              		.loc 1 1184 0
 2814              		.cfi_startproc
 2815              		@ args = 0, pretend = 0, frame = 16
 2816              		@ frame_needed = 1, uses_anonymous_args = 0
 2817 0000 80B5     		push	{r7, lr}
 2818              		.cfi_def_cfa_offset 8
 2819              		.cfi_offset 7, -8
 2820              		.cfi_offset 14, -4
 2821 0002 84B0     		sub	sp, sp, #16
 2822              		.cfi_def_cfa_offset 24
 2823 0004 00AF     		add	r7, sp, #0
 2824              		.cfi_def_cfa_register 7
 2825 0006 0346     		mov	r3, r0
 2826 0008 FB71     		strb	r3, [r7, #7]
 2827 000a 0B46     		mov	r3, r1
 2828 000c BB71     		strb	r3, [r7, #6]
 2829 000e 1346     		mov	r3, r2
 2830 0010 7B71     		strb	r3, [r7, #5]
1185:u8glib_arm_v1.18.1\src/chessengine.c ****   uint8_t pos;
1186:u8glib_arm_v1.18.1\src/chessengine.c ****   uint8_t opponent_color;
1187:u8glib_arm_v1.18.1\src/chessengine.c ****   
1188:u8glib_arm_v1.18.1\src/chessengine.c ****   /* check if the current board state allows castling */
1189:u8glib_arm_v1.18.1\src/chessengine.c ****   if ( (lrc_obj.castling_possible & mask) == 0 )
 2831              		.loc 1 1189 0
 2832 0012 264B     		ldr	r3, .L163
 2833 0014 93F84420 		ldrb	r2, [r3, #68]	@ zero_extendqisi2
 2834 0018 FB79     		ldrb	r3, [r7, #7]
 2835 001a 1340     		ands	r3, r3, r2
 2836 001c DBB2     		uxtb	r3, r3
 2837 001e 002B     		cmp	r3, #0
 2838 0020 01D1     		bne	.L156
1190:u8glib_arm_v1.18.1\src/chessengine.c ****     return 0; 	/* castling not allowed */
 2839              		.loc 1 1190 0
 2840 0022 0023     		movs	r3, #0
 2841 0024 3EE0     		b	.L157
 2842              	.L156:
1191:u8glib_arm_v1.18.1\src/chessengine.c ****   
1192:u8glib_arm_v1.18.1\src/chessengine.c ****   /* get the position of the KING, could be white or black king */
1193:u8glib_arm_v1.18.1\src/chessengine.c ****   pos = stack_GetCurrElement()->current_pos;
 2843              		.loc 1 1193 0
 2844 0026 FFF7FEFF 		bl	stack_GetCurrElement
 2845 002a 0346     		mov	r3, r0
 2846 002c 1B78     		ldrb	r3, [r3]
 2847 002e FB73     		strb	r3, [r7, #15]
1194:u8glib_arm_v1.18.1\src/chessengine.c ****   
ARM GAS  C:\Users\KJA\AppData\Local\Temp\ccNNA7zi.s 			page 72


1195:u8glib_arm_v1.18.1\src/chessengine.c ****   /* calculate the color of the opponent */
1196:u8glib_arm_v1.18.1\src/chessengine.c ****   opponent_color = 1;
 2848              		.loc 1 1196 0
 2849 0030 0123     		movs	r3, #1
 2850 0032 BB73     		strb	r3, [r7, #14]
1197:u8glib_arm_v1.18.1\src/chessengine.c ****   opponent_color -= stack_GetCurrElement()->current_color;
 2851              		.loc 1 1197 0
 2852 0034 FFF7FEFF 		bl	stack_GetCurrElement
 2853 0038 0346     		mov	r3, r0
 2854 003a 9B78     		ldrb	r3, [r3, #2]	@ zero_extendqisi2
 2855 003c BA7B     		ldrb	r2, [r7, #14]
 2856 003e D31A     		subs	r3, r2, r3
 2857 0040 BB73     		strb	r3, [r7, #14]
1198:u8glib_arm_v1.18.1\src/chessengine.c ****   
1199:u8glib_arm_v1.18.1\src/chessengine.c ****   /* if the KING itself is given check... */
1200:u8glib_arm_v1.18.1\src/chessengine.c ****   if ( ce_GetPositionAttackWeight(pos, opponent_color) > 0 )
 2858              		.loc 1 1200 0
 2859 0042 FA7B     		ldrb	r2, [r7, #15]	@ zero_extendqisi2
 2860 0044 BB7B     		ldrb	r3, [r7, #14]	@ zero_extendqisi2
 2861 0046 1046     		mov	r0, r2
 2862 0048 1946     		mov	r1, r3
 2863 004a FFF7FEFF 		bl	ce_GetPositionAttackWeight
 2864 004e 0346     		mov	r3, r0
 2865 0050 002B     		cmp	r3, #0
 2866 0052 01D0     		beq	.L158
1201:u8glib_arm_v1.18.1\src/chessengine.c ****     return 0;
 2867              		.loc 1 1201 0
 2868 0054 0023     		movs	r3, #0
 2869 0056 25E0     		b	.L157
 2870              	.L158:
1202:u8glib_arm_v1.18.1\src/chessengine.c **** 
1203:u8glib_arm_v1.18.1\src/chessengine.c ****   
1204:u8glib_arm_v1.18.1\src/chessengine.c ****   /* check if fields in the desired direction are emtpy */
1205:u8glib_arm_v1.18.1\src/chessengine.c ****   for(;;)
1206:u8glib_arm_v1.18.1\src/chessengine.c ****   {
1207:u8glib_arm_v1.18.1\src/chessengine.c ****     /* go to the next field */
1208:u8glib_arm_v1.18.1\src/chessengine.c ****     pos += direction;
 2871              		.loc 1 1208 0
 2872 0058 BA79     		ldrb	r2, [r7, #6]	@ zero_extendqisi2
 2873 005a FB7B     		ldrb	r3, [r7, #15]
 2874 005c 1344     		add	r3, r3, r2
 2875 005e FB73     		strb	r3, [r7, #15]
1209:u8glib_arm_v1.18.1\src/chessengine.c ****     /* check for a piece */
1210:u8glib_arm_v1.18.1\src/chessengine.c ****     if ( cp_GetPiece(cp_GetFromBoard(pos)) != PIECE_NONE )
 2876              		.loc 1 1210 0
 2877 0060 FB7B     		ldrb	r3, [r7, #15]	@ zero_extendqisi2
 2878 0062 1846     		mov	r0, r3
 2879 0064 FFF7FEFF 		bl	cp_GetFromBoard
 2880 0068 0346     		mov	r3, r0
 2881 006a 1846     		mov	r0, r3
 2882 006c FFF7FEFF 		bl	cp_GetPiece
 2883 0070 0346     		mov	r3, r0
 2884 0072 002B     		cmp	r3, #0
 2885 0074 01D0     		beq	.L159
1211:u8glib_arm_v1.18.1\src/chessengine.c ****       return 0;		/* castling not allowed */
 2886              		.loc 1 1211 0
 2887 0076 0023     		movs	r3, #0
ARM GAS  C:\Users\KJA\AppData\Local\Temp\ccNNA7zi.s 			page 73


 2888 0078 14E0     		b	.L157
 2889              	.L159:
1212:u8glib_arm_v1.18.1\src/chessengine.c **** 
1213:u8glib_arm_v1.18.1\src/chessengine.c ****     /* if some of the fields are under attack */
1214:u8glib_arm_v1.18.1\src/chessengine.c ****     if ( ce_GetPositionAttackWeight(pos, opponent_color) > 0 )
 2890              		.loc 1 1214 0
 2891 007a FA7B     		ldrb	r2, [r7, #15]	@ zero_extendqisi2
 2892 007c BB7B     		ldrb	r3, [r7, #14]	@ zero_extendqisi2
 2893 007e 1046     		mov	r0, r2
 2894 0080 1946     		mov	r1, r3
 2895 0082 FFF7FEFF 		bl	ce_GetPositionAttackWeight
 2896 0086 0346     		mov	r3, r0
 2897 0088 002B     		cmp	r3, #0
 2898 008a 01D0     		beq	.L160
1215:u8glib_arm_v1.18.1\src/chessengine.c ****       return 0;
 2899              		.loc 1 1215 0
 2900 008c 0023     		movs	r3, #0
 2901 008e 09E0     		b	.L157
 2902              	.L160:
1216:u8glib_arm_v1.18.1\src/chessengine.c ****     
1217:u8glib_arm_v1.18.1\src/chessengine.c ****     cnt--;
 2903              		.loc 1 1217 0
 2904 0090 7B79     		ldrb	r3, [r7, #5]	@ zero_extendqisi2
 2905 0092 013B     		subs	r3, r3, #1
 2906 0094 7B71     		strb	r3, [r7, #5]
1218:u8glib_arm_v1.18.1\src/chessengine.c ****     if ( cnt == 0 )
 2907              		.loc 1 1218 0
 2908 0096 7B79     		ldrb	r3, [r7, #5]	@ zero_extendqisi2
 2909 0098 002B     		cmp	r3, #0
 2910 009a 02D1     		bne	.L161
1219:u8glib_arm_v1.18.1\src/chessengine.c ****       break;
 2911              		.loc 1 1219 0
 2912 009c 00BF     		nop
1220:u8glib_arm_v1.18.1\src/chessengine.c ****   }
1221:u8glib_arm_v1.18.1\src/chessengine.c ****   return 1; /* castling allowed */
 2913              		.loc 1 1221 0
 2914 009e 0123     		movs	r3, #1
 2915 00a0 00E0     		b	.L157
 2916              	.L161:
1220:u8glib_arm_v1.18.1\src/chessengine.c ****   }
 2917              		.loc 1 1220 0
 2918 00a2 D9E7     		b	.L158
 2919              	.L157:
1222:u8glib_arm_v1.18.1\src/chessengine.c **** }
 2920              		.loc 1 1222 0
 2921 00a4 1846     		mov	r0, r3
 2922 00a6 1037     		adds	r7, r7, #16
 2923              		.cfi_def_cfa_offset 8
 2924 00a8 BD46     		mov	sp, r7
 2925              		.cfi_def_cfa_register 13
 2926              		@ sp needed
 2927 00aa 80BD     		pop	{r7, pc}
 2928              	.L164:
 2929              		.align	2
 2930              	.L163:
 2931 00ac 00000000 		.word	lrc_obj
 2932              		.cfi_endproc
ARM GAS  C:\Users\KJA\AppData\Local\Temp\ccNNA7zi.s 			page 74


 2933              	.LFE32:
 2934              		.size	cu_IsKingCastling, .-cu_IsKingCastling
 2935              		.section	.text.ce_LoopKing,"ax",%progbits
 2936              		.align	2
 2937              		.global	ce_LoopKing
 2938              		.thumb
 2939              		.thumb_func
 2940              		.type	ce_LoopKing, %function
 2941              	ce_LoopKing:
 2942              	.LFB33:
1223:u8glib_arm_v1.18.1\src/chessengine.c **** 
1224:u8glib_arm_v1.18.1\src/chessengine.c **** void ce_LoopKing(void)
1225:u8glib_arm_v1.18.1\src/chessengine.c **** {
 2943              		.loc 1 1225 0
 2944              		.cfi_startproc
 2945              		@ args = 0, pretend = 0, frame = 0
 2946              		@ frame_needed = 1, uses_anonymous_args = 0
 2947 0000 80B5     		push	{r7, lr}
 2948              		.cfi_def_cfa_offset 8
 2949              		.cfi_offset 7, -8
 2950              		.cfi_offset 14, -4
 2951 0002 00AF     		add	r7, sp, #0
 2952              		.cfi_def_cfa_register 7
1226:u8glib_arm_v1.18.1\src/chessengine.c ****   /*
1227:u8glib_arm_v1.18.1\src/chessengine.c ****     there is an interessting timing problem in this procedure
1228:u8glib_arm_v1.18.1\src/chessengine.c ****     it must be checked for castling first and as second step the normal
1229:u8glib_arm_v1.18.1\src/chessengine.c ****     KING movement. If we would first check for normal moves, than
1230:u8glib_arm_v1.18.1\src/chessengine.c ****     any marks might be overwritten by the ROOK in the case of castling.
1231:u8glib_arm_v1.18.1\src/chessengine.c ****   */
1232:u8glib_arm_v1.18.1\src/chessengine.c ****   
1233:u8glib_arm_v1.18.1\src/chessengine.c ****   /* castling (this must be done before checking normal moves (see above) */
1234:u8glib_arm_v1.18.1\src/chessengine.c ****   if ( stack_GetCurrElement()->current_color == COLOR_WHITE )
 2953              		.loc 1 1234 0
 2954 0004 FFF7FEFF 		bl	stack_GetCurrElement
 2955 0008 0346     		mov	r3, r0
 2956 000a 9B78     		ldrb	r3, [r3, #2]	@ zero_extendqisi2
 2957 000c 002B     		cmp	r3, #0
 2958 000e 23D1     		bne	.L166
1235:u8glib_arm_v1.18.1\src/chessengine.c ****   {
1236:u8glib_arm_v1.18.1\src/chessengine.c ****     /* white left castling */
1237:u8glib_arm_v1.18.1\src/chessengine.c ****     if ( cu_IsKingCastling(1, -1, 3) != 0 )
 2959              		.loc 1 1237 0
 2960 0010 0120     		movs	r0, #1
 2961 0012 4FF0FF31 		mov	r1, #-1
 2962 0016 0322     		movs	r2, #3
 2963 0018 FFF7FEFF 		bl	cu_IsKingCastling
 2964 001c 0346     		mov	r3, r0
 2965 001e 002B     		cmp	r3, #0
 2966 0020 08D0     		beq	.L167
1238:u8glib_arm_v1.18.1\src/chessengine.c ****     {
1239:u8glib_arm_v1.18.1\src/chessengine.c ****       /* check for attacked fields */
1240:u8glib_arm_v1.18.1\src/chessengine.c ****       ce_LoopRecur(stack_GetCurrElement()->current_pos-2);
 2967              		.loc 1 1240 0
 2968 0022 FFF7FEFF 		bl	stack_GetCurrElement
 2969 0026 0346     		mov	r3, r0
 2970 0028 1B78     		ldrb	r3, [r3]	@ zero_extendqisi2
 2971 002a 023B     		subs	r3, r3, #2
ARM GAS  C:\Users\KJA\AppData\Local\Temp\ccNNA7zi.s 			page 75


 2972 002c DBB2     		uxtb	r3, r3
 2973 002e 1846     		mov	r0, r3
 2974 0030 FFF7FEFF 		bl	ce_LoopRecur
 2975              	.L167:
1241:u8glib_arm_v1.18.1\src/chessengine.c ****     }
1242:u8glib_arm_v1.18.1\src/chessengine.c ****     /* white right castling */
1243:u8glib_arm_v1.18.1\src/chessengine.c ****     if ( cu_IsKingCastling(2, 1, 2) != 0 )
 2976              		.loc 1 1243 0
 2977 0034 0220     		movs	r0, #2
 2978 0036 0121     		movs	r1, #1
 2979 0038 0222     		movs	r2, #2
 2980 003a FFF7FEFF 		bl	cu_IsKingCastling
 2981 003e 0346     		mov	r3, r0
 2982 0040 002B     		cmp	r3, #0
 2983 0042 2CD0     		beq	.L169
1244:u8glib_arm_v1.18.1\src/chessengine.c ****     {
1245:u8glib_arm_v1.18.1\src/chessengine.c ****       /* check for attacked fields */
1246:u8glib_arm_v1.18.1\src/chessengine.c ****       ce_LoopRecur(stack_GetCurrElement()->current_pos+2);
 2984              		.loc 1 1246 0
 2985 0044 FFF7FEFF 		bl	stack_GetCurrElement
 2986 0048 0346     		mov	r3, r0
 2987 004a 1B78     		ldrb	r3, [r3]	@ zero_extendqisi2
 2988 004c 0233     		adds	r3, r3, #2
 2989 004e DBB2     		uxtb	r3, r3
 2990 0050 1846     		mov	r0, r3
 2991 0052 FFF7FEFF 		bl	ce_LoopRecur
 2992 0056 22E0     		b	.L169
 2993              	.L166:
1247:u8glib_arm_v1.18.1\src/chessengine.c ****     }
1248:u8glib_arm_v1.18.1\src/chessengine.c ****   }
1249:u8glib_arm_v1.18.1\src/chessengine.c ****   else
1250:u8glib_arm_v1.18.1\src/chessengine.c ****   {
1251:u8glib_arm_v1.18.1\src/chessengine.c ****     /* black left castling */
1252:u8glib_arm_v1.18.1\src/chessengine.c ****     if ( cu_IsKingCastling(4, -1, 3) != 0 )
 2994              		.loc 1 1252 0
 2995 0058 0420     		movs	r0, #4
 2996 005a 4FF0FF31 		mov	r1, #-1
 2997 005e 0322     		movs	r2, #3
 2998 0060 FFF7FEFF 		bl	cu_IsKingCastling
 2999 0064 0346     		mov	r3, r0
 3000 0066 002B     		cmp	r3, #0
 3001 0068 08D0     		beq	.L170
1253:u8glib_arm_v1.18.1\src/chessengine.c ****     {
1254:u8glib_arm_v1.18.1\src/chessengine.c ****       /* check for attacked fields */
1255:u8glib_arm_v1.18.1\src/chessengine.c ****       ce_LoopRecur(stack_GetCurrElement()->current_pos-2);
 3002              		.loc 1 1255 0
 3003 006a FFF7FEFF 		bl	stack_GetCurrElement
 3004 006e 0346     		mov	r3, r0
 3005 0070 1B78     		ldrb	r3, [r3]	@ zero_extendqisi2
 3006 0072 023B     		subs	r3, r3, #2
 3007 0074 DBB2     		uxtb	r3, r3
 3008 0076 1846     		mov	r0, r3
 3009 0078 FFF7FEFF 		bl	ce_LoopRecur
 3010              	.L170:
1256:u8glib_arm_v1.18.1\src/chessengine.c ****     }
1257:u8glib_arm_v1.18.1\src/chessengine.c ****     /* black right castling */
1258:u8glib_arm_v1.18.1\src/chessengine.c ****     if ( cu_IsKingCastling(8, 1, 2) != 0 )
ARM GAS  C:\Users\KJA\AppData\Local\Temp\ccNNA7zi.s 			page 76


 3011              		.loc 1 1258 0
 3012 007c 0820     		movs	r0, #8
 3013 007e 0121     		movs	r1, #1
 3014 0080 0222     		movs	r2, #2
 3015 0082 FFF7FEFF 		bl	cu_IsKingCastling
 3016 0086 0346     		mov	r3, r0
 3017 0088 002B     		cmp	r3, #0
 3018 008a 08D0     		beq	.L169
1259:u8glib_arm_v1.18.1\src/chessengine.c ****     {
1260:u8glib_arm_v1.18.1\src/chessengine.c ****       /* check for attacked fields */
1261:u8glib_arm_v1.18.1\src/chessengine.c ****       ce_LoopRecur(stack_GetCurrElement()->current_pos+2);
 3019              		.loc 1 1261 0
 3020 008c FFF7FEFF 		bl	stack_GetCurrElement
 3021 0090 0346     		mov	r3, r0
 3022 0092 1B78     		ldrb	r3, [r3]	@ zero_extendqisi2
 3023 0094 0233     		adds	r3, r3, #2
 3024 0096 DBB2     		uxtb	r3, r3
 3025 0098 1846     		mov	r0, r3
 3026 009a FFF7FEFF 		bl	ce_LoopRecur
 3027              	.L169:
1262:u8glib_arm_v1.18.1\src/chessengine.c ****     }
1263:u8glib_arm_v1.18.1\src/chessengine.c ****   }
1264:u8glib_arm_v1.18.1\src/chessengine.c ****   
1265:u8glib_arm_v1.18.1\src/chessengine.c ****   /* reuse queen directions */
1266:u8glib_arm_v1.18.1\src/chessengine.c ****   ce_LoopDirsSingleMultiStep(ce_dir_offset_queen, 0);
 3028              		.loc 1 1266 0
 3029 009e 0248     		ldr	r0, .L171
 3030 00a0 0021     		movs	r1, #0
 3031 00a2 FFF7FEFF 		bl	ce_LoopDirsSingleMultiStep
1267:u8glib_arm_v1.18.1\src/chessengine.c **** }
 3032              		.loc 1 1267 0
 3033 00a6 80BD     		pop	{r7, pc}
 3034              	.L172:
 3035              		.align	2
 3036              	.L171:
 3037 00a8 10000000 		.word	ce_dir_offset_queen
 3038              		.cfi_endproc
 3039              	.LFE33:
 3040              		.size	ce_LoopKing, .-ce_LoopKing
 3041              		.section	.text.ce_LoopPawnSideCapture,"ax",%progbits
 3042              		.align	2
 3043              		.global	ce_LoopPawnSideCapture
 3044              		.thumb
 3045              		.thumb_func
 3046              		.type	ce_LoopPawnSideCapture, %function
 3047              	ce_LoopPawnSideCapture:
 3048              	.LFB34:
1268:u8glib_arm_v1.18.1\src/chessengine.c **** 
1269:u8glib_arm_v1.18.1\src/chessengine.c **** 
1270:u8glib_arm_v1.18.1\src/chessengine.c **** /*==============================================================*/
1271:u8glib_arm_v1.18.1\src/chessengine.c **** /* move pawn */
1272:u8glib_arm_v1.18.1\src/chessengine.c **** /*==============================================================*/
1273:u8glib_arm_v1.18.1\src/chessengine.c **** 
1274:u8glib_arm_v1.18.1\src/chessengine.c **** /*
1275:u8glib_arm_v1.18.1\src/chessengine.c ****   doppelschritt: nur von der grundlinie aus, beide (!) felder vor dem bauern mssen frei sein
1276:u8glib_arm_v1.18.1\src/chessengine.c ****   en passant: nur unmittelbar nachdem ein doppelschritt ausgefhrt wurde.
1277:u8glib_arm_v1.18.1\src/chessengine.c **** */
ARM GAS  C:\Users\KJA\AppData\Local\Temp\ccNNA7zi.s 			page 77


1278:u8glib_arm_v1.18.1\src/chessengine.c **** void ce_LoopPawnSideCapture(uint8_t loop_pos)
1279:u8glib_arm_v1.18.1\src/chessengine.c **** {
 3049              		.loc 1 1279 0
 3050              		.cfi_startproc
 3051              		@ args = 0, pretend = 0, frame = 8
 3052              		@ frame_needed = 1, uses_anonymous_args = 0
 3053 0000 80B5     		push	{r7, lr}
 3054              		.cfi_def_cfa_offset 8
 3055              		.cfi_offset 7, -8
 3056              		.cfi_offset 14, -4
 3057 0002 82B0     		sub	sp, sp, #8
 3058              		.cfi_def_cfa_offset 16
 3059 0004 00AF     		add	r7, sp, #0
 3060              		.cfi_def_cfa_register 7
 3061 0006 0346     		mov	r3, r0
 3062 0008 FB71     		strb	r3, [r7, #7]
1280:u8glib_arm_v1.18.1\src/chessengine.c ****   if ( gpos_IsIllegal(loop_pos) == 0 )
 3063              		.loc 1 1280 0
 3064 000a FB79     		ldrb	r3, [r7, #7]	@ zero_extendqisi2
 3065 000c 03F08803 		and	r3, r3, #136
 3066 0010 002B     		cmp	r3, #0
 3067 0012 2ED1     		bne	.L173
1281:u8glib_arm_v1.18.1\src/chessengine.c ****   {
1282:u8glib_arm_v1.18.1\src/chessengine.c ****     /* get the piece from the board */
1283:u8glib_arm_v1.18.1\src/chessengine.c ****     /* if the field is NOT empty */
1284:u8glib_arm_v1.18.1\src/chessengine.c ****     if ( cp_GetPiece(cp_GetFromBoard(loop_pos)) != PIECE_NONE )
 3068              		.loc 1 1284 0
 3069 0014 FB79     		ldrb	r3, [r7, #7]	@ zero_extendqisi2
 3070 0016 1846     		mov	r0, r3
 3071 0018 FFF7FEFF 		bl	cp_GetFromBoard
 3072 001c 0346     		mov	r3, r0
 3073 001e 1846     		mov	r0, r3
 3074 0020 FFF7FEFF 		bl	cp_GetPiece
 3075 0024 0346     		mov	r3, r0
 3076 0026 002B     		cmp	r3, #0
 3077 0028 04D0     		beq	.L175
1285:u8glib_arm_v1.18.1\src/chessengine.c ****     {
1286:u8glib_arm_v1.18.1\src/chessengine.c ****       /* normal capture */
1287:u8glib_arm_v1.18.1\src/chessengine.c ****       ce_LoopRecur(loop_pos);
 3078              		.loc 1 1287 0
 3079 002a FB79     		ldrb	r3, [r7, #7]	@ zero_extendqisi2
 3080 002c 1846     		mov	r0, r3
 3081 002e FFF7FEFF 		bl	ce_LoopRecur
 3082 0032 1EE0     		b	.L173
 3083              	.L175:
1288:u8glib_arm_v1.18.1\src/chessengine.c ****       /* TODO: check for pawn conversion/promotion */
1289:u8glib_arm_v1.18.1\src/chessengine.c ****     }
1290:u8glib_arm_v1.18.1\src/chessengine.c ****     else
1291:u8glib_arm_v1.18.1\src/chessengine.c ****     {
1292:u8glib_arm_v1.18.1\src/chessengine.c ****       /* check conditions for en passant capture */
1293:u8glib_arm_v1.18.1\src/chessengine.c ****       if ( stack_GetCurrElement()->current_color == COLOR_WHITE )
 3084              		.loc 1 1293 0
 3085 0034 FFF7FEFF 		bl	stack_GetCurrElement
 3086 0038 0346     		mov	r3, r0
 3087 003a 9B78     		ldrb	r3, [r3, #2]	@ zero_extendqisi2
 3088 003c 002B     		cmp	r3, #0
 3089 003e 0CD1     		bne	.L176
ARM GAS  C:\Users\KJA\AppData\Local\Temp\ccNNA7zi.s 			page 78


1294:u8glib_arm_v1.18.1\src/chessengine.c ****       {
1295:u8glib_arm_v1.18.1\src/chessengine.c **** 	if ( lrc_obj.pawn_dbl_move[COLOR_BLACK]+16 == loop_pos )
 3090              		.loc 1 1295 0
 3091 0040 0D4B     		ldr	r3, .L178
 3092 0042 93F84330 		ldrb	r3, [r3, #67]	@ zero_extendqisi2
 3093 0046 03F11002 		add	r2, r3, #16
 3094 004a FB79     		ldrb	r3, [r7, #7]	@ zero_extendqisi2
 3095 004c 9A42     		cmp	r2, r3
 3096 004e 10D1     		bne	.L173
1296:u8glib_arm_v1.18.1\src/chessengine.c **** 	{
1297:u8glib_arm_v1.18.1\src/chessengine.c **** 	  ce_LoopRecur(loop_pos);
 3097              		.loc 1 1297 0
 3098 0050 FB79     		ldrb	r3, [r7, #7]	@ zero_extendqisi2
 3099 0052 1846     		mov	r0, r3
 3100 0054 FFF7FEFF 		bl	ce_LoopRecur
 3101 0058 0BE0     		b	.L173
 3102              	.L176:
1298:u8glib_arm_v1.18.1\src/chessengine.c **** 	  /* note: pawn conversion/promotion can not occur */
1299:u8glib_arm_v1.18.1\src/chessengine.c **** 	}
1300:u8glib_arm_v1.18.1\src/chessengine.c ****       }
1301:u8glib_arm_v1.18.1\src/chessengine.c ****       else
1302:u8glib_arm_v1.18.1\src/chessengine.c ****       {
1303:u8glib_arm_v1.18.1\src/chessengine.c **** 	if ( lrc_obj.pawn_dbl_move[COLOR_WHITE] == loop_pos+16 )
 3103              		.loc 1 1303 0
 3104 005a 074B     		ldr	r3, .L178
 3105 005c 93F84230 		ldrb	r3, [r3, #66]	@ zero_extendqisi2
 3106 0060 1A46     		mov	r2, r3
 3107 0062 FB79     		ldrb	r3, [r7, #7]	@ zero_extendqisi2
 3108 0064 1033     		adds	r3, r3, #16
 3109 0066 9A42     		cmp	r2, r3
 3110 0068 03D1     		bne	.L173
1304:u8glib_arm_v1.18.1\src/chessengine.c **** 	{
1305:u8glib_arm_v1.18.1\src/chessengine.c **** 	  ce_LoopRecur(loop_pos);
 3111              		.loc 1 1305 0
 3112 006a FB79     		ldrb	r3, [r7, #7]	@ zero_extendqisi2
 3113 006c 1846     		mov	r0, r3
 3114 006e FFF7FEFF 		bl	ce_LoopRecur
 3115              	.L173:
1306:u8glib_arm_v1.18.1\src/chessengine.c **** 	  /* note: pawn conversion/promotion can not occur */
1307:u8glib_arm_v1.18.1\src/chessengine.c **** 	}
1308:u8glib_arm_v1.18.1\src/chessengine.c ****       }
1309:u8glib_arm_v1.18.1\src/chessengine.c ****     }
1310:u8glib_arm_v1.18.1\src/chessengine.c ****   }
1311:u8glib_arm_v1.18.1\src/chessengine.c **** }
 3116              		.loc 1 1311 0
 3117 0072 0837     		adds	r7, r7, #8
 3118              		.cfi_def_cfa_offset 8
 3119 0074 BD46     		mov	sp, r7
 3120              		.cfi_def_cfa_register 13
 3121              		@ sp needed
 3122 0076 80BD     		pop	{r7, pc}
 3123              	.L179:
 3124              		.align	2
 3125              	.L178:
 3126 0078 00000000 		.word	lrc_obj
 3127              		.cfi_endproc
 3128              	.LFE34:
ARM GAS  C:\Users\KJA\AppData\Local\Temp\ccNNA7zi.s 			page 79


 3129              		.size	ce_LoopPawnSideCapture, .-ce_LoopPawnSideCapture
 3130              		.section	.text.ce_LoopPawn,"ax",%progbits
 3131              		.align	2
 3132              		.global	ce_LoopPawn
 3133              		.thumb
 3134              		.thumb_func
 3135              		.type	ce_LoopPawn, %function
 3136              	ce_LoopPawn:
 3137              	.LFB35:
1312:u8glib_arm_v1.18.1\src/chessengine.c **** 
1313:u8glib_arm_v1.18.1\src/chessengine.c **** void ce_LoopPawn(void)
1314:u8glib_arm_v1.18.1\src/chessengine.c **** {
 3138              		.loc 1 1314 0
 3139              		.cfi_startproc
 3140              		@ args = 0, pretend = 0, frame = 8
 3141              		@ frame_needed = 1, uses_anonymous_args = 0
 3142 0000 80B5     		push	{r7, lr}
 3143              		.cfi_def_cfa_offset 8
 3144              		.cfi_offset 7, -8
 3145              		.cfi_offset 14, -4
 3146 0002 82B0     		sub	sp, sp, #8
 3147              		.cfi_def_cfa_offset 16
 3148 0004 00AF     		add	r7, sp, #0
 3149              		.cfi_def_cfa_register 7
1315:u8glib_arm_v1.18.1\src/chessengine.c ****   uint8_t initial_pos = stack_GetCurrElement()->current_pos; 
 3150              		.loc 1 1315 0
 3151 0006 FFF7FEFF 		bl	stack_GetCurrElement
 3152 000a 0346     		mov	r3, r0
 3153 000c 1B78     		ldrb	r3, [r3]
 3154 000e BB71     		strb	r3, [r7, #6]
1316:u8glib_arm_v1.18.1\src/chessengine.c ****   uint8_t my_color = stack_GetCurrElement()->current_color;
 3155              		.loc 1 1316 0
 3156 0010 FFF7FEFF 		bl	stack_GetCurrElement
 3157 0014 0346     		mov	r3, r0
 3158 0016 9B78     		ldrb	r3, [r3, #2]
 3159 0018 7B71     		strb	r3, [r7, #5]
1317:u8glib_arm_v1.18.1\src/chessengine.c ****   
1318:u8glib_arm_v1.18.1\src/chessengine.c ****   uint8_t loop_pos;
1319:u8glib_arm_v1.18.1\src/chessengine.c ****   uint8_t line;
1320:u8glib_arm_v1.18.1\src/chessengine.c ****   
1321:u8glib_arm_v1.18.1\src/chessengine.c ****   /* one step forward */
1322:u8glib_arm_v1.18.1\src/chessengine.c ****   
1323:u8glib_arm_v1.18.1\src/chessengine.c ****   loop_pos = initial_pos;
 3160              		.loc 1 1323 0
 3161 001a BB79     		ldrb	r3, [r7, #6]
 3162 001c FB71     		strb	r3, [r7, #7]
1324:u8glib_arm_v1.18.1\src/chessengine.c ****   line = initial_pos;
 3163              		.loc 1 1324 0
 3164 001e BB79     		ldrb	r3, [r7, #6]
 3165 0020 3B71     		strb	r3, [r7, #4]
1325:u8glib_arm_v1.18.1\src/chessengine.c ****   line >>= 4;
 3166              		.loc 1 1325 0
 3167 0022 3B79     		ldrb	r3, [r7, #4]	@ zero_extendqisi2
 3168 0024 1B09     		lsrs	r3, r3, #4
 3169 0026 3B71     		strb	r3, [r7, #4]
1326:u8glib_arm_v1.18.1\src/chessengine.c ****   if ( my_color == COLOR_WHITE )
 3170              		.loc 1 1326 0
ARM GAS  C:\Users\KJA\AppData\Local\Temp\ccNNA7zi.s 			page 80


 3171 0028 7B79     		ldrb	r3, [r7, #5]	@ zero_extendqisi2
 3172 002a 002B     		cmp	r3, #0
 3173 002c 03D1     		bne	.L181
1327:u8glib_arm_v1.18.1\src/chessengine.c ****     loop_pos += 16;
 3174              		.loc 1 1327 0
 3175 002e FB79     		ldrb	r3, [r7, #7]
 3176 0030 1033     		adds	r3, r3, #16
 3177 0032 FB71     		strb	r3, [r7, #7]
 3178 0034 02E0     		b	.L182
 3179              	.L181:
1328:u8glib_arm_v1.18.1\src/chessengine.c ****   else
1329:u8glib_arm_v1.18.1\src/chessengine.c ****     loop_pos -= 16;
 3180              		.loc 1 1329 0
 3181 0036 FB79     		ldrb	r3, [r7, #7]
 3182 0038 103B     		subs	r3, r3, #16
 3183 003a FB71     		strb	r3, [r7, #7]
 3184              	.L182:
1330:u8glib_arm_v1.18.1\src/chessengine.c ****   if ( gpos_IsIllegal(loop_pos) == 0 )
 3185              		.loc 1 1330 0
 3186 003c FB79     		ldrb	r3, [r7, #7]	@ zero_extendqisi2
 3187 003e 03F08803 		and	r3, r3, #136
 3188 0042 002B     		cmp	r3, #0
 3189 0044 33D1     		bne	.L183
1331:u8glib_arm_v1.18.1\src/chessengine.c ****   {
1332:u8glib_arm_v1.18.1\src/chessengine.c ****     /* if the field is empty */
1333:u8glib_arm_v1.18.1\src/chessengine.c ****     if ( cp_GetPiece(cp_GetFromBoard(loop_pos)) == PIECE_NONE )
 3190              		.loc 1 1333 0
 3191 0046 FB79     		ldrb	r3, [r7, #7]	@ zero_extendqisi2
 3192 0048 1846     		mov	r0, r3
 3193 004a FFF7FEFF 		bl	cp_GetFromBoard
 3194 004e 0346     		mov	r3, r0
 3195 0050 1846     		mov	r0, r3
 3196 0052 FFF7FEFF 		bl	cp_GetPiece
 3197 0056 0346     		mov	r3, r0
 3198 0058 002B     		cmp	r3, #0
 3199 005a 28D1     		bne	.L183
1334:u8glib_arm_v1.18.1\src/chessengine.c ****     {
1335:u8glib_arm_v1.18.1\src/chessengine.c ****       /* TODO: check for and loop through piece conversion/promotion */
1336:u8glib_arm_v1.18.1\src/chessengine.c ****       ce_LoopRecur(loop_pos);      
 3200              		.loc 1 1336 0
 3201 005c FB79     		ldrb	r3, [r7, #7]	@ zero_extendqisi2
 3202 005e 1846     		mov	r0, r3
 3203 0060 FFF7FEFF 		bl	ce_LoopRecur
1337:u8glib_arm_v1.18.1\src/chessengine.c **** 
1338:u8glib_arm_v1.18.1\src/chessengine.c ****       /* second step forward */
1339:u8glib_arm_v1.18.1\src/chessengine.c ****       
1340:u8glib_arm_v1.18.1\src/chessengine.c ****       /* if pawn is on his starting line */
1341:u8glib_arm_v1.18.1\src/chessengine.c ****       if ( (my_color == COLOR_WHITE && line == 1) || (my_color == COLOR_BLACK && line == 6 ) )
 3204              		.loc 1 1341 0
 3205 0064 7B79     		ldrb	r3, [r7, #5]	@ zero_extendqisi2
 3206 0066 002B     		cmp	r3, #0
 3207 0068 02D1     		bne	.L184
 3208              		.loc 1 1341 0 is_stmt 0 discriminator 1
 3209 006a 3B79     		ldrb	r3, [r7, #4]	@ zero_extendqisi2
 3210 006c 012B     		cmp	r3, #1
 3211 006e 05D0     		beq	.L185
 3212              	.L184:
ARM GAS  C:\Users\KJA\AppData\Local\Temp\ccNNA7zi.s 			page 81


 3213              		.loc 1 1341 0 discriminator 3
 3214 0070 7B79     		ldrb	r3, [r7, #5]	@ zero_extendqisi2
 3215 0072 012B     		cmp	r3, #1
 3216 0074 1BD1     		bne	.L183
 3217              		.loc 1 1341 0 discriminator 4
 3218 0076 3B79     		ldrb	r3, [r7, #4]	@ zero_extendqisi2
 3219 0078 062B     		cmp	r3, #6
 3220 007a 18D1     		bne	.L183
 3221              	.L185:
1342:u8glib_arm_v1.18.1\src/chessengine.c ****       {
1343:u8glib_arm_v1.18.1\src/chessengine.c **** 	/* the place before the pawn is not occupied, so we can do double moves, see above */
1344:u8glib_arm_v1.18.1\src/chessengine.c **** 	
1345:u8glib_arm_v1.18.1\src/chessengine.c **** 	if ( my_color == COLOR_WHITE )
 3222              		.loc 1 1345 0 is_stmt 1
 3223 007c 7B79     		ldrb	r3, [r7, #5]	@ zero_extendqisi2
 3224 007e 002B     		cmp	r3, #0
 3225 0080 03D1     		bne	.L186
1346:u8glib_arm_v1.18.1\src/chessengine.c **** 	  loop_pos += 16;
 3226              		.loc 1 1346 0
 3227 0082 FB79     		ldrb	r3, [r7, #7]
 3228 0084 1033     		adds	r3, r3, #16
 3229 0086 FB71     		strb	r3, [r7, #7]
 3230 0088 02E0     		b	.L187
 3231              	.L186:
1347:u8glib_arm_v1.18.1\src/chessengine.c **** 	else
1348:u8glib_arm_v1.18.1\src/chessengine.c **** 	  loop_pos -= 16;
 3232              		.loc 1 1348 0
 3233 008a FB79     		ldrb	r3, [r7, #7]
 3234 008c 103B     		subs	r3, r3, #16
 3235 008e FB71     		strb	r3, [r7, #7]
 3236              	.L187:
1349:u8glib_arm_v1.18.1\src/chessengine.c **** 	if ( cp_GetPiece(cp_GetFromBoard(loop_pos)) == PIECE_NONE )
 3237              		.loc 1 1349 0
 3238 0090 FB79     		ldrb	r3, [r7, #7]	@ zero_extendqisi2
 3239 0092 1846     		mov	r0, r3
 3240 0094 FFF7FEFF 		bl	cp_GetFromBoard
 3241 0098 0346     		mov	r3, r0
 3242 009a 1846     		mov	r0, r3
 3243 009c FFF7FEFF 		bl	cp_GetPiece
 3244 00a0 0346     		mov	r3, r0
 3245 00a2 002B     		cmp	r3, #0
 3246 00a4 03D1     		bne	.L183
1350:u8glib_arm_v1.18.1\src/chessengine.c **** 	{
1351:u8glib_arm_v1.18.1\src/chessengine.c **** 	  /* this is a special case, other promotions of the pawn can not occur */
1352:u8glib_arm_v1.18.1\src/chessengine.c **** 	  ce_LoopRecur(loop_pos);
 3247              		.loc 1 1352 0
 3248 00a6 FB79     		ldrb	r3, [r7, #7]	@ zero_extendqisi2
 3249 00a8 1846     		mov	r0, r3
 3250 00aa FFF7FEFF 		bl	ce_LoopRecur
 3251              	.L183:
1353:u8glib_arm_v1.18.1\src/chessengine.c **** 	}
1354:u8glib_arm_v1.18.1\src/chessengine.c ****       }
1355:u8glib_arm_v1.18.1\src/chessengine.c ****     }
1356:u8glib_arm_v1.18.1\src/chessengine.c ****   }
1357:u8glib_arm_v1.18.1\src/chessengine.c **** 
1358:u8glib_arm_v1.18.1\src/chessengine.c ****   /* capture */
1359:u8glib_arm_v1.18.1\src/chessengine.c ****   
ARM GAS  C:\Users\KJA\AppData\Local\Temp\ccNNA7zi.s 			page 82


1360:u8glib_arm_v1.18.1\src/chessengine.c ****   loop_pos = initial_pos;
 3252              		.loc 1 1360 0
 3253 00ae BB79     		ldrb	r3, [r7, #6]
 3254 00b0 FB71     		strb	r3, [r7, #7]
1361:u8glib_arm_v1.18.1\src/chessengine.c ****   if ( my_color == COLOR_WHITE )
 3255              		.loc 1 1361 0
 3256 00b2 7B79     		ldrb	r3, [r7, #5]	@ zero_extendqisi2
 3257 00b4 002B     		cmp	r3, #0
 3258 00b6 03D1     		bne	.L188
1362:u8glib_arm_v1.18.1\src/chessengine.c ****     loop_pos += 15;
 3259              		.loc 1 1362 0
 3260 00b8 FB79     		ldrb	r3, [r7, #7]
 3261 00ba 0F33     		adds	r3, r3, #15
 3262 00bc FB71     		strb	r3, [r7, #7]
 3263 00be 02E0     		b	.L189
 3264              	.L188:
1363:u8glib_arm_v1.18.1\src/chessengine.c ****   else
1364:u8glib_arm_v1.18.1\src/chessengine.c ****     loop_pos -= 15;
 3265              		.loc 1 1364 0
 3266 00c0 FB79     		ldrb	r3, [r7, #7]
 3267 00c2 0F3B     		subs	r3, r3, #15
 3268 00c4 FB71     		strb	r3, [r7, #7]
 3269              	.L189:
1365:u8glib_arm_v1.18.1\src/chessengine.c ****   ce_LoopPawnSideCapture(loop_pos);
 3270              		.loc 1 1365 0
 3271 00c6 FB79     		ldrb	r3, [r7, #7]	@ zero_extendqisi2
 3272 00c8 1846     		mov	r0, r3
 3273 00ca FFF7FEFF 		bl	ce_LoopPawnSideCapture
1366:u8glib_arm_v1.18.1\src/chessengine.c **** 
1367:u8glib_arm_v1.18.1\src/chessengine.c **** 
1368:u8glib_arm_v1.18.1\src/chessengine.c ****   loop_pos = initial_pos;
 3274              		.loc 1 1368 0
 3275 00ce BB79     		ldrb	r3, [r7, #6]
 3276 00d0 FB71     		strb	r3, [r7, #7]
1369:u8glib_arm_v1.18.1\src/chessengine.c ****   if ( my_color == COLOR_WHITE )
 3277              		.loc 1 1369 0
 3278 00d2 7B79     		ldrb	r3, [r7, #5]	@ zero_extendqisi2
 3279 00d4 002B     		cmp	r3, #0
 3280 00d6 03D1     		bne	.L190
1370:u8glib_arm_v1.18.1\src/chessengine.c ****     loop_pos += 17;
 3281              		.loc 1 1370 0
 3282 00d8 FB79     		ldrb	r3, [r7, #7]
 3283 00da 1133     		adds	r3, r3, #17
 3284 00dc FB71     		strb	r3, [r7, #7]
 3285 00de 02E0     		b	.L191
 3286              	.L190:
1371:u8glib_arm_v1.18.1\src/chessengine.c ****   else
1372:u8glib_arm_v1.18.1\src/chessengine.c ****     loop_pos -= 17;
 3287              		.loc 1 1372 0
 3288 00e0 FB79     		ldrb	r3, [r7, #7]
 3289 00e2 113B     		subs	r3, r3, #17
 3290 00e4 FB71     		strb	r3, [r7, #7]
 3291              	.L191:
1373:u8glib_arm_v1.18.1\src/chessengine.c ****   ce_LoopPawnSideCapture(loop_pos);
 3292              		.loc 1 1373 0
 3293 00e6 FB79     		ldrb	r3, [r7, #7]	@ zero_extendqisi2
 3294 00e8 1846     		mov	r0, r3
ARM GAS  C:\Users\KJA\AppData\Local\Temp\ccNNA7zi.s 			page 83


 3295 00ea FFF7FEFF 		bl	ce_LoopPawnSideCapture
1374:u8glib_arm_v1.18.1\src/chessengine.c **** }
 3296              		.loc 1 1374 0
 3297 00ee 0837     		adds	r7, r7, #8
 3298              		.cfi_def_cfa_offset 8
 3299 00f0 BD46     		mov	sp, r7
 3300              		.cfi_def_cfa_register 13
 3301              		@ sp needed
 3302 00f2 80BD     		pop	{r7, pc}
 3303              		.cfi_endproc
 3304              	.LFE35:
 3305              		.size	ce_LoopPawn, .-ce_LoopPawn
 3306              		.section	.text.ce_FindPieceByStep,"ax",%progbits
 3307              		.align	2
 3308              		.global	ce_FindPieceByStep
 3309              		.thumb
 3310              		.thumb_func
 3311              		.type	ce_FindPieceByStep, %function
 3312              	ce_FindPieceByStep:
 3313              	.LFB36:
1375:u8glib_arm_v1.18.1\src/chessengine.c **** 
1376:u8glib_arm_v1.18.1\src/chessengine.c **** /*==============================================================*/
1377:u8glib_arm_v1.18.1\src/chessengine.c **** /* attacked */
1378:u8glib_arm_v1.18.1\src/chessengine.c **** /*==============================================================*/
1379:u8glib_arm_v1.18.1\src/chessengine.c **** 
1380:u8glib_arm_v1.18.1\src/chessengine.c **** /*
1381:u8glib_arm_v1.18.1\src/chessengine.c ****   from a starting position, search for a piece, that might jump to that postion.
1382:u8glib_arm_v1.18.1\src/chessengine.c ****   return:
1383:u8glib_arm_v1.18.1\src/chessengine.c ****     the two global variables
1384:u8glib_arm_v1.18.1\src/chessengine.c ****       lrc_obj.find_piece_weight[0];
1385:u8glib_arm_v1.18.1\src/chessengine.c ****       lrc_obj.find_piece_weight[1];
1386:u8glib_arm_v1.18.1\src/chessengine.c ****   will be increased by the weight of the attacked pieces of that color.
1387:u8glib_arm_v1.18.1\src/chessengine.c ****   it is usually required to reset these global variables to zero, before using
1388:u8glib_arm_v1.18.1\src/chessengine.c ****   this function.
1389:u8glib_arm_v1.18.1\src/chessengine.c **** */
1390:u8glib_arm_v1.18.1\src/chessengine.c **** 
1391:u8glib_arm_v1.18.1\src/chessengine.c **** void ce_FindPieceByStep(uint8_t start_pos, uint8_t piece, const uint8_t *d, uint8_t is_multi_step)
1392:u8glib_arm_v1.18.1\src/chessengine.c **** {
 3314              		.loc 1 1392 0
 3315              		.cfi_startproc
 3316              		@ args = 0, pretend = 0, frame = 16
 3317              		@ frame_needed = 1, uses_anonymous_args = 0
 3318 0000 80B5     		push	{r7, lr}
 3319              		.cfi_def_cfa_offset 8
 3320              		.cfi_offset 7, -8
 3321              		.cfi_offset 14, -4
 3322 0002 84B0     		sub	sp, sp, #16
 3323              		.cfi_def_cfa_offset 24
 3324 0004 00AF     		add	r7, sp, #0
 3325              		.cfi_def_cfa_register 7
 3326 0006 3A60     		str	r2, [r7]
 3327 0008 1A46     		mov	r2, r3
 3328 000a 0346     		mov	r3, r0
 3329 000c FB71     		strb	r3, [r7, #7]
 3330 000e 0B46     		mov	r3, r1
 3331 0010 BB71     		strb	r3, [r7, #6]
 3332 0012 1346     		mov	r3, r2
ARM GAS  C:\Users\KJA\AppData\Local\Temp\ccNNA7zi.s 			page 84


 3333 0014 7B71     		strb	r3, [r7, #5]
 3334              	.L200:
1393:u8glib_arm_v1.18.1\src/chessengine.c ****   uint8_t loop_pos, cp;
1394:u8glib_arm_v1.18.1\src/chessengine.c ****   
1395:u8glib_arm_v1.18.1\src/chessengine.c ****   /* with all directions */
1396:u8glib_arm_v1.18.1\src/chessengine.c ****   for(;;)
1397:u8glib_arm_v1.18.1\src/chessengine.c ****   {
1398:u8glib_arm_v1.18.1\src/chessengine.c ****     if ( u8g_pgm_read(d) == 0 )
 3335              		.loc 1 1398 0
 3336 0016 3B68     		ldr	r3, [r7]
 3337 0018 1B78     		ldrb	r3, [r3]	@ zero_extendqisi2
 3338 001a 002B     		cmp	r3, #0
 3339 001c 00D1     		bne	.L193
1399:u8glib_arm_v1.18.1\src/chessengine.c ****       break;
 3340              		.loc 1 1399 0
 3341 001e 4FE0     		b	.L201
 3342              	.L193:
1400:u8glib_arm_v1.18.1\src/chessengine.c ****     
1401:u8glib_arm_v1.18.1\src/chessengine.c ****     /* start again from the initial position */
1402:u8glib_arm_v1.18.1\src/chessengine.c ****     loop_pos = start_pos;
 3343              		.loc 1 1402 0
 3344 0020 FB79     		ldrb	r3, [r7, #7]
 3345 0022 FB73     		strb	r3, [r7, #15]
 3346              	.L199:
1403:u8glib_arm_v1.18.1\src/chessengine.c ****     
1404:u8glib_arm_v1.18.1\src/chessengine.c ****     /* check direction */
1405:u8glib_arm_v1.18.1\src/chessengine.c ****     do
1406:u8glib_arm_v1.18.1\src/chessengine.c ****     {
1407:u8glib_arm_v1.18.1\src/chessengine.c ****       /* check next position into one direction */
1408:u8glib_arm_v1.18.1\src/chessengine.c ****       loop_pos += u8g_pgm_read(d);
 3347              		.loc 1 1408 0
 3348 0024 3B68     		ldr	r3, [r7]
 3349 0026 1A78     		ldrb	r2, [r3]	@ zero_extendqisi2
 3350 0028 FB7B     		ldrb	r3, [r7, #15]
 3351 002a 1344     		add	r3, r3, r2
 3352 002c FB73     		strb	r3, [r7, #15]
1409:u8glib_arm_v1.18.1\src/chessengine.c ****       
1410:u8glib_arm_v1.18.1\src/chessengine.c ****       /* check if the board boundary has been crossed */
1411:u8glib_arm_v1.18.1\src/chessengine.c ****       if ( (loop_pos & 0x088) != 0 )
 3353              		.loc 1 1411 0
 3354 002e FB7B     		ldrb	r3, [r7, #15]	@ zero_extendqisi2
 3355 0030 03F08803 		and	r3, r3, #136
 3356 0034 002B     		cmp	r3, #0
 3357 0036 00D0     		beq	.L195
1412:u8glib_arm_v1.18.1\src/chessengine.c **** 	break;
 3358              		.loc 1 1412 0
 3359 0038 3EE0     		b	.L196
 3360              	.L195:
1413:u8glib_arm_v1.18.1\src/chessengine.c ****       
1414:u8glib_arm_v1.18.1\src/chessengine.c ****       /* get the colored piece from the board */
1415:u8glib_arm_v1.18.1\src/chessengine.c ****       cp = cp_GetFromBoard(loop_pos);
 3361              		.loc 1 1415 0
 3362 003a FB7B     		ldrb	r3, [r7, #15]	@ zero_extendqisi2
 3363 003c 1846     		mov	r0, r3
 3364 003e FFF7FEFF 		bl	cp_GetFromBoard
 3365 0042 0346     		mov	r3, r0
 3366 0044 BB73     		strb	r3, [r7, #14]
ARM GAS  C:\Users\KJA\AppData\Local\Temp\ccNNA7zi.s 			page 85


1416:u8glib_arm_v1.18.1\src/chessengine.c ****       
1417:u8glib_arm_v1.18.1\src/chessengine.c ****       /* stop if we had hit another piece */
1418:u8glib_arm_v1.18.1\src/chessengine.c ****       if ( cp_GetPiece(cp) != PIECE_NONE )
 3367              		.loc 1 1418 0
 3368 0046 BB7B     		ldrb	r3, [r7, #14]	@ zero_extendqisi2
 3369 0048 1846     		mov	r0, r3
 3370 004a FFF7FEFF 		bl	cp_GetPiece
 3371 004e 0346     		mov	r3, r0
 3372 0050 002B     		cmp	r3, #0
 3373 0052 2ED0     		beq	.L197
1419:u8glib_arm_v1.18.1\src/chessengine.c ****       {
1420:u8glib_arm_v1.18.1\src/chessengine.c **** 	/* if it is the piece we are looking for, then add the weight */
1421:u8glib_arm_v1.18.1\src/chessengine.c **** 	if ( cp_GetPiece(cp) == piece )
 3374              		.loc 1 1421 0
 3375 0054 BB7B     		ldrb	r3, [r7, #14]	@ zero_extendqisi2
 3376 0056 1846     		mov	r0, r3
 3377 0058 FFF7FEFF 		bl	cp_GetPiece
 3378 005c 0346     		mov	r3, r0
 3379 005e 1A46     		mov	r2, r3
 3380 0060 BB79     		ldrb	r3, [r7, #6]	@ zero_extendqisi2
 3381 0062 9342     		cmp	r3, r2
 3382 0064 24D1     		bne	.L198
1422:u8glib_arm_v1.18.1\src/chessengine.c **** 	{
1423:u8glib_arm_v1.18.1\src/chessengine.c **** 	  lrc_obj.find_piece_weight[cp_GetColor(cp)] += ce_piece_weight[piece];
 3383              		.loc 1 1423 0
 3384 0066 BB7B     		ldrb	r3, [r7, #14]	@ zero_extendqisi2
 3385 0068 1846     		mov	r0, r3
 3386 006a FFF7FEFF 		bl	cp_GetColor
 3387 006e 0346     		mov	r3, r0
 3388 0070 1846     		mov	r0, r3
 3389 0072 1A46     		mov	r2, r3
 3390 0074 144B     		ldr	r3, .L202
 3391 0076 1344     		add	r3, r3, r2
 3392 0078 93F84D20 		ldrb	r2, [r3, #77]	@ zero_extendqisi2
 3393 007c BB79     		ldrb	r3, [r7, #6]	@ zero_extendqisi2
 3394 007e 1349     		ldr	r1, .L202+4
 3395 0080 CB5C     		ldrb	r3, [r1, r3]	@ zero_extendqisi2
 3396 0082 1344     		add	r3, r3, r2
 3397 0084 DAB2     		uxtb	r2, r3
 3398 0086 104B     		ldr	r3, .L202
 3399 0088 0344     		add	r3, r3, r0
 3400 008a 83F84D20 		strb	r2, [r3, #77]
1424:u8glib_arm_v1.18.1\src/chessengine.c **** 	  lrc_obj.find_piece_cnt[cp_GetColor(cp)]++;
 3401              		.loc 1 1424 0
 3402 008e BB7B     		ldrb	r3, [r7, #14]	@ zero_extendqisi2
 3403 0090 1846     		mov	r0, r3
 3404 0092 FFF7FEFF 		bl	cp_GetColor
 3405 0096 0346     		mov	r3, r0
 3406 0098 0B4A     		ldr	r2, .L202
 3407 009a 1A44     		add	r2, r2, r3
 3408 009c 92F84B20 		ldrb	r2, [r2, #75]	@ zero_extendqisi2
 3409 00a0 0132     		adds	r2, r2, #1
 3410 00a2 D1B2     		uxtb	r1, r2
 3411 00a4 084A     		ldr	r2, .L202
 3412 00a6 1344     		add	r3, r3, r2
 3413 00a8 0A46     		mov	r2, r1
 3414 00aa 83F84B20 		strb	r2, [r3, #75]
ARM GAS  C:\Users\KJA\AppData\Local\Temp\ccNNA7zi.s 			page 86


1425:u8glib_arm_v1.18.1\src/chessengine.c **** 	}
1426:u8glib_arm_v1.18.1\src/chessengine.c **** 	/* in any case, break out of the inner loop */
1427:u8glib_arm_v1.18.1\src/chessengine.c **** 	break;
 3415              		.loc 1 1427 0
 3416 00ae 03E0     		b	.L196
 3417              	.L198:
 3418 00b0 02E0     		b	.L196
 3419              	.L197:
1428:u8glib_arm_v1.18.1\src/chessengine.c ****       }
1429:u8glib_arm_v1.18.1\src/chessengine.c ****     } while( is_multi_step );
 3420              		.loc 1 1429 0
 3421 00b2 7B79     		ldrb	r3, [r7, #5]	@ zero_extendqisi2
 3422 00b4 002B     		cmp	r3, #0
 3423 00b6 B5D1     		bne	.L199
 3424              	.L196:
1430:u8glib_arm_v1.18.1\src/chessengine.c ****     d++;
 3425              		.loc 1 1430 0
 3426 00b8 3B68     		ldr	r3, [r7]
 3427 00ba 0133     		adds	r3, r3, #1
 3428 00bc 3B60     		str	r3, [r7]
1431:u8glib_arm_v1.18.1\src/chessengine.c ****   }
 3429              		.loc 1 1431 0
 3430 00be AAE7     		b	.L200
 3431              	.L201:
1432:u8glib_arm_v1.18.1\src/chessengine.c **** }
 3432              		.loc 1 1432 0
 3433 00c0 1037     		adds	r7, r7, #16
 3434              		.cfi_def_cfa_offset 8
 3435 00c2 BD46     		mov	sp, r7
 3436              		.cfi_def_cfa_register 13
 3437              		@ sp needed
 3438 00c4 80BD     		pop	{r7, pc}
 3439              	.L203:
 3440 00c6 00BF     		.align	2
 3441              	.L202:
 3442 00c8 00000000 		.word	lrc_obj
 3443 00cc 00000000 		.word	ce_piece_weight
 3444              		.cfi_endproc
 3445              	.LFE36:
 3446              		.size	ce_FindPieceByStep, .-ce_FindPieceByStep
 3447              		.section	.text.ce_FindPawnPiece,"ax",%progbits
 3448              		.align	2
 3449              		.global	ce_FindPawnPiece
 3450              		.thumb
 3451              		.thumb_func
 3452              		.type	ce_FindPawnPiece, %function
 3453              	ce_FindPawnPiece:
 3454              	.LFB37:
1433:u8glib_arm_v1.18.1\src/chessengine.c **** 
1434:u8glib_arm_v1.18.1\src/chessengine.c **** void ce_FindPawnPiece(uint8_t dest_pos, uint8_t color)
1435:u8glib_arm_v1.18.1\src/chessengine.c **** {
 3455              		.loc 1 1435 0
 3456              		.cfi_startproc
 3457              		@ args = 0, pretend = 0, frame = 16
 3458              		@ frame_needed = 1, uses_anonymous_args = 0
 3459 0000 80B5     		push	{r7, lr}
 3460              		.cfi_def_cfa_offset 8
ARM GAS  C:\Users\KJA\AppData\Local\Temp\ccNNA7zi.s 			page 87


 3461              		.cfi_offset 7, -8
 3462              		.cfi_offset 14, -4
 3463 0002 84B0     		sub	sp, sp, #16
 3464              		.cfi_def_cfa_offset 24
 3465 0004 00AF     		add	r7, sp, #0
 3466              		.cfi_def_cfa_register 7
 3467 0006 0346     		mov	r3, r0
 3468 0008 0A46     		mov	r2, r1
 3469 000a FB71     		strb	r3, [r7, #7]
 3470 000c 1346     		mov	r3, r2
 3471 000e BB71     		strb	r3, [r7, #6]
1436:u8glib_arm_v1.18.1\src/chessengine.c ****   uint8_t cp;
1437:u8glib_arm_v1.18.1\src/chessengine.c ****   /* check if the board boundary has been crossed */
1438:u8glib_arm_v1.18.1\src/chessengine.c ****   if ( (dest_pos & 0x088) == 0 )
 3472              		.loc 1 1438 0
 3473 0010 FB79     		ldrb	r3, [r7, #7]	@ zero_extendqisi2
 3474 0012 03F08803 		and	r3, r3, #136
 3475 0016 002B     		cmp	r3, #0
 3476 0018 2ED1     		bne	.L204
1439:u8glib_arm_v1.18.1\src/chessengine.c ****   {
1440:u8glib_arm_v1.18.1\src/chessengine.c ****     /* get the colored piece from the board */
1441:u8glib_arm_v1.18.1\src/chessengine.c ****     cp = cp_GetFromBoard(dest_pos);
 3477              		.loc 1 1441 0
 3478 001a FB79     		ldrb	r3, [r7, #7]	@ zero_extendqisi2
 3479 001c 1846     		mov	r0, r3
 3480 001e FFF7FEFF 		bl	cp_GetFromBoard
 3481 0022 0346     		mov	r3, r0
 3482 0024 FB73     		strb	r3, [r7, #15]
1442:u8glib_arm_v1.18.1\src/chessengine.c ****     /* only if there is a pawn of the matching color */
1443:u8glib_arm_v1.18.1\src/chessengine.c ****     if ( cp_GetPiece(cp) == PIECE_PAWN )
 3483              		.loc 1 1443 0
 3484 0026 FB7B     		ldrb	r3, [r7, #15]	@ zero_extendqisi2
 3485 0028 1846     		mov	r0, r3
 3486 002a FFF7FEFF 		bl	cp_GetPiece
 3487 002e 0346     		mov	r3, r0
 3488 0030 012B     		cmp	r3, #1
 3489 0032 21D1     		bne	.L204
1444:u8glib_arm_v1.18.1\src/chessengine.c ****     {
1445:u8glib_arm_v1.18.1\src/chessengine.c ****       if ( cp_GetColor(cp) == color )
 3490              		.loc 1 1445 0
 3491 0034 FB7B     		ldrb	r3, [r7, #15]	@ zero_extendqisi2
 3492 0036 1846     		mov	r0, r3
 3493 0038 FFF7FEFF 		bl	cp_GetColor
 3494 003c 0346     		mov	r3, r0
 3495 003e 1A46     		mov	r2, r3
 3496 0040 BB79     		ldrb	r3, [r7, #6]	@ zero_extendqisi2
 3497 0042 9342     		cmp	r3, r2
 3498 0044 18D1     		bne	.L204
1446:u8glib_arm_v1.18.1\src/chessengine.c ****       {
1447:u8glib_arm_v1.18.1\src/chessengine.c **** 	/* the weight of the PAWN */
1448:u8glib_arm_v1.18.1\src/chessengine.c **** 	lrc_obj.find_piece_weight[color] += 1;
 3499              		.loc 1 1448 0
 3500 0046 BB79     		ldrb	r3, [r7, #6]	@ zero_extendqisi2
 3501 0048 BA79     		ldrb	r2, [r7, #6]	@ zero_extendqisi2
 3502 004a 0D49     		ldr	r1, .L206
 3503 004c 0A44     		add	r2, r2, r1
 3504 004e 92F84D20 		ldrb	r2, [r2, #77]	@ zero_extendqisi2
ARM GAS  C:\Users\KJA\AppData\Local\Temp\ccNNA7zi.s 			page 88


 3505 0052 0132     		adds	r2, r2, #1
 3506 0054 D1B2     		uxtb	r1, r2
 3507 0056 0A4A     		ldr	r2, .L206
 3508 0058 1344     		add	r3, r3, r2
 3509 005a 0A46     		mov	r2, r1
 3510 005c 83F84D20 		strb	r2, [r3, #77]
1449:u8glib_arm_v1.18.1\src/chessengine.c **** 	lrc_obj.find_piece_cnt[color]++;
 3511              		.loc 1 1449 0
 3512 0060 BB79     		ldrb	r3, [r7, #6]	@ zero_extendqisi2
 3513 0062 074A     		ldr	r2, .L206
 3514 0064 1A44     		add	r2, r2, r3
 3515 0066 92F84B20 		ldrb	r2, [r2, #75]	@ zero_extendqisi2
 3516 006a 0132     		adds	r2, r2, #1
 3517 006c D1B2     		uxtb	r1, r2
 3518 006e 044A     		ldr	r2, .L206
 3519 0070 1344     		add	r3, r3, r2
 3520 0072 0A46     		mov	r2, r1
 3521 0074 83F84B20 		strb	r2, [r3, #75]
 3522              	.L204:
1450:u8glib_arm_v1.18.1\src/chessengine.c ****       }
1451:u8glib_arm_v1.18.1\src/chessengine.c ****     }
1452:u8glib_arm_v1.18.1\src/chessengine.c ****   }
1453:u8glib_arm_v1.18.1\src/chessengine.c **** }
 3523              		.loc 1 1453 0
 3524 0078 1037     		adds	r7, r7, #16
 3525              		.cfi_def_cfa_offset 8
 3526 007a BD46     		mov	sp, r7
 3527              		.cfi_def_cfa_register 13
 3528              		@ sp needed
 3529 007c 80BD     		pop	{r7, pc}
 3530              	.L207:
 3531 007e 00BF     		.align	2
 3532              	.L206:
 3533 0080 00000000 		.word	lrc_obj
 3534              		.cfi_endproc
 3535              	.LFE37:
 3536              		.size	ce_FindPawnPiece, .-ce_FindPawnPiece
 3537              		.section	.text.ce_CalculatePositionWeight,"ax",%progbits
 3538              		.align	2
 3539              		.global	ce_CalculatePositionWeight
 3540              		.thumb
 3541              		.thumb_func
 3542              		.type	ce_CalculatePositionWeight, %function
 3543              	ce_CalculatePositionWeight:
 3544              	.LFB38:
1454:u8glib_arm_v1.18.1\src/chessengine.c **** 
1455:u8glib_arm_v1.18.1\src/chessengine.c **** 
1456:u8glib_arm_v1.18.1\src/chessengine.c **** /*
1457:u8glib_arm_v1.18.1\src/chessengine.c ****   find out, which pieces do attack a specified field
1458:u8glib_arm_v1.18.1\src/chessengine.c ****   used to
1459:u8glib_arm_v1.18.1\src/chessengine.c ****   - check if the KING can do castling
1460:u8glib_arm_v1.18.1\src/chessengine.c ****   - check if the KING must move
1461:u8glib_arm_v1.18.1\src/chessengine.c **** 
1462:u8glib_arm_v1.18.1\src/chessengine.c ****   may be used in the eval procedure ... once...
1463:u8glib_arm_v1.18.1\src/chessengine.c **** 
1464:u8glib_arm_v1.18.1\src/chessengine.c ****   the result is stored in the global array
1465:u8glib_arm_v1.18.1\src/chessengine.c ****     uint8_t lrc_obj.find_piece_weight[2];
ARM GAS  C:\Users\KJA\AppData\Local\Temp\ccNNA7zi.s 			page 89


1466:u8glib_arm_v1.18.1\src/chessengine.c ****   which is indexed with the color.
1467:u8glib_arm_v1.18.1\src/chessengine.c ****   lrc_obj.find_piece_weight[COLOR_WHITE] is the sum of all white pieces
1468:u8glib_arm_v1.18.1\src/chessengine.c ****   which can directly move to this field.
1469:u8glib_arm_v1.18.1\src/chessengine.c **** 
1470:u8glib_arm_v1.18.1\src/chessengine.c ****   example:
1471:u8glib_arm_v1.18.1\src/chessengine.c ****     if the black KING is at "pos" and lrc_obj.find_piece_weight[COLOR_WHITE] is not zero 
1472:u8glib_arm_v1.18.1\src/chessengine.c ****     (after executing ce_CalculatePositionWeight(pos)) then the KING must be protected or moveed, be
1473:u8glib_arm_v1.18.1\src/chessengine.c ****     the KING was given check.
1474:u8glib_arm_v1.18.1\src/chessengine.c **** */
1475:u8glib_arm_v1.18.1\src/chessengine.c **** 
1476:u8glib_arm_v1.18.1\src/chessengine.c **** void ce_CalculatePositionWeight(uint8_t pos)
1477:u8glib_arm_v1.18.1\src/chessengine.c **** {
 3545              		.loc 1 1477 0
 3546              		.cfi_startproc
 3547              		@ args = 0, pretend = 0, frame = 8
 3548              		@ frame_needed = 1, uses_anonymous_args = 0
 3549 0000 80B5     		push	{r7, lr}
 3550              		.cfi_def_cfa_offset 8
 3551              		.cfi_offset 7, -8
 3552              		.cfi_offset 14, -4
 3553 0002 82B0     		sub	sp, sp, #8
 3554              		.cfi_def_cfa_offset 16
 3555 0004 00AF     		add	r7, sp, #0
 3556              		.cfi_def_cfa_register 7
 3557 0006 0346     		mov	r3, r0
 3558 0008 FB71     		strb	r3, [r7, #7]
1478:u8glib_arm_v1.18.1\src/chessengine.c ****   
1479:u8glib_arm_v1.18.1\src/chessengine.c ****   lrc_obj.find_piece_weight[0] = 0;
 3559              		.loc 1 1479 0
 3560 000a 2C4B     		ldr	r3, .L211
 3561 000c 0022     		movs	r2, #0
 3562 000e 83F84D20 		strb	r2, [r3, #77]
1480:u8glib_arm_v1.18.1\src/chessengine.c ****   lrc_obj.find_piece_weight[1] = 0;
 3563              		.loc 1 1480 0
 3564 0012 2A4B     		ldr	r3, .L211
 3565 0014 0022     		movs	r2, #0
 3566 0016 83F84E20 		strb	r2, [r3, #78]
1481:u8glib_arm_v1.18.1\src/chessengine.c ****   lrc_obj.find_piece_cnt[0] = 0;
 3567              		.loc 1 1481 0
 3568 001a 284B     		ldr	r3, .L211
 3569 001c 0022     		movs	r2, #0
 3570 001e 83F84B20 		strb	r2, [r3, #75]
1482:u8glib_arm_v1.18.1\src/chessengine.c ****   lrc_obj.find_piece_cnt[1] = 0;
 3571              		.loc 1 1482 0
 3572 0022 264B     		ldr	r3, .L211
 3573 0024 0022     		movs	r2, #0
 3574 0026 83F84C20 		strb	r2, [r3, #76]
1483:u8glib_arm_v1.18.1\src/chessengine.c ****   
1484:u8glib_arm_v1.18.1\src/chessengine.c ****   if ( (pos & 0x088) != 0 )
 3575              		.loc 1 1484 0
 3576 002a FB79     		ldrb	r3, [r7, #7]	@ zero_extendqisi2
 3577 002c 03F08803 		and	r3, r3, #136
 3578 0030 002B     		cmp	r3, #0
 3579 0032 00D0     		beq	.L209
1485:u8glib_arm_v1.18.1\src/chessengine.c ****     return;
 3580              		.loc 1 1485 0
 3581 0034 3EE0     		b	.L208
ARM GAS  C:\Users\KJA\AppData\Local\Temp\ccNNA7zi.s 			page 90


 3582              	.L209:
1486:u8glib_arm_v1.18.1\src/chessengine.c **** 
1487:u8glib_arm_v1.18.1\src/chessengine.c ****   ce_FindPieceByStep(pos, PIECE_ROOK, ce_dir_offset_rook, 1);
 3583              		.loc 1 1487 0
 3584 0036 FB79     		ldrb	r3, [r7, #7]	@ zero_extendqisi2
 3585 0038 1846     		mov	r0, r3
 3586 003a 0421     		movs	r1, #4
 3587 003c 204A     		ldr	r2, .L211+4
 3588 003e 0123     		movs	r3, #1
 3589 0040 FFF7FEFF 		bl	ce_FindPieceByStep
1488:u8glib_arm_v1.18.1\src/chessengine.c ****   ce_FindPieceByStep(pos, PIECE_BISHOP, ce_dir_offset_bishop, 1);
 3590              		.loc 1 1488 0
 3591 0044 FB79     		ldrb	r3, [r7, #7]	@ zero_extendqisi2
 3592 0046 1846     		mov	r0, r3
 3593 0048 0321     		movs	r1, #3
 3594 004a 1E4A     		ldr	r2, .L211+8
 3595 004c 0123     		movs	r3, #1
 3596 004e FFF7FEFF 		bl	ce_FindPieceByStep
1489:u8glib_arm_v1.18.1\src/chessengine.c ****   ce_FindPieceByStep(pos, PIECE_QUEEN, ce_dir_offset_queen, 1);
 3597              		.loc 1 1489 0
 3598 0052 FB79     		ldrb	r3, [r7, #7]	@ zero_extendqisi2
 3599 0054 1846     		mov	r0, r3
 3600 0056 0521     		movs	r1, #5
 3601 0058 1B4A     		ldr	r2, .L211+12
 3602 005a 0123     		movs	r3, #1
 3603 005c FFF7FEFF 		bl	ce_FindPieceByStep
1490:u8glib_arm_v1.18.1\src/chessengine.c ****   ce_FindPieceByStep(pos, PIECE_KNIGHT, ce_dir_offset_knight, 0);
 3604              		.loc 1 1490 0
 3605 0060 FB79     		ldrb	r3, [r7, #7]	@ zero_extendqisi2
 3606 0062 1846     		mov	r0, r3
 3607 0064 0221     		movs	r1, #2
 3608 0066 194A     		ldr	r2, .L211+16
 3609 0068 0023     		movs	r3, #0
 3610 006a FFF7FEFF 		bl	ce_FindPieceByStep
1491:u8glib_arm_v1.18.1\src/chessengine.c ****   ce_FindPieceByStep(pos, PIECE_KING, ce_dir_offset_queen, 0);
 3611              		.loc 1 1491 0
 3612 006e FB79     		ldrb	r3, [r7, #7]	@ zero_extendqisi2
 3613 0070 1846     		mov	r0, r3
 3614 0072 0621     		movs	r1, #6
 3615 0074 144A     		ldr	r2, .L211+12
 3616 0076 0023     		movs	r3, #0
 3617 0078 FFF7FEFF 		bl	ce_FindPieceByStep
1492:u8glib_arm_v1.18.1\src/chessengine.c **** 
1493:u8glib_arm_v1.18.1\src/chessengine.c ****   ce_FindPawnPiece(pos+17, COLOR_BLACK);
 3618              		.loc 1 1493 0
 3619 007c FB79     		ldrb	r3, [r7, #7]
 3620 007e 1133     		adds	r3, r3, #17
 3621 0080 DBB2     		uxtb	r3, r3
 3622 0082 1846     		mov	r0, r3
 3623 0084 0121     		movs	r1, #1
 3624 0086 FFF7FEFF 		bl	ce_FindPawnPiece
1494:u8glib_arm_v1.18.1\src/chessengine.c ****   ce_FindPawnPiece(pos+15, COLOR_BLACK);
 3625              		.loc 1 1494 0
 3626 008a FB79     		ldrb	r3, [r7, #7]
 3627 008c 0F33     		adds	r3, r3, #15
 3628 008e DBB2     		uxtb	r3, r3
 3629 0090 1846     		mov	r0, r3
ARM GAS  C:\Users\KJA\AppData\Local\Temp\ccNNA7zi.s 			page 91


 3630 0092 0121     		movs	r1, #1
 3631 0094 FFF7FEFF 		bl	ce_FindPawnPiece
1495:u8glib_arm_v1.18.1\src/chessengine.c ****   ce_FindPawnPiece(pos-17, COLOR_WHITE);
 3632              		.loc 1 1495 0
 3633 0098 FB79     		ldrb	r3, [r7, #7]
 3634 009a 113B     		subs	r3, r3, #17
 3635 009c DBB2     		uxtb	r3, r3
 3636 009e 1846     		mov	r0, r3
 3637 00a0 0021     		movs	r1, #0
 3638 00a2 FFF7FEFF 		bl	ce_FindPawnPiece
1496:u8glib_arm_v1.18.1\src/chessengine.c ****   ce_FindPawnPiece(pos-15, COLOR_WHITE);
 3639              		.loc 1 1496 0
 3640 00a6 FB79     		ldrb	r3, [r7, #7]
 3641 00a8 0F3B     		subs	r3, r3, #15
 3642 00aa DBB2     		uxtb	r3, r3
 3643 00ac 1846     		mov	r0, r3
 3644 00ae 0021     		movs	r1, #0
 3645 00b0 FFF7FEFF 		bl	ce_FindPawnPiece
 3646              	.L208:
1497:u8glib_arm_v1.18.1\src/chessengine.c **** }
 3647              		.loc 1 1497 0
 3648 00b4 0837     		adds	r7, r7, #8
 3649              		.cfi_def_cfa_offset 8
 3650 00b6 BD46     		mov	sp, r7
 3651              		.cfi_def_cfa_register 13
 3652              		@ sp needed
 3653 00b8 80BD     		pop	{r7, pc}
 3654              	.L212:
 3655 00ba 00BF     		.align	2
 3656              	.L211:
 3657 00bc 00000000 		.word	lrc_obj
 3658 00c0 00000000 		.word	ce_dir_offset_rook
 3659 00c4 08000000 		.word	ce_dir_offset_bishop
 3660 00c8 10000000 		.word	ce_dir_offset_queen
 3661 00cc 1C000000 		.word	ce_dir_offset_knight
 3662              		.cfi_endproc
 3663              	.LFE38:
 3664              		.size	ce_CalculatePositionWeight, .-ce_CalculatePositionWeight
 3665              		.section	.text.ce_GetPositionAttackWeight,"ax",%progbits
 3666              		.align	2
 3667              		.global	ce_GetPositionAttackWeight
 3668              		.thumb
 3669              		.thumb_func
 3670              		.type	ce_GetPositionAttackWeight, %function
 3671              	ce_GetPositionAttackWeight:
 3672              	.LFB39:
1498:u8glib_arm_v1.18.1\src/chessengine.c **** 
1499:u8glib_arm_v1.18.1\src/chessengine.c **** /*
1500:u8glib_arm_v1.18.1\src/chessengine.c ****   calculate the summed weight of pieces with specified color which can move to a specified position
1501:u8glib_arm_v1.18.1\src/chessengine.c **** 
1502:u8glib_arm_v1.18.1\src/chessengine.c ****   argument:
1503:u8glib_arm_v1.18.1\src/chessengine.c ****     pos: 	the position which should be analysed
1504:u8glib_arm_v1.18.1\src/chessengine.c ****     color: 	the color of those pieces which should be analysed
1505:u8glib_arm_v1.18.1\src/chessengine.c **** 		e.g. if a black piece is at 'pos' and 'color' is white then this procedure returns the white atti
1506:u8glib_arm_v1.18.1\src/chessengine.c **** */
1507:u8glib_arm_v1.18.1\src/chessengine.c **** uint8_t ce_GetPositionAttackWeight(uint8_t pos, uint8_t color)
1508:u8glib_arm_v1.18.1\src/chessengine.c **** {
ARM GAS  C:\Users\KJA\AppData\Local\Temp\ccNNA7zi.s 			page 92


 3673              		.loc 1 1508 0
 3674              		.cfi_startproc
 3675              		@ args = 0, pretend = 0, frame = 8
 3676              		@ frame_needed = 1, uses_anonymous_args = 0
 3677 0000 80B5     		push	{r7, lr}
 3678              		.cfi_def_cfa_offset 8
 3679              		.cfi_offset 7, -8
 3680              		.cfi_offset 14, -4
 3681 0002 82B0     		sub	sp, sp, #8
 3682              		.cfi_def_cfa_offset 16
 3683 0004 00AF     		add	r7, sp, #0
 3684              		.cfi_def_cfa_register 7
 3685 0006 0346     		mov	r3, r0
 3686 0008 0A46     		mov	r2, r1
 3687 000a FB71     		strb	r3, [r7, #7]
 3688 000c 1346     		mov	r3, r2
 3689 000e BB71     		strb	r3, [r7, #6]
1509:u8glib_arm_v1.18.1\src/chessengine.c ****   ce_CalculatePositionWeight(pos);
 3690              		.loc 1 1509 0
 3691 0010 FB79     		ldrb	r3, [r7, #7]	@ zero_extendqisi2
 3692 0012 1846     		mov	r0, r3
 3693 0014 FFF7FEFF 		bl	ce_CalculatePositionWeight
1510:u8glib_arm_v1.18.1\src/chessengine.c ****   return lrc_obj.find_piece_weight[color];
 3694              		.loc 1 1510 0
 3695 0018 BB79     		ldrb	r3, [r7, #6]	@ zero_extendqisi2
 3696 001a 044A     		ldr	r2, .L215
 3697 001c 1344     		add	r3, r3, r2
 3698 001e 93F84D30 		ldrb	r3, [r3, #77]	@ zero_extendqisi2
1511:u8glib_arm_v1.18.1\src/chessengine.c **** }
 3699              		.loc 1 1511 0
 3700 0022 1846     		mov	r0, r3
 3701 0024 0837     		adds	r7, r7, #8
 3702              		.cfi_def_cfa_offset 8
 3703 0026 BD46     		mov	sp, r7
 3704              		.cfi_def_cfa_register 13
 3705              		@ sp needed
 3706 0028 80BD     		pop	{r7, pc}
 3707              	.L216:
 3708 002a 00BF     		.align	2
 3709              	.L215:
 3710 002c 00000000 		.word	lrc_obj
 3711              		.cfi_endproc
 3712              	.LFE39:
 3713              		.size	ce_GetPositionAttackWeight, .-ce_GetPositionAttackWeight
 3714              		.section	.text.ce_GetPositionAttackCount,"ax",%progbits
 3715              		.align	2
 3716              		.global	ce_GetPositionAttackCount
 3717              		.thumb
 3718              		.thumb_func
 3719              		.type	ce_GetPositionAttackCount, %function
 3720              	ce_GetPositionAttackCount:
 3721              	.LFB40:
1512:u8glib_arm_v1.18.1\src/chessengine.c **** 
1513:u8glib_arm_v1.18.1\src/chessengine.c **** uint8_t ce_GetPositionAttackCount(uint8_t pos, uint8_t color)
1514:u8glib_arm_v1.18.1\src/chessengine.c **** {
 3722              		.loc 1 1514 0
 3723              		.cfi_startproc
ARM GAS  C:\Users\KJA\AppData\Local\Temp\ccNNA7zi.s 			page 93


 3724              		@ args = 0, pretend = 0, frame = 8
 3725              		@ frame_needed = 1, uses_anonymous_args = 0
 3726 0000 80B5     		push	{r7, lr}
 3727              		.cfi_def_cfa_offset 8
 3728              		.cfi_offset 7, -8
 3729              		.cfi_offset 14, -4
 3730 0002 82B0     		sub	sp, sp, #8
 3731              		.cfi_def_cfa_offset 16
 3732 0004 00AF     		add	r7, sp, #0
 3733              		.cfi_def_cfa_register 7
 3734 0006 0346     		mov	r3, r0
 3735 0008 0A46     		mov	r2, r1
 3736 000a FB71     		strb	r3, [r7, #7]
 3737 000c 1346     		mov	r3, r2
 3738 000e BB71     		strb	r3, [r7, #6]
1515:u8glib_arm_v1.18.1\src/chessengine.c ****   ce_CalculatePositionWeight(pos);
 3739              		.loc 1 1515 0
 3740 0010 FB79     		ldrb	r3, [r7, #7]	@ zero_extendqisi2
 3741 0012 1846     		mov	r0, r3
 3742 0014 FFF7FEFF 		bl	ce_CalculatePositionWeight
1516:u8glib_arm_v1.18.1\src/chessengine.c ****   return lrc_obj.find_piece_cnt[color];
 3743              		.loc 1 1516 0
 3744 0018 BB79     		ldrb	r3, [r7, #6]	@ zero_extendqisi2
 3745 001a 044A     		ldr	r2, .L219
 3746 001c 1344     		add	r3, r3, r2
 3747 001e 93F84B30 		ldrb	r3, [r3, #75]	@ zero_extendqisi2
1517:u8glib_arm_v1.18.1\src/chessengine.c **** }
 3748              		.loc 1 1517 0
 3749 0022 1846     		mov	r0, r3
 3750 0024 0837     		adds	r7, r7, #8
 3751              		.cfi_def_cfa_offset 8
 3752 0026 BD46     		mov	sp, r7
 3753              		.cfi_def_cfa_register 13
 3754              		@ sp needed
 3755 0028 80BD     		pop	{r7, pc}
 3756              	.L220:
 3757 002a 00BF     		.align	2
 3758              	.L219:
 3759 002c 00000000 		.word	lrc_obj
 3760              		.cfi_endproc
 3761              	.LFE40:
 3762              		.size	ce_GetPositionAttackCount, .-ce_GetPositionAttackCount
 3763              		.section	.text.ce_LoopPieces,"ax",%progbits
 3764              		.align	2
 3765              		.global	ce_LoopPieces
 3766              		.thumb
 3767              		.thumb_func
 3768              		.type	ce_LoopPieces, %function
 3769              	ce_LoopPieces:
 3770              	.LFB41:
1518:u8glib_arm_v1.18.1\src/chessengine.c **** 
1519:u8glib_arm_v1.18.1\src/chessengine.c **** 
1520:u8glib_arm_v1.18.1\src/chessengine.c **** /*==============================================================*/
1521:u8glib_arm_v1.18.1\src/chessengine.c **** /* depth search starts here: loop over all pieces of the current color on the board */
1522:u8glib_arm_v1.18.1\src/chessengine.c **** /*==============================================================*/
1523:u8glib_arm_v1.18.1\src/chessengine.c **** 
1524:u8glib_arm_v1.18.1\src/chessengine.c **** void ce_LoopPieces(void)
ARM GAS  C:\Users\KJA\AppData\Local\Temp\ccNNA7zi.s 			page 94


1525:u8glib_arm_v1.18.1\src/chessengine.c **** {
 3771              		.loc 1 1525 0
 3772              		.cfi_startproc
 3773              		@ args = 0, pretend = 0, frame = 8
 3774              		@ frame_needed = 1, uses_anonymous_args = 0
 3775 0000 90B5     		push	{r4, r7, lr}
 3776              		.cfi_def_cfa_offset 12
 3777              		.cfi_offset 4, -12
 3778              		.cfi_offset 7, -8
 3779              		.cfi_offset 14, -4
 3780 0002 83B0     		sub	sp, sp, #12
 3781              		.cfi_def_cfa_offset 24
 3782 0004 00AF     		add	r7, sp, #0
 3783              		.cfi_def_cfa_register 7
1526:u8glib_arm_v1.18.1\src/chessengine.c ****   stack_element_p e = stack_GetCurrElement();
 3784              		.loc 1 1526 0
 3785 0006 FFF7FEFF 		bl	stack_GetCurrElement
 3786 000a 7860     		str	r0, [r7, #4]
1527:u8glib_arm_v1.18.1\src/chessengine.c ****   /* start with lower left position (A1) */
1528:u8glib_arm_v1.18.1\src/chessengine.c ****   e->current_pos = 0;
 3787              		.loc 1 1528 0
 3788 000c 7B68     		ldr	r3, [r7, #4]
 3789 000e 0022     		movs	r2, #0
 3790 0010 1A70     		strb	r2, [r3]
 3791              	.L231:
1529:u8glib_arm_v1.18.1\src/chessengine.c ****   do
1530:u8glib_arm_v1.18.1\src/chessengine.c ****   {
1531:u8glib_arm_v1.18.1\src/chessengine.c ****     e->current_cp = cp_GetFromBoard(e->current_pos);
 3792              		.loc 1 1531 0
 3793 0012 7B68     		ldr	r3, [r7, #4]
 3794 0014 1B78     		ldrb	r3, [r3]	@ zero_extendqisi2
 3795 0016 1846     		mov	r0, r3
 3796 0018 FFF7FEFF 		bl	cp_GetFromBoard
 3797 001c 0346     		mov	r3, r0
 3798 001e 1A46     		mov	r2, r3
 3799 0020 7B68     		ldr	r3, [r7, #4]
 3800 0022 5A70     		strb	r2, [r3, #1]
1532:u8glib_arm_v1.18.1\src/chessengine.c ****     /* check if the position on the board is empty */
1533:u8glib_arm_v1.18.1\src/chessengine.c ****     if ( e->current_cp != 0 )
 3801              		.loc 1 1533 0
 3802 0024 7B68     		ldr	r3, [r7, #4]
 3803 0026 5B78     		ldrb	r3, [r3, #1]	@ zero_extendqisi2
 3804 0028 002B     		cmp	r3, #0
 3805 002a 37D0     		beq	.L222
1534:u8glib_arm_v1.18.1\src/chessengine.c ****     {
1535:u8glib_arm_v1.18.1\src/chessengine.c ****       /* only generate moves for the current color */
1536:u8glib_arm_v1.18.1\src/chessengine.c ****       if ( e->current_color == cp_GetColor(e->current_cp) )
 3806              		.loc 1 1536 0
 3807 002c 7B68     		ldr	r3, [r7, #4]
 3808 002e 9C78     		ldrb	r4, [r3, #2]	@ zero_extendqisi2
 3809 0030 7B68     		ldr	r3, [r7, #4]
 3810 0032 5B78     		ldrb	r3, [r3, #1]	@ zero_extendqisi2
 3811 0034 1846     		mov	r0, r3
 3812 0036 FFF7FEFF 		bl	cp_GetColor
 3813 003a 0346     		mov	r3, r0
 3814 003c 9C42     		cmp	r4, r3
 3815 003e 2DD1     		bne	.L222
ARM GAS  C:\Users\KJA\AppData\Local\Temp\ccNNA7zi.s 			page 95


1537:u8glib_arm_v1.18.1\src/chessengine.c ****       {
1538:u8glib_arm_v1.18.1\src/chessengine.c **** 	chess_Thinking();
 3816              		.loc 1 1538 0
 3817 0040 FFF7FEFF 		bl	chess_Thinking
1539:u8glib_arm_v1.18.1\src/chessengine.c **** 	
1540:u8glib_arm_v1.18.1\src/chessengine.c **** 	/* find out which piece is used */
1541:u8glib_arm_v1.18.1\src/chessengine.c **** 	switch(cp_GetPiece(e->current_cp))
 3818              		.loc 1 1541 0
 3819 0044 7B68     		ldr	r3, [r7, #4]
 3820 0046 5B78     		ldrb	r3, [r3, #1]	@ zero_extendqisi2
 3821 0048 1846     		mov	r0, r3
 3822 004a FFF7FEFF 		bl	cp_GetPiece
 3823 004e 0346     		mov	r3, r0
 3824 0050 062B     		cmp	r3, #6
 3825 0052 23D8     		bhi	.L222
 3826 0054 01A2     		adr	r2, .L224
 3827 0056 52F823F0 		ldr	pc, [r2, r3, lsl #2]
 3828 005a 00BF     		.p2align 2
 3829              	.L224:
 3830 005c 9D000000 		.word	.L222+1
 3831 0060 79000000 		.word	.L225+1
 3832 0064 7F000000 		.word	.L226+1
 3833 0068 85000000 		.word	.L227+1
 3834 006c 8B000000 		.word	.L228+1
 3835 0070 91000000 		.word	.L229+1
 3836 0074 97000000 		.word	.L230+1
 3837              		.p2align 1
 3838              	.L225:
1542:u8glib_arm_v1.18.1\src/chessengine.c **** 	{
1543:u8glib_arm_v1.18.1\src/chessengine.c **** 	  case PIECE_NONE:
1544:u8glib_arm_v1.18.1\src/chessengine.c **** 	    break;
1545:u8glib_arm_v1.18.1\src/chessengine.c **** 	  case PIECE_PAWN:
1546:u8glib_arm_v1.18.1\src/chessengine.c **** 	    ce_LoopPawn();
 3839              		.loc 1 1546 0
 3840 0078 FFF7FEFF 		bl	ce_LoopPawn
1547:u8glib_arm_v1.18.1\src/chessengine.c **** 	    break;
 3841              		.loc 1 1547 0
 3842 007c 0EE0     		b	.L222
 3843              	.L226:
1548:u8glib_arm_v1.18.1\src/chessengine.c **** 	  case PIECE_KNIGHT:
1549:u8glib_arm_v1.18.1\src/chessengine.c **** 	    ce_LoopKnight();
 3844              		.loc 1 1549 0
 3845 007e FFF7FEFF 		bl	ce_LoopKnight
1550:u8glib_arm_v1.18.1\src/chessengine.c **** 	    break;
 3846              		.loc 1 1550 0
 3847 0082 0BE0     		b	.L222
 3848              	.L227:
1551:u8glib_arm_v1.18.1\src/chessengine.c **** 	  case PIECE_BISHOP:
1552:u8glib_arm_v1.18.1\src/chessengine.c **** 	    ce_LoopBishop();
 3849              		.loc 1 1552 0
 3850 0084 FFF7FEFF 		bl	ce_LoopBishop
1553:u8glib_arm_v1.18.1\src/chessengine.c **** 	    break;
 3851              		.loc 1 1553 0
 3852 0088 08E0     		b	.L222
 3853              	.L228:
1554:u8glib_arm_v1.18.1\src/chessengine.c **** 	  case PIECE_ROOK:
1555:u8glib_arm_v1.18.1\src/chessengine.c **** 	    ce_LoopRook();
ARM GAS  C:\Users\KJA\AppData\Local\Temp\ccNNA7zi.s 			page 96


 3854              		.loc 1 1555 0
 3855 008a FFF7FEFF 		bl	ce_LoopRook
1556:u8glib_arm_v1.18.1\src/chessengine.c **** 	    break;
 3856              		.loc 1 1556 0
 3857 008e 05E0     		b	.L222
 3858              	.L229:
1557:u8glib_arm_v1.18.1\src/chessengine.c **** 	  case PIECE_QUEEN:
1558:u8glib_arm_v1.18.1\src/chessengine.c **** 	    ce_LoopQueen();
 3859              		.loc 1 1558 0
 3860 0090 FFF7FEFF 		bl	ce_LoopQueen
1559:u8glib_arm_v1.18.1\src/chessengine.c **** 	    break;
 3861              		.loc 1 1559 0
 3862 0094 02E0     		b	.L222
 3863              	.L230:
1560:u8glib_arm_v1.18.1\src/chessengine.c **** 	  case PIECE_KING:
1561:u8glib_arm_v1.18.1\src/chessengine.c **** 	    ce_LoopKing();
 3864              		.loc 1 1561 0
 3865 0096 FFF7FEFF 		bl	ce_LoopKing
1562:u8glib_arm_v1.18.1\src/chessengine.c **** 	    break;
 3866              		.loc 1 1562 0
 3867 009a 00BF     		nop
 3868              	.L222:
1563:u8glib_arm_v1.18.1\src/chessengine.c **** 	}
1564:u8glib_arm_v1.18.1\src/chessengine.c ****       }
1565:u8glib_arm_v1.18.1\src/chessengine.c ****     }    
1566:u8glib_arm_v1.18.1\src/chessengine.c ****     e->current_pos = cu_NextPos(e->current_pos);
 3869              		.loc 1 1566 0
 3870 009c 7B68     		ldr	r3, [r7, #4]
 3871 009e 1B78     		ldrb	r3, [r3]	@ zero_extendqisi2
 3872 00a0 1846     		mov	r0, r3
 3873 00a2 FFF7FEFF 		bl	cu_NextPos
 3874 00a6 0346     		mov	r3, r0
 3875 00a8 1A46     		mov	r2, r3
 3876 00aa 7B68     		ldr	r3, [r7, #4]
 3877 00ac 1A70     		strb	r2, [r3]
1567:u8glib_arm_v1.18.1\src/chessengine.c ****   } while( e->current_pos != 0 );
 3878              		.loc 1 1567 0
 3879 00ae 7B68     		ldr	r3, [r7, #4]
 3880 00b0 1B78     		ldrb	r3, [r3]	@ zero_extendqisi2
 3881 00b2 002B     		cmp	r3, #0
 3882 00b4 ADD1     		bne	.L231
1568:u8glib_arm_v1.18.1\src/chessengine.c **** }
 3883              		.loc 1 1568 0
 3884 00b6 0C37     		adds	r7, r7, #12
 3885              		.cfi_def_cfa_offset 12
 3886 00b8 BD46     		mov	sp, r7
 3887              		.cfi_def_cfa_register 13
 3888              		@ sp needed
 3889 00ba 90BD     		pop	{r4, r7, pc}
 3890              		.cfi_endproc
 3891              	.LFE41:
 3892              		.size	ce_LoopPieces, .-ce_LoopPieces
 3893              		.section	.text.chess_ClearMarks,"ax",%progbits
 3894              		.align	2
 3895              		.global	chess_ClearMarks
 3896              		.thumb
 3897              		.thumb_func
ARM GAS  C:\Users\KJA\AppData\Local\Temp\ccNNA7zi.s 			page 97


 3898              		.type	chess_ClearMarks, %function
 3899              	chess_ClearMarks:
 3900              	.LFB42:
1569:u8glib_arm_v1.18.1\src/chessengine.c **** 
1570:u8glib_arm_v1.18.1\src/chessengine.c **** /*==============================================================*/
1571:u8glib_arm_v1.18.1\src/chessengine.c **** /* user interface */
1572:u8glib_arm_v1.18.1\src/chessengine.c **** /*==============================================================*/
1573:u8glib_arm_v1.18.1\src/chessengine.c **** 
1574:u8glib_arm_v1.18.1\src/chessengine.c **** /*
1575:u8glib_arm_v1.18.1\src/chessengine.c **** eval_t chess_EvalCurrBoard(uint8_t color)
1576:u8glib_arm_v1.18.1\src/chessengine.c **** {
1577:u8glib_arm_v1.18.1\src/chessengine.c ****   stack_Init(0);
1578:u8glib_arm_v1.18.1\src/chessengine.c ****   stack_GetCurrElement()->current_color = color;
1579:u8glib_arm_v1.18.1\src/chessengine.c ****   ce_LoopPieces();
1580:u8glib_arm_v1.18.1\src/chessengine.c ****   return stack_GetCurrElement()->best_eval;
1581:u8glib_arm_v1.18.1\src/chessengine.c **** }
1582:u8glib_arm_v1.18.1\src/chessengine.c **** */
1583:u8glib_arm_v1.18.1\src/chessengine.c **** 
1584:u8glib_arm_v1.18.1\src/chessengine.c **** /* clear any marks on the board */
1585:u8glib_arm_v1.18.1\src/chessengine.c **** void chess_ClearMarks(void)
1586:u8glib_arm_v1.18.1\src/chessengine.c **** {
 3901              		.loc 1 1586 0
 3902              		.cfi_startproc
 3903              		@ args = 0, pretend = 0, frame = 8
 3904              		@ frame_needed = 1, uses_anonymous_args = 0
 3905              		@ link register save eliminated.
 3906 0000 80B4     		push	{r7}
 3907              		.cfi_def_cfa_offset 4
 3908              		.cfi_offset 7, -4
 3909 0002 83B0     		sub	sp, sp, #12
 3910              		.cfi_def_cfa_offset 16
 3911 0004 00AF     		add	r7, sp, #0
 3912              		.cfi_def_cfa_register 7
1587:u8glib_arm_v1.18.1\src/chessengine.c ****   uint8_t i;
1588:u8glib_arm_v1.18.1\src/chessengine.c ****   for( i = 0; i < 64; i++ )
 3913              		.loc 1 1588 0
 3914 0006 0023     		movs	r3, #0
 3915 0008 FB71     		strb	r3, [r7, #7]
 3916 000a 0EE0     		b	.L233
 3917              	.L234:
1589:u8glib_arm_v1.18.1\src/chessengine.c ****      lrc_obj.board[i] &= ~CP_MARK_MASK;
 3918              		.loc 1 1589 0 discriminator 3
 3919 000c FB79     		ldrb	r3, [r7, #7]	@ zero_extendqisi2
 3920 000e FA79     		ldrb	r2, [r7, #7]	@ zero_extendqisi2
 3921 0010 0A49     		ldr	r1, .L235
 3922 0012 0A44     		add	r2, r2, r1
 3923 0014 9278     		ldrb	r2, [r2, #2]	@ zero_extendqisi2
 3924 0016 22F02002 		bic	r2, r2, #32
 3925 001a D1B2     		uxtb	r1, r2
 3926 001c 074A     		ldr	r2, .L235
 3927 001e 1344     		add	r3, r3, r2
 3928 0020 0A46     		mov	r2, r1
 3929 0022 9A70     		strb	r2, [r3, #2]
1588:u8glib_arm_v1.18.1\src/chessengine.c ****      lrc_obj.board[i] &= ~CP_MARK_MASK;
 3930              		.loc 1 1588 0 discriminator 3
 3931 0024 FB79     		ldrb	r3, [r7, #7]	@ zero_extendqisi2
 3932 0026 0133     		adds	r3, r3, #1
ARM GAS  C:\Users\KJA\AppData\Local\Temp\ccNNA7zi.s 			page 98


 3933 0028 FB71     		strb	r3, [r7, #7]
 3934              	.L233:
1588:u8glib_arm_v1.18.1\src/chessengine.c ****      lrc_obj.board[i] &= ~CP_MARK_MASK;
 3935              		.loc 1 1588 0 is_stmt 0 discriminator 1
 3936 002a FB79     		ldrb	r3, [r7, #7]	@ zero_extendqisi2
 3937 002c 3F2B     		cmp	r3, #63
 3938 002e EDD9     		bls	.L234
1590:u8glib_arm_v1.18.1\src/chessengine.c **** }
 3939              		.loc 1 1590 0 is_stmt 1
 3940 0030 0C37     		adds	r7, r7, #12
 3941              		.cfi_def_cfa_offset 4
 3942 0032 BD46     		mov	sp, r7
 3943              		.cfi_def_cfa_register 13
 3944              		@ sp needed
 3945 0034 5DF8047B 		ldr	r7, [sp], #4
 3946              		.cfi_restore 7
 3947              		.cfi_def_cfa_offset 0
 3948 0038 7047     		bx	lr
 3949              	.L236:
 3950 003a 00BF     		.align	2
 3951              	.L235:
 3952 003c 00000000 		.word	lrc_obj
 3953              		.cfi_endproc
 3954              	.LFE42:
 3955              		.size	chess_ClearMarks, .-chess_ClearMarks
 3956              		.section	.text.chess_MarkMovable,"ax",%progbits
 3957              		.align	2
 3958              		.global	chess_MarkMovable
 3959              		.thumb
 3960              		.thumb_func
 3961              		.type	chess_MarkMovable, %function
 3962              	chess_MarkMovable:
 3963              	.LFB43:
1591:u8glib_arm_v1.18.1\src/chessengine.c **** 
1592:u8glib_arm_v1.18.1\src/chessengine.c **** /*
1593:u8glib_arm_v1.18.1\src/chessengine.c ****   Mark all pieces which can do moves. This is done by setting flags on the global board
1594:u8glib_arm_v1.18.1\src/chessengine.c **** */
1595:u8glib_arm_v1.18.1\src/chessengine.c **** void chess_MarkMovable(void)
1596:u8glib_arm_v1.18.1\src/chessengine.c **** {
 3964              		.loc 1 1596 0
 3965              		.cfi_startproc
 3966              		@ args = 0, pretend = 0, frame = 0
 3967              		@ frame_needed = 1, uses_anonymous_args = 0
 3968 0000 80B5     		push	{r7, lr}
 3969              		.cfi_def_cfa_offset 8
 3970              		.cfi_offset 7, -8
 3971              		.cfi_offset 14, -4
 3972 0002 00AF     		add	r7, sp, #0
 3973              		.cfi_def_cfa_register 7
1597:u8glib_arm_v1.18.1\src/chessengine.c ****   stack_Init(0);
 3974              		.loc 1 1597 0
 3975 0004 0020     		movs	r0, #0
 3976 0006 FFF7FEFF 		bl	stack_Init
1598:u8glib_arm_v1.18.1\src/chessengine.c ****   //stack_GetCurrElement()->current_color = color;
1599:u8glib_arm_v1.18.1\src/chessengine.c ****   lrc_obj.check_mode = CHECK_MODE_MOVEABLE;
 3977              		.loc 1 1599 0
 3978 000a 034B     		ldr	r3, .L238
ARM GAS  C:\Users\KJA\AppData\Local\Temp\ccNNA7zi.s 			page 99


 3979 000c 0122     		movs	r2, #1
 3980 000e 83F84A20 		strb	r2, [r3, #74]
1600:u8glib_arm_v1.18.1\src/chessengine.c ****   ce_LoopPieces();
 3981              		.loc 1 1600 0
 3982 0012 FFF7FEFF 		bl	ce_LoopPieces
1601:u8glib_arm_v1.18.1\src/chessengine.c **** }
 3983              		.loc 1 1601 0
 3984 0016 80BD     		pop	{r7, pc}
 3985              	.L239:
 3986              		.align	2
 3987              	.L238:
 3988 0018 00000000 		.word	lrc_obj
 3989              		.cfi_endproc
 3990              	.LFE43:
 3991              		.size	chess_MarkMovable, .-chess_MarkMovable
 3992              		.section	.text.chess_MarkTargetMoves,"ax",%progbits
 3993              		.align	2
 3994              		.global	chess_MarkTargetMoves
 3995              		.thumb
 3996              		.thumb_func
 3997              		.type	chess_MarkTargetMoves, %function
 3998              	chess_MarkTargetMoves:
 3999              	.LFB44:
1602:u8glib_arm_v1.18.1\src/chessengine.c **** 
1603:u8glib_arm_v1.18.1\src/chessengine.c **** /*
1604:u8glib_arm_v1.18.1\src/chessengine.c ****   Checks, if the piece can move from src_pos to dest_pos
1605:u8glib_arm_v1.18.1\src/chessengine.c **** 
1606:u8glib_arm_v1.18.1\src/chessengine.c ****   src_pos: The game position of a piece on the chess board
1607:u8glib_arm_v1.18.1\src/chessengine.c **** */
1608:u8glib_arm_v1.18.1\src/chessengine.c **** void chess_MarkTargetMoves(uint8_t src_pos)
1609:u8glib_arm_v1.18.1\src/chessengine.c **** {
 4000              		.loc 1 1609 0
 4001              		.cfi_startproc
 4002              		@ args = 0, pretend = 0, frame = 8
 4003              		@ frame_needed = 1, uses_anonymous_args = 0
 4004 0000 90B5     		push	{r4, r7, lr}
 4005              		.cfi_def_cfa_offset 12
 4006              		.cfi_offset 4, -12
 4007              		.cfi_offset 7, -8
 4008              		.cfi_offset 14, -4
 4009 0002 83B0     		sub	sp, sp, #12
 4010              		.cfi_def_cfa_offset 24
 4011 0004 00AF     		add	r7, sp, #0
 4012              		.cfi_def_cfa_register 7
 4013 0006 0346     		mov	r3, r0
 4014 0008 FB71     		strb	r3, [r7, #7]
1610:u8glib_arm_v1.18.1\src/chessengine.c ****   stack_Init(0);
 4015              		.loc 1 1610 0
 4016 000a 0020     		movs	r0, #0
 4017 000c FFF7FEFF 		bl	stack_Init
1611:u8glib_arm_v1.18.1\src/chessengine.c ****   stack_GetCurrElement()->current_color = cp_GetColor(cp_GetFromBoard(src_pos));
 4018              		.loc 1 1611 0
 4019 0010 FFF7FEFF 		bl	stack_GetCurrElement
 4020 0014 0446     		mov	r4, r0
 4021 0016 FB79     		ldrb	r3, [r7, #7]	@ zero_extendqisi2
 4022 0018 1846     		mov	r0, r3
 4023 001a FFF7FEFF 		bl	cp_GetFromBoard
ARM GAS  C:\Users\KJA\AppData\Local\Temp\ccNNA7zi.s 			page 100


 4024 001e 0346     		mov	r3, r0
 4025 0020 1846     		mov	r0, r3
 4026 0022 FFF7FEFF 		bl	cp_GetColor
 4027 0026 0346     		mov	r3, r0
 4028 0028 A370     		strb	r3, [r4, #2]
1612:u8glib_arm_v1.18.1\src/chessengine.c ****   lrc_obj.check_src_pos = src_pos;
 4029              		.loc 1 1612 0
 4030 002a 064A     		ldr	r2, .L241
 4031 002c FB79     		ldrb	r3, [r7, #7]
 4032 002e 82F84930 		strb	r3, [r2, #73]
1613:u8glib_arm_v1.18.1\src/chessengine.c ****   lrc_obj.check_mode = CHECK_MODE_TARGET_MOVE;  
 4033              		.loc 1 1613 0
 4034 0032 044B     		ldr	r3, .L241
 4035 0034 0222     		movs	r2, #2
 4036 0036 83F84A20 		strb	r2, [r3, #74]
1614:u8glib_arm_v1.18.1\src/chessengine.c ****   ce_LoopPieces();
 4037              		.loc 1 1614 0
 4038 003a FFF7FEFF 		bl	ce_LoopPieces
1615:u8glib_arm_v1.18.1\src/chessengine.c **** }
 4039              		.loc 1 1615 0
 4040 003e 0C37     		adds	r7, r7, #12
 4041              		.cfi_def_cfa_offset 12
 4042 0040 BD46     		mov	sp, r7
 4043              		.cfi_def_cfa_register 13
 4044              		@ sp needed
 4045 0042 90BD     		pop	{r4, r7, pc}
 4046              	.L242:
 4047              		.align	2
 4048              	.L241:
 4049 0044 00000000 		.word	lrc_obj
 4050              		.cfi_endproc
 4051              	.LFE44:
 4052              		.size	chess_MarkTargetMoves, .-chess_MarkTargetMoves
 4053              		.section	.text.chess_GetNextMarked,"ax",%progbits
 4054              		.align	2
 4055              		.global	chess_GetNextMarked
 4056              		.thumb
 4057              		.thumb_func
 4058              		.type	chess_GetNextMarked, %function
 4059              	chess_GetNextMarked:
 4060              	.LFB45:
1616:u8glib_arm_v1.18.1\src/chessengine.c **** 
1617:u8glib_arm_v1.18.1\src/chessengine.c **** /*
1618:u8glib_arm_v1.18.1\src/chessengine.c ****   first call should start with 255
1619:u8glib_arm_v1.18.1\src/chessengine.c ****   this procedure will return 255 if 
1620:u8glib_arm_v1.18.1\src/chessengine.c ****       - there are no marks at all
1621:u8glib_arm_v1.18.1\src/chessengine.c ****       - it has looped over all marks once
1622:u8glib_arm_v1.18.1\src/chessengine.c **** */
1623:u8glib_arm_v1.18.1\src/chessengine.c **** uint8_t chess_GetNextMarked(uint8_t arg, uint8_t is_prev)
1624:u8glib_arm_v1.18.1\src/chessengine.c **** {
 4061              		.loc 1 1624 0
 4062              		.cfi_startproc
 4063              		@ args = 0, pretend = 0, frame = 16
 4064              		@ frame_needed = 1, uses_anonymous_args = 0
 4065 0000 80B5     		push	{r7, lr}
 4066              		.cfi_def_cfa_offset 8
 4067              		.cfi_offset 7, -8
ARM GAS  C:\Users\KJA\AppData\Local\Temp\ccNNA7zi.s 			page 101


 4068              		.cfi_offset 14, -4
 4069 0002 84B0     		sub	sp, sp, #16
 4070              		.cfi_def_cfa_offset 24
 4071 0004 00AF     		add	r7, sp, #0
 4072              		.cfi_def_cfa_register 7
 4073 0006 0346     		mov	r3, r0
 4074 0008 0A46     		mov	r2, r1
 4075 000a FB71     		strb	r3, [r7, #7]
 4076 000c 1346     		mov	r3, r2
 4077 000e BB71     		strb	r3, [r7, #6]
1625:u8glib_arm_v1.18.1\src/chessengine.c ****   uint8_t i;
1626:u8glib_arm_v1.18.1\src/chessengine.c ****   uint8_t pos = arg;
 4078              		.loc 1 1626 0
 4079 0010 FB79     		ldrb	r3, [r7, #7]
 4080 0012 BB73     		strb	r3, [r7, #14]
1627:u8glib_arm_v1.18.1\src/chessengine.c ****   for(i = 0; i < 64; i++)
 4081              		.loc 1 1627 0
 4082 0014 0023     		movs	r3, #0
 4083 0016 FB73     		strb	r3, [r7, #15]
 4084 0018 25E0     		b	.L244
 4085              	.L250:
1628:u8glib_arm_v1.18.1\src/chessengine.c ****   {
1629:u8glib_arm_v1.18.1\src/chessengine.c ****     if ( is_prev != 0 )
 4086              		.loc 1 1629 0
 4087 001a BB79     		ldrb	r3, [r7, #6]	@ zero_extendqisi2
 4088 001c 002B     		cmp	r3, #0
 4089 001e 06D0     		beq	.L245
1630:u8glib_arm_v1.18.1\src/chessengine.c ****       pos = cu_PrevPos(pos);
 4090              		.loc 1 1630 0
 4091 0020 BB7B     		ldrb	r3, [r7, #14]	@ zero_extendqisi2
 4092 0022 1846     		mov	r0, r3
 4093 0024 FFF7FEFF 		bl	cu_PrevPos
 4094 0028 0346     		mov	r3, r0
 4095 002a BB73     		strb	r3, [r7, #14]
 4096 002c 05E0     		b	.L246
 4097              	.L245:
1631:u8glib_arm_v1.18.1\src/chessengine.c ****     else
1632:u8glib_arm_v1.18.1\src/chessengine.c ****       pos = cu_NextPos(pos);
 4098              		.loc 1 1632 0
 4099 002e BB7B     		ldrb	r3, [r7, #14]	@ zero_extendqisi2
 4100 0030 1846     		mov	r0, r3
 4101 0032 FFF7FEFF 		bl	cu_NextPos
 4102 0036 0346     		mov	r3, r0
 4103 0038 BB73     		strb	r3, [r7, #14]
 4104              	.L246:
1633:u8glib_arm_v1.18.1\src/chessengine.c ****     if ( arg != 255 && pos == 0 )
 4105              		.loc 1 1633 0
 4106 003a FB79     		ldrb	r3, [r7, #7]	@ zero_extendqisi2
 4107 003c FF2B     		cmp	r3, #255
 4108 003e 04D0     		beq	.L247
 4109              		.loc 1 1633 0 is_stmt 0 discriminator 1
 4110 0040 BB7B     		ldrb	r3, [r7, #14]	@ zero_extendqisi2
 4111 0042 002B     		cmp	r3, #0
 4112 0044 01D1     		bne	.L247
1634:u8glib_arm_v1.18.1\src/chessengine.c ****       return 255;
 4113              		.loc 1 1634 0 is_stmt 1
 4114 0046 FF23     		movs	r3, #255
ARM GAS  C:\Users\KJA\AppData\Local\Temp\ccNNA7zi.s 			page 102


 4115 0048 11E0     		b	.L248
 4116              	.L247:
1635:u8glib_arm_v1.18.1\src/chessengine.c ****     if ( cp_IsMarked(cp_GetFromBoard(pos)) )
 4117              		.loc 1 1635 0
 4118 004a BB7B     		ldrb	r3, [r7, #14]	@ zero_extendqisi2
 4119 004c 1846     		mov	r0, r3
 4120 004e FFF7FEFF 		bl	cp_GetFromBoard
 4121 0052 0346     		mov	r3, r0
 4122 0054 03F02003 		and	r3, r3, #32
 4123 0058 002B     		cmp	r3, #0
 4124 005a 01D0     		beq	.L249
1636:u8glib_arm_v1.18.1\src/chessengine.c ****       return pos;
 4125              		.loc 1 1636 0
 4126 005c BB7B     		ldrb	r3, [r7, #14]	@ zero_extendqisi2
 4127 005e 06E0     		b	.L248
 4128              	.L249:
1627:u8glib_arm_v1.18.1\src/chessengine.c ****   {
 4129              		.loc 1 1627 0 discriminator 2
 4130 0060 FB7B     		ldrb	r3, [r7, #15]	@ zero_extendqisi2
 4131 0062 0133     		adds	r3, r3, #1
 4132 0064 FB73     		strb	r3, [r7, #15]
 4133              	.L244:
1627:u8glib_arm_v1.18.1\src/chessengine.c ****   {
 4134              		.loc 1 1627 0 is_stmt 0 discriminator 1
 4135 0066 FB7B     		ldrb	r3, [r7, #15]	@ zero_extendqisi2
 4136 0068 3F2B     		cmp	r3, #63
 4137 006a D6D9     		bls	.L250
1637:u8glib_arm_v1.18.1\src/chessengine.c ****   }
1638:u8glib_arm_v1.18.1\src/chessengine.c ****   return 255;
 4138              		.loc 1 1638 0 is_stmt 1
 4139 006c FF23     		movs	r3, #255
 4140              	.L248:
1639:u8glib_arm_v1.18.1\src/chessengine.c **** }
 4141              		.loc 1 1639 0
 4142 006e 1846     		mov	r0, r3
 4143 0070 1037     		adds	r7, r7, #16
 4144              		.cfi_def_cfa_offset 8
 4145 0072 BD46     		mov	sp, r7
 4146              		.cfi_def_cfa_register 13
 4147              		@ sp needed
 4148 0074 80BD     		pop	{r7, pc}
 4149              		.cfi_endproc
 4150              	.LFE45:
 4151              		.size	chess_GetNextMarked, .-chess_GetNextMarked
 4152 0076 00BF     		.section	.text.chess_ManualMove,"ax",%progbits
 4153              		.align	2
 4154              		.global	chess_ManualMove
 4155              		.thumb
 4156              		.thumb_func
 4157              		.type	chess_ManualMove, %function
 4158              	chess_ManualMove:
 4159              	.LFB46:
1640:u8glib_arm_v1.18.1\src/chessengine.c **** 
1641:u8glib_arm_v1.18.1\src/chessengine.c **** 
1642:u8glib_arm_v1.18.1\src/chessengine.c **** /* make a manual move: this is a little bit more than cu_Move() */
1643:u8glib_arm_v1.18.1\src/chessengine.c **** void chess_ManualMove(uint8_t src, uint8_t dest)
1644:u8glib_arm_v1.18.1\src/chessengine.c **** {
ARM GAS  C:\Users\KJA\AppData\Local\Temp\ccNNA7zi.s 			page 103


 4160              		.loc 1 1644 0
 4161              		.cfi_startproc
 4162              		@ args = 0, pretend = 0, frame = 16
 4163              		@ frame_needed = 1, uses_anonymous_args = 0
 4164 0000 80B5     		push	{r7, lr}
 4165              		.cfi_def_cfa_offset 8
 4166              		.cfi_offset 7, -8
 4167              		.cfi_offset 14, -4
 4168 0002 84B0     		sub	sp, sp, #16
 4169              		.cfi_def_cfa_offset 24
 4170 0004 00AF     		add	r7, sp, #0
 4171              		.cfi_def_cfa_register 7
 4172 0006 0346     		mov	r3, r0
 4173 0008 0A46     		mov	r2, r1
 4174 000a FB71     		strb	r3, [r7, #7]
 4175 000c 1346     		mov	r3, r2
 4176 000e BB71     		strb	r3, [r7, #6]
1645:u8glib_arm_v1.18.1\src/chessengine.c ****   uint8_t cp;
1646:u8glib_arm_v1.18.1\src/chessengine.c ****   
1647:u8glib_arm_v1.18.1\src/chessengine.c ****   /* printf("chess_ManualMove %02x -> %02x\n", src, dest); */
1648:u8glib_arm_v1.18.1\src/chessengine.c ****   
1649:u8glib_arm_v1.18.1\src/chessengine.c ****   /* if all other things fail, this is the place where the game is to be decided: */
1650:u8glib_arm_v1.18.1\src/chessengine.c ****   /* ... if the KING is captured */
1651:u8glib_arm_v1.18.1\src/chessengine.c ****   cp = cp_GetFromBoard(dest);
 4177              		.loc 1 1651 0
 4178 0010 BB79     		ldrb	r3, [r7, #6]	@ zero_extendqisi2
 4179 0012 1846     		mov	r0, r3
 4180 0014 FFF7FEFF 		bl	cp_GetFromBoard
 4181 0018 0346     		mov	r3, r0
 4182 001a BB73     		strb	r3, [r7, #14]
1652:u8glib_arm_v1.18.1\src/chessengine.c ****   if ( cp_GetPiece(cp) == PIECE_KING )
 4183              		.loc 1 1652 0
 4184 001c BB7B     		ldrb	r3, [r7, #14]	@ zero_extendqisi2
 4185 001e 1846     		mov	r0, r3
 4186 0020 FFF7FEFF 		bl	cp_GetPiece
 4187 0024 0346     		mov	r3, r0
 4188 0026 062B     		cmp	r3, #6
 4189 0028 0CD1     		bne	.L252
1653:u8glib_arm_v1.18.1\src/chessengine.c ****   {
1654:u8glib_arm_v1.18.1\src/chessengine.c ****     lrc_obj.is_game_end = 1;
 4190              		.loc 1 1654 0
 4191 002a 3C4B     		ldr	r3, .L258
 4192 002c 0122     		movs	r2, #1
 4193 002e 83F84720 		strb	r2, [r3, #71]
1655:u8glib_arm_v1.18.1\src/chessengine.c ****     lrc_obj.lost_side_color = cp_GetColor(cp);    
 4194              		.loc 1 1655 0
 4195 0032 BB7B     		ldrb	r3, [r7, #14]	@ zero_extendqisi2
 4196 0034 1846     		mov	r0, r3
 4197 0036 FFF7FEFF 		bl	cp_GetColor
 4198 003a 0346     		mov	r3, r0
 4199 003c 1A46     		mov	r2, r3
 4200 003e 374B     		ldr	r3, .L258
 4201 0040 83F84820 		strb	r2, [r3, #72]
 4202              	.L252:
1656:u8glib_arm_v1.18.1\src/chessengine.c ****   }
1657:u8glib_arm_v1.18.1\src/chessengine.c **** 
1658:u8glib_arm_v1.18.1\src/chessengine.c ****   /* clear ply history here, to avoid memory overflow */
ARM GAS  C:\Users\KJA\AppData\Local\Temp\ccNNA7zi.s 			page 104


1659:u8glib_arm_v1.18.1\src/chessengine.c ****   /* may be the last X moves can be kept here */
1660:u8glib_arm_v1.18.1\src/chessengine.c ****   cu_ReduceHistoryByFullMove();
 4203              		.loc 1 1660 0
 4204 0044 FFF7FEFF 		bl	cu_ReduceHistoryByFullMove
1661:u8glib_arm_v1.18.1\src/chessengine.c ****   /* perform the move on the board */
1662:u8glib_arm_v1.18.1\src/chessengine.c ****   cu_Move(src, dest);
 4205              		.loc 1 1662 0
 4206 0048 FA79     		ldrb	r2, [r7, #7]	@ zero_extendqisi2
 4207 004a BB79     		ldrb	r3, [r7, #6]	@ zero_extendqisi2
 4208 004c 1046     		mov	r0, r2
 4209 004e 1946     		mov	r1, r3
 4210 0050 FFF7FEFF 		bl	cu_Move
1663:u8glib_arm_v1.18.1\src/chessengine.c ****   
1664:u8glib_arm_v1.18.1\src/chessengine.c ****   /* update en passant double move positions: en passant position is removed after two half moves  
1665:u8glib_arm_v1.18.1\src/chessengine.c ****   lrc_obj.pawn_dbl_move[lrc_obj.ply_count&1]  = ILLEGAL_POSITION;
 4211              		.loc 1 1665 0
 4212 0054 314B     		ldr	r3, .L258
 4213 0056 1B78     		ldrb	r3, [r3]	@ zero_extendqisi2
 4214 0058 03F00103 		and	r3, r3, #1
 4215 005c 2F4A     		ldr	r2, .L258
 4216 005e 1344     		add	r3, r3, r2
 4217 0060 FF22     		movs	r2, #255
 4218 0062 83F84220 		strb	r2, [r3, #66]
1666:u8glib_arm_v1.18.1\src/chessengine.c ****   
1667:u8glib_arm_v1.18.1\src/chessengine.c ****   /* update the global half move counter */
1668:u8glib_arm_v1.18.1\src/chessengine.c ****   lrc_obj.ply_count++;
 4219              		.loc 1 1668 0
 4220 0066 2D4B     		ldr	r3, .L258
 4221 0068 1B78     		ldrb	r3, [r3]	@ zero_extendqisi2
 4222 006a 0133     		adds	r3, r3, #1
 4223 006c DAB2     		uxtb	r2, r3
 4224 006e 2B4B     		ldr	r3, .L258
 4225 0070 1A70     		strb	r2, [r3]
1669:u8glib_arm_v1.18.1\src/chessengine.c **** 
1670:u8glib_arm_v1.18.1\src/chessengine.c **** 
1671:u8glib_arm_v1.18.1\src/chessengine.c ****   /* make a small check about the end of the game */
1672:u8glib_arm_v1.18.1\src/chessengine.c ****   /* use at least depth 1, because we must know if the king can still move */
1673:u8glib_arm_v1.18.1\src/chessengine.c ****   /* this is: King moves at level 0 and will be captured at level 1 */
1674:u8glib_arm_v1.18.1\src/chessengine.c ****   /* so we check if the king can move and will not be captured at search level 1 */
1675:u8glib_arm_v1.18.1\src/chessengine.c ****   
1676:u8glib_arm_v1.18.1\src/chessengine.c ****   stack_Init(1);
 4226              		.loc 1 1676 0
 4227 0072 0120     		movs	r0, #1
 4228 0074 FFF7FEFF 		bl	stack_Init
1677:u8glib_arm_v1.18.1\src/chessengine.c ****   ce_LoopPieces(); 
 4229              		.loc 1 1677 0
 4230 0078 FFF7FEFF 		bl	ce_LoopPieces
1678:u8glib_arm_v1.18.1\src/chessengine.c **** 
1679:u8glib_arm_v1.18.1\src/chessengine.c ****   /* printf("chess_ManualMove/analysis best_from_pos %02x -> best_to_pos %02x\n", stack_GetCurrElem
1680:u8glib_arm_v1.18.1\src/chessengine.c **** 
1681:u8glib_arm_v1.18.1\src/chessengine.c ****   /* analyse the eval result */
1682:u8glib_arm_v1.18.1\src/chessengine.c ****   
1683:u8glib_arm_v1.18.1\src/chessengine.c ****   /* check if the other player has any moves left */
1684:u8glib_arm_v1.18.1\src/chessengine.c ****   if ( stack_GetCurrElement()->best_from_pos == ILLEGAL_POSITION )
 4231              		.loc 1 1684 0
 4232 007c FFF7FEFF 		bl	stack_GetCurrElement
 4233 0080 0346     		mov	r3, r0
ARM GAS  C:\Users\KJA\AppData\Local\Temp\ccNNA7zi.s 			page 105


 4234 0082 DB78     		ldrb	r3, [r3, #3]	@ zero_extendqisi2
 4235 0084 FF2B     		cmp	r3, #255
 4236 0086 45D1     		bne	.L251
 4237              	.LBB3:
1685:u8glib_arm_v1.18.1\src/chessengine.c ****   {
1686:u8glib_arm_v1.18.1\src/chessengine.c ****     uint8_t color;
1687:u8glib_arm_v1.18.1\src/chessengine.c ****     /* conditions: */
1688:u8glib_arm_v1.18.1\src/chessengine.c ****     /* 1. no King, should never happen, opposite color has won */
1689:u8glib_arm_v1.18.1\src/chessengine.c ****     /*		this is already checked above at the beginning if this procedure */
1690:u8glib_arm_v1.18.1\src/chessengine.c ****     /* 2. King is under attack, opposite color has won */
1691:u8glib_arm_v1.18.1\src/chessengine.c ****     /* 3. King is not under attack, game is a draw */
1692:u8glib_arm_v1.18.1\src/chessengine.c **** 
1693:u8glib_arm_v1.18.1\src/chessengine.c ****     uint8_t i = 0;
 4238              		.loc 1 1693 0
 4239 0088 0023     		movs	r3, #0
 4240 008a FB73     		strb	r3, [r7, #15]
1694:u8glib_arm_v1.18.1\src/chessengine.c ****     color = lrc_obj.ply_count;
 4241              		.loc 1 1694 0
 4242 008c 234B     		ldr	r3, .L258
 4243 008e 1B78     		ldrb	r3, [r3]
 4244 0090 7B73     		strb	r3, [r7, #13]
1695:u8glib_arm_v1.18.1\src/chessengine.c ****     color &= 1;
 4245              		.loc 1 1695 0
 4246 0092 7B7B     		ldrb	r3, [r7, #13]
 4247 0094 03F00103 		and	r3, r3, #1
 4248 0098 7B73     		strb	r3, [r7, #13]
 4249              	.L257:
1696:u8glib_arm_v1.18.1\src/chessengine.c ****     do
1697:u8glib_arm_v1.18.1\src/chessengine.c ****     {
1698:u8glib_arm_v1.18.1\src/chessengine.c ****       cp = cp_GetFromBoard(i);
 4250              		.loc 1 1698 0
 4251 009a FB7B     		ldrb	r3, [r7, #15]	@ zero_extendqisi2
 4252 009c 1846     		mov	r0, r3
 4253 009e FFF7FEFF 		bl	cp_GetFromBoard
 4254 00a2 0346     		mov	r3, r0
 4255 00a4 BB73     		strb	r3, [r7, #14]
1699:u8glib_arm_v1.18.1\src/chessengine.c ****       /* look for the King */
1700:u8glib_arm_v1.18.1\src/chessengine.c ****       if ( cp_GetPiece(cp) == PIECE_KING )
 4256              		.loc 1 1700 0
 4257 00a6 BB7B     		ldrb	r3, [r7, #14]	@ zero_extendqisi2
 4258 00a8 1846     		mov	r0, r3
 4259 00aa FFF7FEFF 		bl	cp_GetPiece
 4260 00ae 0346     		mov	r3, r0
 4261 00b0 062B     		cmp	r3, #6
 4262 00b2 26D1     		bne	.L254
1701:u8glib_arm_v1.18.1\src/chessengine.c ****       {
1702:u8glib_arm_v1.18.1\src/chessengine.c **** 	if ( cp_GetColor(cp) == color )
 4263              		.loc 1 1702 0
 4264 00b4 BB7B     		ldrb	r3, [r7, #14]	@ zero_extendqisi2
 4265 00b6 1846     		mov	r0, r3
 4266 00b8 FFF7FEFF 		bl	cp_GetColor
 4267 00bc 0346     		mov	r3, r0
 4268 00be 1A46     		mov	r2, r3
 4269 00c0 7B7B     		ldrb	r3, [r7, #13]	@ zero_extendqisi2
 4270 00c2 9342     		cmp	r3, r2
 4271 00c4 1DD1     		bne	.L254
1703:u8glib_arm_v1.18.1\src/chessengine.c **** 	{
ARM GAS  C:\Users\KJA\AppData\Local\Temp\ccNNA7zi.s 			page 106


1704:u8glib_arm_v1.18.1\src/chessengine.c **** 	  /* check if  KING is attacked */
1705:u8glib_arm_v1.18.1\src/chessengine.c **** 	  if ( ce_GetPositionAttackCount(i, color^1) != 0 )
 4272              		.loc 1 1705 0
 4273 00c6 7B7B     		ldrb	r3, [r7, #13]
 4274 00c8 83F00103 		eor	r3, r3, #1
 4275 00cc DBB2     		uxtb	r3, r3
 4276 00ce FA7B     		ldrb	r2, [r7, #15]	@ zero_extendqisi2
 4277 00d0 1046     		mov	r0, r2
 4278 00d2 1946     		mov	r1, r3
 4279 00d4 FFF7FEFF 		bl	ce_GetPositionAttackCount
 4280 00d8 0346     		mov	r3, r0
 4281 00da 002B     		cmp	r3, #0
 4282 00dc 08D0     		beq	.L255
1706:u8glib_arm_v1.18.1\src/chessengine.c **** 	  {
1707:u8glib_arm_v1.18.1\src/chessengine.c **** 	    /* KING is under attack (check) and can not move: Game is lost */
1708:u8glib_arm_v1.18.1\src/chessengine.c **** 	    lrc_obj.is_game_end = 1;
 4283              		.loc 1 1708 0
 4284 00de 0F4B     		ldr	r3, .L258
 4285 00e0 0122     		movs	r2, #1
 4286 00e2 83F84720 		strb	r2, [r3, #71]
1709:u8glib_arm_v1.18.1\src/chessengine.c **** 	    lrc_obj.lost_side_color = color; 
 4287              		.loc 1 1709 0
 4288 00e6 0D4A     		ldr	r2, .L258
 4289 00e8 7B7B     		ldrb	r3, [r7, #13]
 4290 00ea 82F84830 		strb	r3, [r2, #72]
1710:u8glib_arm_v1.18.1\src/chessengine.c **** 	  }
1711:u8glib_arm_v1.18.1\src/chessengine.c **** 	  else
1712:u8glib_arm_v1.18.1\src/chessengine.c **** 	  {
1713:u8glib_arm_v1.18.1\src/chessengine.c **** 	    /* KING is NOT under attack (check) but can not move: Game is a draw */
1714:u8glib_arm_v1.18.1\src/chessengine.c **** 	    lrc_obj.is_game_end = 1;
1715:u8glib_arm_v1.18.1\src/chessengine.c **** 	    lrc_obj.lost_side_color = 2; 
1716:u8glib_arm_v1.18.1\src/chessengine.c **** 	  }
1717:u8glib_arm_v1.18.1\src/chessengine.c **** 	  /* break out of the loop */
1718:u8glib_arm_v1.18.1\src/chessengine.c **** 	  break;	  
 4291              		.loc 1 1718 0
 4292 00ee 11E0     		b	.L251
 4293              	.L255:
1714:u8glib_arm_v1.18.1\src/chessengine.c **** 	    lrc_obj.lost_side_color = 2; 
 4294              		.loc 1 1714 0
 4295 00f0 0A4B     		ldr	r3, .L258
 4296 00f2 0122     		movs	r2, #1
 4297 00f4 83F84720 		strb	r2, [r3, #71]
1715:u8glib_arm_v1.18.1\src/chessengine.c **** 	  }
 4298              		.loc 1 1715 0
 4299 00f8 084B     		ldr	r3, .L258
 4300 00fa 0222     		movs	r2, #2
 4301 00fc 83F84820 		strb	r2, [r3, #72]
 4302              		.loc 1 1718 0
 4303 0100 08E0     		b	.L251
 4304              	.L254:
1719:u8glib_arm_v1.18.1\src/chessengine.c **** 	}
1720:u8glib_arm_v1.18.1\src/chessengine.c ****       }
1721:u8glib_arm_v1.18.1\src/chessengine.c ****       i = cu_NextPos(i);
 4305              		.loc 1 1721 0
 4306 0102 FB7B     		ldrb	r3, [r7, #15]	@ zero_extendqisi2
 4307 0104 1846     		mov	r0, r3
 4308 0106 FFF7FEFF 		bl	cu_NextPos
ARM GAS  C:\Users\KJA\AppData\Local\Temp\ccNNA7zi.s 			page 107


 4309 010a 0346     		mov	r3, r0
 4310 010c FB73     		strb	r3, [r7, #15]
1722:u8glib_arm_v1.18.1\src/chessengine.c ****     } while( i != 0 );
 4311              		.loc 1 1722 0
 4312 010e FB7B     		ldrb	r3, [r7, #15]	@ zero_extendqisi2
 4313 0110 002B     		cmp	r3, #0
 4314 0112 C2D1     		bne	.L257
 4315              	.L251:
 4316              	.LBE3:
1723:u8glib_arm_v1.18.1\src/chessengine.c ****   }
1724:u8glib_arm_v1.18.1\src/chessengine.c **** }
 4317              		.loc 1 1724 0
 4318 0114 1037     		adds	r7, r7, #16
 4319              		.cfi_def_cfa_offset 8
 4320 0116 BD46     		mov	sp, r7
 4321              		.cfi_def_cfa_register 13
 4322              		@ sp needed
 4323 0118 80BD     		pop	{r7, pc}
 4324              	.L259:
 4325 011a 00BF     		.align	2
 4326              	.L258:
 4327 011c 00000000 		.word	lrc_obj
 4328              		.cfi_endproc
 4329              	.LFE46:
 4330              		.size	chess_ManualMove, .-chess_ManualMove
 4331              		.section	.text.chess_ComputerMove,"ax",%progbits
 4332              		.align	2
 4333              		.global	chess_ComputerMove
 4334              		.thumb
 4335              		.thumb_func
 4336              		.type	chess_ComputerMove, %function
 4337              	chess_ComputerMove:
 4338              	.LFB47:
1725:u8glib_arm_v1.18.1\src/chessengine.c **** 
1726:u8glib_arm_v1.18.1\src/chessengine.c **** /* let the computer do a move */
1727:u8glib_arm_v1.18.1\src/chessengine.c **** void chess_ComputerMove(uint8_t depth)
1728:u8glib_arm_v1.18.1\src/chessengine.c **** {
 4339              		.loc 1 1728 0
 4340              		.cfi_startproc
 4341              		@ args = 0, pretend = 0, frame = 8
 4342              		@ frame_needed = 1, uses_anonymous_args = 0
 4343 0000 90B5     		push	{r4, r7, lr}
 4344              		.cfi_def_cfa_offset 12
 4345              		.cfi_offset 4, -12
 4346              		.cfi_offset 7, -8
 4347              		.cfi_offset 14, -4
 4348 0002 83B0     		sub	sp, sp, #12
 4349              		.cfi_def_cfa_offset 24
 4350 0004 00AF     		add	r7, sp, #0
 4351              		.cfi_def_cfa_register 7
 4352 0006 0346     		mov	r3, r0
 4353 0008 FB71     		strb	r3, [r7, #7]
1729:u8glib_arm_v1.18.1\src/chessengine.c ****   stack_Init(depth);
 4354              		.loc 1 1729 0
 4355 000a FB79     		ldrb	r3, [r7, #7]	@ zero_extendqisi2
 4356 000c 1846     		mov	r0, r3
 4357 000e FFF7FEFF 		bl	stack_Init
ARM GAS  C:\Users\KJA\AppData\Local\Temp\ccNNA7zi.s 			page 108


1730:u8glib_arm_v1.18.1\src/chessengine.c ****   
1731:u8glib_arm_v1.18.1\src/chessengine.c ****   //stack_GetCurrElement()->current_color = lrc_obj.ply_count;
1732:u8glib_arm_v1.18.1\src/chessengine.c ****   //stack_GetCurrElement()->current_color &= 1;
1733:u8glib_arm_v1.18.1\src/chessengine.c ****   
1734:u8glib_arm_v1.18.1\src/chessengine.c ****   cu_ReduceHistoryByFullMove();
 4358              		.loc 1 1734 0
 4359 0012 FFF7FEFF 		bl	cu_ReduceHistoryByFullMove
1735:u8glib_arm_v1.18.1\src/chessengine.c ****   ce_LoopPieces();
 4360              		.loc 1 1735 0
 4361 0016 FFF7FEFF 		bl	ce_LoopPieces
1736:u8glib_arm_v1.18.1\src/chessengine.c **** 
1737:u8glib_arm_v1.18.1\src/chessengine.c ****   chess_ManualMove(stack_GetCurrElement()->best_from_pos, stack_GetCurrElement()->best_to_pos);
 4362              		.loc 1 1737 0
 4363 001a FFF7FEFF 		bl	stack_GetCurrElement
 4364 001e 0346     		mov	r3, r0
 4365 0020 DC78     		ldrb	r4, [r3, #3]	@ zero_extendqisi2
 4366 0022 FFF7FEFF 		bl	stack_GetCurrElement
 4367 0026 0346     		mov	r3, r0
 4368 0028 1B79     		ldrb	r3, [r3, #4]	@ zero_extendqisi2
 4369 002a 2046     		mov	r0, r4
 4370 002c 1946     		mov	r1, r3
 4371 002e FFF7FEFF 		bl	chess_ManualMove
1738:u8glib_arm_v1.18.1\src/chessengine.c **** }
 4372              		.loc 1 1738 0
 4373 0032 0C37     		adds	r7, r7, #12
 4374              		.cfi_def_cfa_offset 12
 4375 0034 BD46     		mov	sp, r7
 4376              		.cfi_def_cfa_register 13
 4377              		@ sp needed
 4378 0036 90BD     		pop	{r4, r7, pc}
 4379              		.cfi_endproc
 4380              	.LFE47:
 4381              		.size	chess_ComputerMove, .-chess_ComputerMove
 4382              		.global	mnu_title
 4383              		.section	.rodata
 4384 0025 000000   		.align	2
 4385              	.LC0:
 4386 0028 4C697474 		.ascii	"Little Rook Chess\000"
 4386      6C652052 
 4386      6F6F6B20 
 4386      43686573 
 4386      7300
 4387              		.data
 4388 0016 0000     		.align	2
 4389              		.type	mnu_title, %object
 4390              		.size	mnu_title, 4
 4391              	mnu_title:
 4392 0018 28000000 		.word	.LC0
 4393              		.global	mnu_list
 4394              		.section	.rodata
 4395 003a 0000     		.align	2
 4396              	.LC1:
 4397 003c 4E657720 		.ascii	"New Game (White)\000"
 4397      47616D65 
 4397      20285768 
 4397      69746529 
 4397      00
ARM GAS  C:\Users\KJA\AppData\Local\Temp\ccNNA7zi.s 			page 109


 4398 004d 000000   		.align	2
 4399              	.LC2:
 4400 0050 4E657720 		.ascii	"New Game (Black)\000"
 4400      47616D65 
 4400      2028426C 
 4400      61636B29 
 4400      00
 4401 0061 000000   		.align	2
 4402              	.LC3:
 4403 0064 556E646F 		.ascii	"Undo Move\000"
 4403      204D6F76 
 4403      6500
 4404 006e 0000     		.align	2
 4405              	.LC4:
 4406 0070 52657475 		.ascii	"Return\000"
 4406      726E00
 4407              		.data
 4408              		.align	2
 4409              		.type	mnu_list, %object
 4410              		.size	mnu_list, 16
 4411              	mnu_list:
 4412 001c 3C000000 		.word	.LC1
 4413 0020 50000000 		.word	.LC2
 4414 0024 64000000 		.word	.LC3
 4415 0028 70000000 		.word	.LC4
 4416              		.global	mnu_pos
 4417              		.bss
 4418              		.type	mnu_pos, %object
 4419              		.size	mnu_pos, 1
 4420              	mnu_pos:
 4421 0000 00       		.space	1
 4422              		.global	mnu_max
 4423              		.data
 4424              		.type	mnu_max, %object
 4425              		.size	mnu_max, 1
 4426              	mnu_max:
 4427 002c 04       		.byte	4
 4428              		.section	.rodata
 4429 0077 00       		.align	2
 4430              	.LC5:
 4431 0078 4F707469 		.ascii	"Options\000"
 4431      6F6E7300 
 4432              		.section	.text.mnu_DrawHome,"ax",%progbits
 4433              		.align	2
 4434              		.global	mnu_DrawHome
 4435              		.thumb
 4436              		.thumb_func
 4437              		.type	mnu_DrawHome, %function
 4438              	mnu_DrawHome:
 4439              	.LFB48:
1739:u8glib_arm_v1.18.1\src/chessengine.c **** 
1740:u8glib_arm_v1.18.1\src/chessengine.c **** 
1741:u8glib_arm_v1.18.1\src/chessengine.c **** /*==============================================================*/
1742:u8glib_arm_v1.18.1\src/chessengine.c **** /* unix code */
1743:u8glib_arm_v1.18.1\src/chessengine.c **** /*==============================================================*/
1744:u8glib_arm_v1.18.1\src/chessengine.c **** 
1745:u8glib_arm_v1.18.1\src/chessengine.c **** #ifdef UNIX_MAIN
ARM GAS  C:\Users\KJA\AppData\Local\Temp\ccNNA7zi.s 			page 110


1746:u8glib_arm_v1.18.1\src/chessengine.c **** 
1747:u8glib_arm_v1.18.1\src/chessengine.c **** #include <stdio.h>
1748:u8glib_arm_v1.18.1\src/chessengine.c **** #include <string.h>
1749:u8glib_arm_v1.18.1\src/chessengine.c **** 
1750:u8glib_arm_v1.18.1\src/chessengine.c **** char *piece_str[] = {
1751:u8glib_arm_v1.18.1\src/chessengine.c ****   /* 0x00 */
1752:u8glib_arm_v1.18.1\src/chessengine.c ****   "  ", 
1753:u8glib_arm_v1.18.1\src/chessengine.c ****   "wP", 
1754:u8glib_arm_v1.18.1\src/chessengine.c ****   "wN", 
1755:u8glib_arm_v1.18.1\src/chessengine.c ****   "wB", 
1756:u8glib_arm_v1.18.1\src/chessengine.c ****   
1757:u8glib_arm_v1.18.1\src/chessengine.c ****   /* 0x04 */
1758:u8glib_arm_v1.18.1\src/chessengine.c ****   "wR", 
1759:u8glib_arm_v1.18.1\src/chessengine.c ****   "wQ", 
1760:u8glib_arm_v1.18.1\src/chessengine.c ****   "wK", 
1761:u8glib_arm_v1.18.1\src/chessengine.c ****   "w?", 
1762:u8glib_arm_v1.18.1\src/chessengine.c **** 
1763:u8glib_arm_v1.18.1\src/chessengine.c ****   /* 0x08 */
1764:u8glib_arm_v1.18.1\src/chessengine.c ****   "w?", 
1765:u8glib_arm_v1.18.1\src/chessengine.c ****   "w?", 
1766:u8glib_arm_v1.18.1\src/chessengine.c ****   "w?", 
1767:u8glib_arm_v1.18.1\src/chessengine.c ****   "w?", 
1768:u8glib_arm_v1.18.1\src/chessengine.c ****   
1769:u8glib_arm_v1.18.1\src/chessengine.c ****   /* 0x0c */
1770:u8glib_arm_v1.18.1\src/chessengine.c ****   "w?", 
1771:u8glib_arm_v1.18.1\src/chessengine.c ****   "w?", 
1772:u8glib_arm_v1.18.1\src/chessengine.c ****   "w?", 
1773:u8glib_arm_v1.18.1\src/chessengine.c ****   "w?", 
1774:u8glib_arm_v1.18.1\src/chessengine.c **** 
1775:u8glib_arm_v1.18.1\src/chessengine.c ****   /* 0x10 */
1776:u8glib_arm_v1.18.1\src/chessengine.c ****   "b ",
1777:u8glib_arm_v1.18.1\src/chessengine.c ****   "bP", 
1778:u8glib_arm_v1.18.1\src/chessengine.c ****   "bN", 
1779:u8glib_arm_v1.18.1\src/chessengine.c ****   "bB", 
1780:u8glib_arm_v1.18.1\src/chessengine.c ****   "bR", 
1781:u8glib_arm_v1.18.1\src/chessengine.c ****   "bQ", 
1782:u8glib_arm_v1.18.1\src/chessengine.c ****   "bK", 
1783:u8glib_arm_v1.18.1\src/chessengine.c ****   "b?", 
1784:u8glib_arm_v1.18.1\src/chessengine.c **** 
1785:u8glib_arm_v1.18.1\src/chessengine.c ****   "b?", 
1786:u8glib_arm_v1.18.1\src/chessengine.c ****   "b?", 
1787:u8glib_arm_v1.18.1\src/chessengine.c ****   "b?", 
1788:u8glib_arm_v1.18.1\src/chessengine.c ****   "b?", 
1789:u8glib_arm_v1.18.1\src/chessengine.c ****   "b?", 
1790:u8glib_arm_v1.18.1\src/chessengine.c ****   "b?", 
1791:u8glib_arm_v1.18.1\src/chessengine.c ****   "b?", 
1792:u8glib_arm_v1.18.1\src/chessengine.c ****   "b?"
1793:u8glib_arm_v1.18.1\src/chessengine.c **** };
1794:u8glib_arm_v1.18.1\src/chessengine.c **** 
1795:u8glib_arm_v1.18.1\src/chessengine.c **** void chess_Thinking(void)
1796:u8glib_arm_v1.18.1\src/chessengine.c **** {
1797:u8glib_arm_v1.18.1\src/chessengine.c ****   uint8_t i;
1798:u8glib_arm_v1.18.1\src/chessengine.c ****   uint8_t cp = cp_GetPiece(stack_GetCurrElement()->current_cp);
1799:u8glib_arm_v1.18.1\src/chessengine.c ****   
1800:u8glib_arm_v1.18.1\src/chessengine.c ****   printf("Thinking:  ", piece_str[cp], stack_GetCurrElement()->current_pos);
1801:u8glib_arm_v1.18.1\src/chessengine.c ****   
1802:u8glib_arm_v1.18.1\src/chessengine.c ****   for( i = 0; i <= lrc_obj.curr_depth; i++ )
ARM GAS  C:\Users\KJA\AppData\Local\Temp\ccNNA7zi.s 			page 111


1803:u8glib_arm_v1.18.1\src/chessengine.c ****     printf("%s ", piece_str[(lrc_obj.stack_memory+i)->current_cp]);
1804:u8glib_arm_v1.18.1\src/chessengine.c ****   
1805:u8glib_arm_v1.18.1\src/chessengine.c ****   printf("    \r");
1806:u8glib_arm_v1.18.1\src/chessengine.c **** }
1807:u8glib_arm_v1.18.1\src/chessengine.c **** 
1808:u8glib_arm_v1.18.1\src/chessengine.c **** void board_Show(void)
1809:u8glib_arm_v1.18.1\src/chessengine.c **** {
1810:u8glib_arm_v1.18.1\src/chessengine.c ****   uint8_t i, j, cp;
1811:u8glib_arm_v1.18.1\src/chessengine.c ****   char buf[10];
1812:u8glib_arm_v1.18.1\src/chessengine.c ****   for ( i = 0; i < 8; i++ )
1813:u8glib_arm_v1.18.1\src/chessengine.c ****   {
1814:u8glib_arm_v1.18.1\src/chessengine.c ****     printf("%1d ", 7-i);
1815:u8glib_arm_v1.18.1\src/chessengine.c ****     for ( j = 0; j < 8; j++ )
1816:u8glib_arm_v1.18.1\src/chessengine.c ****     {
1817:u8glib_arm_v1.18.1\src/chessengine.c ****       /* get piece from global board */
1818:u8glib_arm_v1.18.1\src/chessengine.c ****       cp = lrc_obj.board[(7-i)*8+j];
1819:u8glib_arm_v1.18.1\src/chessengine.c ****       strcpy(buf, piece_str[cp&COLOR_PIECE_MASK]);
1820:u8glib_arm_v1.18.1\src/chessengine.c ****       
1821:u8glib_arm_v1.18.1\src/chessengine.c ****       if ( (cp & CP_MARK_MASK) != 0 )
1822:u8glib_arm_v1.18.1\src/chessengine.c ****       {
1823:u8glib_arm_v1.18.1\src/chessengine.c **** 	buf[0] = '#';
1824:u8glib_arm_v1.18.1\src/chessengine.c ****       }
1825:u8glib_arm_v1.18.1\src/chessengine.c ****       
1826:u8glib_arm_v1.18.1\src/chessengine.c ****       /* mask out any bits except color and piece index */
1827:u8glib_arm_v1.18.1\src/chessengine.c ****       cp &= COLOR_PIECE_MASK;
1828:u8glib_arm_v1.18.1\src/chessengine.c ****       printf("%s %02x ", buf, cp);
1829:u8glib_arm_v1.18.1\src/chessengine.c ****       
1830:u8glib_arm_v1.18.1\src/chessengine.c ****     }
1831:u8glib_arm_v1.18.1\src/chessengine.c ****     printf("\n");
1832:u8glib_arm_v1.18.1\src/chessengine.c ****   }
1833:u8glib_arm_v1.18.1\src/chessengine.c **** }
1834:u8glib_arm_v1.18.1\src/chessengine.c **** 
1835:u8glib_arm_v1.18.1\src/chessengine.c **** int main(void)
1836:u8glib_arm_v1.18.1\src/chessengine.c **** {
1837:u8glib_arm_v1.18.1\src/chessengine.c ****   uint8_t depth = 3;
1838:u8glib_arm_v1.18.1\src/chessengine.c ****   chess_SetupBoard();
1839:u8glib_arm_v1.18.1\src/chessengine.c ****   board_Show();
1840:u8glib_arm_v1.18.1\src/chessengine.c ****   puts("");
1841:u8glib_arm_v1.18.1\src/chessengine.c ****     
1842:u8glib_arm_v1.18.1\src/chessengine.c ****  
1843:u8glib_arm_v1.18.1\src/chessengine.c ****  /* 
1844:u8glib_arm_v1.18.1\src/chessengine.c ****   chess_ClearMarks();
1845:u8glib_arm_v1.18.1\src/chessengine.c ****   chess_MarkMovable(COLOR_WHITE);
1846:u8glib_arm_v1.18.1\src/chessengine.c ****   board_Show();
1847:u8glib_arm_v1.18.1\src/chessengine.c ****   */
1848:u8glib_arm_v1.18.1\src/chessengine.c ****   
1849:u8glib_arm_v1.18.1\src/chessengine.c ****   chess_ManualMove(0x006, 0x066);
1850:u8glib_arm_v1.18.1\src/chessengine.c ****   
1851:u8glib_arm_v1.18.1\src/chessengine.c ****   printf("lrc_obj.is_game_end: %d\n" , lrc_obj.is_game_end);
1852:u8glib_arm_v1.18.1\src/chessengine.c ****   printf("lrc_obj.lost_side_color: %d\n" , lrc_obj.lost_side_color);
1853:u8glib_arm_v1.18.1\src/chessengine.c **** 
1854:u8glib_arm_v1.18.1\src/chessengine.c ****   chess_ComputerMove(2);
1855:u8glib_arm_v1.18.1\src/chessengine.c **** 
1856:u8glib_arm_v1.18.1\src/chessengine.c ****   printf("lrc_obj.is_game_end: %d\n" , lrc_obj.is_game_end);
1857:u8glib_arm_v1.18.1\src/chessengine.c ****   printf("lrc_obj.lost_side_color: %d\n" , lrc_obj.lost_side_color);
1858:u8glib_arm_v1.18.1\src/chessengine.c ****   
1859:u8glib_arm_v1.18.1\src/chessengine.c ****   board_Show();
ARM GAS  C:\Users\KJA\AppData\Local\Temp\ccNNA7zi.s 			page 112


1860:u8glib_arm_v1.18.1\src/chessengine.c **** 
1861:u8glib_arm_v1.18.1\src/chessengine.c **** }
1862:u8glib_arm_v1.18.1\src/chessengine.c **** 
1863:u8glib_arm_v1.18.1\src/chessengine.c **** 
1864:u8glib_arm_v1.18.1\src/chessengine.c **** 
1865:u8glib_arm_v1.18.1\src/chessengine.c **** #else
1866:u8glib_arm_v1.18.1\src/chessengine.c **** 
1867:u8glib_arm_v1.18.1\src/chessengine.c **** /*==============================================================*/
1868:u8glib_arm_v1.18.1\src/chessengine.c **** /* display menu */
1869:u8glib_arm_v1.18.1\src/chessengine.c **** /*==============================================================*/
1870:u8glib_arm_v1.18.1\src/chessengine.c **** 
1871:u8glib_arm_v1.18.1\src/chessengine.c **** //#define MNU_FONT font_5x7
1872:u8glib_arm_v1.18.1\src/chessengine.c **** #define MNU_FONT u8g_font_5x8r
1873:u8glib_arm_v1.18.1\src/chessengine.c **** //#define MNU_FONT font_6x9
1874:u8glib_arm_v1.18.1\src/chessengine.c **** #define MNU_ENTRY_HEIGHT 9
1875:u8glib_arm_v1.18.1\src/chessengine.c **** 
1876:u8glib_arm_v1.18.1\src/chessengine.c **** char *mnu_title = "Little Rook Chess";
1877:u8glib_arm_v1.18.1\src/chessengine.c **** char *mnu_list[] = { "New Game (White)", "New Game (Black)", "Undo Move", "Return" };
1878:u8glib_arm_v1.18.1\src/chessengine.c **** uint8_t mnu_pos = 0;
1879:u8glib_arm_v1.18.1\src/chessengine.c **** uint8_t mnu_max = 4;
1880:u8glib_arm_v1.18.1\src/chessengine.c **** 
1881:u8glib_arm_v1.18.1\src/chessengine.c **** void mnu_DrawHome(uint8_t is_highlight)
1882:u8glib_arm_v1.18.1\src/chessengine.c **** {
 4440              		.loc 1 1882 0
 4441              		.cfi_startproc
 4442              		@ args = 0, pretend = 0, frame = 16
 4443              		@ frame_needed = 1, uses_anonymous_args = 0
 4444 0000 90B5     		push	{r4, r7, lr}
 4445              		.cfi_def_cfa_offset 12
 4446              		.cfi_offset 4, -12
 4447              		.cfi_offset 7, -8
 4448              		.cfi_offset 14, -4
 4449 0002 87B0     		sub	sp, sp, #28
 4450              		.cfi_def_cfa_offset 40
 4451 0004 02AF     		add	r7, sp, #8
 4452              		.cfi_def_cfa 7, 32
 4453 0006 0346     		mov	r3, r0
 4454 0008 FB71     		strb	r3, [r7, #7]
1883:u8glib_arm_v1.18.1\src/chessengine.c ****   uint8_t x = lrc_u8g->width - 35;  
 4455              		.loc 1 1883 0
 4456 000a 1B4B     		ldr	r3, .L263
 4457 000c 1B68     		ldr	r3, [r3]
 4458 000e 1B78     		ldrb	r3, [r3]	@ zero_extendqisi2
 4459 0010 233B     		subs	r3, r3, #35
 4460 0012 FB73     		strb	r3, [r7, #15]
1884:u8glib_arm_v1.18.1\src/chessengine.c ****   uint8_t y = (lrc_u8g->height-1);
 4461              		.loc 1 1884 0
 4462 0014 184B     		ldr	r3, .L263
 4463 0016 1B68     		ldr	r3, [r3]
 4464 0018 5B78     		ldrb	r3, [r3, #1]	@ zero_extendqisi2
 4465 001a 013B     		subs	r3, r3, #1
 4466 001c BB73     		strb	r3, [r7, #14]
1885:u8glib_arm_v1.18.1\src/chessengine.c ****   uint8_t t;
1886:u8glib_arm_v1.18.1\src/chessengine.c ****   
1887:u8glib_arm_v1.18.1\src/chessengine.c ****   u8g_SetFont(lrc_u8g, u8g_font_5x7r);
 4467              		.loc 1 1887 0
 4468 001e 164B     		ldr	r3, .L263
ARM GAS  C:\Users\KJA\AppData\Local\Temp\ccNNA7zi.s 			page 113


 4469 0020 1B68     		ldr	r3, [r3]
 4470 0022 1846     		mov	r0, r3
 4471 0024 1549     		ldr	r1, .L263+4
 4472 0026 FFF7FEFF 		bl	u8g_SetFont
1888:u8glib_arm_v1.18.1\src/chessengine.c ****   u8g_SetDefaultForegroundColor(lrc_u8g);
 4473              		.loc 1 1888 0
 4474 002a 134B     		ldr	r3, .L263
 4475 002c 1B68     		ldr	r3, [r3]
 4476 002e 1846     		mov	r0, r3
 4477 0030 FFF7FEFF 		bl	u8g_SetDefaultForegroundColor
1889:u8glib_arm_v1.18.1\src/chessengine.c ****   t = u8g_DrawStrP(lrc_u8g, x, y -1, U8G_PSTR("Options"));
 4478              		.loc 1 1889 0
 4479 0034 104B     		ldr	r3, .L263
 4480 0036 1968     		ldr	r1, [r3]
 4481 0038 BB7B     		ldrb	r3, [r7, #14]
 4482 003a 013B     		subs	r3, r3, #1
 4483 003c DBB2     		uxtb	r3, r3
 4484 003e FA7B     		ldrb	r2, [r7, #15]	@ zero_extendqisi2
 4485 0040 0846     		mov	r0, r1
 4486 0042 1146     		mov	r1, r2
 4487 0044 1A46     		mov	r2, r3
 4488 0046 0E4B     		ldr	r3, .L263+8
 4489 0048 FFF7FEFF 		bl	u8g_DrawStrP
 4490 004c 0346     		mov	r3, r0
 4491 004e 7B73     		strb	r3, [r7, #13]
1890:u8glib_arm_v1.18.1\src/chessengine.c ****     
1891:u8glib_arm_v1.18.1\src/chessengine.c ****   if ( is_highlight )
 4492              		.loc 1 1891 0
 4493 0050 FB79     		ldrb	r3, [r7, #7]	@ zero_extendqisi2
 4494 0052 002B     		cmp	r3, #0
 4495 0054 0DD0     		beq	.L261
1892:u8glib_arm_v1.18.1\src/chessengine.c ****     u8g_DrawFrame(lrc_u8g, x-1, y - MNU_ENTRY_HEIGHT +1, t, MNU_ENTRY_HEIGHT);  
 4496              		.loc 1 1892 0
 4497 0056 084B     		ldr	r3, .L263
 4498 0058 1868     		ldr	r0, [r3]
 4499 005a FB7B     		ldrb	r3, [r7, #15]
 4500 005c 013B     		subs	r3, r3, #1
 4501 005e D9B2     		uxtb	r1, r3
 4502 0060 BB7B     		ldrb	r3, [r7, #14]
 4503 0062 083B     		subs	r3, r3, #8
 4504 0064 DAB2     		uxtb	r2, r3
 4505 0066 7C7B     		ldrb	r4, [r7, #13]	@ zero_extendqisi2
 4506 0068 0923     		movs	r3, #9
 4507 006a 0093     		str	r3, [sp]
 4508 006c 2346     		mov	r3, r4
 4509 006e FFF7FEFF 		bl	u8g_DrawFrame
 4510              	.L261:
1893:u8glib_arm_v1.18.1\src/chessengine.c **** }
 4511              		.loc 1 1893 0
 4512 0072 1437     		adds	r7, r7, #20
 4513              		.cfi_def_cfa_offset 12
 4514 0074 BD46     		mov	sp, r7
 4515              		.cfi_def_cfa_register 13
 4516              		@ sp needed
 4517 0076 90BD     		pop	{r4, r7, pc}
 4518              	.L264:
 4519              		.align	2
ARM GAS  C:\Users\KJA\AppData\Local\Temp\ccNNA7zi.s 			page 114


 4520              	.L263:
 4521 0078 00000000 		.word	lrc_u8g
 4522 007c 00000000 		.word	u8g_font_5x7r
 4523 0080 78000000 		.word	.LC5
 4524              		.cfi_endproc
 4525              	.LFE48:
 4526              		.size	mnu_DrawHome, .-mnu_DrawHome
 4527              		.section	.text.mnu_DrawEntry,"ax",%progbits
 4528              		.align	2
 4529              		.global	mnu_DrawEntry
 4530              		.thumb
 4531              		.thumb_func
 4532              		.type	mnu_DrawEntry, %function
 4533              	mnu_DrawEntry:
 4534              	.LFB49:
1894:u8glib_arm_v1.18.1\src/chessengine.c **** 
1895:u8glib_arm_v1.18.1\src/chessengine.c **** void mnu_DrawEntry(uint8_t y, char *str, uint8_t is_clr_background, uint8_t is_highlight)
1896:u8glib_arm_v1.18.1\src/chessengine.c **** {
 4535              		.loc 1 1896 0
 4536              		.cfi_startproc
 4537              		@ args = 0, pretend = 0, frame = 16
 4538              		@ frame_needed = 1, uses_anonymous_args = 0
 4539 0000 90B5     		push	{r4, r7, lr}
 4540              		.cfi_def_cfa_offset 12
 4541              		.cfi_offset 4, -12
 4542              		.cfi_offset 7, -8
 4543              		.cfi_offset 14, -4
 4544 0002 87B0     		sub	sp, sp, #28
 4545              		.cfi_def_cfa_offset 40
 4546 0004 02AF     		add	r7, sp, #8
 4547              		.cfi_def_cfa 7, 32
 4548 0006 3960     		str	r1, [r7]
 4549 0008 1146     		mov	r1, r2
 4550 000a 1A46     		mov	r2, r3
 4551 000c 0346     		mov	r3, r0
 4552 000e FB71     		strb	r3, [r7, #7]
 4553 0010 0B46     		mov	r3, r1
 4554 0012 BB71     		strb	r3, [r7, #6]
 4555 0014 1346     		mov	r3, r2
 4556 0016 7B71     		strb	r3, [r7, #5]
1897:u8glib_arm_v1.18.1\src/chessengine.c ****   uint8_t t, x;
1898:u8glib_arm_v1.18.1\src/chessengine.c ****   u8g_SetFont(lrc_u8g, MNU_FONT);
 4557              		.loc 1 1898 0
 4558 0018 324B     		ldr	r3, .L268
 4559 001a 1B68     		ldr	r3, [r3]
 4560 001c 1846     		mov	r0, r3
 4561 001e 3249     		ldr	r1, .L268+4
 4562 0020 FFF7FEFF 		bl	u8g_SetFont
1899:u8glib_arm_v1.18.1\src/chessengine.c ****   t = u8g_GetStrWidth(lrc_u8g, str);
 4563              		.loc 1 1899 0
 4564 0024 2F4B     		ldr	r3, .L268
 4565 0026 1B68     		ldr	r3, [r3]
 4566 0028 1846     		mov	r0, r3
 4567 002a 3968     		ldr	r1, [r7]
 4568 002c FFF7FEFF 		bl	u8g_GetStrWidth
 4569 0030 0346     		mov	r3, r0
 4570 0032 FB73     		strb	r3, [r7, #15]
ARM GAS  C:\Users\KJA\AppData\Local\Temp\ccNNA7zi.s 			page 115


1900:u8glib_arm_v1.18.1\src/chessengine.c ****   x = u8g_GetWidth(lrc_u8g);
 4571              		.loc 1 1900 0
 4572 0034 2B4B     		ldr	r3, .L268
 4573 0036 1B68     		ldr	r3, [r3]
 4574 0038 1B78     		ldrb	r3, [r3]
 4575 003a BB73     		strb	r3, [r7, #14]
1901:u8glib_arm_v1.18.1\src/chessengine.c ****   x -= t;
 4576              		.loc 1 1901 0
 4577 003c BA7B     		ldrb	r2, [r7, #14]
 4578 003e FB7B     		ldrb	r3, [r7, #15]
 4579 0040 D31A     		subs	r3, r2, r3
 4580 0042 BB73     		strb	r3, [r7, #14]
1902:u8glib_arm_v1.18.1\src/chessengine.c ****   x >>= 1;
 4581              		.loc 1 1902 0
 4582 0044 BB7B     		ldrb	r3, [r7, #14]	@ zero_extendqisi2
 4583 0046 5B08     		lsrs	r3, r3, #1
 4584 0048 BB73     		strb	r3, [r7, #14]
1903:u8glib_arm_v1.18.1\src/chessengine.c ****   
1904:u8glib_arm_v1.18.1\src/chessengine.c ****   if ( is_clr_background )
 4585              		.loc 1 1904 0
 4586 004a BB79     		ldrb	r3, [r7, #6]	@ zero_extendqisi2
 4587 004c 002B     		cmp	r3, #0
 4588 004e 19D0     		beq	.L266
1905:u8glib_arm_v1.18.1\src/chessengine.c ****   {
1906:u8glib_arm_v1.18.1\src/chessengine.c ****     u8g_SetDefaultBackgroundColor(lrc_u8g);
 4589              		.loc 1 1906 0
 4590 0050 244B     		ldr	r3, .L268
 4591 0052 1B68     		ldr	r3, [r3]
 4592 0054 1846     		mov	r0, r3
 4593 0056 FFF7FEFF 		bl	u8g_SetDefaultBackgroundColor
1907:u8glib_arm_v1.18.1\src/chessengine.c ****     u8g_DrawBox(lrc_u8g, x-3, (lrc_u8g->height-1) - (y+MNU_ENTRY_HEIGHT-1+2), t+5, MNU_ENTRY_HEIGHT
 4594              		.loc 1 1907 0
 4595 005a 224B     		ldr	r3, .L268
 4596 005c 1868     		ldr	r0, [r3]
 4597 005e BB7B     		ldrb	r3, [r7, #14]
 4598 0060 033B     		subs	r3, r3, #3
 4599 0062 D9B2     		uxtb	r1, r3
 4600 0064 1F4B     		ldr	r3, .L268
 4601 0066 1B68     		ldr	r3, [r3]
 4602 0068 5A78     		ldrb	r2, [r3, #1]	@ zero_extendqisi2
 4603 006a FB79     		ldrb	r3, [r7, #7]
 4604 006c D31A     		subs	r3, r2, r3
 4605 006e DBB2     		uxtb	r3, r3
 4606 0070 0B3B     		subs	r3, r3, #11
 4607 0072 DAB2     		uxtb	r2, r3
 4608 0074 FB7B     		ldrb	r3, [r7, #15]
 4609 0076 0533     		adds	r3, r3, #5
 4610 0078 DCB2     		uxtb	r4, r3
 4611 007a 0D23     		movs	r3, #13
 4612 007c 0093     		str	r3, [sp]
 4613 007e 2346     		mov	r3, r4
 4614 0080 FFF7FEFF 		bl	u8g_DrawBox
 4615              	.L266:
1908:u8glib_arm_v1.18.1\src/chessengine.c ****   }
1909:u8glib_arm_v1.18.1\src/chessengine.c ****   
1910:u8glib_arm_v1.18.1\src/chessengine.c ****   u8g_SetDefaultForegroundColor(lrc_u8g);
 4616              		.loc 1 1910 0
ARM GAS  C:\Users\KJA\AppData\Local\Temp\ccNNA7zi.s 			page 116


 4617 0084 174B     		ldr	r3, .L268
 4618 0086 1B68     		ldr	r3, [r3]
 4619 0088 1846     		mov	r0, r3
 4620 008a FFF7FEFF 		bl	u8g_SetDefaultForegroundColor
1911:u8glib_arm_v1.18.1\src/chessengine.c ****   u8g_DrawStr(lrc_u8g, x, (lrc_u8g->height-1) - y, str);
 4621              		.loc 1 1911 0
 4622 008e 154B     		ldr	r3, .L268
 4623 0090 1968     		ldr	r1, [r3]
 4624 0092 144B     		ldr	r3, .L268
 4625 0094 1B68     		ldr	r3, [r3]
 4626 0096 5A78     		ldrb	r2, [r3, #1]	@ zero_extendqisi2
 4627 0098 FB79     		ldrb	r3, [r7, #7]
 4628 009a D31A     		subs	r3, r2, r3
 4629 009c DBB2     		uxtb	r3, r3
 4630 009e 013B     		subs	r3, r3, #1
 4631 00a0 DBB2     		uxtb	r3, r3
 4632 00a2 BA7B     		ldrb	r2, [r7, #14]	@ zero_extendqisi2
 4633 00a4 0846     		mov	r0, r1
 4634 00a6 1146     		mov	r1, r2
 4635 00a8 1A46     		mov	r2, r3
 4636 00aa 3B68     		ldr	r3, [r7]
 4637 00ac FFF7FEFF 		bl	u8g_DrawStr
1912:u8glib_arm_v1.18.1\src/chessengine.c ****   
1913:u8glib_arm_v1.18.1\src/chessengine.c ****   if ( is_highlight )
 4638              		.loc 1 1913 0
 4639 00b0 7B79     		ldrb	r3, [r7, #5]	@ zero_extendqisi2
 4640 00b2 002B     		cmp	r3, #0
 4641 00b4 12D0     		beq	.L265
1914:u8glib_arm_v1.18.1\src/chessengine.c ****   {
1915:u8glib_arm_v1.18.1\src/chessengine.c ****     u8g_DrawFrame(lrc_u8g, x-1, (lrc_u8g->height-1) - y -MNU_ENTRY_HEIGHT +1, t, MNU_ENTRY_HEIGHT);
 4642              		.loc 1 1915 0
 4643 00b6 0B4B     		ldr	r3, .L268
 4644 00b8 1868     		ldr	r0, [r3]
 4645 00ba BB7B     		ldrb	r3, [r7, #14]
 4646 00bc 013B     		subs	r3, r3, #1
 4647 00be D9B2     		uxtb	r1, r3
 4648 00c0 084B     		ldr	r3, .L268
 4649 00c2 1B68     		ldr	r3, [r3]
 4650 00c4 5A78     		ldrb	r2, [r3, #1]	@ zero_extendqisi2
 4651 00c6 FB79     		ldrb	r3, [r7, #7]
 4652 00c8 D31A     		subs	r3, r2, r3
 4653 00ca DBB2     		uxtb	r3, r3
 4654 00cc 093B     		subs	r3, r3, #9
 4655 00ce DAB2     		uxtb	r2, r3
 4656 00d0 FC7B     		ldrb	r4, [r7, #15]	@ zero_extendqisi2
 4657 00d2 0923     		movs	r3, #9
 4658 00d4 0093     		str	r3, [sp]
 4659 00d6 2346     		mov	r3, r4
 4660 00d8 FFF7FEFF 		bl	u8g_DrawFrame
 4661              	.L265:
1916:u8glib_arm_v1.18.1\src/chessengine.c ****   }
1917:u8glib_arm_v1.18.1\src/chessengine.c **** }
 4662              		.loc 1 1917 0
 4663 00dc 1437     		adds	r7, r7, #20
 4664              		.cfi_def_cfa_offset 12
 4665 00de BD46     		mov	sp, r7
 4666              		.cfi_def_cfa_register 13
ARM GAS  C:\Users\KJA\AppData\Local\Temp\ccNNA7zi.s 			page 117


 4667              		@ sp needed
 4668 00e0 90BD     		pop	{r4, r7, pc}
 4669              	.L269:
 4670 00e2 00BF     		.align	2
 4671              	.L268:
 4672 00e4 00000000 		.word	lrc_u8g
 4673 00e8 00000000 		.word	u8g_font_5x8r
 4674              		.cfi_endproc
 4675              	.LFE49:
 4676              		.size	mnu_DrawEntry, .-mnu_DrawEntry
 4677              		.section	.text.mnu_Draw,"ax",%progbits
 4678              		.align	2
 4679              		.global	mnu_Draw
 4680              		.thumb
 4681              		.thumb_func
 4682              		.type	mnu_Draw, %function
 4683              	mnu_Draw:
 4684              	.LFB50:
1918:u8glib_arm_v1.18.1\src/chessengine.c **** 
1919:u8glib_arm_v1.18.1\src/chessengine.c **** void mnu_Draw(void)
1920:u8glib_arm_v1.18.1\src/chessengine.c **** {
 4685              		.loc 1 1920 0
 4686              		.cfi_startproc
 4687              		@ args = 0, pretend = 0, frame = 8
 4688              		@ frame_needed = 1, uses_anonymous_args = 0
 4689 0000 90B5     		push	{r4, r7, lr}
 4690              		.cfi_def_cfa_offset 12
 4691              		.cfi_offset 4, -12
 4692              		.cfi_offset 7, -8
 4693              		.cfi_offset 14, -4
 4694 0002 83B0     		sub	sp, sp, #12
 4695              		.cfi_def_cfa_offset 24
 4696 0004 00AF     		add	r7, sp, #0
 4697              		.cfi_def_cfa_register 7
1921:u8glib_arm_v1.18.1\src/chessengine.c ****   uint8_t i;
1922:u8glib_arm_v1.18.1\src/chessengine.c ****   uint8_t t,y;
1923:u8glib_arm_v1.18.1\src/chessengine.c ****   /* calculate hight of the complete menu */
1924:u8glib_arm_v1.18.1\src/chessengine.c ****   y = mnu_max;
 4698              		.loc 1 1924 0
 4699 0006 2A4B     		ldr	r3, .L273
 4700 0008 1B78     		ldrb	r3, [r3]
 4701 000a BB71     		strb	r3, [r7, #6]
1925:u8glib_arm_v1.18.1\src/chessengine.c ****   y++; 					/* consider also some space for the title */
 4702              		.loc 1 1925 0
 4703 000c BB79     		ldrb	r3, [r7, #6]	@ zero_extendqisi2
 4704 000e 0133     		adds	r3, r3, #1
 4705 0010 BB71     		strb	r3, [r7, #6]
1926:u8glib_arm_v1.18.1\src/chessengine.c ****   y++; 					/* consider also some space for the title */
 4706              		.loc 1 1926 0
 4707 0012 BB79     		ldrb	r3, [r7, #6]	@ zero_extendqisi2
 4708 0014 0133     		adds	r3, r3, #1
 4709 0016 BB71     		strb	r3, [r7, #6]
1927:u8glib_arm_v1.18.1\src/chessengine.c ****   y *= MNU_ENTRY_HEIGHT;
 4710              		.loc 1 1927 0
 4711 0018 BB79     		ldrb	r3, [r7, #6]
 4712 001a 1A46     		mov	r2, r3
 4713 001c D200     		lsls	r2, r2, #3
ARM GAS  C:\Users\KJA\AppData\Local\Temp\ccNNA7zi.s 			page 118


 4714 001e 1344     		add	r3, r3, r2
 4715 0020 BB71     		strb	r3, [r7, #6]
1928:u8glib_arm_v1.18.1\src/chessengine.c ****   
1929:u8glib_arm_v1.18.1\src/chessengine.c ****   /* calculate how much space will be left */
1930:u8glib_arm_v1.18.1\src/chessengine.c ****   t = u8g_GetHeight(lrc_u8g);			
 4716              		.loc 1 1930 0
 4717 0022 244B     		ldr	r3, .L273+4
 4718 0024 1B68     		ldr	r3, [r3]
 4719 0026 5B78     		ldrb	r3, [r3, #1]
 4720 0028 7B71     		strb	r3, [r7, #5]
1931:u8glib_arm_v1.18.1\src/chessengine.c ****   t -= y;
 4721              		.loc 1 1931 0
 4722 002a 7A79     		ldrb	r2, [r7, #5]
 4723 002c BB79     		ldrb	r3, [r7, #6]
 4724 002e D31A     		subs	r3, r2, r3
 4725 0030 7B71     		strb	r3, [r7, #5]
1932:u8glib_arm_v1.18.1\src/chessengine.c ****   
1933:u8glib_arm_v1.18.1\src/chessengine.c ****   /* topmost pos start half of that empty space from the top */
1934:u8glib_arm_v1.18.1\src/chessengine.c ****   t >>= 1;
 4726              		.loc 1 1934 0
 4727 0032 7B79     		ldrb	r3, [r7, #5]	@ zero_extendqisi2
 4728 0034 5B08     		lsrs	r3, r3, #1
 4729 0036 7B71     		strb	r3, [r7, #5]
1935:u8glib_arm_v1.18.1\src/chessengine.c ****   y = u8g_GetHeight(lrc_u8g);
 4730              		.loc 1 1935 0
 4731 0038 1E4B     		ldr	r3, .L273+4
 4732 003a 1B68     		ldr	r3, [r3]
 4733 003c 5B78     		ldrb	r3, [r3, #1]
 4734 003e BB71     		strb	r3, [r7, #6]
1936:u8glib_arm_v1.18.1\src/chessengine.c ****   y -= t;
 4735              		.loc 1 1936 0
 4736 0040 BA79     		ldrb	r2, [r7, #6]
 4737 0042 7B79     		ldrb	r3, [r7, #5]
 4738 0044 D31A     		subs	r3, r2, r3
 4739 0046 BB71     		strb	r3, [r7, #6]
1937:u8glib_arm_v1.18.1\src/chessengine.c ****   
1938:u8glib_arm_v1.18.1\src/chessengine.c ****   y -= MNU_ENTRY_HEIGHT;
 4740              		.loc 1 1938 0
 4741 0048 BB79     		ldrb	r3, [r7, #6]
 4742 004a 093B     		subs	r3, r3, #9
 4743 004c BB71     		strb	r3, [r7, #6]
1939:u8glib_arm_v1.18.1\src/chessengine.c ****   mnu_DrawEntry(y, mnu_title, 0, 0);
 4744              		.loc 1 1939 0
 4745 004e 1A4B     		ldr	r3, .L273+8
 4746 0050 1B68     		ldr	r3, [r3]
 4747 0052 BA79     		ldrb	r2, [r7, #6]	@ zero_extendqisi2
 4748 0054 1046     		mov	r0, r2
 4749 0056 1946     		mov	r1, r3
 4750 0058 0022     		movs	r2, #0
 4751 005a 0023     		movs	r3, #0
 4752 005c FFF7FEFF 		bl	mnu_DrawEntry
1940:u8glib_arm_v1.18.1\src/chessengine.c ****   
1941:u8glib_arm_v1.18.1\src/chessengine.c ****   y -= MNU_ENTRY_HEIGHT;
 4753              		.loc 1 1941 0
 4754 0060 BB79     		ldrb	r3, [r7, #6]
 4755 0062 093B     		subs	r3, r3, #9
 4756 0064 BB71     		strb	r3, [r7, #6]
ARM GAS  C:\Users\KJA\AppData\Local\Temp\ccNNA7zi.s 			page 119


1942:u8glib_arm_v1.18.1\src/chessengine.c ****   
1943:u8glib_arm_v1.18.1\src/chessengine.c ****   
1944:u8glib_arm_v1.18.1\src/chessengine.c ****   for( i = 0; i < mnu_max; i++ )
 4757              		.loc 1 1944 0
 4758 0066 0023     		movs	r3, #0
 4759 0068 FB71     		strb	r3, [r7, #7]
 4760 006a 18E0     		b	.L271
 4761              	.L272:
1945:u8glib_arm_v1.18.1\src/chessengine.c ****   {
1946:u8glib_arm_v1.18.1\src/chessengine.c ****     y -= MNU_ENTRY_HEIGHT;
 4762              		.loc 1 1946 0 discriminator 3
 4763 006c BB79     		ldrb	r3, [r7, #6]
 4764 006e 093B     		subs	r3, r3, #9
 4765 0070 BB71     		strb	r3, [r7, #6]
1947:u8glib_arm_v1.18.1\src/chessengine.c ****     mnu_DrawEntry(y, mnu_list[i], 0, i == mnu_pos);
 4766              		.loc 1 1947 0 discriminator 3
 4767 0072 FB79     		ldrb	r3, [r7, #7]	@ zero_extendqisi2
 4768 0074 114A     		ldr	r2, .L273+12
 4769 0076 52F82310 		ldr	r1, [r2, r3, lsl #2]
 4770 007a 114B     		ldr	r3, .L273+16
 4771 007c 1B78     		ldrb	r3, [r3]	@ zero_extendqisi2
 4772 007e FA79     		ldrb	r2, [r7, #7]	@ zero_extendqisi2
 4773 0080 9A42     		cmp	r2, r3
 4774 0082 0CBF     		ite	eq
 4775 0084 0123     		moveq	r3, #1
 4776 0086 0023     		movne	r3, #0
 4777 0088 DBB2     		uxtb	r3, r3
 4778 008a 1C46     		mov	r4, r3
 4779 008c BB79     		ldrb	r3, [r7, #6]	@ zero_extendqisi2
 4780 008e 1846     		mov	r0, r3
 4781 0090 0022     		movs	r2, #0
 4782 0092 2346     		mov	r3, r4
 4783 0094 FFF7FEFF 		bl	mnu_DrawEntry
1944:u8glib_arm_v1.18.1\src/chessengine.c ****   {
 4784              		.loc 1 1944 0 discriminator 3
 4785 0098 FB79     		ldrb	r3, [r7, #7]	@ zero_extendqisi2
 4786 009a 0133     		adds	r3, r3, #1
 4787 009c FB71     		strb	r3, [r7, #7]
 4788              	.L271:
1944:u8glib_arm_v1.18.1\src/chessengine.c ****   {
 4789              		.loc 1 1944 0 is_stmt 0 discriminator 1
 4790 009e 044B     		ldr	r3, .L273
 4791 00a0 1B78     		ldrb	r3, [r3]	@ zero_extendqisi2
 4792 00a2 FA79     		ldrb	r2, [r7, #7]	@ zero_extendqisi2
 4793 00a4 9A42     		cmp	r2, r3
 4794 00a6 E1D3     		bcc	.L272
1948:u8glib_arm_v1.18.1\src/chessengine.c ****   }
1949:u8glib_arm_v1.18.1\src/chessengine.c **** }
 4795              		.loc 1 1949 0 is_stmt 1
 4796 00a8 0C37     		adds	r7, r7, #12
 4797              		.cfi_def_cfa_offset 12
 4798 00aa BD46     		mov	sp, r7
 4799              		.cfi_def_cfa_register 13
 4800              		@ sp needed
 4801 00ac 90BD     		pop	{r4, r7, pc}
 4802              	.L274:
 4803 00ae 00BF     		.align	2
ARM GAS  C:\Users\KJA\AppData\Local\Temp\ccNNA7zi.s 			page 120


 4804              	.L273:
 4805 00b0 00000000 		.word	mnu_max
 4806 00b4 00000000 		.word	lrc_u8g
 4807 00b8 00000000 		.word	mnu_title
 4808 00bc 00000000 		.word	mnu_list
 4809 00c0 00000000 		.word	mnu_pos
 4810              		.cfi_endproc
 4811              	.LFE50:
 4812              		.size	mnu_Draw, .-mnu_Draw
 4813              		.section	.text.mnu_Step,"ax",%progbits
 4814              		.align	2
 4815              		.global	mnu_Step
 4816              		.thumb
 4817              		.thumb_func
 4818              		.type	mnu_Step, %function
 4819              	mnu_Step:
 4820              	.LFB51:
1950:u8glib_arm_v1.18.1\src/chessengine.c **** 
1951:u8glib_arm_v1.18.1\src/chessengine.c **** void mnu_Step(uint8_t key_cmd)
1952:u8glib_arm_v1.18.1\src/chessengine.c **** {
 4821              		.loc 1 1952 0
 4822              		.cfi_startproc
 4823              		@ args = 0, pretend = 0, frame = 8
 4824              		@ frame_needed = 1, uses_anonymous_args = 0
 4825              		@ link register save eliminated.
 4826 0000 80B4     		push	{r7}
 4827              		.cfi_def_cfa_offset 4
 4828              		.cfi_offset 7, -4
 4829 0002 83B0     		sub	sp, sp, #12
 4830              		.cfi_def_cfa_offset 16
 4831 0004 00AF     		add	r7, sp, #0
 4832              		.cfi_def_cfa_register 7
 4833 0006 0346     		mov	r3, r0
 4834 0008 FB71     		strb	r3, [r7, #7]
1953:u8glib_arm_v1.18.1\src/chessengine.c ****     if ( key_cmd == CHESS_KEY_NEXT )
 4835              		.loc 1 1953 0
 4836 000a FB79     		ldrb	r3, [r7, #7]	@ zero_extendqisi2
 4837 000c 012B     		cmp	r3, #1
 4838 000e 0DD1     		bne	.L276
1954:u8glib_arm_v1.18.1\src/chessengine.c ****     {
1955:u8glib_arm_v1.18.1\src/chessengine.c ****       if ( mnu_pos+1 < mnu_max )
 4839              		.loc 1 1955 0
 4840 0010 0F4B     		ldr	r3, .L279
 4841 0012 1B78     		ldrb	r3, [r3]	@ zero_extendqisi2
 4842 0014 0133     		adds	r3, r3, #1
 4843 0016 0F4A     		ldr	r2, .L279+4
 4844 0018 1278     		ldrb	r2, [r2]	@ zero_extendqisi2
 4845 001a 9342     		cmp	r3, r2
 4846 001c 13DA     		bge	.L275
1956:u8glib_arm_v1.18.1\src/chessengine.c **** 	mnu_pos++;
 4847              		.loc 1 1956 0
 4848 001e 0C4B     		ldr	r3, .L279
 4849 0020 1B78     		ldrb	r3, [r3]	@ zero_extendqisi2
 4850 0022 0133     		adds	r3, r3, #1
 4851 0024 DAB2     		uxtb	r2, r3
 4852 0026 0A4B     		ldr	r3, .L279
 4853 0028 1A70     		strb	r2, [r3]
ARM GAS  C:\Users\KJA\AppData\Local\Temp\ccNNA7zi.s 			page 121


 4854 002a 0CE0     		b	.L275
 4855              	.L276:
1957:u8glib_arm_v1.18.1\src/chessengine.c ****     }
1958:u8glib_arm_v1.18.1\src/chessengine.c ****     else if ( key_cmd == CHESS_KEY_PREV )
 4856              		.loc 1 1958 0
 4857 002c FB79     		ldrb	r3, [r7, #7]	@ zero_extendqisi2
 4858 002e 022B     		cmp	r3, #2
 4859 0030 09D1     		bne	.L275
1959:u8glib_arm_v1.18.1\src/chessengine.c ****     {
1960:u8glib_arm_v1.18.1\src/chessengine.c ****       if ( mnu_pos > 0 )
 4860              		.loc 1 1960 0
 4861 0032 074B     		ldr	r3, .L279
 4862 0034 1B78     		ldrb	r3, [r3]	@ zero_extendqisi2
 4863 0036 002B     		cmp	r3, #0
 4864 0038 05D0     		beq	.L275
1961:u8glib_arm_v1.18.1\src/chessengine.c **** 	mnu_pos--;
 4865              		.loc 1 1961 0
 4866 003a 054B     		ldr	r3, .L279
 4867 003c 1B78     		ldrb	r3, [r3]	@ zero_extendqisi2
 4868 003e 013B     		subs	r3, r3, #1
 4869 0040 DAB2     		uxtb	r2, r3
 4870 0042 034B     		ldr	r3, .L279
 4871 0044 1A70     		strb	r2, [r3]
 4872              	.L275:
1962:u8glib_arm_v1.18.1\src/chessengine.c ****     }
1963:u8glib_arm_v1.18.1\src/chessengine.c **** }
 4873              		.loc 1 1963 0
 4874 0046 0C37     		adds	r7, r7, #12
 4875              		.cfi_def_cfa_offset 4
 4876 0048 BD46     		mov	sp, r7
 4877              		.cfi_def_cfa_register 13
 4878              		@ sp needed
 4879 004a 5DF8047B 		ldr	r7, [sp], #4
 4880              		.cfi_restore 7
 4881              		.cfi_def_cfa_offset 0
 4882 004e 7047     		bx	lr
 4883              	.L280:
 4884              		.align	2
 4885              	.L279:
 4886 0050 00000000 		.word	mnu_pos
 4887 0054 00000000 		.word	mnu_max
 4888              		.cfi_endproc
 4889              	.LFE51:
 4890              		.size	mnu_Step, .-mnu_Step
 4891              		.global	chess_key_code
 4892              		.bss
 4893              		.type	chess_key_code, %object
 4894              		.size	chess_key_code, 1
 4895              	chess_key_code:
 4896 0001 00       		.space	1
 4897              		.global	chess_key_cmd
 4898              		.type	chess_key_cmd, %object
 4899              		.size	chess_key_cmd, 1
 4900              	chess_key_cmd:
 4901 0002 00       		.space	1
 4902              		.global	chess_state
 4903              		.type	chess_state, %object
ARM GAS  C:\Users\KJA\AppData\Local\Temp\ccNNA7zi.s 			page 122


 4904              		.size	chess_state, 1
 4905              	chess_state:
 4906 0003 00       		.space	1
 4907              		.global	chess_source_pos
 4908              		.data
 4909              		.type	chess_source_pos, %object
 4910              		.size	chess_source_pos, 1
 4911              	chess_source_pos:
 4912 002d FF       		.byte	-1
 4913              		.global	chess_target_pos
 4914              		.type	chess_target_pos, %object
 4915              		.size	chess_target_pos, 1
 4916              	chess_target_pos:
 4917 002e FF       		.byte	-1
 4918              		.global	chess_pieces_body_bm
 4919              		.section	.rodata
 4920              		.align	2
 4921              		.type	chess_pieces_body_bm, %object
 4922              		.size	chess_pieces_body_bm, 48
 4923              	chess_pieces_body_bm:
 4924 0080 00       		.byte	0
 4925 0081 00       		.byte	0
 4926 0082 00       		.byte	0
 4927 0083 18       		.byte	24
 4928 0084 18       		.byte	24
 4929 0085 00       		.byte	0
 4930 0086 00       		.byte	0
 4931 0087 00       		.byte	0
 4932 0088 00       		.byte	0
 4933 0089 00       		.byte	0
 4934 008a 1C       		.byte	28
 4935 008b 2C       		.byte	44
 4936 008c 04       		.byte	4
 4937 008d 04       		.byte	4
 4938 008e 0E       		.byte	14
 4939 008f 00       		.byte	0
 4940 0090 00       		.byte	0
 4941 0091 00       		.byte	0
 4942 0092 1C       		.byte	28
 4943 0093 1C       		.byte	28
 4944 0094 1C       		.byte	28
 4945 0095 08       		.byte	8
 4946 0096 00       		.byte	0
 4947 0097 00       		.byte	0
 4948 0098 00       		.byte	0
 4949 0099 00       		.byte	0
 4950 009a 00       		.byte	0
 4951 009b 1C       		.byte	28
 4952 009c 1C       		.byte	28
 4953 009d 1C       		.byte	28
 4954 009e 1C       		.byte	28
 4955 009f 00       		.byte	0
 4956 00a0 00       		.byte	0
 4957 00a1 00       		.byte	0
 4958 00a2 14       		.byte	20
 4959 00a3 1C       		.byte	28
 4960 00a4 08       		.byte	8
ARM GAS  C:\Users\KJA\AppData\Local\Temp\ccNNA7zi.s 			page 123


 4961 00a5 1C       		.byte	28
 4962 00a6 08       		.byte	8
 4963 00a7 00       		.byte	0
 4964 00a8 00       		.byte	0
 4965 00a9 00       		.byte	0
 4966 00aa 00       		.byte	0
 4967 00ab 08       		.byte	8
 4968 00ac 3E       		.byte	62
 4969 00ad 1C       		.byte	28
 4970 00ae 08       		.byte	8
 4971 00af 00       		.byte	0
 4972              		.global	chess_black_pieces_bm
 4973              		.align	2
 4974              		.type	chess_black_pieces_bm, %object
 4975              		.size	chess_black_pieces_bm, 48
 4976              	chess_black_pieces_bm:
 4977 00b0 00       		.byte	0
 4978 00b1 00       		.byte	0
 4979 00b2 18       		.byte	24
 4980 00b3 3C       		.byte	60
 4981 00b4 3C       		.byte	60
 4982 00b5 18       		.byte	24
 4983 00b6 3C       		.byte	60
 4984 00b7 00       		.byte	0
 4985 00b8 00       		.byte	0
 4986 00b9 1C       		.byte	28
 4987 00ba 3E       		.byte	62
 4988 00bb 7E       		.byte	126
 4989 00bc 6E       		.byte	110
 4990 00bd 0E       		.byte	14
 4991 00be 1F       		.byte	31
 4992 00bf 1F       		.byte	31
 4993 00c0 00       		.byte	0
 4994 00c1 1C       		.byte	28
 4995 00c2 2E       		.byte	46
 4996 00c3 3E       		.byte	62
 4997 00c4 3E       		.byte	62
 4998 00c5 1C       		.byte	28
 4999 00c6 08       		.byte	8
 5000 00c7 7F       		.byte	127
 5001 00c8 00       		.byte	0
 5002 00c9 55       		.byte	85
 5003 00ca 7F       		.byte	127
 5004 00cb 3E       		.byte	62
 5005 00cc 3E       		.byte	62
 5006 00cd 3E       		.byte	62
 5007 00ce 3E       		.byte	62
 5008 00cf 7F       		.byte	127
 5009 00d0 00       		.byte	0
 5010 00d1 55       		.byte	85
 5011 00d2 3E       		.byte	62
 5012 00d3 3E       		.byte	62
 5013 00d4 1C       		.byte	28
 5014 00d5 3E       		.byte	62
 5015 00d6 1C       		.byte	28
 5016 00d7 7F       		.byte	127
 5017 00d8 08       		.byte	8
ARM GAS  C:\Users\KJA\AppData\Local\Temp\ccNNA7zi.s 			page 124


 5018 00d9 1C       		.byte	28
 5019 00da 49       		.byte	73
 5020 00db 7F       		.byte	127
 5021 00dc 7F       		.byte	127
 5022 00dd 3E       		.byte	62
 5023 00de 1C       		.byte	28
 5024 00df 7F       		.byte	127
 5025              		.comm	chess_low_edge,1,1
 5026              		.global	chess_boxsize
 5027              		.data
 5028              		.type	chess_boxsize, %object
 5029              		.size	chess_boxsize, 1
 5030              	chess_boxsize:
 5031 002f 08       		.byte	8
 5032              		.global	chess_boxoffset
 5033              		.type	chess_boxoffset, %object
 5034              		.size	chess_boxoffset, 1
 5035              	chess_boxoffset:
 5036 0030 01       		.byte	1
 5037 0031 000000   		.section	.text.chess_DrawFrame,"ax",%progbits
 5038              		.align	2
 5039              		.global	chess_DrawFrame
 5040              		.thumb
 5041              		.thumb_func
 5042              		.type	chess_DrawFrame, %function
 5043              	chess_DrawFrame:
 5044              	.LFB52:
1964:u8glib_arm_v1.18.1\src/chessengine.c **** 
1965:u8glib_arm_v1.18.1\src/chessengine.c **** 
1966:u8glib_arm_v1.18.1\src/chessengine.c **** 
1967:u8glib_arm_v1.18.1\src/chessengine.c **** 
1968:u8glib_arm_v1.18.1\src/chessengine.c **** uint8_t chess_key_code = 0;
1969:u8glib_arm_v1.18.1\src/chessengine.c **** uint8_t chess_key_cmd = 0;
1970:u8glib_arm_v1.18.1\src/chessengine.c **** #define CHESS_STATE_MENU 0
1971:u8glib_arm_v1.18.1\src/chessengine.c **** #define CHESS_STATE_SELECT_START 1
1972:u8glib_arm_v1.18.1\src/chessengine.c **** #define CHESS_STATE_SELECT_PIECE 2
1973:u8glib_arm_v1.18.1\src/chessengine.c **** #define CHESS_STATE_SELECT_TARGET_POS 3
1974:u8glib_arm_v1.18.1\src/chessengine.c **** #define CHESS_STATE_THINKING 4
1975:u8glib_arm_v1.18.1\src/chessengine.c **** #define CHESS_STATE_GAME_END 5
1976:u8glib_arm_v1.18.1\src/chessengine.c **** uint8_t chess_state = CHESS_STATE_MENU;
1977:u8glib_arm_v1.18.1\src/chessengine.c **** uint8_t chess_source_pos = 255;
1978:u8glib_arm_v1.18.1\src/chessengine.c **** uint8_t chess_target_pos = 255;
1979:u8glib_arm_v1.18.1\src/chessengine.c **** 
1980:u8glib_arm_v1.18.1\src/chessengine.c **** const uint8_t chess_pieces_body_bm[] PROGMEM = 
1981:u8glib_arm_v1.18.1\src/chessengine.c **** {
1982:u8glib_arm_v1.18.1\src/chessengine.c ****   /* PAWN */ 		0x00, 0x00, 0x00, 0x18, 0x18, 0x00, 0x00, 0x00, /* 0x00, 0x00, 0x00, 0x0c, 0x0c, 0x0
1983:u8glib_arm_v1.18.1\src/chessengine.c ****   /* KNIGHT */		0x00, 0x00, 0x1c, 0x2c, 0x04, 0x04, 0x0e, 0x00,
1984:u8glib_arm_v1.18.1\src/chessengine.c ****   /* BISHOP */		0x00, 0x00, 0x1c, 0x1c, 0x1c, 0x08, 0x00, 0x00, /* 0x00, 0x00, 0x08, 0x1c, 0x1c, 0x
1985:u8glib_arm_v1.18.1\src/chessengine.c ****   /* ROOK */		0x00, 0x00, 0x00, 0x1c, 0x1c, 0x1c, 0x1c, 0x00,
1986:u8glib_arm_v1.18.1\src/chessengine.c ****   /* QUEEN */		0x00, 0x00, 0x14, 0x1c, 0x08, 0x1c, 0x08, 0x00,
1987:u8glib_arm_v1.18.1\src/chessengine.c ****   /* KING */		0x00, 0x00, 0x00, 0x08, 0x3e, 0x1c, 0x08, 0x00,
1988:u8glib_arm_v1.18.1\src/chessengine.c **** };
1989:u8glib_arm_v1.18.1\src/chessengine.c **** 
1990:u8glib_arm_v1.18.1\src/chessengine.c **** #ifdef NOT_REQUIRED
1991:u8glib_arm_v1.18.1\src/chessengine.c **** /* white pieces are constructed by painting black pieces and cutting out the white area */
1992:u8glib_arm_v1.18.1\src/chessengine.c **** const uint8_t chess_white_pieces_bm[] PROGMEM = 
1993:u8glib_arm_v1.18.1\src/chessengine.c **** {
ARM GAS  C:\Users\KJA\AppData\Local\Temp\ccNNA7zi.s 			page 125


1994:u8glib_arm_v1.18.1\src/chessengine.c ****   /* PAWN */ 		0x00, 0x00, 0x0c, 0x12, 0x12, 0x0c, 0x1e, 0x00, 
1995:u8glib_arm_v1.18.1\src/chessengine.c ****   /* KNIGHT */		0x00, 0x1c, 0x22, 0x52, 0x6a, 0x0a, 0x11, 0x1f,
1996:u8glib_arm_v1.18.1\src/chessengine.c ****   /* BISHOP */		0x00, 0x08, 0x14, 0x22, 0x22, 0x14, 0x08, 0x7f,
1997:u8glib_arm_v1.18.1\src/chessengine.c ****   /* ROOK */		0x00, 0x55, 0x7f, 0x22, 0x22, 0x22, 0x22, 0x7f,
1998:u8glib_arm_v1.18.1\src/chessengine.c ****   /* QUEEN */		0x00, 0x55, 0x2a, 0x22, 0x14, 0x22, 0x14, 0x7f,
1999:u8glib_arm_v1.18.1\src/chessengine.c ****   /* KING */		0x08, 0x1c, 0x49, 0x77, 0x41, 0x22, 0x14, 0x7f,
2000:u8glib_arm_v1.18.1\src/chessengine.c **** };
2001:u8glib_arm_v1.18.1\src/chessengine.c **** #endif
2002:u8glib_arm_v1.18.1\src/chessengine.c **** 
2003:u8glib_arm_v1.18.1\src/chessengine.c **** const uint8_t chess_black_pieces_bm[] PROGMEM = 
2004:u8glib_arm_v1.18.1\src/chessengine.c **** {
2005:u8glib_arm_v1.18.1\src/chessengine.c ****   /* PAWN */ 		0x00, 0x00, 0x18, 0x3c, 0x3c, 0x18, 0x3c, 0x00, /* 0x00, 0x00, 0x0c, 0x1e, 0x1e, 0x0
2006:u8glib_arm_v1.18.1\src/chessengine.c ****   /* KNIGHT */		0x00, 0x1c, 0x3e, 0x7e, 0x6e, 0x0e, 0x1f, 0x1f,
2007:u8glib_arm_v1.18.1\src/chessengine.c ****   /* BISHOP */		0x00, 0x1c, 0x2e, 0x3e, 0x3e, 0x1c, 0x08, 0x7f,  /*0x00, 0x08, 0x1c, 0x3e, 0x3e, 0x
2008:u8glib_arm_v1.18.1\src/chessengine.c ****   /* ROOK */		0x00, 0x55, 0x7f, 0x3e, 0x3e, 0x3e, 0x3e, 0x7f,
2009:u8glib_arm_v1.18.1\src/chessengine.c ****   /* QUEEN */		0x00, 0x55, 0x3e, 0x3e, 0x1c, 0x3e, 0x1c, 0x7f,
2010:u8glib_arm_v1.18.1\src/chessengine.c ****   /* KING -*/		0x08, 0x1c, 0x49, 0x7f, 0x7f, 0x3e, 0x1c, 0x7f,
2011:u8glib_arm_v1.18.1\src/chessengine.c **** };
2012:u8glib_arm_v1.18.1\src/chessengine.c **** 
2013:u8glib_arm_v1.18.1\src/chessengine.c **** 
2014:u8glib_arm_v1.18.1\src/chessengine.c **** #if defined(DOGXL160_HW_GR)
2015:u8glib_arm_v1.18.1\src/chessengine.c **** #define BOXSIZE 13
2016:u8glib_arm_v1.18.1\src/chessengine.c **** #define BOXOFFSET 3
2017:u8glib_arm_v1.18.1\src/chessengine.c **** #else
2018:u8glib_arm_v1.18.1\src/chessengine.c **** #define BOXSIZE 8
2019:u8glib_arm_v1.18.1\src/chessengine.c **** #define BOXOFFSET 1
2020:u8glib_arm_v1.18.1\src/chessengine.c **** #endif
2021:u8glib_arm_v1.18.1\src/chessengine.c **** 
2022:u8glib_arm_v1.18.1\src/chessengine.c **** u8g_uint_t chess_low_edge;
2023:u8glib_arm_v1.18.1\src/chessengine.c **** uint8_t chess_boxsize = 8;
2024:u8glib_arm_v1.18.1\src/chessengine.c **** uint8_t chess_boxoffset = 1;
2025:u8glib_arm_v1.18.1\src/chessengine.c **** 
2026:u8glib_arm_v1.18.1\src/chessengine.c **** 
2027:u8glib_arm_v1.18.1\src/chessengine.c **** void chess_DrawFrame(uint8_t pos, uint8_t is_bold)
2028:u8glib_arm_v1.18.1\src/chessengine.c **** {
 5045              		.loc 1 2028 0
 5046              		.cfi_startproc
 5047              		@ args = 0, pretend = 0, frame = 16
 5048              		@ frame_needed = 1, uses_anonymous_args = 0
 5049 0000 90B5     		push	{r4, r7, lr}
 5050              		.cfi_def_cfa_offset 12
 5051              		.cfi_offset 4, -12
 5052              		.cfi_offset 7, -8
 5053              		.cfi_offset 14, -4
 5054 0002 87B0     		sub	sp, sp, #28
 5055              		.cfi_def_cfa_offset 40
 5056 0004 02AF     		add	r7, sp, #8
 5057              		.cfi_def_cfa 7, 32
 5058 0006 0346     		mov	r3, r0
 5059 0008 0A46     		mov	r2, r1
 5060 000a FB71     		strb	r3, [r7, #7]
 5061 000c 1346     		mov	r3, r2
 5062 000e BB71     		strb	r3, [r7, #6]
2029:u8glib_arm_v1.18.1\src/chessengine.c ****   u8g_uint_t x0, y0;
2030:u8glib_arm_v1.18.1\src/chessengine.c **** 
2031:u8glib_arm_v1.18.1\src/chessengine.c ****   x0 = pos;
 5063              		.loc 1 2031 0
ARM GAS  C:\Users\KJA\AppData\Local\Temp\ccNNA7zi.s 			page 126


 5064 0010 FB79     		ldrb	r3, [r7, #7]
 5065 0012 FB73     		strb	r3, [r7, #15]
2032:u8glib_arm_v1.18.1\src/chessengine.c ****   x0 &= 15;
 5066              		.loc 1 2032 0
 5067 0014 FB7B     		ldrb	r3, [r7, #15]
 5068 0016 03F00F03 		and	r3, r3, #15
 5069 001a FB73     		strb	r3, [r7, #15]
2033:u8glib_arm_v1.18.1\src/chessengine.c ****   if ( lrc_obj.orientation != COLOR_WHITE )
 5070              		.loc 1 2033 0
 5071 001c 314B     		ldr	r3, .L285
 5072 001e 93F84530 		ldrb	r3, [r3, #69]	@ zero_extendqisi2
 5073 0022 002B     		cmp	r3, #0
 5074 0024 03D0     		beq	.L282
2034:u8glib_arm_v1.18.1\src/chessengine.c ****     x0 ^= 7;
 5075              		.loc 1 2034 0
 5076 0026 FB7B     		ldrb	r3, [r7, #15]
 5077 0028 83F00703 		eor	r3, r3, #7
 5078 002c FB73     		strb	r3, [r7, #15]
 5079              	.L282:
2035:u8glib_arm_v1.18.1\src/chessengine.c **** 
2036:u8glib_arm_v1.18.1\src/chessengine.c ****   y0 = pos;
 5080              		.loc 1 2036 0
 5081 002e FB79     		ldrb	r3, [r7, #7]
 5082 0030 BB73     		strb	r3, [r7, #14]
2037:u8glib_arm_v1.18.1\src/chessengine.c ****   y0>>= 4;
 5083              		.loc 1 2037 0
 5084 0032 BB7B     		ldrb	r3, [r7, #14]	@ zero_extendqisi2
 5085 0034 1B09     		lsrs	r3, r3, #4
 5086 0036 BB73     		strb	r3, [r7, #14]
2038:u8glib_arm_v1.18.1\src/chessengine.c ****   if ( lrc_obj.orientation != COLOR_WHITE )
 5087              		.loc 1 2038 0
 5088 0038 2A4B     		ldr	r3, .L285
 5089 003a 93F84530 		ldrb	r3, [r3, #69]	@ zero_extendqisi2
 5090 003e 002B     		cmp	r3, #0
 5091 0040 03D0     		beq	.L283
2039:u8glib_arm_v1.18.1\src/chessengine.c ****     y0 ^= 7;
 5092              		.loc 1 2039 0
 5093 0042 BB7B     		ldrb	r3, [r7, #14]
 5094 0044 83F00703 		eor	r3, r3, #7
 5095 0048 BB73     		strb	r3, [r7, #14]
 5096              	.L283:
2040:u8glib_arm_v1.18.1\src/chessengine.c ****   
2041:u8glib_arm_v1.18.1\src/chessengine.c ****   x0 *= chess_boxsize;
 5097              		.loc 1 2041 0
 5098 004a 274B     		ldr	r3, .L285+4
 5099 004c 1B78     		ldrb	r3, [r3]	@ zero_extendqisi2
 5100 004e FA7B     		ldrb	r2, [r7, #15]
 5101 0050 02FB03F3 		mul	r3, r2, r3
 5102 0054 FB73     		strb	r3, [r7, #15]
2042:u8glib_arm_v1.18.1\src/chessengine.c ****   y0 *= chess_boxsize;
 5103              		.loc 1 2042 0
 5104 0056 244B     		ldr	r3, .L285+4
 5105 0058 1B78     		ldrb	r3, [r3]	@ zero_extendqisi2
 5106 005a BA7B     		ldrb	r2, [r7, #14]
 5107 005c 02FB03F3 		mul	r3, r2, r3
 5108 0060 BB73     		strb	r3, [r7, #14]
2043:u8glib_arm_v1.18.1\src/chessengine.c ****   
ARM GAS  C:\Users\KJA\AppData\Local\Temp\ccNNA7zi.s 			page 127


2044:u8glib_arm_v1.18.1\src/chessengine.c ****   u8g_SetDefaultForegroundColor(lrc_u8g);
 5109              		.loc 1 2044 0
 5110 0062 224B     		ldr	r3, .L285+8
 5111 0064 1B68     		ldr	r3, [r3]
 5112 0066 1846     		mov	r0, r3
 5113 0068 FFF7FEFF 		bl	u8g_SetDefaultForegroundColor
2045:u8glib_arm_v1.18.1\src/chessengine.c ****   u8g_DrawFrame(lrc_u8g, x0, chess_low_edge - y0 - chess_boxsize+1, chess_boxsize, chess_boxsize);
 5114              		.loc 1 2045 0
 5115 006c 1F4B     		ldr	r3, .L285+8
 5116 006e 1868     		ldr	r0, [r3]
 5117 0070 1F4B     		ldr	r3, .L285+12
 5118 0072 1A78     		ldrb	r2, [r3]	@ zero_extendqisi2
 5119 0074 BB7B     		ldrb	r3, [r7, #14]
 5120 0076 D31A     		subs	r3, r2, r3
 5121 0078 DAB2     		uxtb	r2, r3
 5122 007a 1B4B     		ldr	r3, .L285+4
 5123 007c 1B78     		ldrb	r3, [r3]	@ zero_extendqisi2
 5124 007e D31A     		subs	r3, r2, r3
 5125 0080 DBB2     		uxtb	r3, r3
 5126 0082 0133     		adds	r3, r3, #1
 5127 0084 DAB2     		uxtb	r2, r3
 5128 0086 184B     		ldr	r3, .L285+4
 5129 0088 1C78     		ldrb	r4, [r3]	@ zero_extendqisi2
 5130 008a 174B     		ldr	r3, .L285+4
 5131 008c 1B78     		ldrb	r3, [r3]	@ zero_extendqisi2
 5132 008e F97B     		ldrb	r1, [r7, #15]	@ zero_extendqisi2
 5133 0090 0093     		str	r3, [sp]
 5134 0092 2346     		mov	r3, r4
 5135 0094 FFF7FEFF 		bl	u8g_DrawFrame
2046:u8glib_arm_v1.18.1\src/chessengine.c ****   
2047:u8glib_arm_v1.18.1\src/chessengine.c ****   
2048:u8glib_arm_v1.18.1\src/chessengine.c ****   if ( is_bold )
 5136              		.loc 1 2048 0
 5137 0098 BB79     		ldrb	r3, [r7, #6]	@ zero_extendqisi2
 5138 009a 002B     		cmp	r3, #0
 5139 009c 1FD0     		beq	.L281
2049:u8glib_arm_v1.18.1\src/chessengine.c ****   {
2050:u8glib_arm_v1.18.1\src/chessengine.c ****       x0--;
 5140              		.loc 1 2050 0
 5141 009e FB7B     		ldrb	r3, [r7, #15]	@ zero_extendqisi2
 5142 00a0 013B     		subs	r3, r3, #1
 5143 00a2 FB73     		strb	r3, [r7, #15]
2051:u8glib_arm_v1.18.1\src/chessengine.c ****       y0++;
 5144              		.loc 1 2051 0
 5145 00a4 BB7B     		ldrb	r3, [r7, #14]	@ zero_extendqisi2
 5146 00a6 0133     		adds	r3, r3, #1
 5147 00a8 BB73     		strb	r3, [r7, #14]
2052:u8glib_arm_v1.18.1\src/chessengine.c ****   
2053:u8glib_arm_v1.18.1\src/chessengine.c ****     u8g_DrawFrame(lrc_u8g, x0, chess_low_edge - y0 - chess_boxsize +1, chess_boxsize+2, chess_boxsi
 5148              		.loc 1 2053 0
 5149 00aa 104B     		ldr	r3, .L285+8
 5150 00ac 1868     		ldr	r0, [r3]
 5151 00ae 104B     		ldr	r3, .L285+12
 5152 00b0 1A78     		ldrb	r2, [r3]	@ zero_extendqisi2
 5153 00b2 BB7B     		ldrb	r3, [r7, #14]
 5154 00b4 D31A     		subs	r3, r2, r3
 5155 00b6 DAB2     		uxtb	r2, r3
ARM GAS  C:\Users\KJA\AppData\Local\Temp\ccNNA7zi.s 			page 128


 5156 00b8 0B4B     		ldr	r3, .L285+4
 5157 00ba 1B78     		ldrb	r3, [r3]	@ zero_extendqisi2
 5158 00bc D31A     		subs	r3, r2, r3
 5159 00be DBB2     		uxtb	r3, r3
 5160 00c0 0133     		adds	r3, r3, #1
 5161 00c2 DAB2     		uxtb	r2, r3
 5162 00c4 084B     		ldr	r3, .L285+4
 5163 00c6 1B78     		ldrb	r3, [r3]	@ zero_extendqisi2
 5164 00c8 0233     		adds	r3, r3, #2
 5165 00ca DCB2     		uxtb	r4, r3
 5166 00cc 064B     		ldr	r3, .L285+4
 5167 00ce 1B78     		ldrb	r3, [r3]	@ zero_extendqisi2
 5168 00d0 0233     		adds	r3, r3, #2
 5169 00d2 DBB2     		uxtb	r3, r3
 5170 00d4 F97B     		ldrb	r1, [r7, #15]	@ zero_extendqisi2
 5171 00d6 0093     		str	r3, [sp]
 5172 00d8 2346     		mov	r3, r4
 5173 00da FFF7FEFF 		bl	u8g_DrawFrame
 5174              	.L281:
2054:u8glib_arm_v1.18.1\src/chessengine.c ****   }
2055:u8glib_arm_v1.18.1\src/chessengine.c **** }
 5175              		.loc 1 2055 0
 5176 00de 1437     		adds	r7, r7, #20
 5177              		.cfi_def_cfa_offset 12
 5178 00e0 BD46     		mov	sp, r7
 5179              		.cfi_def_cfa_register 13
 5180              		@ sp needed
 5181 00e2 90BD     		pop	{r4, r7, pc}
 5182              	.L286:
 5183              		.align	2
 5184              	.L285:
 5185 00e4 00000000 		.word	lrc_obj
 5186 00e8 00000000 		.word	chess_boxsize
 5187 00ec 00000000 		.word	lrc_u8g
 5188 00f0 00000000 		.word	chess_low_edge
 5189              		.cfi_endproc
 5190              	.LFE52:
 5191              		.size	chess_DrawFrame, .-chess_DrawFrame
 5192              		.section	.text.chess_DrawBoard,"ax",%progbits
 5193              		.align	2
 5194              		.global	chess_DrawBoard
 5195              		.thumb
 5196              		.thumb_func
 5197              		.type	chess_DrawBoard, %function
 5198              	chess_DrawBoard:
 5199              	.LFB53:
2056:u8glib_arm_v1.18.1\src/chessengine.c **** 
2057:u8glib_arm_v1.18.1\src/chessengine.c **** 
2058:u8glib_arm_v1.18.1\src/chessengine.c **** void chess_DrawBoard(void)
2059:u8glib_arm_v1.18.1\src/chessengine.c **** {
 5200              		.loc 1 2059 0
 5201              		.cfi_startproc
 5202              		@ args = 0, pretend = 0, frame = 16
 5203              		@ frame_needed = 1, uses_anonymous_args = 0
 5204 0000 90B5     		push	{r4, r7, lr}
 5205              		.cfi_def_cfa_offset 12
 5206              		.cfi_offset 4, -12
ARM GAS  C:\Users\KJA\AppData\Local\Temp\ccNNA7zi.s 			page 129


 5207              		.cfi_offset 7, -8
 5208              		.cfi_offset 14, -4
 5209 0002 87B0     		sub	sp, sp, #28
 5210              		.cfi_def_cfa_offset 40
 5211 0004 02AF     		add	r7, sp, #8
 5212              		.cfi_def_cfa 7, 32
2060:u8glib_arm_v1.18.1\src/chessengine.c ****   uint8_t i, j, cp;
2061:u8glib_arm_v1.18.1\src/chessengine.c ****   const uint8_t *ptr;  /* pointer into PROGMEM */
2062:u8glib_arm_v1.18.1\src/chessengine.c ****   
2063:u8glib_arm_v1.18.1\src/chessengine.c ****   if ( U8G_MODE_GET_BITS_PER_PIXEL(u8g_GetMode(lrc_u8g)) > 1 )
 5213              		.loc 1 2063 0
 5214 0006 A94B     		ldr	r3, .L310
 5215 0008 1B68     		ldr	r3, [r3]
 5216 000a DB7C     		ldrb	r3, [r3, #19]	@ zero_extendqisi2
 5217 000c 03F01F03 		and	r3, r3, #31
 5218 0010 012B     		cmp	r3, #1
 5219 0012 4BDD     		ble	.L288
2064:u8glib_arm_v1.18.1\src/chessengine.c ****   {
2065:u8glib_arm_v1.18.1\src/chessengine.c ****     for( i = 0; i < 8; i++ )
 5220              		.loc 1 2065 0
 5221 0014 0023     		movs	r3, #0
 5222 0016 FB73     		strb	r3, [r7, #15]
 5223 0018 44E0     		b	.L289
 5224              	.L294:
2066:u8glib_arm_v1.18.1\src/chessengine.c ****       for( j = 0; j < 8; j++ )
 5225              		.loc 1 2066 0
 5226 001a 0023     		movs	r3, #0
 5227 001c BB73     		strb	r3, [r7, #14]
 5228 001e 3BE0     		b	.L290
 5229              	.L293:
 5230              	.LBB4:
2067:u8glib_arm_v1.18.1\src/chessengine.c ****       {
2068:u8glib_arm_v1.18.1\src/chessengine.c ****         uint8_t x,y;
2069:u8glib_arm_v1.18.1\src/chessengine.c ****         x = i;
 5231              		.loc 1 2069 0
 5232 0020 FB7B     		ldrb	r3, [r7, #15]
 5233 0022 3B73     		strb	r3, [r7, #12]
2070:u8glib_arm_v1.18.1\src/chessengine.c ****         x*=chess_boxsize;
 5234              		.loc 1 2070 0
 5235 0024 A24B     		ldr	r3, .L310+4
 5236 0026 1B78     		ldrb	r3, [r3]	@ zero_extendqisi2
 5237 0028 3A7B     		ldrb	r2, [r7, #12]
 5238 002a 02FB03F3 		mul	r3, r2, r3
 5239 002e 3B73     		strb	r3, [r7, #12]
2071:u8glib_arm_v1.18.1\src/chessengine.c ****         y = j;
 5240              		.loc 1 2071 0
 5241 0030 BB7B     		ldrb	r3, [r7, #14]
 5242 0032 FB72     		strb	r3, [r7, #11]
2072:u8glib_arm_v1.18.1\src/chessengine.c ****         y*=chess_boxsize;
 5243              		.loc 1 2072 0
 5244 0034 9E4B     		ldr	r3, .L310+4
 5245 0036 1B78     		ldrb	r3, [r3]	@ zero_extendqisi2
 5246 0038 FA7A     		ldrb	r2, [r7, #11]
 5247 003a 02FB03F3 		mul	r3, r2, r3
 5248 003e FB72     		strb	r3, [r7, #11]
2073:u8glib_arm_v1.18.1\src/chessengine.c ****         if ( ((i^j) & 1)  == 0 )
 5249              		.loc 1 2073 0
ARM GAS  C:\Users\KJA\AppData\Local\Temp\ccNNA7zi.s 			page 130


 5250 0040 FA7B     		ldrb	r2, [r7, #15]
 5251 0042 BB7B     		ldrb	r3, [r7, #14]
 5252 0044 5340     		eors	r3, r3, r2
 5253 0046 DBB2     		uxtb	r3, r3
 5254 0048 03F00103 		and	r3, r3, #1
 5255 004c 002B     		cmp	r3, #0
 5256 004e 05D1     		bne	.L291
2074:u8glib_arm_v1.18.1\src/chessengine.c ****           u8g_SetDefaultMidColor(lrc_u8g);  
 5257              		.loc 1 2074 0
 5258 0050 964B     		ldr	r3, .L310
 5259 0052 1B68     		ldr	r3, [r3]
 5260 0054 1846     		mov	r0, r3
 5261 0056 FFF7FEFF 		bl	u8g_SetDefaultMidColor
 5262 005a 04E0     		b	.L292
 5263              	.L291:
2075:u8glib_arm_v1.18.1\src/chessengine.c ****         else
2076:u8glib_arm_v1.18.1\src/chessengine.c ****           u8g_SetDefaultBackgroundColor(lrc_u8g);  
 5264              		.loc 1 2076 0
 5265 005c 934B     		ldr	r3, .L310
 5266 005e 1B68     		ldr	r3, [r3]
 5267 0060 1846     		mov	r0, r3
 5268 0062 FFF7FEFF 		bl	u8g_SetDefaultBackgroundColor
 5269              	.L292:
2077:u8glib_arm_v1.18.1\src/chessengine.c ****         u8g_DrawBox(lrc_u8g, x,chess_low_edge-y-chess_boxsize+1,chess_boxsize,chess_boxsize);
 5270              		.loc 1 2077 0 discriminator 2
 5271 0066 914B     		ldr	r3, .L310
 5272 0068 1868     		ldr	r0, [r3]
 5273 006a 924B     		ldr	r3, .L310+8
 5274 006c 1A78     		ldrb	r2, [r3]	@ zero_extendqisi2
 5275 006e FB7A     		ldrb	r3, [r7, #11]
 5276 0070 D31A     		subs	r3, r2, r3
 5277 0072 DAB2     		uxtb	r2, r3
 5278 0074 8E4B     		ldr	r3, .L310+4
 5279 0076 1B78     		ldrb	r3, [r3]	@ zero_extendqisi2
 5280 0078 D31A     		subs	r3, r2, r3
 5281 007a DBB2     		uxtb	r3, r3
 5282 007c 0133     		adds	r3, r3, #1
 5283 007e DAB2     		uxtb	r2, r3
 5284 0080 8B4B     		ldr	r3, .L310+4
 5285 0082 1C78     		ldrb	r4, [r3]	@ zero_extendqisi2
 5286 0084 8A4B     		ldr	r3, .L310+4
 5287 0086 1B78     		ldrb	r3, [r3]	@ zero_extendqisi2
 5288 0088 397B     		ldrb	r1, [r7, #12]	@ zero_extendqisi2
 5289 008a 0093     		str	r3, [sp]
 5290 008c 2346     		mov	r3, r4
 5291 008e FFF7FEFF 		bl	u8g_DrawBox
 5292              	.LBE4:
2066:u8glib_arm_v1.18.1\src/chessengine.c ****       {
 5293              		.loc 1 2066 0 discriminator 2
 5294 0092 BB7B     		ldrb	r3, [r7, #14]	@ zero_extendqisi2
 5295 0094 0133     		adds	r3, r3, #1
 5296 0096 BB73     		strb	r3, [r7, #14]
 5297              	.L290:
2066:u8glib_arm_v1.18.1\src/chessengine.c ****       {
 5298              		.loc 1 2066 0 is_stmt 0 discriminator 1
 5299 0098 BB7B     		ldrb	r3, [r7, #14]	@ zero_extendqisi2
 5300 009a 072B     		cmp	r3, #7
ARM GAS  C:\Users\KJA\AppData\Local\Temp\ccNNA7zi.s 			page 131


 5301 009c C0D9     		bls	.L293
2065:u8glib_arm_v1.18.1\src/chessengine.c ****       for( j = 0; j < 8; j++ )
 5302              		.loc 1 2065 0 is_stmt 1 discriminator 2
 5303 009e FB7B     		ldrb	r3, [r7, #15]	@ zero_extendqisi2
 5304 00a0 0133     		adds	r3, r3, #1
 5305 00a2 FB73     		strb	r3, [r7, #15]
 5306              	.L289:
2065:u8glib_arm_v1.18.1\src/chessengine.c ****       for( j = 0; j < 8; j++ )
 5307              		.loc 1 2065 0 is_stmt 0 discriminator 1
 5308 00a4 FB7B     		ldrb	r3, [r7, #15]	@ zero_extendqisi2
 5309 00a6 072B     		cmp	r3, #7
 5310 00a8 B7D9     		bls	.L294
 5311 00aa EBE0     		b	.L295
 5312              	.L288:
 5313              	.LBB5:
2078:u8glib_arm_v1.18.1\src/chessengine.c ****       }
2079:u8glib_arm_v1.18.1\src/chessengine.c ****     //u8g_SetDefaultForegroundColor(lrc_u8g);  
2080:u8glib_arm_v1.18.1\src/chessengine.c ****   }
2081:u8glib_arm_v1.18.1\src/chessengine.c ****   else
2082:u8glib_arm_v1.18.1\src/chessengine.c ****   {
2083:u8glib_arm_v1.18.1\src/chessengine.c ****     uint8_t x_offset = 1;
 5314              		.loc 1 2083 0 is_stmt 1
 5315 00ac 0123     		movs	r3, #1
 5316 00ae BB72     		strb	r3, [r7, #10]
2084:u8glib_arm_v1.18.1\src/chessengine.c ****     u8g_SetDefaultForegroundColor(lrc_u8g);  
 5317              		.loc 1 2084 0
 5318 00b0 7E4B     		ldr	r3, .L310
 5319 00b2 1B68     		ldr	r3, [r3]
 5320 00b4 1846     		mov	r0, r3
 5321 00b6 FFF7FEFF 		bl	u8g_SetDefaultForegroundColor
2085:u8glib_arm_v1.18.1\src/chessengine.c ****     for( i = 0; i < 8*8; i+=8 )
 5322              		.loc 1 2085 0
 5323 00ba 0023     		movs	r3, #0
 5324 00bc FB73     		strb	r3, [r7, #15]
 5325 00be DDE0     		b	.L296
 5326              	.L300:
2086:u8glib_arm_v1.18.1\src/chessengine.c ****     {
2087:u8glib_arm_v1.18.1\src/chessengine.c ****       for( j = 0; j < 8*8; j+=8 )
 5327              		.loc 1 2087 0
 5328 00c0 0023     		movs	r3, #0
 5329 00c2 BB73     		strb	r3, [r7, #14]
 5330 00c4 D3E0     		b	.L297
 5331              	.L299:
2088:u8glib_arm_v1.18.1\src/chessengine.c ****       {
2089:u8glib_arm_v1.18.1\src/chessengine.c ****         if ( ((i^j) & 8)  == 0 )
 5332              		.loc 1 2089 0
 5333 00c6 FA7B     		ldrb	r2, [r7, #15]
 5334 00c8 BB7B     		ldrb	r3, [r7, #14]
 5335 00ca 5340     		eors	r3, r3, r2
 5336 00cc DBB2     		uxtb	r3, r3
 5337 00ce 03F00803 		and	r3, r3, #8
 5338 00d2 002B     		cmp	r3, #0
 5339 00d4 40F0C880 		bne	.L298
2090:u8glib_arm_v1.18.1\src/chessengine.c ****         {
2091:u8glib_arm_v1.18.1\src/chessengine.c ****           u8g_DrawPixel(lrc_u8g, j+0+x_offset, chess_low_edge - i-0);
 5340              		.loc 1 2091 0
 5341 00d8 744B     		ldr	r3, .L310
ARM GAS  C:\Users\KJA\AppData\Local\Temp\ccNNA7zi.s 			page 132


 5342 00da 1868     		ldr	r0, [r3]
 5343 00dc BA7B     		ldrb	r2, [r7, #14]
 5344 00de BB7A     		ldrb	r3, [r7, #10]
 5345 00e0 1344     		add	r3, r3, r2
 5346 00e2 D9B2     		uxtb	r1, r3
 5347 00e4 734B     		ldr	r3, .L310+8
 5348 00e6 1A78     		ldrb	r2, [r3]	@ zero_extendqisi2
 5349 00e8 FB7B     		ldrb	r3, [r7, #15]
 5350 00ea D31A     		subs	r3, r2, r3
 5351 00ec DBB2     		uxtb	r3, r3
 5352 00ee 1A46     		mov	r2, r3
 5353 00f0 FFF7FEFF 		bl	u8g_DrawPixel
2092:u8glib_arm_v1.18.1\src/chessengine.c ****           u8g_DrawPixel(lrc_u8g, j+0+x_offset, chess_low_edge - i-2);
 5354              		.loc 1 2092 0
 5355 00f4 6D4B     		ldr	r3, .L310
 5356 00f6 1868     		ldr	r0, [r3]
 5357 00f8 BA7B     		ldrb	r2, [r7, #14]
 5358 00fa BB7A     		ldrb	r3, [r7, #10]
 5359 00fc 1344     		add	r3, r3, r2
 5360 00fe D9B2     		uxtb	r1, r3
 5361 0100 6C4B     		ldr	r3, .L310+8
 5362 0102 1A78     		ldrb	r2, [r3]	@ zero_extendqisi2
 5363 0104 FB7B     		ldrb	r3, [r7, #15]
 5364 0106 D31A     		subs	r3, r2, r3
 5365 0108 DBB2     		uxtb	r3, r3
 5366 010a 023B     		subs	r3, r3, #2
 5367 010c DBB2     		uxtb	r3, r3
 5368 010e 1A46     		mov	r2, r3
 5369 0110 FFF7FEFF 		bl	u8g_DrawPixel
2093:u8glib_arm_v1.18.1\src/chessengine.c ****           u8g_DrawPixel(lrc_u8g, j+0+x_offset, chess_low_edge - i-4);
 5370              		.loc 1 2093 0
 5371 0114 654B     		ldr	r3, .L310
 5372 0116 1868     		ldr	r0, [r3]
 5373 0118 BA7B     		ldrb	r2, [r7, #14]
 5374 011a BB7A     		ldrb	r3, [r7, #10]
 5375 011c 1344     		add	r3, r3, r2
 5376 011e D9B2     		uxtb	r1, r3
 5377 0120 644B     		ldr	r3, .L310+8
 5378 0122 1A78     		ldrb	r2, [r3]	@ zero_extendqisi2
 5379 0124 FB7B     		ldrb	r3, [r7, #15]
 5380 0126 D31A     		subs	r3, r2, r3
 5381 0128 DBB2     		uxtb	r3, r3
 5382 012a 043B     		subs	r3, r3, #4
 5383 012c DBB2     		uxtb	r3, r3
 5384 012e 1A46     		mov	r2, r3
 5385 0130 FFF7FEFF 		bl	u8g_DrawPixel
2094:u8glib_arm_v1.18.1\src/chessengine.c ****           u8g_DrawPixel(lrc_u8g, j+0+x_offset, chess_low_edge - i-6);
 5386              		.loc 1 2094 0
 5387 0134 5D4B     		ldr	r3, .L310
 5388 0136 1868     		ldr	r0, [r3]
 5389 0138 BA7B     		ldrb	r2, [r7, #14]
 5390 013a BB7A     		ldrb	r3, [r7, #10]
 5391 013c 1344     		add	r3, r3, r2
 5392 013e D9B2     		uxtb	r1, r3
 5393 0140 5C4B     		ldr	r3, .L310+8
 5394 0142 1A78     		ldrb	r2, [r3]	@ zero_extendqisi2
 5395 0144 FB7B     		ldrb	r3, [r7, #15]
ARM GAS  C:\Users\KJA\AppData\Local\Temp\ccNNA7zi.s 			page 133


 5396 0146 D31A     		subs	r3, r2, r3
 5397 0148 DBB2     		uxtb	r3, r3
 5398 014a 063B     		subs	r3, r3, #6
 5399 014c DBB2     		uxtb	r3, r3
 5400 014e 1A46     		mov	r2, r3
 5401 0150 FFF7FEFF 		bl	u8g_DrawPixel
2095:u8glib_arm_v1.18.1\src/chessengine.c ****           u8g_DrawPixel(lrc_u8g, j+2+x_offset, chess_low_edge - i-0);
 5402              		.loc 1 2095 0
 5403 0154 554B     		ldr	r3, .L310
 5404 0156 1868     		ldr	r0, [r3]
 5405 0158 BA7B     		ldrb	r2, [r7, #14]
 5406 015a BB7A     		ldrb	r3, [r7, #10]
 5407 015c 1344     		add	r3, r3, r2
 5408 015e DBB2     		uxtb	r3, r3
 5409 0160 0233     		adds	r3, r3, #2
 5410 0162 D9B2     		uxtb	r1, r3
 5411 0164 534B     		ldr	r3, .L310+8
 5412 0166 1A78     		ldrb	r2, [r3]	@ zero_extendqisi2
 5413 0168 FB7B     		ldrb	r3, [r7, #15]
 5414 016a D31A     		subs	r3, r2, r3
 5415 016c DBB2     		uxtb	r3, r3
 5416 016e 1A46     		mov	r2, r3
 5417 0170 FFF7FEFF 		bl	u8g_DrawPixel
2096:u8glib_arm_v1.18.1\src/chessengine.c ****           u8g_DrawPixel(lrc_u8g, j+2+x_offset, chess_low_edge - i-6);
 5418              		.loc 1 2096 0
 5419 0174 4D4B     		ldr	r3, .L310
 5420 0176 1868     		ldr	r0, [r3]
 5421 0178 BA7B     		ldrb	r2, [r7, #14]
 5422 017a BB7A     		ldrb	r3, [r7, #10]
 5423 017c 1344     		add	r3, r3, r2
 5424 017e DBB2     		uxtb	r3, r3
 5425 0180 0233     		adds	r3, r3, #2
 5426 0182 D9B2     		uxtb	r1, r3
 5427 0184 4B4B     		ldr	r3, .L310+8
 5428 0186 1A78     		ldrb	r2, [r3]	@ zero_extendqisi2
 5429 0188 FB7B     		ldrb	r3, [r7, #15]
 5430 018a D31A     		subs	r3, r2, r3
 5431 018c DBB2     		uxtb	r3, r3
 5432 018e 063B     		subs	r3, r3, #6
 5433 0190 DBB2     		uxtb	r3, r3
 5434 0192 1A46     		mov	r2, r3
 5435 0194 FFF7FEFF 		bl	u8g_DrawPixel
2097:u8glib_arm_v1.18.1\src/chessengine.c ****           u8g_DrawPixel(lrc_u8g, j+4+x_offset, chess_low_edge - i-0);
 5436              		.loc 1 2097 0
 5437 0198 444B     		ldr	r3, .L310
 5438 019a 1868     		ldr	r0, [r3]
 5439 019c BA7B     		ldrb	r2, [r7, #14]
 5440 019e BB7A     		ldrb	r3, [r7, #10]
 5441 01a0 1344     		add	r3, r3, r2
 5442 01a2 DBB2     		uxtb	r3, r3
 5443 01a4 0433     		adds	r3, r3, #4
 5444 01a6 D9B2     		uxtb	r1, r3
 5445 01a8 424B     		ldr	r3, .L310+8
 5446 01aa 1A78     		ldrb	r2, [r3]	@ zero_extendqisi2
 5447 01ac FB7B     		ldrb	r3, [r7, #15]
 5448 01ae D31A     		subs	r3, r2, r3
 5449 01b0 DBB2     		uxtb	r3, r3
ARM GAS  C:\Users\KJA\AppData\Local\Temp\ccNNA7zi.s 			page 134


 5450 01b2 1A46     		mov	r2, r3
 5451 01b4 FFF7FEFF 		bl	u8g_DrawPixel
2098:u8glib_arm_v1.18.1\src/chessengine.c ****           u8g_DrawPixel(lrc_u8g, j+4+x_offset, chess_low_edge - i-6);
 5452              		.loc 1 2098 0
 5453 01b8 3C4B     		ldr	r3, .L310
 5454 01ba 1868     		ldr	r0, [r3]
 5455 01bc BA7B     		ldrb	r2, [r7, #14]
 5456 01be BB7A     		ldrb	r3, [r7, #10]
 5457 01c0 1344     		add	r3, r3, r2
 5458 01c2 DBB2     		uxtb	r3, r3
 5459 01c4 0433     		adds	r3, r3, #4
 5460 01c6 D9B2     		uxtb	r1, r3
 5461 01c8 3A4B     		ldr	r3, .L310+8
 5462 01ca 1A78     		ldrb	r2, [r3]	@ zero_extendqisi2
 5463 01cc FB7B     		ldrb	r3, [r7, #15]
 5464 01ce D31A     		subs	r3, r2, r3
 5465 01d0 DBB2     		uxtb	r3, r3
 5466 01d2 063B     		subs	r3, r3, #6
 5467 01d4 DBB2     		uxtb	r3, r3
 5468 01d6 1A46     		mov	r2, r3
 5469 01d8 FFF7FEFF 		bl	u8g_DrawPixel
2099:u8glib_arm_v1.18.1\src/chessengine.c ****           u8g_DrawPixel(lrc_u8g, j+6+x_offset, chess_low_edge - i-0);
 5470              		.loc 1 2099 0
 5471 01dc 334B     		ldr	r3, .L310
 5472 01de 1868     		ldr	r0, [r3]
 5473 01e0 BA7B     		ldrb	r2, [r7, #14]
 5474 01e2 BB7A     		ldrb	r3, [r7, #10]
 5475 01e4 1344     		add	r3, r3, r2
 5476 01e6 DBB2     		uxtb	r3, r3
 5477 01e8 0633     		adds	r3, r3, #6
 5478 01ea D9B2     		uxtb	r1, r3
 5479 01ec 314B     		ldr	r3, .L310+8
 5480 01ee 1A78     		ldrb	r2, [r3]	@ zero_extendqisi2
 5481 01f0 FB7B     		ldrb	r3, [r7, #15]
 5482 01f2 D31A     		subs	r3, r2, r3
 5483 01f4 DBB2     		uxtb	r3, r3
 5484 01f6 1A46     		mov	r2, r3
 5485 01f8 FFF7FEFF 		bl	u8g_DrawPixel
2100:u8glib_arm_v1.18.1\src/chessengine.c ****           u8g_DrawPixel(lrc_u8g, j+6+x_offset, chess_low_edge - i-2);
 5486              		.loc 1 2100 0
 5487 01fc 2B4B     		ldr	r3, .L310
 5488 01fe 1868     		ldr	r0, [r3]
 5489 0200 BA7B     		ldrb	r2, [r7, #14]
 5490 0202 BB7A     		ldrb	r3, [r7, #10]
 5491 0204 1344     		add	r3, r3, r2
 5492 0206 DBB2     		uxtb	r3, r3
 5493 0208 0633     		adds	r3, r3, #6
 5494 020a D9B2     		uxtb	r1, r3
 5495 020c 294B     		ldr	r3, .L310+8
 5496 020e 1A78     		ldrb	r2, [r3]	@ zero_extendqisi2
 5497 0210 FB7B     		ldrb	r3, [r7, #15]
 5498 0212 D31A     		subs	r3, r2, r3
 5499 0214 DBB2     		uxtb	r3, r3
 5500 0216 023B     		subs	r3, r3, #2
 5501 0218 DBB2     		uxtb	r3, r3
 5502 021a 1A46     		mov	r2, r3
 5503 021c FFF7FEFF 		bl	u8g_DrawPixel
ARM GAS  C:\Users\KJA\AppData\Local\Temp\ccNNA7zi.s 			page 135


2101:u8glib_arm_v1.18.1\src/chessengine.c ****           u8g_DrawPixel(lrc_u8g, j+6+x_offset, chess_low_edge - i-4);
 5504              		.loc 1 2101 0
 5505 0220 224B     		ldr	r3, .L310
 5506 0222 1868     		ldr	r0, [r3]
 5507 0224 BA7B     		ldrb	r2, [r7, #14]
 5508 0226 BB7A     		ldrb	r3, [r7, #10]
 5509 0228 1344     		add	r3, r3, r2
 5510 022a DBB2     		uxtb	r3, r3
 5511 022c 0633     		adds	r3, r3, #6
 5512 022e D9B2     		uxtb	r1, r3
 5513 0230 204B     		ldr	r3, .L310+8
 5514 0232 1A78     		ldrb	r2, [r3]	@ zero_extendqisi2
 5515 0234 FB7B     		ldrb	r3, [r7, #15]
 5516 0236 D31A     		subs	r3, r2, r3
 5517 0238 DBB2     		uxtb	r3, r3
 5518 023a 043B     		subs	r3, r3, #4
 5519 023c DBB2     		uxtb	r3, r3
 5520 023e 1A46     		mov	r2, r3
 5521 0240 FFF7FEFF 		bl	u8g_DrawPixel
2102:u8glib_arm_v1.18.1\src/chessengine.c ****           u8g_DrawPixel(lrc_u8g, j+6+x_offset, chess_low_edge - i-6);
 5522              		.loc 1 2102 0
 5523 0244 194B     		ldr	r3, .L310
 5524 0246 1868     		ldr	r0, [r3]
 5525 0248 BA7B     		ldrb	r2, [r7, #14]
 5526 024a BB7A     		ldrb	r3, [r7, #10]
 5527 024c 1344     		add	r3, r3, r2
 5528 024e DBB2     		uxtb	r3, r3
 5529 0250 0633     		adds	r3, r3, #6
 5530 0252 D9B2     		uxtb	r1, r3
 5531 0254 174B     		ldr	r3, .L310+8
 5532 0256 1A78     		ldrb	r2, [r3]	@ zero_extendqisi2
 5533 0258 FB7B     		ldrb	r3, [r7, #15]
 5534 025a D31A     		subs	r3, r2, r3
 5535 025c DBB2     		uxtb	r3, r3
 5536 025e 063B     		subs	r3, r3, #6
 5537 0260 DBB2     		uxtb	r3, r3
 5538 0262 1A46     		mov	r2, r3
 5539 0264 FFF7FEFF 		bl	u8g_DrawPixel
 5540              	.L298:
2087:u8glib_arm_v1.18.1\src/chessengine.c ****       {
 5541              		.loc 1 2087 0 discriminator 2
 5542 0268 BB7B     		ldrb	r3, [r7, #14]
 5543 026a 0833     		adds	r3, r3, #8
 5544 026c BB73     		strb	r3, [r7, #14]
 5545              	.L297:
2087:u8glib_arm_v1.18.1\src/chessengine.c ****       {
 5546              		.loc 1 2087 0 is_stmt 0 discriminator 1
 5547 026e BB7B     		ldrb	r3, [r7, #14]	@ zero_extendqisi2
 5548 0270 3F2B     		cmp	r3, #63
 5549 0272 7FF628AF 		bls	.L299
2085:u8glib_arm_v1.18.1\src/chessengine.c ****     {
 5550              		.loc 1 2085 0 is_stmt 1 discriminator 2
 5551 0276 FB7B     		ldrb	r3, [r7, #15]
 5552 0278 0833     		adds	r3, r3, #8
 5553 027a FB73     		strb	r3, [r7, #15]
 5554              	.L296:
2085:u8glib_arm_v1.18.1\src/chessengine.c ****     {
ARM GAS  C:\Users\KJA\AppData\Local\Temp\ccNNA7zi.s 			page 136


 5555              		.loc 1 2085 0 is_stmt 0 discriminator 1
 5556 027c FB7B     		ldrb	r3, [r7, #15]	@ zero_extendqisi2
 5557 027e 3F2B     		cmp	r3, #63
 5558 0280 7FF61EAF 		bls	.L300
 5559              	.L295:
 5560              	.LBE5:
2103:u8glib_arm_v1.18.1\src/chessengine.c ****         }
2104:u8glib_arm_v1.18.1\src/chessengine.c ****       }
2105:u8glib_arm_v1.18.1\src/chessengine.c ****     }
2106:u8glib_arm_v1.18.1\src/chessengine.c ****   }
2107:u8glib_arm_v1.18.1\src/chessengine.c ****   
2108:u8glib_arm_v1.18.1\src/chessengine.c ****   for ( i = 0; i < 8; i++ )
 5561              		.loc 1 2108 0 is_stmt 1
 5562 0284 0023     		movs	r3, #0
 5563 0286 FB73     		strb	r3, [r7, #15]
 5564 0288 ADE0     		b	.L301
 5565              	.L307:
2109:u8glib_arm_v1.18.1\src/chessengine.c ****   {
2110:u8glib_arm_v1.18.1\src/chessengine.c ****     for ( j = 0; j < 8; j++ )
 5566              		.loc 1 2110 0
 5567 028a 0023     		movs	r3, #0
 5568 028c BB73     		strb	r3, [r7, #14]
 5569 028e A3E0     		b	.L302
 5570              	.L306:
2111:u8glib_arm_v1.18.1\src/chessengine.c ****     {
2112:u8glib_arm_v1.18.1\src/chessengine.c ****       /* get piece from global board */
2113:u8glib_arm_v1.18.1\src/chessengine.c ****       if ( lrc_obj.orientation == COLOR_WHITE )
 5571              		.loc 1 2113 0
 5572 0290 094B     		ldr	r3, .L310+12
 5573 0292 93F84530 		ldrb	r3, [r3, #69]	@ zero_extendqisi2
 5574 0296 002B     		cmp	r3, #0
 5575 0298 10D1     		bne	.L303
2114:u8glib_arm_v1.18.1\src/chessengine.c ****       {
2115:u8glib_arm_v1.18.1\src/chessengine.c **** 	cp =  lrc_obj.board[i*8+j];
 5576              		.loc 1 2115 0
 5577 029a FB7B     		ldrb	r3, [r7, #15]	@ zero_extendqisi2
 5578 029c DA00     		lsls	r2, r3, #3
 5579 029e BB7B     		ldrb	r3, [r7, #14]	@ zero_extendqisi2
 5580 02a0 1344     		add	r3, r3, r2
 5581 02a2 054A     		ldr	r2, .L310+12
 5582 02a4 1344     		add	r3, r3, r2
 5583 02a6 9B78     		ldrb	r3, [r3, #2]
 5584 02a8 7B73     		strb	r3, [r7, #13]
 5585 02aa 12E0     		b	.L304
 5586              	.L311:
 5587              		.align	2
 5588              	.L310:
 5589 02ac 00000000 		.word	lrc_u8g
 5590 02b0 00000000 		.word	chess_boxsize
 5591 02b4 00000000 		.word	chess_low_edge
 5592 02b8 00000000 		.word	lrc_obj
 5593              	.L303:
2116:u8glib_arm_v1.18.1\src/chessengine.c ****       }
2117:u8glib_arm_v1.18.1\src/chessengine.c ****       else
2118:u8glib_arm_v1.18.1\src/chessengine.c ****       {
2119:u8glib_arm_v1.18.1\src/chessengine.c **** 	cp =  lrc_obj.board[(7-i)*8+7-j];
 5594              		.loc 1 2119 0
ARM GAS  C:\Users\KJA\AppData\Local\Temp\ccNNA7zi.s 			page 137


 5595 02bc FB7B     		ldrb	r3, [r7, #15]	@ zero_extendqisi2
 5596 02be C3F10703 		rsb	r3, r3, #7
 5597 02c2 DB00     		lsls	r3, r3, #3
 5598 02c4 DA1D     		adds	r2, r3, #7
 5599 02c6 BB7B     		ldrb	r3, [r7, #14]	@ zero_extendqisi2
 5600 02c8 D31A     		subs	r3, r2, r3
 5601 02ca 564A     		ldr	r2, .L312
 5602 02cc 1344     		add	r3, r3, r2
 5603 02ce 9B78     		ldrb	r3, [r3, #2]
 5604 02d0 7B73     		strb	r3, [r7, #13]
 5605              	.L304:
2120:u8glib_arm_v1.18.1\src/chessengine.c ****       }
2121:u8glib_arm_v1.18.1\src/chessengine.c ****       if ( cp_GetPiece(cp) != PIECE_NONE )
 5606              		.loc 1 2121 0
 5607 02d2 7B7B     		ldrb	r3, [r7, #13]	@ zero_extendqisi2
 5608 02d4 1846     		mov	r0, r3
 5609 02d6 FFF7FEFF 		bl	cp_GetPiece
 5610 02da 0346     		mov	r3, r0
 5611 02dc 002B     		cmp	r3, #0
 5612 02de 78D0     		beq	.L305
2122:u8glib_arm_v1.18.1\src/chessengine.c ****       {
2123:u8glib_arm_v1.18.1\src/chessengine.c **** 	ptr = chess_black_pieces_bm;
 5613              		.loc 1 2123 0
 5614 02e0 514B     		ldr	r3, .L312+4
 5615 02e2 7B60     		str	r3, [r7, #4]
2124:u8glib_arm_v1.18.1\src/chessengine.c **** 	ptr += (cp_GetPiece(cp)-1)*8;
 5616              		.loc 1 2124 0
 5617 02e4 7B7B     		ldrb	r3, [r7, #13]	@ zero_extendqisi2
 5618 02e6 1846     		mov	r0, r3
 5619 02e8 FFF7FEFF 		bl	cp_GetPiece
 5620 02ec 0346     		mov	r3, r0
 5621 02ee 013B     		subs	r3, r3, #1
 5622 02f0 DB00     		lsls	r3, r3, #3
 5623 02f2 1A46     		mov	r2, r3
 5624 02f4 7B68     		ldr	r3, [r7, #4]
 5625 02f6 1344     		add	r3, r3, r2
 5626 02f8 7B60     		str	r3, [r7, #4]
2125:u8glib_arm_v1.18.1\src/chessengine.c ****         u8g_SetDefaultForegroundColor(lrc_u8g);
 5627              		.loc 1 2125 0
 5628 02fa 4C4B     		ldr	r3, .L312+8
 5629 02fc 1B68     		ldr	r3, [r3]
 5630 02fe 1846     		mov	r0, r3
 5631 0300 FFF7FEFF 		bl	u8g_SetDefaultForegroundColor
2126:u8glib_arm_v1.18.1\src/chessengine.c ****         u8g_DrawBitmapP(lrc_u8g, j*chess_boxsize+chess_boxoffset-1, chess_low_edge - (i*chess_boxsi
 5632              		.loc 1 2126 0
 5633 0304 494B     		ldr	r3, .L312+8
 5634 0306 1868     		ldr	r0, [r3]
 5635 0308 494B     		ldr	r3, .L312+12
 5636 030a 1B78     		ldrb	r3, [r3]	@ zero_extendqisi2
 5637 030c BA7B     		ldrb	r2, [r7, #14]
 5638 030e 02FB03F3 		mul	r3, r2, r3
 5639 0312 DAB2     		uxtb	r2, r3
 5640 0314 474B     		ldr	r3, .L312+16
 5641 0316 1B78     		ldrb	r3, [r3]	@ zero_extendqisi2
 5642 0318 1344     		add	r3, r3, r2
 5643 031a DBB2     		uxtb	r3, r3
 5644 031c 013B     		subs	r3, r3, #1
ARM GAS  C:\Users\KJA\AppData\Local\Temp\ccNNA7zi.s 			page 138


 5645 031e D9B2     		uxtb	r1, r3
 5646 0320 FB7B     		ldrb	r3, [r7, #15]	@ zero_extendqisi2
 5647 0322 DB43     		mvns	r3, r3
 5648 0324 DBB2     		uxtb	r3, r3
 5649 0326 424A     		ldr	r2, .L312+12
 5650 0328 1278     		ldrb	r2, [r2]	@ zero_extendqisi2
 5651 032a 02FB03F3 		mul	r3, r2, r3
 5652 032e DAB2     		uxtb	r2, r3
 5653 0330 404B     		ldr	r3, .L312+16
 5654 0332 1B78     		ldrb	r3, [r3]	@ zero_extendqisi2
 5655 0334 1344     		add	r3, r3, r2
 5656 0336 DAB2     		uxtb	r2, r3
 5657 0338 3F4B     		ldr	r3, .L312+20
 5658 033a 1B78     		ldrb	r3, [r3]	@ zero_extendqisi2
 5659 033c 1344     		add	r3, r3, r2
 5660 033e DAB2     		uxtb	r2, r3
 5661 0340 0823     		movs	r3, #8
 5662 0342 0093     		str	r3, [sp]
 5663 0344 7B68     		ldr	r3, [r7, #4]
 5664 0346 0193     		str	r3, [sp, #4]
 5665 0348 0123     		movs	r3, #1
 5666 034a FFF7FEFF 		bl	u8g_DrawBitmapP
2127:u8glib_arm_v1.18.1\src/chessengine.c ****         
2128:u8glib_arm_v1.18.1\src/chessengine.c **** 	if ( cp_GetColor(cp) == lrc_obj.strike_out_color ) 
 5667              		.loc 1 2128 0
 5668 034e 7B7B     		ldrb	r3, [r7, #13]	@ zero_extendqisi2
 5669 0350 1846     		mov	r0, r3
 5670 0352 FFF7FEFF 		bl	cp_GetColor
 5671 0356 0346     		mov	r3, r0
 5672 0358 1A46     		mov	r2, r3
 5673 035a 324B     		ldr	r3, .L312
 5674 035c 93F84630 		ldrb	r3, [r3, #70]	@ zero_extendqisi2
 5675 0360 9A42     		cmp	r2, r3
 5676 0362 36D1     		bne	.L305
2129:u8glib_arm_v1.18.1\src/chessengine.c **** 	{
2130:u8glib_arm_v1.18.1\src/chessengine.c **** 	  ptr = chess_pieces_body_bm;
 5677              		.loc 1 2130 0
 5678 0364 354B     		ldr	r3, .L312+24
 5679 0366 7B60     		str	r3, [r7, #4]
2131:u8glib_arm_v1.18.1\src/chessengine.c **** 	  ptr += (cp_GetPiece(cp)-1)*8;
 5680              		.loc 1 2131 0
 5681 0368 7B7B     		ldrb	r3, [r7, #13]	@ zero_extendqisi2
 5682 036a 1846     		mov	r0, r3
 5683 036c FFF7FEFF 		bl	cp_GetPiece
 5684 0370 0346     		mov	r3, r0
 5685 0372 013B     		subs	r3, r3, #1
 5686 0374 DB00     		lsls	r3, r3, #3
 5687 0376 1A46     		mov	r2, r3
 5688 0378 7B68     		ldr	r3, [r7, #4]
 5689 037a 1344     		add	r3, r3, r2
 5690 037c 7B60     		str	r3, [r7, #4]
2132:u8glib_arm_v1.18.1\src/chessengine.c ****           u8g_SetDefaultBackgroundColor(lrc_u8g);
 5691              		.loc 1 2132 0
 5692 037e 2B4B     		ldr	r3, .L312+8
 5693 0380 1B68     		ldr	r3, [r3]
 5694 0382 1846     		mov	r0, r3
 5695 0384 FFF7FEFF 		bl	u8g_SetDefaultBackgroundColor
ARM GAS  C:\Users\KJA\AppData\Local\Temp\ccNNA7zi.s 			page 139


2133:u8glib_arm_v1.18.1\src/chessengine.c ****           u8g_DrawBitmapP(lrc_u8g, j*chess_boxsize+chess_boxoffset-1, chess_low_edge - (i*chess_box
 5696              		.loc 1 2133 0
 5697 0388 284B     		ldr	r3, .L312+8
 5698 038a 1868     		ldr	r0, [r3]
 5699 038c 284B     		ldr	r3, .L312+12
 5700 038e 1B78     		ldrb	r3, [r3]	@ zero_extendqisi2
 5701 0390 BA7B     		ldrb	r2, [r7, #14]
 5702 0392 02FB03F3 		mul	r3, r2, r3
 5703 0396 DAB2     		uxtb	r2, r3
 5704 0398 264B     		ldr	r3, .L312+16
 5705 039a 1B78     		ldrb	r3, [r3]	@ zero_extendqisi2
 5706 039c 1344     		add	r3, r3, r2
 5707 039e DBB2     		uxtb	r3, r3
 5708 03a0 013B     		subs	r3, r3, #1
 5709 03a2 D9B2     		uxtb	r1, r3
 5710 03a4 FB7B     		ldrb	r3, [r7, #15]	@ zero_extendqisi2
 5711 03a6 DB43     		mvns	r3, r3
 5712 03a8 DBB2     		uxtb	r3, r3
 5713 03aa 214A     		ldr	r2, .L312+12
 5714 03ac 1278     		ldrb	r2, [r2]	@ zero_extendqisi2
 5715 03ae 02FB03F3 		mul	r3, r2, r3
 5716 03b2 DAB2     		uxtb	r2, r3
 5717 03b4 1F4B     		ldr	r3, .L312+16
 5718 03b6 1B78     		ldrb	r3, [r3]	@ zero_extendqisi2
 5719 03b8 1344     		add	r3, r3, r2
 5720 03ba DAB2     		uxtb	r2, r3
 5721 03bc 1E4B     		ldr	r3, .L312+20
 5722 03be 1B78     		ldrb	r3, [r3]	@ zero_extendqisi2
 5723 03c0 1344     		add	r3, r3, r2
 5724 03c2 DAB2     		uxtb	r2, r3
 5725 03c4 0823     		movs	r3, #8
 5726 03c6 0093     		str	r3, [sp]
 5727 03c8 7B68     		ldr	r3, [r7, #4]
 5728 03ca 0193     		str	r3, [sp, #4]
 5729 03cc 0123     		movs	r3, #1
 5730 03ce FFF7FEFF 		bl	u8g_DrawBitmapP
 5731              	.L305:
2110:u8glib_arm_v1.18.1\src/chessengine.c ****     {
 5732              		.loc 1 2110 0 discriminator 2
 5733 03d2 BB7B     		ldrb	r3, [r7, #14]	@ zero_extendqisi2
 5734 03d4 0133     		adds	r3, r3, #1
 5735 03d6 BB73     		strb	r3, [r7, #14]
 5736              	.L302:
2110:u8glib_arm_v1.18.1\src/chessengine.c ****     {
 5737              		.loc 1 2110 0 is_stmt 0 discriminator 1
 5738 03d8 BB7B     		ldrb	r3, [r7, #14]	@ zero_extendqisi2
 5739 03da 072B     		cmp	r3, #7
 5740 03dc 7FF658AF 		bls	.L306
2108:u8glib_arm_v1.18.1\src/chessengine.c ****   {
 5741              		.loc 1 2108 0 is_stmt 1 discriminator 2
 5742 03e0 FB7B     		ldrb	r3, [r7, #15]	@ zero_extendqisi2
 5743 03e2 0133     		adds	r3, r3, #1
 5744 03e4 FB73     		strb	r3, [r7, #15]
 5745              	.L301:
2108:u8glib_arm_v1.18.1\src/chessengine.c ****   {
 5746              		.loc 1 2108 0 is_stmt 0 discriminator 1
 5747 03e6 FB7B     		ldrb	r3, [r7, #15]	@ zero_extendqisi2
ARM GAS  C:\Users\KJA\AppData\Local\Temp\ccNNA7zi.s 			page 140


 5748 03e8 072B     		cmp	r3, #7
 5749 03ea 7FF64EAF 		bls	.L307
2134:u8glib_arm_v1.18.1\src/chessengine.c **** 	}
2135:u8glib_arm_v1.18.1\src/chessengine.c ****       }
2136:u8glib_arm_v1.18.1\src/chessengine.c ****     }
2137:u8glib_arm_v1.18.1\src/chessengine.c ****   }
2138:u8glib_arm_v1.18.1\src/chessengine.c ****   
2139:u8glib_arm_v1.18.1\src/chessengine.c ****   if ( (chess_source_pos & 0x88) == 0 )
 5750              		.loc 1 2139 0 is_stmt 1
 5751 03ee 144B     		ldr	r3, .L312+28
 5752 03f0 1B78     		ldrb	r3, [r3]	@ zero_extendqisi2
 5753 03f2 03F08803 		and	r3, r3, #136
 5754 03f6 002B     		cmp	r3, #0
 5755 03f8 05D1     		bne	.L308
2140:u8glib_arm_v1.18.1\src/chessengine.c ****   {
2141:u8glib_arm_v1.18.1\src/chessengine.c ****     chess_DrawFrame(chess_source_pos, 1);
 5756              		.loc 1 2141 0
 5757 03fa 114B     		ldr	r3, .L312+28
 5758 03fc 1B78     		ldrb	r3, [r3]	@ zero_extendqisi2
 5759 03fe 1846     		mov	r0, r3
 5760 0400 0121     		movs	r1, #1
 5761 0402 FFF7FEFF 		bl	chess_DrawFrame
 5762              	.L308:
2142:u8glib_arm_v1.18.1\src/chessengine.c ****   }
2143:u8glib_arm_v1.18.1\src/chessengine.c **** 
2144:u8glib_arm_v1.18.1\src/chessengine.c ****   if ( (chess_target_pos & 0x88) == 0 )
 5763              		.loc 1 2144 0
 5764 0406 0F4B     		ldr	r3, .L312+32
 5765 0408 1B78     		ldrb	r3, [r3]	@ zero_extendqisi2
 5766 040a 03F08803 		and	r3, r3, #136
 5767 040e 002B     		cmp	r3, #0
 5768 0410 05D1     		bne	.L287
2145:u8glib_arm_v1.18.1\src/chessengine.c ****   {
2146:u8glib_arm_v1.18.1\src/chessengine.c ****     chess_DrawFrame(chess_target_pos, 0);
 5769              		.loc 1 2146 0
 5770 0412 0C4B     		ldr	r3, .L312+32
 5771 0414 1B78     		ldrb	r3, [r3]	@ zero_extendqisi2
 5772 0416 1846     		mov	r0, r3
 5773 0418 0021     		movs	r1, #0
 5774 041a FFF7FEFF 		bl	chess_DrawFrame
 5775              	.L287:
2147:u8glib_arm_v1.18.1\src/chessengine.c ****   }
2148:u8glib_arm_v1.18.1\src/chessengine.c ****   
2149:u8glib_arm_v1.18.1\src/chessengine.c **** }
 5776              		.loc 1 2149 0
 5777 041e 1437     		adds	r7, r7, #20
 5778              		.cfi_def_cfa_offset 12
 5779 0420 BD46     		mov	sp, r7
 5780              		.cfi_def_cfa_register 13
 5781              		@ sp needed
 5782 0422 90BD     		pop	{r4, r7, pc}
 5783              	.L313:
 5784              		.align	2
 5785              	.L312:
 5786 0424 00000000 		.word	lrc_obj
 5787 0428 00000000 		.word	chess_black_pieces_bm
 5788 042c 00000000 		.word	lrc_u8g
ARM GAS  C:\Users\KJA\AppData\Local\Temp\ccNNA7zi.s 			page 141


 5789 0430 00000000 		.word	chess_boxsize
 5790 0434 00000000 		.word	chess_boxoffset
 5791 0438 00000000 		.word	chess_low_edge
 5792 043c 00000000 		.word	chess_pieces_body_bm
 5793 0440 00000000 		.word	chess_source_pos
 5794 0444 00000000 		.word	chess_target_pos
 5795              		.cfi_endproc
 5796              	.LFE53:
 5797              		.size	chess_DrawBoard, .-chess_DrawBoard
 5798              		.section	.text.chess_Thinking,"ax",%progbits
 5799              		.align	2
 5800              		.global	chess_Thinking
 5801              		.thumb
 5802              		.thumb_func
 5803              		.type	chess_Thinking, %function
 5804              	chess_Thinking:
 5805              	.LFB54:
2150:u8glib_arm_v1.18.1\src/chessengine.c **** 
2151:u8glib_arm_v1.18.1\src/chessengine.c **** 
2152:u8glib_arm_v1.18.1\src/chessengine.c **** void chess_Thinking(void)
2153:u8glib_arm_v1.18.1\src/chessengine.c **** {
 5806              		.loc 1 2153 0
 5807              		.cfi_startproc
 5808              		@ args = 0, pretend = 0, frame = 0
 5809              		@ frame_needed = 1, uses_anonymous_args = 0
 5810              		@ link register save eliminated.
 5811 0000 80B4     		push	{r7}
 5812              		.cfi_def_cfa_offset 4
 5813              		.cfi_offset 7, -4
 5814 0002 00AF     		add	r7, sp, #0
 5815              		.cfi_def_cfa_register 7
2154:u8glib_arm_v1.18.1\src/chessengine.c **** }
 5816              		.loc 1 2154 0
 5817 0004 BD46     		mov	sp, r7
 5818              		.cfi_def_cfa_register 13
 5819              		@ sp needed
 5820 0006 5DF8047B 		ldr	r7, [sp], #4
 5821              		.cfi_restore 7
 5822              		.cfi_def_cfa_offset 0
 5823 000a 7047     		bx	lr
 5824              		.cfi_endproc
 5825              	.LFE54:
 5826              		.size	chess_Thinking, .-chess_Thinking
 5827              		.section	.text.chess_Init,"ax",%progbits
 5828              		.align	2
 5829              		.global	chess_Init
 5830              		.thumb
 5831              		.thumb_func
 5832              		.type	chess_Init, %function
 5833              	chess_Init:
 5834              	.LFB55:
2155:u8glib_arm_v1.18.1\src/chessengine.c **** 
2156:u8glib_arm_v1.18.1\src/chessengine.c **** void chess_Init(u8g_t *u8g, uint8_t body_color)
2157:u8glib_arm_v1.18.1\src/chessengine.c **** {
 5835              		.loc 1 2157 0
 5836              		.cfi_startproc
 5837              		@ args = 0, pretend = 0, frame = 8
ARM GAS  C:\Users\KJA\AppData\Local\Temp\ccNNA7zi.s 			page 142


 5838              		@ frame_needed = 1, uses_anonymous_args = 0
 5839 0000 80B5     		push	{r7, lr}
 5840              		.cfi_def_cfa_offset 8
 5841              		.cfi_offset 7, -8
 5842              		.cfi_offset 14, -4
 5843 0002 82B0     		sub	sp, sp, #8
 5844              		.cfi_def_cfa_offset 16
 5845 0004 00AF     		add	r7, sp, #0
 5846              		.cfi_def_cfa_register 7
 5847 0006 7860     		str	r0, [r7, #4]
 5848 0008 0B46     		mov	r3, r1
 5849 000a FB70     		strb	r3, [r7, #3]
2158:u8glib_arm_v1.18.1\src/chessengine.c ****   lrc_u8g = u8g;
 5850              		.loc 1 2158 0
 5851 000c 284A     		ldr	r2, .L320
 5852 000e 7B68     		ldr	r3, [r7, #4]
 5853 0010 1360     		str	r3, [r2]
2159:u8glib_arm_v1.18.1\src/chessengine.c **** 
2160:u8glib_arm_v1.18.1\src/chessengine.c ****   chess_low_edge = u8g_GetHeight(lrc_u8g);
 5854              		.loc 1 2160 0
 5855 0012 274B     		ldr	r3, .L320
 5856 0014 1B68     		ldr	r3, [r3]
 5857 0016 5A78     		ldrb	r2, [r3, #1]	@ zero_extendqisi2
 5858 0018 264B     		ldr	r3, .L320+4
 5859 001a 1A70     		strb	r2, [r3]
2161:u8glib_arm_v1.18.1\src/chessengine.c ****   chess_low_edge--;
 5860              		.loc 1 2161 0
 5861 001c 254B     		ldr	r3, .L320+4
 5862 001e 1B78     		ldrb	r3, [r3]	@ zero_extendqisi2
 5863 0020 013B     		subs	r3, r3, #1
 5864 0022 DAB2     		uxtb	r2, r3
 5865 0024 234B     		ldr	r3, .L320+4
 5866 0026 1A70     		strb	r2, [r3]
2162:u8glib_arm_v1.18.1\src/chessengine.c ****   
2163:u8glib_arm_v1.18.1\src/chessengine.c **** 
2164:u8glib_arm_v1.18.1\src/chessengine.c ****   if ( U8G_MODE_GET_BITS_PER_PIXEL(u8g_GetMode(lrc_u8g)) == 1 )
 5867              		.loc 1 2164 0
 5868 0028 214B     		ldr	r3, .L320
 5869 002a 1B68     		ldr	r3, [r3]
 5870 002c DB7C     		ldrb	r3, [r3, #19]	@ zero_extendqisi2
 5871 002e 03F01F03 		and	r3, r3, #31
 5872 0032 012B     		cmp	r3, #1
 5873 0034 06D1     		bne	.L316
2165:u8glib_arm_v1.18.1\src/chessengine.c ****   {
2166:u8glib_arm_v1.18.1\src/chessengine.c ****   
2167:u8glib_arm_v1.18.1\src/chessengine.c ****     chess_boxsize = 8;
 5874              		.loc 1 2167 0
 5875 0036 204B     		ldr	r3, .L320+8
 5876 0038 0822     		movs	r2, #8
 5877 003a 1A70     		strb	r2, [r3]
2168:u8glib_arm_v1.18.1\src/chessengine.c ****     chess_boxoffset = 1;
 5878              		.loc 1 2168 0
 5879 003c 1F4B     		ldr	r3, .L320+12
 5880 003e 0122     		movs	r2, #1
 5881 0040 1A70     		strb	r2, [r3]
 5882 0042 2CE0     		b	.L317
 5883              	.L316:
ARM GAS  C:\Users\KJA\AppData\Local\Temp\ccNNA7zi.s 			page 143


2169:u8glib_arm_v1.18.1\src/chessengine.c ****   }
2170:u8glib_arm_v1.18.1\src/chessengine.c ****   else
2171:u8glib_arm_v1.18.1\src/chessengine.c ****   {
2172:u8glib_arm_v1.18.1\src/chessengine.c **** 
2173:u8glib_arm_v1.18.1\src/chessengine.c ****     /*    
2174:u8glib_arm_v1.18.1\src/chessengine.c ****     if ( u8g_GetHeight(lrc_u8g) >= 12*8 )
2175:u8glib_arm_v1.18.1\src/chessengine.c ****     {
2176:u8glib_arm_v1.18.1\src/chessengine.c ****       chess_boxsize = 12;
2177:u8glib_arm_v1.18.1\src/chessengine.c ****       chess_boxoffset = 3;
2178:u8glib_arm_v1.18.1\src/chessengine.c ****     }
2179:u8glib_arm_v1.18.1\src/chessengine.c ****     else */ if ( u8g_GetHeight(lrc_u8g) >= 11*8 )
 5884              		.loc 1 2179 0
 5885 0044 1A4B     		ldr	r3, .L320
 5886 0046 1B68     		ldr	r3, [r3]
 5887 0048 5B78     		ldrb	r3, [r3, #1]	@ zero_extendqisi2
 5888 004a 572B     		cmp	r3, #87
 5889 004c 06D9     		bls	.L318
2180:u8glib_arm_v1.18.1\src/chessengine.c ****     {
2181:u8glib_arm_v1.18.1\src/chessengine.c ****       chess_boxsize = 10;
 5890              		.loc 1 2181 0
 5891 004e 1A4B     		ldr	r3, .L320+8
 5892 0050 0A22     		movs	r2, #10
 5893 0052 1A70     		strb	r2, [r3]
2182:u8glib_arm_v1.18.1\src/chessengine.c ****       chess_boxoffset = 2;
 5894              		.loc 1 2182 0
 5895 0054 194B     		ldr	r3, .L320+12
 5896 0056 0222     		movs	r2, #2
 5897 0058 1A70     		strb	r2, [r3]
 5898 005a 05E0     		b	.L319
 5899              	.L318:
2183:u8glib_arm_v1.18.1\src/chessengine.c ****     }
2184:u8glib_arm_v1.18.1\src/chessengine.c ****     else
2185:u8glib_arm_v1.18.1\src/chessengine.c ****     {
2186:u8glib_arm_v1.18.1\src/chessengine.c ****       chess_boxsize = 8;
 5900              		.loc 1 2186 0
 5901 005c 164B     		ldr	r3, .L320+8
 5902 005e 0822     		movs	r2, #8
 5903 0060 1A70     		strb	r2, [r3]
2187:u8glib_arm_v1.18.1\src/chessengine.c ****       chess_boxoffset = 1;      
 5904              		.loc 1 2187 0
 5905 0062 164B     		ldr	r3, .L320+12
 5906 0064 0122     		movs	r2, #1
 5907 0066 1A70     		strb	r2, [r3]
 5908              	.L319:
2188:u8glib_arm_v1.18.1\src/chessengine.c ****     }
2189:u8glib_arm_v1.18.1\src/chessengine.c ****     
2190:u8glib_arm_v1.18.1\src/chessengine.c ****     if ( u8g_GetHeight(lrc_u8g) > 64 )
 5909              		.loc 1 2190 0
 5910 0068 114B     		ldr	r3, .L320
 5911 006a 1B68     		ldr	r3, [r3]
 5912 006c 5B78     		ldrb	r3, [r3, #1]	@ zero_extendqisi2
 5913 006e 402B     		cmp	r3, #64
 5914 0070 15D9     		bls	.L317
2191:u8glib_arm_v1.18.1\src/chessengine.c ****       chess_low_edge -= (u8g_GetHeight(lrc_u8g)-chess_boxsize*8) / 2;
 5915              		.loc 1 2191 0
 5916 0072 104B     		ldr	r3, .L320+4
 5917 0074 1A78     		ldrb	r2, [r3]	@ zero_extendqisi2
ARM GAS  C:\Users\KJA\AppData\Local\Temp\ccNNA7zi.s 			page 144


 5918 0076 0E4B     		ldr	r3, .L320
 5919 0078 1B68     		ldr	r3, [r3]
 5920 007a 5B78     		ldrb	r3, [r3, #1]	@ zero_extendqisi2
 5921 007c 1846     		mov	r0, r3
 5922 007e 0E4B     		ldr	r3, .L320+8
 5923 0080 1B78     		ldrb	r3, [r3]	@ zero_extendqisi2
 5924 0082 1946     		mov	r1, r3
 5925 0084 0B46     		mov	r3, r1
 5926 0086 5B07     		lsls	r3, r3, #29
 5927 0088 5B1A     		subs	r3, r3, r1
 5928 008a DB00     		lsls	r3, r3, #3
 5929 008c 0344     		add	r3, r3, r0
 5930 008e D90F     		lsrs	r1, r3, #31
 5931 0090 0B44     		add	r3, r3, r1
 5932 0092 5B10     		asrs	r3, r3, #1
 5933 0094 DBB2     		uxtb	r3, r3
 5934 0096 D31A     		subs	r3, r2, r3
 5935 0098 DAB2     		uxtb	r2, r3
 5936 009a 064B     		ldr	r3, .L320+4
 5937 009c 1A70     		strb	r2, [r3]
 5938              	.L317:
2192:u8glib_arm_v1.18.1\src/chessengine.c ****     
2193:u8glib_arm_v1.18.1\src/chessengine.c ****   }
2194:u8glib_arm_v1.18.1\src/chessengine.c ****     
2195:u8glib_arm_v1.18.1\src/chessengine.c ****   lrc_obj.strike_out_color = body_color;
 5939              		.loc 1 2195 0
 5940 009e 084A     		ldr	r2, .L320+16
 5941 00a0 FB78     		ldrb	r3, [r7, #3]
 5942 00a2 82F84630 		strb	r3, [r2, #70]
2196:u8glib_arm_v1.18.1\src/chessengine.c ****   chess_SetupBoard();
 5943              		.loc 1 2196 0
 5944 00a6 FFF7FEFF 		bl	chess_SetupBoard
2197:u8glib_arm_v1.18.1\src/chessengine.c **** }
 5945              		.loc 1 2197 0
 5946 00aa 0837     		adds	r7, r7, #8
 5947              		.cfi_def_cfa_offset 8
 5948 00ac BD46     		mov	sp, r7
 5949              		.cfi_def_cfa_register 13
 5950              		@ sp needed
 5951 00ae 80BD     		pop	{r7, pc}
 5952              	.L321:
 5953              		.align	2
 5954              	.L320:
 5955 00b0 00000000 		.word	lrc_u8g
 5956 00b4 00000000 		.word	chess_low_edge
 5957 00b8 00000000 		.word	chess_boxsize
 5958 00bc 00000000 		.word	chess_boxoffset
 5959 00c0 00000000 		.word	lrc_obj
 5960              		.cfi_endproc
 5961              	.LFE55:
 5962              		.size	chess_Init, .-chess_Init
 5963              		.section	.rodata
 5964              		.align	2
 5965              	.LC6:
 5966 00e0 426C6163 		.ascii	"Black wins\000"
 5966      6B207769 
 5966      6E7300
ARM GAS  C:\Users\KJA\AppData\Local\Temp\ccNNA7zi.s 			page 145


 5967 00eb 00       		.align	2
 5968              	.LC7:
 5969 00ec 57686974 		.ascii	"White wins\000"
 5969      65207769 
 5969      6E7300
 5970 00f7 00       		.align	2
 5971              	.LC8:
 5972 00f8 5374616C 		.ascii	"Stalemate\000"
 5972      656D6174 
 5972      6500
 5973 0102 0000     		.section	.text.chess_Draw,"ax",%progbits
 5974              		.align	2
 5975              		.global	chess_Draw
 5976              		.thumb
 5977              		.thumb_func
 5978              		.type	chess_Draw, %function
 5979              	chess_Draw:
 5980              	.LFB56:
2198:u8glib_arm_v1.18.1\src/chessengine.c **** 
2199:u8glib_arm_v1.18.1\src/chessengine.c **** 
2200:u8glib_arm_v1.18.1\src/chessengine.c **** 
2201:u8glib_arm_v1.18.1\src/chessengine.c **** void chess_Draw(void)
2202:u8glib_arm_v1.18.1\src/chessengine.c **** {
 5981              		.loc 1 2202 0
 5982              		.cfi_startproc
 5983              		@ args = 0, pretend = 0, frame = 8
 5984              		@ frame_needed = 1, uses_anonymous_args = 0
 5985 0000 F0B5     		push	{r4, r5, r6, r7, lr}
 5986              		.cfi_def_cfa_offset 20
 5987              		.cfi_offset 4, -20
 5988              		.cfi_offset 5, -16
 5989              		.cfi_offset 6, -12
 5990              		.cfi_offset 7, -8
 5991              		.cfi_offset 14, -4
 5992 0002 83B0     		sub	sp, sp, #12
 5993              		.cfi_def_cfa_offset 32
 5994 0004 00AF     		add	r7, sp, #0
 5995              		.cfi_def_cfa_register 7
2203:u8glib_arm_v1.18.1\src/chessengine.c ****   if ( chess_state == CHESS_STATE_MENU )
 5996              		.loc 1 2203 0
 5997 0006 544B     		ldr	r3, .L337
 5998 0008 1B78     		ldrb	r3, [r3]	@ zero_extendqisi2
 5999 000a 002B     		cmp	r3, #0
 6000 000c 0DD1     		bne	.L323
2204:u8glib_arm_v1.18.1\src/chessengine.c ****   {
2205:u8glib_arm_v1.18.1\src/chessengine.c ****     if ( lrc_obj.ply_count == 0)
 6001              		.loc 1 2205 0
 6002 000e 534B     		ldr	r3, .L337+4
 6003 0010 1B78     		ldrb	r3, [r3]	@ zero_extendqisi2
 6004 0012 002B     		cmp	r3, #0
 6005 0014 03D1     		bne	.L324
2206:u8glib_arm_v1.18.1\src/chessengine.c ****       mnu_max = 2;
 6006              		.loc 1 2206 0
 6007 0016 524B     		ldr	r3, .L337+8
 6008 0018 0222     		movs	r2, #2
 6009 001a 1A70     		strb	r2, [r3]
 6010 001c 02E0     		b	.L325
ARM GAS  C:\Users\KJA\AppData\Local\Temp\ccNNA7zi.s 			page 146


 6011              	.L324:
2207:u8glib_arm_v1.18.1\src/chessengine.c ****     else
2208:u8glib_arm_v1.18.1\src/chessengine.c ****       mnu_max = 4;
 6012              		.loc 1 2208 0
 6013 001e 504B     		ldr	r3, .L337+8
 6014 0020 0422     		movs	r2, #4
 6015 0022 1A70     		strb	r2, [r3]
 6016              	.L325:
2209:u8glib_arm_v1.18.1\src/chessengine.c ****     mnu_Draw();
 6017              		.loc 1 2209 0
 6018 0024 FFF7FEFF 		bl	mnu_Draw
 6019 0028 92E0     		b	.L322
 6020              	.L323:
2210:u8glib_arm_v1.18.1\src/chessengine.c ****   }
2211:u8glib_arm_v1.18.1\src/chessengine.c ****   else
2212:u8glib_arm_v1.18.1\src/chessengine.c ****   {
2213:u8glib_arm_v1.18.1\src/chessengine.c ****     chess_DrawBoard();
 6021              		.loc 1 2213 0
 6022 002a FFF7FEFF 		bl	chess_DrawBoard
 6023              	.LBB6:
2214:u8glib_arm_v1.18.1\src/chessengine.c ****     
2215:u8glib_arm_v1.18.1\src/chessengine.c ****     {
2216:u8glib_arm_v1.18.1\src/chessengine.c ****       uint8_t i;
2217:u8glib_arm_v1.18.1\src/chessengine.c ****       uint8_t entries = lrc_obj.chm_pos;
 6024              		.loc 1 2217 0
 6025 002e 4B4B     		ldr	r3, .L337+4
 6026 0030 5B78     		ldrb	r3, [r3, #1]
 6027 0032 BB71     		strb	r3, [r7, #6]
2218:u8glib_arm_v1.18.1\src/chessengine.c ****       if ( entries > 4 )
 6028              		.loc 1 2218 0
 6029 0034 BB79     		ldrb	r3, [r7, #6]	@ zero_extendqisi2
 6030 0036 042B     		cmp	r3, #4
 6031 0038 01D9     		bls	.L327
2219:u8glib_arm_v1.18.1\src/chessengine.c **** 	entries = 4;
 6032              		.loc 1 2219 0
 6033 003a 0423     		movs	r3, #4
 6034 003c BB71     		strb	r3, [r7, #6]
 6035              	.L327:
2220:u8glib_arm_v1.18.1\src/chessengine.c ****       
2221:u8glib_arm_v1.18.1\src/chessengine.c ****       u8g_SetFont(lrc_u8g, u8g_font_5x7);
 6036              		.loc 1 2221 0
 6037 003e 494B     		ldr	r3, .L337+12
 6038 0040 1B68     		ldr	r3, [r3]
 6039 0042 1846     		mov	r0, r3
 6040 0044 4849     		ldr	r1, .L337+16
 6041 0046 FFF7FEFF 		bl	u8g_SetFont
2222:u8glib_arm_v1.18.1\src/chessengine.c ****       u8g_SetDefaultForegroundColor(lrc_u8g);
 6042              		.loc 1 2222 0
 6043 004a 464B     		ldr	r3, .L337+12
 6044 004c 1B68     		ldr	r3, [r3]
 6045 004e 1846     		mov	r0, r3
 6046 0050 FFF7FEFF 		bl	u8g_SetDefaultForegroundColor
2223:u8glib_arm_v1.18.1\src/chessengine.c ****       for( i = 0; i < entries; i++ )
 6047              		.loc 1 2223 0
 6048 0054 0023     		movs	r3, #0
 6049 0056 FB71     		strb	r3, [r7, #7]
 6050 0058 1FE0     		b	.L328
ARM GAS  C:\Users\KJA\AppData\Local\Temp\ccNNA7zi.s 			page 147


 6051              	.L329:
2224:u8glib_arm_v1.18.1\src/chessengine.c ****       {
2225:u8glib_arm_v1.18.1\src/chessengine.c ****         
2226:u8glib_arm_v1.18.1\src/chessengine.c **** #if defined(DOGXL160_HW_GR) || defined(DOGXL160_HW_BW)
2227:u8glib_arm_v1.18.1\src/chessengine.c **** 	dog_DrawStr(u8g_GetWidth(lrc_u8g)-35, u8g_GetHeight(lrc_u8g)-8*(i+1), font_5x7, cu_GetHalfMoveStr(
2228:u8glib_arm_v1.18.1\src/chessengine.c **** #else
2229:u8glib_arm_v1.18.1\src/chessengine.c ****         u8g_DrawStr(lrc_u8g, u8g_GetWidth(lrc_u8g)-35, 8*(i+1), cu_GetHalfMoveStr(lrc_obj.chm_pos-e
 6052              		.loc 1 2229 0 discriminator 3
 6053 005a 424B     		ldr	r3, .L337+12
 6054 005c 1E68     		ldr	r6, [r3]
 6055 005e 414B     		ldr	r3, .L337+12
 6056 0060 1B68     		ldr	r3, [r3]
 6057 0062 1B78     		ldrb	r3, [r3]	@ zero_extendqisi2
 6058 0064 233B     		subs	r3, r3, #35
 6059 0066 DDB2     		uxtb	r5, r3
 6060 0068 FB79     		ldrb	r3, [r7, #7]	@ zero_extendqisi2
 6061 006a 0133     		adds	r3, r3, #1
 6062 006c DBB2     		uxtb	r3, r3
 6063 006e DB00     		lsls	r3, r3, #3
 6064 0070 DCB2     		uxtb	r4, r3
 6065 0072 3A4B     		ldr	r3, .L337+4
 6066 0074 5A78     		ldrb	r2, [r3, #1]	@ zero_extendqisi2
 6067 0076 BB79     		ldrb	r3, [r7, #6]
 6068 0078 D31A     		subs	r3, r2, r3
 6069 007a DAB2     		uxtb	r2, r3
 6070 007c FB79     		ldrb	r3, [r7, #7]
 6071 007e 1344     		add	r3, r3, r2
 6072 0080 DBB2     		uxtb	r3, r3
 6073 0082 1846     		mov	r0, r3
 6074 0084 FFF7FEFF 		bl	cu_GetHalfMoveStr
 6075 0088 0346     		mov	r3, r0
 6076 008a 3046     		mov	r0, r6
 6077 008c 2946     		mov	r1, r5
 6078 008e 2246     		mov	r2, r4
 6079 0090 FFF7FEFF 		bl	u8g_DrawStr
2223:u8glib_arm_v1.18.1\src/chessengine.c ****       for( i = 0; i < entries; i++ )
 6080              		.loc 1 2223 0 discriminator 3
 6081 0094 FB79     		ldrb	r3, [r7, #7]	@ zero_extendqisi2
 6082 0096 0133     		adds	r3, r3, #1
 6083 0098 FB71     		strb	r3, [r7, #7]
 6084              	.L328:
2223:u8glib_arm_v1.18.1\src/chessengine.c ****       for( i = 0; i < entries; i++ )
 6085              		.loc 1 2223 0 is_stmt 0 discriminator 1
 6086 009a FA79     		ldrb	r2, [r7, #7]	@ zero_extendqisi2
 6087 009c BB79     		ldrb	r3, [r7, #6]	@ zero_extendqisi2
 6088 009e 9A42     		cmp	r2, r3
 6089 00a0 DBD3     		bcc	.L329
 6090              	.LBE6:
2230:u8glib_arm_v1.18.1\src/chessengine.c **** #endif
2231:u8glib_arm_v1.18.1\src/chessengine.c **** 
2232:u8glib_arm_v1.18.1\src/chessengine.c ****       }
2233:u8glib_arm_v1.18.1\src/chessengine.c ****       
2234:u8glib_arm_v1.18.1\src/chessengine.c ****     }
2235:u8glib_arm_v1.18.1\src/chessengine.c ****     
2236:u8glib_arm_v1.18.1\src/chessengine.c ****     if ( chess_state == CHESS_STATE_SELECT_PIECE )
 6091              		.loc 1 2236 0 is_stmt 1
 6092 00a2 2D4B     		ldr	r3, .L337
ARM GAS  C:\Users\KJA\AppData\Local\Temp\ccNNA7zi.s 			page 148


 6093 00a4 1B78     		ldrb	r3, [r3]	@ zero_extendqisi2
 6094 00a6 022B     		cmp	r3, #2
 6095 00a8 0AD1     		bne	.L330
2237:u8glib_arm_v1.18.1\src/chessengine.c ****       mnu_DrawHome(chess_source_pos == 255);
 6096              		.loc 1 2237 0
 6097 00aa 304B     		ldr	r3, .L337+20
 6098 00ac 1B78     		ldrb	r3, [r3]	@ zero_extendqisi2
 6099 00ae FF2B     		cmp	r3, #255
 6100 00b0 0CBF     		ite	eq
 6101 00b2 0123     		moveq	r3, #1
 6102 00b4 0023     		movne	r3, #0
 6103 00b6 DBB2     		uxtb	r3, r3
 6104 00b8 1846     		mov	r0, r3
 6105 00ba FFF7FEFF 		bl	mnu_DrawHome
 6106 00be 11E0     		b	.L331
 6107              	.L330:
2238:u8glib_arm_v1.18.1\src/chessengine.c ****     else if ( chess_state == CHESS_STATE_SELECT_TARGET_POS )
 6108              		.loc 1 2238 0
 6109 00c0 254B     		ldr	r3, .L337
 6110 00c2 1B78     		ldrb	r3, [r3]	@ zero_extendqisi2
 6111 00c4 032B     		cmp	r3, #3
 6112 00c6 0AD1     		bne	.L332
2239:u8glib_arm_v1.18.1\src/chessengine.c ****       mnu_DrawHome(chess_target_pos == 255);
 6113              		.loc 1 2239 0
 6114 00c8 294B     		ldr	r3, .L337+24
 6115 00ca 1B78     		ldrb	r3, [r3]	@ zero_extendqisi2
 6116 00cc FF2B     		cmp	r3, #255
 6117 00ce 0CBF     		ite	eq
 6118 00d0 0123     		moveq	r3, #1
 6119 00d2 0023     		movne	r3, #0
 6120 00d4 DBB2     		uxtb	r3, r3
 6121 00d6 1846     		mov	r0, r3
 6122 00d8 FFF7FEFF 		bl	mnu_DrawHome
 6123 00dc 02E0     		b	.L331
 6124              	.L332:
2240:u8glib_arm_v1.18.1\src/chessengine.c ****     else
2241:u8glib_arm_v1.18.1\src/chessengine.c ****       mnu_DrawHome(0);
 6125              		.loc 1 2241 0
 6126 00de 0020     		movs	r0, #0
 6127 00e0 FFF7FEFF 		bl	mnu_DrawHome
 6128              	.L331:
2242:u8glib_arm_v1.18.1\src/chessengine.c ****       
2243:u8glib_arm_v1.18.1\src/chessengine.c ****     if ( chess_state == CHESS_STATE_GAME_END )
 6129              		.loc 1 2243 0
 6130 00e4 1C4B     		ldr	r3, .L337
 6131 00e6 1B78     		ldrb	r3, [r3]	@ zero_extendqisi2
 6132 00e8 052B     		cmp	r3, #5
 6133 00ea 31D1     		bne	.L322
2244:u8glib_arm_v1.18.1\src/chessengine.c ****     {
2245:u8glib_arm_v1.18.1\src/chessengine.c ****       switch( lrc_obj.lost_side_color )
 6134              		.loc 1 2245 0
 6135 00ec 1B4B     		ldr	r3, .L337+4
 6136 00ee 93F84830 		ldrb	r3, [r3, #72]	@ zero_extendqisi2
 6137 00f2 002B     		cmp	r3, #0
 6138 00f4 02D0     		beq	.L334
 6139 00f6 012B     		cmp	r3, #1
 6140 00f8 0ED0     		beq	.L335
ARM GAS  C:\Users\KJA\AppData\Local\Temp\ccNNA7zi.s 			page 149


 6141 00fa 1BE0     		b	.L336
 6142              	.L334:
2246:u8glib_arm_v1.18.1\src/chessengine.c ****       {
2247:u8glib_arm_v1.18.1\src/chessengine.c **** 	case COLOR_WHITE:
2248:u8glib_arm_v1.18.1\src/chessengine.c **** 	  mnu_DrawEntry(u8g_GetHeight(lrc_u8g) / 2-2, "Black wins", 1, 1);
 6143              		.loc 1 2248 0
 6144 00fc 194B     		ldr	r3, .L337+12
 6145 00fe 1B68     		ldr	r3, [r3]
 6146 0100 5B78     		ldrb	r3, [r3, #1]	@ zero_extendqisi2
 6147 0102 5B08     		lsrs	r3, r3, #1
 6148 0104 DBB2     		uxtb	r3, r3
 6149 0106 023B     		subs	r3, r3, #2
 6150 0108 DBB2     		uxtb	r3, r3
 6151 010a 1846     		mov	r0, r3
 6152 010c 1949     		ldr	r1, .L337+28
 6153 010e 0122     		movs	r2, #1
 6154 0110 0123     		movs	r3, #1
 6155 0112 FFF7FEFF 		bl	mnu_DrawEntry
2249:u8glib_arm_v1.18.1\src/chessengine.c **** 	  break;
 6156              		.loc 1 2249 0
 6157 0116 1BE0     		b	.L322
 6158              	.L335:
2250:u8glib_arm_v1.18.1\src/chessengine.c **** 	case COLOR_BLACK:
2251:u8glib_arm_v1.18.1\src/chessengine.c **** 	  mnu_DrawEntry(u8g_GetHeight(lrc_u8g) / 2-2, "White wins", 1, 1);
 6159              		.loc 1 2251 0
 6160 0118 124B     		ldr	r3, .L337+12
 6161 011a 1B68     		ldr	r3, [r3]
 6162 011c 5B78     		ldrb	r3, [r3, #1]	@ zero_extendqisi2
 6163 011e 5B08     		lsrs	r3, r3, #1
 6164 0120 DBB2     		uxtb	r3, r3
 6165 0122 023B     		subs	r3, r3, #2
 6166 0124 DBB2     		uxtb	r3, r3
 6167 0126 1846     		mov	r0, r3
 6168 0128 1349     		ldr	r1, .L337+32
 6169 012a 0122     		movs	r2, #1
 6170 012c 0123     		movs	r3, #1
 6171 012e FFF7FEFF 		bl	mnu_DrawEntry
2252:u8glib_arm_v1.18.1\src/chessengine.c **** 	  break;
 6172              		.loc 1 2252 0
 6173 0132 0DE0     		b	.L322
 6174              	.L336:
2253:u8glib_arm_v1.18.1\src/chessengine.c **** 	default:
2254:u8glib_arm_v1.18.1\src/chessengine.c **** 	  mnu_DrawEntry(u8g_GetHeight(lrc_u8g) / 2-2, "Stalemate", 1, 1);
 6175              		.loc 1 2254 0
 6176 0134 0B4B     		ldr	r3, .L337+12
 6177 0136 1B68     		ldr	r3, [r3]
 6178 0138 5B78     		ldrb	r3, [r3, #1]	@ zero_extendqisi2
 6179 013a 5B08     		lsrs	r3, r3, #1
 6180 013c DBB2     		uxtb	r3, r3
 6181 013e 023B     		subs	r3, r3, #2
 6182 0140 DBB2     		uxtb	r3, r3
 6183 0142 1846     		mov	r0, r3
 6184 0144 0D49     		ldr	r1, .L337+36
 6185 0146 0122     		movs	r2, #1
 6186 0148 0123     		movs	r3, #1
 6187 014a FFF7FEFF 		bl	mnu_DrawEntry
2255:u8glib_arm_v1.18.1\src/chessengine.c **** 	  break;
ARM GAS  C:\Users\KJA\AppData\Local\Temp\ccNNA7zi.s 			page 150


 6188              		.loc 1 2255 0
 6189 014e 00BF     		nop
 6190              	.L322:
2256:u8glib_arm_v1.18.1\src/chessengine.c ****       }  
2257:u8glib_arm_v1.18.1\src/chessengine.c ****     }
2258:u8glib_arm_v1.18.1\src/chessengine.c ****   }
2259:u8glib_arm_v1.18.1\src/chessengine.c **** }
 6191              		.loc 1 2259 0
 6192 0150 0C37     		adds	r7, r7, #12
 6193              		.cfi_def_cfa_offset 20
 6194 0152 BD46     		mov	sp, r7
 6195              		.cfi_def_cfa_register 13
 6196              		@ sp needed
 6197 0154 F0BD     		pop	{r4, r5, r6, r7, pc}
 6198              	.L338:
 6199 0156 00BF     		.align	2
 6200              	.L337:
 6201 0158 00000000 		.word	chess_state
 6202 015c 00000000 		.word	lrc_obj
 6203 0160 00000000 		.word	mnu_max
 6204 0164 00000000 		.word	lrc_u8g
 6205 0168 00000000 		.word	u8g_font_5x7
 6206 016c 00000000 		.word	chess_source_pos
 6207 0170 00000000 		.word	chess_target_pos
 6208 0174 E0000000 		.word	.LC6
 6209 0178 EC000000 		.word	.LC7
 6210 017c F8000000 		.word	.LC8
 6211              		.cfi_endproc
 6212              	.LFE56:
 6213              		.size	chess_Draw, .-chess_Draw
 6214              		.section	.text.chess_Step,"ax",%progbits
 6215              		.align	2
 6216              		.global	chess_Step
 6217              		.thumb
 6218              		.thumb_func
 6219              		.type	chess_Step, %function
 6220              	chess_Step:
 6221              	.LFB57:
2260:u8glib_arm_v1.18.1\src/chessengine.c **** 
2261:u8glib_arm_v1.18.1\src/chessengine.c **** 
2262:u8glib_arm_v1.18.1\src/chessengine.c **** void chess_Step(uint8_t keycode)
2263:u8glib_arm_v1.18.1\src/chessengine.c **** {
 6222              		.loc 1 2263 0
 6223              		.cfi_startproc
 6224              		@ args = 0, pretend = 0, frame = 8
 6225              		@ frame_needed = 1, uses_anonymous_args = 0
 6226 0000 80B5     		push	{r7, lr}
 6227              		.cfi_def_cfa_offset 8
 6228              		.cfi_offset 7, -8
 6229              		.cfi_offset 14, -4
 6230 0002 82B0     		sub	sp, sp, #8
 6231              		.cfi_def_cfa_offset 16
 6232 0004 00AF     		add	r7, sp, #0
 6233              		.cfi_def_cfa_register 7
 6234 0006 0346     		mov	r3, r0
 6235 0008 FB71     		strb	r3, [r7, #7]
2264:u8glib_arm_v1.18.1\src/chessengine.c ****   if ( keycode == CHESS_KEY_NONE )
ARM GAS  C:\Users\KJA\AppData\Local\Temp\ccNNA7zi.s 			page 151


 6236              		.loc 1 2264 0
 6237 000a FB79     		ldrb	r3, [r7, #7]	@ zero_extendqisi2
 6238 000c 002B     		cmp	r3, #0
 6239 000e 07D1     		bne	.L340
2265:u8glib_arm_v1.18.1\src/chessengine.c ****   {
2266:u8glib_arm_v1.18.1\src/chessengine.c ****     chess_key_cmd = chess_key_code;
 6240              		.loc 1 2266 0
 6241 0010 944B     		ldr	r3, .L368
 6242 0012 1A78     		ldrb	r2, [r3]	@ zero_extendqisi2
 6243 0014 944B     		ldr	r3, .L368+4
 6244 0016 1A70     		strb	r2, [r3]
2267:u8glib_arm_v1.18.1\src/chessengine.c ****     chess_key_code = CHESS_KEY_NONE;
 6245              		.loc 1 2267 0
 6246 0018 924B     		ldr	r3, .L368
 6247 001a 0022     		movs	r2, #0
 6248 001c 1A70     		strb	r2, [r3]
 6249 001e 05E0     		b	.L341
 6250              	.L340:
2268:u8glib_arm_v1.18.1\src/chessengine.c ****   }
2269:u8glib_arm_v1.18.1\src/chessengine.c ****   else
2270:u8glib_arm_v1.18.1\src/chessengine.c ****   {
2271:u8glib_arm_v1.18.1\src/chessengine.c ****     chess_key_cmd = CHESS_KEY_NONE;
 6251              		.loc 1 2271 0
 6252 0020 914B     		ldr	r3, .L368+4
 6253 0022 0022     		movs	r2, #0
 6254 0024 1A70     		strb	r2, [r3]
2272:u8glib_arm_v1.18.1\src/chessengine.c ****     chess_key_code = keycode;
 6255              		.loc 1 2272 0
 6256 0026 8F4A     		ldr	r2, .L368
 6257 0028 FB79     		ldrb	r3, [r7, #7]
 6258 002a 1370     		strb	r3, [r2]
 6259              	.L341:
2273:u8glib_arm_v1.18.1\src/chessengine.c ****   }
2274:u8glib_arm_v1.18.1\src/chessengine.c ****   //chess_ComputerMove(2);
2275:u8glib_arm_v1.18.1\src/chessengine.c ****   switch(chess_state)
 6260              		.loc 1 2275 0
 6261 002c 8F4B     		ldr	r3, .L368+8
 6262 002e 1B78     		ldrb	r3, [r3]	@ zero_extendqisi2
 6263 0030 052B     		cmp	r3, #5
 6264 0032 00F21481 		bhi	.L339
 6265 0036 01A2     		adr	r2, .L344
 6266 0038 52F823F0 		ldr	pc, [r2, r3, lsl #2]
 6267              		.p2align 2
 6268              	.L344:
 6269 003c 55000000 		.word	.L343+1
 6270 0040 EB000000 		.word	.L345+1
 6271 0044 11010000 		.word	.L346+1
 6272 0048 8D010000 		.word	.L347+1
 6273 004c 2B020000 		.word	.L348+1
 6274 0050 4B020000 		.word	.L349+1
 6275              		.p2align 1
 6276              	.L343:
2276:u8glib_arm_v1.18.1\src/chessengine.c ****   {
2277:u8glib_arm_v1.18.1\src/chessengine.c ****     case CHESS_STATE_MENU:
2278:u8glib_arm_v1.18.1\src/chessengine.c ****       mnu_Step(chess_key_cmd);
 6277              		.loc 1 2278 0
 6278 0054 844B     		ldr	r3, .L368+4
ARM GAS  C:\Users\KJA\AppData\Local\Temp\ccNNA7zi.s 			page 152


 6279 0056 1B78     		ldrb	r3, [r3]	@ zero_extendqisi2
 6280 0058 1846     		mov	r0, r3
 6281 005a FFF7FEFF 		bl	mnu_Step
2279:u8glib_arm_v1.18.1\src/chessengine.c ****       if ( chess_key_cmd == CHESS_KEY_SELECT )
 6282              		.loc 1 2279 0
 6283 005e 824B     		ldr	r3, .L368+4
 6284 0060 1B78     		ldrb	r3, [r3]	@ zero_extendqisi2
 6285 0062 032B     		cmp	r3, #3
 6286 0064 40D1     		bne	.L350
2280:u8glib_arm_v1.18.1\src/chessengine.c ****       {
2281:u8glib_arm_v1.18.1\src/chessengine.c **** 	if ( mnu_pos == 0 )
 6287              		.loc 1 2281 0
 6288 0066 824B     		ldr	r3, .L368+12
 6289 0068 1B78     		ldrb	r3, [r3]	@ zero_extendqisi2
 6290 006a 002B     		cmp	r3, #0
 6291 006c 09D1     		bne	.L351
2282:u8glib_arm_v1.18.1\src/chessengine.c **** 	{
2283:u8glib_arm_v1.18.1\src/chessengine.c ****           chess_SetupBoard();
 6292              		.loc 1 2283 0
 6293 006e FFF7FEFF 		bl	chess_SetupBoard
2284:u8glib_arm_v1.18.1\src/chessengine.c **** 	  lrc_obj.orientation = 0;
 6294              		.loc 1 2284 0
 6295 0072 804B     		ldr	r3, .L368+16
 6296 0074 0022     		movs	r2, #0
 6297 0076 83F84520 		strb	r2, [r3, #69]
2285:u8glib_arm_v1.18.1\src/chessengine.c **** 	  chess_state = CHESS_STATE_SELECT_START;
 6298              		.loc 1 2285 0
 6299 007a 7C4B     		ldr	r3, .L368+8
 6300 007c 0122     		movs	r2, #1
 6301 007e 1A70     		strb	r2, [r3]
 6302 0080 32E0     		b	.L350
 6303              	.L351:
2286:u8glib_arm_v1.18.1\src/chessengine.c **** 	}
2287:u8glib_arm_v1.18.1\src/chessengine.c **** 	else if ( mnu_pos == 1 )
 6304              		.loc 1 2287 0
 6305 0082 7B4B     		ldr	r3, .L368+12
 6306 0084 1B78     		ldrb	r3, [r3]	@ zero_extendqisi2
 6307 0086 012B     		cmp	r3, #1
 6308 0088 09D1     		bne	.L352
2288:u8glib_arm_v1.18.1\src/chessengine.c **** 	{
2289:u8glib_arm_v1.18.1\src/chessengine.c ****           chess_SetupBoard();
 6309              		.loc 1 2289 0
 6310 008a FFF7FEFF 		bl	chess_SetupBoard
2290:u8glib_arm_v1.18.1\src/chessengine.c **** 	  lrc_obj.orientation = 1;
 6311              		.loc 1 2290 0
 6312 008e 794B     		ldr	r3, .L368+16
 6313 0090 0122     		movs	r2, #1
 6314 0092 83F84520 		strb	r2, [r3, #69]
2291:u8glib_arm_v1.18.1\src/chessengine.c **** 	  chess_state = CHESS_STATE_THINKING;
 6315              		.loc 1 2291 0
 6316 0096 754B     		ldr	r3, .L368+8
 6317 0098 0422     		movs	r2, #4
 6318 009a 1A70     		strb	r2, [r3]
 6319 009c 24E0     		b	.L350
 6320              	.L352:
2292:u8glib_arm_v1.18.1\src/chessengine.c **** 	}
2293:u8glib_arm_v1.18.1\src/chessengine.c **** 	else if ( mnu_pos == 2 )
ARM GAS  C:\Users\KJA\AppData\Local\Temp\ccNNA7zi.s 			page 153


 6321              		.loc 1 2293 0
 6322 009e 744B     		ldr	r3, .L368+12
 6323 00a0 1B78     		ldrb	r3, [r3]	@ zero_extendqisi2
 6324 00a2 022B     		cmp	r3, #2
 6325 00a4 18D1     		bne	.L353
2294:u8glib_arm_v1.18.1\src/chessengine.c **** 	{
2295:u8glib_arm_v1.18.1\src/chessengine.c **** 	  if ( lrc_obj.ply_count >= 2 )
 6326              		.loc 1 2295 0
 6327 00a6 734B     		ldr	r3, .L368+16
 6328 00a8 1B78     		ldrb	r3, [r3]	@ zero_extendqisi2
 6329 00aa 012B     		cmp	r3, #1
 6330 00ac 10D9     		bls	.L354
2296:u8glib_arm_v1.18.1\src/chessengine.c **** 	  {
2297:u8glib_arm_v1.18.1\src/chessengine.c **** 	    cu_UndoHalfMove();
 6331              		.loc 1 2297 0
 6332 00ae FFF7FEFF 		bl	cu_UndoHalfMove
2298:u8glib_arm_v1.18.1\src/chessengine.c **** 	    cu_UndoHalfMove();
 6333              		.loc 1 2298 0
 6334 00b2 FFF7FEFF 		bl	cu_UndoHalfMove
2299:u8glib_arm_v1.18.1\src/chessengine.c **** 	    lrc_obj.ply_count-=2;
 6335              		.loc 1 2299 0
 6336 00b6 6F4B     		ldr	r3, .L368+16
 6337 00b8 1B78     		ldrb	r3, [r3]	@ zero_extendqisi2
 6338 00ba 023B     		subs	r3, r3, #2
 6339 00bc DAB2     		uxtb	r2, r3
 6340 00be 6D4B     		ldr	r3, .L368+16
 6341 00c0 1A70     		strb	r2, [r3]
2300:u8glib_arm_v1.18.1\src/chessengine.c **** 	    if ( lrc_obj.ply_count == 0 )
 6342              		.loc 1 2300 0
 6343 00c2 6C4B     		ldr	r3, .L368+16
 6344 00c4 1B78     		ldrb	r3, [r3]	@ zero_extendqisi2
 6345 00c6 002B     		cmp	r3, #0
 6346 00c8 02D1     		bne	.L354
2301:u8glib_arm_v1.18.1\src/chessengine.c **** 	      mnu_pos = 0;
 6347              		.loc 1 2301 0
 6348 00ca 694B     		ldr	r3, .L368+12
 6349 00cc 0022     		movs	r2, #0
 6350 00ce 1A70     		strb	r2, [r3]
 6351              	.L354:
2302:u8glib_arm_v1.18.1\src/chessengine.c **** 	  }
2303:u8glib_arm_v1.18.1\src/chessengine.c **** 	  chess_state = CHESS_STATE_SELECT_START;
 6352              		.loc 1 2303 0
 6353 00d0 664B     		ldr	r3, .L368+8
 6354 00d2 0122     		movs	r2, #1
 6355 00d4 1A70     		strb	r2, [r3]
 6356 00d6 07E0     		b	.L350
 6357              	.L353:
2304:u8glib_arm_v1.18.1\src/chessengine.c **** 	}
2305:u8glib_arm_v1.18.1\src/chessengine.c **** 	else if ( mnu_pos == 3 )
 6358              		.loc 1 2305 0
 6359 00d8 654B     		ldr	r3, .L368+12
 6360 00da 1B78     		ldrb	r3, [r3]	@ zero_extendqisi2
 6361 00dc 032B     		cmp	r3, #3
 6362 00de 03D1     		bne	.L350
2306:u8glib_arm_v1.18.1\src/chessengine.c **** 	{
2307:u8glib_arm_v1.18.1\src/chessengine.c **** 	  chess_state = CHESS_STATE_SELECT_START;
 6363              		.loc 1 2307 0
ARM GAS  C:\Users\KJA\AppData\Local\Temp\ccNNA7zi.s 			page 154


 6364 00e0 624B     		ldr	r3, .L368+8
 6365 00e2 0122     		movs	r2, #1
 6366 00e4 1A70     		strb	r2, [r3]
2308:u8glib_arm_v1.18.1\src/chessengine.c **** 	}
2309:u8glib_arm_v1.18.1\src/chessengine.c ****       }
2310:u8glib_arm_v1.18.1\src/chessengine.c ****       break;
 6367              		.loc 1 2310 0
 6368 00e6 BAE0     		b	.L339
 6369              	.L350:
 6370 00e8 B9E0     		b	.L339
 6371              	.L345:
2311:u8glib_arm_v1.18.1\src/chessengine.c ****     case CHESS_STATE_SELECT_START:
2312:u8glib_arm_v1.18.1\src/chessengine.c ****       chess_ClearMarks();
 6372              		.loc 1 2312 0
 6373 00ea FFF7FEFF 		bl	chess_ClearMarks
2313:u8glib_arm_v1.18.1\src/chessengine.c ****       chess_MarkMovable();
 6374              		.loc 1 2313 0
 6375 00ee FFF7FEFF 		bl	chess_MarkMovable
2314:u8glib_arm_v1.18.1\src/chessengine.c ****       chess_source_pos = chess_GetNextMarked(255, 0);
 6376              		.loc 1 2314 0
 6377 00f2 FF20     		movs	r0, #255
 6378 00f4 0021     		movs	r1, #0
 6379 00f6 FFF7FEFF 		bl	chess_GetNextMarked
 6380 00fa 0346     		mov	r3, r0
 6381 00fc 1A46     		mov	r2, r3
 6382 00fe 5E4B     		ldr	r3, .L368+20
 6383 0100 1A70     		strb	r2, [r3]
2315:u8glib_arm_v1.18.1\src/chessengine.c ****       chess_target_pos = ILLEGAL_POSITION;
 6384              		.loc 1 2315 0
 6385 0102 5E4B     		ldr	r3, .L368+24
 6386 0104 FF22     		movs	r2, #255
 6387 0106 1A70     		strb	r2, [r3]
2316:u8glib_arm_v1.18.1\src/chessengine.c ****       chess_state = CHESS_STATE_SELECT_PIECE;
 6388              		.loc 1 2316 0
 6389 0108 584B     		ldr	r3, .L368+8
 6390 010a 0222     		movs	r2, #2
 6391 010c 1A70     		strb	r2, [r3]
2317:u8glib_arm_v1.18.1\src/chessengine.c ****       break;
 6392              		.loc 1 2317 0
 6393 010e A6E0     		b	.L339
 6394              	.L346:
2318:u8glib_arm_v1.18.1\src/chessengine.c ****       
2319:u8glib_arm_v1.18.1\src/chessengine.c ****     case CHESS_STATE_SELECT_PIECE:
2320:u8glib_arm_v1.18.1\src/chessengine.c ****       if ( chess_key_cmd == CHESS_KEY_NEXT )
 6395              		.loc 1 2320 0
 6396 0110 554B     		ldr	r3, .L368+4
 6397 0112 1B78     		ldrb	r3, [r3]	@ zero_extendqisi2
 6398 0114 012B     		cmp	r3, #1
 6399 0116 0AD1     		bne	.L355
2321:u8glib_arm_v1.18.1\src/chessengine.c ****       {
2322:u8glib_arm_v1.18.1\src/chessengine.c **** 	chess_source_pos = chess_GetNextMarked(chess_source_pos, 0);
 6400              		.loc 1 2322 0
 6401 0118 574B     		ldr	r3, .L368+20
 6402 011a 1B78     		ldrb	r3, [r3]	@ zero_extendqisi2
 6403 011c 1846     		mov	r0, r3
 6404 011e 0021     		movs	r1, #0
 6405 0120 FFF7FEFF 		bl	chess_GetNextMarked
ARM GAS  C:\Users\KJA\AppData\Local\Temp\ccNNA7zi.s 			page 155


 6406 0124 0346     		mov	r3, r0
 6407 0126 1A46     		mov	r2, r3
 6408 0128 534B     		ldr	r3, .L368+20
 6409 012a 1A70     		strb	r2, [r3]
 6410 012c 2DE0     		b	.L356
 6411              	.L355:
2323:u8glib_arm_v1.18.1\src/chessengine.c ****       }
2324:u8glib_arm_v1.18.1\src/chessengine.c ****       else if ( chess_key_cmd == CHESS_KEY_PREV )
 6412              		.loc 1 2324 0
 6413 012e 4E4B     		ldr	r3, .L368+4
 6414 0130 1B78     		ldrb	r3, [r3]	@ zero_extendqisi2
 6415 0132 022B     		cmp	r3, #2
 6416 0134 0AD1     		bne	.L357
2325:u8glib_arm_v1.18.1\src/chessengine.c ****       {
2326:u8glib_arm_v1.18.1\src/chessengine.c **** 	chess_source_pos = chess_GetNextMarked(chess_source_pos, 1);
 6417              		.loc 1 2326 0
 6418 0136 504B     		ldr	r3, .L368+20
 6419 0138 1B78     		ldrb	r3, [r3]	@ zero_extendqisi2
 6420 013a 1846     		mov	r0, r3
 6421 013c 0121     		movs	r1, #1
 6422 013e FFF7FEFF 		bl	chess_GetNextMarked
 6423 0142 0346     		mov	r3, r0
 6424 0144 1A46     		mov	r2, r3
 6425 0146 4C4B     		ldr	r3, .L368+20
 6426 0148 1A70     		strb	r2, [r3]
 6427 014a 1EE0     		b	.L356
 6428              	.L357:
2327:u8glib_arm_v1.18.1\src/chessengine.c ****       }
2328:u8glib_arm_v1.18.1\src/chessengine.c ****       else if ( chess_key_cmd == CHESS_KEY_SELECT )
 6429              		.loc 1 2328 0
 6430 014c 464B     		ldr	r3, .L368+4
 6431 014e 1B78     		ldrb	r3, [r3]	@ zero_extendqisi2
 6432 0150 032B     		cmp	r3, #3
 6433 0152 1AD1     		bne	.L356
2329:u8glib_arm_v1.18.1\src/chessengine.c ****       {
2330:u8glib_arm_v1.18.1\src/chessengine.c **** 	if ( chess_source_pos == 255 )
 6434              		.loc 1 2330 0
 6435 0154 484B     		ldr	r3, .L368+20
 6436 0156 1B78     		ldrb	r3, [r3]	@ zero_extendqisi2
 6437 0158 FF2B     		cmp	r3, #255
 6438 015a 03D1     		bne	.L358
2331:u8glib_arm_v1.18.1\src/chessengine.c **** 	{
2332:u8glib_arm_v1.18.1\src/chessengine.c **** 	  chess_state = CHESS_STATE_MENU;
 6439              		.loc 1 2332 0
 6440 015c 434B     		ldr	r3, .L368+8
 6441 015e 0022     		movs	r2, #0
 6442 0160 1A70     		strb	r2, [r3]
 6443 0162 12E0     		b	.L356
 6444              	.L358:
2333:u8glib_arm_v1.18.1\src/chessengine.c **** 	}
2334:u8glib_arm_v1.18.1\src/chessengine.c **** 	else
2335:u8glib_arm_v1.18.1\src/chessengine.c **** 	{
2336:u8glib_arm_v1.18.1\src/chessengine.c **** 	  chess_ClearMarks();
 6445              		.loc 1 2336 0
 6446 0164 FFF7FEFF 		bl	chess_ClearMarks
2337:u8glib_arm_v1.18.1\src/chessengine.c **** 	  chess_MarkTargetMoves(chess_source_pos);
 6447              		.loc 1 2337 0
ARM GAS  C:\Users\KJA\AppData\Local\Temp\ccNNA7zi.s 			page 156


 6448 0168 434B     		ldr	r3, .L368+20
 6449 016a 1B78     		ldrb	r3, [r3]	@ zero_extendqisi2
 6450 016c 1846     		mov	r0, r3
 6451 016e FFF7FEFF 		bl	chess_MarkTargetMoves
2338:u8glib_arm_v1.18.1\src/chessengine.c **** 	  chess_target_pos = chess_GetNextMarked(255, 0);
 6452              		.loc 1 2338 0
 6453 0172 FF20     		movs	r0, #255
 6454 0174 0021     		movs	r1, #0
 6455 0176 FFF7FEFF 		bl	chess_GetNextMarked
 6456 017a 0346     		mov	r3, r0
 6457 017c 1A46     		mov	r2, r3
 6458 017e 3F4B     		ldr	r3, .L368+24
 6459 0180 1A70     		strb	r2, [r3]
2339:u8glib_arm_v1.18.1\src/chessengine.c **** 	  chess_state = CHESS_STATE_SELECT_TARGET_POS;      
 6460              		.loc 1 2339 0
 6461 0182 3A4B     		ldr	r3, .L368+8
 6462 0184 0322     		movs	r2, #3
 6463 0186 1A70     		strb	r2, [r3]
2340:u8glib_arm_v1.18.1\src/chessengine.c **** 	}
2341:u8glib_arm_v1.18.1\src/chessengine.c ****       }
2342:u8glib_arm_v1.18.1\src/chessengine.c ****       break;
 6464              		.loc 1 2342 0
 6465 0188 69E0     		b	.L339
 6466              	.L356:
 6467 018a 68E0     		b	.L339
 6468              	.L347:
2343:u8glib_arm_v1.18.1\src/chessengine.c ****     case CHESS_STATE_SELECT_TARGET_POS:
2344:u8glib_arm_v1.18.1\src/chessengine.c ****       if ( chess_key_cmd == CHESS_KEY_NEXT )
 6469              		.loc 1 2344 0
 6470 018c 364B     		ldr	r3, .L368+4
 6471 018e 1B78     		ldrb	r3, [r3]	@ zero_extendqisi2
 6472 0190 012B     		cmp	r3, #1
 6473 0192 0AD1     		bne	.L359
2345:u8glib_arm_v1.18.1\src/chessengine.c ****       {
2346:u8glib_arm_v1.18.1\src/chessengine.c **** 	chess_target_pos = chess_GetNextMarked(chess_target_pos, 0);
 6474              		.loc 1 2346 0
 6475 0194 394B     		ldr	r3, .L368+24
 6476 0196 1B78     		ldrb	r3, [r3]	@ zero_extendqisi2
 6477 0198 1846     		mov	r0, r3
 6478 019a 0021     		movs	r1, #0
 6479 019c FFF7FEFF 		bl	chess_GetNextMarked
 6480 01a0 0346     		mov	r3, r0
 6481 01a2 1A46     		mov	r2, r3
 6482 01a4 354B     		ldr	r3, .L368+24
 6483 01a6 1A70     		strb	r2, [r3]
 6484 01a8 3EE0     		b	.L360
 6485              	.L359:
2347:u8glib_arm_v1.18.1\src/chessengine.c ****       }
2348:u8glib_arm_v1.18.1\src/chessengine.c ****       else if ( chess_key_cmd == CHESS_KEY_PREV )
 6486              		.loc 1 2348 0
 6487 01aa 2F4B     		ldr	r3, .L368+4
 6488 01ac 1B78     		ldrb	r3, [r3]	@ zero_extendqisi2
 6489 01ae 022B     		cmp	r3, #2
 6490 01b0 0AD1     		bne	.L361
2349:u8glib_arm_v1.18.1\src/chessengine.c ****       {
2350:u8glib_arm_v1.18.1\src/chessengine.c **** 	chess_target_pos = chess_GetNextMarked(chess_target_pos, 1);
 6491              		.loc 1 2350 0
ARM GAS  C:\Users\KJA\AppData\Local\Temp\ccNNA7zi.s 			page 157


 6492 01b2 324B     		ldr	r3, .L368+24
 6493 01b4 1B78     		ldrb	r3, [r3]	@ zero_extendqisi2
 6494 01b6 1846     		mov	r0, r3
 6495 01b8 0121     		movs	r1, #1
 6496 01ba FFF7FEFF 		bl	chess_GetNextMarked
 6497 01be 0346     		mov	r3, r0
 6498 01c0 1A46     		mov	r2, r3
 6499 01c2 2E4B     		ldr	r3, .L368+24
 6500 01c4 1A70     		strb	r2, [r3]
 6501 01c6 2FE0     		b	.L360
 6502              	.L361:
2351:u8glib_arm_v1.18.1\src/chessengine.c ****       }
2352:u8glib_arm_v1.18.1\src/chessengine.c ****       else if ( chess_key_cmd == CHESS_KEY_BACK )
 6503              		.loc 1 2352 0
 6504 01c8 274B     		ldr	r3, .L368+4
 6505 01ca 1B78     		ldrb	r3, [r3]	@ zero_extendqisi2
 6506 01cc 042B     		cmp	r3, #4
 6507 01ce 0AD1     		bne	.L362
2353:u8glib_arm_v1.18.1\src/chessengine.c ****       {
2354:u8glib_arm_v1.18.1\src/chessengine.c **** 	chess_ClearMarks();
 6508              		.loc 1 2354 0
 6509 01d0 FFF7FEFF 		bl	chess_ClearMarks
2355:u8glib_arm_v1.18.1\src/chessengine.c **** 	chess_MarkMovable();
 6510              		.loc 1 2355 0
 6511 01d4 FFF7FEFF 		bl	chess_MarkMovable
2356:u8glib_arm_v1.18.1\src/chessengine.c **** 	chess_target_pos = ILLEGAL_POSITION;
 6512              		.loc 1 2356 0
 6513 01d8 284B     		ldr	r3, .L368+24
 6514 01da FF22     		movs	r2, #255
 6515 01dc 1A70     		strb	r2, [r3]
2357:u8glib_arm_v1.18.1\src/chessengine.c **** 	chess_state = CHESS_STATE_SELECT_PIECE;
 6516              		.loc 1 2357 0
 6517 01de 234B     		ldr	r3, .L368+8
 6518 01e0 0222     		movs	r2, #2
 6519 01e2 1A70     		strb	r2, [r3]
 6520 01e4 20E0     		b	.L360
 6521              	.L362:
2358:u8glib_arm_v1.18.1\src/chessengine.c ****       }
2359:u8glib_arm_v1.18.1\src/chessengine.c ****       else if ( chess_key_cmd == CHESS_KEY_SELECT )
 6522              		.loc 1 2359 0
 6523 01e6 204B     		ldr	r3, .L368+4
 6524 01e8 1B78     		ldrb	r3, [r3]	@ zero_extendqisi2
 6525 01ea 032B     		cmp	r3, #3
 6526 01ec 1CD1     		bne	.L360
2360:u8glib_arm_v1.18.1\src/chessengine.c ****       {
2361:u8glib_arm_v1.18.1\src/chessengine.c **** 	chess_ManualMove(chess_source_pos, chess_target_pos);
 6527              		.loc 1 2361 0
 6528 01ee 224B     		ldr	r3, .L368+20
 6529 01f0 1A78     		ldrb	r2, [r3]	@ zero_extendqisi2
 6530 01f2 224B     		ldr	r3, .L368+24
 6531 01f4 1B78     		ldrb	r3, [r3]	@ zero_extendqisi2
 6532 01f6 1046     		mov	r0, r2
 6533 01f8 1946     		mov	r1, r3
 6534 01fa FFF7FEFF 		bl	chess_ManualMove
2362:u8glib_arm_v1.18.1\src/chessengine.c **** 	if ( lrc_obj.is_game_end != 0 )
 6535              		.loc 1 2362 0
 6536 01fe 1D4B     		ldr	r3, .L368+16
ARM GAS  C:\Users\KJA\AppData\Local\Temp\ccNNA7zi.s 			page 158


 6537 0200 93F84730 		ldrb	r3, [r3, #71]	@ zero_extendqisi2
 6538 0204 002B     		cmp	r3, #0
 6539 0206 03D0     		beq	.L363
2363:u8glib_arm_v1.18.1\src/chessengine.c **** 	  chess_state = CHESS_STATE_GAME_END;
 6540              		.loc 1 2363 0
 6541 0208 184B     		ldr	r3, .L368+8
 6542 020a 0522     		movs	r2, #5
 6543 020c 1A70     		strb	r2, [r3]
 6544 020e 02E0     		b	.L364
 6545              	.L363:
2364:u8glib_arm_v1.18.1\src/chessengine.c **** 	else
2365:u8glib_arm_v1.18.1\src/chessengine.c **** 	  chess_state = CHESS_STATE_THINKING;
 6546              		.loc 1 2365 0
 6547 0210 164B     		ldr	r3, .L368+8
 6548 0212 0422     		movs	r2, #4
 6549 0214 1A70     		strb	r2, [r3]
 6550              	.L364:
2366:u8glib_arm_v1.18.1\src/chessengine.c **** 	/* clear marks as some kind of feedback to the user... it simply looks better */
2367:u8glib_arm_v1.18.1\src/chessengine.c **** 	chess_source_pos = ILLEGAL_POSITION;
 6551              		.loc 1 2367 0
 6552 0216 184B     		ldr	r3, .L368+20
 6553 0218 FF22     		movs	r2, #255
 6554 021a 1A70     		strb	r2, [r3]
2368:u8glib_arm_v1.18.1\src/chessengine.c **** 	chess_target_pos = ILLEGAL_POSITION;
 6555              		.loc 1 2368 0
 6556 021c 174B     		ldr	r3, .L368+24
 6557 021e FF22     		movs	r2, #255
 6558 0220 1A70     		strb	r2, [r3]
2369:u8glib_arm_v1.18.1\src/chessengine.c **** 	chess_ClearMarks();
 6559              		.loc 1 2369 0
 6560 0222 FFF7FEFF 		bl	chess_ClearMarks
2370:u8glib_arm_v1.18.1\src/chessengine.c ****       }
2371:u8glib_arm_v1.18.1\src/chessengine.c ****       break;
 6561              		.loc 1 2371 0
 6562 0226 1AE0     		b	.L339
 6563              	.L360:
 6564 0228 19E0     		b	.L339
 6565              	.L348:
2372:u8glib_arm_v1.18.1\src/chessengine.c ****     case CHESS_STATE_THINKING:
2373:u8glib_arm_v1.18.1\src/chessengine.c ****       chess_ComputerMove(2);
 6566              		.loc 1 2373 0
 6567 022a 0220     		movs	r0, #2
 6568 022c FFF7FEFF 		bl	chess_ComputerMove
2374:u8glib_arm_v1.18.1\src/chessengine.c ****       if ( lrc_obj.is_game_end != 0 )
 6569              		.loc 1 2374 0
 6570 0230 104B     		ldr	r3, .L368+16
 6571 0232 93F84730 		ldrb	r3, [r3, #71]	@ zero_extendqisi2
 6572 0236 002B     		cmp	r3, #0
 6573 0238 03D0     		beq	.L365
2375:u8glib_arm_v1.18.1\src/chessengine.c **** 	chess_state = CHESS_STATE_GAME_END;
 6574              		.loc 1 2375 0
 6575 023a 0C4B     		ldr	r3, .L368+8
 6576 023c 0522     		movs	r2, #5
 6577 023e 1A70     		strb	r2, [r3]
2376:u8glib_arm_v1.18.1\src/chessengine.c ****       else
2377:u8glib_arm_v1.18.1\src/chessengine.c **** 	chess_state = CHESS_STATE_SELECT_START;
2378:u8glib_arm_v1.18.1\src/chessengine.c ****       break;
ARM GAS  C:\Users\KJA\AppData\Local\Temp\ccNNA7zi.s 			page 159


 6578              		.loc 1 2378 0
 6579 0240 0DE0     		b	.L339
 6580              	.L365:
2377:u8glib_arm_v1.18.1\src/chessengine.c ****       break;
 6581              		.loc 1 2377 0
 6582 0242 0A4B     		ldr	r3, .L368+8
 6583 0244 0122     		movs	r2, #1
 6584 0246 1A70     		strb	r2, [r3]
 6585              		.loc 1 2378 0
 6586 0248 09E0     		b	.L339
 6587              	.L349:
2379:u8glib_arm_v1.18.1\src/chessengine.c ****     case CHESS_STATE_GAME_END:
2380:u8glib_arm_v1.18.1\src/chessengine.c ****       if ( chess_key_cmd != CHESS_KEY_NONE )
 6588              		.loc 1 2380 0
 6589 024a 074B     		ldr	r3, .L368+4
 6590 024c 1B78     		ldrb	r3, [r3]	@ zero_extendqisi2
 6591 024e 002B     		cmp	r3, #0
 6592 0250 04D0     		beq	.L367
2381:u8glib_arm_v1.18.1\src/chessengine.c ****       {
2382:u8glib_arm_v1.18.1\src/chessengine.c **** 	chess_state = CHESS_STATE_MENU;  
 6593              		.loc 1 2382 0
 6594 0252 064B     		ldr	r3, .L368+8
 6595 0254 0022     		movs	r2, #0
 6596 0256 1A70     		strb	r2, [r3]
2383:u8glib_arm_v1.18.1\src/chessengine.c **** 	chess_SetupBoard();
 6597              		.loc 1 2383 0
 6598 0258 FFF7FEFF 		bl	chess_SetupBoard
 6599              	.L367:
2384:u8glib_arm_v1.18.1\src/chessengine.c ****       }	
2385:u8glib_arm_v1.18.1\src/chessengine.c ****       break;
 6600              		.loc 1 2385 0
 6601 025c 00BF     		nop
 6602              	.L339:
2386:u8glib_arm_v1.18.1\src/chessengine.c ****   }
2387:u8glib_arm_v1.18.1\src/chessengine.c ****   
2388:u8glib_arm_v1.18.1\src/chessengine.c **** }
 6603              		.loc 1 2388 0
 6604 025e 0837     		adds	r7, r7, #8
 6605              		.cfi_def_cfa_offset 8
 6606 0260 BD46     		mov	sp, r7
 6607              		.cfi_def_cfa_register 13
 6608              		@ sp needed
 6609 0262 80BD     		pop	{r7, pc}
 6610              	.L369:
 6611              		.align	2
 6612              	.L368:
 6613 0264 00000000 		.word	chess_key_code
 6614 0268 00000000 		.word	chess_key_cmd
 6615 026c 00000000 		.word	chess_state
 6616 0270 00000000 		.word	mnu_pos
 6617 0274 00000000 		.word	lrc_obj
 6618 0278 00000000 		.word	chess_source_pos
 6619 027c 00000000 		.word	chess_target_pos
 6620              		.cfi_endproc
 6621              	.LFE57:
 6622              		.size	chess_Step, .-chess_Step
 6623              		.bss
ARM GAS  C:\Users\KJA\AppData\Local\Temp\ccNNA7zi.s 			page 160


 6624              		.align	2
 6625              	buf.5954:
 6626 0004 00000000 		.space	7
 6626      000000
 6627 000b 00       		.text
 6628              	.Letext0:
 6629              		.file 2 "c:\\program files (x86)\\cypress\\psoc creator\\4.0\\psoc creator\\import\\gnu\\arm\\4.9.
 6630              		.file 3 "c:\\program files (x86)\\cypress\\psoc creator\\4.0\\psoc creator\\import\\gnu\\arm\\4.9.
 6631              		.file 4 "u8glib_arm_v1.18.1\\src\\u8g.h"
 6632              		.section	.debug_info,"",%progbits
 6633              	.Ldebug_info0:
 6634 0000 4F150000 		.4byte	0x154f
 6635 0004 0400     		.2byte	0x4
 6636 0006 00000000 		.4byte	.Ldebug_abbrev0
 6637 000a 04       		.byte	0x4
 6638 000b 01       		.uleb128 0x1
 6639 000c 2D070000 		.4byte	.LASF226
 6640 0010 01       		.byte	0x1
 6641 0011 67090000 		.4byte	.LASF227
 6642 0015 29050000 		.4byte	.LASF228
 6643 0019 00000000 		.4byte	.Ldebug_ranges0+0
 6644 001d 00000000 		.4byte	0
 6645 0021 00000000 		.4byte	.Ldebug_line0
 6646 0025 02       		.uleb128 0x2
 6647 0026 04       		.byte	0x4
 6648 0027 05       		.byte	0x5
 6649 0028 696E7400 		.ascii	"int\000"
 6650 002c 03       		.uleb128 0x3
 6651 002d 04       		.byte	0x4
 6652 002e 07       		.byte	0x7
 6653 002f 58040000 		.4byte	.LASF0
 6654 0033 04       		.uleb128 0x4
 6655 0034 54010000 		.4byte	.LASF2
 6656 0038 02       		.byte	0x2
 6657 0039 1B       		.byte	0x1b
 6658 003a 3E000000 		.4byte	0x3e
 6659 003e 03       		.uleb128 0x3
 6660 003f 01       		.byte	0x1
 6661 0040 06       		.byte	0x6
 6662 0041 E4010000 		.4byte	.LASF1
 6663 0045 04       		.uleb128 0x4
 6664 0046 92000000 		.4byte	.LASF3
 6665 004a 02       		.byte	0x2
 6666 004b 1D       		.byte	0x1d
 6667 004c 50000000 		.4byte	0x50
 6668 0050 03       		.uleb128 0x3
 6669 0051 01       		.byte	0x1
 6670 0052 08       		.byte	0x8
 6671 0053 88080000 		.4byte	.LASF4
 6672 0057 04       		.uleb128 0x4
 6673 0058 13040000 		.4byte	.LASF5
 6674 005c 02       		.byte	0x2
 6675 005d 29       		.byte	0x29
 6676 005e 62000000 		.4byte	0x62
 6677 0062 03       		.uleb128 0x3
 6678 0063 02       		.byte	0x2
 6679 0064 05       		.byte	0x5
ARM GAS  C:\Users\KJA\AppData\Local\Temp\ccNNA7zi.s 			page 161


 6680 0065 AC080000 		.4byte	.LASF6
 6681 0069 03       		.uleb128 0x3
 6682 006a 02       		.byte	0x2
 6683 006b 07       		.byte	0x7
 6684 006c 6A0A0000 		.4byte	.LASF7
 6685 0070 03       		.uleb128 0x3
 6686 0071 04       		.byte	0x4
 6687 0072 05       		.byte	0x5
 6688 0073 90020000 		.4byte	.LASF8
 6689 0077 03       		.uleb128 0x3
 6690 0078 04       		.byte	0x4
 6691 0079 07       		.byte	0x7
 6692 007a B0040000 		.4byte	.LASF9
 6693 007e 03       		.uleb128 0x3
 6694 007f 08       		.byte	0x8
 6695 0080 05       		.byte	0x5
 6696 0081 D6010000 		.4byte	.LASF10
 6697 0085 03       		.uleb128 0x3
 6698 0086 08       		.byte	0x8
 6699 0087 07       		.byte	0x7
 6700 0088 01010000 		.4byte	.LASF11
 6701 008c 04       		.uleb128 0x4
 6702 008d 9F0A0000 		.4byte	.LASF12
 6703 0091 03       		.byte	0x3
 6704 0092 14       		.byte	0x14
 6705 0093 33000000 		.4byte	0x33
 6706 0097 04       		.uleb128 0x4
 6707 0098 4D0B0000 		.4byte	.LASF13
 6708 009c 03       		.byte	0x3
 6709 009d 15       		.byte	0x15
 6710 009e 45000000 		.4byte	0x45
 6711 00a2 04       		.uleb128 0x4
 6712 00a3 CE010000 		.4byte	.LASF14
 6713 00a7 03       		.byte	0x3
 6714 00a8 20       		.byte	0x20
 6715 00a9 57000000 		.4byte	0x57
 6716 00ad 04       		.uleb128 0x4
 6717 00ae C3070000 		.4byte	.LASF15
 6718 00b2 04       		.byte	0x4
 6719 00b3 80       		.byte	0x80
 6720 00b4 97000000 		.4byte	0x97
 6721 00b8 04       		.uleb128 0x4
 6722 00b9 F0030000 		.4byte	.LASF16
 6723 00bd 04       		.byte	0x4
 6724 00be 81       		.byte	0x81
 6725 00bf 97000000 		.4byte	0x97
 6726 00c3 04       		.uleb128 0x4
 6727 00c4 3E030000 		.4byte	.LASF17
 6728 00c8 04       		.byte	0x4
 6729 00c9 A0       		.byte	0xa0
 6730 00ca CE000000 		.4byte	0xce
 6731 00ce 05       		.uleb128 0x5
 6732 00cf 1F030000 		.4byte	.LASF44
 6733 00d3 3C       		.byte	0x3c
 6734 00d4 04       		.byte	0x4
 6735 00d5 4B04     		.2byte	0x44b
 6736 00d7 2E020000 		.4byte	0x22e
ARM GAS  C:\Users\KJA\AppData\Local\Temp\ccNNA7zi.s 			page 162


 6737 00db 06       		.uleb128 0x6
 6738 00dc 09050000 		.4byte	.LASF18
 6739 00e0 04       		.byte	0x4
 6740 00e1 4D04     		.2byte	0x44d
 6741 00e3 23030000 		.4byte	0x323
 6742 00e7 00       		.byte	0
 6743 00e8 06       		.uleb128 0x6
 6744 00e9 180C0000 		.4byte	.LASF19
 6745 00ed 04       		.byte	0x4
 6746 00ee 4E04     		.2byte	0x44e
 6747 00f0 23030000 		.4byte	0x323
 6748 00f4 01       		.byte	0x1
 6749 00f5 07       		.uleb128 0x7
 6750 00f6 64657600 		.ascii	"dev\000"
 6751 00fa 04       		.byte	0x4
 6752 00fb 5104     		.2byte	0x451
 6753 00fd 63030000 		.4byte	0x363
 6754 0101 04       		.byte	0x4
 6755 0102 06       		.uleb128 0x6
 6756 0103 090B0000 		.4byte	.LASF20
 6757 0107 04       		.byte	0x4
 6758 0108 5204     		.2byte	0x452
 6759 010a F5030000 		.4byte	0x3f5
 6760 010e 08       		.byte	0x8
 6761 010f 06       		.uleb128 0x6
 6762 0110 4B090000 		.4byte	.LASF21
 6763 0114 04       		.byte	0x4
 6764 0115 5304     		.2byte	0x453
 6765 0117 F5030000 		.4byte	0x3f5
 6766 011b 0C       		.byte	0xc
 6767 011c 06       		.uleb128 0x6
 6768 011d 86040000 		.4byte	.LASF22
 6769 0121 04       		.byte	0x4
 6770 0122 5404     		.2byte	0x454
 6771 0124 97000000 		.4byte	0x97
 6772 0128 10       		.byte	0x10
 6773 0129 06       		.uleb128 0x6
 6774 012a 6F030000 		.4byte	.LASF23
 6775 012e 04       		.byte	0x4
 6776 012f 5404     		.2byte	0x454
 6777 0131 97000000 		.4byte	0x97
 6778 0135 11       		.byte	0x11
 6779 0136 06       		.uleb128 0x6
 6780 0137 4C020000 		.4byte	.LASF24
 6781 013b 04       		.byte	0x4
 6782 013c 5504     		.2byte	0x455
 6783 013e 97000000 		.4byte	0x97
 6784 0142 12       		.byte	0x12
 6785 0143 06       		.uleb128 0x6
 6786 0144 BA090000 		.4byte	.LASF25
 6787 0148 04       		.byte	0x4
 6788 0149 5604     		.2byte	0x456
 6789 014b 97000000 		.4byte	0x97
 6790 014f 13       		.byte	0x13
 6791 0150 06       		.uleb128 0x6
 6792 0151 9C090000 		.4byte	.LASF26
 6793 0155 04       		.byte	0x4
ARM GAS  C:\Users\KJA\AppData\Local\Temp\ccNNA7zi.s 			page 163


 6794 0156 5704     		.2byte	0x457
 6795 0158 23030000 		.4byte	0x323
 6796 015c 14       		.byte	0x14
 6797 015d 06       		.uleb128 0x6
 6798 015e 18070000 		.4byte	.LASF27
 6799 0162 04       		.byte	0x4
 6800 0163 5804     		.2byte	0x458
 6801 0165 23030000 		.4byte	0x323
 6802 0169 15       		.byte	0x15
 6803 016a 06       		.uleb128 0x6
 6804 016b 86020000 		.4byte	.LASF28
 6805 016f 04       		.byte	0x4
 6806 0170 5904     		.2byte	0x459
 6807 0172 9A030000 		.4byte	0x39a
 6808 0176 18       		.byte	0x18
 6809 0177 06       		.uleb128 0x6
 6810 0178 96080000 		.4byte	.LASF29
 6811 017c 04       		.byte	0x4
 6812 017d 5B04     		.2byte	0x45b
 6813 017f 8C000000 		.4byte	0x8c
 6814 0183 1C       		.byte	0x1c
 6815 0184 06       		.uleb128 0x6
 6816 0185 8C090000 		.4byte	.LASF30
 6817 0189 04       		.byte	0x4
 6818 018a 5C04     		.2byte	0x45c
 6819 018c 8C000000 		.4byte	0x8c
 6820 0190 1D       		.byte	0x1d
 6821 0191 06       		.uleb128 0x6
 6822 0192 94090000 		.4byte	.LASF31
 6823 0196 04       		.byte	0x4
 6824 0197 5D04     		.2byte	0x45d
 6825 0199 8C000000 		.4byte	0x8c
 6826 019d 1E       		.byte	0x1e
 6827 019e 06       		.uleb128 0x6
 6828 019f 880A0000 		.4byte	.LASF32
 6829 01a3 04       		.byte	0x4
 6830 01a4 5E04     		.2byte	0x45e
 6831 01a6 97000000 		.4byte	0x97
 6832 01aa 1F       		.byte	0x1f
 6833 01ab 06       		.uleb128 0x6
 6834 01ac 86060000 		.4byte	.LASF33
 6835 01b0 04       		.byte	0x4
 6836 01b1 5F04     		.2byte	0x45f
 6837 01b3 97000000 		.4byte	0x97
 6838 01b7 20       		.byte	0x20
 6839 01b8 06       		.uleb128 0x6
 6840 01b9 F0010000 		.4byte	.LASF34
 6841 01bd 04       		.byte	0x4
 6842 01be 6104     		.2byte	0x461
 6843 01c0 B7030000 		.4byte	0x3b7
 6844 01c4 24       		.byte	0x24
 6845 01c5 06       		.uleb128 0x6
 6846 01c6 2E060000 		.4byte	.LASF35
 6847 01ca 04       		.byte	0x4
 6848 01cb 6204     		.2byte	0x462
 6849 01cd 97000000 		.4byte	0x97
 6850 01d1 28       		.byte	0x28
ARM GAS  C:\Users\KJA\AppData\Local\Temp\ccNNA7zi.s 			page 164


 6851 01d2 06       		.uleb128 0x6
 6852 01d3 03040000 		.4byte	.LASF36
 6853 01d7 04       		.byte	0x4
 6854 01d8 6304     		.2byte	0x463
 6855 01da 8C000000 		.4byte	0x8c
 6856 01de 29       		.byte	0x29
 6857 01df 06       		.uleb128 0x6
 6858 01e0 A1030000 		.4byte	.LASF37
 6859 01e4 04       		.byte	0x4
 6860 01e5 6404     		.2byte	0x464
 6861 01e7 8C000000 		.4byte	0x8c
 6862 01eb 2A       		.byte	0x2a
 6863 01ec 06       		.uleb128 0x6
 6864 01ed C20B0000 		.4byte	.LASF38
 6865 01f1 04       		.byte	0x4
 6866 01f2 6504     		.2byte	0x465
 6867 01f4 97000000 		.4byte	0x97
 6868 01f8 2B       		.byte	0x2b
 6869 01f9 06       		.uleb128 0x6
 6870 01fa C4050000 		.4byte	.LASF39
 6871 01fe 04       		.byte	0x4
 6872 01ff 6604     		.2byte	0x466
 6873 0201 97000000 		.4byte	0x97
 6874 0205 2C       		.byte	0x2c
 6875 0206 06       		.uleb128 0x6
 6876 0207 7F030000 		.4byte	.LASF40
 6877 020b 04       		.byte	0x4
 6878 020c 6804     		.2byte	0x468
 6879 020e 6A020000 		.4byte	0x26a
 6880 0212 2D       		.byte	0x2d
 6881 0213 06       		.uleb128 0x6
 6882 0214 B5000000 		.4byte	.LASF41
 6883 0218 04       		.byte	0x4
 6884 0219 6F04     		.2byte	0x46f
 6885 021b D8030000 		.4byte	0x3d8
 6886 021f 34       		.byte	0x34
 6887 0220 06       		.uleb128 0x6
 6888 0221 F6060000 		.4byte	.LASF42
 6889 0225 04       		.byte	0x4
 6890 0226 7104     		.2byte	0x471
 6891 0228 DA020000 		.4byte	0x2da
 6892 022c 38       		.byte	0x38
 6893 022d 00       		.byte	0
 6894 022e 04       		.uleb128 0x4
 6895 022f 26030000 		.4byte	.LASF43
 6896 0233 04       		.byte	0x4
 6897 0234 A1       		.byte	0xa1
 6898 0235 39020000 		.4byte	0x239
 6899 0239 08       		.uleb128 0x8
 6900 023a C4080000 		.4byte	.LASF45
 6901 023e 0C       		.byte	0xc
 6902 023f 04       		.byte	0x4
 6903 0240 CF       		.byte	0xcf
 6904 0241 6A020000 		.4byte	0x26a
 6905 0245 09       		.uleb128 0x9
 6906 0246 36080000 		.4byte	.LASF46
 6907 024a 04       		.byte	0x4
ARM GAS  C:\Users\KJA\AppData\Local\Temp\ccNNA7zi.s 			page 165


 6908 024b D1       		.byte	0xd1
 6909 024c 2E030000 		.4byte	0x32e
 6910 0250 00       		.byte	0
 6911 0251 09       		.uleb128 0x9
 6912 0252 07080000 		.4byte	.LASF47
 6913 0256 04       		.byte	0x4
 6914 0257 D2       		.byte	0xd2
 6915 0258 69030000 		.4byte	0x369
 6916 025c 04       		.byte	0x4
 6917 025d 09       		.uleb128 0x9
 6918 025e 44090000 		.4byte	.LASF48
 6919 0262 04       		.byte	0x4
 6920 0263 D3       		.byte	0xd3
 6921 0264 6B030000 		.4byte	0x36b
 6922 0268 08       		.byte	0x8
 6923 0269 00       		.byte	0
 6924 026a 04       		.uleb128 0x4
 6925 026b 62080000 		.4byte	.LASF49
 6926 026f 04       		.byte	0x4
 6927 0270 A3       		.byte	0xa3
 6928 0271 75020000 		.4byte	0x275
 6929 0275 05       		.uleb128 0x5
 6930 0276 15000000 		.4byte	.LASF50
 6931 027a 07       		.byte	0x7
 6932 027b 04       		.byte	0x4
 6933 027c 1D02     		.2byte	0x21d
 6934 027e DA020000 		.4byte	0x2da
 6935 0282 07       		.uleb128 0x7
 6936 0283 7800     		.ascii	"x\000"
 6937 0285 04       		.byte	0x4
 6938 0286 1F02     		.2byte	0x21f
 6939 0288 23030000 		.4byte	0x323
 6940 028c 00       		.byte	0
 6941 028d 07       		.uleb128 0x7
 6942 028e 7900     		.ascii	"y\000"
 6943 0290 04       		.byte	0x4
 6944 0291 1F02     		.2byte	0x21f
 6945 0293 23030000 		.4byte	0x323
 6946 0297 01       		.byte	0x1
 6947 0298 06       		.uleb128 0x6
 6948 0299 20010000 		.4byte	.LASF51
 6949 029d 04       		.byte	0x4
 6950 029e 2002     		.2byte	0x220
 6951 02a0 97000000 		.4byte	0x97
 6952 02a4 02       		.byte	0x2
 6953 02a5 07       		.uleb128 0x7
 6954 02a6 64697200 		.ascii	"dir\000"
 6955 02aa 04       		.byte	0x4
 6956 02ab 2102     		.2byte	0x221
 6957 02ad 97000000 		.4byte	0x97
 6958 02b1 03       		.byte	0x3
 6959 02b2 06       		.uleb128 0x6
 6960 02b3 A5090000 		.4byte	.LASF52
 6961 02b7 04       		.byte	0x4
 6962 02b8 2202     		.2byte	0x222
 6963 02ba 97000000 		.4byte	0x97
 6964 02be 04       		.byte	0x4
ARM GAS  C:\Users\KJA\AppData\Local\Temp\ccNNA7zi.s 			page 166


 6965 02bf 06       		.uleb128 0x6
 6966 02c0 310B0000 		.4byte	.LASF53
 6967 02c4 04       		.byte	0x4
 6968 02c5 2302     		.2byte	0x223
 6969 02c7 97000000 		.4byte	0x97
 6970 02cb 05       		.byte	0x5
 6971 02cc 06       		.uleb128 0x6
 6972 02cd D3070000 		.4byte	.LASF54
 6973 02d1 04       		.byte	0x4
 6974 02d2 2402     		.2byte	0x224
 6975 02d4 97000000 		.4byte	0x97
 6976 02d8 06       		.byte	0x6
 6977 02d9 00       		.byte	0
 6978 02da 04       		.uleb128 0x4
 6979 02db 91050000 		.4byte	.LASF55
 6980 02df 04       		.byte	0x4
 6981 02e0 A5       		.byte	0xa5
 6982 02e1 E5020000 		.4byte	0x2e5
 6983 02e5 05       		.uleb128 0x5
 6984 02e6 1F0C0000 		.4byte	.LASF56
 6985 02ea 04       		.byte	0x4
 6986 02eb 04       		.byte	0x4
 6987 02ec 3102     		.2byte	0x231
 6988 02ee 23030000 		.4byte	0x323
 6989 02f2 07       		.uleb128 0x7
 6990 02f3 783000   		.ascii	"x0\000"
 6991 02f6 04       		.byte	0x4
 6992 02f7 3302     		.2byte	0x233
 6993 02f9 23030000 		.4byte	0x323
 6994 02fd 00       		.byte	0
 6995 02fe 07       		.uleb128 0x7
 6996 02ff 793000   		.ascii	"y0\000"
 6997 0302 04       		.byte	0x4
 6998 0303 3302     		.2byte	0x233
 6999 0305 23030000 		.4byte	0x323
 7000 0309 01       		.byte	0x1
 7001 030a 07       		.uleb128 0x7
 7002 030b 783100   		.ascii	"x1\000"
 7003 030e 04       		.byte	0x4
 7004 030f 3302     		.2byte	0x233
 7005 0311 23030000 		.4byte	0x323
 7006 0315 02       		.byte	0x2
 7007 0316 07       		.uleb128 0x7
 7008 0317 793100   		.ascii	"y1\000"
 7009 031a 04       		.byte	0x4
 7010 031b 3302     		.2byte	0x233
 7011 031d 23030000 		.4byte	0x323
 7012 0321 03       		.byte	0x3
 7013 0322 00       		.byte	0
 7014 0323 04       		.uleb128 0x4
 7015 0324 64030000 		.4byte	.LASF57
 7016 0328 04       		.byte	0x4
 7017 0329 AF       		.byte	0xaf
 7018 032a 97000000 		.4byte	0x97
 7019 032e 04       		.uleb128 0x4
 7020 032f 1B0B0000 		.4byte	.LASF58
 7021 0333 04       		.byte	0x4
ARM GAS  C:\Users\KJA\AppData\Local\Temp\ccNNA7zi.s 			page 167


 7022 0334 C7       		.byte	0xc7
 7023 0335 39030000 		.4byte	0x339
 7024 0339 0A       		.uleb128 0xa
 7025 033a 04       		.byte	0x4
 7026 033b 3F030000 		.4byte	0x33f
 7027 033f 0B       		.uleb128 0xb
 7028 0340 97000000 		.4byte	0x97
 7029 0344 5D030000 		.4byte	0x35d
 7030 0348 0C       		.uleb128 0xc
 7031 0349 5D030000 		.4byte	0x35d
 7032 034d 0C       		.uleb128 0xc
 7033 034e 63030000 		.4byte	0x363
 7034 0352 0C       		.uleb128 0xc
 7035 0353 97000000 		.4byte	0x97
 7036 0357 0C       		.uleb128 0xc
 7037 0358 69030000 		.4byte	0x369
 7038 035c 00       		.byte	0
 7039 035d 0A       		.uleb128 0xa
 7040 035e 04       		.byte	0x4
 7041 035f C3000000 		.4byte	0xc3
 7042 0363 0A       		.uleb128 0xa
 7043 0364 04       		.byte	0x4
 7044 0365 2E020000 		.4byte	0x22e
 7045 0369 0D       		.uleb128 0xd
 7046 036a 04       		.byte	0x4
 7047 036b 04       		.uleb128 0x4
 7048 036c 1D080000 		.4byte	.LASF59
 7049 0370 04       		.byte	0x4
 7050 0371 CA       		.byte	0xca
 7051 0372 76030000 		.4byte	0x376
 7052 0376 0A       		.uleb128 0xa
 7053 0377 04       		.byte	0x4
 7054 0378 7C030000 		.4byte	0x37c
 7055 037c 0B       		.uleb128 0xb
 7056 037d 97000000 		.4byte	0x97
 7057 0381 9A030000 		.4byte	0x39a
 7058 0385 0C       		.uleb128 0xc
 7059 0386 5D030000 		.4byte	0x35d
 7060 038a 0C       		.uleb128 0xc
 7061 038b 97000000 		.4byte	0x97
 7062 038f 0C       		.uleb128 0xc
 7063 0390 97000000 		.4byte	0x97
 7064 0394 0C       		.uleb128 0xc
 7065 0395 69030000 		.4byte	0x369
 7066 0399 00       		.byte	0
 7067 039a 0E       		.uleb128 0xe
 7068 039b D2020000 		.4byte	.LASF60
 7069 039f 04       		.byte	0x4
 7070 03a0 0D04     		.2byte	0x40d
 7071 03a2 A6030000 		.4byte	0x3a6
 7072 03a6 0A       		.uleb128 0xa
 7073 03a7 04       		.byte	0x4
 7074 03a8 AC030000 		.4byte	0x3ac
 7075 03ac 0F       		.uleb128 0xf
 7076 03ad B7030000 		.4byte	0x3b7
 7077 03b1 0C       		.uleb128 0xc
 7078 03b2 5D030000 		.4byte	0x35d
ARM GAS  C:\Users\KJA\AppData\Local\Temp\ccNNA7zi.s 			page 168


 7079 03b6 00       		.byte	0
 7080 03b7 0E       		.uleb128 0xe
 7081 03b8 B2030000 		.4byte	.LASF61
 7082 03bc 04       		.byte	0x4
 7083 03bd 1004     		.2byte	0x410
 7084 03bf C3030000 		.4byte	0x3c3
 7085 03c3 0A       		.uleb128 0xa
 7086 03c4 04       		.byte	0x4
 7087 03c5 C9030000 		.4byte	0x3c9
 7088 03c9 0B       		.uleb128 0xb
 7089 03ca 23030000 		.4byte	0x323
 7090 03ce D8030000 		.4byte	0x3d8
 7091 03d2 0C       		.uleb128 0xc
 7092 03d3 5D030000 		.4byte	0x35d
 7093 03d7 00       		.byte	0
 7094 03d8 0E       		.uleb128 0xe
 7095 03d9 5D0A0000 		.4byte	.LASF62
 7096 03dd 04       		.byte	0x4
 7097 03de 1304     		.2byte	0x413
 7098 03e0 E4030000 		.4byte	0x3e4
 7099 03e4 0A       		.uleb128 0xa
 7100 03e5 04       		.byte	0x4
 7101 03e6 EA030000 		.4byte	0x3ea
 7102 03ea 0F       		.uleb128 0xf
 7103 03eb F5030000 		.4byte	0x3f5
 7104 03ef 0C       		.uleb128 0xc
 7105 03f0 97000000 		.4byte	0x97
 7106 03f4 00       		.byte	0
 7107 03f5 0A       		.uleb128 0xa
 7108 03f6 04       		.byte	0x4
 7109 03f7 FB030000 		.4byte	0x3fb
 7110 03fb 10       		.uleb128 0x10
 7111 03fc AD000000 		.4byte	0xad
 7112 0400 03       		.uleb128 0x3
 7113 0401 04       		.byte	0x4
 7114 0402 07       		.byte	0x7
 7115 0403 A0060000 		.4byte	.LASF63
 7116 0407 04       		.uleb128 0x4
 7117 0408 DD090000 		.4byte	.LASF64
 7118 040c 01       		.byte	0x1
 7119 040d 95       		.byte	0x95
 7120 040e A2000000 		.4byte	0xa2
 7121 0412 08       		.uleb128 0x8
 7122 0413 B8060000 		.4byte	.LASF65
 7123 0417 08       		.byte	0x8
 7124 0418 01       		.byte	0x1
 7125 0419 9C       		.byte	0x9c
 7126 041a 67040000 		.4byte	0x467
 7127 041e 09       		.uleb128 0x9
 7128 041f 1C090000 		.4byte	.LASF66
 7129 0423 01       		.byte	0x1
 7130 0424 9F       		.byte	0x9f
 7131 0425 97000000 		.4byte	0x97
 7132 0429 00       		.byte	0
 7133 042a 09       		.uleb128 0x9
 7134 042b E9070000 		.4byte	.LASF67
 7135 042f 01       		.byte	0x1
ARM GAS  C:\Users\KJA\AppData\Local\Temp\ccNNA7zi.s 			page 169


 7136 0430 A0       		.byte	0xa0
 7137 0431 97000000 		.4byte	0x97
 7138 0435 01       		.byte	0x1
 7139 0436 09       		.uleb128 0x9
 7140 0437 A2040000 		.4byte	.LASF68
 7141 043b 01       		.byte	0x1
 7142 043c A1       		.byte	0xa1
 7143 043d 97000000 		.4byte	0x97
 7144 0441 02       		.byte	0x2
 7145 0442 09       		.uleb128 0x9
 7146 0443 0F080000 		.4byte	.LASF69
 7147 0447 01       		.byte	0x1
 7148 0448 A4       		.byte	0xa4
 7149 0449 97000000 		.4byte	0x97
 7150 044d 03       		.byte	0x3
 7151 044e 09       		.uleb128 0x9
 7152 044f FF010000 		.4byte	.LASF70
 7153 0453 01       		.byte	0x1
 7154 0454 A5       		.byte	0xa5
 7155 0455 97000000 		.4byte	0x97
 7156 0459 04       		.byte	0x4
 7157 045a 09       		.uleb128 0x9
 7158 045b 24060000 		.4byte	.LASF71
 7159 045f 01       		.byte	0x1
 7160 0460 A7       		.byte	0xa7
 7161 0461 07040000 		.4byte	0x407
 7162 0465 06       		.byte	0x6
 7163 0466 00       		.byte	0
 7164 0467 04       		.uleb128 0x4
 7165 0468 48060000 		.4byte	.LASF72
 7166 046c 01       		.byte	0x1
 7167 046d A9       		.byte	0xa9
 7168 046e 12040000 		.4byte	0x412
 7169 0472 04       		.uleb128 0x4
 7170 0473 3B0A0000 		.4byte	.LASF73
 7171 0477 01       		.byte	0x1
 7172 0478 AA       		.byte	0xaa
 7173 0479 7D040000 		.4byte	0x47d
 7174 047d 0A       		.uleb128 0xa
 7175 047e 04       		.byte	0x4
 7176 047f 12040000 		.4byte	0x412
 7177 0483 08       		.uleb128 0x8
 7178 0484 8C010000 		.4byte	.LASF74
 7179 0488 09       		.byte	0x9
 7180 0489 01       		.byte	0x1
 7181 048a AD       		.byte	0xad
 7182 048b F0040000 		.4byte	0x4f0
 7183 048f 09       		.uleb128 0x9
 7184 0490 290B0000 		.4byte	.LASF75
 7185 0494 01       		.byte	0x1
 7186 0495 AF       		.byte	0xaf
 7187 0496 97000000 		.4byte	0x97
 7188 049a 00       		.byte	0
 7189 049b 09       		.uleb128 0x9
 7190 049c 51080000 		.4byte	.LASF76
 7191 04a0 01       		.byte	0x1
 7192 04a1 B0       		.byte	0xb0
ARM GAS  C:\Users\KJA\AppData\Local\Temp\ccNNA7zi.s 			page 170


 7193 04a2 97000000 		.4byte	0x97
 7194 04a6 01       		.byte	0x1
 7195 04a7 09       		.uleb128 0x9
 7196 04a8 2E010000 		.4byte	.LASF77
 7197 04ac 01       		.byte	0x1
 7198 04ad B1       		.byte	0xb1
 7199 04ae 97000000 		.4byte	0x97
 7200 04b2 02       		.byte	0x2
 7201 04b3 09       		.uleb128 0x9
 7202 04b4 6D020000 		.4byte	.LASF78
 7203 04b8 01       		.byte	0x1
 7204 04b9 B3       		.byte	0xb3
 7205 04ba 97000000 		.4byte	0x97
 7206 04be 03       		.byte	0x3
 7207 04bf 09       		.uleb128 0x9
 7208 04c0 BA0A0000 		.4byte	.LASF79
 7209 04c4 01       		.byte	0x1
 7210 04c5 B4       		.byte	0xb4
 7211 04c6 97000000 		.4byte	0x97
 7212 04ca 04       		.byte	0x4
 7213 04cb 09       		.uleb128 0x9
 7214 04cc 9C000000 		.4byte	.LASF80
 7215 04d0 01       		.byte	0x1
 7216 04d1 B5       		.byte	0xb5
 7217 04d2 97000000 		.4byte	0x97
 7218 04d6 05       		.byte	0x5
 7219 04d7 09       		.uleb128 0x9
 7220 04d8 43080000 		.4byte	.LASF81
 7221 04dc 01       		.byte	0x1
 7222 04dd BB       		.byte	0xbb
 7223 04de F0040000 		.4byte	0x4f0
 7224 04e2 06       		.byte	0x6
 7225 04e3 09       		.uleb128 0x9
 7226 04e4 89030000 		.4byte	.LASF82
 7227 04e8 01       		.byte	0x1
 7228 04e9 C5       		.byte	0xc5
 7229 04ea 97000000 		.4byte	0x97
 7230 04ee 08       		.byte	0x8
 7231 04ef 00       		.byte	0
 7232 04f0 11       		.uleb128 0x11
 7233 04f1 97000000 		.4byte	0x97
 7234 04f5 00050000 		.4byte	0x500
 7235 04f9 12       		.uleb128 0x12
 7236 04fa 00040000 		.4byte	0x400
 7237 04fe 01       		.byte	0x1
 7238 04ff 00       		.byte	0
 7239 0500 04       		.uleb128 0x4
 7240 0501 66000000 		.4byte	.LASF83
 7241 0505 01       		.byte	0x1
 7242 0506 C8       		.byte	0xc8
 7243 0507 83040000 		.4byte	0x483
 7244 050b 04       		.uleb128 0x4
 7245 050c 44030000 		.4byte	.LASF84
 7246 0510 01       		.byte	0x1
 7247 0511 C9       		.byte	0xc9
 7248 0512 16050000 		.4byte	0x516
 7249 0516 0A       		.uleb128 0xa
ARM GAS  C:\Users\KJA\AppData\Local\Temp\ccNNA7zi.s 			page 171


 7250 0517 04       		.byte	0x4
 7251 0518 83040000 		.4byte	0x483
 7252 051c 08       		.uleb128 0x8
 7253 051d EA000000 		.4byte	.LASF85
 7254 0521 F8       		.byte	0xf8
 7255 0522 01       		.byte	0x1
 7256 0523 CC       		.byte	0xcc
 7257 0524 0A060000 		.4byte	0x60a
 7258 0528 09       		.uleb128 0x9
 7259 0529 F0090000 		.4byte	.LASF86
 7260 052d 01       		.byte	0x1
 7261 052e D1       		.byte	0xd1
 7262 052f 97000000 		.4byte	0x97
 7263 0533 00       		.byte	0
 7264 0534 09       		.uleb128 0x9
 7265 0535 F10A0000 		.4byte	.LASF87
 7266 0539 01       		.byte	0x1
 7267 053a D4       		.byte	0xd4
 7268 053b 97000000 		.4byte	0x97
 7269 053f 01       		.byte	0x1
 7270 0540 09       		.uleb128 0x9
 7271 0541 58060000 		.4byte	.LASF88
 7272 0545 01       		.byte	0x1
 7273 0546 D8       		.byte	0xd8
 7274 0547 0A060000 		.4byte	0x60a
 7275 054b 02       		.byte	0x2
 7276 054c 09       		.uleb128 0x9
 7277 054d 43080000 		.4byte	.LASF81
 7278 0551 01       		.byte	0x1
 7279 0552 DC       		.byte	0xdc
 7280 0553 F0040000 		.4byte	0x4f0
 7281 0557 42       		.byte	0x42
 7282 0558 09       		.uleb128 0x9
 7283 0559 89030000 		.4byte	.LASF82
 7284 055d 01       		.byte	0x1
 7285 055e E5       		.byte	0xe5
 7286 055f 97000000 		.4byte	0x97
 7287 0563 44       		.byte	0x44
 7288 0564 09       		.uleb128 0x9
 7289 0565 21070000 		.4byte	.LASF89
 7290 0569 01       		.byte	0x1
 7291 056a EB       		.byte	0xeb
 7292 056b 97000000 		.4byte	0x97
 7293 056f 45       		.byte	0x45
 7294 0570 09       		.uleb128 0x9
 7295 0571 D1050000 		.4byte	.LASF90
 7296 0575 01       		.byte	0x1
 7297 0576 F0       		.byte	0xf0
 7298 0577 97000000 		.4byte	0x97
 7299 057b 46       		.byte	0x46
 7300 057c 09       		.uleb128 0x9
 7301 057d 38010000 		.4byte	.LASF91
 7302 0581 01       		.byte	0x1
 7303 0582 F4       		.byte	0xf4
 7304 0583 97000000 		.4byte	0x97
 7305 0587 47       		.byte	0x47
 7306 0588 09       		.uleb128 0x9
ARM GAS  C:\Users\KJA\AppData\Local\Temp\ccNNA7zi.s 			page 172


 7307 0589 DB0B0000 		.4byte	.LASF92
 7308 058d 01       		.byte	0x1
 7309 058e F8       		.byte	0xf8
 7310 058f 97000000 		.4byte	0x97
 7311 0593 48       		.byte	0x48
 7312 0594 06       		.uleb128 0x6
 7313 0595 99020000 		.4byte	.LASF93
 7314 0599 01       		.byte	0x1
 7315 059a 0001     		.2byte	0x100
 7316 059c 97000000 		.4byte	0x97
 7317 05a0 49       		.byte	0x49
 7318 05a1 06       		.uleb128 0x6
 7319 05a2 940A0000 		.4byte	.LASF94
 7320 05a6 01       		.byte	0x1
 7321 05a7 0101     		.2byte	0x101
 7322 05a9 97000000 		.4byte	0x97
 7323 05ad 4A       		.byte	0x4a
 7324 05ae 06       		.uleb128 0x6
 7325 05af 090C0000 		.4byte	.LASF95
 7326 05b3 01       		.byte	0x1
 7327 05b4 0501     		.2byte	0x105
 7328 05b6 F0040000 		.4byte	0x4f0
 7329 05ba 4B       		.byte	0x4b
 7330 05bb 06       		.uleb128 0x6
 7331 05bc EA050000 		.4byte	.LASF96
 7332 05c0 01       		.byte	0x1
 7333 05c1 0801     		.2byte	0x108
 7334 05c3 F0040000 		.4byte	0x4f0
 7335 05c7 4D       		.byte	0x4d
 7336 05c8 06       		.uleb128 0x6
 7337 05c9 DD040000 		.4byte	.LASF97
 7338 05cd 01       		.byte	0x1
 7339 05ce 0D01     		.2byte	0x10d
 7340 05d0 97000000 		.4byte	0x97
 7341 05d4 4F       		.byte	0x4f
 7342 05d5 06       		.uleb128 0x6
 7343 05d6 B80B0000 		.4byte	.LASF98
 7344 05da 01       		.byte	0x1
 7345 05db 0E01     		.2byte	0x10e
 7346 05dd 97000000 		.4byte	0x97
 7347 05e1 50       		.byte	0x50
 7348 05e2 06       		.uleb128 0x6
 7349 05e3 CD0A0000 		.4byte	.LASF99
 7350 05e7 01       		.byte	0x1
 7351 05e8 0F01     		.2byte	0x10f
 7352 05ea 72040000 		.4byte	0x472
 7353 05ee 54       		.byte	0x54
 7354 05ef 06       		.uleb128 0x6
 7355 05f0 FA090000 		.4byte	.LASF100
 7356 05f4 01       		.byte	0x1
 7357 05f5 1201     		.2byte	0x112
 7358 05f7 1A060000 		.4byte	0x61a
 7359 05fb 58       		.byte	0x58
 7360 05fc 06       		.uleb128 0x6
 7361 05fd C40A0000 		.4byte	.LASF101
 7362 0601 01       		.byte	0x1
 7363 0602 1501     		.2byte	0x115
ARM GAS  C:\Users\KJA\AppData\Local\Temp\ccNNA7zi.s 			page 173


 7364 0604 2A060000 		.4byte	0x62a
 7365 0608 80       		.byte	0x80
 7366 0609 00       		.byte	0
 7367 060a 11       		.uleb128 0x11
 7368 060b 97000000 		.4byte	0x97
 7369 060f 1A060000 		.4byte	0x61a
 7370 0613 12       		.uleb128 0x12
 7371 0614 00040000 		.4byte	0x400
 7372 0618 3F       		.byte	0x3f
 7373 0619 00       		.byte	0
 7374 061a 11       		.uleb128 0x11
 7375 061b 67040000 		.4byte	0x467
 7376 061f 2A060000 		.4byte	0x62a
 7377 0623 12       		.uleb128 0x12
 7378 0624 00040000 		.4byte	0x400
 7379 0628 04       		.byte	0x4
 7380 0629 00       		.byte	0
 7381 062a 11       		.uleb128 0x11
 7382 062b 00050000 		.4byte	0x500
 7383 062f 3A060000 		.4byte	0x63a
 7384 0633 12       		.uleb128 0x12
 7385 0634 00040000 		.4byte	0x400
 7386 0638 0C       		.byte	0xc
 7387 0639 00       		.byte	0
 7388 063a 0E       		.uleb128 0xe
 7389 063b 3D080000 		.4byte	.LASF102
 7390 063f 01       		.byte	0x1
 7391 0640 1701     		.2byte	0x117
 7392 0642 1C050000 		.4byte	0x51c
 7393 0646 13       		.uleb128 0x13
 7394 0647 440C0000 		.4byte	.LASF229
 7395 064b 01       		.byte	0x1
 7396 064c 5701     		.2byte	0x157
 7397 064e 72040000 		.4byte	0x472
 7398 0652 00000000 		.4byte	.LFB0
 7399 0656 18000000 		.4byte	.LFE0-.LFB0
 7400 065a 01       		.uleb128 0x1
 7401 065b 9C       		.byte	0x9c
 7402 065c 14       		.uleb128 0x14
 7403 065d CF080000 		.4byte	.LASF107
 7404 0661 01       		.byte	0x1
 7405 0662 5C01     		.2byte	0x15c
 7406 0664 97000000 		.4byte	0x97
 7407 0668 00000000 		.4byte	.LFB1
 7408 066c 60000000 		.4byte	.LFE1-.LFB1
 7409 0670 01       		.uleb128 0x1
 7410 0671 9C       		.byte	0x9c
 7411 0672 86060000 		.4byte	0x686
 7412 0676 15       		.uleb128 0x15
 7413 0677 A5090000 		.4byte	.LASF52
 7414 067b 01       		.byte	0x1
 7415 067c 5C01     		.2byte	0x15c
 7416 067e 97000000 		.4byte	0x97
 7417 0682 02       		.uleb128 0x2
 7418 0683 91       		.byte	0x91
 7419 0684 77       		.sleb128 -9
 7420 0685 00       		.byte	0
ARM GAS  C:\Users\KJA\AppData\Local\Temp\ccNNA7zi.s 			page 174


 7421 0686 16       		.uleb128 0x16
 7422 0687 BE000000 		.4byte	.LASF120
 7423 068b 01       		.byte	0x1
 7424 068c 6A01     		.2byte	0x16a
 7425 068e 00000000 		.4byte	.LFB2
 7426 0692 34000000 		.4byte	.LFE2-.LFB2
 7427 0696 01       		.uleb128 0x1
 7428 0697 9C       		.byte	0x9c
 7429 0698 17       		.uleb128 0x17
 7430 0699 F3020000 		.4byte	.LASF103
 7431 069d 01       		.byte	0x1
 7432 069e 7101     		.2byte	0x171
 7433 06a0 00000000 		.4byte	.LFB3
 7434 06a4 26000000 		.4byte	.LFE3-.LFB3
 7435 06a8 01       		.uleb128 0x1
 7436 06a9 9C       		.byte	0x9c
 7437 06aa BC060000 		.4byte	0x6bc
 7438 06ae 18       		.uleb128 0x18
 7439 06af 6500     		.ascii	"e\000"
 7440 06b1 01       		.byte	0x1
 7441 06b2 7301     		.2byte	0x173
 7442 06b4 72040000 		.4byte	0x472
 7443 06b8 02       		.uleb128 0x2
 7444 06b9 91       		.byte	0x91
 7445 06ba 74       		.sleb128 -12
 7446 06bb 00       		.byte	0
 7447 06bc 17       		.uleb128 0x17
 7448 06bd 86050000 		.4byte	.LASF104
 7449 06c1 01       		.byte	0x1
 7450 06c2 7A01     		.2byte	0x17a
 7451 06c4 00000000 		.4byte	.LFB4
 7452 06c8 58000000 		.4byte	.LFE4-.LFB4
 7453 06cc 01       		.uleb128 0x1
 7454 06cd 9C       		.byte	0x9c
 7455 06ce E2060000 		.4byte	0x6e2
 7456 06d2 19       		.uleb128 0x19
 7457 06d3 6D617800 		.ascii	"max\000"
 7458 06d7 01       		.byte	0x1
 7459 06d8 7A01     		.2byte	0x17a
 7460 06da 97000000 		.4byte	0x97
 7461 06de 02       		.uleb128 0x2
 7462 06df 91       		.byte	0x91
 7463 06e0 77       		.sleb128 -9
 7464 06e1 00       		.byte	0
 7465 06e2 17       		.uleb128 0x17
 7466 06e3 30030000 		.4byte	.LASF105
 7467 06e7 01       		.byte	0x1
 7468 06e8 8701     		.2byte	0x187
 7469 06ea 00000000 		.4byte	.LFB5
 7470 06ee 3E000000 		.4byte	.LFE5-.LFB5
 7471 06f2 01       		.uleb128 0x1
 7472 06f3 9C       		.byte	0x9c
 7473 06f4 24070000 		.4byte	0x724
 7474 06f8 19       		.uleb128 0x19
 7475 06f9 76616C00 		.ascii	"val\000"
 7476 06fd 01       		.byte	0x1
 7477 06fe 8701     		.2byte	0x187
ARM GAS  C:\Users\KJA\AppData\Local\Temp\ccNNA7zi.s 			page 175


 7478 0700 07040000 		.4byte	0x407
 7479 0704 02       		.uleb128 0x2
 7480 0705 91       		.byte	0x91
 7481 0706 6E       		.sleb128 -18
 7482 0707 15       		.uleb128 0x15
 7483 0708 0E000000 		.4byte	.LASF106
 7484 070c 01       		.byte	0x1
 7485 070d 8701     		.2byte	0x187
 7486 070f 97000000 		.4byte	0x97
 7487 0713 02       		.uleb128 0x2
 7488 0714 91       		.byte	0x91
 7489 0715 6D       		.sleb128 -19
 7490 0716 18       		.uleb128 0x18
 7491 0717 6500     		.ascii	"e\000"
 7492 0719 01       		.byte	0x1
 7493 071a 8901     		.2byte	0x189
 7494 071c 72040000 		.4byte	0x472
 7495 0720 02       		.uleb128 0x2
 7496 0721 91       		.byte	0x91
 7497 0722 74       		.sleb128 -12
 7498 0723 00       		.byte	0
 7499 0724 1A       		.uleb128 0x1a
 7500 0725 19020000 		.4byte	.LASF108
 7501 0729 01       		.byte	0x1
 7502 072a 9E01     		.2byte	0x19e
 7503 072c 97000000 		.4byte	0x97
 7504 0730 00000000 		.4byte	.LFB6
 7505 0734 42000000 		.4byte	.LFE6-.LFB6
 7506 0738 01       		.uleb128 0x1
 7507 0739 9C       		.byte	0x9c
 7508 073a 4E070000 		.4byte	0x74e
 7509 073e 19       		.uleb128 0x19
 7510 073f 706F7300 		.ascii	"pos\000"
 7511 0743 01       		.byte	0x1
 7512 0744 9E01     		.2byte	0x19e
 7513 0746 97000000 		.4byte	0x97
 7514 074a 02       		.uleb128 0x2
 7515 074b 91       		.byte	0x91
 7516 074c 77       		.sleb128 -9
 7517 074d 00       		.byte	0
 7518 074e 1A       		.uleb128 0x1a
 7519 074f 7D0A0000 		.4byte	.LASF109
 7520 0753 01       		.byte	0x1
 7521 0754 AC01     		.2byte	0x1ac
 7522 0756 97000000 		.4byte	0x97
 7523 075a 00000000 		.4byte	.LFB7
 7524 075e 46000000 		.4byte	.LFE7-.LFB7
 7525 0762 01       		.uleb128 0x1
 7526 0763 9C       		.byte	0x9c
 7527 0764 78070000 		.4byte	0x778
 7528 0768 19       		.uleb128 0x19
 7529 0769 706F7300 		.ascii	"pos\000"
 7530 076d 01       		.byte	0x1
 7531 076e AC01     		.2byte	0x1ac
 7532 0770 97000000 		.4byte	0x97
 7533 0774 02       		.uleb128 0x2
 7534 0775 91       		.byte	0x91
ARM GAS  C:\Users\KJA\AppData\Local\Temp\ccNNA7zi.s 			page 176


 7535 0776 77       		.sleb128 -9
 7536 0777 00       		.byte	0
 7537 0778 1B       		.uleb128 0x1b
 7538 0779 B7050000 		.4byte	.LASF112
 7539 077d 01       		.byte	0x1
 7540 077e C801     		.2byte	0x1c8
 7541 0780 97000000 		.4byte	0x97
 7542 0784 00000000 		.4byte	.LFB8
 7543 0788 3A000000 		.4byte	.LFE8-.LFB8
 7544 078c 01       		.uleb128 0x1
 7545 078d 9C       		.byte	0x9c
 7546 078e B1070000 		.4byte	0x7b1
 7547 0792 15       		.uleb128 0x15
 7548 0793 6A050000 		.4byte	.LASF110
 7549 0797 01       		.byte	0x1
 7550 0798 C801     		.2byte	0x1c8
 7551 079a 97000000 		.4byte	0x97
 7552 079e 02       		.uleb128 0x2
 7553 079f 91       		.byte	0x91
 7554 07a0 6F       		.sleb128 -17
 7555 07a1 1C       		.uleb128 0x1c
 7556 07a2 DD030000 		.4byte	.LASF111
 7557 07a6 01       		.byte	0x1
 7558 07a7 CA01     		.2byte	0x1ca
 7559 07a9 97000000 		.4byte	0x97
 7560 07ad 02       		.uleb128 0x2
 7561 07ae 91       		.byte	0x91
 7562 07af 77       		.sleb128 -9
 7563 07b0 00       		.byte	0
 7564 07b1 1B       		.uleb128 0x1b
 7565 07b2 0E0B0000 		.4byte	.LASF113
 7566 07b6 01       		.byte	0x1
 7567 07b7 E201     		.2byte	0x1e2
 7568 07b9 97000000 		.4byte	0x97
 7569 07bd 00000000 		.4byte	.LFB9
 7570 07c1 2C000000 		.4byte	.LFE9-.LFB9
 7571 07c5 01       		.uleb128 0x1
 7572 07c6 9C       		.byte	0x9c
 7573 07c7 EA070000 		.4byte	0x7ea
 7574 07cb 15       		.uleb128 0x15
 7575 07cc A5090000 		.4byte	.LASF52
 7576 07d0 01       		.byte	0x1
 7577 07d1 E201     		.2byte	0x1e2
 7578 07d3 97000000 		.4byte	0x97
 7579 07d7 02       		.uleb128 0x2
 7580 07d8 91       		.byte	0x91
 7581 07d9 77       		.sleb128 -9
 7582 07da 15       		.uleb128 0x15
 7583 07db 9B030000 		.4byte	.LASF114
 7584 07df 01       		.byte	0x1
 7585 07e0 E201     		.2byte	0x1e2
 7586 07e2 97000000 		.4byte	0x97
 7587 07e6 02       		.uleb128 0x2
 7588 07e7 91       		.byte	0x91
 7589 07e8 76       		.sleb128 -10
 7590 07e9 00       		.byte	0
 7591 07ea 1B       		.uleb128 0x1b
ARM GAS  C:\Users\KJA\AppData\Local\Temp\ccNNA7zi.s 			page 177


 7592 07eb 96040000 		.4byte	.LASF115
 7593 07ef 01       		.byte	0x1
 7594 07f0 EA01     		.2byte	0x1ea
 7595 07f2 97000000 		.4byte	0x97
 7596 07f6 00000000 		.4byte	.LFB10
 7597 07fa 20000000 		.4byte	.LFE10-.LFB10
 7598 07fe 01       		.uleb128 0x1
 7599 07ff 9C       		.byte	0x9c
 7600 0800 13080000 		.4byte	0x813
 7601 0804 19       		.uleb128 0x19
 7602 0805 637000   		.ascii	"cp\000"
 7603 0808 01       		.byte	0x1
 7604 0809 EA01     		.2byte	0x1ea
 7605 080b 97000000 		.4byte	0x97
 7606 080f 02       		.uleb128 0x2
 7607 0810 91       		.byte	0x91
 7608 0811 77       		.sleb128 -9
 7609 0812 00       		.byte	0
 7610 0813 1B       		.uleb128 0x1b
 7611 0814 44040000 		.4byte	.LASF116
 7612 0818 01       		.byte	0x1
 7613 0819 F501     		.2byte	0x1f5
 7614 081b 97000000 		.4byte	0x97
 7615 081f 00000000 		.4byte	.LFB11
 7616 0823 26000000 		.4byte	.LFE11-.LFB11
 7617 0827 01       		.uleb128 0x1
 7618 0828 9C       		.byte	0x9c
 7619 0829 3C080000 		.4byte	0x83c
 7620 082d 19       		.uleb128 0x19
 7621 082e 637000   		.ascii	"cp\000"
 7622 0831 01       		.byte	0x1
 7623 0832 F501     		.2byte	0x1f5
 7624 0834 97000000 		.4byte	0x97
 7625 0838 02       		.uleb128 0x2
 7626 0839 91       		.byte	0x91
 7627 083a 77       		.sleb128 -9
 7628 083b 00       		.byte	0
 7629 083c 14       		.uleb128 0x14
 7630 083d 76020000 		.4byte	.LASF117
 7631 0841 01       		.byte	0x1
 7632 0842 0002     		.2byte	0x200
 7633 0844 97000000 		.4byte	0x97
 7634 0848 00000000 		.4byte	.LFB12
 7635 084c 28000000 		.4byte	.LFE12-.LFB12
 7636 0850 01       		.uleb128 0x1
 7637 0851 9C       		.byte	0x9c
 7638 0852 66080000 		.4byte	0x866
 7639 0856 19       		.uleb128 0x19
 7640 0857 706F7300 		.ascii	"pos\000"
 7641 085b 01       		.byte	0x1
 7642 085c 0002     		.2byte	0x200
 7643 085e 97000000 		.4byte	0x97
 7644 0862 02       		.uleb128 0x2
 7645 0863 91       		.byte	0x91
 7646 0864 77       		.sleb128 -9
 7647 0865 00       		.byte	0
 7648 0866 17       		.uleb128 0x17
ARM GAS  C:\Users\KJA\AppData\Local\Temp\ccNNA7zi.s 			page 178


 7649 0867 05090000 		.4byte	.LASF118
 7650 086b 01       		.byte	0x1
 7651 086c 0902     		.2byte	0x209
 7652 086e 00000000 		.4byte	.LFB13
 7653 0872 30000000 		.4byte	.LFE13-.LFB13
 7654 0876 01       		.uleb128 0x1
 7655 0877 9C       		.byte	0x9c
 7656 0878 9A080000 		.4byte	0x89a
 7657 087c 19       		.uleb128 0x19
 7658 087d 706F7300 		.ascii	"pos\000"
 7659 0881 01       		.byte	0x1
 7660 0882 0902     		.2byte	0x209
 7661 0884 97000000 		.4byte	0x97
 7662 0888 02       		.uleb128 0x2
 7663 0889 91       		.byte	0x91
 7664 088a 77       		.sleb128 -9
 7665 088b 19       		.uleb128 0x19
 7666 088c 637000   		.ascii	"cp\000"
 7667 088f 01       		.byte	0x1
 7668 0890 0902     		.2byte	0x209
 7669 0892 97000000 		.4byte	0x97
 7670 0896 02       		.uleb128 0x2
 7671 0897 91       		.byte	0x91
 7672 0898 76       		.sleb128 -10
 7673 0899 00       		.byte	0
 7674 089a 17       		.uleb128 0x17
 7675 089b 0B020000 		.4byte	.LASF119
 7676 089f 01       		.byte	0x1
 7677 08a0 1302     		.2byte	0x213
 7678 08a2 00000000 		.4byte	.LFB14
 7679 08a6 68000000 		.4byte	.LFE14-.LFB14
 7680 08aa 01       		.uleb128 0x1
 7681 08ab 9C       		.byte	0x9c
 7682 08ac BE080000 		.4byte	0x8be
 7683 08b0 18       		.uleb128 0x18
 7684 08b1 6900     		.ascii	"i\000"
 7685 08b3 01       		.byte	0x1
 7686 08b4 1502     		.2byte	0x215
 7687 08b6 97000000 		.4byte	0x97
 7688 08ba 02       		.uleb128 0x2
 7689 08bb 91       		.byte	0x91
 7690 08bc 77       		.sleb128 -9
 7691 08bd 00       		.byte	0
 7692 08be 1D       		.uleb128 0x1d
 7693 08bf 6F050000 		.4byte	.LASF121
 7694 08c3 01       		.byte	0x1
 7695 08c4 2E02     		.2byte	0x22e
 7696 08c6 00000000 		.4byte	.LFB15
 7697 08ca 64000000 		.4byte	.LFE15-.LFB15
 7698 08ce 01       		.uleb128 0x1
 7699 08cf 9C       		.byte	0x9c
 7700 08d0 17       		.uleb128 0x17
 7701 08d1 98010000 		.4byte	.LASF122
 7702 08d5 01       		.byte	0x1
 7703 08d6 3902     		.2byte	0x239
 7704 08d8 00000000 		.4byte	.LFB16
 7705 08dc 68010000 		.4byte	.LFE16-.LFB16
ARM GAS  C:\Users\KJA\AppData\Local\Temp\ccNNA7zi.s 			page 179


 7706 08e0 01       		.uleb128 0x1
 7707 08e1 9C       		.byte	0x9c
 7708 08e2 0E090000 		.4byte	0x90e
 7709 08e6 18       		.uleb128 0x18
 7710 08e7 6900     		.ascii	"i\000"
 7711 08e9 01       		.byte	0x1
 7712 08ea 3B02     		.2byte	0x23b
 7713 08ec 97000000 		.4byte	0x97
 7714 08f0 02       		.uleb128 0x2
 7715 08f1 91       		.byte	0x91
 7716 08f2 6F       		.sleb128 -17
 7717 08f3 18       		.uleb128 0x18
 7718 08f4 627000   		.ascii	"bp\000"
 7719 08f7 01       		.byte	0x1
 7720 08f8 3C02     		.2byte	0x23c
 7721 08fa 97000000 		.4byte	0x97
 7722 08fe 01       		.uleb128 0x1
 7723 08ff 55       		.byte	0x55
 7724 0900 18       		.uleb128 0x18
 7725 0901 777000   		.ascii	"wp\000"
 7726 0904 01       		.byte	0x1
 7727 0905 3C02     		.2byte	0x23c
 7728 0907 97000000 		.4byte	0x97
 7729 090b 01       		.uleb128 0x1
 7730 090c 54       		.byte	0x54
 7731 090d 00       		.byte	0
 7732 090e 14       		.uleb128 0x14
 7733 090f A9010000 		.4byte	.LASF123
 7734 0913 01       		.byte	0x1
 7735 0914 6D02     		.2byte	0x26d
 7736 0916 97000000 		.4byte	0x97
 7737 091a 00000000 		.4byte	.LFB17
 7738 091e 50000000 		.4byte	.LFE17-.LFB17
 7739 0922 01       		.uleb128 0x1
 7740 0923 9C       		.byte	0x9c
 7741 0924 56090000 		.4byte	0x956
 7742 0928 19       		.uleb128 0x19
 7743 0929 706F7300 		.ascii	"pos\000"
 7744 092d 01       		.byte	0x1
 7745 092e 6D02     		.2byte	0x26d
 7746 0930 97000000 		.4byte	0x97
 7747 0934 02       		.uleb128 0x2
 7748 0935 91       		.byte	0x91
 7749 0936 6F       		.sleb128 -17
 7750 0937 15       		.uleb128 0x15
 7751 0938 0F050000 		.4byte	.LASF124
 7752 093c 01       		.byte	0x1
 7753 093d 6D02     		.2byte	0x26d
 7754 093f 97000000 		.4byte	0x97
 7755 0943 02       		.uleb128 0x2
 7756 0944 91       		.byte	0x91
 7757 0945 6E       		.sleb128 -18
 7758 0946 1C       		.uleb128 0x1c
 7759 0947 680B0000 		.4byte	.LASF125
 7760 094b 01       		.byte	0x1
 7761 094c 6F02     		.2byte	0x26f
 7762 094e 97000000 		.4byte	0x97
ARM GAS  C:\Users\KJA\AppData\Local\Temp\ccNNA7zi.s 			page 180


 7763 0952 02       		.uleb128 0x2
 7764 0953 91       		.byte	0x91
 7765 0954 77       		.sleb128 -9
 7766 0955 00       		.byte	0
 7767 0956 14       		.uleb128 0x14
 7768 0957 50040000 		.4byte	.LASF126
 7769 095b 01       		.byte	0x1
 7770 095c 9502     		.2byte	0x295
 7771 095e 07040000 		.4byte	0x407
 7772 0962 00000000 		.4byte	.LFB18
 7773 0966 9C010000 		.4byte	.LFE18-.LFB18
 7774 096a 01       		.uleb128 0x1
 7775 096b 9C       		.byte	0x9c
 7776 096c F7090000 		.4byte	0x9f7
 7777 0970 18       		.uleb128 0x18
 7778 0971 637000   		.ascii	"cp\000"
 7779 0974 01       		.byte	0x1
 7780 0975 9702     		.2byte	0x297
 7781 0977 97000000 		.4byte	0x97
 7782 097b 02       		.uleb128 0x2
 7783 097c 91       		.byte	0x91
 7784 097d 64       		.sleb128 -28
 7785 097e 1C       		.uleb128 0x1c
 7786 097f A4050000 		.4byte	.LASF127
 7787 0983 01       		.byte	0x1
 7788 0984 9802     		.2byte	0x298
 7789 0986 97000000 		.4byte	0x97
 7790 098a 02       		.uleb128 0x2
 7791 098b 91       		.byte	0x91
 7792 098c 6F       		.sleb128 -17
 7793 098d 1C       		.uleb128 0x1c
 7794 098e 850B0000 		.4byte	.LASF128
 7795 0992 01       		.byte	0x1
 7796 0993 9902     		.2byte	0x299
 7797 0995 97000000 		.4byte	0x97
 7798 0999 02       		.uleb128 0x2
 7799 099a 91       		.byte	0x91
 7800 099b 6E       		.sleb128 -18
 7801 099c 1C       		.uleb128 0x1c
 7802 099d CB030000 		.4byte	.LASF129
 7803 09a1 01       		.byte	0x1
 7804 09a2 9A02     		.2byte	0x29a
 7805 09a4 07040000 		.4byte	0x407
 7806 09a8 02       		.uleb128 0x2
 7807 09a9 91       		.byte	0x91
 7808 09aa 6C       		.sleb128 -20
 7809 09ab 1C       		.uleb128 0x1c
 7810 09ac EE080000 		.4byte	.LASF130
 7811 09b0 01       		.byte	0x1
 7812 09b1 9B02     		.2byte	0x29b
 7813 09b3 07040000 		.4byte	0x407
 7814 09b7 02       		.uleb128 0x2
 7815 09b8 91       		.byte	0x91
 7816 09b9 6A       		.sleb128 -22
 7817 09ba 1C       		.uleb128 0x1c
 7818 09bb 7A010000 		.4byte	.LASF131
 7819 09bf 01       		.byte	0x1
ARM GAS  C:\Users\KJA\AppData\Local\Temp\ccNNA7zi.s 			page 181


 7820 09c0 9C02     		.2byte	0x29c
 7821 09c2 07040000 		.4byte	0x407
 7822 09c6 02       		.uleb128 0x2
 7823 09c7 91       		.byte	0x91
 7824 09c8 68       		.sleb128 -24
 7825 09c9 1C       		.uleb128 0x1c
 7826 09ca 6F060000 		.4byte	.LASF132
 7827 09ce 01       		.byte	0x1
 7828 09cf 9D02     		.2byte	0x29d
 7829 09d1 07040000 		.4byte	0x407
 7830 09d5 02       		.uleb128 0x2
 7831 09d6 91       		.byte	0x91
 7832 09d7 66       		.sleb128 -26
 7833 09d8 1C       		.uleb128 0x1c
 7834 09d9 590C0000 		.4byte	.LASF133
 7835 09dd 01       		.byte	0x1
 7836 09de 9E02     		.2byte	0x29e
 7837 09e0 07040000 		.4byte	0x407
 7838 09e4 02       		.uleb128 0x2
 7839 09e5 91       		.byte	0x91
 7840 09e6 62       		.sleb128 -30
 7841 09e7 18       		.uleb128 0x18
 7842 09e8 706F7300 		.ascii	"pos\000"
 7843 09ec 01       		.byte	0x1
 7844 09ed 9F02     		.2byte	0x29f
 7845 09ef 97000000 		.4byte	0x97
 7846 09f3 02       		.uleb128 0x2
 7847 09f4 91       		.byte	0x91
 7848 09f5 65       		.sleb128 -27
 7849 09f6 00       		.byte	0
 7850 09f7 16       		.uleb128 0x16
 7851 09f8 30090000 		.4byte	.LASF134
 7852 09fc 01       		.byte	0x1
 7853 09fd DB02     		.2byte	0x2db
 7854 09ff 00000000 		.4byte	.LFB19
 7855 0a03 18000000 		.4byte	.LFE19-.LFB19
 7856 0a07 01       		.uleb128 0x1
 7857 0a08 9C       		.byte	0x9c
 7858 0a09 1E       		.uleb128 0x1e
 7859 0a0a C2040000 		.4byte	.LASF135
 7860 0a0e 01       		.byte	0x1
 7861 0a0f E002     		.2byte	0x2e0
 7862 0a11 00000000 		.4byte	.LFB20
 7863 0a15 74000000 		.4byte	.LFE20-.LFB20
 7864 0a19 01       		.uleb128 0x1
 7865 0a1a 9C       		.byte	0x9c
 7866 0a1b 2D0A0000 		.4byte	0xa2d
 7867 0a1f 18       		.uleb128 0x18
 7868 0a20 6900     		.ascii	"i\000"
 7869 0a22 01       		.byte	0x1
 7870 0a23 E202     		.2byte	0x2e2
 7871 0a25 97000000 		.4byte	0x97
 7872 0a29 02       		.uleb128 0x2
 7873 0a2a 91       		.byte	0x91
 7874 0a2b 77       		.sleb128 -9
 7875 0a2c 00       		.byte	0
 7876 0a2d 17       		.uleb128 0x17
ARM GAS  C:\Users\KJA\AppData\Local\Temp\ccNNA7zi.s 			page 182


 7877 0a2e 44010000 		.4byte	.LASF136
 7878 0a32 01       		.byte	0x1
 7879 0a33 F102     		.2byte	0x2f1
 7880 0a35 00000000 		.4byte	.LFB21
 7881 0a39 A0000000 		.4byte	.LFE21-.LFB21
 7882 0a3d 01       		.uleb128 0x1
 7883 0a3e 9C       		.byte	0x9c
 7884 0a3f 530A0000 		.4byte	0xa53
 7885 0a43 18       		.uleb128 0x18
 7886 0a44 63686D00 		.ascii	"chm\000"
 7887 0a48 01       		.byte	0x1
 7888 0a49 F302     		.2byte	0x2f3
 7889 0a4b 0B050000 		.4byte	0x50b
 7890 0a4f 02       		.uleb128 0x2
 7891 0a50 91       		.byte	0x91
 7892 0a51 74       		.sleb128 -12
 7893 0a52 00       		.byte	0
 7894 0a53 1A       		.uleb128 0x1a
 7895 0a54 45000000 		.4byte	.LASF137
 7896 0a58 01       		.byte	0x1
 7897 0a59 1503     		.2byte	0x315
 7898 0a5b 0B050000 		.4byte	0x50b
 7899 0a5f 00000000 		.4byte	.LFB22
 7900 0a63 60000000 		.4byte	.LFE22-.LFB22
 7901 0a67 01       		.uleb128 0x1
 7902 0a68 9C       		.byte	0x9c
 7903 0a69 7D0A0000 		.4byte	0xa7d
 7904 0a6d 18       		.uleb128 0x18
 7905 0a6e 63686D00 		.ascii	"chm\000"
 7906 0a72 01       		.byte	0x1
 7907 0a73 1703     		.2byte	0x317
 7908 0a75 0B050000 		.4byte	0x50b
 7909 0a79 02       		.uleb128 0x2
 7910 0a7a 91       		.byte	0x91
 7911 0a7b 74       		.sleb128 -12
 7912 0a7c 00       		.byte	0
 7913 0a7d 1F       		.uleb128 0x1f
 7914 0a7e 2B080000 		.4byte	.LASF230
 7915 0a82 01       		.byte	0x1
 7916 0a83 2E03     		.2byte	0x32e
 7917 0a85 00000000 		.4byte	.LFB23
 7918 0a89 5A000000 		.4byte	.LFE23-.LFB23
 7919 0a8d 01       		.uleb128 0x1
 7920 0a8e 9C       		.byte	0x9c
 7921 0a8f B00A0000 		.4byte	0xab0
 7922 0a93 19       		.uleb128 0x19
 7923 0a94 7300     		.ascii	"s\000"
 7924 0a96 01       		.byte	0x1
 7925 0a97 2E03     		.2byte	0x32e
 7926 0a99 B00A0000 		.4byte	0xab0
 7927 0a9d 02       		.uleb128 0x2
 7928 0a9e 91       		.byte	0x91
 7929 0a9f 74       		.sleb128 -12
 7930 0aa0 19       		.uleb128 0x19
 7931 0aa1 706F7300 		.ascii	"pos\000"
 7932 0aa5 01       		.byte	0x1
 7933 0aa6 2E03     		.2byte	0x32e
ARM GAS  C:\Users\KJA\AppData\Local\Temp\ccNNA7zi.s 			page 183


 7934 0aa8 97000000 		.4byte	0x97
 7935 0aac 02       		.uleb128 0x2
 7936 0aad 91       		.byte	0x91
 7937 0aae 73       		.sleb128 -13
 7938 0aaf 00       		.byte	0
 7939 0ab0 0A       		.uleb128 0xa
 7940 0ab1 04       		.byte	0x4
 7941 0ab2 B60A0000 		.4byte	0xab6
 7942 0ab6 03       		.uleb128 0x3
 7943 0ab7 01       		.byte	0x1
 7944 0ab8 08       		.byte	0x8
 7945 0ab9 AB090000 		.4byte	.LASF138
 7946 0abd 14       		.uleb128 0x14
 7947 0abe 76080000 		.4byte	.LASF139
 7948 0ac2 01       		.byte	0x1
 7949 0ac3 3903     		.2byte	0x339
 7950 0ac5 150B0000 		.4byte	0xb15
 7951 0ac9 00000000 		.4byte	.LFB24
 7952 0acd C0000000 		.4byte	.LFE24-.LFB24
 7953 0ad1 01       		.uleb128 0x1
 7954 0ad2 9C       		.byte	0x9c
 7955 0ad3 150B0000 		.4byte	0xb15
 7956 0ad7 19       		.uleb128 0x19
 7957 0ad8 69647800 		.ascii	"idx\000"
 7958 0adc 01       		.byte	0x1
 7959 0add 3903     		.2byte	0x339
 7960 0adf 97000000 		.4byte	0x97
 7961 0ae3 02       		.uleb128 0x2
 7962 0ae4 91       		.byte	0x91
 7963 0ae5 67       		.sleb128 -25
 7964 0ae6 18       		.uleb128 0x18
 7965 0ae7 63686D00 		.ascii	"chm\000"
 7966 0aeb 01       		.byte	0x1
 7967 0aec 3B03     		.2byte	0x33b
 7968 0aee 0B050000 		.4byte	0x50b
 7969 0af2 02       		.uleb128 0x2
 7970 0af3 91       		.byte	0x91
 7971 0af4 68       		.sleb128 -24
 7972 0af5 18       		.uleb128 0x18
 7973 0af6 62756600 		.ascii	"buf\000"
 7974 0afa 01       		.byte	0x1
 7975 0afb 3C03     		.2byte	0x33c
 7976 0afd 200B0000 		.4byte	0xb20
 7977 0b01 05       		.uleb128 0x5
 7978 0b02 03       		.byte	0x3
 7979 0b03 04000000 		.4byte	buf.5954
 7980 0b07 18       		.uleb128 0x18
 7981 0b08 7000     		.ascii	"p\000"
 7982 0b0a 01       		.byte	0x1
 7983 0b0b 3D03     		.2byte	0x33d
 7984 0b0d B00A0000 		.4byte	0xab0
 7985 0b11 02       		.uleb128 0x2
 7986 0b12 91       		.byte	0x91
 7987 0b13 6C       		.sleb128 -20
 7988 0b14 00       		.byte	0
 7989 0b15 0A       		.uleb128 0xa
 7990 0b16 04       		.byte	0x4
ARM GAS  C:\Users\KJA\AppData\Local\Temp\ccNNA7zi.s 			page 184


 7991 0b17 1B0B0000 		.4byte	0xb1b
 7992 0b1b 10       		.uleb128 0x10
 7993 0b1c B60A0000 		.4byte	0xab6
 7994 0b20 11       		.uleb128 0x11
 7995 0b21 B60A0000 		.4byte	0xab6
 7996 0b25 300B0000 		.4byte	0xb30
 7997 0b29 12       		.uleb128 0x12
 7998 0b2a 00040000 		.4byte	0x400
 7999 0b2e 06       		.byte	0x6
 8000 0b2f 00       		.byte	0
 8001 0b30 17       		.uleb128 0x17
 8002 0b31 7D0B0000 		.4byte	.LASF140
 8003 0b35 01       		.byte	0x1
 8004 0b36 7103     		.2byte	0x371
 8005 0b38 00000000 		.4byte	.LFB25
 8006 0b3c 7C020000 		.4byte	.LFE25-.LFB25
 8007 0b40 01       		.uleb128 0x1
 8008 0b41 9C       		.byte	0x9c
 8009 0b42 BF0B0000 		.4byte	0xbbf
 8010 0b46 19       		.uleb128 0x19
 8011 0b47 73726300 		.ascii	"src\000"
 8012 0b4b 01       		.byte	0x1
 8013 0b4c 7103     		.2byte	0x371
 8014 0b4e 97000000 		.4byte	0x97
 8015 0b52 02       		.uleb128 0x2
 8016 0b53 91       		.byte	0x91
 8017 0b54 67       		.sleb128 -25
 8018 0b55 15       		.uleb128 0x15
 8019 0b56 D8070000 		.4byte	.LASF141
 8020 0b5a 01       		.byte	0x1
 8021 0b5b 7103     		.2byte	0x371
 8022 0b5d 97000000 		.4byte	0x97
 8023 0b61 02       		.uleb128 0x2
 8024 0b62 91       		.byte	0x91
 8025 0b63 66       		.sleb128 -26
 8026 0b64 18       		.uleb128 0x18
 8027 0b65 63686D00 		.ascii	"chm\000"
 8028 0b69 01       		.byte	0x1
 8029 0b6a 7403     		.2byte	0x374
 8030 0b6c 0B050000 		.4byte	0x50b
 8031 0b70 02       		.uleb128 0x2
 8032 0b71 91       		.byte	0x91
 8033 0b72 70       		.sleb128 -16
 8034 0b73 1C       		.uleb128 0x1c
 8035 0b74 F90A0000 		.4byte	.LASF142
 8036 0b78 01       		.byte	0x1
 8037 0b79 7703     		.2byte	0x377
 8038 0b7b 97000000 		.4byte	0x97
 8039 0b7f 02       		.uleb128 0x2
 8040 0b80 91       		.byte	0x91
 8041 0b81 77       		.sleb128 -9
 8042 0b82 1C       		.uleb128 0x1c
 8043 0b83 9F080000 		.4byte	.LASF143
 8044 0b87 01       		.byte	0x1
 8045 0b88 7703     		.2byte	0x377
 8046 0b8a 97000000 		.4byte	0x97
 8047 0b8e 02       		.uleb128 0x2
ARM GAS  C:\Users\KJA\AppData\Local\Temp\ccNNA7zi.s 			page 185


 8048 0b8f 91       		.byte	0x91
 8049 0b90 6F       		.sleb128 -17
 8050 0b91 1C       		.uleb128 0x1c
 8051 0b92 3F060000 		.4byte	.LASF144
 8052 0b96 01       		.byte	0x1
 8053 0b97 7A03     		.2byte	0x37a
 8054 0b99 97000000 		.4byte	0x97
 8055 0b9d 02       		.uleb128 0x2
 8056 0b9e 91       		.byte	0x91
 8057 0b9f 76       		.sleb128 -10
 8058 0ba0 1C       		.uleb128 0x1c
 8059 0ba1 000B0000 		.4byte	.LASF145
 8060 0ba5 01       		.byte	0x1
 8061 0ba6 7B03     		.2byte	0x37b
 8062 0ba8 97000000 		.4byte	0x97
 8063 0bac 02       		.uleb128 0x2
 8064 0bad 91       		.byte	0x91
 8065 0bae 75       		.sleb128 -11
 8066 0baf 1C       		.uleb128 0x1c
 8067 0bb0 BB070000 		.4byte	.LASF146
 8068 0bb4 01       		.byte	0x1
 8069 0bb5 7C03     		.2byte	0x37c
 8070 0bb7 97000000 		.4byte	0x97
 8071 0bbb 02       		.uleb128 0x2
 8072 0bbc 91       		.byte	0x91
 8073 0bbd 74       		.sleb128 -12
 8074 0bbe 00       		.byte	0
 8075 0bbf 14       		.uleb128 0x14
 8076 0bc0 FC0B0000 		.4byte	.LASF147
 8077 0bc4 01       		.byte	0x1
 8078 0bc5 0C04     		.2byte	0x40c
 8079 0bc7 97000000 		.4byte	0x97
 8080 0bcb 00000000 		.4byte	.LFB26
 8081 0bcf F8000000 		.4byte	.LFE26-.LFB26
 8082 0bd3 01       		.uleb128 0x1
 8083 0bd4 9C       		.byte	0x9c
 8084 0bd5 0F0C0000 		.4byte	0xc0f
 8085 0bd9 19       		.uleb128 0x19
 8086 0bda 706F7300 		.ascii	"pos\000"
 8087 0bde 01       		.byte	0x1
 8088 0bdf 0C04     		.2byte	0x40c
 8089 0be1 97000000 		.4byte	0x97
 8090 0be5 02       		.uleb128 0x2
 8091 0be6 91       		.byte	0x91
 8092 0be7 6F       		.sleb128 -17
 8093 0be8 1C       		.uleb128 0x1c
 8094 0be9 6E0C0000 		.4byte	.LASF148
 8095 0bed 01       		.byte	0x1
 8096 0bee 0E04     		.2byte	0x40e
 8097 0bf0 07040000 		.4byte	0x407
 8098 0bf4 02       		.uleb128 0x2
 8099 0bf5 91       		.byte	0x91
 8100 0bf6 76       		.sleb128 -10
 8101 0bf7 20       		.uleb128 0x20
 8102 0bf8 8E000000 		.4byte	.LBB2
 8103 0bfc 5A000000 		.4byte	.LBE2-.LBB2
 8104 0c00 18       		.uleb128 0x18
ARM GAS  C:\Users\KJA\AppData\Local\Temp\ccNNA7zi.s 			page 186


 8105 0c01 6500     		.ascii	"e\000"
 8106 0c03 01       		.byte	0x1
 8107 0c04 3704     		.2byte	0x437
 8108 0c06 72040000 		.4byte	0x472
 8109 0c0a 02       		.uleb128 0x2
 8110 0c0b 91       		.byte	0x91
 8111 0c0c 70       		.sleb128 -16
 8112 0c0d 00       		.byte	0
 8113 0c0e 00       		.byte	0
 8114 0c0f 17       		.uleb128 0x17
 8115 0c10 2A000000 		.4byte	.LASF149
 8116 0c14 01       		.byte	0x1
 8117 0c15 5804     		.2byte	0x458
 8118 0c17 00000000 		.4byte	.LFB27
 8119 0c1b 66000000 		.4byte	.LFE27-.LFB27
 8120 0c1f 01       		.uleb128 0x1
 8121 0c20 9C       		.byte	0x9c
 8122 0c21 510C0000 		.4byte	0xc51
 8123 0c25 19       		.uleb128 0x19
 8124 0c26 6400     		.ascii	"d\000"
 8125 0c28 01       		.byte	0x1
 8126 0c29 5804     		.2byte	0x458
 8127 0c2b 510C0000 		.4byte	0xc51
 8128 0c2f 02       		.uleb128 0x2
 8129 0c30 91       		.byte	0x91
 8130 0c31 6C       		.sleb128 -20
 8131 0c32 15       		.uleb128 0x15
 8132 0c33 A7000000 		.4byte	.LASF150
 8133 0c37 01       		.byte	0x1
 8134 0c38 5804     		.2byte	0x458
 8135 0c3a 97000000 		.4byte	0x97
 8136 0c3e 02       		.uleb128 0x2
 8137 0c3f 91       		.byte	0x91
 8138 0c40 6B       		.sleb128 -21
 8139 0c41 1C       		.uleb128 0x1c
 8140 0c42 5F0B0000 		.4byte	.LASF151
 8141 0c46 01       		.byte	0x1
 8142 0c47 5A04     		.2byte	0x45a
 8143 0c49 97000000 		.4byte	0x97
 8144 0c4d 02       		.uleb128 0x2
 8145 0c4e 91       		.byte	0x91
 8146 0c4f 77       		.sleb128 -9
 8147 0c50 00       		.byte	0
 8148 0c51 0A       		.uleb128 0xa
 8149 0c52 04       		.byte	0x4
 8150 0c53 570C0000 		.4byte	0xc57
 8151 0c57 10       		.uleb128 0x10
 8152 0c58 97000000 		.4byte	0x97
 8153 0c5c 1D       		.uleb128 0x1d
 8154 0c5d 710B0000 		.4byte	.LASF152
 8155 0c61 01       		.byte	0x1
 8156 0c62 7B04     		.2byte	0x47b
 8157 0c64 00000000 		.4byte	.LFB28
 8158 0c68 14000000 		.4byte	.LFE28-.LFB28
 8159 0c6c 01       		.uleb128 0x1
 8160 0c6d 9C       		.byte	0x9c
 8161 0c6e 1D       		.uleb128 0x1d
ARM GAS  C:\Users\KJA\AppData\Local\Temp\ccNNA7zi.s 			page 187


 8162 0c6f BF090000 		.4byte	.LASF153
 8163 0c73 01       		.byte	0x1
 8164 0c74 8004     		.2byte	0x480
 8165 0c76 00000000 		.4byte	.LFB29
 8166 0c7a 14000000 		.4byte	.LFE29-.LFB29
 8167 0c7e 01       		.uleb128 0x1
 8168 0c7f 9C       		.byte	0x9c
 8169 0c80 1D       		.uleb128 0x1d
 8170 0c81 E0060000 		.4byte	.LASF154
 8171 0c85 01       		.byte	0x1
 8172 0c86 8504     		.2byte	0x485
 8173 0c88 00000000 		.4byte	.LFB30
 8174 0c8c 14000000 		.4byte	.LFE30-.LFB30
 8175 0c90 01       		.uleb128 0x1
 8176 0c91 9C       		.byte	0x9c
 8177 0c92 1D       		.uleb128 0x1d
 8178 0c93 E2030000 		.4byte	.LASF155
 8179 0c97 01       		.byte	0x1
 8180 0c98 8A04     		.2byte	0x48a
 8181 0c9a 00000000 		.4byte	.LFB31
 8182 0c9e 14000000 		.4byte	.LFE31-.LFB31
 8183 0ca2 01       		.uleb128 0x1
 8184 0ca3 9C       		.byte	0x9c
 8185 0ca4 14       		.uleb128 0x14
 8186 0ca5 4B0A0000 		.4byte	.LASF156
 8187 0ca9 01       		.byte	0x1
 8188 0caa 9F04     		.2byte	0x49f
 8189 0cac 97000000 		.4byte	0x97
 8190 0cb0 00000000 		.4byte	.LFB32
 8191 0cb4 B0000000 		.4byte	.LFE32-.LFB32
 8192 0cb8 01       		.uleb128 0x1
 8193 0cb9 9C       		.byte	0x9c
 8194 0cba 0A0D0000 		.4byte	0xd0a
 8195 0cbe 15       		.uleb128 0x15
 8196 0cbf A7080000 		.4byte	.LASF157
 8197 0cc3 01       		.byte	0x1
 8198 0cc4 9F04     		.2byte	0x49f
 8199 0cc6 97000000 		.4byte	0x97
 8200 0cca 02       		.uleb128 0x2
 8201 0ccb 91       		.byte	0x91
 8202 0ccc 6F       		.sleb128 -17
 8203 0ccd 15       		.uleb128 0x15
 8204 0cce 1D040000 		.4byte	.LASF158
 8205 0cd2 01       		.byte	0x1
 8206 0cd3 9F04     		.2byte	0x49f
 8207 0cd5 8C000000 		.4byte	0x8c
 8208 0cd9 02       		.uleb128 0x2
 8209 0cda 91       		.byte	0x91
 8210 0cdb 6E       		.sleb128 -18
 8211 0cdc 19       		.uleb128 0x19
 8212 0cdd 636E7400 		.ascii	"cnt\000"
 8213 0ce1 01       		.byte	0x1
 8214 0ce2 9F04     		.2byte	0x49f
 8215 0ce4 97000000 		.4byte	0x97
 8216 0ce8 02       		.uleb128 0x2
 8217 0ce9 91       		.byte	0x91
 8218 0cea 6D       		.sleb128 -19
ARM GAS  C:\Users\KJA\AppData\Local\Temp\ccNNA7zi.s 			page 188


 8219 0ceb 18       		.uleb128 0x18
 8220 0cec 706F7300 		.ascii	"pos\000"
 8221 0cf0 01       		.byte	0x1
 8222 0cf1 A104     		.2byte	0x4a1
 8223 0cf3 97000000 		.4byte	0x97
 8224 0cf7 02       		.uleb128 0x2
 8225 0cf8 91       		.byte	0x91
 8226 0cf9 77       		.sleb128 -9
 8227 0cfa 1C       		.uleb128 0x1c
 8228 0cfb 2A0C0000 		.4byte	.LASF159
 8229 0cff 01       		.byte	0x1
 8230 0d00 A204     		.2byte	0x4a2
 8231 0d02 97000000 		.4byte	0x97
 8232 0d06 02       		.uleb128 0x2
 8233 0d07 91       		.byte	0x91
 8234 0d08 76       		.sleb128 -10
 8235 0d09 00       		.byte	0
 8236 0d0a 1D       		.uleb128 0x1d
 8237 0d0b E4090000 		.4byte	.LASF160
 8238 0d0f 01       		.byte	0x1
 8239 0d10 C804     		.2byte	0x4c8
 8240 0d12 00000000 		.4byte	.LFB33
 8241 0d16 AC000000 		.4byte	.LFE33-.LFB33
 8242 0d1a 01       		.uleb128 0x1
 8243 0d1b 9C       		.byte	0x9c
 8244 0d1c 17       		.uleb128 0x17
 8245 0d1d 0D060000 		.4byte	.LASF161
 8246 0d21 01       		.byte	0x1
 8247 0d22 FE04     		.2byte	0x4fe
 8248 0d24 00000000 		.4byte	.LFB34
 8249 0d28 7C000000 		.4byte	.LFE34-.LFB34
 8250 0d2c 01       		.uleb128 0x1
 8251 0d2d 9C       		.byte	0x9c
 8252 0d2e 420D0000 		.4byte	0xd42
 8253 0d32 15       		.uleb128 0x15
 8254 0d33 5F0B0000 		.4byte	.LASF151
 8255 0d37 01       		.byte	0x1
 8256 0d38 FE04     		.2byte	0x4fe
 8257 0d3a 97000000 		.4byte	0x97
 8258 0d3e 02       		.uleb128 0x2
 8259 0d3f 91       		.byte	0x91
 8260 0d40 77       		.sleb128 -9
 8261 0d41 00       		.byte	0
 8262 0d42 17       		.uleb128 0x17
 8263 0d43 E50A0000 		.4byte	.LASF162
 8264 0d47 01       		.byte	0x1
 8265 0d48 2105     		.2byte	0x521
 8266 0d4a 00000000 		.4byte	.LFB35
 8267 0d4e F4000000 		.4byte	.LFE35-.LFB35
 8268 0d52 01       		.uleb128 0x1
 8269 0d53 9C       		.byte	0x9c
 8270 0d54 950D0000 		.4byte	0xd95
 8271 0d58 1C       		.uleb128 0x1c
 8272 0d59 DD070000 		.4byte	.LASF163
 8273 0d5d 01       		.byte	0x1
 8274 0d5e 2305     		.2byte	0x523
 8275 0d60 97000000 		.4byte	0x97
ARM GAS  C:\Users\KJA\AppData\Local\Temp\ccNNA7zi.s 			page 189


 8276 0d64 02       		.uleb128 0x2
 8277 0d65 91       		.byte	0x91
 8278 0d66 76       		.sleb128 -10
 8279 0d67 1C       		.uleb128 0x1c
 8280 0d68 0F050000 		.4byte	.LASF124
 8281 0d6c 01       		.byte	0x1
 8282 0d6d 2405     		.2byte	0x524
 8283 0d6f 97000000 		.4byte	0x97
 8284 0d73 02       		.uleb128 0x2
 8285 0d74 91       		.byte	0x91
 8286 0d75 75       		.sleb128 -11
 8287 0d76 1C       		.uleb128 0x1c
 8288 0d77 5F0B0000 		.4byte	.LASF151
 8289 0d7b 01       		.byte	0x1
 8290 0d7c 2605     		.2byte	0x526
 8291 0d7e 97000000 		.4byte	0x97
 8292 0d82 02       		.uleb128 0x2
 8293 0d83 91       		.byte	0x91
 8294 0d84 77       		.sleb128 -9
 8295 0d85 1C       		.uleb128 0x1c
 8296 0d86 360A0000 		.4byte	.LASF164
 8297 0d8a 01       		.byte	0x1
 8298 0d8b 2705     		.2byte	0x527
 8299 0d8d 97000000 		.4byte	0x97
 8300 0d91 02       		.uleb128 0x2
 8301 0d92 91       		.byte	0x91
 8302 0d93 74       		.sleb128 -12
 8303 0d94 00       		.byte	0
 8304 0d95 17       		.uleb128 0x17
 8305 0d96 3A0B0000 		.4byte	.LASF165
 8306 0d9a 01       		.byte	0x1
 8307 0d9b 6F05     		.2byte	0x56f
 8308 0d9d 00000000 		.4byte	.LFB36
 8309 0da1 D0000000 		.4byte	.LFE36-.LFB36
 8310 0da5 01       		.uleb128 0x1
 8311 0da6 9C       		.byte	0x9c
 8312 0da7 030E0000 		.4byte	0xe03
 8313 0dab 15       		.uleb128 0x15
 8314 0dac B0090000 		.4byte	.LASF166
 8315 0db0 01       		.byte	0x1
 8316 0db1 6F05     		.2byte	0x56f
 8317 0db3 97000000 		.4byte	0x97
 8318 0db7 02       		.uleb128 0x2
 8319 0db8 91       		.byte	0x91
 8320 0db9 6F       		.sleb128 -17
 8321 0dba 15       		.uleb128 0x15
 8322 0dbb 9B030000 		.4byte	.LASF114
 8323 0dbf 01       		.byte	0x1
 8324 0dc0 6F05     		.2byte	0x56f
 8325 0dc2 97000000 		.4byte	0x97
 8326 0dc6 02       		.uleb128 0x2
 8327 0dc7 91       		.byte	0x91
 8328 0dc8 6E       		.sleb128 -18
 8329 0dc9 19       		.uleb128 0x19
 8330 0dca 6400     		.ascii	"d\000"
 8331 0dcc 01       		.byte	0x1
 8332 0dcd 6F05     		.2byte	0x56f
ARM GAS  C:\Users\KJA\AppData\Local\Temp\ccNNA7zi.s 			page 190


 8333 0dcf 510C0000 		.4byte	0xc51
 8334 0dd3 02       		.uleb128 0x2
 8335 0dd4 91       		.byte	0x91
 8336 0dd5 68       		.sleb128 -24
 8337 0dd6 15       		.uleb128 0x15
 8338 0dd7 A7000000 		.4byte	.LASF150
 8339 0ddb 01       		.byte	0x1
 8340 0ddc 6F05     		.2byte	0x56f
 8341 0dde 97000000 		.4byte	0x97
 8342 0de2 02       		.uleb128 0x2
 8343 0de3 91       		.byte	0x91
 8344 0de4 6D       		.sleb128 -19
 8345 0de5 1C       		.uleb128 0x1c
 8346 0de6 5F0B0000 		.4byte	.LASF151
 8347 0dea 01       		.byte	0x1
 8348 0deb 7105     		.2byte	0x571
 8349 0ded 97000000 		.4byte	0x97
 8350 0df1 02       		.uleb128 0x2
 8351 0df2 91       		.byte	0x91
 8352 0df3 77       		.sleb128 -9
 8353 0df4 18       		.uleb128 0x18
 8354 0df5 637000   		.ascii	"cp\000"
 8355 0df8 01       		.byte	0x1
 8356 0df9 7105     		.2byte	0x571
 8357 0dfb 97000000 		.4byte	0x97
 8358 0dff 02       		.uleb128 0x2
 8359 0e00 91       		.byte	0x91
 8360 0e01 76       		.sleb128 -10
 8361 0e02 00       		.byte	0
 8362 0e03 17       		.uleb128 0x17
 8363 0e04 55000000 		.4byte	.LASF167
 8364 0e08 01       		.byte	0x1
 8365 0e09 9A05     		.2byte	0x59a
 8366 0e0b 00000000 		.4byte	.LFB37
 8367 0e0f 84000000 		.4byte	.LFE37-.LFB37
 8368 0e13 01       		.uleb128 0x1
 8369 0e14 9C       		.byte	0x9c
 8370 0e15 460E0000 		.4byte	0xe46
 8371 0e19 15       		.uleb128 0x15
 8372 0e1a 64020000 		.4byte	.LASF168
 8373 0e1e 01       		.byte	0x1
 8374 0e1f 9A05     		.2byte	0x59a
 8375 0e21 97000000 		.4byte	0x97
 8376 0e25 02       		.uleb128 0x2
 8377 0e26 91       		.byte	0x91
 8378 0e27 6F       		.sleb128 -17
 8379 0e28 15       		.uleb128 0x15
 8380 0e29 A5090000 		.4byte	.LASF52
 8381 0e2d 01       		.byte	0x1
 8382 0e2e 9A05     		.2byte	0x59a
 8383 0e30 97000000 		.4byte	0x97
 8384 0e34 02       		.uleb128 0x2
 8385 0e35 91       		.byte	0x91
 8386 0e36 6E       		.sleb128 -18
 8387 0e37 18       		.uleb128 0x18
 8388 0e38 637000   		.ascii	"cp\000"
 8389 0e3b 01       		.byte	0x1
ARM GAS  C:\Users\KJA\AppData\Local\Temp\ccNNA7zi.s 			page 191


 8390 0e3c 9C05     		.2byte	0x59c
 8391 0e3e 97000000 		.4byte	0x97
 8392 0e42 02       		.uleb128 0x2
 8393 0e43 91       		.byte	0x91
 8394 0e44 77       		.sleb128 -9
 8395 0e45 00       		.byte	0
 8396 0e46 17       		.uleb128 0x17
 8397 0e47 9D0B0000 		.4byte	.LASF169
 8398 0e4b 01       		.byte	0x1
 8399 0e4c C405     		.2byte	0x5c4
 8400 0e4e 00000000 		.4byte	.LFB38
 8401 0e52 D0000000 		.4byte	.LFE38-.LFB38
 8402 0e56 01       		.uleb128 0x1
 8403 0e57 9C       		.byte	0x9c
 8404 0e58 6C0E0000 		.4byte	0xe6c
 8405 0e5c 19       		.uleb128 0x19
 8406 0e5d 706F7300 		.ascii	"pos\000"
 8407 0e61 01       		.byte	0x1
 8408 0e62 C405     		.2byte	0x5c4
 8409 0e64 97000000 		.4byte	0x97
 8410 0e68 02       		.uleb128 0x2
 8411 0e69 91       		.byte	0x91
 8412 0e6a 77       		.sleb128 -9
 8413 0e6b 00       		.byte	0
 8414 0e6c 14       		.uleb128 0x14
 8415 0e6d A7020000 		.4byte	.LASF170
 8416 0e71 01       		.byte	0x1
 8417 0e72 E305     		.2byte	0x5e3
 8418 0e74 97000000 		.4byte	0x97
 8419 0e78 00000000 		.4byte	.LFB39
 8420 0e7c 30000000 		.4byte	.LFE39-.LFB39
 8421 0e80 01       		.uleb128 0x1
 8422 0e81 9C       		.byte	0x9c
 8423 0e82 A50E0000 		.4byte	0xea5
 8424 0e86 19       		.uleb128 0x19
 8425 0e87 706F7300 		.ascii	"pos\000"
 8426 0e8b 01       		.byte	0x1
 8427 0e8c E305     		.2byte	0x5e3
 8428 0e8e 97000000 		.4byte	0x97
 8429 0e92 02       		.uleb128 0x2
 8430 0e93 91       		.byte	0x91
 8431 0e94 77       		.sleb128 -9
 8432 0e95 15       		.uleb128 0x15
 8433 0e96 A5090000 		.4byte	.LASF52
 8434 0e9a 01       		.byte	0x1
 8435 0e9b E305     		.2byte	0x5e3
 8436 0e9d 97000000 		.4byte	0x97
 8437 0ea1 02       		.uleb128 0x2
 8438 0ea2 91       		.byte	0x91
 8439 0ea3 76       		.sleb128 -10
 8440 0ea4 00       		.byte	0
 8441 0ea5 14       		.uleb128 0x14
 8442 0ea6 4A030000 		.4byte	.LASF171
 8443 0eaa 01       		.byte	0x1
 8444 0eab E905     		.2byte	0x5e9
 8445 0ead 97000000 		.4byte	0x97
 8446 0eb1 00000000 		.4byte	.LFB40
ARM GAS  C:\Users\KJA\AppData\Local\Temp\ccNNA7zi.s 			page 192


 8447 0eb5 30000000 		.4byte	.LFE40-.LFB40
 8448 0eb9 01       		.uleb128 0x1
 8449 0eba 9C       		.byte	0x9c
 8450 0ebb DE0E0000 		.4byte	0xede
 8451 0ebf 19       		.uleb128 0x19
 8452 0ec0 706F7300 		.ascii	"pos\000"
 8453 0ec4 01       		.byte	0x1
 8454 0ec5 E905     		.2byte	0x5e9
 8455 0ec7 97000000 		.4byte	0x97
 8456 0ecb 02       		.uleb128 0x2
 8457 0ecc 91       		.byte	0x91
 8458 0ecd 77       		.sleb128 -9
 8459 0ece 15       		.uleb128 0x15
 8460 0ecf A5090000 		.4byte	.LASF52
 8461 0ed3 01       		.byte	0x1
 8462 0ed4 E905     		.2byte	0x5e9
 8463 0ed6 97000000 		.4byte	0x97
 8464 0eda 02       		.uleb128 0x2
 8465 0edb 91       		.byte	0x91
 8466 0edc 76       		.sleb128 -10
 8467 0edd 00       		.byte	0
 8468 0ede 17       		.uleb128 0x17
 8469 0edf 5D010000 		.4byte	.LASF172
 8470 0ee3 01       		.byte	0x1
 8471 0ee4 F405     		.2byte	0x5f4
 8472 0ee6 00000000 		.4byte	.LFB41
 8473 0eea BC000000 		.4byte	.LFE41-.LFB41
 8474 0eee 01       		.uleb128 0x1
 8475 0eef 9C       		.byte	0x9c
 8476 0ef0 020F0000 		.4byte	0xf02
 8477 0ef4 18       		.uleb128 0x18
 8478 0ef5 6500     		.ascii	"e\000"
 8479 0ef7 01       		.byte	0x1
 8480 0ef8 F605     		.2byte	0x5f6
 8481 0efa 72040000 		.4byte	0x472
 8482 0efe 02       		.uleb128 0x2
 8483 0eff 91       		.byte	0x91
 8484 0f00 6C       		.sleb128 -20
 8485 0f01 00       		.byte	0
 8486 0f02 1E       		.uleb128 0x1e
 8487 0f03 6C000000 		.4byte	.LASF173
 8488 0f07 01       		.byte	0x1
 8489 0f08 3106     		.2byte	0x631
 8490 0f0a 00000000 		.4byte	.LFB42
 8491 0f0e 40000000 		.4byte	.LFE42-.LFB42
 8492 0f12 01       		.uleb128 0x1
 8493 0f13 9C       		.byte	0x9c
 8494 0f14 260F0000 		.4byte	0xf26
 8495 0f18 18       		.uleb128 0x18
 8496 0f19 6900     		.ascii	"i\000"
 8497 0f1b 01       		.byte	0x1
 8498 0f1c 3306     		.2byte	0x633
 8499 0f1e 97000000 		.4byte	0x97
 8500 0f22 02       		.uleb128 0x2
 8501 0f23 91       		.byte	0x91
 8502 0f24 77       		.sleb128 -9
 8503 0f25 00       		.byte	0
ARM GAS  C:\Users\KJA\AppData\Local\Temp\ccNNA7zi.s 			page 193


 8504 0f26 1D       		.uleb128 0x1d
 8505 0f27 CE060000 		.4byte	.LASF174
 8506 0f2b 01       		.byte	0x1
 8507 0f2c 3B06     		.2byte	0x63b
 8508 0f2e 00000000 		.4byte	.LFB43
 8509 0f32 1C000000 		.4byte	.LFE43-.LFB43
 8510 0f36 01       		.uleb128 0x1
 8511 0f37 9C       		.byte	0x9c
 8512 0f38 17       		.uleb128 0x17
 8513 0f39 F3040000 		.4byte	.LASF175
 8514 0f3d 01       		.byte	0x1
 8515 0f3e 4806     		.2byte	0x648
 8516 0f40 00000000 		.4byte	.LFB44
 8517 0f44 48000000 		.4byte	.LFE44-.LFB44
 8518 0f48 01       		.uleb128 0x1
 8519 0f49 9C       		.byte	0x9c
 8520 0f4a 5E0F0000 		.4byte	0xf5e
 8521 0f4e 15       		.uleb128 0x15
 8522 0f4f 28090000 		.4byte	.LASF176
 8523 0f53 01       		.byte	0x1
 8524 0f54 4806     		.2byte	0x648
 8525 0f56 97000000 		.4byte	0x97
 8526 0f5a 02       		.uleb128 0x2
 8527 0f5b 91       		.byte	0x91
 8528 0f5c 6F       		.sleb128 -17
 8529 0f5d 00       		.byte	0
 8530 0f5e 14       		.uleb128 0x14
 8531 0f5f D6000000 		.4byte	.LASF177
 8532 0f63 01       		.byte	0x1
 8533 0f64 5706     		.2byte	0x657
 8534 0f66 97000000 		.4byte	0x97
 8535 0f6a 00000000 		.4byte	.LFB45
 8536 0f6e 76000000 		.4byte	.LFE45-.LFB45
 8537 0f72 01       		.uleb128 0x1
 8538 0f73 9C       		.byte	0x9c
 8539 0f74 B30F0000 		.4byte	0xfb3
 8540 0f78 19       		.uleb128 0x19
 8541 0f79 61726700 		.ascii	"arg\000"
 8542 0f7d 01       		.byte	0x1
 8543 0f7e 5706     		.2byte	0x657
 8544 0f80 97000000 		.4byte	0x97
 8545 0f84 02       		.uleb128 0x2
 8546 0f85 91       		.byte	0x91
 8547 0f86 6F       		.sleb128 -17
 8548 0f87 15       		.uleb128 0x15
 8549 0f88 5A080000 		.4byte	.LASF178
 8550 0f8c 01       		.byte	0x1
 8551 0f8d 5706     		.2byte	0x657
 8552 0f8f 97000000 		.4byte	0x97
 8553 0f93 02       		.uleb128 0x2
 8554 0f94 91       		.byte	0x91
 8555 0f95 6E       		.sleb128 -18
 8556 0f96 18       		.uleb128 0x18
 8557 0f97 6900     		.ascii	"i\000"
 8558 0f99 01       		.byte	0x1
 8559 0f9a 5906     		.2byte	0x659
 8560 0f9c 97000000 		.4byte	0x97
ARM GAS  C:\Users\KJA\AppData\Local\Temp\ccNNA7zi.s 			page 194


 8561 0fa0 02       		.uleb128 0x2
 8562 0fa1 91       		.byte	0x91
 8563 0fa2 77       		.sleb128 -9
 8564 0fa3 18       		.uleb128 0x18
 8565 0fa4 706F7300 		.ascii	"pos\000"
 8566 0fa8 01       		.byte	0x1
 8567 0fa9 5A06     		.2byte	0x65a
 8568 0fab 97000000 		.4byte	0x97
 8569 0faf 02       		.uleb128 0x2
 8570 0fb0 91       		.byte	0x91
 8571 0fb1 76       		.sleb128 -10
 8572 0fb2 00       		.byte	0
 8573 0fb3 17       		.uleb128 0x17
 8574 0fb4 18050000 		.4byte	.LASF179
 8575 0fb8 01       		.byte	0x1
 8576 0fb9 6B06     		.2byte	0x66b
 8577 0fbb 00000000 		.4byte	.LFB46
 8578 0fbf 20010000 		.4byte	.LFE46-.LFB46
 8579 0fc3 01       		.uleb128 0x1
 8580 0fc4 9C       		.byte	0x9c
 8581 0fc5 1C100000 		.4byte	0x101c
 8582 0fc9 19       		.uleb128 0x19
 8583 0fca 73726300 		.ascii	"src\000"
 8584 0fce 01       		.byte	0x1
 8585 0fcf 6B06     		.2byte	0x66b
 8586 0fd1 97000000 		.4byte	0x97
 8587 0fd5 02       		.uleb128 0x2
 8588 0fd6 91       		.byte	0x91
 8589 0fd7 6F       		.sleb128 -17
 8590 0fd8 15       		.uleb128 0x15
 8591 0fd9 D8070000 		.4byte	.LASF141
 8592 0fdd 01       		.byte	0x1
 8593 0fde 6B06     		.2byte	0x66b
 8594 0fe0 97000000 		.4byte	0x97
 8595 0fe4 02       		.uleb128 0x2
 8596 0fe5 91       		.byte	0x91
 8597 0fe6 6E       		.sleb128 -18
 8598 0fe7 18       		.uleb128 0x18
 8599 0fe8 637000   		.ascii	"cp\000"
 8600 0feb 01       		.byte	0x1
 8601 0fec 6D06     		.2byte	0x66d
 8602 0fee 97000000 		.4byte	0x97
 8603 0ff2 02       		.uleb128 0x2
 8604 0ff3 91       		.byte	0x91
 8605 0ff4 76       		.sleb128 -10
 8606 0ff5 20       		.uleb128 0x20
 8607 0ff6 88000000 		.4byte	.LBB3
 8608 0ffa 8C000000 		.4byte	.LBE3-.LBB3
 8609 0ffe 1C       		.uleb128 0x1c
 8610 0fff A5090000 		.4byte	.LASF52
 8611 1003 01       		.byte	0x1
 8612 1004 9606     		.2byte	0x696
 8613 1006 97000000 		.4byte	0x97
 8614 100a 02       		.uleb128 0x2
 8615 100b 91       		.byte	0x91
 8616 100c 75       		.sleb128 -11
 8617 100d 18       		.uleb128 0x18
ARM GAS  C:\Users\KJA\AppData\Local\Temp\ccNNA7zi.s 			page 195


 8618 100e 6900     		.ascii	"i\000"
 8619 1010 01       		.byte	0x1
 8620 1011 9D06     		.2byte	0x69d
 8621 1013 97000000 		.4byte	0x97
 8622 1017 02       		.uleb128 0x2
 8623 1018 91       		.byte	0x91
 8624 1019 77       		.sleb128 -9
 8625 101a 00       		.byte	0
 8626 101b 00       		.byte	0
 8627 101c 17       		.uleb128 0x17
 8628 101d 24020000 		.4byte	.LASF180
 8629 1021 01       		.byte	0x1
 8630 1022 BF06     		.2byte	0x6bf
 8631 1024 00000000 		.4byte	.LFB47
 8632 1028 38000000 		.4byte	.LFE47-.LFB47
 8633 102c 01       		.uleb128 0x1
 8634 102d 9C       		.byte	0x9c
 8635 102e 42100000 		.4byte	0x1042
 8636 1032 15       		.uleb128 0x15
 8637 1033 64050000 		.4byte	.LASF181
 8638 1037 01       		.byte	0x1
 8639 1038 BF06     		.2byte	0x6bf
 8640 103a 97000000 		.4byte	0x97
 8641 103e 02       		.uleb128 0x2
 8642 103f 91       		.byte	0x91
 8643 1040 6F       		.sleb128 -17
 8644 1041 00       		.byte	0
 8645 1042 17       		.uleb128 0x17
 8646 1043 93060000 		.4byte	.LASF182
 8647 1047 01       		.byte	0x1
 8648 1048 5907     		.2byte	0x759
 8649 104a 00000000 		.4byte	.LFB48
 8650 104e 84000000 		.4byte	.LFE48-.LFB48
 8651 1052 01       		.uleb128 0x1
 8652 1053 9C       		.byte	0x9c
 8653 1054 8F100000 		.4byte	0x108f
 8654 1058 15       		.uleb128 0x15
 8655 1059 150A0000 		.4byte	.LASF183
 8656 105d 01       		.byte	0x1
 8657 105e 5907     		.2byte	0x759
 8658 1060 97000000 		.4byte	0x97
 8659 1064 02       		.uleb128 0x2
 8660 1065 91       		.byte	0x91
 8661 1066 67       		.sleb128 -25
 8662 1067 18       		.uleb128 0x18
 8663 1068 7800     		.ascii	"x\000"
 8664 106a 01       		.byte	0x1
 8665 106b 5B07     		.2byte	0x75b
 8666 106d 97000000 		.4byte	0x97
 8667 1071 02       		.uleb128 0x2
 8668 1072 91       		.byte	0x91
 8669 1073 6F       		.sleb128 -17
 8670 1074 18       		.uleb128 0x18
 8671 1075 7900     		.ascii	"y\000"
 8672 1077 01       		.byte	0x1
 8673 1078 5C07     		.2byte	0x75c
 8674 107a 97000000 		.4byte	0x97
ARM GAS  C:\Users\KJA\AppData\Local\Temp\ccNNA7zi.s 			page 196


 8675 107e 02       		.uleb128 0x2
 8676 107f 91       		.byte	0x91
 8677 1080 6E       		.sleb128 -18
 8678 1081 18       		.uleb128 0x18
 8679 1082 7400     		.ascii	"t\000"
 8680 1084 01       		.byte	0x1
 8681 1085 5D07     		.2byte	0x75d
 8682 1087 97000000 		.4byte	0x97
 8683 108b 02       		.uleb128 0x2
 8684 108c 91       		.byte	0x91
 8685 108d 6D       		.sleb128 -19
 8686 108e 00       		.byte	0
 8687 108f 17       		.uleb128 0x17
 8688 1090 600C0000 		.4byte	.LASF184
 8689 1094 01       		.byte	0x1
 8690 1095 6707     		.2byte	0x767
 8691 1097 00000000 		.4byte	.LFB49
 8692 109b EC000000 		.4byte	.LFE49-.LFB49
 8693 109f 01       		.uleb128 0x1
 8694 10a0 9C       		.byte	0x9c
 8695 10a1 FA100000 		.4byte	0x10fa
 8696 10a5 19       		.uleb128 0x19
 8697 10a6 7900     		.ascii	"y\000"
 8698 10a8 01       		.byte	0x1
 8699 10a9 6707     		.2byte	0x767
 8700 10ab 97000000 		.4byte	0x97
 8701 10af 02       		.uleb128 0x2
 8702 10b0 91       		.byte	0x91
 8703 10b1 67       		.sleb128 -25
 8704 10b2 19       		.uleb128 0x19
 8705 10b3 73747200 		.ascii	"str\000"
 8706 10b7 01       		.byte	0x1
 8707 10b8 6707     		.2byte	0x767
 8708 10ba B00A0000 		.4byte	0xab0
 8709 10be 02       		.uleb128 0x2
 8710 10bf 91       		.byte	0x91
 8711 10c0 60       		.sleb128 -32
 8712 10c1 15       		.uleb128 0x15
 8713 10c2 65040000 		.4byte	.LASF185
 8714 10c6 01       		.byte	0x1
 8715 10c7 6707     		.2byte	0x767
 8716 10c9 97000000 		.4byte	0x97
 8717 10cd 02       		.uleb128 0x2
 8718 10ce 91       		.byte	0x91
 8719 10cf 66       		.sleb128 -26
 8720 10d0 15       		.uleb128 0x15
 8721 10d1 150A0000 		.4byte	.LASF183
 8722 10d5 01       		.byte	0x1
 8723 10d6 6707     		.2byte	0x767
 8724 10d8 97000000 		.4byte	0x97
 8725 10dc 02       		.uleb128 0x2
 8726 10dd 91       		.byte	0x91
 8727 10de 65       		.sleb128 -27
 8728 10df 18       		.uleb128 0x18
 8729 10e0 7400     		.ascii	"t\000"
 8730 10e2 01       		.byte	0x1
 8731 10e3 6907     		.2byte	0x769
ARM GAS  C:\Users\KJA\AppData\Local\Temp\ccNNA7zi.s 			page 197


 8732 10e5 97000000 		.4byte	0x97
 8733 10e9 02       		.uleb128 0x2
 8734 10ea 91       		.byte	0x91
 8735 10eb 6F       		.sleb128 -17
 8736 10ec 18       		.uleb128 0x18
 8737 10ed 7800     		.ascii	"x\000"
 8738 10ef 01       		.byte	0x1
 8739 10f0 6907     		.2byte	0x769
 8740 10f2 97000000 		.4byte	0x97
 8741 10f6 02       		.uleb128 0x2
 8742 10f7 91       		.byte	0x91
 8743 10f8 6E       		.sleb128 -18
 8744 10f9 00       		.byte	0
 8745 10fa 17       		.uleb128 0x17
 8746 10fb ED060000 		.4byte	.LASF186
 8747 10ff 01       		.byte	0x1
 8748 1100 7F07     		.2byte	0x77f
 8749 1102 00000000 		.4byte	.LFB50
 8750 1106 C4000000 		.4byte	.LFE50-.LFB50
 8751 110a 01       		.uleb128 0x1
 8752 110b 9C       		.byte	0x9c
 8753 110c 38110000 		.4byte	0x1138
 8754 1110 18       		.uleb128 0x18
 8755 1111 6900     		.ascii	"i\000"
 8756 1113 01       		.byte	0x1
 8757 1114 8107     		.2byte	0x781
 8758 1116 97000000 		.4byte	0x97
 8759 111a 02       		.uleb128 0x2
 8760 111b 91       		.byte	0x91
 8761 111c 6F       		.sleb128 -17
 8762 111d 18       		.uleb128 0x18
 8763 111e 7400     		.ascii	"t\000"
 8764 1120 01       		.byte	0x1
 8765 1121 8207     		.2byte	0x782
 8766 1123 97000000 		.4byte	0x97
 8767 1127 02       		.uleb128 0x2
 8768 1128 91       		.byte	0x91
 8769 1129 6D       		.sleb128 -19
 8770 112a 18       		.uleb128 0x18
 8771 112b 7900     		.ascii	"y\000"
 8772 112d 01       		.byte	0x1
 8773 112e 8207     		.2byte	0x782
 8774 1130 97000000 		.4byte	0x97
 8775 1134 02       		.uleb128 0x2
 8776 1135 91       		.byte	0x91
 8777 1136 6E       		.sleb128 -18
 8778 1137 00       		.byte	0
 8779 1138 1E       		.uleb128 0x1e
 8780 1139 9B050000 		.4byte	.LASF187
 8781 113d 01       		.byte	0x1
 8782 113e 9F07     		.2byte	0x79f
 8783 1140 00000000 		.4byte	.LFB51
 8784 1144 58000000 		.4byte	.LFE51-.LFB51
 8785 1148 01       		.uleb128 0x1
 8786 1149 9C       		.byte	0x9c
 8787 114a 5E110000 		.4byte	0x115e
 8788 114e 15       		.uleb128 0x15
ARM GAS  C:\Users\KJA\AppData\Local\Temp\ccNNA7zi.s 			page 198


 8789 114f 18010000 		.4byte	.LASF188
 8790 1153 01       		.byte	0x1
 8791 1154 9F07     		.2byte	0x79f
 8792 1156 97000000 		.4byte	0x97
 8793 115a 02       		.uleb128 0x2
 8794 115b 91       		.byte	0x91
 8795 115c 77       		.sleb128 -9
 8796 115d 00       		.byte	0
 8797 115e 17       		.uleb128 0x17
 8798 115f C2020000 		.4byte	.LASF189
 8799 1163 01       		.byte	0x1
 8800 1164 EB07     		.2byte	0x7eb
 8801 1166 00000000 		.4byte	.LFB52
 8802 116a F4000000 		.4byte	.LFE52-.LFB52
 8803 116e 01       		.uleb128 0x1
 8804 116f 9C       		.byte	0x9c
 8805 1170 AF110000 		.4byte	0x11af
 8806 1174 19       		.uleb128 0x19
 8807 1175 706F7300 		.ascii	"pos\000"
 8808 1179 01       		.byte	0x1
 8809 117a EB07     		.2byte	0x7eb
 8810 117c 97000000 		.4byte	0x97
 8811 1180 02       		.uleb128 0x2
 8812 1181 91       		.byte	0x91
 8813 1182 67       		.sleb128 -25
 8814 1183 15       		.uleb128 0x15
 8815 1184 C6010000 		.4byte	.LASF190
 8816 1188 01       		.byte	0x1
 8817 1189 EB07     		.2byte	0x7eb
 8818 118b 97000000 		.4byte	0x97
 8819 118f 02       		.uleb128 0x2
 8820 1190 91       		.byte	0x91
 8821 1191 66       		.sleb128 -26
 8822 1192 18       		.uleb128 0x18
 8823 1193 783000   		.ascii	"x0\000"
 8824 1196 01       		.byte	0x1
 8825 1197 ED07     		.2byte	0x7ed
 8826 1199 23030000 		.4byte	0x323
 8827 119d 02       		.uleb128 0x2
 8828 119e 91       		.byte	0x91
 8829 119f 6F       		.sleb128 -17
 8830 11a0 18       		.uleb128 0x18
 8831 11a1 793000   		.ascii	"y0\000"
 8832 11a4 01       		.byte	0x1
 8833 11a5 ED07     		.2byte	0x7ed
 8834 11a7 23030000 		.4byte	0x323
 8835 11ab 02       		.uleb128 0x2
 8836 11ac 91       		.byte	0x91
 8837 11ad 6E       		.sleb128 -18
 8838 11ae 00       		.byte	0
 8839 11af 17       		.uleb128 0x17
 8840 11b0 27040000 		.4byte	.LASF191
 8841 11b4 01       		.byte	0x1
 8842 11b5 0A08     		.2byte	0x80a
 8843 11b7 00000000 		.4byte	.LFB53
 8844 11bb 48040000 		.4byte	.LFE53-.LFB53
 8845 11bf 01       		.uleb128 0x1
ARM GAS  C:\Users\KJA\AppData\Local\Temp\ccNNA7zi.s 			page 199


 8846 11c0 9C       		.byte	0x9c
 8847 11c1 3E120000 		.4byte	0x123e
 8848 11c5 18       		.uleb128 0x18
 8849 11c6 6900     		.ascii	"i\000"
 8850 11c8 01       		.byte	0x1
 8851 11c9 0C08     		.2byte	0x80c
 8852 11cb 97000000 		.4byte	0x97
 8853 11cf 02       		.uleb128 0x2
 8854 11d0 91       		.byte	0x91
 8855 11d1 6F       		.sleb128 -17
 8856 11d2 18       		.uleb128 0x18
 8857 11d3 6A00     		.ascii	"j\000"
 8858 11d5 01       		.byte	0x1
 8859 11d6 0C08     		.2byte	0x80c
 8860 11d8 97000000 		.4byte	0x97
 8861 11dc 02       		.uleb128 0x2
 8862 11dd 91       		.byte	0x91
 8863 11de 6E       		.sleb128 -18
 8864 11df 18       		.uleb128 0x18
 8865 11e0 637000   		.ascii	"cp\000"
 8866 11e3 01       		.byte	0x1
 8867 11e4 0C08     		.2byte	0x80c
 8868 11e6 97000000 		.4byte	0x97
 8869 11ea 02       		.uleb128 0x2
 8870 11eb 91       		.byte	0x91
 8871 11ec 6D       		.sleb128 -19
 8872 11ed 18       		.uleb128 0x18
 8873 11ee 70747200 		.ascii	"ptr\000"
 8874 11f2 01       		.byte	0x1
 8875 11f3 0D08     		.2byte	0x80d
 8876 11f5 510C0000 		.4byte	0xc51
 8877 11f9 02       		.uleb128 0x2
 8878 11fa 91       		.byte	0x91
 8879 11fb 64       		.sleb128 -28
 8880 11fc 21       		.uleb128 0x21
 8881 11fd 20000000 		.4byte	.LBB4
 8882 1201 72000000 		.4byte	.LBE4-.LBB4
 8883 1205 24120000 		.4byte	0x1224
 8884 1209 18       		.uleb128 0x18
 8885 120a 7800     		.ascii	"x\000"
 8886 120c 01       		.byte	0x1
 8887 120d 1408     		.2byte	0x814
 8888 120f 97000000 		.4byte	0x97
 8889 1213 02       		.uleb128 0x2
 8890 1214 91       		.byte	0x91
 8891 1215 6C       		.sleb128 -20
 8892 1216 18       		.uleb128 0x18
 8893 1217 7900     		.ascii	"y\000"
 8894 1219 01       		.byte	0x1
 8895 121a 1408     		.2byte	0x814
 8896 121c 97000000 		.4byte	0x97
 8897 1220 02       		.uleb128 0x2
 8898 1221 91       		.byte	0x91
 8899 1222 6B       		.sleb128 -21
 8900 1223 00       		.byte	0
 8901 1224 20       		.uleb128 0x20
 8902 1225 AC000000 		.4byte	.LBB5
ARM GAS  C:\Users\KJA\AppData\Local\Temp\ccNNA7zi.s 			page 200


 8903 1229 D8010000 		.4byte	.LBE5-.LBB5
 8904 122d 1C       		.uleb128 0x1c
 8905 122e 13090000 		.4byte	.LASF192
 8906 1232 01       		.byte	0x1
 8907 1233 2308     		.2byte	0x823
 8908 1235 97000000 		.4byte	0x97
 8909 1239 02       		.uleb128 0x2
 8910 123a 91       		.byte	0x91
 8911 123b 6A       		.sleb128 -22
 8912 123c 00       		.byte	0
 8913 123d 00       		.byte	0
 8914 123e 16       		.uleb128 0x16
 8915 123f A9060000 		.4byte	.LASF193
 8916 1243 01       		.byte	0x1
 8917 1244 6808     		.2byte	0x868
 8918 1246 00000000 		.4byte	.LFB54
 8919 124a 0C000000 		.4byte	.LFE54-.LFB54
 8920 124e 01       		.uleb128 0x1
 8921 124f 9C       		.byte	0x9c
 8922 1250 17       		.uleb128 0x17
 8923 1251 F6000000 		.4byte	.LASF194
 8924 1255 01       		.byte	0x1
 8925 1256 6C08     		.2byte	0x86c
 8926 1258 00000000 		.4byte	.LFB55
 8927 125c C4000000 		.4byte	.LFE55-.LFB55
 8928 1260 01       		.uleb128 0x1
 8929 1261 9C       		.byte	0x9c
 8930 1262 85120000 		.4byte	0x1285
 8931 1266 19       		.uleb128 0x19
 8932 1267 75386700 		.ascii	"u8g\000"
 8933 126b 01       		.byte	0x1
 8934 126c 6C08     		.2byte	0x86c
 8935 126e 5D030000 		.4byte	0x35d
 8936 1272 02       		.uleb128 0x2
 8937 1273 91       		.byte	0x91
 8938 1274 74       		.sleb128 -12
 8939 1275 15       		.uleb128 0x15
 8940 1276 390C0000 		.4byte	.LASF195
 8941 127a 01       		.byte	0x1
 8942 127b 6C08     		.2byte	0x86c
 8943 127d 97000000 		.4byte	0x97
 8944 1281 02       		.uleb128 0x2
 8945 1282 91       		.byte	0x91
 8946 1283 73       		.sleb128 -13
 8947 1284 00       		.byte	0
 8948 1285 17       		.uleb128 0x17
 8949 1286 DA0A0000 		.4byte	.LASF196
 8950 128a 01       		.byte	0x1
 8951 128b 9908     		.2byte	0x899
 8952 128d 00000000 		.4byte	.LFB56
 8953 1291 80010000 		.4byte	.LFE56-.LFB56
 8954 1295 01       		.uleb128 0x1
 8955 1296 9C       		.byte	0x9c
 8956 1297 C2120000 		.4byte	0x12c2
 8957 129b 20       		.uleb128 0x20
 8958 129c 2E000000 		.4byte	.LBB6
 8959 12a0 74000000 		.4byte	.LBE6-.LBB6
ARM GAS  C:\Users\KJA\AppData\Local\Temp\ccNNA7zi.s 			page 201


 8960 12a4 18       		.uleb128 0x18
 8961 12a5 6900     		.ascii	"i\000"
 8962 12a7 01       		.byte	0x1
 8963 12a8 A808     		.2byte	0x8a8
 8964 12aa 97000000 		.4byte	0x97
 8965 12ae 02       		.uleb128 0x2
 8966 12af 91       		.byte	0x91
 8967 12b0 67       		.sleb128 -25
 8968 12b1 1C       		.uleb128 0x1c
 8969 12b2 DA080000 		.4byte	.LASF197
 8970 12b6 01       		.byte	0x1
 8971 12b7 A908     		.2byte	0x8a9
 8972 12b9 97000000 		.4byte	0x97
 8973 12bd 02       		.uleb128 0x2
 8974 12be 91       		.byte	0x91
 8975 12bf 66       		.sleb128 -26
 8976 12c0 00       		.byte	0
 8977 12c1 00       		.byte	0
 8978 12c2 17       		.uleb128 0x17
 8979 12c3 E8040000 		.4byte	.LASF198
 8980 12c7 01       		.byte	0x1
 8981 12c8 D608     		.2byte	0x8d6
 8982 12ca 00000000 		.4byte	.LFB57
 8983 12ce 80020000 		.4byte	.LFE57-.LFB57
 8984 12d2 01       		.uleb128 0x1
 8985 12d3 9C       		.byte	0x9c
 8986 12d4 E8120000 		.4byte	0x12e8
 8987 12d8 15       		.uleb128 0x15
 8988 12d9 BE010000 		.4byte	.LASF199
 8989 12dd 01       		.byte	0x1
 8990 12de D608     		.2byte	0x8d6
 8991 12e0 97000000 		.4byte	0x97
 8992 12e4 02       		.uleb128 0x2
 8993 12e5 91       		.byte	0x91
 8994 12e6 77       		.sleb128 -9
 8995 12e7 00       		.byte	0
 8996 12e8 11       		.uleb128 0x11
 8997 12e9 97000000 		.4byte	0x97
 8998 12ed F8120000 		.4byte	0x12f8
 8999 12f1 12       		.uleb128 0x12
 9000 12f2 00040000 		.4byte	0x400
 9001 12f6 04       		.byte	0x4
 9002 12f7 00       		.byte	0
 9003 12f8 1C       		.uleb128 0x1c
 9004 12f9 F4070000 		.4byte	.LASF200
 9005 12fd 01       		.byte	0x1
 9006 12fe 5304     		.2byte	0x453
 9007 1300 0A130000 		.4byte	0x130a
 9008 1304 05       		.uleb128 0x5
 9009 1305 03       		.byte	0x3
 9010 1306 00000000 		.4byte	ce_dir_offset_rook
 9011 130a 10       		.uleb128 0x10
 9012 130b E8120000 		.4byte	0x12e8
 9013 130f 1C       		.uleb128 0x1c
 9014 1310 03070000 		.4byte	.LASF201
 9015 1314 01       		.byte	0x1
 9016 1315 5404     		.2byte	0x454
ARM GAS  C:\Users\KJA\AppData\Local\Temp\ccNNA7zi.s 			page 202


 9017 1317 21130000 		.4byte	0x1321
 9018 131b 05       		.uleb128 0x5
 9019 131c 03       		.byte	0x3
 9020 131d 08000000 		.4byte	ce_dir_offset_bishop
 9021 1321 10       		.uleb128 0x10
 9022 1322 E8120000 		.4byte	0x12e8
 9023 1326 11       		.uleb128 0x11
 9024 1327 97000000 		.4byte	0x97
 9025 132b 36130000 		.4byte	0x1336
 9026 132f 12       		.uleb128 0x12
 9027 1330 00040000 		.4byte	0x400
 9028 1334 08       		.byte	0x8
 9029 1335 00       		.byte	0
 9030 1336 1C       		.uleb128 0x1c
 9031 1337 A60A0000 		.4byte	.LASF202
 9032 133b 01       		.byte	0x1
 9033 133c 5504     		.2byte	0x455
 9034 133e 48130000 		.4byte	0x1348
 9035 1342 05       		.uleb128 0x5
 9036 1343 03       		.byte	0x3
 9037 1344 10000000 		.4byte	ce_dir_offset_queen
 9038 1348 10       		.uleb128 0x10
 9039 1349 26130000 		.4byte	0x1326
 9040 134d 1C       		.uleb128 0x1c
 9041 134e 7D000000 		.4byte	.LASF203
 9042 1352 01       		.byte	0x1
 9043 1353 5604     		.2byte	0x456
 9044 1355 5F130000 		.4byte	0x135f
 9045 1359 05       		.uleb128 0x5
 9046 135a 03       		.byte	0x3
 9047 135b 1C000000 		.4byte	ce_dir_offset_knight
 9048 135f 10       		.uleb128 0x10
 9049 1360 26130000 		.4byte	0x1326
 9050 1364 11       		.uleb128 0x11
 9051 1365 B8000000 		.4byte	0xb8
 9052 1369 6F130000 		.4byte	0x136f
 9053 136d 22       		.uleb128 0x22
 9054 136e 00       		.byte	0
 9055 136f 23       		.uleb128 0x23
 9056 1370 37040000 		.4byte	.LASF204
 9057 1374 04       		.byte	0x4
 9058 1375 0A06     		.2byte	0x60a
 9059 1377 7B130000 		.4byte	0x137b
 9060 137b 10       		.uleb128 0x10
 9061 137c 64130000 		.4byte	0x1364
 9062 1380 23       		.uleb128 0x23
 9063 1381 B6080000 		.4byte	.LASF205
 9064 1385 04       		.byte	0x4
 9065 1386 0B06     		.2byte	0x60b
 9066 1388 8C130000 		.4byte	0x138c
 9067 138c 10       		.uleb128 0x10
 9068 138d 64130000 		.4byte	0x1364
 9069 1391 23       		.uleb128 0x23
 9070 1392 E5020000 		.4byte	.LASF206
 9071 1396 04       		.byte	0x4
 9072 1397 0D06     		.2byte	0x60d
 9073 1399 9D130000 		.4byte	0x139d
ARM GAS  C:\Users\KJA\AppData\Local\Temp\ccNNA7zi.s 			page 203


 9074 139d 10       		.uleb128 0x10
 9075 139e 64130000 		.4byte	0x1364
 9076 13a2 24       		.uleb128 0x24
 9077 13a3 5C020000 		.4byte	.LASF207
 9078 13a7 01       		.byte	0x1
 9079 13a8 2301     		.2byte	0x123
 9080 13aa 5D030000 		.4byte	0x35d
 9081 13ae 05       		.uleb128 0x5
 9082 13af 03       		.byte	0x3
 9083 13b0 00000000 		.4byte	lrc_u8g
 9084 13b4 24       		.uleb128 0x24
 9085 13b5 5E060000 		.4byte	.LASF208
 9086 13b9 01       		.byte	0x1
 9087 13ba 2501     		.2byte	0x125
 9088 13bc 3A060000 		.4byte	0x63a
 9089 13c0 05       		.uleb128 0x5
 9090 13c1 03       		.byte	0x3
 9091 13c2 00000000 		.4byte	lrc_obj
 9092 13c6 11       		.uleb128 0x11
 9093 13c7 97000000 		.4byte	0x97
 9094 13cb D6130000 		.4byte	0x13d6
 9095 13cf 12       		.uleb128 0x12
 9096 13d0 00040000 		.4byte	0x400
 9097 13d4 06       		.byte	0x6
 9098 13d5 00       		.byte	0
 9099 13d6 24       		.uleb128 0x24
 9100 13d7 CD090000 		.4byte	.LASF209
 9101 13db 01       		.byte	0x1
 9102 13dc 9002     		.2byte	0x290
 9103 13de C6130000 		.4byte	0x13c6
 9104 13e2 05       		.uleb128 0x5
 9105 13e3 03       		.byte	0x3
 9106 13e4 00000000 		.4byte	ce_piece_weight
 9107 13e8 11       		.uleb128 0x11
 9108 13e9 97000000 		.4byte	0x97
 9109 13ed F8130000 		.4byte	0x13f8
 9110 13f1 12       		.uleb128 0x12
 9111 13f2 00040000 		.4byte	0x400
 9112 13f6 07       		.byte	0x7
 9113 13f7 00       		.byte	0
 9114 13f8 24       		.uleb128 0x24
 9115 13f9 070A0000 		.4byte	.LASF210
 9116 13fd 01       		.byte	0x1
 9117 13fe 9102     		.2byte	0x291
 9118 1400 E8130000 		.4byte	0x13e8
 9119 1404 05       		.uleb128 0x5
 9120 1405 03       		.byte	0x3
 9121 1406 00000000 		.4byte	ce_pos_weight
 9122 140a 11       		.uleb128 0x11
 9123 140b B60A0000 		.4byte	0xab6
 9124 140f 1A140000 		.4byte	0x141a
 9125 1413 12       		.uleb128 0x12
 9126 1414 00040000 		.4byte	0x400
 9127 1418 05       		.byte	0x5
 9128 1419 00       		.byte	0
 9129 141a 24       		.uleb128 0x24
 9130 141b 220A0000 		.4byte	.LASF211
ARM GAS  C:\Users\KJA\AppData\Local\Temp\ccNNA7zi.s 			page 204


 9131 141f 01       		.byte	0x1
 9132 1420 2403     		.2byte	0x324
 9133 1422 0A140000 		.4byte	0x140a
 9134 1426 05       		.uleb128 0x5
 9135 1427 03       		.byte	0x3
 9136 1428 00000000 		.4byte	chess_piece_to_char
 9137 142c 24       		.uleb128 0x24
 9138 142d 550B0000 		.4byte	.LASF212
 9139 1431 01       		.byte	0x1
 9140 1432 5407     		.2byte	0x754
 9141 1434 B00A0000 		.4byte	0xab0
 9142 1438 05       		.uleb128 0x5
 9143 1439 03       		.byte	0x3
 9144 143a 00000000 		.4byte	mnu_title
 9145 143e 11       		.uleb128 0x11
 9146 143f B00A0000 		.4byte	0xab0
 9147 1443 4E140000 		.4byte	0x144e
 9148 1447 12       		.uleb128 0x12
 9149 1448 00040000 		.4byte	0x400
 9150 144c 03       		.byte	0x3
 9151 144d 00       		.byte	0
 9152 144e 24       		.uleb128 0x24
 9153 144f 66060000 		.4byte	.LASF213
 9154 1453 01       		.byte	0x1
 9155 1454 5507     		.2byte	0x755
 9156 1456 3E140000 		.4byte	0x143e
 9157 145a 05       		.uleb128 0x5
 9158 145b 03       		.byte	0x3
 9159 145c 00000000 		.4byte	mnu_list
 9160 1460 24       		.uleb128 0x24
 9161 1461 E2050000 		.4byte	.LASF214
 9162 1465 01       		.byte	0x1
 9163 1466 5607     		.2byte	0x756
 9164 1468 97000000 		.4byte	0x97
 9165 146c 05       		.uleb128 0x5
 9166 146d 03       		.byte	0x3
 9167 146e 00000000 		.4byte	mnu_pos
 9168 1472 24       		.uleb128 0x24
 9169 1473 26010000 		.4byte	.LASF215
 9170 1477 01       		.byte	0x1
 9171 1478 5707     		.2byte	0x757
 9172 147a 97000000 		.4byte	0x97
 9173 147e 05       		.uleb128 0x5
 9174 147f 03       		.byte	0x3
 9175 1480 00000000 		.4byte	mnu_max
 9176 1484 24       		.uleb128 0x24
 9177 1485 6B010000 		.4byte	.LASF216
 9178 1489 01       		.byte	0x1
 9179 148a B007     		.2byte	0x7b0
 9180 148c 97000000 		.4byte	0x97
 9181 1490 05       		.uleb128 0x5
 9182 1491 03       		.byte	0x3
 9183 1492 00000000 		.4byte	chess_key_code
 9184 1496 24       		.uleb128 0x24
 9185 1497 C8000000 		.4byte	.LASF217
 9186 149b 01       		.byte	0x1
 9187 149c B107     		.2byte	0x7b1
ARM GAS  C:\Users\KJA\AppData\Local\Temp\ccNNA7zi.s 			page 205


 9188 149e 97000000 		.4byte	0x97
 9189 14a2 05       		.uleb128 0x5
 9190 14a3 03       		.byte	0x3
 9191 14a4 00000000 		.4byte	chess_key_cmd
 9192 14a8 24       		.uleb128 0x24
 9193 14a9 E2080000 		.4byte	.LASF218
 9194 14ad 01       		.byte	0x1
 9195 14ae B807     		.2byte	0x7b8
 9196 14b0 97000000 		.4byte	0x97
 9197 14b4 05       		.uleb128 0x5
 9198 14b5 03       		.byte	0x3
 9199 14b6 00000000 		.4byte	chess_state
 9200 14ba 24       		.uleb128 0x24
 9201 14bb EB0B0000 		.4byte	.LASF219
 9202 14bf 01       		.byte	0x1
 9203 14c0 B907     		.2byte	0x7b9
 9204 14c2 97000000 		.4byte	0x97
 9205 14c6 05       		.uleb128 0x5
 9206 14c7 03       		.byte	0x3
 9207 14c8 00000000 		.4byte	chess_source_pos
 9208 14cc 24       		.uleb128 0x24
 9209 14cd FC050000 		.4byte	.LASF220
 9210 14d1 01       		.byte	0x1
 9211 14d2 BA07     		.2byte	0x7ba
 9212 14d4 97000000 		.4byte	0x97
 9213 14d8 05       		.uleb128 0x5
 9214 14d9 03       		.byte	0x3
 9215 14da 00000000 		.4byte	chess_target_pos
 9216 14de 11       		.uleb128 0x11
 9217 14df 97000000 		.4byte	0x97
 9218 14e3 EE140000 		.4byte	0x14ee
 9219 14e7 12       		.uleb128 0x12
 9220 14e8 00040000 		.4byte	0x400
 9221 14ec 2F       		.byte	0x2f
 9222 14ed 00       		.byte	0
 9223 14ee 24       		.uleb128 0x24
 9224 14ef 37020000 		.4byte	.LASF221
 9225 14f3 01       		.byte	0x1
 9226 14f4 BC07     		.2byte	0x7bc
 9227 14f6 00150000 		.4byte	0x1500
 9228 14fa 05       		.uleb128 0x5
 9229 14fb 03       		.byte	0x3
 9230 14fc 00000000 		.4byte	chess_pieces_body_bm
 9231 1500 10       		.uleb128 0x10
 9232 1501 DE140000 		.4byte	0x14de
 9233 1505 24       		.uleb128 0x24
 9234 1506 09030000 		.4byte	.LASF222
 9235 150a 01       		.byte	0x1
 9236 150b D307     		.2byte	0x7d3
 9237 150d 17150000 		.4byte	0x1517
 9238 1511 05       		.uleb128 0x5
 9239 1512 03       		.byte	0x3
 9240 1513 00000000 		.4byte	chess_black_pieces_bm
 9241 1517 10       		.uleb128 0x10
 9242 1518 DE140000 		.4byte	0x14de
 9243 151c 24       		.uleb128 0x24
 9244 151d 77040000 		.4byte	.LASF223
ARM GAS  C:\Users\KJA\AppData\Local\Temp\ccNNA7zi.s 			page 206


 9245 1521 01       		.byte	0x1
 9246 1522 E607     		.2byte	0x7e6
 9247 1524 23030000 		.4byte	0x323
 9248 1528 05       		.uleb128 0x5
 9249 1529 03       		.byte	0x3
 9250 152a 00000000 		.4byte	chess_low_edge
 9251 152e 24       		.uleb128 0x24
 9252 152f 00000000 		.4byte	.LASF224
 9253 1533 01       		.byte	0x1
 9254 1534 E707     		.2byte	0x7e7
 9255 1536 97000000 		.4byte	0x97
 9256 153a 05       		.uleb128 0x5
 9257 153b 03       		.byte	0x3
 9258 153c 00000000 		.4byte	chess_boxsize
 9259 1540 24       		.uleb128 0x24
 9260 1541 57090000 		.4byte	.LASF225
 9261 1545 01       		.byte	0x1
 9262 1546 E807     		.2byte	0x7e8
 9263 1548 97000000 		.4byte	0x97
 9264 154c 05       		.uleb128 0x5
 9265 154d 03       		.byte	0x3
 9266 154e 00000000 		.4byte	chess_boxoffset
 9267 1552 00       		.byte	0
 9268              		.section	.debug_abbrev,"",%progbits
 9269              	.Ldebug_abbrev0:
 9270 0000 01       		.uleb128 0x1
 9271 0001 11       		.uleb128 0x11
 9272 0002 01       		.byte	0x1
 9273 0003 25       		.uleb128 0x25
 9274 0004 0E       		.uleb128 0xe
 9275 0005 13       		.uleb128 0x13
 9276 0006 0B       		.uleb128 0xb
 9277 0007 03       		.uleb128 0x3
 9278 0008 0E       		.uleb128 0xe
 9279 0009 1B       		.uleb128 0x1b
 9280 000a 0E       		.uleb128 0xe
 9281 000b 55       		.uleb128 0x55
 9282 000c 17       		.uleb128 0x17
 9283 000d 11       		.uleb128 0x11
 9284 000e 01       		.uleb128 0x1
 9285 000f 10       		.uleb128 0x10
 9286 0010 17       		.uleb128 0x17
 9287 0011 00       		.byte	0
 9288 0012 00       		.byte	0
 9289 0013 02       		.uleb128 0x2
 9290 0014 24       		.uleb128 0x24
 9291 0015 00       		.byte	0
 9292 0016 0B       		.uleb128 0xb
 9293 0017 0B       		.uleb128 0xb
 9294 0018 3E       		.uleb128 0x3e
 9295 0019 0B       		.uleb128 0xb
 9296 001a 03       		.uleb128 0x3
 9297 001b 08       		.uleb128 0x8
 9298 001c 00       		.byte	0
 9299 001d 00       		.byte	0
 9300 001e 03       		.uleb128 0x3
 9301 001f 24       		.uleb128 0x24
ARM GAS  C:\Users\KJA\AppData\Local\Temp\ccNNA7zi.s 			page 207


 9302 0020 00       		.byte	0
 9303 0021 0B       		.uleb128 0xb
 9304 0022 0B       		.uleb128 0xb
 9305 0023 3E       		.uleb128 0x3e
 9306 0024 0B       		.uleb128 0xb
 9307 0025 03       		.uleb128 0x3
 9308 0026 0E       		.uleb128 0xe
 9309 0027 00       		.byte	0
 9310 0028 00       		.byte	0
 9311 0029 04       		.uleb128 0x4
 9312 002a 16       		.uleb128 0x16
 9313 002b 00       		.byte	0
 9314 002c 03       		.uleb128 0x3
 9315 002d 0E       		.uleb128 0xe
 9316 002e 3A       		.uleb128 0x3a
 9317 002f 0B       		.uleb128 0xb
 9318 0030 3B       		.uleb128 0x3b
 9319 0031 0B       		.uleb128 0xb
 9320 0032 49       		.uleb128 0x49
 9321 0033 13       		.uleb128 0x13
 9322 0034 00       		.byte	0
 9323 0035 00       		.byte	0
 9324 0036 05       		.uleb128 0x5
 9325 0037 13       		.uleb128 0x13
 9326 0038 01       		.byte	0x1
 9327 0039 03       		.uleb128 0x3
 9328 003a 0E       		.uleb128 0xe
 9329 003b 0B       		.uleb128 0xb
 9330 003c 0B       		.uleb128 0xb
 9331 003d 3A       		.uleb128 0x3a
 9332 003e 0B       		.uleb128 0xb
 9333 003f 3B       		.uleb128 0x3b
 9334 0040 05       		.uleb128 0x5
 9335 0041 01       		.uleb128 0x1
 9336 0042 13       		.uleb128 0x13
 9337 0043 00       		.byte	0
 9338 0044 00       		.byte	0
 9339 0045 06       		.uleb128 0x6
 9340 0046 0D       		.uleb128 0xd
 9341 0047 00       		.byte	0
 9342 0048 03       		.uleb128 0x3
 9343 0049 0E       		.uleb128 0xe
 9344 004a 3A       		.uleb128 0x3a
 9345 004b 0B       		.uleb128 0xb
 9346 004c 3B       		.uleb128 0x3b
 9347 004d 05       		.uleb128 0x5
 9348 004e 49       		.uleb128 0x49
 9349 004f 13       		.uleb128 0x13
 9350 0050 38       		.uleb128 0x38
 9351 0051 0B       		.uleb128 0xb
 9352 0052 00       		.byte	0
 9353 0053 00       		.byte	0
 9354 0054 07       		.uleb128 0x7
 9355 0055 0D       		.uleb128 0xd
 9356 0056 00       		.byte	0
 9357 0057 03       		.uleb128 0x3
 9358 0058 08       		.uleb128 0x8
ARM GAS  C:\Users\KJA\AppData\Local\Temp\ccNNA7zi.s 			page 208


 9359 0059 3A       		.uleb128 0x3a
 9360 005a 0B       		.uleb128 0xb
 9361 005b 3B       		.uleb128 0x3b
 9362 005c 05       		.uleb128 0x5
 9363 005d 49       		.uleb128 0x49
 9364 005e 13       		.uleb128 0x13
 9365 005f 38       		.uleb128 0x38
 9366 0060 0B       		.uleb128 0xb
 9367 0061 00       		.byte	0
 9368 0062 00       		.byte	0
 9369 0063 08       		.uleb128 0x8
 9370 0064 13       		.uleb128 0x13
 9371 0065 01       		.byte	0x1
 9372 0066 03       		.uleb128 0x3
 9373 0067 0E       		.uleb128 0xe
 9374 0068 0B       		.uleb128 0xb
 9375 0069 0B       		.uleb128 0xb
 9376 006a 3A       		.uleb128 0x3a
 9377 006b 0B       		.uleb128 0xb
 9378 006c 3B       		.uleb128 0x3b
 9379 006d 0B       		.uleb128 0xb
 9380 006e 01       		.uleb128 0x1
 9381 006f 13       		.uleb128 0x13
 9382 0070 00       		.byte	0
 9383 0071 00       		.byte	0
 9384 0072 09       		.uleb128 0x9
 9385 0073 0D       		.uleb128 0xd
 9386 0074 00       		.byte	0
 9387 0075 03       		.uleb128 0x3
 9388 0076 0E       		.uleb128 0xe
 9389 0077 3A       		.uleb128 0x3a
 9390 0078 0B       		.uleb128 0xb
 9391 0079 3B       		.uleb128 0x3b
 9392 007a 0B       		.uleb128 0xb
 9393 007b 49       		.uleb128 0x49
 9394 007c 13       		.uleb128 0x13
 9395 007d 38       		.uleb128 0x38
 9396 007e 0B       		.uleb128 0xb
 9397 007f 00       		.byte	0
 9398 0080 00       		.byte	0
 9399 0081 0A       		.uleb128 0xa
 9400 0082 0F       		.uleb128 0xf
 9401 0083 00       		.byte	0
 9402 0084 0B       		.uleb128 0xb
 9403 0085 0B       		.uleb128 0xb
 9404 0086 49       		.uleb128 0x49
 9405 0087 13       		.uleb128 0x13
 9406 0088 00       		.byte	0
 9407 0089 00       		.byte	0
 9408 008a 0B       		.uleb128 0xb
 9409 008b 15       		.uleb128 0x15
 9410 008c 01       		.byte	0x1
 9411 008d 27       		.uleb128 0x27
 9412 008e 19       		.uleb128 0x19
 9413 008f 49       		.uleb128 0x49
 9414 0090 13       		.uleb128 0x13
 9415 0091 01       		.uleb128 0x1
ARM GAS  C:\Users\KJA\AppData\Local\Temp\ccNNA7zi.s 			page 209


 9416 0092 13       		.uleb128 0x13
 9417 0093 00       		.byte	0
 9418 0094 00       		.byte	0
 9419 0095 0C       		.uleb128 0xc
 9420 0096 05       		.uleb128 0x5
 9421 0097 00       		.byte	0
 9422 0098 49       		.uleb128 0x49
 9423 0099 13       		.uleb128 0x13
 9424 009a 00       		.byte	0
 9425 009b 00       		.byte	0
 9426 009c 0D       		.uleb128 0xd
 9427 009d 0F       		.uleb128 0xf
 9428 009e 00       		.byte	0
 9429 009f 0B       		.uleb128 0xb
 9430 00a0 0B       		.uleb128 0xb
 9431 00a1 00       		.byte	0
 9432 00a2 00       		.byte	0
 9433 00a3 0E       		.uleb128 0xe
 9434 00a4 16       		.uleb128 0x16
 9435 00a5 00       		.byte	0
 9436 00a6 03       		.uleb128 0x3
 9437 00a7 0E       		.uleb128 0xe
 9438 00a8 3A       		.uleb128 0x3a
 9439 00a9 0B       		.uleb128 0xb
 9440 00aa 3B       		.uleb128 0x3b
 9441 00ab 05       		.uleb128 0x5
 9442 00ac 49       		.uleb128 0x49
 9443 00ad 13       		.uleb128 0x13
 9444 00ae 00       		.byte	0
 9445 00af 00       		.byte	0
 9446 00b0 0F       		.uleb128 0xf
 9447 00b1 15       		.uleb128 0x15
 9448 00b2 01       		.byte	0x1
 9449 00b3 27       		.uleb128 0x27
 9450 00b4 19       		.uleb128 0x19
 9451 00b5 01       		.uleb128 0x1
 9452 00b6 13       		.uleb128 0x13
 9453 00b7 00       		.byte	0
 9454 00b8 00       		.byte	0
 9455 00b9 10       		.uleb128 0x10
 9456 00ba 26       		.uleb128 0x26
 9457 00bb 00       		.byte	0
 9458 00bc 49       		.uleb128 0x49
 9459 00bd 13       		.uleb128 0x13
 9460 00be 00       		.byte	0
 9461 00bf 00       		.byte	0
 9462 00c0 11       		.uleb128 0x11
 9463 00c1 01       		.uleb128 0x1
 9464 00c2 01       		.byte	0x1
 9465 00c3 49       		.uleb128 0x49
 9466 00c4 13       		.uleb128 0x13
 9467 00c5 01       		.uleb128 0x1
 9468 00c6 13       		.uleb128 0x13
 9469 00c7 00       		.byte	0
 9470 00c8 00       		.byte	0
 9471 00c9 12       		.uleb128 0x12
 9472 00ca 21       		.uleb128 0x21
ARM GAS  C:\Users\KJA\AppData\Local\Temp\ccNNA7zi.s 			page 210


 9473 00cb 00       		.byte	0
 9474 00cc 49       		.uleb128 0x49
 9475 00cd 13       		.uleb128 0x13
 9476 00ce 2F       		.uleb128 0x2f
 9477 00cf 0B       		.uleb128 0xb
 9478 00d0 00       		.byte	0
 9479 00d1 00       		.byte	0
 9480 00d2 13       		.uleb128 0x13
 9481 00d3 2E       		.uleb128 0x2e
 9482 00d4 00       		.byte	0
 9483 00d5 3F       		.uleb128 0x3f
 9484 00d6 19       		.uleb128 0x19
 9485 00d7 03       		.uleb128 0x3
 9486 00d8 0E       		.uleb128 0xe
 9487 00d9 3A       		.uleb128 0x3a
 9488 00da 0B       		.uleb128 0xb
 9489 00db 3B       		.uleb128 0x3b
 9490 00dc 05       		.uleb128 0x5
 9491 00dd 27       		.uleb128 0x27
 9492 00de 19       		.uleb128 0x19
 9493 00df 49       		.uleb128 0x49
 9494 00e0 13       		.uleb128 0x13
 9495 00e1 11       		.uleb128 0x11
 9496 00e2 01       		.uleb128 0x1
 9497 00e3 12       		.uleb128 0x12
 9498 00e4 06       		.uleb128 0x6
 9499 00e5 40       		.uleb128 0x40
 9500 00e6 18       		.uleb128 0x18
 9501 00e7 9742     		.uleb128 0x2117
 9502 00e9 19       		.uleb128 0x19
 9503 00ea 00       		.byte	0
 9504 00eb 00       		.byte	0
 9505 00ec 14       		.uleb128 0x14
 9506 00ed 2E       		.uleb128 0x2e
 9507 00ee 01       		.byte	0x1
 9508 00ef 3F       		.uleb128 0x3f
 9509 00f0 19       		.uleb128 0x19
 9510 00f1 03       		.uleb128 0x3
 9511 00f2 0E       		.uleb128 0xe
 9512 00f3 3A       		.uleb128 0x3a
 9513 00f4 0B       		.uleb128 0xb
 9514 00f5 3B       		.uleb128 0x3b
 9515 00f6 05       		.uleb128 0x5
 9516 00f7 27       		.uleb128 0x27
 9517 00f8 19       		.uleb128 0x19
 9518 00f9 49       		.uleb128 0x49
 9519 00fa 13       		.uleb128 0x13
 9520 00fb 11       		.uleb128 0x11
 9521 00fc 01       		.uleb128 0x1
 9522 00fd 12       		.uleb128 0x12
 9523 00fe 06       		.uleb128 0x6
 9524 00ff 40       		.uleb128 0x40
 9525 0100 18       		.uleb128 0x18
 9526 0101 9642     		.uleb128 0x2116
 9527 0103 19       		.uleb128 0x19
 9528 0104 01       		.uleb128 0x1
 9529 0105 13       		.uleb128 0x13
ARM GAS  C:\Users\KJA\AppData\Local\Temp\ccNNA7zi.s 			page 211


 9530 0106 00       		.byte	0
 9531 0107 00       		.byte	0
 9532 0108 15       		.uleb128 0x15
 9533 0109 05       		.uleb128 0x5
 9534 010a 00       		.byte	0
 9535 010b 03       		.uleb128 0x3
 9536 010c 0E       		.uleb128 0xe
 9537 010d 3A       		.uleb128 0x3a
 9538 010e 0B       		.uleb128 0xb
 9539 010f 3B       		.uleb128 0x3b
 9540 0110 05       		.uleb128 0x5
 9541 0111 49       		.uleb128 0x49
 9542 0112 13       		.uleb128 0x13
 9543 0113 02       		.uleb128 0x2
 9544 0114 18       		.uleb128 0x18
 9545 0115 00       		.byte	0
 9546 0116 00       		.byte	0
 9547 0117 16       		.uleb128 0x16
 9548 0118 2E       		.uleb128 0x2e
 9549 0119 00       		.byte	0
 9550 011a 3F       		.uleb128 0x3f
 9551 011b 19       		.uleb128 0x19
 9552 011c 03       		.uleb128 0x3
 9553 011d 0E       		.uleb128 0xe
 9554 011e 3A       		.uleb128 0x3a
 9555 011f 0B       		.uleb128 0xb
 9556 0120 3B       		.uleb128 0x3b
 9557 0121 05       		.uleb128 0x5
 9558 0122 27       		.uleb128 0x27
 9559 0123 19       		.uleb128 0x19
 9560 0124 11       		.uleb128 0x11
 9561 0125 01       		.uleb128 0x1
 9562 0126 12       		.uleb128 0x12
 9563 0127 06       		.uleb128 0x6
 9564 0128 40       		.uleb128 0x40
 9565 0129 18       		.uleb128 0x18
 9566 012a 9742     		.uleb128 0x2117
 9567 012c 19       		.uleb128 0x19
 9568 012d 00       		.byte	0
 9569 012e 00       		.byte	0
 9570 012f 17       		.uleb128 0x17
 9571 0130 2E       		.uleb128 0x2e
 9572 0131 01       		.byte	0x1
 9573 0132 3F       		.uleb128 0x3f
 9574 0133 19       		.uleb128 0x19
 9575 0134 03       		.uleb128 0x3
 9576 0135 0E       		.uleb128 0xe
 9577 0136 3A       		.uleb128 0x3a
 9578 0137 0B       		.uleb128 0xb
 9579 0138 3B       		.uleb128 0x3b
 9580 0139 05       		.uleb128 0x5
 9581 013a 27       		.uleb128 0x27
 9582 013b 19       		.uleb128 0x19
 9583 013c 11       		.uleb128 0x11
 9584 013d 01       		.uleb128 0x1
 9585 013e 12       		.uleb128 0x12
 9586 013f 06       		.uleb128 0x6
ARM GAS  C:\Users\KJA\AppData\Local\Temp\ccNNA7zi.s 			page 212


 9587 0140 40       		.uleb128 0x40
 9588 0141 18       		.uleb128 0x18
 9589 0142 9642     		.uleb128 0x2116
 9590 0144 19       		.uleb128 0x19
 9591 0145 01       		.uleb128 0x1
 9592 0146 13       		.uleb128 0x13
 9593 0147 00       		.byte	0
 9594 0148 00       		.byte	0
 9595 0149 18       		.uleb128 0x18
 9596 014a 34       		.uleb128 0x34
 9597 014b 00       		.byte	0
 9598 014c 03       		.uleb128 0x3
 9599 014d 08       		.uleb128 0x8
 9600 014e 3A       		.uleb128 0x3a
 9601 014f 0B       		.uleb128 0xb
 9602 0150 3B       		.uleb128 0x3b
 9603 0151 05       		.uleb128 0x5
 9604 0152 49       		.uleb128 0x49
 9605 0153 13       		.uleb128 0x13
 9606 0154 02       		.uleb128 0x2
 9607 0155 18       		.uleb128 0x18
 9608 0156 00       		.byte	0
 9609 0157 00       		.byte	0
 9610 0158 19       		.uleb128 0x19
 9611 0159 05       		.uleb128 0x5
 9612 015a 00       		.byte	0
 9613 015b 03       		.uleb128 0x3
 9614 015c 08       		.uleb128 0x8
 9615 015d 3A       		.uleb128 0x3a
 9616 015e 0B       		.uleb128 0xb
 9617 015f 3B       		.uleb128 0x3b
 9618 0160 05       		.uleb128 0x5
 9619 0161 49       		.uleb128 0x49
 9620 0162 13       		.uleb128 0x13
 9621 0163 02       		.uleb128 0x2
 9622 0164 18       		.uleb128 0x18
 9623 0165 00       		.byte	0
 9624 0166 00       		.byte	0
 9625 0167 1A       		.uleb128 0x1a
 9626 0168 2E       		.uleb128 0x2e
 9627 0169 01       		.byte	0x1
 9628 016a 3F       		.uleb128 0x3f
 9629 016b 19       		.uleb128 0x19
 9630 016c 03       		.uleb128 0x3
 9631 016d 0E       		.uleb128 0xe
 9632 016e 3A       		.uleb128 0x3a
 9633 016f 0B       		.uleb128 0xb
 9634 0170 3B       		.uleb128 0x3b
 9635 0171 05       		.uleb128 0x5
 9636 0172 27       		.uleb128 0x27
 9637 0173 19       		.uleb128 0x19
 9638 0174 49       		.uleb128 0x49
 9639 0175 13       		.uleb128 0x13
 9640 0176 11       		.uleb128 0x11
 9641 0177 01       		.uleb128 0x1
 9642 0178 12       		.uleb128 0x12
 9643 0179 06       		.uleb128 0x6
ARM GAS  C:\Users\KJA\AppData\Local\Temp\ccNNA7zi.s 			page 213


 9644 017a 40       		.uleb128 0x40
 9645 017b 18       		.uleb128 0x18
 9646 017c 9742     		.uleb128 0x2117
 9647 017e 19       		.uleb128 0x19
 9648 017f 01       		.uleb128 0x1
 9649 0180 13       		.uleb128 0x13
 9650 0181 00       		.byte	0
 9651 0182 00       		.byte	0
 9652 0183 1B       		.uleb128 0x1b
 9653 0184 2E       		.uleb128 0x2e
 9654 0185 01       		.byte	0x1
 9655 0186 03       		.uleb128 0x3
 9656 0187 0E       		.uleb128 0xe
 9657 0188 3A       		.uleb128 0x3a
 9658 0189 0B       		.uleb128 0xb
 9659 018a 3B       		.uleb128 0x3b
 9660 018b 05       		.uleb128 0x5
 9661 018c 27       		.uleb128 0x27
 9662 018d 19       		.uleb128 0x19
 9663 018e 49       		.uleb128 0x49
 9664 018f 13       		.uleb128 0x13
 9665 0190 11       		.uleb128 0x11
 9666 0191 01       		.uleb128 0x1
 9667 0192 12       		.uleb128 0x12
 9668 0193 06       		.uleb128 0x6
 9669 0194 40       		.uleb128 0x40
 9670 0195 18       		.uleb128 0x18
 9671 0196 9742     		.uleb128 0x2117
 9672 0198 19       		.uleb128 0x19
 9673 0199 01       		.uleb128 0x1
 9674 019a 13       		.uleb128 0x13
 9675 019b 00       		.byte	0
 9676 019c 00       		.byte	0
 9677 019d 1C       		.uleb128 0x1c
 9678 019e 34       		.uleb128 0x34
 9679 019f 00       		.byte	0
 9680 01a0 03       		.uleb128 0x3
 9681 01a1 0E       		.uleb128 0xe
 9682 01a2 3A       		.uleb128 0x3a
 9683 01a3 0B       		.uleb128 0xb
 9684 01a4 3B       		.uleb128 0x3b
 9685 01a5 05       		.uleb128 0x5
 9686 01a6 49       		.uleb128 0x49
 9687 01a7 13       		.uleb128 0x13
 9688 01a8 02       		.uleb128 0x2
 9689 01a9 18       		.uleb128 0x18
 9690 01aa 00       		.byte	0
 9691 01ab 00       		.byte	0
 9692 01ac 1D       		.uleb128 0x1d
 9693 01ad 2E       		.uleb128 0x2e
 9694 01ae 00       		.byte	0
 9695 01af 3F       		.uleb128 0x3f
 9696 01b0 19       		.uleb128 0x19
 9697 01b1 03       		.uleb128 0x3
 9698 01b2 0E       		.uleb128 0xe
 9699 01b3 3A       		.uleb128 0x3a
 9700 01b4 0B       		.uleb128 0xb
ARM GAS  C:\Users\KJA\AppData\Local\Temp\ccNNA7zi.s 			page 214


 9701 01b5 3B       		.uleb128 0x3b
 9702 01b6 05       		.uleb128 0x5
 9703 01b7 27       		.uleb128 0x27
 9704 01b8 19       		.uleb128 0x19
 9705 01b9 11       		.uleb128 0x11
 9706 01ba 01       		.uleb128 0x1
 9707 01bb 12       		.uleb128 0x12
 9708 01bc 06       		.uleb128 0x6
 9709 01bd 40       		.uleb128 0x40
 9710 01be 18       		.uleb128 0x18
 9711 01bf 9642     		.uleb128 0x2116
 9712 01c1 19       		.uleb128 0x19
 9713 01c2 00       		.byte	0
 9714 01c3 00       		.byte	0
 9715 01c4 1E       		.uleb128 0x1e
 9716 01c5 2E       		.uleb128 0x2e
 9717 01c6 01       		.byte	0x1
 9718 01c7 3F       		.uleb128 0x3f
 9719 01c8 19       		.uleb128 0x19
 9720 01c9 03       		.uleb128 0x3
 9721 01ca 0E       		.uleb128 0xe
 9722 01cb 3A       		.uleb128 0x3a
 9723 01cc 0B       		.uleb128 0xb
 9724 01cd 3B       		.uleb128 0x3b
 9725 01ce 05       		.uleb128 0x5
 9726 01cf 27       		.uleb128 0x27
 9727 01d0 19       		.uleb128 0x19
 9728 01d1 11       		.uleb128 0x11
 9729 01d2 01       		.uleb128 0x1
 9730 01d3 12       		.uleb128 0x12
 9731 01d4 06       		.uleb128 0x6
 9732 01d5 40       		.uleb128 0x40
 9733 01d6 18       		.uleb128 0x18
 9734 01d7 9742     		.uleb128 0x2117
 9735 01d9 19       		.uleb128 0x19
 9736 01da 01       		.uleb128 0x1
 9737 01db 13       		.uleb128 0x13
 9738 01dc 00       		.byte	0
 9739 01dd 00       		.byte	0
 9740 01de 1F       		.uleb128 0x1f
 9741 01df 2E       		.uleb128 0x2e
 9742 01e0 01       		.byte	0x1
 9743 01e1 03       		.uleb128 0x3
 9744 01e2 0E       		.uleb128 0xe
 9745 01e3 3A       		.uleb128 0x3a
 9746 01e4 0B       		.uleb128 0xb
 9747 01e5 3B       		.uleb128 0x3b
 9748 01e6 05       		.uleb128 0x5
 9749 01e7 27       		.uleb128 0x27
 9750 01e8 19       		.uleb128 0x19
 9751 01e9 11       		.uleb128 0x11
 9752 01ea 01       		.uleb128 0x1
 9753 01eb 12       		.uleb128 0x12
 9754 01ec 06       		.uleb128 0x6
 9755 01ed 40       		.uleb128 0x40
 9756 01ee 18       		.uleb128 0x18
 9757 01ef 9742     		.uleb128 0x2117
ARM GAS  C:\Users\KJA\AppData\Local\Temp\ccNNA7zi.s 			page 215


 9758 01f1 19       		.uleb128 0x19
 9759 01f2 01       		.uleb128 0x1
 9760 01f3 13       		.uleb128 0x13
 9761 01f4 00       		.byte	0
 9762 01f5 00       		.byte	0
 9763 01f6 20       		.uleb128 0x20
 9764 01f7 0B       		.uleb128 0xb
 9765 01f8 01       		.byte	0x1
 9766 01f9 11       		.uleb128 0x11
 9767 01fa 01       		.uleb128 0x1
 9768 01fb 12       		.uleb128 0x12
 9769 01fc 06       		.uleb128 0x6
 9770 01fd 00       		.byte	0
 9771 01fe 00       		.byte	0
 9772 01ff 21       		.uleb128 0x21
 9773 0200 0B       		.uleb128 0xb
 9774 0201 01       		.byte	0x1
 9775 0202 11       		.uleb128 0x11
 9776 0203 01       		.uleb128 0x1
 9777 0204 12       		.uleb128 0x12
 9778 0205 06       		.uleb128 0x6
 9779 0206 01       		.uleb128 0x1
 9780 0207 13       		.uleb128 0x13
 9781 0208 00       		.byte	0
 9782 0209 00       		.byte	0
 9783 020a 22       		.uleb128 0x22
 9784 020b 21       		.uleb128 0x21
 9785 020c 00       		.byte	0
 9786 020d 00       		.byte	0
 9787 020e 00       		.byte	0
 9788 020f 23       		.uleb128 0x23
 9789 0210 34       		.uleb128 0x34
 9790 0211 00       		.byte	0
 9791 0212 03       		.uleb128 0x3
 9792 0213 0E       		.uleb128 0xe
 9793 0214 3A       		.uleb128 0x3a
 9794 0215 0B       		.uleb128 0xb
 9795 0216 3B       		.uleb128 0x3b
 9796 0217 05       		.uleb128 0x5
 9797 0218 49       		.uleb128 0x49
 9798 0219 13       		.uleb128 0x13
 9799 021a 3F       		.uleb128 0x3f
 9800 021b 19       		.uleb128 0x19
 9801 021c 3C       		.uleb128 0x3c
 9802 021d 19       		.uleb128 0x19
 9803 021e 00       		.byte	0
 9804 021f 00       		.byte	0
 9805 0220 24       		.uleb128 0x24
 9806 0221 34       		.uleb128 0x34
 9807 0222 00       		.byte	0
 9808 0223 03       		.uleb128 0x3
 9809 0224 0E       		.uleb128 0xe
 9810 0225 3A       		.uleb128 0x3a
 9811 0226 0B       		.uleb128 0xb
 9812 0227 3B       		.uleb128 0x3b
 9813 0228 05       		.uleb128 0x5
 9814 0229 49       		.uleb128 0x49
ARM GAS  C:\Users\KJA\AppData\Local\Temp\ccNNA7zi.s 			page 216


 9815 022a 13       		.uleb128 0x13
 9816 022b 3F       		.uleb128 0x3f
 9817 022c 19       		.uleb128 0x19
 9818 022d 02       		.uleb128 0x2
 9819 022e 18       		.uleb128 0x18
 9820 022f 00       		.byte	0
 9821 0230 00       		.byte	0
 9822 0231 00       		.byte	0
 9823              		.section	.debug_aranges,"",%progbits
 9824 0000 E4010000 		.4byte	0x1e4
 9825 0004 0200     		.2byte	0x2
 9826 0006 00000000 		.4byte	.Ldebug_info0
 9827 000a 04       		.byte	0x4
 9828 000b 00       		.byte	0
 9829 000c 0000     		.2byte	0
 9830 000e 0000     		.2byte	0
 9831 0010 00000000 		.4byte	.LFB0
 9832 0014 18000000 		.4byte	.LFE0-.LFB0
 9833 0018 00000000 		.4byte	.LFB1
 9834 001c 60000000 		.4byte	.LFE1-.LFB1
 9835 0020 00000000 		.4byte	.LFB2
 9836 0024 34000000 		.4byte	.LFE2-.LFB2
 9837 0028 00000000 		.4byte	.LFB3
 9838 002c 26000000 		.4byte	.LFE3-.LFB3
 9839 0030 00000000 		.4byte	.LFB4
 9840 0034 58000000 		.4byte	.LFE4-.LFB4
 9841 0038 00000000 		.4byte	.LFB5
 9842 003c 3E000000 		.4byte	.LFE5-.LFB5
 9843 0040 00000000 		.4byte	.LFB6
 9844 0044 42000000 		.4byte	.LFE6-.LFB6
 9845 0048 00000000 		.4byte	.LFB7
 9846 004c 46000000 		.4byte	.LFE7-.LFB7
 9847 0050 00000000 		.4byte	.LFB8
 9848 0054 3A000000 		.4byte	.LFE8-.LFB8
 9849 0058 00000000 		.4byte	.LFB9
 9850 005c 2C000000 		.4byte	.LFE9-.LFB9
 9851 0060 00000000 		.4byte	.LFB10
 9852 0064 20000000 		.4byte	.LFE10-.LFB10
 9853 0068 00000000 		.4byte	.LFB11
 9854 006c 26000000 		.4byte	.LFE11-.LFB11
 9855 0070 00000000 		.4byte	.LFB12
 9856 0074 28000000 		.4byte	.LFE12-.LFB12
 9857 0078 00000000 		.4byte	.LFB13
 9858 007c 30000000 		.4byte	.LFE13-.LFB13
 9859 0080 00000000 		.4byte	.LFB14
 9860 0084 68000000 		.4byte	.LFE14-.LFB14
 9861 0088 00000000 		.4byte	.LFB15
 9862 008c 64000000 		.4byte	.LFE15-.LFB15
 9863 0090 00000000 		.4byte	.LFB16
 9864 0094 68010000 		.4byte	.LFE16-.LFB16
 9865 0098 00000000 		.4byte	.LFB17
 9866 009c 50000000 		.4byte	.LFE17-.LFB17
 9867 00a0 00000000 		.4byte	.LFB18
 9868 00a4 9C010000 		.4byte	.LFE18-.LFB18
 9869 00a8 00000000 		.4byte	.LFB19
 9870 00ac 18000000 		.4byte	.LFE19-.LFB19
 9871 00b0 00000000 		.4byte	.LFB20
ARM GAS  C:\Users\KJA\AppData\Local\Temp\ccNNA7zi.s 			page 217


 9872 00b4 74000000 		.4byte	.LFE20-.LFB20
 9873 00b8 00000000 		.4byte	.LFB21
 9874 00bc A0000000 		.4byte	.LFE21-.LFB21
 9875 00c0 00000000 		.4byte	.LFB22
 9876 00c4 60000000 		.4byte	.LFE22-.LFB22
 9877 00c8 00000000 		.4byte	.LFB23
 9878 00cc 5A000000 		.4byte	.LFE23-.LFB23
 9879 00d0 00000000 		.4byte	.LFB24
 9880 00d4 C0000000 		.4byte	.LFE24-.LFB24
 9881 00d8 00000000 		.4byte	.LFB25
 9882 00dc 7C020000 		.4byte	.LFE25-.LFB25
 9883 00e0 00000000 		.4byte	.LFB26
 9884 00e4 F8000000 		.4byte	.LFE26-.LFB26
 9885 00e8 00000000 		.4byte	.LFB27
 9886 00ec 66000000 		.4byte	.LFE27-.LFB27
 9887 00f0 00000000 		.4byte	.LFB28
 9888 00f4 14000000 		.4byte	.LFE28-.LFB28
 9889 00f8 00000000 		.4byte	.LFB29
 9890 00fc 14000000 		.4byte	.LFE29-.LFB29
 9891 0100 00000000 		.4byte	.LFB30
 9892 0104 14000000 		.4byte	.LFE30-.LFB30
 9893 0108 00000000 		.4byte	.LFB31
 9894 010c 14000000 		.4byte	.LFE31-.LFB31
 9895 0110 00000000 		.4byte	.LFB32
 9896 0114 B0000000 		.4byte	.LFE32-.LFB32
 9897 0118 00000000 		.4byte	.LFB33
 9898 011c AC000000 		.4byte	.LFE33-.LFB33
 9899 0120 00000000 		.4byte	.LFB34
 9900 0124 7C000000 		.4byte	.LFE34-.LFB34
 9901 0128 00000000 		.4byte	.LFB35
 9902 012c F4000000 		.4byte	.LFE35-.LFB35
 9903 0130 00000000 		.4byte	.LFB36
 9904 0134 D0000000 		.4byte	.LFE36-.LFB36
 9905 0138 00000000 		.4byte	.LFB37
 9906 013c 84000000 		.4byte	.LFE37-.LFB37
 9907 0140 00000000 		.4byte	.LFB38
 9908 0144 D0000000 		.4byte	.LFE38-.LFB38
 9909 0148 00000000 		.4byte	.LFB39
 9910 014c 30000000 		.4byte	.LFE39-.LFB39
 9911 0150 00000000 		.4byte	.LFB40
 9912 0154 30000000 		.4byte	.LFE40-.LFB40
 9913 0158 00000000 		.4byte	.LFB41
 9914 015c BC000000 		.4byte	.LFE41-.LFB41
 9915 0160 00000000 		.4byte	.LFB42
 9916 0164 40000000 		.4byte	.LFE42-.LFB42
 9917 0168 00000000 		.4byte	.LFB43
 9918 016c 1C000000 		.4byte	.LFE43-.LFB43
 9919 0170 00000000 		.4byte	.LFB44
 9920 0174 48000000 		.4byte	.LFE44-.LFB44
 9921 0178 00000000 		.4byte	.LFB45
 9922 017c 76000000 		.4byte	.LFE45-.LFB45
 9923 0180 00000000 		.4byte	.LFB46
 9924 0184 20010000 		.4byte	.LFE46-.LFB46
 9925 0188 00000000 		.4byte	.LFB47
 9926 018c 38000000 		.4byte	.LFE47-.LFB47
 9927 0190 00000000 		.4byte	.LFB48
 9928 0194 84000000 		.4byte	.LFE48-.LFB48
ARM GAS  C:\Users\KJA\AppData\Local\Temp\ccNNA7zi.s 			page 218


 9929 0198 00000000 		.4byte	.LFB49
 9930 019c EC000000 		.4byte	.LFE49-.LFB49
 9931 01a0 00000000 		.4byte	.LFB50
 9932 01a4 C4000000 		.4byte	.LFE50-.LFB50
 9933 01a8 00000000 		.4byte	.LFB51
 9934 01ac 58000000 		.4byte	.LFE51-.LFB51
 9935 01b0 00000000 		.4byte	.LFB52
 9936 01b4 F4000000 		.4byte	.LFE52-.LFB52
 9937 01b8 00000000 		.4byte	.LFB53
 9938 01bc 48040000 		.4byte	.LFE53-.LFB53
 9939 01c0 00000000 		.4byte	.LFB54
 9940 01c4 0C000000 		.4byte	.LFE54-.LFB54
 9941 01c8 00000000 		.4byte	.LFB55
 9942 01cc C4000000 		.4byte	.LFE55-.LFB55
 9943 01d0 00000000 		.4byte	.LFB56
 9944 01d4 80010000 		.4byte	.LFE56-.LFB56
 9945 01d8 00000000 		.4byte	.LFB57
 9946 01dc 80020000 		.4byte	.LFE57-.LFB57
 9947 01e0 00000000 		.4byte	0
 9948 01e4 00000000 		.4byte	0
 9949              		.section	.debug_ranges,"",%progbits
 9950              	.Ldebug_ranges0:
 9951 0000 00000000 		.4byte	.LFB0
 9952 0004 18000000 		.4byte	.LFE0
 9953 0008 00000000 		.4byte	.LFB1
 9954 000c 60000000 		.4byte	.LFE1
 9955 0010 00000000 		.4byte	.LFB2
 9956 0014 34000000 		.4byte	.LFE2
 9957 0018 00000000 		.4byte	.LFB3
 9958 001c 26000000 		.4byte	.LFE3
 9959 0020 00000000 		.4byte	.LFB4
 9960 0024 58000000 		.4byte	.LFE4
 9961 0028 00000000 		.4byte	.LFB5
 9962 002c 3E000000 		.4byte	.LFE5
 9963 0030 00000000 		.4byte	.LFB6
 9964 0034 42000000 		.4byte	.LFE6
 9965 0038 00000000 		.4byte	.LFB7
 9966 003c 46000000 		.4byte	.LFE7
 9967 0040 00000000 		.4byte	.LFB8
 9968 0044 3A000000 		.4byte	.LFE8
 9969 0048 00000000 		.4byte	.LFB9
 9970 004c 2C000000 		.4byte	.LFE9
 9971 0050 00000000 		.4byte	.LFB10
 9972 0054 20000000 		.4byte	.LFE10
 9973 0058 00000000 		.4byte	.LFB11
 9974 005c 26000000 		.4byte	.LFE11
 9975 0060 00000000 		.4byte	.LFB12
 9976 0064 28000000 		.4byte	.LFE12
 9977 0068 00000000 		.4byte	.LFB13
 9978 006c 30000000 		.4byte	.LFE13
 9979 0070 00000000 		.4byte	.LFB14
 9980 0074 68000000 		.4byte	.LFE14
 9981 0078 00000000 		.4byte	.LFB15
 9982 007c 64000000 		.4byte	.LFE15
 9983 0080 00000000 		.4byte	.LFB16
 9984 0084 68010000 		.4byte	.LFE16
 9985 0088 00000000 		.4byte	.LFB17
ARM GAS  C:\Users\KJA\AppData\Local\Temp\ccNNA7zi.s 			page 219


 9986 008c 50000000 		.4byte	.LFE17
 9987 0090 00000000 		.4byte	.LFB18
 9988 0094 9C010000 		.4byte	.LFE18
 9989 0098 00000000 		.4byte	.LFB19
 9990 009c 18000000 		.4byte	.LFE19
 9991 00a0 00000000 		.4byte	.LFB20
 9992 00a4 74000000 		.4byte	.LFE20
 9993 00a8 00000000 		.4byte	.LFB21
 9994 00ac A0000000 		.4byte	.LFE21
 9995 00b0 00000000 		.4byte	.LFB22
 9996 00b4 60000000 		.4byte	.LFE22
 9997 00b8 00000000 		.4byte	.LFB23
 9998 00bc 5A000000 		.4byte	.LFE23
 9999 00c0 00000000 		.4byte	.LFB24
 10000 00c4 C0000000 		.4byte	.LFE24
 10001 00c8 00000000 		.4byte	.LFB25
 10002 00cc 7C020000 		.4byte	.LFE25
 10003 00d0 00000000 		.4byte	.LFB26
 10004 00d4 F8000000 		.4byte	.LFE26
 10005 00d8 00000000 		.4byte	.LFB27
 10006 00dc 66000000 		.4byte	.LFE27
 10007 00e0 00000000 		.4byte	.LFB28
 10008 00e4 14000000 		.4byte	.LFE28
 10009 00e8 00000000 		.4byte	.LFB29
 10010 00ec 14000000 		.4byte	.LFE29
 10011 00f0 00000000 		.4byte	.LFB30
 10012 00f4 14000000 		.4byte	.LFE30
 10013 00f8 00000000 		.4byte	.LFB31
 10014 00fc 14000000 		.4byte	.LFE31
 10015 0100 00000000 		.4byte	.LFB32
 10016 0104 B0000000 		.4byte	.LFE32
 10017 0108 00000000 		.4byte	.LFB33
 10018 010c AC000000 		.4byte	.LFE33
 10019 0110 00000000 		.4byte	.LFB34
 10020 0114 7C000000 		.4byte	.LFE34
 10021 0118 00000000 		.4byte	.LFB35
 10022 011c F4000000 		.4byte	.LFE35
 10023 0120 00000000 		.4byte	.LFB36
 10024 0124 D0000000 		.4byte	.LFE36
 10025 0128 00000000 		.4byte	.LFB37
 10026 012c 84000000 		.4byte	.LFE37
 10027 0130 00000000 		.4byte	.LFB38
 10028 0134 D0000000 		.4byte	.LFE38
 10029 0138 00000000 		.4byte	.LFB39
 10030 013c 30000000 		.4byte	.LFE39
 10031 0140 00000000 		.4byte	.LFB40
 10032 0144 30000000 		.4byte	.LFE40
 10033 0148 00000000 		.4byte	.LFB41
 10034 014c BC000000 		.4byte	.LFE41
 10035 0150 00000000 		.4byte	.LFB42
 10036 0154 40000000 		.4byte	.LFE42
 10037 0158 00000000 		.4byte	.LFB43
 10038 015c 1C000000 		.4byte	.LFE43
 10039 0160 00000000 		.4byte	.LFB44
 10040 0164 48000000 		.4byte	.LFE44
 10041 0168 00000000 		.4byte	.LFB45
 10042 016c 76000000 		.4byte	.LFE45
ARM GAS  C:\Users\KJA\AppData\Local\Temp\ccNNA7zi.s 			page 220


 10043 0170 00000000 		.4byte	.LFB46
 10044 0174 20010000 		.4byte	.LFE46
 10045 0178 00000000 		.4byte	.LFB47
 10046 017c 38000000 		.4byte	.LFE47
 10047 0180 00000000 		.4byte	.LFB48
 10048 0184 84000000 		.4byte	.LFE48
 10049 0188 00000000 		.4byte	.LFB49
 10050 018c EC000000 		.4byte	.LFE49
 10051 0190 00000000 		.4byte	.LFB50
 10052 0194 C4000000 		.4byte	.LFE50
 10053 0198 00000000 		.4byte	.LFB51
 10054 019c 58000000 		.4byte	.LFE51
 10055 01a0 00000000 		.4byte	.LFB52
 10056 01a4 F4000000 		.4byte	.LFE52
 10057 01a8 00000000 		.4byte	.LFB53
 10058 01ac 48040000 		.4byte	.LFE53
 10059 01b0 00000000 		.4byte	.LFB54
 10060 01b4 0C000000 		.4byte	.LFE54
 10061 01b8 00000000 		.4byte	.LFB55
 10062 01bc C4000000 		.4byte	.LFE55
 10063 01c0 00000000 		.4byte	.LFB56
 10064 01c4 80010000 		.4byte	.LFE56
 10065 01c8 00000000 		.4byte	.LFB57
 10066 01cc 80020000 		.4byte	.LFE57
 10067 01d0 00000000 		.4byte	0
 10068 01d4 00000000 		.4byte	0
 10069              		.section	.debug_line,"",%progbits
 10070              	.Ldebug_line0:
 10071 0000 D0080000 		.section	.debug_str,"MS",%progbits,1
 10071      02003C01 
 10071      00000201 
 10071      FB0E0D00 
 10071      01010101 
 10072              	.LASF224:
 10073 0000 63686573 		.ascii	"chess_boxsize\000"
 10073      735F626F 
 10073      7873697A 
 10073      6500
 10074              	.LASF106:
 10075 000e 746F5F70 		.ascii	"to_pos\000"
 10075      6F7300
 10076              	.LASF50:
 10077 0015 5F753867 		.ascii	"_u8g_dev_arg_pixel_t\000"
 10077      5F646576 
 10077      5F617267 
 10077      5F706978 
 10077      656C5F74 
 10078              	.LASF149:
 10079 002a 63655F4C 		.ascii	"ce_LoopDirsSingleMultiStep\000"
 10079      6F6F7044 
 10079      69727353 
 10079      696E676C 
 10079      654D756C 
 10080              	.LASF137:
 10081 0045 63755F50 		.ascii	"cu_PushHalfMove\000"
 10081      75736848 
 10081      616C664D 
ARM GAS  C:\Users\KJA\AppData\Local\Temp\ccNNA7zi.s 			page 221


 10081      6F766500 
 10082              	.LASF167:
 10083 0055 63655F46 		.ascii	"ce_FindPawnPiece\000"
 10083      696E6450 
 10083      61776E50 
 10083      69656365 
 10083      00
 10084              	.LASF83:
 10085 0066 63686D5F 		.ascii	"chm_t\000"
 10085      7400
 10086              	.LASF173:
 10087 006c 63686573 		.ascii	"chess_ClearMarks\000"
 10087      735F436C 
 10087      6561724D 
 10087      61726B73 
 10087      00
 10088              	.LASF203:
 10089 007d 63655F64 		.ascii	"ce_dir_offset_knight\000"
 10089      69725F6F 
 10089      66667365 
 10089      745F6B6E 
 10089      69676874 
 10090              	.LASF3:
 10091 0092 5F5F7569 		.ascii	"__uint8_t\000"
 10091      6E74385F 
 10091      7400
 10092              	.LASF80:
 10093 009c 6F746865 		.ascii	"other_dest\000"
 10093      725F6465 
 10093      737400
 10094              	.LASF150:
 10095 00a7 69735F6D 		.ascii	"is_multi_step\000"
 10095      756C7469 
 10095      5F737465 
 10095      7000
 10096              	.LASF41:
 10097 00b5 73746174 		.ascii	"state_cb\000"
 10097      655F6362 
 10097      00
 10098              	.LASF120:
 10099 00be 73746163 		.ascii	"stack_Pop\000"
 10099      6B5F506F 
 10099      7000
 10100              	.LASF217:
 10101 00c8 63686573 		.ascii	"chess_key_cmd\000"
 10101      735F6B65 
 10101      795F636D 
 10101      6400
 10102              	.LASF177:
 10103 00d6 63686573 		.ascii	"chess_GetNextMarked\000"
 10103      735F4765 
 10103      744E6578 
 10103      744D6172 
 10103      6B656400 
 10104              	.LASF85:
 10105 00ea 5F6C7263 		.ascii	"_lrc_struct\000"
 10105      5F737472 
ARM GAS  C:\Users\KJA\AppData\Local\Temp\ccNNA7zi.s 			page 222


 10105      75637400 
 10106              	.LASF194:
 10107 00f6 63686573 		.ascii	"chess_Init\000"
 10107      735F496E 
 10107      697400
 10108              	.LASF11:
 10109 0101 6C6F6E67 		.ascii	"long long unsigned int\000"
 10109      206C6F6E 
 10109      6720756E 
 10109      7369676E 
 10109      65642069 
 10110              	.LASF188:
 10111 0118 6B65795F 		.ascii	"key_cmd\000"
 10111      636D6400 
 10112              	.LASF51:
 10113 0120 70697865 		.ascii	"pixel\000"
 10113      6C00
 10114              	.LASF215:
 10115 0126 6D6E755F 		.ascii	"mnu_max\000"
 10115      6D617800 
 10116              	.LASF77:
 10117 012e 6D61696E 		.ascii	"main_dest\000"
 10117      5F646573 
 10117      7400
 10118              	.LASF91:
 10119 0138 69735F67 		.ascii	"is_game_end\000"
 10119      616D655F 
 10119      656E6400 
 10120              	.LASF136:
 10121 0144 63755F55 		.ascii	"cu_UndoHalfMove\000"
 10121      6E646F48 
 10121      616C664D 
 10121      6F766500 
 10122              	.LASF2:
 10123 0154 5F5F696E 		.ascii	"__int8_t\000"
 10123      74385F74 
 10123      00
 10124              	.LASF172:
 10125 015d 63655F4C 		.ascii	"ce_LoopPieces\000"
 10125      6F6F7050 
 10125      69656365 
 10125      7300
 10126              	.LASF216:
 10127 016b 63686573 		.ascii	"chess_key_code\000"
 10127      735F6B65 
 10127      795F636F 
 10127      646500
 10128              	.LASF131:
 10129 017a 706F7369 		.ascii	"position_my_color\000"
 10129      74696F6E 
 10129      5F6D795F 
 10129      636F6C6F 
 10129      7200
 10130              	.LASF74:
 10131 018c 5F63686D 		.ascii	"_chm_struct\000"
 10131      5F737472 
 10131      75637400 
ARM GAS  C:\Users\KJA\AppData\Local\Temp\ccNNA7zi.s 			page 223


 10132              	.LASF122:
 10133 0198 63686573 		.ascii	"chess_SetupBoard\000"
 10133      735F5365 
 10133      74757042 
 10133      6F617264 
 10133      00
 10134              	.LASF123:
 10135 01a9 63755F49 		.ascii	"cu_IsIllegalPosition\000"
 10135      73496C6C 
 10135      6567616C 
 10135      506F7369 
 10135      74696F6E 
 10136              	.LASF199:
 10137 01be 6B657963 		.ascii	"keycode\000"
 10137      6F646500 
 10138              	.LASF190:
 10139 01c6 69735F62 		.ascii	"is_bold\000"
 10139      6F6C6400 
 10140              	.LASF14:
 10141 01ce 696E7431 		.ascii	"int16_t\000"
 10141      365F7400 
 10142              	.LASF10:
 10143 01d6 6C6F6E67 		.ascii	"long long int\000"
 10143      206C6F6E 
 10143      6720696E 
 10143      7400
 10144              	.LASF1:
 10145 01e4 7369676E 		.ascii	"signed char\000"
 10145      65642063 
 10145      68617200 
 10146              	.LASF34:
 10147 01f0 666F6E74 		.ascii	"font_calc_vref\000"
 10147      5F63616C 
 10147      635F7672 
 10147      656600
 10148              	.LASF70:
 10149 01ff 62657374 		.ascii	"best_to_pos\000"
 10149      5F746F5F 
 10149      706F7300 
 10150              	.LASF119:
 10151 020b 63755F43 		.ascii	"cu_ClearBoard\000"
 10151      6C656172 
 10151      426F6172 
 10151      6400
 10152              	.LASF108:
 10153 0219 63755F4E 		.ascii	"cu_NextPos\000"
 10153      65787450 
 10153      6F7300
 10154              	.LASF180:
 10155 0224 63686573 		.ascii	"chess_ComputerMove\000"
 10155      735F436F 
 10155      6D707574 
 10155      65724D6F 
 10155      766500
 10156              	.LASF221:
 10157 0237 63686573 		.ascii	"chess_pieces_body_bm\000"
 10157      735F7069 
ARM GAS  C:\Users\KJA\AppData\Local\Temp\ccNNA7zi.s 			page 224


 10157      65636573 
 10157      5F626F64 
 10157      795F626D 
 10158              	.LASF24:
 10159 024c 63757273 		.ascii	"cursor_encoding\000"
 10159      6F725F65 
 10159      6E636F64 
 10159      696E6700 
 10160              	.LASF207:
 10161 025c 6C72635F 		.ascii	"lrc_u8g\000"
 10161      75386700 
 10162              	.LASF168:
 10163 0264 64657374 		.ascii	"dest_pos\000"
 10163      5F706F73 
 10163      00
 10164              	.LASF78:
 10165 026d 6F746865 		.ascii	"other_cp\000"
 10165      725F6370 
 10165      00
 10166              	.LASF117:
 10167 0276 63705F47 		.ascii	"cp_GetFromBoard\000"
 10167      65744672 
 10167      6F6D426F 
 10167      61726400 
 10168              	.LASF28:
 10169 0286 63757273 		.ascii	"cursor_fn\000"
 10169      6F725F66 
 10169      6E00
 10170              	.LASF8:
 10171 0290 6C6F6E67 		.ascii	"long int\000"
 10171      20696E74 
 10171      00
 10172              	.LASF93:
 10173 0299 63686563 		.ascii	"check_src_pos\000"
 10173      6B5F7372 
 10173      635F706F 
 10173      7300
 10174              	.LASF170:
 10175 02a7 63655F47 		.ascii	"ce_GetPositionAttackWeight\000"
 10175      6574506F 
 10175      73697469 
 10175      6F6E4174 
 10175      7461636B 
 10176              	.LASF189:
 10177 02c2 63686573 		.ascii	"chess_DrawFrame\000"
 10177      735F4472 
 10177      61774672 
 10177      616D6500 
 10178              	.LASF60:
 10179 02d2 7538675F 		.ascii	"u8g_draw_cursor_fn\000"
 10179      64726177 
 10179      5F637572 
 10179      736F725F 
 10179      666E00
 10180              	.LASF206:
 10181 02e5 7538675F 		.ascii	"u8g_font_5x8r\000"
 10181      666F6E74 
ARM GAS  C:\Users\KJA\AppData\Local\Temp\ccNNA7zi.s 			page 225


 10181      5F357838 
 10181      7200
 10182              	.LASF103:
 10183 02f3 73746163 		.ascii	"stack_InitCurrElement\000"
 10183      6B5F496E 
 10183      69744375 
 10183      7272456C 
 10183      656D656E 
 10184              	.LASF222:
 10185 0309 63686573 		.ascii	"chess_black_pieces_bm\000"
 10185      735F626C 
 10185      61636B5F 
 10185      70696563 
 10185      65735F62 
 10186              	.LASF44:
 10187 031f 5F753867 		.ascii	"_u8g_t\000"
 10187      5F7400
 10188              	.LASF43:
 10189 0326 7538675F 		.ascii	"u8g_dev_t\000"
 10189      6465765F 
 10189      7400
 10190              	.LASF105:
 10191 0330 73746163 		.ascii	"stack_SetMove\000"
 10191      6B5F5365 
 10191      744D6F76 
 10191      6500
 10192              	.LASF17:
 10193 033e 7538675F 		.ascii	"u8g_t\000"
 10193      7400
 10194              	.LASF84:
 10195 0344 63686D5F 		.ascii	"chm_p\000"
 10195      7000
 10196              	.LASF171:
 10197 034a 63655F47 		.ascii	"ce_GetPositionAttackCount\000"
 10197      6574506F 
 10197      73697469 
 10197      6F6E4174 
 10197      7461636B 
 10198              	.LASF57:
 10199 0364 7538675F 		.ascii	"u8g_uint_t\000"
 10199      75696E74 
 10199      5F7400
 10200              	.LASF23:
 10201 036f 63757273 		.ascii	"cursor_bg_color\000"
 10201      6F725F62 
 10201      675F636F 
 10201      6C6F7200 
 10202              	.LASF40:
 10203 037f 6172675F 		.ascii	"arg_pixel\000"
 10203      70697865 
 10203      6C00
 10204              	.LASF82:
 10205 0389 63617374 		.ascii	"castling_possible\000"
 10205      6C696E67 
 10205      5F706F73 
 10205      7369626C 
 10205      6500
ARM GAS  C:\Users\KJA\AppData\Local\Temp\ccNNA7zi.s 			page 226


 10206              	.LASF114:
 10207 039b 70696563 		.ascii	"piece\000"
 10207      6500
 10208              	.LASF37:
 10209 03a1 666F6E74 		.ascii	"font_ref_descent\000"
 10209      5F726566 
 10209      5F646573 
 10209      63656E74 
 10209      00
 10210              	.LASF61:
 10211 03b2 7538675F 		.ascii	"u8g_font_calc_vref_fnptr\000"
 10211      666F6E74 
 10211      5F63616C 
 10211      635F7672 
 10211      65665F66 
 10212              	.LASF129:
 10213 03cb 6D617465 		.ascii	"material_my_color\000"
 10213      7269616C 
 10213      5F6D795F 
 10213      636F6C6F 
 10213      7200
 10214              	.LASF111:
 10215 03dd 62706F73 		.ascii	"bpos\000"
 10215      00
 10216              	.LASF155:
 10217 03e2 63655F4C 		.ascii	"ce_LoopKnight\000"
 10217      6F6F704B 
 10217      6E696768 
 10217      7400
 10218              	.LASF16:
 10219 03f0 7538675F 		.ascii	"u8g_fntpgm_uint8_t\000"
 10219      666E7470 
 10219      676D5F75 
 10219      696E7438 
 10219      5F7400
 10220              	.LASF36:
 10221 0403 666F6E74 		.ascii	"font_ref_ascent\000"
 10221      5F726566 
 10221      5F617363 
 10221      656E7400 
 10222              	.LASF5:
 10223 0413 5F5F696E 		.ascii	"__int16_t\000"
 10223      7431365F 
 10223      7400
 10224              	.LASF158:
 10225 041d 64697265 		.ascii	"direction\000"
 10225      6374696F 
 10225      6E00
 10226              	.LASF191:
 10227 0427 63686573 		.ascii	"chess_DrawBoard\000"
 10227      735F4472 
 10227      6177426F 
 10227      61726400 
 10228              	.LASF204:
 10229 0437 7538675F 		.ascii	"u8g_font_5x7\000"
 10229      666F6E74 
 10229      5F357837 
ARM GAS  C:\Users\KJA\AppData\Local\Temp\ccNNA7zi.s 			page 227


 10229      00
 10230              	.LASF116:
 10231 0444 63705F47 		.ascii	"cp_GetColor\000"
 10231      6574436F 
 10231      6C6F7200 
 10232              	.LASF126:
 10233 0450 63655F45 		.ascii	"ce_Eval\000"
 10233      76616C00 
 10234              	.LASF0:
 10235 0458 756E7369 		.ascii	"unsigned int\000"
 10235      676E6564 
 10235      20696E74 
 10235      00
 10236              	.LASF185:
 10237 0465 69735F63 		.ascii	"is_clr_background\000"
 10237      6C725F62 
 10237      61636B67 
 10237      726F756E 
 10237      6400
 10238              	.LASF223:
 10239 0477 63686573 		.ascii	"chess_low_edge\000"
 10239      735F6C6F 
 10239      775F6564 
 10239      676500
 10240              	.LASF22:
 10241 0486 63757273 		.ascii	"cursor_fg_color\000"
 10241      6F725F66 
 10241      675F636F 
 10241      6C6F7200 
 10242              	.LASF115:
 10243 0496 63705F47 		.ascii	"cp_GetPiece\000"
 10243      65745069 
 10243      65636500 
 10244              	.LASF68:
 10245 04a2 63757272 		.ascii	"current_color\000"
 10245      656E745F 
 10245      636F6C6F 
 10245      7200
 10246              	.LASF9:
 10247 04b0 6C6F6E67 		.ascii	"long unsigned int\000"
 10247      20756E73 
 10247      69676E65 
 10247      6420696E 
 10247      7400
 10248              	.LASF135:
 10249 04c2 63755F52 		.ascii	"cu_ReduceHistoryByFullMove\000"
 10249      65647563 
 10249      65486973 
 10249      746F7279 
 10249      42794675 
 10250              	.LASF97:
 10251 04dd 63757272 		.ascii	"curr_depth\000"
 10251      5F646570 
 10251      746800
 10252              	.LASF198:
 10253 04e8 63686573 		.ascii	"chess_Step\000"
 10253      735F5374 
ARM GAS  C:\Users\KJA\AppData\Local\Temp\ccNNA7zi.s 			page 228


 10253      657000
 10254              	.LASF175:
 10255 04f3 63686573 		.ascii	"chess_MarkTargetMoves\000"
 10255      735F4D61 
 10255      726B5461 
 10255      72676574 
 10255      4D6F7665 
 10256              	.LASF18:
 10257 0509 77696474 		.ascii	"width\000"
 10257      6800
 10258              	.LASF124:
 10259 050f 6D795F63 		.ascii	"my_color\000"
 10259      6F6C6F72 
 10259      00
 10260              	.LASF179:
 10261 0518 63686573 		.ascii	"chess_ManualMove\000"
 10261      735F4D61 
 10261      6E75616C 
 10261      4D6F7665 
 10261      00
 10262              	.LASF228:
 10263 0529 443A5C57 		.ascii	"D:\\Workspace\\PSoC_Creator\\Active_Load\\Active_Lo"
 10263      6F726B73 
 10263      70616365 
 10263      5C50536F 
 10263      435F4372 
 10264 0558 61645F76 		.ascii	"ad_v9.cydsn\000"
 10264      392E6379 
 10264      64736E00 
 10265              	.LASF181:
 10266 0564 64657074 		.ascii	"depth\000"
 10266      6800
 10267              	.LASF110:
 10268 056a 67706F73 		.ascii	"gpos\000"
 10268      00
 10269              	.LASF121:
 10270 056f 63686573 		.ascii	"chess_SetupBoardTest01\000"
 10270      735F5365 
 10270      74757042 
 10270      6F617264 
 10270      54657374 
 10271              	.LASF104:
 10272 0586 73746163 		.ascii	"stack_Init\000"
 10272      6B5F496E 
 10272      697400
 10273              	.LASF55:
 10274 0591 7538675F 		.ascii	"u8g_box_t\000"
 10274      626F785F 
 10274      7400
 10275              	.LASF187:
 10276 059b 6D6E755F 		.ascii	"mnu_Step\000"
 10276      53746570 
 10276      00
 10277              	.LASF127:
 10278 05a4 69735F6D 		.ascii	"is_my_king_present\000"
 10278      795F6B69 
 10278      6E675F70 
ARM GAS  C:\Users\KJA\AppData\Local\Temp\ccNNA7zi.s 			page 229


 10278      72657365 
 10278      6E7400
 10279              	.LASF112:
 10280 05b7 63755F67 		.ascii	"cu_gpos2bpos\000"
 10280      706F7332 
 10280      62706F73 
 10280      00
 10281              	.LASF39:
 10282 05c4 6C696E65 		.ascii	"line_spacing\000"
 10282      5F737061 
 10282      63696E67 
 10282      00
 10283              	.LASF90:
 10284 05d1 73747269 		.ascii	"strike_out_color\000"
 10284      6B655F6F 
 10284      75745F63 
 10284      6F6C6F72 
 10284      00
 10285              	.LASF214:
 10286 05e2 6D6E755F 		.ascii	"mnu_pos\000"
 10286      706F7300 
 10287              	.LASF96:
 10288 05ea 66696E64 		.ascii	"find_piece_weight\000"
 10288      5F706965 
 10288      63655F77 
 10288      65696768 
 10288      7400
 10289              	.LASF220:
 10290 05fc 63686573 		.ascii	"chess_target_pos\000"
 10290      735F7461 
 10290      72676574 
 10290      5F706F73 
 10290      00
 10291              	.LASF161:
 10292 060d 63655F4C 		.ascii	"ce_LoopPawnSideCapture\000"
 10292      6F6F7050 
 10292      61776E53 
 10292      69646543 
 10292      61707475 
 10293              	.LASF71:
 10294 0624 62657374 		.ascii	"best_eval\000"
 10294      5F657661 
 10294      6C00
 10295              	.LASF35:
 10296 062e 666F6E74 		.ascii	"font_height_mode\000"
 10296      5F686569 
 10296      6768745F 
 10296      6D6F6465 
 10296      00
 10297              	.LASF144:
 10298 063f 636C725F 		.ascii	"clr_pos2\000"
 10298      706F7332 
 10298      00
 10299              	.LASF72:
 10300 0648 73746163 		.ascii	"stack_element_t\000"
 10300      6B5F656C 
 10300      656D656E 
ARM GAS  C:\Users\KJA\AppData\Local\Temp\ccNNA7zi.s 			page 230


 10300      745F7400 
 10301              	.LASF88:
 10302 0658 626F6172 		.ascii	"board\000"
 10302      6400
 10303              	.LASF208:
 10304 065e 6C72635F 		.ascii	"lrc_obj\000"
 10304      6F626A00 
 10305              	.LASF213:
 10306 0666 6D6E755F 		.ascii	"mnu_list\000"
 10306      6C697374 
 10306      00
 10307              	.LASF132:
 10308 066f 706F7369 		.ascii	"position_opposit_color\000"
 10308      74696F6E 
 10308      5F6F7070 
 10308      6F736974 
 10308      5F636F6C 
 10309              	.LASF33:
 10310 0686 676C7970 		.ascii	"glyph_height\000"
 10310      685F6865 
 10310      69676874 
 10310      00
 10311              	.LASF182:
 10312 0693 6D6E755F 		.ascii	"mnu_DrawHome\000"
 10312      44726177 
 10312      486F6D65 
 10312      00
 10313              	.LASF63:
 10314 06a0 73697A65 		.ascii	"sizetype\000"
 10314      74797065 
 10314      00
 10315              	.LASF193:
 10316 06a9 63686573 		.ascii	"chess_Thinking\000"
 10316      735F5468 
 10316      696E6B69 
 10316      6E6700
 10317              	.LASF65:
 10318 06b8 5F737461 		.ascii	"_stack_element_struct\000"
 10318      636B5F65 
 10318      6C656D65 
 10318      6E745F73 
 10318      74727563 
 10319              	.LASF174:
 10320 06ce 63686573 		.ascii	"chess_MarkMovable\000"
 10320      735F4D61 
 10320      726B4D6F 
 10320      7661626C 
 10320      6500
 10321              	.LASF154:
 10322 06e0 63655F4C 		.ascii	"ce_LoopQueen\000"
 10322      6F6F7051 
 10322      7565656E 
 10322      00
 10323              	.LASF186:
 10324 06ed 6D6E755F 		.ascii	"mnu_Draw\000"
 10324      44726177 
 10324      00
ARM GAS  C:\Users\KJA\AppData\Local\Temp\ccNNA7zi.s 			page 231


 10325              	.LASF42:
 10326 06f6 63757272 		.ascii	"current_page\000"
 10326      656E745F 
 10326      70616765 
 10326      00
 10327              	.LASF201:
 10328 0703 63655F64 		.ascii	"ce_dir_offset_bishop\000"
 10328      69725F6F 
 10328      66667365 
 10328      745F6269 
 10328      73686F70 
 10329              	.LASF27:
 10330 0718 63757273 		.ascii	"cursor_y\000"
 10330      6F725F79 
 10330      00
 10331              	.LASF89:
 10332 0721 6F726965 		.ascii	"orientation\000"
 10332      6E746174 
 10332      696F6E00 
 10333              	.LASF226:
 10334 072d 474E5520 		.ascii	"GNU C 4.9.3 20150303 (release) [ARM/embedded-4_9-br"
 10334      4320342E 
 10334      392E3320 
 10334      32303135 
 10334      30333033 
 10335 0760 616E6368 		.ascii	"anch revision 221220] -mcpu=cortex-m3 -mthumb -g -O"
 10335      20726576 
 10335      6973696F 
 10335      6E203232 
 10335      31323230 
 10336 0793 30202D66 		.ascii	"0 -ffunction-sections -ffat-lto-objects\000"
 10336      66756E63 
 10336      74696F6E 
 10336      2D736563 
 10336      74696F6E 
 10337              	.LASF146:
 10338 07bb 7365745F 		.ascii	"set_cp2\000"
 10338      63703200 
 10339              	.LASF15:
 10340 07c3 7538675F 		.ascii	"u8g_pgm_uint8_t\000"
 10340      70676D5F 
 10340      75696E74 
 10340      385F7400 
 10341              	.LASF54:
 10342 07d3 626C7565 		.ascii	"blue\000"
 10342      00
 10343              	.LASF141:
 10344 07d8 64657374 		.ascii	"dest\000"
 10344      00
 10345              	.LASF163:
 10346 07dd 696E6974 		.ascii	"initial_pos\000"
 10346      69616C5F 
 10346      706F7300 
 10347              	.LASF67:
 10348 07e9 63757272 		.ascii	"current_cp\000"
 10348      656E745F 
 10348      637000
ARM GAS  C:\Users\KJA\AppData\Local\Temp\ccNNA7zi.s 			page 232


 10349              	.LASF200:
 10350 07f4 63655F64 		.ascii	"ce_dir_offset_rook\000"
 10350      69725F6F 
 10350      66667365 
 10350      745F726F 
 10350      6F6B00
 10351              	.LASF47:
 10352 0807 6465765F 		.ascii	"dev_mem\000"
 10352      6D656D00 
 10353              	.LASF69:
 10354 080f 62657374 		.ascii	"best_from_pos\000"
 10354      5F66726F 
 10354      6D5F706F 
 10354      7300
 10355              	.LASF59:
 10356 081d 7538675F 		.ascii	"u8g_com_fnptr\000"
 10356      636F6D5F 
 10356      666E7074 
 10356      7200
 10357              	.LASF230:
 10358 082b 63755F61 		.ascii	"cu_add_pos\000"
 10358      64645F70 
 10358      6F7300
 10359              	.LASF46:
 10360 0836 6465765F 		.ascii	"dev_fn\000"
 10360      666E00
 10361              	.LASF102:
 10362 083d 6C72635F 		.ascii	"lrc_t\000"
 10362      7400
 10363              	.LASF81:
 10364 0843 7061776E 		.ascii	"pawn_dbl_move\000"
 10364      5F64626C 
 10364      5F6D6F76 
 10364      6500
 10365              	.LASF76:
 10366 0851 6D61696E 		.ascii	"main_src\000"
 10366      5F737263 
 10366      00
 10367              	.LASF178:
 10368 085a 69735F70 		.ascii	"is_prev\000"
 10368      72657600 
 10369              	.LASF49:
 10370 0862 7538675F 		.ascii	"u8g_dev_arg_pixel_t\000"
 10370      6465765F 
 10370      6172675F 
 10370      70697865 
 10370      6C5F7400 
 10371              	.LASF139:
 10372 0876 63755F47 		.ascii	"cu_GetHalfMoveStr\000"
 10372      65744861 
 10372      6C664D6F 
 10372      76655374 
 10372      7200
 10373              	.LASF4:
 10374 0888 756E7369 		.ascii	"unsigned char\000"
 10374      676E6564 
 10374      20636861 
ARM GAS  C:\Users\KJA\AppData\Local\Temp\ccNNA7zi.s 			page 233


 10374      7200
 10375              	.LASF29:
 10376 0896 676C7970 		.ascii	"glyph_dx\000"
 10376      685F6478 
 10376      00
 10377              	.LASF143:
 10378 089f 63705F64 		.ascii	"cp_dest\000"
 10378      65737400 
 10379              	.LASF157:
 10380 08a7 6D61736B 		.ascii	"mask\000"
 10380      00
 10381              	.LASF6:
 10382 08ac 73686F72 		.ascii	"short int\000"
 10382      7420696E 
 10382      7400
 10383              	.LASF205:
 10384 08b6 7538675F 		.ascii	"u8g_font_5x7r\000"
 10384      666F6E74 
 10384      5F357837 
 10384      7200
 10385              	.LASF45:
 10386 08c4 5F753867 		.ascii	"_u8g_dev_t\000"
 10386      5F646576 
 10386      5F7400
 10387              	.LASF107:
 10388 08cf 73746163 		.ascii	"stack_Push\000"
 10388      6B5F5075 
 10388      736800
 10389              	.LASF197:
 10390 08da 656E7472 		.ascii	"entries\000"
 10390      69657300 
 10391              	.LASF218:
 10392 08e2 63686573 		.ascii	"chess_state\000"
 10392      735F7374 
 10392      61746500 
 10393              	.LASF130:
 10394 08ee 6D617465 		.ascii	"material_opposit_color\000"
 10394      7269616C 
 10394      5F6F7070 
 10394      6F736974 
 10394      5F636F6C 
 10395              	.LASF118:
 10396 0905 63705F53 		.ascii	"cp_SetOnBoard\000"
 10396      65744F6E 
 10396      426F6172 
 10396      6400
 10397              	.LASF192:
 10398 0913 785F6F66 		.ascii	"x_offset\000"
 10398      66736574 
 10398      00
 10399              	.LASF66:
 10400 091c 63757272 		.ascii	"current_pos\000"
 10400      656E745F 
 10400      706F7300 
 10401              	.LASF176:
 10402 0928 7372635F 		.ascii	"src_pos\000"
 10402      706F7300 
ARM GAS  C:\Users\KJA\AppData\Local\Temp\ccNNA7zi.s 			page 234


 10403              	.LASF134:
 10404 0930 63755F43 		.ascii	"cu_ClearMoveHistory\000"
 10404      6C656172 
 10404      4D6F7665 
 10404      48697374 
 10404      6F727900 
 10405              	.LASF48:
 10406 0944 636F6D5F 		.ascii	"com_fn\000"
 10406      666E00
 10407              	.LASF21:
 10408 094b 63757273 		.ascii	"cursor_font\000"
 10408      6F725F66 
 10408      6F6E7400 
 10409              	.LASF225:
 10410 0957 63686573 		.ascii	"chess_boxoffset\000"
 10410      735F626F 
 10410      786F6666 
 10410      73657400 
 10411              	.LASF227:
 10412 0967 7538676C 		.ascii	"u8glib_arm_v1.18.1\\src\\chessengine.c\000"
 10412      69625F61 
 10412      726D5F76 
 10412      312E3138 
 10412      2E315C73 
 10413              	.LASF30:
 10414 098c 676C7970 		.ascii	"glyph_x\000"
 10414      685F7800 
 10415              	.LASF31:
 10416 0994 676C7970 		.ascii	"glyph_y\000"
 10416      685F7900 
 10417              	.LASF26:
 10418 099c 63757273 		.ascii	"cursor_x\000"
 10418      6F725F78 
 10418      00
 10419              	.LASF52:
 10420 09a5 636F6C6F 		.ascii	"color\000"
 10420      7200
 10421              	.LASF138:
 10422 09ab 63686172 		.ascii	"char\000"
 10422      00
 10423              	.LASF166:
 10424 09b0 73746172 		.ascii	"start_pos\000"
 10424      745F706F 
 10424      7300
 10425              	.LASF25:
 10426 09ba 6D6F6465 		.ascii	"mode\000"
 10426      00
 10427              	.LASF153:
 10428 09bf 63655F4C 		.ascii	"ce_LoopBishop\000"
 10428      6F6F7042 
 10428      6973686F 
 10428      7000
 10429              	.LASF209:
 10430 09cd 63655F70 		.ascii	"ce_piece_weight\000"
 10430      69656365 
 10430      5F776569 
 10430      67687400 
ARM GAS  C:\Users\KJA\AppData\Local\Temp\ccNNA7zi.s 			page 235


 10431              	.LASF64:
 10432 09dd 6576616C 		.ascii	"eval_t\000"
 10432      5F7400
 10433              	.LASF160:
 10434 09e4 63655F4C 		.ascii	"ce_LoopKing\000"
 10434      6F6F704B 
 10434      696E6700 
 10435              	.LASF86:
 10436 09f0 706C795F 		.ascii	"ply_count\000"
 10436      636F756E 
 10436      7400
 10437              	.LASF100:
 10438 09fa 73746163 		.ascii	"stack_memory\000"
 10438      6B5F6D65 
 10438      6D6F7279 
 10438      00
 10439              	.LASF210:
 10440 0a07 63655F70 		.ascii	"ce_pos_weight\000"
 10440      6F735F77 
 10440      65696768 
 10440      7400
 10441              	.LASF183:
 10442 0a15 69735F68 		.ascii	"is_highlight\000"
 10442      6967686C 
 10442      69676874 
 10442      00
 10443              	.LASF211:
 10444 0a22 63686573 		.ascii	"chess_piece_to_char\000"
 10444      735F7069 
 10444      6563655F 
 10444      746F5F63 
 10444      68617200 
 10445              	.LASF164:
 10446 0a36 6C696E65 		.ascii	"line\000"
 10446      00
 10447              	.LASF73:
 10448 0a3b 73746163 		.ascii	"stack_element_p\000"
 10448      6B5F656C 
 10448      656D656E 
 10448      745F7000 
 10449              	.LASF156:
 10450 0a4b 63755F49 		.ascii	"cu_IsKingCastling\000"
 10450      734B696E 
 10450      67436173 
 10450      746C696E 
 10450      6700
 10451              	.LASF62:
 10452 0a5d 7538675F 		.ascii	"u8g_state_cb\000"
 10452      73746174 
 10452      655F6362 
 10452      00
 10453              	.LASF7:
 10454 0a6a 73686F72 		.ascii	"short unsigned int\000"
 10454      7420756E 
 10454      7369676E 
 10454      65642069 
 10454      6E7400
ARM GAS  C:\Users\KJA\AppData\Local\Temp\ccNNA7zi.s 			page 236


 10455              	.LASF109:
 10456 0a7d 63755F50 		.ascii	"cu_PrevPos\000"
 10456      72657650 
 10456      6F7300
 10457              	.LASF32:
 10458 0a88 676C7970 		.ascii	"glyph_width\000"
 10458      685F7769 
 10458      64746800 
 10459              	.LASF94:
 10460 0a94 63686563 		.ascii	"check_mode\000"
 10460      6B5F6D6F 
 10460      646500
 10461              	.LASF12:
 10462 0a9f 696E7438 		.ascii	"int8_t\000"
 10462      5F7400
 10463              	.LASF202:
 10464 0aa6 63655F64 		.ascii	"ce_dir_offset_queen\000"
 10464      69725F6F 
 10464      66667365 
 10464      745F7175 
 10464      65656E00 
 10465              	.LASF79:
 10466 0aba 6F746865 		.ascii	"other_src\000"
 10466      725F7372 
 10466      6300
 10467              	.LASF101:
 10468 0ac4 63686D5F 		.ascii	"chm_list\000"
 10468      6C697374 
 10468      00
 10469              	.LASF99:
 10470 0acd 63757272 		.ascii	"curr_element\000"
 10470      5F656C65 
 10470      6D656E74 
 10470      00
 10471              	.LASF196:
 10472 0ada 63686573 		.ascii	"chess_Draw\000"
 10472      735F4472 
 10472      617700
 10473              	.LASF162:
 10474 0ae5 63655F4C 		.ascii	"ce_LoopPawn\000"
 10474      6F6F7050 
 10474      61776E00 
 10475              	.LASF87:
 10476 0af1 63686D5F 		.ascii	"chm_pos\000"
 10476      706F7300 
 10477              	.LASF142:
 10478 0af9 63705F73 		.ascii	"cp_src\000"
 10478      726300
 10479              	.LASF145:
 10480 0b00 7365745F 		.ascii	"set_pos2\000"
 10480      706F7332 
 10480      00
 10481              	.LASF20:
 10482 0b09 666F6E74 		.ascii	"font\000"
 10482      00
 10483              	.LASF113:
 10484 0b0e 63705F43 		.ascii	"cp_Construct\000"
ARM GAS  C:\Users\KJA\AppData\Local\Temp\ccNNA7zi.s 			page 237


 10484      6F6E7374 
 10484      72756374 
 10484      00
 10485              	.LASF58:
 10486 0b1b 7538675F 		.ascii	"u8g_dev_fnptr\000"
 10486      6465765F 
 10486      666E7074 
 10486      7200
 10487              	.LASF75:
 10488 0b29 6D61696E 		.ascii	"main_cp\000"
 10488      5F637000 
 10489              	.LASF53:
 10490 0b31 68695F63 		.ascii	"hi_color\000"
 10490      6F6C6F72 
 10490      00
 10491              	.LASF165:
 10492 0b3a 63655F46 		.ascii	"ce_FindPieceByStep\000"
 10492      696E6450 
 10492      69656365 
 10492      42795374 
 10492      657000
 10493              	.LASF13:
 10494 0b4d 75696E74 		.ascii	"uint8_t\000"
 10494      385F7400 
 10495              	.LASF212:
 10496 0b55 6D6E755F 		.ascii	"mnu_title\000"
 10496      7469746C 
 10496      6500
 10497              	.LASF151:
 10498 0b5f 6C6F6F70 		.ascii	"loop_pos\000"
 10498      5F706F73 
 10498      00
 10499              	.LASF125:
 10500 0b68 626F6172 		.ascii	"board_cp\000"
 10500      645F6370 
 10500      00
 10501              	.LASF152:
 10502 0b71 63655F4C 		.ascii	"ce_LoopRook\000"
 10502      6F6F7052 
 10502      6F6F6B00 
 10503              	.LASF140:
 10504 0b7d 63755F4D 		.ascii	"cu_Move\000"
 10504      6F766500 
 10505              	.LASF128:
 10506 0b85 69735F6F 		.ascii	"is_opposit_king_present\000"
 10506      70706F73 
 10506      69745F6B 
 10506      696E675F 
 10506      70726573 
 10507              	.LASF169:
 10508 0b9d 63655F43 		.ascii	"ce_CalculatePositionWeight\000"
 10508      616C6375 
 10508      6C617465 
 10508      506F7369 
 10508      74696F6E 
 10509              	.LASF98:
 10510 0bb8 6D61785F 		.ascii	"max_depth\000"
ARM GAS  C:\Users\KJA\AppData\Local\Temp\ccNNA7zi.s 			page 238


 10510      64657074 
 10510      6800
 10511              	.LASF38:
 10512 0bc2 666F6E74 		.ascii	"font_line_spacing_factor\000"
 10512      5F6C696E 
 10512      655F7370 
 10512      6163696E 
 10512      675F6661 
 10513              	.LASF92:
 10514 0bdb 6C6F7374 		.ascii	"lost_side_color\000"
 10514      5F736964 
 10514      655F636F 
 10514      6C6F7200 
 10515              	.LASF219:
 10516 0beb 63686573 		.ascii	"chess_source_pos\000"
 10516      735F736F 
 10516      75726365 
 10516      5F706F73 
 10516      00
 10517              	.LASF147:
 10518 0bfc 63655F4C 		.ascii	"ce_LoopRecur\000"
 10518      6F6F7052 
 10518      65637572 
 10518      00
 10519              	.LASF95:
 10520 0c09 66696E64 		.ascii	"find_piece_cnt\000"
 10520      5F706965 
 10520      63655F63 
 10520      6E7400
 10521              	.LASF19:
 10522 0c18 68656967 		.ascii	"height\000"
 10522      687400
 10523              	.LASF56:
 10524 0c1f 5F753867 		.ascii	"_u8g_box_t\000"
 10524      5F626F78 
 10524      5F7400
 10525              	.LASF159:
 10526 0c2a 6F70706F 		.ascii	"opponent_color\000"
 10526      6E656E74 
 10526      5F636F6C 
 10526      6F7200
 10527              	.LASF195:
 10528 0c39 626F6479 		.ascii	"body_color\000"
 10528      5F636F6C 
 10528      6F7200
 10529              	.LASF229:
 10530 0c44 73746163 		.ascii	"stack_GetCurrElement\000"
 10530      6B5F4765 
 10530      74437572 
 10530      72456C65 
 10530      6D656E74 
 10531              	.LASF133:
 10532 0c59 72657375 		.ascii	"result\000"
 10532      6C7400
 10533              	.LASF184:
 10534 0c60 6D6E755F 		.ascii	"mnu_DrawEntry\000"
 10534      44726177 
ARM GAS  C:\Users\KJA\AppData\Local\Temp\ccNNA7zi.s 			page 239


 10534      456E7472 
 10534      7900
 10535              	.LASF148:
 10536 0c6e 6576616C 		.ascii	"eval\000"
 10536      00
 10537              		.ident	"GCC: (GNU Tools for ARM Embedded Processors) 4.9.3 20150303 (release) [ARM/embedded-4_9-br
