ARM GAS  C:\Users\KJA\AppData\Local\Temp\ccNNA7zi.s 			page 1


   1              		.syntax unified
   2              		.cpu cortex-m3
   3              		.fpu softvfp
   4              		.eabi_attribute 20, 1
   5              		.eabi_attribute 21, 1
   6              		.eabi_attribute 23, 3
   7              		.eabi_attribute 24, 1
   8              		.eabi_attribute 25, 1
   9              		.eabi_attribute 26, 1
  10              		.eabi_attribute 30, 6
  11              		.eabi_attribute 34, 1
  12              		.eabi_attribute 18, 4
  13              		.thumb
  14              		.file	"chessengine.c"
  15              		.text
  16              	.Ltext0:
  17              		.cfi_sections	.debug_frame
  18              		.comm	lrc_u8g,4,4
  19              		.comm	lrc_obj,248,4
  20              		.section	.text.stack_GetCurrElement,"ax",%progbits
  21              		.align	2
  22              		.global	stack_GetCurrElement
  23              		.thumb
  24              		.thumb_func
  25              		.type	stack_GetCurrElement, %function
  26              	stack_GetCurrElement:
  27              	.LFB0:
  28              		.file 1 "u8glib_arm_v1.18.1\\src\\chessengine.c"
   1:u8glib_arm_v1.18.1\src/chessengine.c **** /*
   2:u8glib_arm_v1.18.1\src/chessengine.c ****   chessengine.c
   3:u8glib_arm_v1.18.1\src/chessengine.c ****   
   4:u8glib_arm_v1.18.1\src/chessengine.c ****   "Little Rook Chess" (lrc)
   5:u8glib_arm_v1.18.1\src/chessengine.c **** 
   6:u8glib_arm_v1.18.1\src/chessengine.c ****   Port to u8g library
   7:u8glib_arm_v1.18.1\src/chessengine.c **** 
   8:u8glib_arm_v1.18.1\src/chessengine.c ****   chess for embedded 8-Bit controllers
   9:u8glib_arm_v1.18.1\src/chessengine.c **** 
  10:u8glib_arm_v1.18.1\src/chessengine.c ****   Copyright (c) 2012, olikraus@gmail.com
  11:u8glib_arm_v1.18.1\src/chessengine.c ****   All rights reserved.
  12:u8glib_arm_v1.18.1\src/chessengine.c **** 
  13:u8glib_arm_v1.18.1\src/chessengine.c ****   Redistribution and use in source and binary forms, with or without modification, 
  14:u8glib_arm_v1.18.1\src/chessengine.c ****   are permitted provided that the following conditions are met:
  15:u8glib_arm_v1.18.1\src/chessengine.c **** 
  16:u8glib_arm_v1.18.1\src/chessengine.c ****   * Redistributions of source code must retain the above copyright notice, this list 
  17:u8glib_arm_v1.18.1\src/chessengine.c ****     of conditions and the following disclaimer.
  18:u8glib_arm_v1.18.1\src/chessengine.c ****     
  19:u8glib_arm_v1.18.1\src/chessengine.c ****   * Redistributions in binary form must reproduce the above copyright notice, this 
  20:u8glib_arm_v1.18.1\src/chessengine.c ****     list of conditions and the following disclaimer in the documentation and/or other 
  21:u8glib_arm_v1.18.1\src/chessengine.c ****     materials provided with the distribution.
  22:u8glib_arm_v1.18.1\src/chessengine.c **** 
  23:u8glib_arm_v1.18.1\src/chessengine.c ****   THIS SOFTWARE IS PROVIDED BY THE COPYRIGHT HOLDERS AND 
  24:u8glib_arm_v1.18.1\src/chessengine.c ****   CONTRIBUTORS "AS IS" AND ANY EXPRESS OR IMPLIED WARRANTIES, 
  25:u8glib_arm_v1.18.1\src/chessengine.c ****   INCLUDING, BUT NOT LIMITED TO, THE IMPLIED WARRANTIES OF 
  26:u8glib_arm_v1.18.1\src/chessengine.c ****   MERCHANTABILITY AND FITNESS FOR A PARTICULAR PURPOSE ARE 
  27:u8glib_arm_v1.18.1\src/chessengine.c ****   DISCLAIMED. IN NO EVENT SHALL THE COPYRIGHT HOLDER OR 
  28:u8glib_arm_v1.18.1\src/chessengine.c ****   CONTRIBUTORS BE LIABLE FOR ANY DIRECT, INDIRECT, INCIDENTAL, 
  29:u8glib_arm_v1.18.1\src/chessengine.c ****   SPECIAL, EXEMPLARY, OR CONSEQUENTIAL DAMAGES (INCLUDING, BUT 
ARM GAS  C:\Users\KJA\AppData\Local\Temp\ccNNA7zi.s 			page 2


  30:u8glib_arm_v1.18.1\src/chessengine.c ****   NOT LIMITED TO, PROCUREMENT OF SUBSTITUTE GOODS OR SERVICES; 
  31:u8glib_arm_v1.18.1\src/chessengine.c ****   LOSS OF USE, DATA, OR PROFITS; OR BUSINESS INTERRUPTION) HOWEVER 
  32:u8glib_arm_v1.18.1\src/chessengine.c ****   CAUSED AND ON ANY THEORY OF LIABILITY, WHETHER IN CONTRACT, 
  33:u8glib_arm_v1.18.1\src/chessengine.c ****   STRICT LIABILITY, OR TORT (INCLUDING NEGLIGENCE OR OTHERWISE) 
  34:u8glib_arm_v1.18.1\src/chessengine.c ****   ARISING IN ANY WAY OUT OF THE USE OF THIS SOFTWARE, EVEN IF 
  35:u8glib_arm_v1.18.1\src/chessengine.c ****   ADVISED OF THE POSSIBILITY OF SUCH DAMAGE.  
  36:u8glib_arm_v1.18.1\src/chessengine.c **** 
  37:u8glib_arm_v1.18.1\src/chessengine.c ****   Note:
  38:u8glib_arm_v1.18.1\src/chessengine.c ****     UNIX_MAIN --> unix console executable
  39:u8glib_arm_v1.18.1\src/chessengine.c **** 
  40:u8glib_arm_v1.18.1\src/chessengine.c ****   Current Rule Limitation
  41:u8glib_arm_v1.18.1\src/chessengine.c ****     - no minor promotion, only "Queening" of the pawn
  42:u8glib_arm_v1.18.1\src/chessengine.c ****     - threefold repetition is not detected (same board situation appears three times)
  43:u8glib_arm_v1.18.1\src/chessengine.c **** 	Note: Could be implemented, but requires tracking of the complete game
  44:u8glib_arm_v1.18.1\src/chessengine.c ****     - Fifty-move rule is not checked (no pawn move, no capture within last 50 moves)
  45:u8glib_arm_v1.18.1\src/chessengine.c **** 	
  46:u8glib_arm_v1.18.1\src/chessengine.c ****   Words
  47:u8glib_arm_v1.18.1\src/chessengine.c ****     Ply		a half move
  48:u8glib_arm_v1.18.1\src/chessengine.c ****     
  49:u8glib_arm_v1.18.1\src/chessengine.c ****   General Links
  50:u8glib_arm_v1.18.1\src/chessengine.c ****     http://chessprogramming.wikispaces.com/
  51:u8glib_arm_v1.18.1\src/chessengine.c **** 
  52:u8glib_arm_v1.18.1\src/chessengine.c ****   Arduino specific
  53:u8glib_arm_v1.18.1\src/chessengine.c ****     http://www.arduino.cc/cgi-bin/yabb2/YaBB.pl?num=1260055596
  54:u8glib_arm_v1.18.1\src/chessengine.c ****     
  55:u8glib_arm_v1.18.1\src/chessengine.c ****   Prefixes  
  56:u8glib_arm_v1.18.1\src/chessengine.c ****     chess_		Generic Chess Application Interface
  57:u8glib_arm_v1.18.1\src/chessengine.c ****     ce_		Chess engine, used internally, these function should not be called directly
  58:u8glib_arm_v1.18.1\src/chessengine.c ****     cu_		Chess utility function
  59:u8glib_arm_v1.18.1\src/chessengine.c ****     stack_		Internal function for stack handling
  60:u8glib_arm_v1.18.1\src/chessengine.c **** 
  61:u8glib_arm_v1.18.1\src/chessengine.c ****   Issues
  62:u8glib_arm_v1.18.1\src/chessengine.c ****     10.01.2011
  63:u8glib_arm_v1.18.1\src/chessengine.c ****       - castling to the right does not move the rook
  64:u8glib_arm_v1.18.1\src/chessengine.c **** 	  --> done
  65:u8glib_arm_v1.18.1\src/chessengine.c ****       - castling to the left: King can only move two squares
  66:u8glib_arm_v1.18.1\src/chessengine.c **** 	  --> done
  67:u8glib_arm_v1.18.1\src/chessengine.c ****       
  68:u8glib_arm_v1.18.1\src/chessengine.c ****     11.01.2011	
  69:u8glib_arm_v1.18.1\src/chessengine.c ****       Next Steps:
  70:u8glib_arm_v1.18.1\src/chessengine.c **** 	- replace stack_NextCurrentPos with cu_NextPos, cleanup code according to the loop variable
  71:u8glib_arm_v1.18.1\src/chessengine.c **** 	    --> done
  72:u8glib_arm_v1.18.1\src/chessengine.c **** 	- Castling: Need to check for fields under attack
  73:u8glib_arm_v1.18.1\src/chessengine.c **** 	    --> done
  74:u8glib_arm_v1.18.1\src/chessengine.c **** 	
  75:u8glib_arm_v1.18.1\src/chessengine.c **** 	- Check for WIN / LOOSE situation, perhaps call ce_Eval() once on the top-level board setup
  76:u8glib_arm_v1.18.1\src/chessengine.c **** 	    just after the real move
  77:u8glib_arm_v1.18.1\src/chessengine.c **** 	- cleanup cu_Move
  78:u8glib_arm_v1.18.1\src/chessengine.c **** 	    --> almost done
  79:u8glib_arm_v1.18.1\src/chessengine.c **** 	- add some heuristics to the eval procedure
  80:u8glib_arm_v1.18.1\src/chessengine.c **** 	- add right side menu
  81:u8glib_arm_v1.18.1\src/chessengine.c **** 	  --> done
  82:u8glib_arm_v1.18.1\src/chessengine.c **** 	- clean up chess_ManualMove
  83:u8glib_arm_v1.18.1\src/chessengine.c **** 	  --> done
  84:u8glib_arm_v1.18.1\src/chessengine.c **** 	- finish menu (consider is_game_end, undo move)
  85:u8glib_arm_v1.18.1\src/chessengine.c ****         - end condition: if KING is under attack and if KING can not move to a field which is under
  86:u8glib_arm_v1.18.1\src/chessengine.c **** 	      then the game is lost. What will be returned by the Eval procedure? is it -INF?
ARM GAS  C:\Users\KJA\AppData\Local\Temp\ccNNA7zi.s 			page 3


  87:u8glib_arm_v1.18.1\src/chessengine.c **** 	    --> finished
  88:u8glib_arm_v1.18.1\src/chessengine.c **** 	    
  89:u8glib_arm_v1.18.1\src/chessengine.c **** 	- reduce the use of variable color, all should be reduced to board_orientation and ply&1
  90:u8glib_arm_v1.18.1\src/chessengine.c **** 	
  91:u8glib_arm_v1.18.1\src/chessengine.c **** 	- chess_GetNextMarked shoud make use of cu_NextPos
  92:u8glib_arm_v1.18.1\src/chessengine.c **** 	    --> done
  93:u8glib_arm_v1.18.1\src/chessengine.c **** 	- chess_ManualMove: again cleanup, solve draw issue (KING is not in check and no legal moves are a
  94:u8glib_arm_v1.18.1\src/chessengine.c **** 	    --> done
  95:u8glib_arm_v1.18.1\src/chessengine.c ****     22.01.2011
  96:u8glib_arm_v1.18.1\src/chessengine.c **** 	- simplify eval_t ce_Eval(void)
  97:u8glib_arm_v1.18.1\src/chessengine.c **** 	- position eval does not work, still moves side pawn :-(
  98:u8glib_arm_v1.18.1\src/chessengine.c **** 	      maybe because all pieces are considered
  99:u8glib_arm_v1.18.1\src/chessengine.c **** 	    --> done
 100:u8glib_arm_v1.18.1\src/chessengine.c **** 
 101:u8glib_arm_v1.18.1\src/chessengine.c **** */
 102:u8glib_arm_v1.18.1\src/chessengine.c **** 
 103:u8glib_arm_v1.18.1\src/chessengine.c **** #include "u8g.h"
 104:u8glib_arm_v1.18.1\src/chessengine.c **** 
 105:u8glib_arm_v1.18.1\src/chessengine.c **** //#ifndef __unix__
 106:u8glib_arm_v1.18.1\src/chessengine.c **** //#else
 107:u8glib_arm_v1.18.1\src/chessengine.c **** //#include <assert.h>
 108:u8glib_arm_v1.18.1\src/chessengine.c **** //#define U8G_NOINLINE
 109:u8glib_arm_v1.18.1\src/chessengine.c **** //#endif
 110:u8glib_arm_v1.18.1\src/chessengine.c **** 
 111:u8glib_arm_v1.18.1\src/chessengine.c **** /*
 112:u8glib_arm_v1.18.1\src/chessengine.c **** SAN identifies each piece by a single upper case letter.  The standard English
 113:u8glib_arm_v1.18.1\src/chessengine.c **** values: pawn = "P", knight = "N", bishop = "B", rook = "R", queen = "Q", and
 114:u8glib_arm_v1.18.1\src/chessengine.c **** king = "K".
 115:u8glib_arm_v1.18.1\src/chessengine.c **** */
 116:u8glib_arm_v1.18.1\src/chessengine.c **** 
 117:u8glib_arm_v1.18.1\src/chessengine.c **** /* numbers for the various pieces */
 118:u8glib_arm_v1.18.1\src/chessengine.c **** #define PIECE_NONE	0
 119:u8glib_arm_v1.18.1\src/chessengine.c **** #define PIECE_PAWN 	1
 120:u8glib_arm_v1.18.1\src/chessengine.c **** #define PIECE_KNIGHT  	2
 121:u8glib_arm_v1.18.1\src/chessengine.c **** #define PIECE_BISHOP 	3
 122:u8glib_arm_v1.18.1\src/chessengine.c **** #define PIECE_ROOK	4
 123:u8glib_arm_v1.18.1\src/chessengine.c **** #define PIECE_QUEEN 	5
 124:u8glib_arm_v1.18.1\src/chessengine.c **** #define PIECE_KING		6
 125:u8glib_arm_v1.18.1\src/chessengine.c **** 
 126:u8glib_arm_v1.18.1\src/chessengine.c **** /* color definitions */
 127:u8glib_arm_v1.18.1\src/chessengine.c **** #define COLOR_WHITE	0
 128:u8glib_arm_v1.18.1\src/chessengine.c **** #define COLOR_BLACK	1
 129:u8glib_arm_v1.18.1\src/chessengine.c **** 
 130:u8glib_arm_v1.18.1\src/chessengine.c **** /* a mask, which includes COLOR and PIECE number */
 131:u8glib_arm_v1.18.1\src/chessengine.c **** #define COLOR_PIECE_MASK 0x01f
 132:u8glib_arm_v1.18.1\src/chessengine.c **** 
 133:u8glib_arm_v1.18.1\src/chessengine.c **** #define CP_MARK_MASK 0x20
 134:u8glib_arm_v1.18.1\src/chessengine.c **** 
 135:u8glib_arm_v1.18.1\src/chessengine.c **** #define ILLEGAL_POSITION 255
 136:u8glib_arm_v1.18.1\src/chessengine.c **** 
 137:u8glib_arm_v1.18.1\src/chessengine.c **** /* This is the build in upper limit of the search stack */
 138:u8glib_arm_v1.18.1\src/chessengine.c **** /* This value defines the amount of memory allocated for the search stack */
 139:u8glib_arm_v1.18.1\src/chessengine.c **** /* The search depth of this chess engine can never exceed this value */
 140:u8glib_arm_v1.18.1\src/chessengine.c **** #define STACK_MAX_SIZE 5
 141:u8glib_arm_v1.18.1\src/chessengine.c **** 
 142:u8glib_arm_v1.18.1\src/chessengine.c **** /* chess half move stack: twice the number of undo's, a user can do */ 
 143:u8glib_arm_v1.18.1\src/chessengine.c **** #define CHM_USER_SIZE 6
ARM GAS  C:\Users\KJA\AppData\Local\Temp\ccNNA7zi.s 			page 4


 144:u8glib_arm_v1.18.1\src/chessengine.c **** 
 145:u8glib_arm_v1.18.1\src/chessengine.c **** /* the CHM_LIST_SIZE must be larger than the maximum search depth */
 146:u8glib_arm_v1.18.1\src/chessengine.c **** /* the overall size of ste half move stack */
 147:u8glib_arm_v1.18.1\src/chessengine.c **** #define CHM_LIST_SIZE (STACK_MAX_SIZE+CHM_USER_SIZE+2)
 148:u8glib_arm_v1.18.1\src/chessengine.c **** 
 149:u8glib_arm_v1.18.1\src/chessengine.c **** typedef int16_t eval_t;	/* a variable type to store results from the evaluation */ 
 150:u8glib_arm_v1.18.1\src/chessengine.c **** //#define EVAL_T_LOST -32768
 151:u8glib_arm_v1.18.1\src/chessengine.c **** #define EVAL_T_MIN -32767
 152:u8glib_arm_v1.18.1\src/chessengine.c **** #define EVAL_T_MAX 32767
 153:u8glib_arm_v1.18.1\src/chessengine.c **** //#define EVAL_T_WIN 32767
 154:u8glib_arm_v1.18.1\src/chessengine.c **** 
 155:u8glib_arm_v1.18.1\src/chessengine.c **** /* for maintainance of our own stack: this is the definition of one element on the stack */
 156:u8glib_arm_v1.18.1\src/chessengine.c **** struct _stack_element_struct
 157:u8glib_arm_v1.18.1\src/chessengine.c **** {
 158:u8glib_arm_v1.18.1\src/chessengine.c ****   /* the current source position which is investigated */
 159:u8glib_arm_v1.18.1\src/chessengine.c ****   uint8_t current_pos;
 160:u8glib_arm_v1.18.1\src/chessengine.c ****   uint8_t current_cp;
 161:u8glib_arm_v1.18.1\src/chessengine.c ****   uint8_t current_color;	/* COLOR_WHITE or COLOR_BLACK: must be predefines */
 162:u8glib_arm_v1.18.1\src/chessengine.c ****   
 163:u8glib_arm_v1.18.1\src/chessengine.c ****   /* the move which belongs to that value, both values are game positions */
 164:u8glib_arm_v1.18.1\src/chessengine.c ****   uint8_t best_from_pos;
 165:u8glib_arm_v1.18.1\src/chessengine.c ****   uint8_t best_to_pos;
 166:u8glib_arm_v1.18.1\src/chessengine.c ****   /* the best value, which has been dicovered so far */
 167:u8glib_arm_v1.18.1\src/chessengine.c ****   eval_t best_eval;
 168:u8glib_arm_v1.18.1\src/chessengine.c **** };
 169:u8glib_arm_v1.18.1\src/chessengine.c **** typedef struct _stack_element_struct stack_element_t;
 170:u8glib_arm_v1.18.1\src/chessengine.c **** typedef struct _stack_element_struct *stack_element_p;
 171:u8glib_arm_v1.18.1\src/chessengine.c **** 
 172:u8glib_arm_v1.18.1\src/chessengine.c **** /* chess half move history */
 173:u8glib_arm_v1.18.1\src/chessengine.c **** struct _chm_struct
 174:u8glib_arm_v1.18.1\src/chessengine.c **** {
 175:u8glib_arm_v1.18.1\src/chessengine.c ****   uint8_t main_cp;		/* the main piece, which is moved */
 176:u8glib_arm_v1.18.1\src/chessengine.c ****   uint8_t main_src;		/* the source position of the main piece */
 177:u8glib_arm_v1.18.1\src/chessengine.c ****   uint8_t main_dest; 	/* the destination of the main piece */
 178:u8glib_arm_v1.18.1\src/chessengine.c ****   
 179:u8glib_arm_v1.18.1\src/chessengine.c ****   uint8_t other_cp;		/* another piece: the captured one, the ROOK in case of castling or PIECE_NONE
 180:u8glib_arm_v1.18.1\src/chessengine.c ****   uint8_t other_src;		/* the delete position of other_cp. Often identical to main_dest except for e
 181:u8glib_arm_v1.18.1\src/chessengine.c ****   uint8_t other_dest;		/* only used for castling: ROOK destination pos */
 182:u8glib_arm_v1.18.1\src/chessengine.c ****   
 183:u8glib_arm_v1.18.1\src/chessengine.c ****   /* the position of the last pawn, which did a double move forward */
 184:u8glib_arm_v1.18.1\src/chessengine.c ****   /* this is required to check en passant conditions */
 185:u8glib_arm_v1.18.1\src/chessengine.c ****   /* this array can be indexed by the color of the current player */
 186:u8glib_arm_v1.18.1\src/chessengine.c ****   /* this is the condition BEFORE the move was done */
 187:u8glib_arm_v1.18.1\src/chessengine.c ****   uint8_t pawn_dbl_move[2];
 188:u8glib_arm_v1.18.1\src/chessengine.c ****   
 189:u8glib_arm_v1.18.1\src/chessengine.c ****   /* flags for the movement of rook and king; required for castling */
 190:u8glib_arm_v1.18.1\src/chessengine.c ****   /* a 1 means: castling is (still) possible */
 191:u8glib_arm_v1.18.1\src/chessengine.c ****   /* a 0 means: castling not possible */
 192:u8glib_arm_v1.18.1\src/chessengine.c ****   /*  bit 0 left side white */
 193:u8glib_arm_v1.18.1\src/chessengine.c ****   /*  bit 1 right side white */
 194:u8glib_arm_v1.18.1\src/chessengine.c ****   /*  bit 2 left side black */
 195:u8glib_arm_v1.18.1\src/chessengine.c ****   /*  bit 3 right side black */
 196:u8glib_arm_v1.18.1\src/chessengine.c ****   /* this is the condition BEFORE the move was done */
 197:u8glib_arm_v1.18.1\src/chessengine.c ****   uint8_t castling_possible;   
 198:u8glib_arm_v1.18.1\src/chessengine.c **** };
 199:u8glib_arm_v1.18.1\src/chessengine.c **** 
 200:u8glib_arm_v1.18.1\src/chessengine.c **** typedef struct _chm_struct chm_t;
ARM GAS  C:\Users\KJA\AppData\Local\Temp\ccNNA7zi.s 			page 5


 201:u8glib_arm_v1.18.1\src/chessengine.c **** typedef struct _chm_struct *chm_p;
 202:u8glib_arm_v1.18.1\src/chessengine.c **** 
 203:u8glib_arm_v1.18.1\src/chessengine.c **** /* little rook chess, main structure */
 204:u8glib_arm_v1.18.1\src/chessengine.c **** struct _lrc_struct
 205:u8glib_arm_v1.18.1\src/chessengine.c **** {  
 206:u8glib_arm_v1.18.1\src/chessengine.c ****   /* half-move (ply) counter: Counts the number of half-moves so far. Starts with 0 */
 207:u8glib_arm_v1.18.1\src/chessengine.c ****   /* the lowest bit is used to derive the color of the current player */
 208:u8glib_arm_v1.18.1\src/chessengine.c ****   /* will be set to zero in chess_SetupBoard() */
 209:u8glib_arm_v1.18.1\src/chessengine.c ****   uint8_t ply_count;
 210:u8glib_arm_v1.18.1\src/chessengine.c ****   
 211:u8glib_arm_v1.18.1\src/chessengine.c ****   /* the half move stack position counter, counts the number of elements in chm_list */
 212:u8glib_arm_v1.18.1\src/chessengine.c ****   uint8_t chm_pos;
 213:u8glib_arm_v1.18.1\src/chessengine.c ****   
 214:u8glib_arm_v1.18.1\src/chessengine.c ****   /* each element contains a colored piece, empty fields have value 0 */
 215:u8glib_arm_v1.18.1\src/chessengine.c ****   /* the field with index 0 is black (lower left) */
 216:u8glib_arm_v1.18.1\src/chessengine.c ****   uint8_t board[64];	
 217:u8glib_arm_v1.18.1\src/chessengine.c ****   /* the position of the last pawn, which did a double move forward */
 218:u8glib_arm_v1.18.1\src/chessengine.c ****   /* this is required to check en passant conditions */
 219:u8glib_arm_v1.18.1\src/chessengine.c ****   /* this array can be indexed by the color of the current player */
 220:u8glib_arm_v1.18.1\src/chessengine.c ****   uint8_t pawn_dbl_move[2]; 
 221:u8glib_arm_v1.18.1\src/chessengine.c ****   
 222:u8glib_arm_v1.18.1\src/chessengine.c ****   /* flags for the movement of rook and king; required for castling */
 223:u8glib_arm_v1.18.1\src/chessengine.c ****   /* a 1 means: castling is (still) possible */
 224:u8glib_arm_v1.18.1\src/chessengine.c ****   /* a 0 means: castling not possible */
 225:u8glib_arm_v1.18.1\src/chessengine.c ****   /*  bit 0 left side white */
 226:u8glib_arm_v1.18.1\src/chessengine.c ****   /*  bit 1 right side white */
 227:u8glib_arm_v1.18.1\src/chessengine.c ****   /*  bit 2 left side black */
 228:u8glib_arm_v1.18.1\src/chessengine.c ****   /*  bit 3 right side black */
 229:u8glib_arm_v1.18.1\src/chessengine.c ****   uint8_t castling_possible; 
 230:u8glib_arm_v1.18.1\src/chessengine.c ****   
 231:u8glib_arm_v1.18.1\src/chessengine.c ****   /* board orientation */
 232:u8glib_arm_v1.18.1\src/chessengine.c ****   /* 0: white is below COLOR_WHITE */
 233:u8glib_arm_v1.18.1\src/chessengine.c ****   /* 1: black is below COLOR_BLACK */
 234:u8glib_arm_v1.18.1\src/chessengine.c ****   /* bascially, this can be used as a color */
 235:u8glib_arm_v1.18.1\src/chessengine.c ****   uint8_t orientation;
 236:u8glib_arm_v1.18.1\src/chessengine.c ****   
 237:u8glib_arm_v1.18.1\src/chessengine.c ****   /* exchange colors of the pieces */
 238:u8glib_arm_v1.18.1\src/chessengine.c ****   /* 0: white has an empty body, use this for bright background color */
 239:u8glib_arm_v1.18.1\src/chessengine.c ****   /* 1: black has an empty body, use this for dark backround color */
 240:u8glib_arm_v1.18.1\src/chessengine.c ****   uint8_t strike_out_color;
 241:u8glib_arm_v1.18.1\src/chessengine.c ****   
 242:u8glib_arm_v1.18.1\src/chessengine.c ****   /* 0, when the game is ongoing */
 243:u8glib_arm_v1.18.1\src/chessengine.c ****   /* 1, when the game is stopped (lost or draw) */
 244:u8glib_arm_v1.18.1\src/chessengine.c ****   uint8_t is_game_end;
 245:u8glib_arm_v1.18.1\src/chessengine.c ****   /* the color of the side which lost the game */
 246:u8glib_arm_v1.18.1\src/chessengine.c ****   /* this value is only valid, when is_game_end is not 0 */
 247:u8glib_arm_v1.18.1\src/chessengine.c ****   /* values 0 and 1 represent WHITE and BLACK, 2 means a draw */
 248:u8glib_arm_v1.18.1\src/chessengine.c ****   uint8_t lost_side_color;
 249:u8glib_arm_v1.18.1\src/chessengine.c ****   
 250:u8glib_arm_v1.18.1\src/chessengine.c ****   
 251:u8glib_arm_v1.18.1\src/chessengine.c ****   
 252:u8glib_arm_v1.18.1\src/chessengine.c ****   /* checks are executed in ce_LoopRecur */
 253:u8glib_arm_v1.18.1\src/chessengine.c ****   /* these checks will put some marks on the board */
 254:u8glib_arm_v1.18.1\src/chessengine.c ****   /* this will be used by the interface to find out */
 255:u8glib_arm_v1.18.1\src/chessengine.c ****   /* legal moves */
 256:u8glib_arm_v1.18.1\src/chessengine.c ****   uint8_t check_src_pos;
 257:u8glib_arm_v1.18.1\src/chessengine.c ****   uint8_t check_mode;		/* CHECK_MODE_NONE, CHECK_MODE_MOVEABLE, CHECK_MODE_TARGET_MOVE */
ARM GAS  C:\Users\KJA\AppData\Local\Temp\ccNNA7zi.s 			page 6


 258:u8glib_arm_v1.18.1\src/chessengine.c ****   
 259:u8glib_arm_v1.18.1\src/chessengine.c ****   
 260:u8glib_arm_v1.18.1\src/chessengine.c ****   /* count of the attacking pieces, indexed by color */
 261:u8glib_arm_v1.18.1\src/chessengine.c ****   uint8_t find_piece_cnt[2];
 262:u8glib_arm_v1.18.1\src/chessengine.c **** 
 263:u8glib_arm_v1.18.1\src/chessengine.c ****   /* sum of the attacking pieces, indexed by color */
 264:u8glib_arm_v1.18.1\src/chessengine.c ****   uint8_t find_piece_weight[2];
 265:u8glib_arm_v1.18.1\src/chessengine.c **** 
 266:u8glib_arm_v1.18.1\src/chessengine.c ****   /* points to the current element of the search stack */
 267:u8glib_arm_v1.18.1\src/chessengine.c ****   /* this stack is NEVER empty. The value 0 points to the first element of the stack */
 268:u8glib_arm_v1.18.1\src/chessengine.c ****   /* actually "curr_depth" represent half-moves (plies) */
 269:u8glib_arm_v1.18.1\src/chessengine.c ****   uint8_t curr_depth;
 270:u8glib_arm_v1.18.1\src/chessengine.c ****   uint8_t max_depth;
 271:u8glib_arm_v1.18.1\src/chessengine.c ****   stack_element_p curr_element;
 272:u8glib_arm_v1.18.1\src/chessengine.c ****   
 273:u8glib_arm_v1.18.1\src/chessengine.c ****   /* allocated memory for the search stack */
 274:u8glib_arm_v1.18.1\src/chessengine.c ****   stack_element_t stack_memory[STACK_MAX_SIZE];
 275:u8glib_arm_v1.18.1\src/chessengine.c **** 
 276:u8glib_arm_v1.18.1\src/chessengine.c ****   /* the half move stack, used for move undo and depth search, size is stored in chm_pos */
 277:u8glib_arm_v1.18.1\src/chessengine.c ****   chm_t chm_list[CHM_LIST_SIZE];
 278:u8glib_arm_v1.18.1\src/chessengine.c **** };
 279:u8glib_arm_v1.18.1\src/chessengine.c **** typedef struct _lrc_struct lrc_t;
 280:u8glib_arm_v1.18.1\src/chessengine.c **** 
 281:u8glib_arm_v1.18.1\src/chessengine.c **** #define CHECK_MODE_NONE 0
 282:u8glib_arm_v1.18.1\src/chessengine.c **** #define CHECK_MODE_MOVEABLE 1
 283:u8glib_arm_v1.18.1\src/chessengine.c **** #define CHECK_MODE_TARGET_MOVE 2
 284:u8glib_arm_v1.18.1\src/chessengine.c **** 
 285:u8glib_arm_v1.18.1\src/chessengine.c **** 
 286:u8glib_arm_v1.18.1\src/chessengine.c **** 
 287:u8glib_arm_v1.18.1\src/chessengine.c **** /*==============================================================*/
 288:u8glib_arm_v1.18.1\src/chessengine.c **** /* global variables */
 289:u8glib_arm_v1.18.1\src/chessengine.c **** /*==============================================================*/
 290:u8glib_arm_v1.18.1\src/chessengine.c **** 
 291:u8glib_arm_v1.18.1\src/chessengine.c **** u8g_t *lrc_u8g;
 292:u8glib_arm_v1.18.1\src/chessengine.c **** 
 293:u8glib_arm_v1.18.1\src/chessengine.c **** lrc_t lrc_obj;
 294:u8glib_arm_v1.18.1\src/chessengine.c **** 
 295:u8glib_arm_v1.18.1\src/chessengine.c **** 
 296:u8glib_arm_v1.18.1\src/chessengine.c **** /*==============================================================*/
 297:u8glib_arm_v1.18.1\src/chessengine.c **** /* forward declarations */
 298:u8glib_arm_v1.18.1\src/chessengine.c **** /*==============================================================*/
 299:u8glib_arm_v1.18.1\src/chessengine.c **** 
 300:u8glib_arm_v1.18.1\src/chessengine.c **** /* 
 301:u8glib_arm_v1.18.1\src/chessengine.c ****   apply no inline to some of the functions:
 302:u8glib_arm_v1.18.1\src/chessengine.c ****   avr-gcc very often inlines functions, however not inline saves a lot of program memory!
 303:u8glib_arm_v1.18.1\src/chessengine.c ****   On the other hand there are some really short procedures which should be inlined (like cp_GetColo
 304:u8glib_arm_v1.18.1\src/chessengine.c ****   These procedures are marked static to prevent the generation of the expanded procedure, which
 305:u8glib_arm_v1.18.1\src/chessengine.c ****   also saves space.
 306:u8glib_arm_v1.18.1\src/chessengine.c **** */
 307:u8glib_arm_v1.18.1\src/chessengine.c **** 
 308:u8glib_arm_v1.18.1\src/chessengine.c **** uint8_t stack_Push(uint8_t color) U8G_NOINLINE;
 309:u8glib_arm_v1.18.1\src/chessengine.c **** void stack_Pop(void) U8G_NOINLINE;
 310:u8glib_arm_v1.18.1\src/chessengine.c **** void stack_InitCurrElement(void) U8G_NOINLINE;
 311:u8glib_arm_v1.18.1\src/chessengine.c **** void stack_Init(uint8_t max) U8G_NOINLINE;
 312:u8glib_arm_v1.18.1\src/chessengine.c **** void stack_SetMove(eval_t val, uint8_t to_pos) U8G_NOINLINE;
 313:u8glib_arm_v1.18.1\src/chessengine.c **** uint8_t cu_NextPos(uint8_t pos) U8G_NOINLINE;
 314:u8glib_arm_v1.18.1\src/chessengine.c **** static uint8_t cu_gpos2bpos(uint8_t gpos);
ARM GAS  C:\Users\KJA\AppData\Local\Temp\ccNNA7zi.s 			page 7


 315:u8glib_arm_v1.18.1\src/chessengine.c **** static uint8_t cp_Construct(uint8_t color, uint8_t piece);
 316:u8glib_arm_v1.18.1\src/chessengine.c **** static uint8_t cp_GetPiece(uint8_t cp);
 317:u8glib_arm_v1.18.1\src/chessengine.c **** static uint8_t cp_GetColor(uint8_t cp);
 318:u8glib_arm_v1.18.1\src/chessengine.c **** uint8_t cp_GetFromBoard(uint8_t pos) U8G_NOINLINE;
 319:u8glib_arm_v1.18.1\src/chessengine.c **** void cp_SetOnBoard(uint8_t pos, uint8_t cp) U8G_NOINLINE;
 320:u8glib_arm_v1.18.1\src/chessengine.c **** 
 321:u8glib_arm_v1.18.1\src/chessengine.c **** void cu_ClearBoard(void) U8G_NOINLINE;
 322:u8glib_arm_v1.18.1\src/chessengine.c **** void chess_SetupBoard(void) U8G_NOINLINE;
 323:u8glib_arm_v1.18.1\src/chessengine.c **** eval_t ce_Eval(void);
 324:u8glib_arm_v1.18.1\src/chessengine.c **** 
 325:u8glib_arm_v1.18.1\src/chessengine.c **** void cu_ClearMoveHistory(void) U8G_NOINLINE;
 326:u8glib_arm_v1.18.1\src/chessengine.c **** void cu_ReduceHistoryByFullMove(void) U8G_NOINLINE;
 327:u8glib_arm_v1.18.1\src/chessengine.c **** void cu_UndoHalfMove(void) U8G_NOINLINE;
 328:u8glib_arm_v1.18.1\src/chessengine.c **** chm_p cu_PushHalfMove(void) U8G_NOINLINE;
 329:u8glib_arm_v1.18.1\src/chessengine.c **** 
 330:u8glib_arm_v1.18.1\src/chessengine.c **** 
 331:u8glib_arm_v1.18.1\src/chessengine.c **** void ce_CalculatePositionWeight(uint8_t pos);
 332:u8glib_arm_v1.18.1\src/chessengine.c **** uint8_t ce_GetPositionAttackWeight(uint8_t pos, uint8_t color);
 333:u8glib_arm_v1.18.1\src/chessengine.c **** 
 334:u8glib_arm_v1.18.1\src/chessengine.c **** void chess_Thinking(void);
 335:u8glib_arm_v1.18.1\src/chessengine.c **** void ce_LoopPieces(void);
 336:u8glib_arm_v1.18.1\src/chessengine.c **** 
 337:u8glib_arm_v1.18.1\src/chessengine.c **** 
 338:u8glib_arm_v1.18.1\src/chessengine.c **** /*==============================================================*/
 339:u8glib_arm_v1.18.1\src/chessengine.c **** /* search stack */
 340:u8glib_arm_v1.18.1\src/chessengine.c **** /*==============================================================*/
 341:u8glib_arm_v1.18.1\src/chessengine.c **** 
 342:u8glib_arm_v1.18.1\src/chessengine.c **** /* get current element from stack */
 343:u8glib_arm_v1.18.1\src/chessengine.c **** stack_element_p stack_GetCurrElement(void)
 344:u8glib_arm_v1.18.1\src/chessengine.c **** {
  29              		.loc 1 344 0
  30              		.cfi_startproc
  31              		@ args = 0, pretend = 0, frame = 0
  32              		@ frame_needed = 1, uses_anonymous_args = 0
  33              		@ link register save eliminated.
  34 0000 80B4     		push	{r7}
  35              		.cfi_def_cfa_offset 4
  36              		.cfi_offset 7, -4
  37 0002 00AF     		add	r7, sp, #0
  38              		.cfi_def_cfa_register 7
 345:u8glib_arm_v1.18.1\src/chessengine.c ****   return lrc_obj.curr_element;
  39              		.loc 1 345 0
  40 0004 034B     		ldr	r3, .L3
  41 0006 5B6D     		ldr	r3, [r3, #84]
 346:u8glib_arm_v1.18.1\src/chessengine.c **** }
  42              		.loc 1 346 0
  43 0008 1846     		mov	r0, r3
  44 000a BD46     		mov	sp, r7
  45              		.cfi_def_cfa_register 13
  46              		@ sp needed
  47 000c 5DF8047B 		ldr	r7, [sp], #4
  48              		.cfi_restore 7
  49              		.cfi_def_cfa_offset 0
  50 0010 7047     		bx	lr
  51              	.L4:
  52 0012 00BF     		.align	2
  53              	.L3:
ARM GAS  C:\Users\KJA\AppData\Local\Temp\ccNNA7zi.s 			page 8


  54 0014 00000000 		.word	lrc_obj
  55              		.cfi_endproc
  56              	.LFE0:
  57              		.size	stack_GetCurrElement, .-stack_GetCurrElement
  58              		.section	.text.stack_Push,"ax",%progbits
  59              		.align	2
  60              		.global	stack_Push
  61              		.thumb
  62              		.thumb_func
  63              		.type	stack_Push, %function
  64              	stack_Push:
  65              	.LFB1:
 347:u8glib_arm_v1.18.1\src/chessengine.c **** 
 348:u8glib_arm_v1.18.1\src/chessengine.c **** uint8_t stack_Push(uint8_t color)
 349:u8glib_arm_v1.18.1\src/chessengine.c **** {
  66              		.loc 1 349 0
  67              		.cfi_startproc
  68              		@ args = 0, pretend = 0, frame = 8
  69              		@ frame_needed = 1, uses_anonymous_args = 0
  70 0000 80B5     		push	{r7, lr}
  71              		.cfi_def_cfa_offset 8
  72              		.cfi_offset 7, -8
  73              		.cfi_offset 14, -4
  74 0002 82B0     		sub	sp, sp, #8
  75              		.cfi_def_cfa_offset 16
  76 0004 00AF     		add	r7, sp, #0
  77              		.cfi_def_cfa_register 7
  78 0006 0346     		mov	r3, r0
  79 0008 FB71     		strb	r3, [r7, #7]
 350:u8glib_arm_v1.18.1\src/chessengine.c ****   if ( lrc_obj.curr_depth == lrc_obj.max_depth )
  80              		.loc 1 350 0
  81 000a 144B     		ldr	r3, .L8
  82 000c 93F84F20 		ldrb	r2, [r3, #79]	@ zero_extendqisi2
  83 0010 124B     		ldr	r3, .L8
  84 0012 93F85030 		ldrb	r3, [r3, #80]	@ zero_extendqisi2
  85 0016 9A42     		cmp	r2, r3
  86 0018 01D1     		bne	.L6
 351:u8glib_arm_v1.18.1\src/chessengine.c ****     return 0;
  87              		.loc 1 351 0
  88 001a 0023     		movs	r3, #0
  89 001c 1AE0     		b	.L7
  90              	.L6:
 352:u8glib_arm_v1.18.1\src/chessengine.c ****   lrc_obj.curr_depth++;
  91              		.loc 1 352 0
  92 001e 0F4B     		ldr	r3, .L8
  93 0020 93F84F30 		ldrb	r3, [r3, #79]	@ zero_extendqisi2
  94 0024 0133     		adds	r3, r3, #1
  95 0026 DAB2     		uxtb	r2, r3
  96 0028 0C4B     		ldr	r3, .L8
  97 002a 83F84F20 		strb	r2, [r3, #79]
 353:u8glib_arm_v1.18.1\src/chessengine.c ****   lrc_obj.curr_element = lrc_obj.stack_memory+lrc_obj.curr_depth;
  98              		.loc 1 353 0
  99 002e 0B4B     		ldr	r3, .L8
 100 0030 93F84F30 		ldrb	r3, [r3, #79]	@ zero_extendqisi2
 101 0034 0B33     		adds	r3, r3, #11
 102 0036 DB00     		lsls	r3, r3, #3
 103 0038 084A     		ldr	r2, .L8
ARM GAS  C:\Users\KJA\AppData\Local\Temp\ccNNA7zi.s 			page 9


 104 003a 1344     		add	r3, r3, r2
 105 003c 074A     		ldr	r2, .L8
 106 003e 5365     		str	r3, [r2, #84]
 354:u8glib_arm_v1.18.1\src/chessengine.c ****   
 355:u8glib_arm_v1.18.1\src/chessengine.c ****   /* change view for the evaluation */
 356:u8glib_arm_v1.18.1\src/chessengine.c ****   color ^= 1;
 107              		.loc 1 356 0
 108 0040 FB79     		ldrb	r3, [r7, #7]
 109 0042 83F00103 		eor	r3, r3, #1
 110 0046 FB71     		strb	r3, [r7, #7]
 357:u8glib_arm_v1.18.1\src/chessengine.c ****   stack_GetCurrElement()->current_color = color;
 111              		.loc 1 357 0
 112 0048 FFF7FEFF 		bl	stack_GetCurrElement
 113 004c 0246     		mov	r2, r0
 114 004e FB79     		ldrb	r3, [r7, #7]
 115 0050 9370     		strb	r3, [r2, #2]
 358:u8glib_arm_v1.18.1\src/chessengine.c **** 
 359:u8glib_arm_v1.18.1\src/chessengine.c ****   return 1;
 116              		.loc 1 359 0
 117 0052 0123     		movs	r3, #1
 118              	.L7:
 360:u8glib_arm_v1.18.1\src/chessengine.c **** }
 119              		.loc 1 360 0
 120 0054 1846     		mov	r0, r3
 121 0056 0837     		adds	r7, r7, #8
 122              		.cfi_def_cfa_offset 8
 123 0058 BD46     		mov	sp, r7
 124              		.cfi_def_cfa_register 13
 125              		@ sp needed
 126 005a 80BD     		pop	{r7, pc}
 127              	.L9:
 128              		.align	2
 129              	.L8:
 130 005c 00000000 		.word	lrc_obj
 131              		.cfi_endproc
 132              	.LFE1:
 133              		.size	stack_Push, .-stack_Push
 134              		.section	.text.stack_Pop,"ax",%progbits
 135              		.align	2
 136              		.global	stack_Pop
 137              		.thumb
 138              		.thumb_func
 139              		.type	stack_Pop, %function
 140              	stack_Pop:
 141              	.LFB2:
 361:u8glib_arm_v1.18.1\src/chessengine.c **** 
 362:u8glib_arm_v1.18.1\src/chessengine.c **** void stack_Pop(void)
 363:u8glib_arm_v1.18.1\src/chessengine.c **** {
 142              		.loc 1 363 0
 143              		.cfi_startproc
 144              		@ args = 0, pretend = 0, frame = 0
 145              		@ frame_needed = 1, uses_anonymous_args = 0
 146              		@ link register save eliminated.
 147 0000 80B4     		push	{r7}
 148              		.cfi_def_cfa_offset 4
 149              		.cfi_offset 7, -4
 150 0002 00AF     		add	r7, sp, #0
ARM GAS  C:\Users\KJA\AppData\Local\Temp\ccNNA7zi.s 			page 10


 151              		.cfi_def_cfa_register 7
 364:u8glib_arm_v1.18.1\src/chessengine.c ****   lrc_obj.curr_depth--;
 152              		.loc 1 364 0
 153 0004 0A4B     		ldr	r3, .L11
 154 0006 93F84F30 		ldrb	r3, [r3, #79]	@ zero_extendqisi2
 155 000a 013B     		subs	r3, r3, #1
 156 000c DAB2     		uxtb	r2, r3
 157 000e 084B     		ldr	r3, .L11
 158 0010 83F84F20 		strb	r2, [r3, #79]
 365:u8glib_arm_v1.18.1\src/chessengine.c ****   lrc_obj.curr_element = lrc_obj.stack_memory+lrc_obj.curr_depth;
 159              		.loc 1 365 0
 160 0014 064B     		ldr	r3, .L11
 161 0016 93F84F30 		ldrb	r3, [r3, #79]	@ zero_extendqisi2
 162 001a 0B33     		adds	r3, r3, #11
 163 001c DB00     		lsls	r3, r3, #3
 164 001e 044A     		ldr	r2, .L11
 165 0020 1344     		add	r3, r3, r2
 166 0022 034A     		ldr	r2, .L11
 167 0024 5365     		str	r3, [r2, #84]
 366:u8glib_arm_v1.18.1\src/chessengine.c **** }
 168              		.loc 1 366 0
 169 0026 BD46     		mov	sp, r7
 170              		.cfi_def_cfa_register 13
 171              		@ sp needed
 172 0028 5DF8047B 		ldr	r7, [sp], #4
 173              		.cfi_restore 7
 174              		.cfi_def_cfa_offset 0
 175 002c 7047     		bx	lr
 176              	.L12:
 177 002e 00BF     		.align	2
 178              	.L11:
 179 0030 00000000 		.word	lrc_obj
 180              		.cfi_endproc
 181              	.LFE2:
 182              		.size	stack_Pop, .-stack_Pop
 183              		.section	.text.stack_InitCurrElement,"ax",%progbits
 184              		.align	2
 185              		.global	stack_InitCurrElement
 186              		.thumb
 187              		.thumb_func
 188              		.type	stack_InitCurrElement, %function
 189              	stack_InitCurrElement:
 190              	.LFB3:
 367:u8glib_arm_v1.18.1\src/chessengine.c **** 
 368:u8glib_arm_v1.18.1\src/chessengine.c **** /* reset the current element on the stack */
 369:u8glib_arm_v1.18.1\src/chessengine.c **** void stack_InitCurrElement(void)
 370:u8glib_arm_v1.18.1\src/chessengine.c **** {
 191              		.loc 1 370 0
 192              		.cfi_startproc
 193              		@ args = 0, pretend = 0, frame = 8
 194              		@ frame_needed = 1, uses_anonymous_args = 0
 195 0000 80B5     		push	{r7, lr}
 196              		.cfi_def_cfa_offset 8
 197              		.cfi_offset 7, -8
 198              		.cfi_offset 14, -4
 199 0002 82B0     		sub	sp, sp, #8
 200              		.cfi_def_cfa_offset 16
ARM GAS  C:\Users\KJA\AppData\Local\Temp\ccNNA7zi.s 			page 11


 201 0004 00AF     		add	r7, sp, #0
 202              		.cfi_def_cfa_register 7
 371:u8glib_arm_v1.18.1\src/chessengine.c ****   stack_element_p e = stack_GetCurrElement();
 203              		.loc 1 371 0
 204 0006 FFF7FEFF 		bl	stack_GetCurrElement
 205 000a 7860     		str	r0, [r7, #4]
 372:u8glib_arm_v1.18.1\src/chessengine.c ****   e->best_eval = EVAL_T_MIN;
 206              		.loc 1 372 0
 207 000c 7B68     		ldr	r3, [r7, #4]
 208 000e 48F20102 		movw	r2, #32769
 209 0012 DA80     		strh	r2, [r3, #6]	@ movhi
 373:u8glib_arm_v1.18.1\src/chessengine.c ****   e->best_from_pos = ILLEGAL_POSITION;
 210              		.loc 1 373 0
 211 0014 7B68     		ldr	r3, [r7, #4]
 212 0016 FF22     		movs	r2, #255
 213 0018 DA70     		strb	r2, [r3, #3]
 374:u8glib_arm_v1.18.1\src/chessengine.c ****   e->best_to_pos = ILLEGAL_POSITION;
 214              		.loc 1 374 0
 215 001a 7B68     		ldr	r3, [r7, #4]
 216 001c FF22     		movs	r2, #255
 217 001e 1A71     		strb	r2, [r3, #4]
 375:u8glib_arm_v1.18.1\src/chessengine.c **** }
 218              		.loc 1 375 0
 219 0020 0837     		adds	r7, r7, #8
 220              		.cfi_def_cfa_offset 8
 221 0022 BD46     		mov	sp, r7
 222              		.cfi_def_cfa_register 13
 223              		@ sp needed
 224 0024 80BD     		pop	{r7, pc}
 225              		.cfi_endproc
 226              	.LFE3:
 227              		.size	stack_InitCurrElement, .-stack_InitCurrElement
 228 0026 00BF     		.section	.text.stack_Init,"ax",%progbits
 229              		.align	2
 230              		.global	stack_Init
 231              		.thumb
 232              		.thumb_func
 233              		.type	stack_Init, %function
 234              	stack_Init:
 235              	.LFB4:
 376:u8glib_arm_v1.18.1\src/chessengine.c **** 
 377:u8glib_arm_v1.18.1\src/chessengine.c **** /* resets the search stack (and the check mode) */
 378:u8glib_arm_v1.18.1\src/chessengine.c **** void stack_Init(uint8_t max)
 379:u8glib_arm_v1.18.1\src/chessengine.c **** {
 236              		.loc 1 379 0
 237              		.cfi_startproc
 238              		@ args = 0, pretend = 0, frame = 8
 239              		@ frame_needed = 1, uses_anonymous_args = 0
 240 0000 80B5     		push	{r7, lr}
 241              		.cfi_def_cfa_offset 8
 242              		.cfi_offset 7, -8
 243              		.cfi_offset 14, -4
 244 0002 82B0     		sub	sp, sp, #8
 245              		.cfi_def_cfa_offset 16
 246 0004 00AF     		add	r7, sp, #0
 247              		.cfi_def_cfa_register 7
 248 0006 0346     		mov	r3, r0
ARM GAS  C:\Users\KJA\AppData\Local\Temp\ccNNA7zi.s 			page 12


 249 0008 FB71     		strb	r3, [r7, #7]
 380:u8glib_arm_v1.18.1\src/chessengine.c ****   lrc_obj.curr_depth = 0;
 250              		.loc 1 380 0
 251 000a 114B     		ldr	r3, .L15
 252 000c 0022     		movs	r2, #0
 253 000e 83F84F20 		strb	r2, [r3, #79]
 381:u8glib_arm_v1.18.1\src/chessengine.c ****   lrc_obj.curr_element = lrc_obj.stack_memory;
 254              		.loc 1 381 0
 255 0012 0F4B     		ldr	r3, .L15
 256 0014 0F4A     		ldr	r2, .L15+4
 257 0016 5A65     		str	r2, [r3, #84]
 382:u8glib_arm_v1.18.1\src/chessengine.c ****   lrc_obj.max_depth = max;
 258              		.loc 1 382 0
 259 0018 0D4A     		ldr	r2, .L15
 260 001a FB79     		ldrb	r3, [r7, #7]
 261 001c 82F85030 		strb	r3, [r2, #80]
 383:u8glib_arm_v1.18.1\src/chessengine.c ****   lrc_obj.check_mode = CHECK_MODE_NONE;
 262              		.loc 1 383 0
 263 0020 0B4B     		ldr	r3, .L15
 264 0022 0022     		movs	r2, #0
 265 0024 83F84A20 		strb	r2, [r3, #74]
 384:u8glib_arm_v1.18.1\src/chessengine.c ****   stack_InitCurrElement();
 266              		.loc 1 384 0
 267 0028 FFF7FEFF 		bl	stack_InitCurrElement
 385:u8glib_arm_v1.18.1\src/chessengine.c ****   stack_GetCurrElement()->current_color = lrc_obj.ply_count;
 268              		.loc 1 385 0
 269 002c FFF7FEFF 		bl	stack_GetCurrElement
 270 0030 0246     		mov	r2, r0
 271 0032 074B     		ldr	r3, .L15
 272 0034 1B78     		ldrb	r3, [r3]	@ zero_extendqisi2
 273 0036 9370     		strb	r3, [r2, #2]
 386:u8glib_arm_v1.18.1\src/chessengine.c ****   stack_GetCurrElement()->current_color &= 1;
 274              		.loc 1 386 0
 275 0038 FFF7FEFF 		bl	stack_GetCurrElement
 276 003c 0346     		mov	r3, r0
 277 003e 9A78     		ldrb	r2, [r3, #2]	@ zero_extendqisi2
 278 0040 02F00102 		and	r2, r2, #1
 279 0044 D2B2     		uxtb	r2, r2
 280 0046 9A70     		strb	r2, [r3, #2]
 387:u8glib_arm_v1.18.1\src/chessengine.c **** }
 281              		.loc 1 387 0
 282 0048 0837     		adds	r7, r7, #8
 283              		.cfi_def_cfa_offset 8
 284 004a BD46     		mov	sp, r7
 285              		.cfi_def_cfa_register 13
 286              		@ sp needed
 287 004c 80BD     		pop	{r7, pc}
 288              	.L16:
 289 004e 00BF     		.align	2
 290              	.L15:
 291 0050 00000000 		.word	lrc_obj
 292 0054 58000000 		.word	lrc_obj+88
 293              		.cfi_endproc
 294              	.LFE4:
 295              		.size	stack_Init, .-stack_Init
 296              		.section	.text.stack_SetMove,"ax",%progbits
 297              		.align	2
ARM GAS  C:\Users\KJA\AppData\Local\Temp\ccNNA7zi.s 			page 13


 298              		.global	stack_SetMove
 299              		.thumb
 300              		.thumb_func
 301              		.type	stack_SetMove, %function
 302              	stack_SetMove:
 303              	.LFB5:
 388:u8glib_arm_v1.18.1\src/chessengine.c **** 
 389:u8glib_arm_v1.18.1\src/chessengine.c **** /* assign evaluation value and store the move, if this is the best move */
 390:u8glib_arm_v1.18.1\src/chessengine.c **** /* assumes, that current_pos contains the source position */
 391:u8glib_arm_v1.18.1\src/chessengine.c **** void stack_SetMove(eval_t val, uint8_t to_pos)
 392:u8glib_arm_v1.18.1\src/chessengine.c **** {
 304              		.loc 1 392 0
 305              		.cfi_startproc
 306              		@ args = 0, pretend = 0, frame = 16
 307              		@ frame_needed = 1, uses_anonymous_args = 0
 308 0000 80B5     		push	{r7, lr}
 309              		.cfi_def_cfa_offset 8
 310              		.cfi_offset 7, -8
 311              		.cfi_offset 14, -4
 312 0002 84B0     		sub	sp, sp, #16
 313              		.cfi_def_cfa_offset 24
 314 0004 00AF     		add	r7, sp, #0
 315              		.cfi_def_cfa_register 7
 316 0006 0346     		mov	r3, r0
 317 0008 0A46     		mov	r2, r1
 318 000a FB80     		strh	r3, [r7, #6]	@ movhi
 319 000c 1346     		mov	r3, r2
 320 000e 7B71     		strb	r3, [r7, #5]
 393:u8glib_arm_v1.18.1\src/chessengine.c ****   stack_element_p e = stack_GetCurrElement();
 321              		.loc 1 393 0
 322 0010 FFF7FEFF 		bl	stack_GetCurrElement
 323 0014 F860     		str	r0, [r7, #12]
 394:u8glib_arm_v1.18.1\src/chessengine.c ****   if ( e->best_eval < val )
 324              		.loc 1 394 0
 325 0016 FB68     		ldr	r3, [r7, #12]
 326 0018 DB88     		ldrh	r3, [r3, #6]
 327 001a B7F90620 		ldrsh	r2, [r7, #6]
 328 001e 1BB2     		sxth	r3, r3
 329 0020 9A42     		cmp	r2, r3
 330 0022 09DD     		ble	.L17
 395:u8glib_arm_v1.18.1\src/chessengine.c ****   {
 396:u8glib_arm_v1.18.1\src/chessengine.c ****     e->best_eval = val;
 331              		.loc 1 396 0
 332 0024 FB68     		ldr	r3, [r7, #12]
 333 0026 FA88     		ldrh	r2, [r7, #6]	@ movhi
 334 0028 DA80     		strh	r2, [r3, #6]	@ movhi
 397:u8glib_arm_v1.18.1\src/chessengine.c ****     e->best_from_pos = e->current_pos;
 335              		.loc 1 397 0
 336 002a FB68     		ldr	r3, [r7, #12]
 337 002c 1A78     		ldrb	r2, [r3]	@ zero_extendqisi2
 338 002e FB68     		ldr	r3, [r7, #12]
 339 0030 DA70     		strb	r2, [r3, #3]
 398:u8glib_arm_v1.18.1\src/chessengine.c ****     e->best_to_pos = to_pos;
 340              		.loc 1 398 0
 341 0032 FB68     		ldr	r3, [r7, #12]
 342 0034 7A79     		ldrb	r2, [r7, #5]
 343 0036 1A71     		strb	r2, [r3, #4]
ARM GAS  C:\Users\KJA\AppData\Local\Temp\ccNNA7zi.s 			page 14


 344              	.L17:
 399:u8glib_arm_v1.18.1\src/chessengine.c ****   }
 400:u8glib_arm_v1.18.1\src/chessengine.c **** }
 345              		.loc 1 400 0
 346 0038 1037     		adds	r7, r7, #16
 347              		.cfi_def_cfa_offset 8
 348 003a BD46     		mov	sp, r7
 349              		.cfi_def_cfa_register 13
 350              		@ sp needed
 351 003c 80BD     		pop	{r7, pc}
 352              		.cfi_endproc
 353              	.LFE5:
 354              		.size	stack_SetMove, .-stack_SetMove
 355 003e 00BF     		.section	.text.cu_NextPos,"ax",%progbits
 356              		.align	2
 357              		.global	cu_NextPos
 358              		.thumb
 359              		.thumb_func
 360              		.type	cu_NextPos, %function
 361              	cu_NextPos:
 362              	.LFB6:
 401:u8glib_arm_v1.18.1\src/chessengine.c **** 
 402:u8glib_arm_v1.18.1\src/chessengine.c **** /* 
 403:u8glib_arm_v1.18.1\src/chessengine.c ****   calculate next position on a 0x88 board 
 404:u8glib_arm_v1.18.1\src/chessengine.c ****   loop is constructed in this way:
 405:u8glib_arm_v1.18.1\src/chessengine.c ****   i = 0;
 406:u8glib_arm_v1.18.1\src/chessengine.c ****   do
 407:u8glib_arm_v1.18.1\src/chessengine.c ****   {
 408:u8glib_arm_v1.18.1\src/chessengine.c ****     ...
 409:u8glib_arm_v1.18.1\src/chessengine.c ****     i = cu_NextPos(i);
 410:u8glib_arm_v1.18.1\src/chessengine.c ****   } while( i != 0 );
 411:u8glib_arm_v1.18.1\src/chessengine.c **** 
 412:u8glib_arm_v1.18.1\src/chessengine.c ****   next pos might be started with an illegal position like 255
 413:u8glib_arm_v1.18.1\src/chessengine.c **** */
 414:u8glib_arm_v1.18.1\src/chessengine.c **** uint8_t cu_NextPos(uint8_t pos)
 415:u8glib_arm_v1.18.1\src/chessengine.c **** {
 363              		.loc 1 415 0
 364              		.cfi_startproc
 365              		@ args = 0, pretend = 0, frame = 8
 366              		@ frame_needed = 1, uses_anonymous_args = 0
 367              		@ link register save eliminated.
 368 0000 80B4     		push	{r7}
 369              		.cfi_def_cfa_offset 4
 370              		.cfi_offset 7, -4
 371 0002 83B0     		sub	sp, sp, #12
 372              		.cfi_def_cfa_offset 16
 373 0004 00AF     		add	r7, sp, #0
 374              		.cfi_def_cfa_register 7
 375 0006 0346     		mov	r3, r0
 376 0008 FB71     		strb	r3, [r7, #7]
 416:u8glib_arm_v1.18.1\src/chessengine.c ****   /* calculate next gpos */
 417:u8glib_arm_v1.18.1\src/chessengine.c ****   pos++;
 377              		.loc 1 417 0
 378 000a FB79     		ldrb	r3, [r7, #7]	@ zero_extendqisi2
 379 000c 0133     		adds	r3, r3, #1
 380 000e FB71     		strb	r3, [r7, #7]
 418:u8glib_arm_v1.18.1\src/chessengine.c ****   if ( ( pos & 0x08 ) != 0 )
ARM GAS  C:\Users\KJA\AppData\Local\Temp\ccNNA7zi.s 			page 15


 381              		.loc 1 418 0
 382 0010 FB79     		ldrb	r3, [r7, #7]	@ zero_extendqisi2
 383 0012 03F00803 		and	r3, r3, #8
 384 0016 002B     		cmp	r3, #0
 385 0018 06D0     		beq	.L20
 419:u8glib_arm_v1.18.1\src/chessengine.c ****   {
 420:u8glib_arm_v1.18.1\src/chessengine.c ****     pos+= 0x10;
 386              		.loc 1 420 0
 387 001a FB79     		ldrb	r3, [r7, #7]
 388 001c 1033     		adds	r3, r3, #16
 389 001e FB71     		strb	r3, [r7, #7]
 421:u8glib_arm_v1.18.1\src/chessengine.c ****     pos&= 0xf0; 
 390              		.loc 1 421 0
 391 0020 FB79     		ldrb	r3, [r7, #7]
 392 0022 23F00F03 		bic	r3, r3, #15
 393 0026 FB71     		strb	r3, [r7, #7]
 394              	.L20:
 422:u8glib_arm_v1.18.1\src/chessengine.c ****   }
 423:u8glib_arm_v1.18.1\src/chessengine.c ****   if ( ( pos & 0x80 ) != 0 )
 395              		.loc 1 423 0
 396 0028 FB79     		ldrb	r3, [r7, #7]	@ zero_extendqisi2
 397 002a 5BB2     		sxtb	r3, r3
 398 002c 002B     		cmp	r3, #0
 399 002e 01DA     		bge	.L21
 424:u8glib_arm_v1.18.1\src/chessengine.c ****     pos = 0;
 400              		.loc 1 424 0
 401 0030 0023     		movs	r3, #0
 402 0032 FB71     		strb	r3, [r7, #7]
 403              	.L21:
 425:u8glib_arm_v1.18.1\src/chessengine.c ****   return pos;
 404              		.loc 1 425 0
 405 0034 FB79     		ldrb	r3, [r7, #7]	@ zero_extendqisi2
 426:u8glib_arm_v1.18.1\src/chessengine.c **** }
 406              		.loc 1 426 0
 407 0036 1846     		mov	r0, r3
 408 0038 0C37     		adds	r7, r7, #12
 409              		.cfi_def_cfa_offset 4
 410 003a BD46     		mov	sp, r7
 411              		.cfi_def_cfa_register 13
 412              		@ sp needed
 413 003c 5DF8047B 		ldr	r7, [sp], #4
 414              		.cfi_restore 7
 415              		.cfi_def_cfa_offset 0
 416 0040 7047     		bx	lr
 417              		.cfi_endproc
 418              	.LFE6:
 419              		.size	cu_NextPos, .-cu_NextPos
 420 0042 00BF     		.section	.text.cu_PrevPos,"ax",%progbits
 421              		.align	2
 422              		.global	cu_PrevPos
 423              		.thumb
 424              		.thumb_func
 425              		.type	cu_PrevPos, %function
 426              	cu_PrevPos:
 427              	.LFB7:
 427:u8glib_arm_v1.18.1\src/chessengine.c **** 
 428:u8glib_arm_v1.18.1\src/chessengine.c **** uint8_t cu_PrevPos(uint8_t pos)
ARM GAS  C:\Users\KJA\AppData\Local\Temp\ccNNA7zi.s 			page 16


 429:u8glib_arm_v1.18.1\src/chessengine.c **** {
 428              		.loc 1 429 0
 429              		.cfi_startproc
 430              		@ args = 0, pretend = 0, frame = 8
 431              		@ frame_needed = 1, uses_anonymous_args = 0
 432              		@ link register save eliminated.
 433 0000 80B4     		push	{r7}
 434              		.cfi_def_cfa_offset 4
 435              		.cfi_offset 7, -4
 436 0002 83B0     		sub	sp, sp, #12
 437              		.cfi_def_cfa_offset 16
 438 0004 00AF     		add	r7, sp, #0
 439              		.cfi_def_cfa_register 7
 440 0006 0346     		mov	r3, r0
 441 0008 FB71     		strb	r3, [r7, #7]
 430:u8glib_arm_v1.18.1\src/chessengine.c ****   /* calculate prev gpos */
 431:u8glib_arm_v1.18.1\src/chessengine.c ****   pos--;
 442              		.loc 1 431 0
 443 000a FB79     		ldrb	r3, [r7, #7]	@ zero_extendqisi2
 444 000c 013B     		subs	r3, r3, #1
 445 000e FB71     		strb	r3, [r7, #7]
 432:u8glib_arm_v1.18.1\src/chessengine.c ****   if ( ( pos & 0x80 ) != 0 )
 446              		.loc 1 432 0
 447 0010 FB79     		ldrb	r3, [r7, #7]	@ zero_extendqisi2
 448 0012 5BB2     		sxtb	r3, r3
 449 0014 002B     		cmp	r3, #0
 450 0016 02DA     		bge	.L24
 433:u8glib_arm_v1.18.1\src/chessengine.c ****     pos = 0x077;
 451              		.loc 1 433 0
 452 0018 7723     		movs	r3, #119
 453 001a FB71     		strb	r3, [r7, #7]
 454 001c 0CE0     		b	.L25
 455              	.L24:
 434:u8glib_arm_v1.18.1\src/chessengine.c ****   else if ( ( pos & 0x08 ) != 0 )
 456              		.loc 1 434 0
 457 001e FB79     		ldrb	r3, [r7, #7]	@ zero_extendqisi2
 458 0020 03F00803 		and	r3, r3, #8
 459 0024 002B     		cmp	r3, #0
 460 0026 07D0     		beq	.L25
 435:u8glib_arm_v1.18.1\src/chessengine.c ****   {
 436:u8glib_arm_v1.18.1\src/chessengine.c ****     pos &= 0xf0; 
 461              		.loc 1 436 0
 462 0028 FB79     		ldrb	r3, [r7, #7]
 463 002a 23F00F03 		bic	r3, r3, #15
 464 002e FB71     		strb	r3, [r7, #7]
 437:u8glib_arm_v1.18.1\src/chessengine.c ****     pos |= 0x07;
 465              		.loc 1 437 0
 466 0030 FB79     		ldrb	r3, [r7, #7]
 467 0032 43F00703 		orr	r3, r3, #7
 468 0036 FB71     		strb	r3, [r7, #7]
 469              	.L25:
 438:u8glib_arm_v1.18.1\src/chessengine.c ****   }
 439:u8glib_arm_v1.18.1\src/chessengine.c ****   return pos;
 470              		.loc 1 439 0
 471 0038 FB79     		ldrb	r3, [r7, #7]	@ zero_extendqisi2
 440:u8glib_arm_v1.18.1\src/chessengine.c **** }
 472              		.loc 1 440 0
ARM GAS  C:\Users\KJA\AppData\Local\Temp\ccNNA7zi.s 			page 17


 473 003a 1846     		mov	r0, r3
 474 003c 0C37     		adds	r7, r7, #12
 475              		.cfi_def_cfa_offset 4
 476 003e BD46     		mov	sp, r7
 477              		.cfi_def_cfa_register 13
 478              		@ sp needed
 479 0040 5DF8047B 		ldr	r7, [sp], #4
 480              		.cfi_restore 7
 481              		.cfi_def_cfa_offset 0
 482 0044 7047     		bx	lr
 483              		.cfi_endproc
 484              	.LFE7:
 485              		.size	cu_PrevPos, .-cu_PrevPos
 486 0046 00BF     		.section	.text.cu_gpos2bpos,"ax",%progbits
 487              		.align	2
 488              		.thumb
 489              		.thumb_func
 490              		.type	cu_gpos2bpos, %function
 491              	cu_gpos2bpos:
 492              	.LFB8:
 441:u8glib_arm_v1.18.1\src/chessengine.c **** 
 442:u8glib_arm_v1.18.1\src/chessengine.c **** 
 443:u8glib_arm_v1.18.1\src/chessengine.c **** /*==============================================================*/
 444:u8glib_arm_v1.18.1\src/chessengine.c **** /* position transltion */
 445:u8glib_arm_v1.18.1\src/chessengine.c **** /*==============================================================*/
 446:u8glib_arm_v1.18.1\src/chessengine.c **** /*
 447:u8glib_arm_v1.18.1\src/chessengine.c ****   there are two positions
 448:u8glib_arm_v1.18.1\src/chessengine.c ****     1. game position (gpos): BCD encoded x-y values
 449:u8glib_arm_v1.18.1\src/chessengine.c ****     2. board position (bpos): a number between 0 and 63, only used to access the board.
 450:u8glib_arm_v1.18.1\src/chessengine.c **** */
 451:u8glib_arm_v1.18.1\src/chessengine.c **** /*
 452:u8glib_arm_v1.18.1\src/chessengine.c ****   gpos:	game position value
 453:u8glib_arm_v1.18.1\src/chessengine.c ****   returns:	board position
 454:u8glib_arm_v1.18.1\src/chessengine.c ****   note:	does not do any checks
 455:u8glib_arm_v1.18.1\src/chessengine.c **** */
 456:u8glib_arm_v1.18.1\src/chessengine.c **** static uint8_t cu_gpos2bpos(uint8_t gpos)
 457:u8glib_arm_v1.18.1\src/chessengine.c **** {
 493              		.loc 1 457 0
 494              		.cfi_startproc
 495              		@ args = 0, pretend = 0, frame = 16
 496              		@ frame_needed = 1, uses_anonymous_args = 0
 497              		@ link register save eliminated.
 498 0000 80B4     		push	{r7}
 499              		.cfi_def_cfa_offset 4
 500              		.cfi_offset 7, -4
 501 0002 85B0     		sub	sp, sp, #20
 502              		.cfi_def_cfa_offset 24
 503 0004 00AF     		add	r7, sp, #0
 504              		.cfi_def_cfa_register 7
 505 0006 0346     		mov	r3, r0
 506 0008 FB71     		strb	r3, [r7, #7]
 458:u8glib_arm_v1.18.1\src/chessengine.c ****   uint8_t bpos = gpos;
 507              		.loc 1 458 0
 508 000a FB79     		ldrb	r3, [r7, #7]
 509 000c FB73     		strb	r3, [r7, #15]
 459:u8glib_arm_v1.18.1\src/chessengine.c ****   bpos &= 0xf0;
 510              		.loc 1 459 0
ARM GAS  C:\Users\KJA\AppData\Local\Temp\ccNNA7zi.s 			page 18


 511 000e FB7B     		ldrb	r3, [r7, #15]
 512 0010 23F00F03 		bic	r3, r3, #15
 513 0014 FB73     		strb	r3, [r7, #15]
 460:u8glib_arm_v1.18.1\src/chessengine.c ****   bpos >>= 1;
 514              		.loc 1 460 0
 515 0016 FB7B     		ldrb	r3, [r7, #15]	@ zero_extendqisi2
 516 0018 5B08     		lsrs	r3, r3, #1
 517 001a FB73     		strb	r3, [r7, #15]
 461:u8glib_arm_v1.18.1\src/chessengine.c ****   gpos &= 0x0f;
 518              		.loc 1 461 0
 519 001c FB79     		ldrb	r3, [r7, #7]
 520 001e 03F00F03 		and	r3, r3, #15
 521 0022 FB71     		strb	r3, [r7, #7]
 462:u8glib_arm_v1.18.1\src/chessengine.c ****   bpos |= gpos;
 522              		.loc 1 462 0
 523 0024 FA7B     		ldrb	r2, [r7, #15]
 524 0026 FB79     		ldrb	r3, [r7, #7]
 525 0028 1343     		orrs	r3, r3, r2
 526 002a FB73     		strb	r3, [r7, #15]
 463:u8glib_arm_v1.18.1\src/chessengine.c ****   return bpos;
 527              		.loc 1 463 0
 528 002c FB7B     		ldrb	r3, [r7, #15]	@ zero_extendqisi2
 464:u8glib_arm_v1.18.1\src/chessengine.c **** }
 529              		.loc 1 464 0
 530 002e 1846     		mov	r0, r3
 531 0030 1437     		adds	r7, r7, #20
 532              		.cfi_def_cfa_offset 4
 533 0032 BD46     		mov	sp, r7
 534              		.cfi_def_cfa_register 13
 535              		@ sp needed
 536 0034 5DF8047B 		ldr	r7, [sp], #4
 537              		.cfi_restore 7
 538              		.cfi_def_cfa_offset 0
 539 0038 7047     		bx	lr
 540              		.cfi_endproc
 541              	.LFE8:
 542              		.size	cu_gpos2bpos, .-cu_gpos2bpos
 543 003a 00BF     		.section	.text.cp_Construct,"ax",%progbits
 544              		.align	2
 545              		.thumb
 546              		.thumb_func
 547              		.type	cp_Construct, %function
 548              	cp_Construct:
 549              	.LFB9:
 465:u8glib_arm_v1.18.1\src/chessengine.c **** 
 466:u8glib_arm_v1.18.1\src/chessengine.c **** #define gpos_IsIllegal(gpos) ((gpos) & 0x088)
 467:u8glib_arm_v1.18.1\src/chessengine.c **** 
 468:u8glib_arm_v1.18.1\src/chessengine.c **** 
 469:u8glib_arm_v1.18.1\src/chessengine.c **** /*==============================================================*/
 470:u8glib_arm_v1.18.1\src/chessengine.c **** /* colored piece handling */
 471:u8glib_arm_v1.18.1\src/chessengine.c **** /*==============================================================*/
 472:u8glib_arm_v1.18.1\src/chessengine.c **** 
 473:u8glib_arm_v1.18.1\src/chessengine.c **** #define cp_IsMarked(cp)  ((cp) & CP_MARK_MASK)
 474:u8glib_arm_v1.18.1\src/chessengine.c **** 
 475:u8glib_arm_v1.18.1\src/chessengine.c **** 
 476:u8glib_arm_v1.18.1\src/chessengine.c **** /*
 477:u8glib_arm_v1.18.1\src/chessengine.c ****   piece: one of PIECE_xxx
ARM GAS  C:\Users\KJA\AppData\Local\Temp\ccNNA7zi.s 			page 19


 478:u8glib_arm_v1.18.1\src/chessengine.c ****   color: COLOR_WHITE or COLOR_BLACK
 479:u8glib_arm_v1.18.1\src/chessengine.c **** 
 480:u8glib_arm_v1.18.1\src/chessengine.c ****   returns: A colored piece
 481:u8glib_arm_v1.18.1\src/chessengine.c **** */
 482:u8glib_arm_v1.18.1\src/chessengine.c **** static uint8_t cp_Construct(uint8_t color, uint8_t piece)
 483:u8glib_arm_v1.18.1\src/chessengine.c **** {
 550              		.loc 1 483 0
 551              		.cfi_startproc
 552              		@ args = 0, pretend = 0, frame = 8
 553              		@ frame_needed = 1, uses_anonymous_args = 0
 554              		@ link register save eliminated.
 555 0000 80B4     		push	{r7}
 556              		.cfi_def_cfa_offset 4
 557              		.cfi_offset 7, -4
 558 0002 83B0     		sub	sp, sp, #12
 559              		.cfi_def_cfa_offset 16
 560 0004 00AF     		add	r7, sp, #0
 561              		.cfi_def_cfa_register 7
 562 0006 0346     		mov	r3, r0
 563 0008 0A46     		mov	r2, r1
 564 000a FB71     		strb	r3, [r7, #7]
 565 000c 1346     		mov	r3, r2
 566 000e BB71     		strb	r3, [r7, #6]
 484:u8glib_arm_v1.18.1\src/chessengine.c ****   color <<= 4;
 567              		.loc 1 484 0
 568 0010 FB79     		ldrb	r3, [r7, #7]
 569 0012 1B01     		lsls	r3, r3, #4
 570 0014 FB71     		strb	r3, [r7, #7]
 485:u8glib_arm_v1.18.1\src/chessengine.c ****   color |= piece;
 571              		.loc 1 485 0
 572 0016 FA79     		ldrb	r2, [r7, #7]
 573 0018 BB79     		ldrb	r3, [r7, #6]
 574 001a 1343     		orrs	r3, r3, r2
 575 001c FB71     		strb	r3, [r7, #7]
 486:u8glib_arm_v1.18.1\src/chessengine.c ****   return color;
 576              		.loc 1 486 0
 577 001e FB79     		ldrb	r3, [r7, #7]	@ zero_extendqisi2
 487:u8glib_arm_v1.18.1\src/chessengine.c **** }
 578              		.loc 1 487 0
 579 0020 1846     		mov	r0, r3
 580 0022 0C37     		adds	r7, r7, #12
 581              		.cfi_def_cfa_offset 4
 582 0024 BD46     		mov	sp, r7
 583              		.cfi_def_cfa_register 13
 584              		@ sp needed
 585 0026 5DF8047B 		ldr	r7, [sp], #4
 586              		.cfi_restore 7
 587              		.cfi_def_cfa_offset 0
 588 002a 7047     		bx	lr
 589              		.cfi_endproc
 590              	.LFE9:
 591              		.size	cp_Construct, .-cp_Construct
 592              		.section	.text.cp_GetPiece,"ax",%progbits
 593              		.align	2
 594              		.thumb
 595              		.thumb_func
 596              		.type	cp_GetPiece, %function
ARM GAS  C:\Users\KJA\AppData\Local\Temp\ccNNA7zi.s 			page 20


 597              	cp_GetPiece:
 598              	.LFB10:
 488:u8glib_arm_v1.18.1\src/chessengine.c **** 
 489:u8glib_arm_v1.18.1\src/chessengine.c **** /* inline is better than a macro */
 490:u8glib_arm_v1.18.1\src/chessengine.c **** static uint8_t cp_GetPiece(uint8_t cp)
 491:u8glib_arm_v1.18.1\src/chessengine.c **** {
 599              		.loc 1 491 0
 600              		.cfi_startproc
 601              		@ args = 0, pretend = 0, frame = 8
 602              		@ frame_needed = 1, uses_anonymous_args = 0
 603              		@ link register save eliminated.
 604 0000 80B4     		push	{r7}
 605              		.cfi_def_cfa_offset 4
 606              		.cfi_offset 7, -4
 607 0002 83B0     		sub	sp, sp, #12
 608              		.cfi_def_cfa_offset 16
 609 0004 00AF     		add	r7, sp, #0
 610              		.cfi_def_cfa_register 7
 611 0006 0346     		mov	r3, r0
 612 0008 FB71     		strb	r3, [r7, #7]
 492:u8glib_arm_v1.18.1\src/chessengine.c ****   cp &= 0x0f;
 613              		.loc 1 492 0
 614 000a FB79     		ldrb	r3, [r7, #7]
 615 000c 03F00F03 		and	r3, r3, #15
 616 0010 FB71     		strb	r3, [r7, #7]
 493:u8glib_arm_v1.18.1\src/chessengine.c ****   return cp;
 617              		.loc 1 493 0
 618 0012 FB79     		ldrb	r3, [r7, #7]	@ zero_extendqisi2
 494:u8glib_arm_v1.18.1\src/chessengine.c **** }
 619              		.loc 1 494 0
 620 0014 1846     		mov	r0, r3
 621 0016 0C37     		adds	r7, r7, #12
 622              		.cfi_def_cfa_offset 4
 623 0018 BD46     		mov	sp, r7
 624              		.cfi_def_cfa_register 13
 625              		@ sp needed
 626 001a 5DF8047B 		ldr	r7, [sp], #4
 627              		.cfi_restore 7
 628              		.cfi_def_cfa_offset 0
 629 001e 7047     		bx	lr
 630              		.cfi_endproc
 631              	.LFE10:
 632              		.size	cp_GetPiece, .-cp_GetPiece
 633              		.section	.text.cp_GetColor,"ax",%progbits
 634              		.align	2
 635              		.thumb
 636              		.thumb_func
 637              		.type	cp_GetColor, %function
 638              	cp_GetColor:
 639              	.LFB11:
 495:u8glib_arm_v1.18.1\src/chessengine.c **** 
 496:u8glib_arm_v1.18.1\src/chessengine.c **** /*
 497:u8glib_arm_v1.18.1\src/chessengine.c ****   we could use a macro:
 498:u8glib_arm_v1.18.1\src/chessengine.c ****   #define cp_GetColor(cp)	(((cp) >> 4)&1)
 499:u8glib_arm_v1.18.1\src/chessengine.c ****   however, inlined functions are sometimes much better
 500:u8glib_arm_v1.18.1\src/chessengine.c **** */
 501:u8glib_arm_v1.18.1\src/chessengine.c **** static uint8_t cp_GetColor(uint8_t cp)
ARM GAS  C:\Users\KJA\AppData\Local\Temp\ccNNA7zi.s 			page 21


 502:u8glib_arm_v1.18.1\src/chessengine.c **** {
 640              		.loc 1 502 0
 641              		.cfi_startproc
 642              		@ args = 0, pretend = 0, frame = 8
 643              		@ frame_needed = 1, uses_anonymous_args = 0
 644              		@ link register save eliminated.
 645 0000 80B4     		push	{r7}
 646              		.cfi_def_cfa_offset 4
 647              		.cfi_offset 7, -4
 648 0002 83B0     		sub	sp, sp, #12
 649              		.cfi_def_cfa_offset 16
 650 0004 00AF     		add	r7, sp, #0
 651              		.cfi_def_cfa_register 7
 652 0006 0346     		mov	r3, r0
 653 0008 FB71     		strb	r3, [r7, #7]
 503:u8glib_arm_v1.18.1\src/chessengine.c ****   cp >>= 4;
 654              		.loc 1 503 0
 655 000a FB79     		ldrb	r3, [r7, #7]	@ zero_extendqisi2
 656 000c 1B09     		lsrs	r3, r3, #4
 657 000e FB71     		strb	r3, [r7, #7]
 504:u8glib_arm_v1.18.1\src/chessengine.c ****   cp &= 1;
 658              		.loc 1 504 0
 659 0010 FB79     		ldrb	r3, [r7, #7]
 660 0012 03F00103 		and	r3, r3, #1
 661 0016 FB71     		strb	r3, [r7, #7]
 505:u8glib_arm_v1.18.1\src/chessengine.c ****   return cp;
 662              		.loc 1 505 0
 663 0018 FB79     		ldrb	r3, [r7, #7]	@ zero_extendqisi2
 506:u8glib_arm_v1.18.1\src/chessengine.c **** }
 664              		.loc 1 506 0
 665 001a 1846     		mov	r0, r3
 666 001c 0C37     		adds	r7, r7, #12
 667              		.cfi_def_cfa_offset 4
 668 001e BD46     		mov	sp, r7
 669              		.cfi_def_cfa_register 13
 670              		@ sp needed
 671 0020 5DF8047B 		ldr	r7, [sp], #4
 672              		.cfi_restore 7
 673              		.cfi_def_cfa_offset 0
 674 0024 7047     		bx	lr
 675              		.cfi_endproc
 676              	.LFE11:
 677              		.size	cp_GetColor, .-cp_GetColor
 678 0026 00BF     		.section	.text.cp_GetFromBoard,"ax",%progbits
 679              		.align	2
 680              		.global	cp_GetFromBoard
 681              		.thumb
 682              		.thumb_func
 683              		.type	cp_GetFromBoard, %function
 684              	cp_GetFromBoard:
 685              	.LFB12:
 507:u8glib_arm_v1.18.1\src/chessengine.c **** 
 508:u8glib_arm_v1.18.1\src/chessengine.c **** /*
 509:u8glib_arm_v1.18.1\src/chessengine.c ****   pos: game position
 510:u8glib_arm_v1.18.1\src/chessengine.c ****   returns the colored piece at the given position
 511:u8glib_arm_v1.18.1\src/chessengine.c **** */
 512:u8glib_arm_v1.18.1\src/chessengine.c **** uint8_t cp_GetFromBoard(uint8_t pos)
ARM GAS  C:\Users\KJA\AppData\Local\Temp\ccNNA7zi.s 			page 22


 513:u8glib_arm_v1.18.1\src/chessengine.c **** {
 686              		.loc 1 513 0
 687              		.cfi_startproc
 688              		@ args = 0, pretend = 0, frame = 8
 689              		@ frame_needed = 1, uses_anonymous_args = 0
 690 0000 80B5     		push	{r7, lr}
 691              		.cfi_def_cfa_offset 8
 692              		.cfi_offset 7, -8
 693              		.cfi_offset 14, -4
 694 0002 82B0     		sub	sp, sp, #8
 695              		.cfi_def_cfa_offset 16
 696 0004 00AF     		add	r7, sp, #0
 697              		.cfi_def_cfa_register 7
 698 0006 0346     		mov	r3, r0
 699 0008 FB71     		strb	r3, [r7, #7]
 514:u8glib_arm_v1.18.1\src/chessengine.c ****   return lrc_obj.board[cu_gpos2bpos(pos)];
 700              		.loc 1 514 0
 701 000a FB79     		ldrb	r3, [r7, #7]	@ zero_extendqisi2
 702 000c 1846     		mov	r0, r3
 703 000e FFF7FEFF 		bl	cu_gpos2bpos
 704 0012 0346     		mov	r3, r0
 705 0014 1A46     		mov	r2, r3
 706 0016 034B     		ldr	r3, .L37
 707 0018 1344     		add	r3, r3, r2
 708 001a 9B78     		ldrb	r3, [r3, #2]	@ zero_extendqisi2
 515:u8glib_arm_v1.18.1\src/chessengine.c **** }
 709              		.loc 1 515 0
 710 001c 1846     		mov	r0, r3
 711 001e 0837     		adds	r7, r7, #8
 712              		.cfi_def_cfa_offset 8
 713 0020 BD46     		mov	sp, r7
 714              		.cfi_def_cfa_register 13
 715              		@ sp needed
 716 0022 80BD     		pop	{r7, pc}
 717              	.L38:
 718              		.align	2
 719              	.L37:
 720 0024 00000000 		.word	lrc_obj
 721              		.cfi_endproc
 722              	.LFE12:
 723              		.size	cp_GetFromBoard, .-cp_GetFromBoard
 724              		.section	.text.cp_SetOnBoard,"ax",%progbits
 725              		.align	2
 726              		.global	cp_SetOnBoard
 727              		.thumb
 728              		.thumb_func
 729              		.type	cp_SetOnBoard, %function
 730              	cp_SetOnBoard:
 731              	.LFB13:
 516:u8glib_arm_v1.18.1\src/chessengine.c **** 
 517:u8glib_arm_v1.18.1\src/chessengine.c **** /*
 518:u8glib_arm_v1.18.1\src/chessengine.c ****   pos: game position
 519:u8glib_arm_v1.18.1\src/chessengine.c ****   cp: colored piece
 520:u8glib_arm_v1.18.1\src/chessengine.c **** */
 521:u8glib_arm_v1.18.1\src/chessengine.c **** void cp_SetOnBoard(uint8_t pos, uint8_t cp)
 522:u8glib_arm_v1.18.1\src/chessengine.c **** {
 732              		.loc 1 522 0
ARM GAS  C:\Users\KJA\AppData\Local\Temp\ccNNA7zi.s 			page 23


 733              		.cfi_startproc
 734              		@ args = 0, pretend = 0, frame = 8
 735              		@ frame_needed = 1, uses_anonymous_args = 0
 736 0000 80B5     		push	{r7, lr}
 737              		.cfi_def_cfa_offset 8
 738              		.cfi_offset 7, -8
 739              		.cfi_offset 14, -4
 740 0002 82B0     		sub	sp, sp, #8
 741              		.cfi_def_cfa_offset 16
 742 0004 00AF     		add	r7, sp, #0
 743              		.cfi_def_cfa_register 7
 744 0006 0346     		mov	r3, r0
 745 0008 0A46     		mov	r2, r1
 746 000a FB71     		strb	r3, [r7, #7]
 747 000c 1346     		mov	r3, r2
 748 000e BB71     		strb	r3, [r7, #6]
 523:u8glib_arm_v1.18.1\src/chessengine.c ****   /*printf("cp_SetOnBoard gpos:%02x cp:%02x\n", pos, cp);*/
 524:u8glib_arm_v1.18.1\src/chessengine.c ****   lrc_obj.board[cu_gpos2bpos(pos)] = cp;
 749              		.loc 1 524 0
 750 0010 FB79     		ldrb	r3, [r7, #7]	@ zero_extendqisi2
 751 0012 1846     		mov	r0, r3
 752 0014 FFF7FEFF 		bl	cu_gpos2bpos
 753 0018 0346     		mov	r3, r0
 754 001a 1A46     		mov	r2, r3
 755 001c 034B     		ldr	r3, .L40
 756 001e 1344     		add	r3, r3, r2
 757 0020 BA79     		ldrb	r2, [r7, #6]
 758 0022 9A70     		strb	r2, [r3, #2]
 525:u8glib_arm_v1.18.1\src/chessengine.c **** }
 759              		.loc 1 525 0
 760 0024 0837     		adds	r7, r7, #8
 761              		.cfi_def_cfa_offset 8
 762 0026 BD46     		mov	sp, r7
 763              		.cfi_def_cfa_register 13
 764              		@ sp needed
 765 0028 80BD     		pop	{r7, pc}
 766              	.L41:
 767 002a 00BF     		.align	2
 768              	.L40:
 769 002c 00000000 		.word	lrc_obj
 770              		.cfi_endproc
 771              	.LFE13:
 772              		.size	cp_SetOnBoard, .-cp_SetOnBoard
 773              		.section	.text.cu_ClearBoard,"ax",%progbits
 774              		.align	2
 775              		.global	cu_ClearBoard
 776              		.thumb
 777              		.thumb_func
 778              		.type	cu_ClearBoard, %function
 779              	cu_ClearBoard:
 780              	.LFB14:
 526:u8glib_arm_v1.18.1\src/chessengine.c **** 
 527:u8glib_arm_v1.18.1\src/chessengine.c **** /*==============================================================*/
 528:u8glib_arm_v1.18.1\src/chessengine.c **** /* global board access */
 529:u8glib_arm_v1.18.1\src/chessengine.c **** /*==============================================================*/
 530:u8glib_arm_v1.18.1\src/chessengine.c **** 
 531:u8glib_arm_v1.18.1\src/chessengine.c **** void cu_ClearBoard(void)
ARM GAS  C:\Users\KJA\AppData\Local\Temp\ccNNA7zi.s 			page 24


 532:u8glib_arm_v1.18.1\src/chessengine.c **** {
 781              		.loc 1 532 0
 782              		.cfi_startproc
 783              		@ args = 0, pretend = 0, frame = 8
 784              		@ frame_needed = 1, uses_anonymous_args = 0
 785 0000 80B5     		push	{r7, lr}
 786              		.cfi_def_cfa_offset 8
 787              		.cfi_offset 7, -8
 788              		.cfi_offset 14, -4
 789 0002 82B0     		sub	sp, sp, #8
 790              		.cfi_def_cfa_offset 16
 791 0004 00AF     		add	r7, sp, #0
 792              		.cfi_def_cfa_register 7
 533:u8glib_arm_v1.18.1\src/chessengine.c ****   uint8_t i;
 534:u8glib_arm_v1.18.1\src/chessengine.c ****   /* clear the board */
 535:u8glib_arm_v1.18.1\src/chessengine.c ****   for( i = 0; i < 64; i++ )
 793              		.loc 1 535 0
 794 0006 0023     		movs	r3, #0
 795 0008 FB71     		strb	r3, [r7, #7]
 796 000a 07E0     		b	.L43
 797              	.L44:
 536:u8glib_arm_v1.18.1\src/chessengine.c ****     lrc_obj.board[i] = PIECE_NONE;
 798              		.loc 1 536 0 discriminator 3
 799 000c FB79     		ldrb	r3, [r7, #7]	@ zero_extendqisi2
 800 000e 154A     		ldr	r2, .L45
 801 0010 1344     		add	r3, r3, r2
 802 0012 0022     		movs	r2, #0
 803 0014 9A70     		strb	r2, [r3, #2]
 535:u8glib_arm_v1.18.1\src/chessengine.c ****     lrc_obj.board[i] = PIECE_NONE;
 804              		.loc 1 535 0 discriminator 3
 805 0016 FB79     		ldrb	r3, [r7, #7]	@ zero_extendqisi2
 806 0018 0133     		adds	r3, r3, #1
 807 001a FB71     		strb	r3, [r7, #7]
 808              	.L43:
 535:u8glib_arm_v1.18.1\src/chessengine.c ****     lrc_obj.board[i] = PIECE_NONE;
 809              		.loc 1 535 0 is_stmt 0 discriminator 1
 810 001c FB79     		ldrb	r3, [r7, #7]	@ zero_extendqisi2
 811 001e 3F2B     		cmp	r3, #63
 812 0020 F4D9     		bls	.L44
 537:u8glib_arm_v1.18.1\src/chessengine.c ****   
 538:u8glib_arm_v1.18.1\src/chessengine.c ****   lrc_obj.ply_count = 0;
 813              		.loc 1 538 0 is_stmt 1
 814 0022 104B     		ldr	r3, .L45
 815 0024 0022     		movs	r2, #0
 816 0026 1A70     		strb	r2, [r3]
 539:u8glib_arm_v1.18.1\src/chessengine.c ****   lrc_obj.orientation = COLOR_WHITE;
 817              		.loc 1 539 0
 818 0028 0E4B     		ldr	r3, .L45
 819 002a 0022     		movs	r2, #0
 820 002c 83F84520 		strb	r2, [r3, #69]
 540:u8glib_arm_v1.18.1\src/chessengine.c ****   
 541:u8glib_arm_v1.18.1\src/chessengine.c ****   lrc_obj.pawn_dbl_move[0] = ILLEGAL_POSITION;
 821              		.loc 1 541 0
 822 0030 0C4B     		ldr	r3, .L45
 823 0032 FF22     		movs	r2, #255
 824 0034 83F84220 		strb	r2, [r3, #66]
 542:u8glib_arm_v1.18.1\src/chessengine.c ****   lrc_obj.pawn_dbl_move[1] = ILLEGAL_POSITION;
ARM GAS  C:\Users\KJA\AppData\Local\Temp\ccNNA7zi.s 			page 25


 825              		.loc 1 542 0
 826 0038 0A4B     		ldr	r3, .L45
 827 003a FF22     		movs	r2, #255
 828 003c 83F84320 		strb	r2, [r3, #67]
 543:u8glib_arm_v1.18.1\src/chessengine.c ****   
 544:u8glib_arm_v1.18.1\src/chessengine.c ****   lrc_obj.castling_possible = 0x0f;
 829              		.loc 1 544 0
 830 0040 084B     		ldr	r3, .L45
 831 0042 0F22     		movs	r2, #15
 832 0044 83F84420 		strb	r2, [r3, #68]
 545:u8glib_arm_v1.18.1\src/chessengine.c ****   
 546:u8glib_arm_v1.18.1\src/chessengine.c ****   lrc_obj.is_game_end = 0;
 833              		.loc 1 546 0
 834 0048 064B     		ldr	r3, .L45
 835 004a 0022     		movs	r2, #0
 836 004c 83F84720 		strb	r2, [r3, #71]
 547:u8glib_arm_v1.18.1\src/chessengine.c ****   lrc_obj.lost_side_color = 0;
 837              		.loc 1 547 0
 838 0050 044B     		ldr	r3, .L45
 839 0052 0022     		movs	r2, #0
 840 0054 83F84820 		strb	r2, [r3, #72]
 548:u8glib_arm_v1.18.1\src/chessengine.c **** 
 549:u8glib_arm_v1.18.1\src/chessengine.c ****   /* clear half move history */
 550:u8glib_arm_v1.18.1\src/chessengine.c ****   cu_ClearMoveHistory();
 841              		.loc 1 550 0
 842 0058 FFF7FEFF 		bl	cu_ClearMoveHistory
 551:u8glib_arm_v1.18.1\src/chessengine.c **** 
 552:u8glib_arm_v1.18.1\src/chessengine.c **** }
 843              		.loc 1 552 0
 844 005c 0837     		adds	r7, r7, #8
 845              		.cfi_def_cfa_offset 8
 846 005e BD46     		mov	sp, r7
 847              		.cfi_def_cfa_register 13
 848              		@ sp needed
 849 0060 80BD     		pop	{r7, pc}
 850              	.L46:
 851 0062 00BF     		.align	2
 852              	.L45:
 853 0064 00000000 		.word	lrc_obj
 854              		.cfi_endproc
 855              	.LFE14:
 856              		.size	cu_ClearBoard, .-cu_ClearBoard
 857              		.section	.text.chess_SetupBoardTest01,"ax",%progbits
 858              		.align	2
 859              		.global	chess_SetupBoardTest01
 860              		.thumb
 861              		.thumb_func
 862              		.type	chess_SetupBoardTest01, %function
 863              	chess_SetupBoardTest01:
 864              	.LFB15:
 553:u8glib_arm_v1.18.1\src/chessengine.c **** 
 554:u8glib_arm_v1.18.1\src/chessengine.c **** /*
 555:u8glib_arm_v1.18.1\src/chessengine.c ****   test setup
 556:u8glib_arm_v1.18.1\src/chessengine.c ****   white wins in one move
 557:u8glib_arm_v1.18.1\src/chessengine.c **** */
 558:u8glib_arm_v1.18.1\src/chessengine.c **** void chess_SetupBoardTest01(void)
 559:u8glib_arm_v1.18.1\src/chessengine.c **** {
ARM GAS  C:\Users\KJA\AppData\Local\Temp\ccNNA7zi.s 			page 26


 865              		.loc 1 559 0
 866              		.cfi_startproc
 867              		@ args = 0, pretend = 0, frame = 0
 868              		@ frame_needed = 1, uses_anonymous_args = 0
 869 0000 80B5     		push	{r7, lr}
 870              		.cfi_def_cfa_offset 8
 871              		.cfi_offset 7, -8
 872              		.cfi_offset 14, -4
 873 0002 00AF     		add	r7, sp, #0
 874              		.cfi_def_cfa_register 7
 560:u8glib_arm_v1.18.1\src/chessengine.c ****   cu_ClearBoard();
 875              		.loc 1 560 0
 876 0004 FFF7FEFF 		bl	cu_ClearBoard
 561:u8glib_arm_v1.18.1\src/chessengine.c ****   lrc_obj.board[7+7*8] = cp_Construct(COLOR_BLACK, PIECE_KING);
 877              		.loc 1 561 0
 878 0008 0120     		movs	r0, #1
 879 000a 0621     		movs	r1, #6
 880 000c FFF7FEFF 		bl	cp_Construct
 881 0010 0346     		mov	r3, r0
 882 0012 1A46     		mov	r2, r3
 883 0014 124B     		ldr	r3, .L48
 884 0016 83F84120 		strb	r2, [r3, #65]
 562:u8glib_arm_v1.18.1\src/chessengine.c ****   lrc_obj.board[7+5*8] = cp_Construct(COLOR_WHITE, PIECE_PAWN);
 885              		.loc 1 562 0
 886 001a 0020     		movs	r0, #0
 887 001c 0121     		movs	r1, #1
 888 001e FFF7FEFF 		bl	cp_Construct
 889 0022 0346     		mov	r3, r0
 890 0024 1A46     		mov	r2, r3
 891 0026 0E4B     		ldr	r3, .L48
 892 0028 83F83120 		strb	r2, [r3, #49]
 563:u8glib_arm_v1.18.1\src/chessengine.c ****   lrc_obj.board[3] = cp_Construct(COLOR_WHITE, PIECE_KING);
 893              		.loc 1 563 0
 894 002c 0020     		movs	r0, #0
 895 002e 0621     		movs	r1, #6
 896 0030 FFF7FEFF 		bl	cp_Construct
 897 0034 0346     		mov	r3, r0
 898 0036 1A46     		mov	r2, r3
 899 0038 094B     		ldr	r3, .L48
 900 003a 5A71     		strb	r2, [r3, #5]
 564:u8glib_arm_v1.18.1\src/chessengine.c ****   lrc_obj.board[0+7*8] = cp_Construct(COLOR_BLACK, PIECE_ROOK);
 901              		.loc 1 564 0
 902 003c 0120     		movs	r0, #1
 903 003e 0421     		movs	r1, #4
 904 0040 FFF7FEFF 		bl	cp_Construct
 905 0044 0346     		mov	r3, r0
 906 0046 1A46     		mov	r2, r3
 907 0048 054B     		ldr	r3, .L48
 908 004a 83F83A20 		strb	r2, [r3, #58]
 565:u8glib_arm_v1.18.1\src/chessengine.c ****   lrc_obj.board[6] = cp_Construct(COLOR_WHITE, PIECE_QUEEN);
 909              		.loc 1 565 0
 910 004e 0020     		movs	r0, #0
 911 0050 0521     		movs	r1, #5
 912 0052 FFF7FEFF 		bl	cp_Construct
 913 0056 0346     		mov	r3, r0
 914 0058 1A46     		mov	r2, r3
 915 005a 014B     		ldr	r3, .L48
ARM GAS  C:\Users\KJA\AppData\Local\Temp\ccNNA7zi.s 			page 27


 916 005c 1A72     		strb	r2, [r3, #8]
 566:u8glib_arm_v1.18.1\src/chessengine.c **** } 
 917              		.loc 1 566 0
 918 005e 80BD     		pop	{r7, pc}
 919              	.L49:
 920              		.align	2
 921              	.L48:
 922 0060 00000000 		.word	lrc_obj
 923              		.cfi_endproc
 924              	.LFE15:
 925              		.size	chess_SetupBoardTest01, .-chess_SetupBoardTest01
 926              		.section	.text.chess_SetupBoard,"ax",%progbits
 927              		.align	2
 928              		.global	chess_SetupBoard
 929              		.thumb
 930              		.thumb_func
 931              		.type	chess_SetupBoard, %function
 932              	chess_SetupBoard:
 933              	.LFB16:
 567:u8glib_arm_v1.18.1\src/chessengine.c **** 
 568:u8glib_arm_v1.18.1\src/chessengine.c **** /* setup the global board */
 569:u8glib_arm_v1.18.1\src/chessengine.c **** void chess_SetupBoard(void)
 570:u8glib_arm_v1.18.1\src/chessengine.c **** {
 934              		.loc 1 570 0
 935              		.cfi_startproc
 936              		@ args = 0, pretend = 0, frame = 8
 937              		@ frame_needed = 1, uses_anonymous_args = 0
 938 0000 B0B5     		push	{r4, r5, r7, lr}
 939              		.cfi_def_cfa_offset 16
 940              		.cfi_offset 4, -16
 941              		.cfi_offset 5, -12
 942              		.cfi_offset 7, -8
 943              		.cfi_offset 14, -4
 944 0002 82B0     		sub	sp, sp, #8
 945              		.cfi_def_cfa_offset 24
 946 0004 00AF     		add	r7, sp, #0
 947              		.cfi_def_cfa_register 7
 571:u8glib_arm_v1.18.1\src/chessengine.c ****   uint8_t i;
 572:u8glib_arm_v1.18.1\src/chessengine.c ****   register uint8_t bp, wp;
 573:u8glib_arm_v1.18.1\src/chessengine.c ****   
 574:u8glib_arm_v1.18.1\src/chessengine.c ****   /* clear the board */
 575:u8glib_arm_v1.18.1\src/chessengine.c ****   cu_ClearBoard();
 948              		.loc 1 575 0
 949 0006 FFF7FEFF 		bl	cu_ClearBoard
 576:u8glib_arm_v1.18.1\src/chessengine.c ****   
 577:u8glib_arm_v1.18.1\src/chessengine.c ****   /* precronstruct pawns */
 578:u8glib_arm_v1.18.1\src/chessengine.c ****   wp = cp_Construct(COLOR_WHITE, PIECE_PAWN);
 950              		.loc 1 578 0
 951 000a 0020     		movs	r0, #0
 952 000c 0121     		movs	r1, #1
 953 000e FFF7FEFF 		bl	cp_Construct
 954 0012 0346     		mov	r3, r0
 955 0014 1C46     		mov	r4, r3
 579:u8glib_arm_v1.18.1\src/chessengine.c ****   bp = cp_Construct(COLOR_BLACK, PIECE_PAWN);
 956              		.loc 1 579 0
 957 0016 0120     		movs	r0, #1
 958 0018 0121     		movs	r1, #1
ARM GAS  C:\Users\KJA\AppData\Local\Temp\ccNNA7zi.s 			page 28


 959 001a FFF7FEFF 		bl	cp_Construct
 960 001e 0346     		mov	r3, r0
 961 0020 1D46     		mov	r5, r3
 580:u8glib_arm_v1.18.1\src/chessengine.c ****   
 581:u8glib_arm_v1.18.1\src/chessengine.c ****   /* setup pawn */
 582:u8glib_arm_v1.18.1\src/chessengine.c ****   for( i = 0; i < 8; i++ )
 962              		.loc 1 582 0
 963 0022 0023     		movs	r3, #0
 964 0024 FB71     		strb	r3, [r7, #7]
 965 0026 0EE0     		b	.L51
 966              	.L52:
 583:u8glib_arm_v1.18.1\src/chessengine.c ****   {
 584:u8glib_arm_v1.18.1\src/chessengine.c ****     lrc_obj.board[i+8] = wp;
 967              		.loc 1 584 0 discriminator 3
 968 0028 FB79     		ldrb	r3, [r7, #7]	@ zero_extendqisi2
 969 002a 0833     		adds	r3, r3, #8
 970 002c 4D4A     		ldr	r2, .L53
 971 002e 1344     		add	r3, r3, r2
 972 0030 2246     		mov	r2, r4
 973 0032 9A70     		strb	r2, [r3, #2]
 585:u8glib_arm_v1.18.1\src/chessengine.c ****     lrc_obj.board[i+6*8] = bp;
 974              		.loc 1 585 0 discriminator 3
 975 0034 FB79     		ldrb	r3, [r7, #7]	@ zero_extendqisi2
 976 0036 3033     		adds	r3, r3, #48
 977 0038 4A4A     		ldr	r2, .L53
 978 003a 1344     		add	r3, r3, r2
 979 003c 2A46     		mov	r2, r5
 980 003e 9A70     		strb	r2, [r3, #2]
 582:u8glib_arm_v1.18.1\src/chessengine.c ****   {
 981              		.loc 1 582 0 discriminator 3
 982 0040 FB79     		ldrb	r3, [r7, #7]	@ zero_extendqisi2
 983 0042 0133     		adds	r3, r3, #1
 984 0044 FB71     		strb	r3, [r7, #7]
 985              	.L51:
 582:u8glib_arm_v1.18.1\src/chessengine.c ****   {
 986              		.loc 1 582 0 is_stmt 0 discriminator 1
 987 0046 FB79     		ldrb	r3, [r7, #7]	@ zero_extendqisi2
 988 0048 072B     		cmp	r3, #7
 989 004a EDD9     		bls	.L52
 586:u8glib_arm_v1.18.1\src/chessengine.c ****   }
 587:u8glib_arm_v1.18.1\src/chessengine.c ****   
 588:u8glib_arm_v1.18.1\src/chessengine.c ****   /* assign remaining pieces */
 589:u8glib_arm_v1.18.1\src/chessengine.c ****   
 590:u8glib_arm_v1.18.1\src/chessengine.c ****   lrc_obj.board[0] = cp_Construct(COLOR_WHITE, PIECE_ROOK);
 990              		.loc 1 590 0 is_stmt 1
 991 004c 0020     		movs	r0, #0
 992 004e 0421     		movs	r1, #4
 993 0050 FFF7FEFF 		bl	cp_Construct
 994 0054 0346     		mov	r3, r0
 995 0056 1A46     		mov	r2, r3
 996 0058 424B     		ldr	r3, .L53
 997 005a 9A70     		strb	r2, [r3, #2]
 591:u8glib_arm_v1.18.1\src/chessengine.c ****   lrc_obj.board[1] = cp_Construct(COLOR_WHITE, PIECE_KNIGHT);
 998              		.loc 1 591 0
 999 005c 0020     		movs	r0, #0
 1000 005e 0221     		movs	r1, #2
 1001 0060 FFF7FEFF 		bl	cp_Construct
ARM GAS  C:\Users\KJA\AppData\Local\Temp\ccNNA7zi.s 			page 29


 1002 0064 0346     		mov	r3, r0
 1003 0066 1A46     		mov	r2, r3
 1004 0068 3E4B     		ldr	r3, .L53
 1005 006a DA70     		strb	r2, [r3, #3]
 592:u8glib_arm_v1.18.1\src/chessengine.c ****   lrc_obj.board[2] = cp_Construct(COLOR_WHITE, PIECE_BISHOP);
 1006              		.loc 1 592 0
 1007 006c 0020     		movs	r0, #0
 1008 006e 0321     		movs	r1, #3
 1009 0070 FFF7FEFF 		bl	cp_Construct
 1010 0074 0346     		mov	r3, r0
 1011 0076 1A46     		mov	r2, r3
 1012 0078 3A4B     		ldr	r3, .L53
 1013 007a 1A71     		strb	r2, [r3, #4]
 593:u8glib_arm_v1.18.1\src/chessengine.c ****   lrc_obj.board[3] = cp_Construct(COLOR_WHITE, PIECE_QUEEN);
 1014              		.loc 1 593 0
 1015 007c 0020     		movs	r0, #0
 1016 007e 0521     		movs	r1, #5
 1017 0080 FFF7FEFF 		bl	cp_Construct
 1018 0084 0346     		mov	r3, r0
 1019 0086 1A46     		mov	r2, r3
 1020 0088 364B     		ldr	r3, .L53
 1021 008a 5A71     		strb	r2, [r3, #5]
 594:u8glib_arm_v1.18.1\src/chessengine.c ****   lrc_obj.board[4] = cp_Construct(COLOR_WHITE, PIECE_KING);
 1022              		.loc 1 594 0
 1023 008c 0020     		movs	r0, #0
 1024 008e 0621     		movs	r1, #6
 1025 0090 FFF7FEFF 		bl	cp_Construct
 1026 0094 0346     		mov	r3, r0
 1027 0096 1A46     		mov	r2, r3
 1028 0098 324B     		ldr	r3, .L53
 1029 009a 9A71     		strb	r2, [r3, #6]
 595:u8glib_arm_v1.18.1\src/chessengine.c ****   lrc_obj.board[5] = cp_Construct(COLOR_WHITE, PIECE_BISHOP);
 1030              		.loc 1 595 0
 1031 009c 0020     		movs	r0, #0
 1032 009e 0321     		movs	r1, #3
 1033 00a0 FFF7FEFF 		bl	cp_Construct
 1034 00a4 0346     		mov	r3, r0
 1035 00a6 1A46     		mov	r2, r3
 1036 00a8 2E4B     		ldr	r3, .L53
 1037 00aa DA71     		strb	r2, [r3, #7]
 596:u8glib_arm_v1.18.1\src/chessengine.c ****   lrc_obj.board[6] = cp_Construct(COLOR_WHITE, PIECE_KNIGHT);
 1038              		.loc 1 596 0
 1039 00ac 0020     		movs	r0, #0
 1040 00ae 0221     		movs	r1, #2
 1041 00b0 FFF7FEFF 		bl	cp_Construct
 1042 00b4 0346     		mov	r3, r0
 1043 00b6 1A46     		mov	r2, r3
 1044 00b8 2A4B     		ldr	r3, .L53
 1045 00ba 1A72     		strb	r2, [r3, #8]
 597:u8glib_arm_v1.18.1\src/chessengine.c ****   lrc_obj.board[7] = cp_Construct(COLOR_WHITE, PIECE_ROOK);
 1046              		.loc 1 597 0
 1047 00bc 0020     		movs	r0, #0
 1048 00be 0421     		movs	r1, #4
 1049 00c0 FFF7FEFF 		bl	cp_Construct
 1050 00c4 0346     		mov	r3, r0
 1051 00c6 1A46     		mov	r2, r3
 1052 00c8 264B     		ldr	r3, .L53
ARM GAS  C:\Users\KJA\AppData\Local\Temp\ccNNA7zi.s 			page 30


 1053 00ca 5A72     		strb	r2, [r3, #9]
 598:u8glib_arm_v1.18.1\src/chessengine.c **** 
 599:u8glib_arm_v1.18.1\src/chessengine.c ****   lrc_obj.board[0+7*8] = cp_Construct(COLOR_BLACK, PIECE_ROOK);
 1054              		.loc 1 599 0
 1055 00cc 0120     		movs	r0, #1
 1056 00ce 0421     		movs	r1, #4
 1057 00d0 FFF7FEFF 		bl	cp_Construct
 1058 00d4 0346     		mov	r3, r0
 1059 00d6 1A46     		mov	r2, r3
 1060 00d8 224B     		ldr	r3, .L53
 1061 00da 83F83A20 		strb	r2, [r3, #58]
 600:u8glib_arm_v1.18.1\src/chessengine.c ****   lrc_obj.board[1+7*8] = cp_Construct(COLOR_BLACK, PIECE_KNIGHT);
 1062              		.loc 1 600 0
 1063 00de 0120     		movs	r0, #1
 1064 00e0 0221     		movs	r1, #2
 1065 00e2 FFF7FEFF 		bl	cp_Construct
 1066 00e6 0346     		mov	r3, r0
 1067 00e8 1A46     		mov	r2, r3
 1068 00ea 1E4B     		ldr	r3, .L53
 1069 00ec 83F83B20 		strb	r2, [r3, #59]
 601:u8glib_arm_v1.18.1\src/chessengine.c ****   lrc_obj.board[2+7*8] = cp_Construct(COLOR_BLACK, PIECE_BISHOP);
 1070              		.loc 1 601 0
 1071 00f0 0120     		movs	r0, #1
 1072 00f2 0321     		movs	r1, #3
 1073 00f4 FFF7FEFF 		bl	cp_Construct
 1074 00f8 0346     		mov	r3, r0
 1075 00fa 1A46     		mov	r2, r3
 1076 00fc 194B     		ldr	r3, .L53
 1077 00fe 83F83C20 		strb	r2, [r3, #60]
 602:u8glib_arm_v1.18.1\src/chessengine.c ****   lrc_obj.board[3+7*8] = cp_Construct(COLOR_BLACK, PIECE_QUEEN);
 1078              		.loc 1 602 0
 1079 0102 0120     		movs	r0, #1
 1080 0104 0521     		movs	r1, #5
 1081 0106 FFF7FEFF 		bl	cp_Construct
 1082 010a 0346     		mov	r3, r0
 1083 010c 1A46     		mov	r2, r3
 1084 010e 154B     		ldr	r3, .L53
 1085 0110 83F83D20 		strb	r2, [r3, #61]
 603:u8glib_arm_v1.18.1\src/chessengine.c ****   lrc_obj.board[4+7*8] = cp_Construct(COLOR_BLACK, PIECE_KING);
 1086              		.loc 1 603 0
 1087 0114 0120     		movs	r0, #1
 1088 0116 0621     		movs	r1, #6
 1089 0118 FFF7FEFF 		bl	cp_Construct
 1090 011c 0346     		mov	r3, r0
 1091 011e 1A46     		mov	r2, r3
 1092 0120 104B     		ldr	r3, .L53
 1093 0122 83F83E20 		strb	r2, [r3, #62]
 604:u8glib_arm_v1.18.1\src/chessengine.c ****   lrc_obj.board[5+7*8] = cp_Construct(COLOR_BLACK, PIECE_BISHOP);
 1094              		.loc 1 604 0
 1095 0126 0120     		movs	r0, #1
 1096 0128 0321     		movs	r1, #3
 1097 012a FFF7FEFF 		bl	cp_Construct
 1098 012e 0346     		mov	r3, r0
 1099 0130 1A46     		mov	r2, r3
 1100 0132 0C4B     		ldr	r3, .L53
 1101 0134 83F83F20 		strb	r2, [r3, #63]
 605:u8glib_arm_v1.18.1\src/chessengine.c ****   lrc_obj.board[6+7*8] = cp_Construct(COLOR_BLACK, PIECE_KNIGHT);
ARM GAS  C:\Users\KJA\AppData\Local\Temp\ccNNA7zi.s 			page 31


 1102              		.loc 1 605 0
 1103 0138 0120     		movs	r0, #1
 1104 013a 0221     		movs	r1, #2
 1105 013c FFF7FEFF 		bl	cp_Construct
 1106 0140 0346     		mov	r3, r0
 1107 0142 1A46     		mov	r2, r3
 1108 0144 074B     		ldr	r3, .L53
 1109 0146 83F84020 		strb	r2, [r3, #64]
 606:u8glib_arm_v1.18.1\src/chessengine.c ****   lrc_obj.board[7+7*8] = cp_Construct(COLOR_BLACK, PIECE_ROOK);
 1110              		.loc 1 606 0
 1111 014a 0120     		movs	r0, #1
 1112 014c 0421     		movs	r1, #4
 1113 014e FFF7FEFF 		bl	cp_Construct
 1114 0152 0346     		mov	r3, r0
 1115 0154 1A46     		mov	r2, r3
 1116 0156 034B     		ldr	r3, .L53
 1117 0158 83F84120 		strb	r2, [r3, #65]
 607:u8glib_arm_v1.18.1\src/chessengine.c **** 
 608:u8glib_arm_v1.18.1\src/chessengine.c ****   //chess_SetupBoardTest01();
 609:u8glib_arm_v1.18.1\src/chessengine.c **** 
 610:u8glib_arm_v1.18.1\src/chessengine.c **** }
 1118              		.loc 1 610 0
 1119 015c 0837     		adds	r7, r7, #8
 1120              		.cfi_def_cfa_offset 16
 1121 015e BD46     		mov	sp, r7
 1122              		.cfi_def_cfa_register 13
 1123              		@ sp needed
 1124 0160 B0BD     		pop	{r4, r5, r7, pc}
 1125              	.L54:
 1126 0162 00BF     		.align	2
 1127              	.L53:
 1128 0164 00000000 		.word	lrc_obj
 1129              		.cfi_endproc
 1130              	.LFE16:
 1131              		.size	chess_SetupBoard, .-chess_SetupBoard
 1132              		.section	.text.cu_IsIllegalPosition,"ax",%progbits
 1133              		.align	2
 1134              		.global	cu_IsIllegalPosition
 1135              		.thumb
 1136              		.thumb_func
 1137              		.type	cu_IsIllegalPosition, %function
 1138              	cu_IsIllegalPosition:
 1139              	.LFB17:
 611:u8glib_arm_v1.18.1\src/chessengine.c **** 
 612:u8glib_arm_v1.18.1\src/chessengine.c **** 
 613:u8glib_arm_v1.18.1\src/chessengine.c **** 
 614:u8glib_arm_v1.18.1\src/chessengine.c **** /*==============================================================*/
 615:u8glib_arm_v1.18.1\src/chessengine.c **** /* checks */
 616:u8glib_arm_v1.18.1\src/chessengine.c **** /*==============================================================*/
 617:u8glib_arm_v1.18.1\src/chessengine.c **** 
 618:u8glib_arm_v1.18.1\src/chessengine.c **** /*
 619:u8glib_arm_v1.18.1\src/chessengine.c ****   checks if the position is somehow illegal
 620:u8glib_arm_v1.18.1\src/chessengine.c **** */
 621:u8glib_arm_v1.18.1\src/chessengine.c **** uint8_t cu_IsIllegalPosition(uint8_t pos, uint8_t my_color)
 622:u8glib_arm_v1.18.1\src/chessengine.c **** {
 1140              		.loc 1 622 0
 1141              		.cfi_startproc
ARM GAS  C:\Users\KJA\AppData\Local\Temp\ccNNA7zi.s 			page 32


 1142              		@ args = 0, pretend = 0, frame = 16
 1143              		@ frame_needed = 1, uses_anonymous_args = 0
 1144 0000 80B5     		push	{r7, lr}
 1145              		.cfi_def_cfa_offset 8
 1146              		.cfi_offset 7, -8
 1147              		.cfi_offset 14, -4
 1148 0002 84B0     		sub	sp, sp, #16
 1149              		.cfi_def_cfa_offset 24
 1150 0004 00AF     		add	r7, sp, #0
 1151              		.cfi_def_cfa_register 7
 1152 0006 0346     		mov	r3, r0
 1153 0008 0A46     		mov	r2, r1
 1154 000a FB71     		strb	r3, [r7, #7]
 1155 000c 1346     		mov	r3, r2
 1156 000e BB71     		strb	r3, [r7, #6]
 623:u8glib_arm_v1.18.1\src/chessengine.c ****   uint8_t board_cp;
 624:u8glib_arm_v1.18.1\src/chessengine.c ****   /* check, if the position is offboard */
 625:u8glib_arm_v1.18.1\src/chessengine.c ****   if ( gpos_IsIllegal(pos) != 0 )
 1157              		.loc 1 625 0
 1158 0010 FB79     		ldrb	r3, [r7, #7]	@ zero_extendqisi2
 1159 0012 03F08803 		and	r3, r3, #136
 1160 0016 002B     		cmp	r3, #0
 1161 0018 01D0     		beq	.L56
 626:u8glib_arm_v1.18.1\src/chessengine.c ****     return 1;
 1162              		.loc 1 626 0
 1163 001a 0123     		movs	r3, #1
 1164 001c 14E0     		b	.L57
 1165              	.L56:
 627:u8glib_arm_v1.18.1\src/chessengine.c ****   /* get the piece from the board */
 628:u8glib_arm_v1.18.1\src/chessengine.c ****   board_cp = cp_GetFromBoard(pos);
 1166              		.loc 1 628 0
 1167 001e FB79     		ldrb	r3, [r7, #7]	@ zero_extendqisi2
 1168 0020 1846     		mov	r0, r3
 1169 0022 FFF7FEFF 		bl	cp_GetFromBoard
 1170 0026 0346     		mov	r3, r0
 1171 0028 FB73     		strb	r3, [r7, #15]
 629:u8glib_arm_v1.18.1\src/chessengine.c ****   /* check if hit our own pieces */
 630:u8glib_arm_v1.18.1\src/chessengine.c ****   if ( board_cp != 0 ) 
 1172              		.loc 1 630 0
 1173 002a FB7B     		ldrb	r3, [r7, #15]	@ zero_extendqisi2
 1174 002c 002B     		cmp	r3, #0
 1175 002e 0AD0     		beq	.L58
 631:u8glib_arm_v1.18.1\src/chessengine.c ****     if ( cp_GetColor(board_cp) == my_color )
 1176              		.loc 1 631 0
 1177 0030 FB7B     		ldrb	r3, [r7, #15]	@ zero_extendqisi2
 1178 0032 1846     		mov	r0, r3
 1179 0034 FFF7FEFF 		bl	cp_GetColor
 1180 0038 0346     		mov	r3, r0
 1181 003a 1A46     		mov	r2, r3
 1182 003c BB79     		ldrb	r3, [r7, #6]	@ zero_extendqisi2
 1183 003e 9342     		cmp	r3, r2
 1184 0040 01D1     		bne	.L58
 632:u8glib_arm_v1.18.1\src/chessengine.c ****       return 1;
 1185              		.loc 1 632 0
 1186 0042 0123     		movs	r3, #1
 1187 0044 00E0     		b	.L57
 1188              	.L58:
ARM GAS  C:\Users\KJA\AppData\Local\Temp\ccNNA7zi.s 			page 33


 633:u8glib_arm_v1.18.1\src/chessengine.c ****   /* all ok, we could go to this position */
 634:u8glib_arm_v1.18.1\src/chessengine.c ****   return 0;
 1189              		.loc 1 634 0
 1190 0046 0023     		movs	r3, #0
 1191              	.L57:
 635:u8glib_arm_v1.18.1\src/chessengine.c **** }
 1192              		.loc 1 635 0
 1193 0048 1846     		mov	r0, r3
 1194 004a 1037     		adds	r7, r7, #16
 1195              		.cfi_def_cfa_offset 8
 1196 004c BD46     		mov	sp, r7
 1197              		.cfi_def_cfa_register 13
 1198              		@ sp needed
 1199 004e 80BD     		pop	{r7, pc}
 1200              		.cfi_endproc
 1201              	.LFE17:
 1202              		.size	cu_IsIllegalPosition, .-cu_IsIllegalPosition
 1203              		.global	ce_piece_weight
 1204              		.data
 1205              		.align	2
 1206              		.type	ce_piece_weight, %object
 1207              		.size	ce_piece_weight, 7
 1208              	ce_piece_weight:
 1209 0000 00       		.byte	0
 1210 0001 01       		.byte	1
 1211 0002 03       		.byte	3
 1212 0003 03       		.byte	3
 1213 0004 05       		.byte	5
 1214 0005 09       		.byte	9
 1215 0006 00       		.byte	0
 1216              		.global	ce_pos_weight
 1217 0007 00       		.align	2
 1218              		.type	ce_pos_weight, %object
 1219              		.size	ce_pos_weight, 8
 1220              	ce_pos_weight:
 1221 0008 00       		.byte	0
 1222 0009 01       		.byte	1
 1223 000a 01       		.byte	1
 1224 000b 02       		.byte	2
 1225 000c 02       		.byte	2
 1226 000d 01       		.byte	1
 1227 000e 01       		.byte	1
 1228 000f 00       		.byte	0
 1229              		.section	.text.ce_Eval,"ax",%progbits
 1230              		.align	2
 1231              		.global	ce_Eval
 1232              		.thumb
 1233              		.thumb_func
 1234              		.type	ce_Eval, %function
 1235              	ce_Eval:
 1236              	.LFB18:
 636:u8glib_arm_v1.18.1\src/chessengine.c **** 
 637:u8glib_arm_v1.18.1\src/chessengine.c **** /*==============================================================*/
 638:u8glib_arm_v1.18.1\src/chessengine.c **** /* evaluation procedure */
 639:u8glib_arm_v1.18.1\src/chessengine.c **** /*==============================================================*/
 640:u8glib_arm_v1.18.1\src/chessengine.c **** 
 641:u8glib_arm_v1.18.1\src/chessengine.c **** /*
ARM GAS  C:\Users\KJA\AppData\Local\Temp\ccNNA7zi.s 			page 34


 642:u8glib_arm_v1.18.1\src/chessengine.c ****   basic idea is to return a value between EVAL_T_MIN and EVAL_T_MAX
 643:u8glib_arm_v1.18.1\src/chessengine.c **** */
 644:u8glib_arm_v1.18.1\src/chessengine.c **** 
 645:u8glib_arm_v1.18.1\src/chessengine.c **** /*
 646:u8glib_arm_v1.18.1\src/chessengine.c ****   the weight table uses the PIECE number as index:
 647:u8glib_arm_v1.18.1\src/chessengine.c ****       #define PIECE_NONE	0
 648:u8glib_arm_v1.18.1\src/chessengine.c ****       #define PIECE_PAWN 	1
 649:u8glib_arm_v1.18.1\src/chessengine.c ****       #define PIECE_KNIGHT  	2
 650:u8glib_arm_v1.18.1\src/chessengine.c ****       #define PIECE_BISHOP 	3
 651:u8glib_arm_v1.18.1\src/chessengine.c ****       #define PIECE_ROOK	4
 652:u8glib_arm_v1.18.1\src/chessengine.c ****       #define PIECE_QUEEN 	5
 653:u8glib_arm_v1.18.1\src/chessengine.c ****       #define PIECE_KING		6
 654:u8glib_arm_v1.18.1\src/chessengine.c ****   the king itself is not counted
 655:u8glib_arm_v1.18.1\src/chessengine.c **** */
 656:u8glib_arm_v1.18.1\src/chessengine.c **** uint8_t ce_piece_weight[] = { 0, 1, 3, 3, 5, 9, 0 };
 657:u8glib_arm_v1.18.1\src/chessengine.c **** uint8_t ce_pos_weight[] = { 0, 1, 1, 2, 2, 1, 1, 0};
 658:u8glib_arm_v1.18.1\src/chessengine.c **** /*
 659:u8glib_arm_v1.18.1\src/chessengine.c ****   evaluate the current situation on the global board
 660:u8glib_arm_v1.18.1\src/chessengine.c **** */
 661:u8glib_arm_v1.18.1\src/chessengine.c **** eval_t ce_Eval(void)
 662:u8glib_arm_v1.18.1\src/chessengine.c **** {
 1237              		.loc 1 662 0
 1238              		.cfi_startproc
 1239              		@ args = 0, pretend = 0, frame = 16
 1240              		@ frame_needed = 1, uses_anonymous_args = 0
 1241 0000 90B5     		push	{r4, r7, lr}
 1242              		.cfi_def_cfa_offset 12
 1243              		.cfi_offset 4, -12
 1244              		.cfi_offset 7, -8
 1245              		.cfi_offset 14, -4
 1246 0002 85B0     		sub	sp, sp, #20
 1247              		.cfi_def_cfa_offset 32
 1248 0004 00AF     		add	r7, sp, #0
 1249              		.cfi_def_cfa_register 7
 663:u8glib_arm_v1.18.1\src/chessengine.c ****   uint8_t cp;
 664:u8glib_arm_v1.18.1\src/chessengine.c ****   uint8_t is_my_king_present = 0;
 1250              		.loc 1 664 0
 1251 0006 0023     		movs	r3, #0
 1252 0008 FB73     		strb	r3, [r7, #15]
 665:u8glib_arm_v1.18.1\src/chessengine.c ****   uint8_t is_opposit_king_present = 0;
 1253              		.loc 1 665 0
 1254 000a 0023     		movs	r3, #0
 1255 000c BB73     		strb	r3, [r7, #14]
 666:u8glib_arm_v1.18.1\src/chessengine.c ****   eval_t material_my_color = 0;
 1256              		.loc 1 666 0
 1257 000e 0023     		movs	r3, #0
 1258 0010 BB81     		strh	r3, [r7, #12]	@ movhi
 667:u8glib_arm_v1.18.1\src/chessengine.c ****   eval_t material_opposit_color = 0;
 1259              		.loc 1 667 0
 1260 0012 0023     		movs	r3, #0
 1261 0014 7B81     		strh	r3, [r7, #10]	@ movhi
 668:u8glib_arm_v1.18.1\src/chessengine.c ****   eval_t position_my_color = 0;
 1262              		.loc 1 668 0
 1263 0016 0023     		movs	r3, #0
 1264 0018 3B81     		strh	r3, [r7, #8]	@ movhi
 669:u8glib_arm_v1.18.1\src/chessengine.c ****   eval_t position_opposit_color = 0;
 1265              		.loc 1 669 0
ARM GAS  C:\Users\KJA\AppData\Local\Temp\ccNNA7zi.s 			page 35


 1266 001a 0023     		movs	r3, #0
 1267 001c FB80     		strh	r3, [r7, #6]	@ movhi
 670:u8glib_arm_v1.18.1\src/chessengine.c ****   eval_t result;
 671:u8glib_arm_v1.18.1\src/chessengine.c ****   uint8_t pos;
 672:u8glib_arm_v1.18.1\src/chessengine.c ****   
 673:u8glib_arm_v1.18.1\src/chessengine.c ****   pos = 0;
 1268              		.loc 1 673 0
 1269 001e 0023     		movs	r3, #0
 1270 0020 7B71     		strb	r3, [r7, #5]
 1271              	.L67:
 674:u8glib_arm_v1.18.1\src/chessengine.c ****   do
 675:u8glib_arm_v1.18.1\src/chessengine.c ****   {
 676:u8glib_arm_v1.18.1\src/chessengine.c ****     /* get colored piece from the board */
 677:u8glib_arm_v1.18.1\src/chessengine.c ****     cp = cp_GetFromBoard(pos);
 1272              		.loc 1 677 0
 1273 0022 7B79     		ldrb	r3, [r7, #5]	@ zero_extendqisi2
 1274 0024 1846     		mov	r0, r3
 1275 0026 FFF7FEFF 		bl	cp_GetFromBoard
 1276 002a 0346     		mov	r3, r0
 1277 002c 3B71     		strb	r3, [r7, #4]
 678:u8glib_arm_v1.18.1\src/chessengine.c ****     
 679:u8glib_arm_v1.18.1\src/chessengine.c ****     if ( cp_GetPiece(cp) != PIECE_NONE )
 1278              		.loc 1 679 0
 1279 002e 3B79     		ldrb	r3, [r7, #4]	@ zero_extendqisi2
 1280 0030 1846     		mov	r0, r3
 1281 0032 FFF7FEFF 		bl	cp_GetPiece
 1282 0036 0346     		mov	r3, r0
 1283 0038 002B     		cmp	r3, #0
 1284 003a 7DD0     		beq	.L60
 680:u8glib_arm_v1.18.1\src/chessengine.c ****     {
 681:u8glib_arm_v1.18.1\src/chessengine.c ****       if ( stack_GetCurrElement()->current_color == cp_GetColor(cp) )
 1285              		.loc 1 681 0
 1286 003c FFF7FEFF 		bl	stack_GetCurrElement
 1287 0040 0346     		mov	r3, r0
 1288 0042 9C78     		ldrb	r4, [r3, #2]	@ zero_extendqisi2
 1289 0044 3B79     		ldrb	r3, [r7, #4]	@ zero_extendqisi2
 1290 0046 1846     		mov	r0, r3
 1291 0048 FFF7FEFF 		bl	cp_GetColor
 1292 004c 0346     		mov	r3, r0
 1293 004e 9C42     		cmp	r4, r3
 1294 0050 39D1     		bne	.L61
 682:u8glib_arm_v1.18.1\src/chessengine.c ****       {
 683:u8glib_arm_v1.18.1\src/chessengine.c **** 	/* this is our color */
 684:u8glib_arm_v1.18.1\src/chessengine.c **** 	/* check if we found our king */
 685:u8glib_arm_v1.18.1\src/chessengine.c **** 	if ( cp_GetPiece(cp) == PIECE_KING  )
 1295              		.loc 1 685 0
 1296 0052 3B79     		ldrb	r3, [r7, #4]	@ zero_extendqisi2
 1297 0054 1846     		mov	r0, r3
 1298 0056 FFF7FEFF 		bl	cp_GetPiece
 1299 005a 0346     		mov	r3, r0
 1300 005c 062B     		cmp	r3, #6
 1301 005e 01D1     		bne	.L62
 686:u8glib_arm_v1.18.1\src/chessengine.c **** 	  is_my_king_present = 1;
 1302              		.loc 1 686 0
 1303 0060 0123     		movs	r3, #1
 1304 0062 FB73     		strb	r3, [r7, #15]
 1305              	.L62:
ARM GAS  C:\Users\KJA\AppData\Local\Temp\ccNNA7zi.s 			page 36


 687:u8glib_arm_v1.18.1\src/chessengine.c **** 	material_my_color += ce_piece_weight[cp_GetPiece(cp)];
 1306              		.loc 1 687 0
 1307 0064 3B79     		ldrb	r3, [r7, #4]	@ zero_extendqisi2
 1308 0066 1846     		mov	r0, r3
 1309 0068 FFF7FEFF 		bl	cp_GetPiece
 1310 006c 0346     		mov	r3, r0
 1311 006e 1A46     		mov	r2, r3
 1312 0070 484B     		ldr	r3, .L71
 1313 0072 9B5C     		ldrb	r3, [r3, r2]	@ zero_extendqisi2
 1314 0074 9AB2     		uxth	r2, r3
 1315 0076 BB89     		ldrh	r3, [r7, #12]
 1316 0078 1344     		add	r3, r3, r2
 1317 007a 9BB2     		uxth	r3, r3
 1318 007c BB81     		strh	r3, [r7, #12]	@ movhi
 688:u8glib_arm_v1.18.1\src/chessengine.c **** 	if ( cp_GetPiece(cp) == PIECE_PAWN || cp_GetPiece(cp) == PIECE_KNIGHT  )
 1319              		.loc 1 688 0
 1320 007e 3B79     		ldrb	r3, [r7, #4]	@ zero_extendqisi2
 1321 0080 1846     		mov	r0, r3
 1322 0082 FFF7FEFF 		bl	cp_GetPiece
 1323 0086 0346     		mov	r3, r0
 1324 0088 012B     		cmp	r3, #1
 1325 008a 06D0     		beq	.L63
 1326              		.loc 1 688 0 is_stmt 0 discriminator 1
 1327 008c 3B79     		ldrb	r3, [r7, #4]	@ zero_extendqisi2
 1328 008e 1846     		mov	r0, r3
 1329 0090 FFF7FEFF 		bl	cp_GetPiece
 1330 0094 0346     		mov	r3, r0
 1331 0096 022B     		cmp	r3, #2
 1332 0098 4ED1     		bne	.L60
 1333              	.L63:
 689:u8glib_arm_v1.18.1\src/chessengine.c **** 	{
 690:u8glib_arm_v1.18.1\src/chessengine.c **** 	  position_my_color += ce_pos_weight[pos&7]*ce_pos_weight[(pos>>4)&7];
 1334              		.loc 1 690 0 is_stmt 1
 1335 009a 7B79     		ldrb	r3, [r7, #5]	@ zero_extendqisi2
 1336 009c 03F00703 		and	r3, r3, #7
 1337 00a0 3D4A     		ldr	r2, .L71+4
 1338 00a2 D35C     		ldrb	r3, [r2, r3]	@ zero_extendqisi2
 1339 00a4 9BB2     		uxth	r3, r3
 1340 00a6 7A79     		ldrb	r2, [r7, #5]	@ zero_extendqisi2
 1341 00a8 1209     		lsrs	r2, r2, #4
 1342 00aa D2B2     		uxtb	r2, r2
 1343 00ac 02F00702 		and	r2, r2, #7
 1344 00b0 3949     		ldr	r1, .L71+4
 1345 00b2 8A5C     		ldrb	r2, [r1, r2]	@ zero_extendqisi2
 1346 00b4 92B2     		uxth	r2, r2
 1347 00b6 02FB03F3 		mul	r3, r2, r3
 1348 00ba 9AB2     		uxth	r2, r3
 1349 00bc 3B89     		ldrh	r3, [r7, #8]
 1350 00be 1344     		add	r3, r3, r2
 1351 00c0 9BB2     		uxth	r3, r3
 1352 00c2 3B81     		strh	r3, [r7, #8]	@ movhi
 1353 00c4 38E0     		b	.L60
 1354              	.L61:
 691:u8glib_arm_v1.18.1\src/chessengine.c **** 	}
 692:u8glib_arm_v1.18.1\src/chessengine.c ****       }
 693:u8glib_arm_v1.18.1\src/chessengine.c ****       else
 694:u8glib_arm_v1.18.1\src/chessengine.c ****       {
ARM GAS  C:\Users\KJA\AppData\Local\Temp\ccNNA7zi.s 			page 37


 695:u8glib_arm_v1.18.1\src/chessengine.c **** 	/* this is the opposit color */
 696:u8glib_arm_v1.18.1\src/chessengine.c **** 	if ( cp_GetPiece(cp) == PIECE_KING  )
 1355              		.loc 1 696 0
 1356 00c6 3B79     		ldrb	r3, [r7, #4]	@ zero_extendqisi2
 1357 00c8 1846     		mov	r0, r3
 1358 00ca FFF7FEFF 		bl	cp_GetPiece
 1359 00ce 0346     		mov	r3, r0
 1360 00d0 062B     		cmp	r3, #6
 1361 00d2 01D1     		bne	.L65
 697:u8glib_arm_v1.18.1\src/chessengine.c **** 	  is_opposit_king_present = 1;
 1362              		.loc 1 697 0
 1363 00d4 0123     		movs	r3, #1
 1364 00d6 BB73     		strb	r3, [r7, #14]
 1365              	.L65:
 698:u8glib_arm_v1.18.1\src/chessengine.c **** 	material_opposit_color += ce_piece_weight[cp_GetPiece(cp)];
 1366              		.loc 1 698 0
 1367 00d8 3B79     		ldrb	r3, [r7, #4]	@ zero_extendqisi2
 1368 00da 1846     		mov	r0, r3
 1369 00dc FFF7FEFF 		bl	cp_GetPiece
 1370 00e0 0346     		mov	r3, r0
 1371 00e2 1A46     		mov	r2, r3
 1372 00e4 2B4B     		ldr	r3, .L71
 1373 00e6 9B5C     		ldrb	r3, [r3, r2]	@ zero_extendqisi2
 1374 00e8 9AB2     		uxth	r2, r3
 1375 00ea 7B89     		ldrh	r3, [r7, #10]
 1376 00ec 1344     		add	r3, r3, r2
 1377 00ee 9BB2     		uxth	r3, r3
 1378 00f0 7B81     		strh	r3, [r7, #10]	@ movhi
 699:u8glib_arm_v1.18.1\src/chessengine.c **** 	if ( cp_GetPiece(cp) == PIECE_PAWN || cp_GetPiece(cp) == PIECE_KNIGHT )
 1379              		.loc 1 699 0
 1380 00f2 3B79     		ldrb	r3, [r7, #4]	@ zero_extendqisi2
 1381 00f4 1846     		mov	r0, r3
 1382 00f6 FFF7FEFF 		bl	cp_GetPiece
 1383 00fa 0346     		mov	r3, r0
 1384 00fc 012B     		cmp	r3, #1
 1385 00fe 06D0     		beq	.L66
 1386              		.loc 1 699 0 is_stmt 0 discriminator 1
 1387 0100 3B79     		ldrb	r3, [r7, #4]	@ zero_extendqisi2
 1388 0102 1846     		mov	r0, r3
 1389 0104 FFF7FEFF 		bl	cp_GetPiece
 1390 0108 0346     		mov	r3, r0
 1391 010a 022B     		cmp	r3, #2
 1392 010c 14D1     		bne	.L60
 1393              	.L66:
 700:u8glib_arm_v1.18.1\src/chessengine.c **** 	{
 701:u8glib_arm_v1.18.1\src/chessengine.c **** 	  position_opposit_color += ce_pos_weight[pos&7]*ce_pos_weight[(pos>>4)&7];
 1394              		.loc 1 701 0 is_stmt 1
 1395 010e 7B79     		ldrb	r3, [r7, #5]	@ zero_extendqisi2
 1396 0110 03F00703 		and	r3, r3, #7
 1397 0114 204A     		ldr	r2, .L71+4
 1398 0116 D35C     		ldrb	r3, [r2, r3]	@ zero_extendqisi2
 1399 0118 9BB2     		uxth	r3, r3
 1400 011a 7A79     		ldrb	r2, [r7, #5]	@ zero_extendqisi2
 1401 011c 1209     		lsrs	r2, r2, #4
 1402 011e D2B2     		uxtb	r2, r2
 1403 0120 02F00702 		and	r2, r2, #7
 1404 0124 1C49     		ldr	r1, .L71+4
ARM GAS  C:\Users\KJA\AppData\Local\Temp\ccNNA7zi.s 			page 38


 1405 0126 8A5C     		ldrb	r2, [r1, r2]	@ zero_extendqisi2
 1406 0128 92B2     		uxth	r2, r2
 1407 012a 02FB03F3 		mul	r3, r2, r3
 1408 012e 9AB2     		uxth	r2, r3
 1409 0130 FB88     		ldrh	r3, [r7, #6]
 1410 0132 1344     		add	r3, r3, r2
 1411 0134 9BB2     		uxth	r3, r3
 1412 0136 FB80     		strh	r3, [r7, #6]	@ movhi
 1413              	.L60:
 702:u8glib_arm_v1.18.1\src/chessengine.c **** 	}
 703:u8glib_arm_v1.18.1\src/chessengine.c ****       }
 704:u8glib_arm_v1.18.1\src/chessengine.c ****     }
 705:u8glib_arm_v1.18.1\src/chessengine.c ****     pos = cu_NextPos(pos);
 1414              		.loc 1 705 0
 1415 0138 7B79     		ldrb	r3, [r7, #5]	@ zero_extendqisi2
 1416 013a 1846     		mov	r0, r3
 1417 013c FFF7FEFF 		bl	cu_NextPos
 1418 0140 0346     		mov	r3, r0
 1419 0142 7B71     		strb	r3, [r7, #5]
 706:u8glib_arm_v1.18.1\src/chessengine.c ****   } while( pos != 0 );
 1420              		.loc 1 706 0
 1421 0144 7B79     		ldrb	r3, [r7, #5]	@ zero_extendqisi2
 1422 0146 002B     		cmp	r3, #0
 1423 0148 7FF46BAF 		bne	.L67
 707:u8glib_arm_v1.18.1\src/chessengine.c **** 
 708:u8glib_arm_v1.18.1\src/chessengine.c ****     
 709:u8glib_arm_v1.18.1\src/chessengine.c ****   /* decide if we lost or won the game */
 710:u8glib_arm_v1.18.1\src/chessengine.c ****   if ( is_my_king_present == 0 )
 1424              		.loc 1 710 0
 1425 014c FB7B     		ldrb	r3, [r7, #15]	@ zero_extendqisi2
 1426 014e 002B     		cmp	r3, #0
 1427 0150 02D1     		bne	.L68
 711:u8glib_arm_v1.18.1\src/chessengine.c ****     return EVAL_T_MIN;	/*_LOST*/
 1428              		.loc 1 711 0
 1429 0152 48F20103 		movw	r3, #32769
 1430 0156 17E0     		b	.L69
 1431              	.L68:
 712:u8glib_arm_v1.18.1\src/chessengine.c ****   if ( is_opposit_king_present == 0 )
 1432              		.loc 1 712 0
 1433 0158 BB7B     		ldrb	r3, [r7, #14]	@ zero_extendqisi2
 1434 015a 002B     		cmp	r3, #0
 1435 015c 02D1     		bne	.L70
 713:u8glib_arm_v1.18.1\src/chessengine.c ****     return EVAL_T_MAX;	/*_WIN*/
 1436              		.loc 1 713 0
 1437 015e 47F6FF73 		movw	r3, #32767
 1438 0162 11E0     		b	.L69
 1439              	.L70:
 714:u8glib_arm_v1.18.1\src/chessengine.c ****   
 715:u8glib_arm_v1.18.1\src/chessengine.c ****   /* here is the evaluation function */
 716:u8glib_arm_v1.18.1\src/chessengine.c ****   
 717:u8glib_arm_v1.18.1\src/chessengine.c ****   result = material_my_color - material_opposit_color;
 1440              		.loc 1 717 0
 1441 0164 BA89     		ldrh	r2, [r7, #12]
 1442 0166 7B89     		ldrh	r3, [r7, #10]
 1443 0168 D31A     		subs	r3, r2, r3
 1444 016a 9BB2     		uxth	r3, r3
 1445 016c 7B80     		strh	r3, [r7, #2]	@ movhi
ARM GAS  C:\Users\KJA\AppData\Local\Temp\ccNNA7zi.s 			page 39


 718:u8glib_arm_v1.18.1\src/chessengine.c ****   result <<= 3;
 1446              		.loc 1 718 0
 1447 016e B7F90230 		ldrsh	r3, [r7, #2]
 1448 0172 DB00     		lsls	r3, r3, #3
 1449 0174 7B80     		strh	r3, [r7, #2]	@ movhi
 719:u8glib_arm_v1.18.1\src/chessengine.c ****   result += position_my_color - position_opposit_color;
 1450              		.loc 1 719 0
 1451 0176 3A89     		ldrh	r2, [r7, #8]
 1452 0178 FB88     		ldrh	r3, [r7, #6]
 1453 017a D31A     		subs	r3, r2, r3
 1454 017c 9AB2     		uxth	r2, r3
 1455 017e 7B88     		ldrh	r3, [r7, #2]
 1456 0180 1344     		add	r3, r3, r2
 1457 0182 9BB2     		uxth	r3, r3
 1458 0184 7B80     		strh	r3, [r7, #2]	@ movhi
 720:u8glib_arm_v1.18.1\src/chessengine.c ****   return result;
 1459              		.loc 1 720 0
 1460 0186 7B88     		ldrh	r3, [r7, #2]
 1461              	.L69:
 1462 0188 1BB2     		sxth	r3, r3
 721:u8glib_arm_v1.18.1\src/chessengine.c **** }
 1463              		.loc 1 721 0
 1464 018a 1846     		mov	r0, r3
 1465 018c 1437     		adds	r7, r7, #20
 1466              		.cfi_def_cfa_offset 12
 1467 018e BD46     		mov	sp, r7
 1468              		.cfi_def_cfa_register 13
 1469              		@ sp needed
 1470 0190 90BD     		pop	{r4, r7, pc}
 1471              	.L72:
 1472 0192 00BF     		.align	2
 1473              	.L71:
 1474 0194 00000000 		.word	ce_piece_weight
 1475 0198 00000000 		.word	ce_pos_weight
 1476              		.cfi_endproc
 1477              	.LFE18:
 1478              		.size	ce_Eval, .-ce_Eval
 1479              		.section	.text.cu_ClearMoveHistory,"ax",%progbits
 1480              		.align	2
 1481              		.global	cu_ClearMoveHistory
 1482              		.thumb
 1483              		.thumb_func
 1484              		.type	cu_ClearMoveHistory, %function
 1485              	cu_ClearMoveHistory:
 1486              	.LFB19:
 722:u8glib_arm_v1.18.1\src/chessengine.c **** 
 723:u8glib_arm_v1.18.1\src/chessengine.c **** /*==============================================================*/
 724:u8glib_arm_v1.18.1\src/chessengine.c **** /* move backup and restore */
 725:u8glib_arm_v1.18.1\src/chessengine.c **** /*==============================================================*/
 726:u8glib_arm_v1.18.1\src/chessengine.c **** 
 727:u8glib_arm_v1.18.1\src/chessengine.c **** 
 728:u8glib_arm_v1.18.1\src/chessengine.c **** /* this procedure must be called to keep the size as low as possible */
 729:u8glib_arm_v1.18.1\src/chessengine.c **** /* if the chm_list is large enough, it could hold the complete history */
 730:u8glib_arm_v1.18.1\src/chessengine.c **** /* but for an embedded controler... it is deleted for every engine search */
 731:u8glib_arm_v1.18.1\src/chessengine.c **** void cu_ClearMoveHistory(void)
 732:u8glib_arm_v1.18.1\src/chessengine.c **** {
 1487              		.loc 1 732 0
ARM GAS  C:\Users\KJA\AppData\Local\Temp\ccNNA7zi.s 			page 40


 1488              		.cfi_startproc
 1489              		@ args = 0, pretend = 0, frame = 0
 1490              		@ frame_needed = 1, uses_anonymous_args = 0
 1491              		@ link register save eliminated.
 1492 0000 80B4     		push	{r7}
 1493              		.cfi_def_cfa_offset 4
 1494              		.cfi_offset 7, -4
 1495 0002 00AF     		add	r7, sp, #0
 1496              		.cfi_def_cfa_register 7
 733:u8glib_arm_v1.18.1\src/chessengine.c ****   lrc_obj.chm_pos = 0;
 1497              		.loc 1 733 0
 1498 0004 034B     		ldr	r3, .L74
 1499 0006 0022     		movs	r2, #0
 1500 0008 5A70     		strb	r2, [r3, #1]
 734:u8glib_arm_v1.18.1\src/chessengine.c **** }
 1501              		.loc 1 734 0
 1502 000a BD46     		mov	sp, r7
 1503              		.cfi_def_cfa_register 13
 1504              		@ sp needed
 1505 000c 5DF8047B 		ldr	r7, [sp], #4
 1506              		.cfi_restore 7
 1507              		.cfi_def_cfa_offset 0
 1508 0010 7047     		bx	lr
 1509              	.L75:
 1510 0012 00BF     		.align	2
 1511              	.L74:
 1512 0014 00000000 		.word	lrc_obj
 1513              		.cfi_endproc
 1514              	.LFE19:
 1515              		.size	cu_ClearMoveHistory, .-cu_ClearMoveHistory
 1516              		.section	.text.cu_ReduceHistoryByFullMove,"ax",%progbits
 1517              		.align	2
 1518              		.global	cu_ReduceHistoryByFullMove
 1519              		.thumb
 1520              		.thumb_func
 1521              		.type	cu_ReduceHistoryByFullMove, %function
 1522              	cu_ReduceHistoryByFullMove:
 1523              	.LFB20:
 735:u8glib_arm_v1.18.1\src/chessengine.c **** 
 736:u8glib_arm_v1.18.1\src/chessengine.c **** void cu_ReduceHistoryByFullMove(void)
 737:u8glib_arm_v1.18.1\src/chessengine.c **** {
 1524              		.loc 1 737 0
 1525              		.cfi_startproc
 1526              		@ args = 0, pretend = 0, frame = 8
 1527              		@ frame_needed = 1, uses_anonymous_args = 0
 1528              		@ link register save eliminated.
 1529 0000 80B4     		push	{r7}
 1530              		.cfi_def_cfa_offset 4
 1531              		.cfi_offset 7, -4
 1532 0002 83B0     		sub	sp, sp, #12
 1533              		.cfi_def_cfa_offset 16
 1534 0004 00AF     		add	r7, sp, #0
 1535              		.cfi_def_cfa_register 7
 738:u8glib_arm_v1.18.1\src/chessengine.c ****   uint8_t i;
 739:u8glib_arm_v1.18.1\src/chessengine.c ****   while( lrc_obj.chm_pos > CHM_USER_SIZE )
 1536              		.loc 1 739 0
 1537 0006 2AE0     		b	.L77
ARM GAS  C:\Users\KJA\AppData\Local\Temp\ccNNA7zi.s 			page 41


 1538              	.L81:
 740:u8glib_arm_v1.18.1\src/chessengine.c ****   {
 741:u8glib_arm_v1.18.1\src/chessengine.c ****     i = 0;
 1539              		.loc 1 741 0
 1540 0008 0023     		movs	r3, #0
 1541 000a FB71     		strb	r3, [r7, #7]
 1542              	.L80:
 742:u8glib_arm_v1.18.1\src/chessengine.c ****     for(;;)
 743:u8glib_arm_v1.18.1\src/chessengine.c ****     {
 744:u8glib_arm_v1.18.1\src/chessengine.c ****       if ( i+2 >= lrc_obj.chm_pos )
 1543              		.loc 1 744 0
 1544 000c FB79     		ldrb	r3, [r7, #7]	@ zero_extendqisi2
 1545 000e 0233     		adds	r3, r3, #2
 1546 0010 174A     		ldr	r2, .L83
 1547 0012 5278     		ldrb	r2, [r2, #1]	@ zero_extendqisi2
 1548 0014 9342     		cmp	r3, r2
 1549 0016 00DB     		blt	.L78
 745:u8glib_arm_v1.18.1\src/chessengine.c **** 	break;
 1550              		.loc 1 745 0
 1551 0018 1BE0     		b	.L82
 1552              	.L78:
 746:u8glib_arm_v1.18.1\src/chessengine.c ****       lrc_obj.chm_list[i] = lrc_obj.chm_list[i+2];
 1553              		.loc 1 746 0
 1554 001a F979     		ldrb	r1, [r7, #7]	@ zero_extendqisi2
 1555 001c FB79     		ldrb	r3, [r7, #7]	@ zero_extendqisi2
 1556 001e 9A1C     		adds	r2, r3, #2
 1557 0020 1348     		ldr	r0, .L83
 1558 0022 0B46     		mov	r3, r1
 1559 0024 DB00     		lsls	r3, r3, #3
 1560 0026 0B44     		add	r3, r3, r1
 1561 0028 0344     		add	r3, r3, r0
 1562 002a 03F18000 		add	r0, r3, #128
 1563 002e 1049     		ldr	r1, .L83
 1564 0030 1346     		mov	r3, r2
 1565 0032 DB00     		lsls	r3, r3, #3
 1566 0034 1344     		add	r3, r3, r2
 1567 0036 0B44     		add	r3, r3, r1
 1568 0038 03F18002 		add	r2, r3, #128
 1569 003c 0346     		mov	r3, r0
 1570 003e 1068     		ldr	r0, [r2]	@ unaligned
 1571 0040 5168     		ldr	r1, [r2, #4]	@ unaligned
 1572 0042 1860     		str	r0, [r3]	@ unaligned
 1573 0044 5960     		str	r1, [r3, #4]	@ unaligned
 1574 0046 127A     		ldrb	r2, [r2, #8]
 1575 0048 1A72     		strb	r2, [r3, #8]
 747:u8glib_arm_v1.18.1\src/chessengine.c ****       i++;
 1576              		.loc 1 747 0
 1577 004a FB79     		ldrb	r3, [r7, #7]	@ zero_extendqisi2
 1578 004c 0133     		adds	r3, r3, #1
 1579 004e FB71     		strb	r3, [r7, #7]
 748:u8glib_arm_v1.18.1\src/chessengine.c ****     }
 1580              		.loc 1 748 0
 1581 0050 DCE7     		b	.L80
 1582              	.L82:
 749:u8glib_arm_v1.18.1\src/chessengine.c ****     lrc_obj.chm_pos -= 2;
 1583              		.loc 1 749 0
 1584 0052 074B     		ldr	r3, .L83
ARM GAS  C:\Users\KJA\AppData\Local\Temp\ccNNA7zi.s 			page 42


 1585 0054 5B78     		ldrb	r3, [r3, #1]	@ zero_extendqisi2
 1586 0056 023B     		subs	r3, r3, #2
 1587 0058 DAB2     		uxtb	r2, r3
 1588 005a 054B     		ldr	r3, .L83
 1589 005c 5A70     		strb	r2, [r3, #1]
 1590              	.L77:
 739:u8glib_arm_v1.18.1\src/chessengine.c ****   {
 1591              		.loc 1 739 0
 1592 005e 044B     		ldr	r3, .L83
 1593 0060 5B78     		ldrb	r3, [r3, #1]	@ zero_extendqisi2
 1594 0062 062B     		cmp	r3, #6
 1595 0064 D0D8     		bhi	.L81
 750:u8glib_arm_v1.18.1\src/chessengine.c ****   }
 751:u8glib_arm_v1.18.1\src/chessengine.c **** }
 1596              		.loc 1 751 0
 1597 0066 0C37     		adds	r7, r7, #12
 1598              		.cfi_def_cfa_offset 4
 1599 0068 BD46     		mov	sp, r7
 1600              		.cfi_def_cfa_register 13
 1601              		@ sp needed
 1602 006a 5DF8047B 		ldr	r7, [sp], #4
 1603              		.cfi_restore 7
 1604              		.cfi_def_cfa_offset 0
 1605 006e 7047     		bx	lr
 1606              	.L84:
 1607              		.align	2
 1608              	.L83:
 1609 0070 00000000 		.word	lrc_obj
 1610              		.cfi_endproc
 1611              	.LFE20:
 1612              		.size	cu_ReduceHistoryByFullMove, .-cu_ReduceHistoryByFullMove
 1613              		.section	.text.cu_UndoHalfMove,"ax",%progbits
 1614              		.align	2
 1615              		.global	cu_UndoHalfMove
 1616              		.thumb
 1617              		.thumb_func
 1618              		.type	cu_UndoHalfMove, %function
 1619              	cu_UndoHalfMove:
 1620              	.LFB21:
 752:u8glib_arm_v1.18.1\src/chessengine.c **** 
 753:u8glib_arm_v1.18.1\src/chessengine.c **** void cu_UndoHalfMove(void)
 754:u8glib_arm_v1.18.1\src/chessengine.c **** {
 1621              		.loc 1 754 0
 1622              		.cfi_startproc
 1623              		@ args = 0, pretend = 0, frame = 8
 1624              		@ frame_needed = 1, uses_anonymous_args = 0
 1625 0000 80B5     		push	{r7, lr}
 1626              		.cfi_def_cfa_offset 8
 1627              		.cfi_offset 7, -8
 1628              		.cfi_offset 14, -4
 1629 0002 82B0     		sub	sp, sp, #8
 1630              		.cfi_def_cfa_offset 16
 1631 0004 00AF     		add	r7, sp, #0
 1632              		.cfi_def_cfa_register 7
 755:u8glib_arm_v1.18.1\src/chessengine.c ****   chm_p chm;
 756:u8glib_arm_v1.18.1\src/chessengine.c ****   
 757:u8glib_arm_v1.18.1\src/chessengine.c ****   if ( lrc_obj.chm_pos == 0 )
ARM GAS  C:\Users\KJA\AppData\Local\Temp\ccNNA7zi.s 			page 43


 1633              		.loc 1 757 0
 1634 0006 254B     		ldr	r3, .L89
 1635 0008 5B78     		ldrb	r3, [r3, #1]	@ zero_extendqisi2
 1636 000a 002B     		cmp	r3, #0
 1637 000c 00D1     		bne	.L86
 758:u8glib_arm_v1.18.1\src/chessengine.c ****     return;
 1638              		.loc 1 758 0
 1639 000e 42E0     		b	.L85
 1640              	.L86:
 759:u8glib_arm_v1.18.1\src/chessengine.c ****   
 760:u8glib_arm_v1.18.1\src/chessengine.c ****   lrc_obj.chm_pos--;
 1641              		.loc 1 760 0
 1642 0010 224B     		ldr	r3, .L89
 1643 0012 5B78     		ldrb	r3, [r3, #1]	@ zero_extendqisi2
 1644 0014 013B     		subs	r3, r3, #1
 1645 0016 DAB2     		uxtb	r2, r3
 1646 0018 204B     		ldr	r3, .L89
 1647 001a 5A70     		strb	r2, [r3, #1]
 761:u8glib_arm_v1.18.1\src/chessengine.c **** 
 762:u8glib_arm_v1.18.1\src/chessengine.c ****   chm = lrc_obj.chm_list+lrc_obj.chm_pos;
 1648              		.loc 1 762 0
 1649 001c 1F4B     		ldr	r3, .L89
 1650 001e 5B78     		ldrb	r3, [r3, #1]	@ zero_extendqisi2
 1651 0020 1A46     		mov	r2, r3
 1652 0022 1346     		mov	r3, r2
 1653 0024 DB00     		lsls	r3, r3, #3
 1654 0026 1344     		add	r3, r3, r2
 1655 0028 8033     		adds	r3, r3, #128
 1656 002a 1C4A     		ldr	r2, .L89
 1657 002c 1344     		add	r3, r3, r2
 1658 002e 7B60     		str	r3, [r7, #4]
 763:u8glib_arm_v1.18.1\src/chessengine.c ****   
 764:u8glib_arm_v1.18.1\src/chessengine.c ****   lrc_obj.pawn_dbl_move[0] = chm->pawn_dbl_move[0];
 1659              		.loc 1 764 0
 1660 0030 7B68     		ldr	r3, [r7, #4]
 1661 0032 9A79     		ldrb	r2, [r3, #6]	@ zero_extendqisi2
 1662 0034 194B     		ldr	r3, .L89
 1663 0036 83F84220 		strb	r2, [r3, #66]
 765:u8glib_arm_v1.18.1\src/chessengine.c ****   lrc_obj.pawn_dbl_move[1] = chm->pawn_dbl_move[1];
 1664              		.loc 1 765 0
 1665 003a 7B68     		ldr	r3, [r7, #4]
 1666 003c DA79     		ldrb	r2, [r3, #7]	@ zero_extendqisi2
 1667 003e 174B     		ldr	r3, .L89
 1668 0040 83F84320 		strb	r2, [r3, #67]
 766:u8glib_arm_v1.18.1\src/chessengine.c ****   lrc_obj.castling_possible = chm->castling_possible;
 1669              		.loc 1 766 0
 1670 0044 7B68     		ldr	r3, [r7, #4]
 1671 0046 1A7A     		ldrb	r2, [r3, #8]	@ zero_extendqisi2
 1672 0048 144B     		ldr	r3, .L89
 1673 004a 83F84420 		strb	r2, [r3, #68]
 767:u8glib_arm_v1.18.1\src/chessengine.c ****   
 768:u8glib_arm_v1.18.1\src/chessengine.c ****   cp_SetOnBoard(chm->main_src, chm->main_cp);
 1674              		.loc 1 768 0
 1675 004e 7B68     		ldr	r3, [r7, #4]
 1676 0050 5A78     		ldrb	r2, [r3, #1]	@ zero_extendqisi2
 1677 0052 7B68     		ldr	r3, [r7, #4]
 1678 0054 1B78     		ldrb	r3, [r3]	@ zero_extendqisi2
ARM GAS  C:\Users\KJA\AppData\Local\Temp\ccNNA7zi.s 			page 44


 1679 0056 1046     		mov	r0, r2
 1680 0058 1946     		mov	r1, r3
 1681 005a FFF7FEFF 		bl	cp_SetOnBoard
 769:u8glib_arm_v1.18.1\src/chessengine.c ****   cp_SetOnBoard(chm->main_dest, PIECE_NONE);
 1682              		.loc 1 769 0
 1683 005e 7B68     		ldr	r3, [r7, #4]
 1684 0060 9B78     		ldrb	r3, [r3, #2]	@ zero_extendqisi2
 1685 0062 1846     		mov	r0, r3
 1686 0064 0021     		movs	r1, #0
 1687 0066 FFF7FEFF 		bl	cp_SetOnBoard
 770:u8glib_arm_v1.18.1\src/chessengine.c ****   
 771:u8glib_arm_v1.18.1\src/chessengine.c ****   if ( chm->other_src != ILLEGAL_POSITION )
 1688              		.loc 1 771 0
 1689 006a 7B68     		ldr	r3, [r7, #4]
 1690 006c 1B79     		ldrb	r3, [r3, #4]	@ zero_extendqisi2
 1691 006e FF2B     		cmp	r3, #255
 1692 0070 07D0     		beq	.L88
 772:u8glib_arm_v1.18.1\src/chessengine.c ****     cp_SetOnBoard(chm->other_src, chm->other_cp);
 1693              		.loc 1 772 0
 1694 0072 7B68     		ldr	r3, [r7, #4]
 1695 0074 1A79     		ldrb	r2, [r3, #4]	@ zero_extendqisi2
 1696 0076 7B68     		ldr	r3, [r7, #4]
 1697 0078 DB78     		ldrb	r3, [r3, #3]	@ zero_extendqisi2
 1698 007a 1046     		mov	r0, r2
 1699 007c 1946     		mov	r1, r3
 1700 007e FFF7FEFF 		bl	cp_SetOnBoard
 1701              	.L88:
 773:u8glib_arm_v1.18.1\src/chessengine.c ****   if ( chm->other_dest != ILLEGAL_POSITION )
 1702              		.loc 1 773 0
 1703 0082 7B68     		ldr	r3, [r7, #4]
 1704 0084 5B79     		ldrb	r3, [r3, #5]	@ zero_extendqisi2
 1705 0086 FF2B     		cmp	r3, #255
 1706 0088 05D0     		beq	.L85
 774:u8glib_arm_v1.18.1\src/chessengine.c ****     cp_SetOnBoard(chm->other_dest, PIECE_NONE);
 1707              		.loc 1 774 0
 1708 008a 7B68     		ldr	r3, [r7, #4]
 1709 008c 5B79     		ldrb	r3, [r3, #5]	@ zero_extendqisi2
 1710 008e 1846     		mov	r0, r3
 1711 0090 0021     		movs	r1, #0
 1712 0092 FFF7FEFF 		bl	cp_SetOnBoard
 1713              	.L85:
 775:u8glib_arm_v1.18.1\src/chessengine.c **** 
 776:u8glib_arm_v1.18.1\src/chessengine.c **** }
 1714              		.loc 1 776 0
 1715 0096 0837     		adds	r7, r7, #8
 1716              		.cfi_def_cfa_offset 8
 1717 0098 BD46     		mov	sp, r7
 1718              		.cfi_def_cfa_register 13
 1719              		@ sp needed
 1720 009a 80BD     		pop	{r7, pc}
 1721              	.L90:
 1722              		.align	2
 1723              	.L89:
 1724 009c 00000000 		.word	lrc_obj
 1725              		.cfi_endproc
 1726              	.LFE21:
 1727              		.size	cu_UndoHalfMove, .-cu_UndoHalfMove
ARM GAS  C:\Users\KJA\AppData\Local\Temp\ccNNA7zi.s 			page 45


 1728              		.section	.text.cu_PushHalfMove,"ax",%progbits
 1729              		.align	2
 1730              		.global	cu_PushHalfMove
 1731              		.thumb
 1732              		.thumb_func
 1733              		.type	cu_PushHalfMove, %function
 1734              	cu_PushHalfMove:
 1735              	.LFB22:
 777:u8glib_arm_v1.18.1\src/chessengine.c **** 
 778:u8glib_arm_v1.18.1\src/chessengine.c **** /*
 779:u8glib_arm_v1.18.1\src/chessengine.c ****   assumes, that the following members of the returned chm structure are filled 
 780:u8glib_arm_v1.18.1\src/chessengine.c ****   uint8_t main_cp;		the main piece, which is moved
 781:u8glib_arm_v1.18.1\src/chessengine.c ****   uint8_t main_src;		the source position of the main piece
 782:u8glib_arm_v1.18.1\src/chessengine.c ****   uint8_t main_dest; 	the destination of the main piece
 783:u8glib_arm_v1.18.1\src/chessengine.c ****   
 784:u8glib_arm_v1.18.1\src/chessengine.c ****   uint8_t other_cp;		another piece: the captured one, the ROOK in case of castling or PIECE_NONE
 785:u8glib_arm_v1.18.1\src/chessengine.c ****   uint8_t other_src;		the delete position of other_cp. Often identical to main_dest except for e.p.
 786:u8glib_arm_v1.18.1\src/chessengine.c ****   uint8_t other_dest;		only used for castling: ROOK destination pos
 787:u8glib_arm_v1.18.1\src/chessengine.c **** 
 788:u8glib_arm_v1.18.1\src/chessengine.c **** */
 789:u8glib_arm_v1.18.1\src/chessengine.c **** chm_p cu_PushHalfMove(void)
 790:u8glib_arm_v1.18.1\src/chessengine.c **** {
 1736              		.loc 1 790 0
 1737              		.cfi_startproc
 1738              		@ args = 0, pretend = 0, frame = 8
 1739              		@ frame_needed = 1, uses_anonymous_args = 0
 1740              		@ link register save eliminated.
 1741 0000 80B4     		push	{r7}
 1742              		.cfi_def_cfa_offset 4
 1743              		.cfi_offset 7, -4
 1744 0002 83B0     		sub	sp, sp, #12
 1745              		.cfi_def_cfa_offset 16
 1746 0004 00AF     		add	r7, sp, #0
 1747              		.cfi_def_cfa_register 7
 791:u8glib_arm_v1.18.1\src/chessengine.c ****   chm_p chm;
 792:u8glib_arm_v1.18.1\src/chessengine.c ****   
 793:u8glib_arm_v1.18.1\src/chessengine.c ****   chm = lrc_obj.chm_list+lrc_obj.chm_pos;
 1748              		.loc 1 793 0
 1749 0006 154B     		ldr	r3, .L94
 1750 0008 5B78     		ldrb	r3, [r3, #1]	@ zero_extendqisi2
 1751 000a 1A46     		mov	r2, r3
 1752 000c 1346     		mov	r3, r2
 1753 000e DB00     		lsls	r3, r3, #3
 1754 0010 1344     		add	r3, r3, r2
 1755 0012 8033     		adds	r3, r3, #128
 1756 0014 114A     		ldr	r2, .L94
 1757 0016 1344     		add	r3, r3, r2
 1758 0018 7B60     		str	r3, [r7, #4]
 794:u8glib_arm_v1.18.1\src/chessengine.c ****   if ( lrc_obj.chm_pos < CHM_LIST_SIZE-1)
 1759              		.loc 1 794 0
 1760 001a 104B     		ldr	r3, .L94
 1761 001c 5B78     		ldrb	r3, [r3, #1]	@ zero_extendqisi2
 1762 001e 0B2B     		cmp	r3, #11
 1763 0020 05D8     		bhi	.L92
 795:u8glib_arm_v1.18.1\src/chessengine.c ****     lrc_obj.chm_pos++;
 1764              		.loc 1 795 0
 1765 0022 0E4B     		ldr	r3, .L94
ARM GAS  C:\Users\KJA\AppData\Local\Temp\ccNNA7zi.s 			page 46


 1766 0024 5B78     		ldrb	r3, [r3, #1]	@ zero_extendqisi2
 1767 0026 0133     		adds	r3, r3, #1
 1768 0028 DAB2     		uxtb	r2, r3
 1769 002a 0C4B     		ldr	r3, .L94
 1770 002c 5A70     		strb	r2, [r3, #1]
 1771              	.L92:
 796:u8glib_arm_v1.18.1\src/chessengine.c **** 
 797:u8glib_arm_v1.18.1\src/chessengine.c ****   chm->pawn_dbl_move[0] = lrc_obj.pawn_dbl_move[0];
 1772              		.loc 1 797 0
 1773 002e 0B4B     		ldr	r3, .L94
 1774 0030 93F84220 		ldrb	r2, [r3, #66]	@ zero_extendqisi2
 1775 0034 7B68     		ldr	r3, [r7, #4]
 1776 0036 9A71     		strb	r2, [r3, #6]
 798:u8glib_arm_v1.18.1\src/chessengine.c ****   chm->pawn_dbl_move[1] = lrc_obj.pawn_dbl_move[1];
 1777              		.loc 1 798 0
 1778 0038 084B     		ldr	r3, .L94
 1779 003a 93F84320 		ldrb	r2, [r3, #67]	@ zero_extendqisi2
 1780 003e 7B68     		ldr	r3, [r7, #4]
 1781 0040 DA71     		strb	r2, [r3, #7]
 799:u8glib_arm_v1.18.1\src/chessengine.c ****   chm->castling_possible = lrc_obj.castling_possible;
 1782              		.loc 1 799 0
 1783 0042 064B     		ldr	r3, .L94
 1784 0044 93F84420 		ldrb	r2, [r3, #68]	@ zero_extendqisi2
 1785 0048 7B68     		ldr	r3, [r7, #4]
 1786 004a 1A72     		strb	r2, [r3, #8]
 800:u8glib_arm_v1.18.1\src/chessengine.c ****   return chm;
 1787              		.loc 1 800 0
 1788 004c 7B68     		ldr	r3, [r7, #4]
 801:u8glib_arm_v1.18.1\src/chessengine.c **** }
 1789              		.loc 1 801 0
 1790 004e 1846     		mov	r0, r3
 1791 0050 0C37     		adds	r7, r7, #12
 1792              		.cfi_def_cfa_offset 4
 1793 0052 BD46     		mov	sp, r7
 1794              		.cfi_def_cfa_register 13
 1795              		@ sp needed
 1796 0054 5DF8047B 		ldr	r7, [sp], #4
 1797              		.cfi_restore 7
 1798              		.cfi_def_cfa_offset 0
 1799 0058 7047     		bx	lr
 1800              	.L95:
 1801 005a 00BF     		.align	2
 1802              	.L94:
 1803 005c 00000000 		.word	lrc_obj
 1804              		.cfi_endproc
 1805              	.LFE22:
 1806              		.size	cu_PushHalfMove, .-cu_PushHalfMove
 1807              		.global	chess_piece_to_char
 1808              		.data
 1809              		.align	2
 1810              		.type	chess_piece_to_char, %object
 1811              		.size	chess_piece_to_char, 6
 1812              	chess_piece_to_char:
 1813 0010 4E425251 		.ascii	"NBRQK\000"
 1813      4B00
 1814              		.section	.text.cu_add_pos,"ax",%progbits
 1815              		.align	2
ARM GAS  C:\Users\KJA\AppData\Local\Temp\ccNNA7zi.s 			page 47


 1816              		.thumb
 1817              		.thumb_func
 1818              		.type	cu_add_pos, %function
 1819              	cu_add_pos:
 1820              	.LFB23:
 802:u8glib_arm_v1.18.1\src/chessengine.c **** 
 803:u8glib_arm_v1.18.1\src/chessengine.c **** 
 804:u8glib_arm_v1.18.1\src/chessengine.c **** char chess_piece_to_char[] = "NBRQK";
 805:u8glib_arm_v1.18.1\src/chessengine.c **** 
 806:u8glib_arm_v1.18.1\src/chessengine.c **** /*
 807:u8glib_arm_v1.18.1\src/chessengine.c ****   simple moves on empty field: 	Ka1-b2
 808:u8glib_arm_v1.18.1\src/chessengine.c ****   capture moves:				Ka1xb2
 809:u8glib_arm_v1.18.1\src/chessengine.c ****   castling:						0-0 or 0-0-0
 810:u8glib_arm_v1.18.1\src/chessengine.c **** */
 811:u8glib_arm_v1.18.1\src/chessengine.c **** 
 812:u8glib_arm_v1.18.1\src/chessengine.c **** static void cu_add_pos(char *s, uint8_t pos) U8G_NOINLINE;
 813:u8glib_arm_v1.18.1\src/chessengine.c **** 
 814:u8glib_arm_v1.18.1\src/chessengine.c **** static void cu_add_pos(char *s, uint8_t pos)
 815:u8glib_arm_v1.18.1\src/chessengine.c **** {
 1821              		.loc 1 815 0
 1822              		.cfi_startproc
 1823              		@ args = 0, pretend = 0, frame = 8
 1824              		@ frame_needed = 1, uses_anonymous_args = 0
 1825              		@ link register save eliminated.
 1826 0000 80B4     		push	{r7}
 1827              		.cfi_def_cfa_offset 4
 1828              		.cfi_offset 7, -4
 1829 0002 83B0     		sub	sp, sp, #12
 1830              		.cfi_def_cfa_offset 16
 1831 0004 00AF     		add	r7, sp, #0
 1832              		.cfi_def_cfa_register 7
 1833 0006 7860     		str	r0, [r7, #4]
 1834 0008 0B46     		mov	r3, r1
 1835 000a FB70     		strb	r3, [r7, #3]
 816:u8glib_arm_v1.18.1\src/chessengine.c ****   *s = pos;
 1836              		.loc 1 816 0
 1837 000c 7B68     		ldr	r3, [r7, #4]
 1838 000e FA78     		ldrb	r2, [r7, #3]
 1839 0010 1A70     		strb	r2, [r3]
 817:u8glib_arm_v1.18.1\src/chessengine.c ****   *s >>= 4;
 1840              		.loc 1 817 0
 1841 0012 7B68     		ldr	r3, [r7, #4]
 1842 0014 1B78     		ldrb	r3, [r3]	@ zero_extendqisi2
 1843 0016 1B09     		lsrs	r3, r3, #4
 1844 0018 DAB2     		uxtb	r2, r3
 1845 001a 7B68     		ldr	r3, [r7, #4]
 1846 001c 1A70     		strb	r2, [r3]
 818:u8glib_arm_v1.18.1\src/chessengine.c ****   *s += 'a';
 1847              		.loc 1 818 0
 1848 001e 7B68     		ldr	r3, [r7, #4]
 1849 0020 1B78     		ldrb	r3, [r3]	@ zero_extendqisi2
 1850 0022 6133     		adds	r3, r3, #97
 1851 0024 DAB2     		uxtb	r2, r3
 1852 0026 7B68     		ldr	r3, [r7, #4]
 1853 0028 1A70     		strb	r2, [r3]
 819:u8glib_arm_v1.18.1\src/chessengine.c ****   s++;
 1854              		.loc 1 819 0
ARM GAS  C:\Users\KJA\AppData\Local\Temp\ccNNA7zi.s 			page 48


 1855 002a 7B68     		ldr	r3, [r7, #4]
 1856 002c 0133     		adds	r3, r3, #1
 1857 002e 7B60     		str	r3, [r7, #4]
 820:u8glib_arm_v1.18.1\src/chessengine.c ****   *s = pos;
 1858              		.loc 1 820 0
 1859 0030 7B68     		ldr	r3, [r7, #4]
 1860 0032 FA78     		ldrb	r2, [r7, #3]
 1861 0034 1A70     		strb	r2, [r3]
 821:u8glib_arm_v1.18.1\src/chessengine.c ****   *s &= 15;
 1862              		.loc 1 821 0
 1863 0036 7B68     		ldr	r3, [r7, #4]
 1864 0038 1B78     		ldrb	r3, [r3]	@ zero_extendqisi2
 1865 003a 03F00F03 		and	r3, r3, #15
 1866 003e DAB2     		uxtb	r2, r3
 1867 0040 7B68     		ldr	r3, [r7, #4]
 1868 0042 1A70     		strb	r2, [r3]
 822:u8glib_arm_v1.18.1\src/chessengine.c ****   *s += '1';
 1869              		.loc 1 822 0
 1870 0044 7B68     		ldr	r3, [r7, #4]
 1871 0046 1B78     		ldrb	r3, [r3]	@ zero_extendqisi2
 1872 0048 3133     		adds	r3, r3, #49
 1873 004a DAB2     		uxtb	r2, r3
 1874 004c 7B68     		ldr	r3, [r7, #4]
 1875 004e 1A70     		strb	r2, [r3]
 823:u8glib_arm_v1.18.1\src/chessengine.c **** }
 1876              		.loc 1 823 0
 1877 0050 0C37     		adds	r7, r7, #12
 1878              		.cfi_def_cfa_offset 4
 1879 0052 BD46     		mov	sp, r7
 1880              		.cfi_def_cfa_register 13
 1881              		@ sp needed
 1882 0054 5DF8047B 		ldr	r7, [sp], #4
 1883              		.cfi_restore 7
 1884              		.cfi_def_cfa_offset 0
 1885 0058 7047     		bx	lr
 1886              		.cfi_endproc
 1887              	.LFE23:
 1888              		.size	cu_add_pos, .-cu_add_pos
 1889 005a 00BF     		.section	.text.cu_GetHalfMoveStr,"ax",%progbits
 1890              		.align	2
 1891              		.global	cu_GetHalfMoveStr
 1892              		.thumb
 1893              		.thumb_func
 1894              		.type	cu_GetHalfMoveStr, %function
 1895              	cu_GetHalfMoveStr:
 1896              	.LFB24:
 824:u8glib_arm_v1.18.1\src/chessengine.c **** 
 825:u8glib_arm_v1.18.1\src/chessengine.c **** const char *cu_GetHalfMoveStr(uint8_t idx)
 826:u8glib_arm_v1.18.1\src/chessengine.c **** {
 1897              		.loc 1 826 0
 1898              		.cfi_startproc
 1899              		@ args = 0, pretend = 0, frame = 16
 1900              		@ frame_needed = 1, uses_anonymous_args = 0
 1901 0000 90B5     		push	{r4, r7, lr}
 1902              		.cfi_def_cfa_offset 12
 1903              		.cfi_offset 4, -12
 1904              		.cfi_offset 7, -8
ARM GAS  C:\Users\KJA\AppData\Local\Temp\ccNNA7zi.s 			page 49


 1905              		.cfi_offset 14, -4
 1906 0002 85B0     		sub	sp, sp, #20
 1907              		.cfi_def_cfa_offset 32
 1908 0004 00AF     		add	r7, sp, #0
 1909              		.cfi_def_cfa_register 7
 1910 0006 0346     		mov	r3, r0
 1911 0008 FB71     		strb	r3, [r7, #7]
 827:u8glib_arm_v1.18.1\src/chessengine.c ****   chm_p chm;
 828:u8glib_arm_v1.18.1\src/chessengine.c ****   static char buf[7];		/*Ka1-b2*/
 829:u8glib_arm_v1.18.1\src/chessengine.c ****   char *p = buf;
 1912              		.loc 1 829 0
 1913 000a 2A4B     		ldr	r3, .L103
 1914 000c FB60     		str	r3, [r7, #12]
 830:u8glib_arm_v1.18.1\src/chessengine.c ****   chm = lrc_obj.chm_list+idx;
 1915              		.loc 1 830 0
 1916 000e FA79     		ldrb	r2, [r7, #7]	@ zero_extendqisi2
 1917 0010 1346     		mov	r3, r2
 1918 0012 DB00     		lsls	r3, r3, #3
 1919 0014 1344     		add	r3, r3, r2
 1920 0016 8033     		adds	r3, r3, #128
 1921 0018 274A     		ldr	r2, .L103+4
 1922 001a 1344     		add	r3, r3, r2
 1923 001c BB60     		str	r3, [r7, #8]
 831:u8glib_arm_v1.18.1\src/chessengine.c ****   
 832:u8glib_arm_v1.18.1\src/chessengine.c ****   if ( cp_GetPiece(chm->main_cp) != PIECE_NONE )
 1924              		.loc 1 832 0
 1925 001e BB68     		ldr	r3, [r7, #8]
 1926 0020 1B78     		ldrb	r3, [r3]	@ zero_extendqisi2
 1927 0022 1846     		mov	r0, r3
 1928 0024 FFF7FEFF 		bl	cp_GetPiece
 1929 0028 0346     		mov	r3, r0
 1930 002a 002B     		cmp	r3, #0
 1931 002c 39D0     		beq	.L98
 833:u8glib_arm_v1.18.1\src/chessengine.c ****   {
 834:u8glib_arm_v1.18.1\src/chessengine.c ****     if ( cp_GetPiece(chm->main_cp) > PIECE_PAWN )
 1932              		.loc 1 834 0
 1933 002e BB68     		ldr	r3, [r7, #8]
 1934 0030 1B78     		ldrb	r3, [r3]	@ zero_extendqisi2
 1935 0032 1846     		mov	r0, r3
 1936 0034 FFF7FEFF 		bl	cp_GetPiece
 1937 0038 0346     		mov	r3, r0
 1938 003a 012B     		cmp	r3, #1
 1939 003c 0CD9     		bls	.L99
 835:u8glib_arm_v1.18.1\src/chessengine.c ****     {
 836:u8glib_arm_v1.18.1\src/chessengine.c ****       *p++ = chess_piece_to_char[cp_GetPiece(chm->main_cp)-2];
 1940              		.loc 1 836 0
 1941 003e FC68     		ldr	r4, [r7, #12]
 1942 0040 631C     		adds	r3, r4, #1
 1943 0042 FB60     		str	r3, [r7, #12]
 1944 0044 BB68     		ldr	r3, [r7, #8]
 1945 0046 1B78     		ldrb	r3, [r3]	@ zero_extendqisi2
 1946 0048 1846     		mov	r0, r3
 1947 004a FFF7FEFF 		bl	cp_GetPiece
 1948 004e 0346     		mov	r3, r0
 1949 0050 023B     		subs	r3, r3, #2
 1950 0052 1A4A     		ldr	r2, .L103+8
 1951 0054 D35C     		ldrb	r3, [r2, r3]	@ zero_extendqisi2
ARM GAS  C:\Users\KJA\AppData\Local\Temp\ccNNA7zi.s 			page 50


 1952 0056 2370     		strb	r3, [r4]
 1953              	.L99:
 837:u8glib_arm_v1.18.1\src/chessengine.c ****     }
 838:u8glib_arm_v1.18.1\src/chessengine.c ****     cu_add_pos(p, chm->main_src);
 1954              		.loc 1 838 0
 1955 0058 BB68     		ldr	r3, [r7, #8]
 1956 005a 5B78     		ldrb	r3, [r3, #1]	@ zero_extendqisi2
 1957 005c F868     		ldr	r0, [r7, #12]
 1958 005e 1946     		mov	r1, r3
 1959 0060 FFF7FEFF 		bl	cu_add_pos
 839:u8glib_arm_v1.18.1\src/chessengine.c ****     p+=2;
 1960              		.loc 1 839 0
 1961 0064 FB68     		ldr	r3, [r7, #12]
 1962 0066 0233     		adds	r3, r3, #2
 1963 0068 FB60     		str	r3, [r7, #12]
 840:u8glib_arm_v1.18.1\src/chessengine.c ****     if ( cp_GetPiece(chm->other_cp) == PIECE_NONE )
 1964              		.loc 1 840 0
 1965 006a BB68     		ldr	r3, [r7, #8]
 1966 006c DB78     		ldrb	r3, [r3, #3]	@ zero_extendqisi2
 1967 006e 1846     		mov	r0, r3
 1968 0070 FFF7FEFF 		bl	cp_GetPiece
 1969 0074 0346     		mov	r3, r0
 1970 0076 002B     		cmp	r3, #0
 1971 0078 05D1     		bne	.L100
 841:u8glib_arm_v1.18.1\src/chessengine.c ****       *p++ = '-';
 1972              		.loc 1 841 0
 1973 007a FB68     		ldr	r3, [r7, #12]
 1974 007c 5A1C     		adds	r2, r3, #1
 1975 007e FA60     		str	r2, [r7, #12]
 1976 0080 2D22     		movs	r2, #45
 1977 0082 1A70     		strb	r2, [r3]
 1978 0084 04E0     		b	.L101
 1979              	.L100:
 842:u8glib_arm_v1.18.1\src/chessengine.c ****     else
 843:u8glib_arm_v1.18.1\src/chessengine.c ****       *p++ = 'x';
 1980              		.loc 1 843 0
 1981 0086 FB68     		ldr	r3, [r7, #12]
 1982 0088 5A1C     		adds	r2, r3, #1
 1983 008a FA60     		str	r2, [r7, #12]
 1984 008c 7822     		movs	r2, #120
 1985 008e 1A70     		strb	r2, [r3]
 1986              	.L101:
 844:u8glib_arm_v1.18.1\src/chessengine.c ****     cu_add_pos(p, chm->main_dest);
 1987              		.loc 1 844 0
 1988 0090 BB68     		ldr	r3, [r7, #8]
 1989 0092 9B78     		ldrb	r3, [r3, #2]	@ zero_extendqisi2
 1990 0094 F868     		ldr	r0, [r7, #12]
 1991 0096 1946     		mov	r1, r3
 1992 0098 FFF7FEFF 		bl	cu_add_pos
 845:u8glib_arm_v1.18.1\src/chessengine.c ****     p+=2;
 1993              		.loc 1 845 0
 1994 009c FB68     		ldr	r3, [r7, #12]
 1995 009e 0233     		adds	r3, r3, #2
 1996 00a0 FB60     		str	r3, [r7, #12]
 1997              	.L98:
 846:u8glib_arm_v1.18.1\src/chessengine.c ****   }
 847:u8glib_arm_v1.18.1\src/chessengine.c ****   *p = '\0';
ARM GAS  C:\Users\KJA\AppData\Local\Temp\ccNNA7zi.s 			page 51


 1998              		.loc 1 847 0
 1999 00a2 FB68     		ldr	r3, [r7, #12]
 2000 00a4 0022     		movs	r2, #0
 2001 00a6 1A70     		strb	r2, [r3]
 848:u8glib_arm_v1.18.1\src/chessengine.c ****   return buf;
 2002              		.loc 1 848 0
 2003 00a8 024B     		ldr	r3, .L103
 849:u8glib_arm_v1.18.1\src/chessengine.c **** }
 2004              		.loc 1 849 0
 2005 00aa 1846     		mov	r0, r3
 2006 00ac 1437     		adds	r7, r7, #20
 2007              		.cfi_def_cfa_offset 12
 2008 00ae BD46     		mov	sp, r7
 2009              		.cfi_def_cfa_register 13
 2010              		@ sp needed
 2011 00b0 90BD     		pop	{r4, r7, pc}
 2012              	.L104:
 2013 00b2 00BF     		.align	2
 2014              	.L103:
 2015 00b4 04000000 		.word	buf.5954
 2016 00b8 00000000 		.word	lrc_obj
 2017 00bc 00000000 		.word	chess_piece_to_char
 2018              		.cfi_endproc
 2019              	.LFE24:
 2020              		.size	cu_GetHalfMoveStr, .-cu_GetHalfMoveStr
 2021              		.section	.text.cu_Move,"ax",%progbits
 2022              		.align	2
 2023              		.global	cu_Move
 2024              		.thumb
 2025              		.thumb_func
 2026              		.type	cu_Move, %function
 2027              	cu_Move:
 2028              	.LFB25:
 850:u8glib_arm_v1.18.1\src/chessengine.c **** 
 851:u8glib_arm_v1.18.1\src/chessengine.c **** 
 852:u8glib_arm_v1.18.1\src/chessengine.c **** 
 853:u8glib_arm_v1.18.1\src/chessengine.c **** 
 854:u8glib_arm_v1.18.1\src/chessengine.c **** 
 855:u8glib_arm_v1.18.1\src/chessengine.c **** /*==============================================================*/
 856:u8glib_arm_v1.18.1\src/chessengine.c **** /* move */
 857:u8glib_arm_v1.18.1\src/chessengine.c **** /*==============================================================*/
 858:u8glib_arm_v1.18.1\src/chessengine.c **** 
 859:u8glib_arm_v1.18.1\src/chessengine.c **** /*
 860:u8glib_arm_v1.18.1\src/chessengine.c ****   Move a piece from source position to a destination on the board
 861:u8glib_arm_v1.18.1\src/chessengine.c ****   This function
 862:u8glib_arm_v1.18.1\src/chessengine.c ****     - does not perform any checking
 863:u8glib_arm_v1.18.1\src/chessengine.c ****     - however it processes "en passant" and casteling
 864:u8glib_arm_v1.18.1\src/chessengine.c ****     - backup the move and allow 1x undo
 865:u8glib_arm_v1.18.1\src/chessengine.c ****   
 866:u8glib_arm_v1.18.1\src/chessengine.c ****   2011-02-05: 
 867:u8glib_arm_v1.18.1\src/chessengine.c ****     - fill pawn_dbl_move[] for double pawn moves
 868:u8glib_arm_v1.18.1\src/chessengine.c **** 	--> done
 869:u8glib_arm_v1.18.1\src/chessengine.c ****     - Implement casteling 
 870:u8glib_arm_v1.18.1\src/chessengine.c **** 	--> done
 871:u8glib_arm_v1.18.1\src/chessengine.c ****     - en passant
 872:u8glib_arm_v1.18.1\src/chessengine.c **** 	--> done
 873:u8glib_arm_v1.18.1\src/chessengine.c ****     - pawn conversion/promotion
ARM GAS  C:\Users\KJA\AppData\Local\Temp\ccNNA7zi.s 			page 52


 874:u8glib_arm_v1.18.1\src/chessengine.c **** 	--> done
 875:u8glib_arm_v1.18.1\src/chessengine.c ****     - half-move backup 
 876:u8glib_arm_v1.18.1\src/chessengine.c **** 	--> done
 877:u8glib_arm_v1.18.1\src/chessengine.c ****     - cleanup everything, minimize variables
 878:u8glib_arm_v1.18.1\src/chessengine.c **** 	--> done
 879:u8glib_arm_v1.18.1\src/chessengine.c **** */
 880:u8glib_arm_v1.18.1\src/chessengine.c **** 
 881:u8glib_arm_v1.18.1\src/chessengine.c **** void cu_Move(uint8_t src, uint8_t dest)
 882:u8glib_arm_v1.18.1\src/chessengine.c **** {  
 2029              		.loc 1 882 0
 2030              		.cfi_startproc
 2031              		@ args = 0, pretend = 0, frame = 24
 2032              		@ frame_needed = 1, uses_anonymous_args = 0
 2033 0000 80B5     		push	{r7, lr}
 2034              		.cfi_def_cfa_offset 8
 2035              		.cfi_offset 7, -8
 2036              		.cfi_offset 14, -4
 2037 0002 86B0     		sub	sp, sp, #24
 2038              		.cfi_def_cfa_offset 32
 2039 0004 00AF     		add	r7, sp, #0
 2040              		.cfi_def_cfa_register 7
 2041 0006 0346     		mov	r3, r0
 2042 0008 0A46     		mov	r2, r1
 2043 000a FB71     		strb	r3, [r7, #7]
 2044 000c 1346     		mov	r3, r2
 2045 000e BB71     		strb	r3, [r7, #6]
 883:u8glib_arm_v1.18.1\src/chessengine.c ****   /* start backup structure */
 884:u8glib_arm_v1.18.1\src/chessengine.c ****   chm_p chm = cu_PushHalfMove();
 2046              		.loc 1 884 0
 2047 0010 FFF7FEFF 		bl	cu_PushHalfMove
 2048 0014 3861     		str	r0, [r7, #16]
 885:u8glib_arm_v1.18.1\src/chessengine.c **** 
 886:u8glib_arm_v1.18.1\src/chessengine.c ****   /* these are the values from the board at the positions, provided as arguments to this function *
 887:u8glib_arm_v1.18.1\src/chessengine.c ****   uint8_t cp_src, cp_dest;
 888:u8glib_arm_v1.18.1\src/chessengine.c ****   
 889:u8glib_arm_v1.18.1\src/chessengine.c ****   /* Maybe a second position is cleared and one additional location is set */
 890:u8glib_arm_v1.18.1\src/chessengine.c ****   uint8_t clr_pos2;
 891:u8glib_arm_v1.18.1\src/chessengine.c ****   uint8_t set_pos2;
 892:u8glib_arm_v1.18.1\src/chessengine.c ****   uint8_t set_cp2;
 893:u8glib_arm_v1.18.1\src/chessengine.c ****   
 894:u8glib_arm_v1.18.1\src/chessengine.c ****   /* get values from board */
 895:u8glib_arm_v1.18.1\src/chessengine.c ****   cp_src = cp_GetFromBoard(src);
 2049              		.loc 1 895 0
 2050 0016 FB79     		ldrb	r3, [r7, #7]	@ zero_extendqisi2
 2051 0018 1846     		mov	r0, r3
 2052 001a FFF7FEFF 		bl	cp_GetFromBoard
 2053 001e 0346     		mov	r3, r0
 2054 0020 FB75     		strb	r3, [r7, #23]
 896:u8glib_arm_v1.18.1\src/chessengine.c ****   cp_dest = cp_GetFromBoard(dest);
 2055              		.loc 1 896 0
 2056 0022 BB79     		ldrb	r3, [r7, #6]	@ zero_extendqisi2
 2057 0024 1846     		mov	r0, r3
 2058 0026 FFF7FEFF 		bl	cp_GetFromBoard
 2059 002a 0346     		mov	r3, r0
 2060 002c FB73     		strb	r3, [r7, #15]
 897:u8glib_arm_v1.18.1\src/chessengine.c **** 
 898:u8glib_arm_v1.18.1\src/chessengine.c ****   /* fill backup structure */
ARM GAS  C:\Users\KJA\AppData\Local\Temp\ccNNA7zi.s 			page 53


 899:u8glib_arm_v1.18.1\src/chessengine.c ****   
 900:u8glib_arm_v1.18.1\src/chessengine.c ****   chm->main_cp = cp_src;
 2061              		.loc 1 900 0
 2062 002e 3B69     		ldr	r3, [r7, #16]
 2063 0030 FA7D     		ldrb	r2, [r7, #23]
 2064 0032 1A70     		strb	r2, [r3]
 901:u8glib_arm_v1.18.1\src/chessengine.c ****   chm->main_src = src;
 2065              		.loc 1 901 0
 2066 0034 3B69     		ldr	r3, [r7, #16]
 2067 0036 FA79     		ldrb	r2, [r7, #7]
 2068 0038 5A70     		strb	r2, [r3, #1]
 902:u8glib_arm_v1.18.1\src/chessengine.c ****   chm->main_dest = dest;
 2069              		.loc 1 902 0
 2070 003a 3B69     		ldr	r3, [r7, #16]
 2071 003c BA79     		ldrb	r2, [r7, #6]
 2072 003e 9A70     		strb	r2, [r3, #2]
 903:u8glib_arm_v1.18.1\src/chessengine.c ****   
 904:u8glib_arm_v1.18.1\src/chessengine.c ****   chm->other_cp = cp_dest;		/* prepace capture backup */
 2073              		.loc 1 904 0
 2074 0040 3B69     		ldr	r3, [r7, #16]
 2075 0042 FA7B     		ldrb	r2, [r7, #15]
 2076 0044 DA70     		strb	r2, [r3, #3]
 905:u8glib_arm_v1.18.1\src/chessengine.c ****   chm->other_src = dest;
 2077              		.loc 1 905 0
 2078 0046 3B69     		ldr	r3, [r7, #16]
 2079 0048 BA79     		ldrb	r2, [r7, #6]
 2080 004a 1A71     		strb	r2, [r3, #4]
 906:u8glib_arm_v1.18.1\src/chessengine.c ****   chm->other_dest = ILLEGAL_POSITION;
 2081              		.loc 1 906 0
 2082 004c 3B69     		ldr	r3, [r7, #16]
 2083 004e FF22     		movs	r2, #255
 2084 0050 5A71     		strb	r2, [r3, #5]
 907:u8glib_arm_v1.18.1\src/chessengine.c ****   
 908:u8glib_arm_v1.18.1\src/chessengine.c ****   /* setup results as far as possible with some suitable values */
 909:u8glib_arm_v1.18.1\src/chessengine.c ****   
 910:u8glib_arm_v1.18.1\src/chessengine.c ****   clr_pos2 = ILLEGAL_POSITION;	/* for en passant and castling, two positions might be cleared */
 2085              		.loc 1 910 0
 2086 0052 FF23     		movs	r3, #255
 2087 0054 BB75     		strb	r3, [r7, #22]
 911:u8glib_arm_v1.18.1\src/chessengine.c ****   set_pos2 = ILLEGAL_POSITION;	/* only used for castling */
 2088              		.loc 1 911 0
 2089 0056 FF23     		movs	r3, #255
 2090 0058 7B75     		strb	r3, [r7, #21]
 912:u8glib_arm_v1.18.1\src/chessengine.c ****   set_cp2 = PIECE_NONE;			/* ROOK for castling */
 2091              		.loc 1 912 0
 2092 005a 0023     		movs	r3, #0
 2093 005c 3B75     		strb	r3, [r7, #20]
 913:u8glib_arm_v1.18.1\src/chessengine.c ****   
 914:u8glib_arm_v1.18.1\src/chessengine.c ****   /* check for PAWN */
 915:u8glib_arm_v1.18.1\src/chessengine.c ****   if ( cp_GetPiece(cp_src) == PIECE_PAWN )
 2094              		.loc 1 915 0
 2095 005e FB7D     		ldrb	r3, [r7, #23]	@ zero_extendqisi2
 2096 0060 1846     		mov	r0, r3
 2097 0062 FFF7FEFF 		bl	cp_GetPiece
 2098 0066 0346     		mov	r3, r0
 2099 0068 012B     		cmp	r3, #1
 2100 006a 53D1     		bne	.L106
ARM GAS  C:\Users\KJA\AppData\Local\Temp\ccNNA7zi.s 			page 54


 916:u8glib_arm_v1.18.1\src/chessengine.c ****   {
 917:u8glib_arm_v1.18.1\src/chessengine.c ****     
 918:u8glib_arm_v1.18.1\src/chessengine.c ****     /* double step: is the distance 2 rows */
 919:u8glib_arm_v1.18.1\src/chessengine.c ****     if ( (src - dest == 32) || ( dest - src == 32 ) )
 2101              		.loc 1 919 0
 2102 006c FA79     		ldrb	r2, [r7, #7]	@ zero_extendqisi2
 2103 006e BB79     		ldrb	r3, [r7, #6]	@ zero_extendqisi2
 2104 0070 D31A     		subs	r3, r2, r3
 2105 0072 202B     		cmp	r3, #32
 2106 0074 04D0     		beq	.L107
 2107              		.loc 1 919 0 is_stmt 0 discriminator 1
 2108 0076 BA79     		ldrb	r2, [r7, #6]	@ zero_extendqisi2
 2109 0078 FB79     		ldrb	r3, [r7, #7]	@ zero_extendqisi2
 2110 007a D31A     		subs	r3, r2, r3
 2111 007c 202B     		cmp	r3, #32
 2112 007e 0BD1     		bne	.L108
 2113              	.L107:
 920:u8glib_arm_v1.18.1\src/chessengine.c ****     {
 921:u8glib_arm_v1.18.1\src/chessengine.c ****       /* remember the destination position */
 922:u8glib_arm_v1.18.1\src/chessengine.c ****       lrc_obj.pawn_dbl_move[cp_GetColor(cp_src)] = dest;
 2114              		.loc 1 922 0 is_stmt 1
 2115 0080 FB7D     		ldrb	r3, [r7, #23]	@ zero_extendqisi2
 2116 0082 1846     		mov	r0, r3
 2117 0084 FFF7FEFF 		bl	cp_GetColor
 2118 0088 0346     		mov	r3, r0
 2119 008a 1A46     		mov	r2, r3
 2120 008c 7A4B     		ldr	r3, .L123
 2121 008e 1344     		add	r3, r3, r2
 2122 0090 BA79     		ldrb	r2, [r7, #6]
 2123 0092 83F84220 		strb	r2, [r3, #66]
 2124 0096 3CE0     		b	.L109
 2125              	.L108:
 923:u8glib_arm_v1.18.1\src/chessengine.c ****     }
 924:u8glib_arm_v1.18.1\src/chessengine.c ****     
 925:u8glib_arm_v1.18.1\src/chessengine.c ****     /* check if the PAWN is able to promote */
 926:u8glib_arm_v1.18.1\src/chessengine.c ****     else if ( (dest>>4) == 0 || (dest>>4) == 7 )
 2126              		.loc 1 926 0
 2127 0098 BB79     		ldrb	r3, [r7, #6]	@ zero_extendqisi2
 2128 009a 1B09     		lsrs	r3, r3, #4
 2129 009c DBB2     		uxtb	r3, r3
 2130 009e 002B     		cmp	r3, #0
 2131 00a0 04D0     		beq	.L110
 2132              		.loc 1 926 0 is_stmt 0 discriminator 1
 2133 00a2 BB79     		ldrb	r3, [r7, #6]	@ zero_extendqisi2
 2134 00a4 1B09     		lsrs	r3, r3, #4
 2135 00a6 DBB2     		uxtb	r3, r3
 2136 00a8 072B     		cmp	r3, #7
 2137 00aa 08D1     		bne	.L111
 2138              	.L110:
 927:u8glib_arm_v1.18.1\src/chessengine.c ****     {
 928:u8glib_arm_v1.18.1\src/chessengine.c ****       /* do simple "queening" */
 929:u8glib_arm_v1.18.1\src/chessengine.c ****       cp_src &= ~PIECE_PAWN;
 2139              		.loc 1 929 0 is_stmt 1
 2140 00ac FB7D     		ldrb	r3, [r7, #23]
 2141 00ae 23F00103 		bic	r3, r3, #1
 2142 00b2 FB75     		strb	r3, [r7, #23]
 930:u8glib_arm_v1.18.1\src/chessengine.c ****       cp_src |= PIECE_QUEEN;
ARM GAS  C:\Users\KJA\AppData\Local\Temp\ccNNA7zi.s 			page 55


 2143              		.loc 1 930 0
 2144 00b4 FB7D     		ldrb	r3, [r7, #23]
 2145 00b6 43F00503 		orr	r3, r3, #5
 2146 00ba FB75     		strb	r3, [r7, #23]
 2147 00bc 29E0     		b	.L109
 2148              	.L111:
 931:u8glib_arm_v1.18.1\src/chessengine.c ****     }
 932:u8glib_arm_v1.18.1\src/chessengine.c ****     
 933:u8glib_arm_v1.18.1\src/chessengine.c ****     /* is it en passant capture? */
 934:u8glib_arm_v1.18.1\src/chessengine.c ****     /* check for side move */
 935:u8glib_arm_v1.18.1\src/chessengine.c ****     else if ( ((src + dest) & 1) != 0 )
 2149              		.loc 1 935 0
 2150 00be FA79     		ldrb	r2, [r7, #7]	@ zero_extendqisi2
 2151 00c0 BB79     		ldrb	r3, [r7, #6]	@ zero_extendqisi2
 2152 00c2 1344     		add	r3, r3, r2
 2153 00c4 03F00103 		and	r3, r3, #1
 2154 00c8 002B     		cmp	r3, #0
 2155 00ca 00F0B580 		beq	.L112
 936:u8glib_arm_v1.18.1\src/chessengine.c ****     {
 937:u8glib_arm_v1.18.1\src/chessengine.c ****       /* check, if target field is empty */
 938:u8glib_arm_v1.18.1\src/chessengine.c ****       if (  cp_GetPiece(cp_dest) == PIECE_NONE )
 2156              		.loc 1 938 0
 2157 00ce FB7B     		ldrb	r3, [r7, #15]	@ zero_extendqisi2
 2158 00d0 1846     		mov	r0, r3
 2159 00d2 FFF7FEFF 		bl	cp_GetPiece
 2160 00d6 0346     		mov	r3, r0
 2161 00d8 002B     		cmp	r3, #0
 2162 00da 40F0AD80 		bne	.L112
 939:u8glib_arm_v1.18.1\src/chessengine.c ****       {
 940:u8glib_arm_v1.18.1\src/chessengine.c **** 	/* this is en passant */
 941:u8glib_arm_v1.18.1\src/chessengine.c **** 	/* no further checking required, because legal moves are assumed here */
 942:u8glib_arm_v1.18.1\src/chessengine.c **** 	/* however... the captured pawn position must be valid */
 943:u8glib_arm_v1.18.1\src/chessengine.c **** 	clr_pos2 = lrc_obj.pawn_dbl_move[cp_GetColor(cp_src) ^ 1];
 2163              		.loc 1 943 0
 2164 00de FB7D     		ldrb	r3, [r7, #23]	@ zero_extendqisi2
 2165 00e0 1846     		mov	r0, r3
 2166 00e2 FFF7FEFF 		bl	cp_GetColor
 2167 00e6 0346     		mov	r3, r0
 2168 00e8 83F00103 		eor	r3, r3, #1
 2169 00ec DBB2     		uxtb	r3, r3
 2170 00ee 1A46     		mov	r2, r3
 2171 00f0 614B     		ldr	r3, .L123
 2172 00f2 1344     		add	r3, r3, r2
 2173 00f4 93F84230 		ldrb	r3, [r3, #66]
 2174 00f8 BB75     		strb	r3, [r7, #22]
 944:u8glib_arm_v1.18.1\src/chessengine.c **** 	chm->other_src = clr_pos2;
 2175              		.loc 1 944 0
 2176 00fa 3B69     		ldr	r3, [r7, #16]
 2177 00fc BA7D     		ldrb	r2, [r7, #22]
 2178 00fe 1A71     		strb	r2, [r3, #4]
 945:u8glib_arm_v1.18.1\src/chessengine.c **** 	chm->other_cp = cp_GetFromBoard(clr_pos2);
 2179              		.loc 1 945 0
 2180 0100 BB7D     		ldrb	r3, [r7, #22]	@ zero_extendqisi2
 2181 0102 1846     		mov	r0, r3
 2182 0104 FFF7FEFF 		bl	cp_GetFromBoard
 2183 0108 0346     		mov	r3, r0
 2184 010a 1A46     		mov	r2, r3
ARM GAS  C:\Users\KJA\AppData\Local\Temp\ccNNA7zi.s 			page 56


 2185 010c 3B69     		ldr	r3, [r7, #16]
 2186 010e DA70     		strb	r2, [r3, #3]
 2187 0110 92E0     		b	.L112
 2188              	.L109:
 2189 0112 91E0     		b	.L112
 2190              	.L106:
 946:u8glib_arm_v1.18.1\src/chessengine.c ****       }
 947:u8glib_arm_v1.18.1\src/chessengine.c ****     }    
 948:u8glib_arm_v1.18.1\src/chessengine.c ****   }
 949:u8glib_arm_v1.18.1\src/chessengine.c ****   
 950:u8glib_arm_v1.18.1\src/chessengine.c ****   /* check for the KING */
 951:u8glib_arm_v1.18.1\src/chessengine.c ****   else if ( cp_GetPiece(cp_src) == PIECE_KING )
 2191              		.loc 1 951 0
 2192 0114 FB7D     		ldrb	r3, [r7, #23]	@ zero_extendqisi2
 2193 0116 1846     		mov	r0, r3
 2194 0118 FFF7FEFF 		bl	cp_GetPiece
 2195 011c 0346     		mov	r3, r0
 2196 011e 062B     		cmp	r3, #6
 2197 0120 53D1     		bne	.L113
 952:u8glib_arm_v1.18.1\src/chessengine.c ****   {
 953:u8glib_arm_v1.18.1\src/chessengine.c ****     /* disallow castling, if the KING has moved */
 954:u8glib_arm_v1.18.1\src/chessengine.c ****     if ( cp_GetColor(cp_src) == COLOR_WHITE )
 2198              		.loc 1 954 0
 2199 0122 FB7D     		ldrb	r3, [r7, #23]	@ zero_extendqisi2
 2200 0124 1846     		mov	r0, r3
 2201 0126 FFF7FEFF 		bl	cp_GetColor
 2202 012a 0346     		mov	r3, r0
 2203 012c 002B     		cmp	r3, #0
 2204 012e 09D1     		bne	.L114
 955:u8glib_arm_v1.18.1\src/chessengine.c ****     {
 956:u8glib_arm_v1.18.1\src/chessengine.c ****       /* if white KING has moved, disallow castling for white */
 957:u8glib_arm_v1.18.1\src/chessengine.c ****       lrc_obj.castling_possible &= 0x0c;
 2205              		.loc 1 957 0
 2206 0130 514B     		ldr	r3, .L123
 2207 0132 93F84430 		ldrb	r3, [r3, #68]	@ zero_extendqisi2
 2208 0136 03F00C03 		and	r3, r3, #12
 2209 013a DAB2     		uxtb	r2, r3
 2210 013c 4E4B     		ldr	r3, .L123
 2211 013e 83F84420 		strb	r2, [r3, #68]
 2212 0142 08E0     		b	.L115
 2213              	.L114:
 958:u8glib_arm_v1.18.1\src/chessengine.c ****     }
 959:u8glib_arm_v1.18.1\src/chessengine.c ****     else
 960:u8glib_arm_v1.18.1\src/chessengine.c ****     {
 961:u8glib_arm_v1.18.1\src/chessengine.c ****       /* if black KING has moved, disallow castling for black */
 962:u8glib_arm_v1.18.1\src/chessengine.c ****       lrc_obj.castling_possible &= 0x03;
 2214              		.loc 1 962 0
 2215 0144 4C4B     		ldr	r3, .L123
 2216 0146 93F84430 		ldrb	r3, [r3, #68]	@ zero_extendqisi2
 2217 014a 03F00303 		and	r3, r3, #3
 2218 014e DAB2     		uxtb	r2, r3
 2219 0150 494B     		ldr	r3, .L123
 2220 0152 83F84420 		strb	r2, [r3, #68]
 2221              	.L115:
 963:u8glib_arm_v1.18.1\src/chessengine.c ****     }
 964:u8glib_arm_v1.18.1\src/chessengine.c ****     
 965:u8glib_arm_v1.18.1\src/chessengine.c ****     /* has it been castling to the left? */
ARM GAS  C:\Users\KJA\AppData\Local\Temp\ccNNA7zi.s 			page 57


 966:u8glib_arm_v1.18.1\src/chessengine.c ****     if ( src - dest == 2 )
 2222              		.loc 1 966 0
 2223 0156 FA79     		ldrb	r2, [r7, #7]	@ zero_extendqisi2
 2224 0158 BB79     		ldrb	r3, [r7, #6]	@ zero_extendqisi2
 2225 015a D31A     		subs	r3, r2, r3
 2226 015c 022B     		cmp	r3, #2
 2227 015e 17D1     		bne	.L116
 967:u8glib_arm_v1.18.1\src/chessengine.c ****     {
 968:u8glib_arm_v1.18.1\src/chessengine.c ****       /* let the ROOK move to pos2 */
 969:u8glib_arm_v1.18.1\src/chessengine.c ****       set_pos2 = src-1;
 2228              		.loc 1 969 0
 2229 0160 FB79     		ldrb	r3, [r7, #7]
 2230 0162 013B     		subs	r3, r3, #1
 2231 0164 7B75     		strb	r3, [r7, #21]
 970:u8glib_arm_v1.18.1\src/chessengine.c ****       set_cp2 = cp_GetFromBoard(src-4);
 2232              		.loc 1 970 0
 2233 0166 FB79     		ldrb	r3, [r7, #7]
 2234 0168 043B     		subs	r3, r3, #4
 2235 016a DBB2     		uxtb	r3, r3
 2236 016c 1846     		mov	r0, r3
 2237 016e FFF7FEFF 		bl	cp_GetFromBoard
 2238 0172 0346     		mov	r3, r0
 2239 0174 3B75     		strb	r3, [r7, #20]
 971:u8glib_arm_v1.18.1\src/chessengine.c ****       
 972:u8glib_arm_v1.18.1\src/chessengine.c ****       /* the ROOK must be cleared from the original position */
 973:u8glib_arm_v1.18.1\src/chessengine.c ****       clr_pos2 = src-4;
 2240              		.loc 1 973 0
 2241 0176 FB79     		ldrb	r3, [r7, #7]
 2242 0178 043B     		subs	r3, r3, #4
 2243 017a BB75     		strb	r3, [r7, #22]
 974:u8glib_arm_v1.18.1\src/chessengine.c ****       
 975:u8glib_arm_v1.18.1\src/chessengine.c ****       chm->other_cp = set_cp2;
 2244              		.loc 1 975 0
 2245 017c 3B69     		ldr	r3, [r7, #16]
 2246 017e 3A7D     		ldrb	r2, [r7, #20]
 2247 0180 DA70     		strb	r2, [r3, #3]
 976:u8glib_arm_v1.18.1\src/chessengine.c ****       chm->other_src = clr_pos2;
 2248              		.loc 1 976 0
 2249 0182 3B69     		ldr	r3, [r7, #16]
 2250 0184 BA7D     		ldrb	r2, [r7, #22]
 2251 0186 1A71     		strb	r2, [r3, #4]
 977:u8glib_arm_v1.18.1\src/chessengine.c ****       chm->other_dest = set_pos2;
 2252              		.loc 1 977 0
 2253 0188 3B69     		ldr	r3, [r7, #16]
 2254 018a 7A7D     		ldrb	r2, [r7, #21]
 2255 018c 5A71     		strb	r2, [r3, #5]
 2256 018e 53E0     		b	.L112
 2257              	.L116:
 978:u8glib_arm_v1.18.1\src/chessengine.c ****     }
 979:u8glib_arm_v1.18.1\src/chessengine.c ****     
 980:u8glib_arm_v1.18.1\src/chessengine.c ****     /* has it been castling to the right? */
 981:u8glib_arm_v1.18.1\src/chessengine.c ****     else if ( dest - src == 2 )
 2258              		.loc 1 981 0
 2259 0190 BA79     		ldrb	r2, [r7, #6]	@ zero_extendqisi2
 2260 0192 FB79     		ldrb	r3, [r7, #7]	@ zero_extendqisi2
 2261 0194 D31A     		subs	r3, r2, r3
 2262 0196 022B     		cmp	r3, #2
ARM GAS  C:\Users\KJA\AppData\Local\Temp\ccNNA7zi.s 			page 58


 2263 0198 4ED1     		bne	.L112
 982:u8glib_arm_v1.18.1\src/chessengine.c ****     {
 983:u8glib_arm_v1.18.1\src/chessengine.c ****       /* let the ROOK move to pos2 */
 984:u8glib_arm_v1.18.1\src/chessengine.c ****       set_pos2 = src+1;
 2264              		.loc 1 984 0
 2265 019a FB79     		ldrb	r3, [r7, #7]
 2266 019c 0133     		adds	r3, r3, #1
 2267 019e 7B75     		strb	r3, [r7, #21]
 985:u8glib_arm_v1.18.1\src/chessengine.c ****       set_cp2 = cp_GetFromBoard(src+3);
 2268              		.loc 1 985 0
 2269 01a0 FB79     		ldrb	r3, [r7, #7]
 2270 01a2 0333     		adds	r3, r3, #3
 2271 01a4 DBB2     		uxtb	r3, r3
 2272 01a6 1846     		mov	r0, r3
 2273 01a8 FFF7FEFF 		bl	cp_GetFromBoard
 2274 01ac 0346     		mov	r3, r0
 2275 01ae 3B75     		strb	r3, [r7, #20]
 986:u8glib_arm_v1.18.1\src/chessengine.c ****       
 987:u8glib_arm_v1.18.1\src/chessengine.c ****       /* the ROOK must be cleared from the original position */
 988:u8glib_arm_v1.18.1\src/chessengine.c ****       clr_pos2 = src+3;
 2276              		.loc 1 988 0
 2277 01b0 FB79     		ldrb	r3, [r7, #7]
 2278 01b2 0333     		adds	r3, r3, #3
 2279 01b4 BB75     		strb	r3, [r7, #22]
 989:u8glib_arm_v1.18.1\src/chessengine.c ****       
 990:u8glib_arm_v1.18.1\src/chessengine.c ****       chm->other_cp = set_cp2;
 2280              		.loc 1 990 0
 2281 01b6 3B69     		ldr	r3, [r7, #16]
 2282 01b8 3A7D     		ldrb	r2, [r7, #20]
 2283 01ba DA70     		strb	r2, [r3, #3]
 991:u8glib_arm_v1.18.1\src/chessengine.c ****       chm->other_src = clr_pos2;
 2284              		.loc 1 991 0
 2285 01bc 3B69     		ldr	r3, [r7, #16]
 2286 01be BA7D     		ldrb	r2, [r7, #22]
 2287 01c0 1A71     		strb	r2, [r3, #4]
 992:u8glib_arm_v1.18.1\src/chessengine.c ****       chm->other_dest = set_pos2;
 2288              		.loc 1 992 0
 2289 01c2 3B69     		ldr	r3, [r7, #16]
 2290 01c4 7A7D     		ldrb	r2, [r7, #21]
 2291 01c6 5A71     		strb	r2, [r3, #5]
 2292 01c8 36E0     		b	.L112
 2293              	.L113:
 993:u8glib_arm_v1.18.1\src/chessengine.c ****       
 994:u8glib_arm_v1.18.1\src/chessengine.c ****     }
 995:u8glib_arm_v1.18.1\src/chessengine.c ****     
 996:u8glib_arm_v1.18.1\src/chessengine.c ****   }
 997:u8glib_arm_v1.18.1\src/chessengine.c ****   
 998:u8glib_arm_v1.18.1\src/chessengine.c ****   /* check for the ROOK */
 999:u8glib_arm_v1.18.1\src/chessengine.c ****   else if ( cp_GetPiece(cp_src) == PIECE_ROOK )
 2294              		.loc 1 999 0
 2295 01ca FB7D     		ldrb	r3, [r7, #23]	@ zero_extendqisi2
 2296 01cc 1846     		mov	r0, r3
 2297 01ce FFF7FEFF 		bl	cp_GetPiece
 2298 01d2 0346     		mov	r3, r0
 2299 01d4 042B     		cmp	r3, #4
 2300 01d6 2FD1     		bne	.L112
1000:u8glib_arm_v1.18.1\src/chessengine.c ****   {
ARM GAS  C:\Users\KJA\AppData\Local\Temp\ccNNA7zi.s 			page 59


1001:u8glib_arm_v1.18.1\src/chessengine.c ****     /* disallow white left castling */
1002:u8glib_arm_v1.18.1\src/chessengine.c ****     if ( src == 0x00 )
 2301              		.loc 1 1002 0
 2302 01d8 FB79     		ldrb	r3, [r7, #7]	@ zero_extendqisi2
 2303 01da 002B     		cmp	r3, #0
 2304 01dc 08D1     		bne	.L118
1003:u8glib_arm_v1.18.1\src/chessengine.c ****       lrc_obj.castling_possible &= ~0x01;
 2305              		.loc 1 1003 0
 2306 01de 264B     		ldr	r3, .L123
 2307 01e0 93F84430 		ldrb	r3, [r3, #68]	@ zero_extendqisi2
 2308 01e4 23F00103 		bic	r3, r3, #1
 2309 01e8 DAB2     		uxtb	r2, r3
 2310 01ea 234B     		ldr	r3, .L123
 2311 01ec 83F84420 		strb	r2, [r3, #68]
 2312              	.L118:
1004:u8glib_arm_v1.18.1\src/chessengine.c ****     /* disallow white right castling */
1005:u8glib_arm_v1.18.1\src/chessengine.c ****     if ( src == 0x07 )
 2313              		.loc 1 1005 0
 2314 01f0 FB79     		ldrb	r3, [r7, #7]	@ zero_extendqisi2
 2315 01f2 072B     		cmp	r3, #7
 2316 01f4 08D1     		bne	.L119
1006:u8glib_arm_v1.18.1\src/chessengine.c ****       lrc_obj.castling_possible &= ~0x02;
 2317              		.loc 1 1006 0
 2318 01f6 204B     		ldr	r3, .L123
 2319 01f8 93F84430 		ldrb	r3, [r3, #68]	@ zero_extendqisi2
 2320 01fc 23F00203 		bic	r3, r3, #2
 2321 0200 DAB2     		uxtb	r2, r3
 2322 0202 1D4B     		ldr	r3, .L123
 2323 0204 83F84420 		strb	r2, [r3, #68]
 2324              	.L119:
1007:u8glib_arm_v1.18.1\src/chessengine.c ****     /* disallow black left castling */
1008:u8glib_arm_v1.18.1\src/chessengine.c ****     if ( src == 0x70 )
 2325              		.loc 1 1008 0
 2326 0208 FB79     		ldrb	r3, [r7, #7]	@ zero_extendqisi2
 2327 020a 702B     		cmp	r3, #112
 2328 020c 08D1     		bne	.L120
1009:u8glib_arm_v1.18.1\src/chessengine.c ****       lrc_obj.castling_possible &= ~0x04;
 2329              		.loc 1 1009 0
 2330 020e 1A4B     		ldr	r3, .L123
 2331 0210 93F84430 		ldrb	r3, [r3, #68]	@ zero_extendqisi2
 2332 0214 23F00403 		bic	r3, r3, #4
 2333 0218 DAB2     		uxtb	r2, r3
 2334 021a 174B     		ldr	r3, .L123
 2335 021c 83F84420 		strb	r2, [r3, #68]
 2336              	.L120:
1010:u8glib_arm_v1.18.1\src/chessengine.c ****     /* disallow black right castling */
1011:u8glib_arm_v1.18.1\src/chessengine.c ****     if ( src == 0x77 )
 2337              		.loc 1 1011 0
 2338 0220 FB79     		ldrb	r3, [r7, #7]	@ zero_extendqisi2
 2339 0222 772B     		cmp	r3, #119
 2340 0224 08D1     		bne	.L112
1012:u8glib_arm_v1.18.1\src/chessengine.c ****       lrc_obj.castling_possible &= ~0x08;
 2341              		.loc 1 1012 0
 2342 0226 144B     		ldr	r3, .L123
 2343 0228 93F84430 		ldrb	r3, [r3, #68]	@ zero_extendqisi2
 2344 022c 23F00803 		bic	r3, r3, #8
 2345 0230 DAB2     		uxtb	r2, r3
ARM GAS  C:\Users\KJA\AppData\Local\Temp\ccNNA7zi.s 			page 60


 2346 0232 114B     		ldr	r3, .L123
 2347 0234 83F84420 		strb	r2, [r3, #68]
 2348              	.L112:
1013:u8glib_arm_v1.18.1\src/chessengine.c ****   }
1014:u8glib_arm_v1.18.1\src/chessengine.c ****   
1015:u8glib_arm_v1.18.1\src/chessengine.c ****   
1016:u8glib_arm_v1.18.1\src/chessengine.c ****   /* apply new board situation */
1017:u8glib_arm_v1.18.1\src/chessengine.c ****   
1018:u8glib_arm_v1.18.1\src/chessengine.c ****   cp_SetOnBoard(dest, cp_src);
 2349              		.loc 1 1018 0
 2350 0238 BA79     		ldrb	r2, [r7, #6]	@ zero_extendqisi2
 2351 023a FB7D     		ldrb	r3, [r7, #23]	@ zero_extendqisi2
 2352 023c 1046     		mov	r0, r2
 2353 023e 1946     		mov	r1, r3
 2354 0240 FFF7FEFF 		bl	cp_SetOnBoard
1019:u8glib_arm_v1.18.1\src/chessengine.c ****   
1020:u8glib_arm_v1.18.1\src/chessengine.c ****   if ( set_pos2 != ILLEGAL_POSITION )
 2355              		.loc 1 1020 0
 2356 0244 7B7D     		ldrb	r3, [r7, #21]	@ zero_extendqisi2
 2357 0246 FF2B     		cmp	r3, #255
 2358 0248 05D0     		beq	.L121
1021:u8glib_arm_v1.18.1\src/chessengine.c ****     cp_SetOnBoard(set_pos2, set_cp2);
 2359              		.loc 1 1021 0
 2360 024a 7A7D     		ldrb	r2, [r7, #21]	@ zero_extendqisi2
 2361 024c 3B7D     		ldrb	r3, [r7, #20]	@ zero_extendqisi2
 2362 024e 1046     		mov	r0, r2
 2363 0250 1946     		mov	r1, r3
 2364 0252 FFF7FEFF 		bl	cp_SetOnBoard
 2365              	.L121:
1022:u8glib_arm_v1.18.1\src/chessengine.c ****   
1023:u8glib_arm_v1.18.1\src/chessengine.c ****   cp_SetOnBoard(src, PIECE_NONE);
 2366              		.loc 1 1023 0
 2367 0256 FB79     		ldrb	r3, [r7, #7]	@ zero_extendqisi2
 2368 0258 1846     		mov	r0, r3
 2369 025a 0021     		movs	r1, #0
 2370 025c FFF7FEFF 		bl	cp_SetOnBoard
1024:u8glib_arm_v1.18.1\src/chessengine.c ****   
1025:u8glib_arm_v1.18.1\src/chessengine.c ****   if ( clr_pos2 != ILLEGAL_POSITION )
 2371              		.loc 1 1025 0
 2372 0260 BB7D     		ldrb	r3, [r7, #22]	@ zero_extendqisi2
 2373 0262 FF2B     		cmp	r3, #255
 2374 0264 04D0     		beq	.L105
1026:u8glib_arm_v1.18.1\src/chessengine.c ****     cp_SetOnBoard(clr_pos2, PIECE_NONE);
 2375              		.loc 1 1026 0
 2376 0266 BB7D     		ldrb	r3, [r7, #22]	@ zero_extendqisi2
 2377 0268 1846     		mov	r0, r3
 2378 026a 0021     		movs	r1, #0
 2379 026c FFF7FEFF 		bl	cp_SetOnBoard
 2380              	.L105:
1027:u8glib_arm_v1.18.1\src/chessengine.c ****   
1028:u8glib_arm_v1.18.1\src/chessengine.c ****   
1029:u8glib_arm_v1.18.1\src/chessengine.c **** }
 2381              		.loc 1 1029 0
 2382 0270 1837     		adds	r7, r7, #24
 2383              		.cfi_def_cfa_offset 8
 2384 0272 BD46     		mov	sp, r7
 2385              		.cfi_def_cfa_register 13
ARM GAS  C:\Users\KJA\AppData\Local\Temp\ccNNA7zi.s 			page 61


 2386              		@ sp needed
 2387 0274 80BD     		pop	{r7, pc}
 2388              	.L124:
 2389 0276 00BF     		.align	2
 2390              	.L123:
 2391 0278 00000000 		.word	lrc_obj
 2392              		.cfi_endproc
 2393              	.LFE25:
 2394              		.size	cu_Move, .-cu_Move
 2395              		.section	.text.ce_LoopRecur,"ax",%progbits
 2396              		.align	2
 2397              		.global	ce_LoopRecur
 2398              		.thumb
 2399              		.thumb_func
 2400              		.type	ce_LoopRecur, %function
 2401              	ce_LoopRecur:
 2402              	.LFB26:
1030:u8glib_arm_v1.18.1\src/chessengine.c **** 
1031:u8glib_arm_v1.18.1\src/chessengine.c **** /*
1032:u8glib_arm_v1.18.1\src/chessengine.c ****   this subprocedure decides for evaluation of the current board situation or further (deeper) inves
1033:u8glib_arm_v1.18.1\src/chessengine.c ****   Argument pos is the new target position if the current piece 
1034:u8glib_arm_v1.18.1\src/chessengine.c **** 
1035:u8glib_arm_v1.18.1\src/chessengine.c **** */
1036:u8glib_arm_v1.18.1\src/chessengine.c **** uint8_t ce_LoopRecur(uint8_t pos)
1037:u8glib_arm_v1.18.1\src/chessengine.c **** {
 2403              		.loc 1 1037 0
 2404              		.cfi_startproc
 2405              		@ args = 0, pretend = 0, frame = 16
 2406              		@ frame_needed = 1, uses_anonymous_args = 0
 2407 0000 80B5     		push	{r7, lr}
 2408              		.cfi_def_cfa_offset 8
 2409              		.cfi_offset 7, -8
 2410              		.cfi_offset 14, -4
 2411 0002 84B0     		sub	sp, sp, #16
 2412              		.cfi_def_cfa_offset 24
 2413 0004 00AF     		add	r7, sp, #0
 2414              		.cfi_def_cfa_register 7
 2415 0006 0346     		mov	r3, r0
 2416 0008 FB71     		strb	r3, [r7, #7]
1038:u8glib_arm_v1.18.1\src/chessengine.c ****   eval_t eval;
1039:u8glib_arm_v1.18.1\src/chessengine.c ****   
1040:u8glib_arm_v1.18.1\src/chessengine.c ****   /* 1. check if target position is occupied by the same player (my_color) */
1041:u8glib_arm_v1.18.1\src/chessengine.c ****   /*     of if pos is somehow illegal or not valid */
1042:u8glib_arm_v1.18.1\src/chessengine.c ****   if ( cu_IsIllegalPosition(pos, stack_GetCurrElement()->current_color) != 0 )
 2417              		.loc 1 1042 0
 2418 000a FFF7FEFF 		bl	stack_GetCurrElement
 2419 000e 0346     		mov	r3, r0
 2420 0010 9B78     		ldrb	r3, [r3, #2]	@ zero_extendqisi2
 2421 0012 FA79     		ldrb	r2, [r7, #7]	@ zero_extendqisi2
 2422 0014 1046     		mov	r0, r2
 2423 0016 1946     		mov	r1, r3
 2424 0018 FFF7FEFF 		bl	cu_IsIllegalPosition
 2425 001c 0346     		mov	r3, r0
 2426 001e 002B     		cmp	r3, #0
 2427 0020 01D0     		beq	.L126
1043:u8glib_arm_v1.18.1\src/chessengine.c ****     return 0;
 2428              		.loc 1 1043 0
ARM GAS  C:\Users\KJA\AppData\Local\Temp\ccNNA7zi.s 			page 62


 2429 0022 0023     		movs	r3, #0
 2430 0024 61E0     		b	.L127
 2431              	.L126:
1044:u8glib_arm_v1.18.1\src/chessengine.c **** 
1045:u8glib_arm_v1.18.1\src/chessengine.c ****   /* 2. move piece to the specified position, capture opponent piece if required */
1046:u8glib_arm_v1.18.1\src/chessengine.c ****   cu_Move(stack_GetCurrElement()->current_pos, pos);
 2432              		.loc 1 1046 0
 2433 0026 FFF7FEFF 		bl	stack_GetCurrElement
 2434 002a 0346     		mov	r3, r0
 2435 002c 1A78     		ldrb	r2, [r3]	@ zero_extendqisi2
 2436 002e FB79     		ldrb	r3, [r7, #7]	@ zero_extendqisi2
 2437 0030 1046     		mov	r0, r2
 2438 0032 1946     		mov	r1, r3
 2439 0034 FFF7FEFF 		bl	cu_Move
1047:u8glib_arm_v1.18.1\src/chessengine.c **** 
1048:u8glib_arm_v1.18.1\src/chessengine.c ****   
1049:u8glib_arm_v1.18.1\src/chessengine.c ****   /* 3. */
1050:u8glib_arm_v1.18.1\src/chessengine.c ****   /* if depth reached: evaluate */
1051:u8glib_arm_v1.18.1\src/chessengine.c ****   /* else: go down next level */
1052:u8glib_arm_v1.18.1\src/chessengine.c ****   /* no eval if there had been any valid half-moves, so the default value (MIN) will be returned. *
1053:u8glib_arm_v1.18.1\src/chessengine.c ****   if ( stack_Push(stack_GetCurrElement()->current_color) == 0 )
 2440              		.loc 1 1053 0
 2441 0038 FFF7FEFF 		bl	stack_GetCurrElement
 2442 003c 0346     		mov	r3, r0
 2443 003e 9B78     		ldrb	r3, [r3, #2]	@ zero_extendqisi2
 2444 0040 1846     		mov	r0, r3
 2445 0042 FFF7FEFF 		bl	stack_Push
 2446 0046 0346     		mov	r3, r0
 2447 0048 002B     		cmp	r3, #0
 2448 004a 04D1     		bne	.L128
1054:u8glib_arm_v1.18.1\src/chessengine.c ****   {
1055:u8glib_arm_v1.18.1\src/chessengine.c ****     eval = ce_Eval();
 2449              		.loc 1 1055 0
 2450 004c FFF7FEFF 		bl	ce_Eval
 2451 0050 0346     		mov	r3, r0
 2452 0052 FB81     		strh	r3, [r7, #14]	@ movhi
 2453 0054 0DE0     		b	.L129
 2454              	.L128:
1056:u8glib_arm_v1.18.1\src/chessengine.c ****   }
1057:u8glib_arm_v1.18.1\src/chessengine.c ****   else
1058:u8glib_arm_v1.18.1\src/chessengine.c ****   {
1059:u8glib_arm_v1.18.1\src/chessengine.c ****     /* init the element, which has been pushed */
1060:u8glib_arm_v1.18.1\src/chessengine.c ****     stack_InitCurrElement();
 2455              		.loc 1 1060 0
 2456 0056 FFF7FEFF 		bl	stack_InitCurrElement
1061:u8glib_arm_v1.18.1\src/chessengine.c ****     /* start over with ntext level */
1062:u8glib_arm_v1.18.1\src/chessengine.c ****     ce_LoopPieces();
 2457              		.loc 1 1062 0
 2458 005a FFF7FEFF 		bl	ce_LoopPieces
1063:u8glib_arm_v1.18.1\src/chessengine.c ****     /* get the best move from opponents view, so invert the result */
1064:u8glib_arm_v1.18.1\src/chessengine.c ****     eval = -stack_GetCurrElement()->best_eval;
 2459              		.loc 1 1064 0
 2460 005e FFF7FEFF 		bl	stack_GetCurrElement
 2461 0062 0346     		mov	r3, r0
 2462 0064 DB88     		ldrh	r3, [r3, #6]
 2463 0066 9BB2     		uxth	r3, r3
 2464 0068 5B42     		negs	r3, r3
ARM GAS  C:\Users\KJA\AppData\Local\Temp\ccNNA7zi.s 			page 63


 2465 006a 9BB2     		uxth	r3, r3
 2466 006c FB81     		strh	r3, [r7, #14]	@ movhi
1065:u8glib_arm_v1.18.1\src/chessengine.c ****     stack_Pop();
 2467              		.loc 1 1065 0
 2468 006e FFF7FEFF 		bl	stack_Pop
 2469              	.L129:
1066:u8glib_arm_v1.18.1\src/chessengine.c ****   }
1067:u8glib_arm_v1.18.1\src/chessengine.c ****   
1068:u8glib_arm_v1.18.1\src/chessengine.c ****   /* 4. store result */
1069:u8glib_arm_v1.18.1\src/chessengine.c ****   stack_SetMove(eval, pos);
 2470              		.loc 1 1069 0
 2471 0072 B7F90E20 		ldrsh	r2, [r7, #14]
 2472 0076 FB79     		ldrb	r3, [r7, #7]	@ zero_extendqisi2
 2473 0078 1046     		mov	r0, r2
 2474 007a 1946     		mov	r1, r3
 2475 007c FFF7FEFF 		bl	stack_SetMove
1070:u8glib_arm_v1.18.1\src/chessengine.c ****   
1071:u8glib_arm_v1.18.1\src/chessengine.c ****   /* 5. undo the move */
1072:u8glib_arm_v1.18.1\src/chessengine.c ****   cu_UndoHalfMove();
 2476              		.loc 1 1072 0
 2477 0080 FFF7FEFF 		bl	cu_UndoHalfMove
1073:u8glib_arm_v1.18.1\src/chessengine.c ****   
1074:u8glib_arm_v1.18.1\src/chessengine.c ****   /* 6. check special modes */
1075:u8glib_arm_v1.18.1\src/chessengine.c ****   /* the purpose of these checks is to mark special pieces and positions on the board */
1076:u8glib_arm_v1.18.1\src/chessengine.c ****   /* these marks can be checked by the user interface to highlight special positions */
1077:u8glib_arm_v1.18.1\src/chessengine.c ****   if ( lrc_obj.check_mode != 0 )
 2478              		.loc 1 1077 0
 2479 0084 1B4B     		ldr	r3, .L132
 2480 0086 93F84A30 		ldrb	r3, [r3, #74]	@ zero_extendqisi2
 2481 008a 002B     		cmp	r3, #0
 2482 008c 2CD0     		beq	.L130
 2483              	.LBB2:
1078:u8glib_arm_v1.18.1\src/chessengine.c ****   {
1079:u8glib_arm_v1.18.1\src/chessengine.c ****     stack_element_p e = stack_GetCurrElement();
 2484              		.loc 1 1079 0
 2485 008e FFF7FEFF 		bl	stack_GetCurrElement
 2486 0092 B860     		str	r0, [r7, #8]
1080:u8glib_arm_v1.18.1\src/chessengine.c ****     if ( lrc_obj.check_mode == CHECK_MODE_MOVEABLE )
 2487              		.loc 1 1080 0
 2488 0094 174B     		ldr	r3, .L132
 2489 0096 93F84A30 		ldrb	r3, [r3, #74]	@ zero_extendqisi2
 2490 009a 012B     		cmp	r3, #1
 2491 009c 0BD1     		bne	.L131
1081:u8glib_arm_v1.18.1\src/chessengine.c ****     {
1082:u8glib_arm_v1.18.1\src/chessengine.c ****       cp_SetOnBoard(e->current_pos, e->current_cp | CP_MARK_MASK );
 2492              		.loc 1 1082 0
 2493 009e BB68     		ldr	r3, [r7, #8]
 2494 00a0 1A78     		ldrb	r2, [r3]	@ zero_extendqisi2
 2495 00a2 BB68     		ldr	r3, [r7, #8]
 2496 00a4 5B78     		ldrb	r3, [r3, #1]	@ zero_extendqisi2
 2497 00a6 43F02003 		orr	r3, r3, #32
 2498 00aa DBB2     		uxtb	r3, r3
 2499 00ac 1046     		mov	r0, r2
 2500 00ae 1946     		mov	r1, r3
 2501 00b0 FFF7FEFF 		bl	cp_SetOnBoard
 2502 00b4 18E0     		b	.L130
 2503              	.L131:
ARM GAS  C:\Users\KJA\AppData\Local\Temp\ccNNA7zi.s 			page 64


1083:u8glib_arm_v1.18.1\src/chessengine.c ****     }
1084:u8glib_arm_v1.18.1\src/chessengine.c ****     else if ( lrc_obj.check_mode == CHECK_MODE_TARGET_MOVE )
 2504              		.loc 1 1084 0
 2505 00b6 0F4B     		ldr	r3, .L132
 2506 00b8 93F84A30 		ldrb	r3, [r3, #74]	@ zero_extendqisi2
 2507 00bc 022B     		cmp	r3, #2
 2508 00be 13D1     		bne	.L130
1085:u8glib_arm_v1.18.1\src/chessengine.c ****     {
1086:u8glib_arm_v1.18.1\src/chessengine.c ****       if ( e->current_pos == lrc_obj.check_src_pos )
 2509              		.loc 1 1086 0
 2510 00c0 BB68     		ldr	r3, [r7, #8]
 2511 00c2 1A78     		ldrb	r2, [r3]	@ zero_extendqisi2
 2512 00c4 0B4B     		ldr	r3, .L132
 2513 00c6 93F84930 		ldrb	r3, [r3, #73]	@ zero_extendqisi2
 2514 00ca 9A42     		cmp	r2, r3
 2515 00cc 0CD1     		bne	.L130
1087:u8glib_arm_v1.18.1\src/chessengine.c ****       {
1088:u8glib_arm_v1.18.1\src/chessengine.c **** 	cp_SetOnBoard(pos, cp_GetFromBoard(pos)  | CP_MARK_MASK );
 2516              		.loc 1 1088 0
 2517 00ce FB79     		ldrb	r3, [r7, #7]	@ zero_extendqisi2
 2518 00d0 1846     		mov	r0, r3
 2519 00d2 FFF7FEFF 		bl	cp_GetFromBoard
 2520 00d6 0346     		mov	r3, r0
 2521 00d8 43F02003 		orr	r3, r3, #32
 2522 00dc DBB2     		uxtb	r3, r3
 2523 00de FA79     		ldrb	r2, [r7, #7]	@ zero_extendqisi2
 2524 00e0 1046     		mov	r0, r2
 2525 00e2 1946     		mov	r1, r3
 2526 00e4 FFF7FEFF 		bl	cp_SetOnBoard
 2527              	.L130:
 2528              	.LBE2:
1089:u8glib_arm_v1.18.1\src/chessengine.c ****       }
1090:u8glib_arm_v1.18.1\src/chessengine.c ****     }
1091:u8glib_arm_v1.18.1\src/chessengine.c ****   }
1092:u8glib_arm_v1.18.1\src/chessengine.c ****   return 1;
 2529              		.loc 1 1092 0
 2530 00e8 0123     		movs	r3, #1
 2531              	.L127:
1093:u8glib_arm_v1.18.1\src/chessengine.c **** }
 2532              		.loc 1 1093 0
 2533 00ea 1846     		mov	r0, r3
 2534 00ec 1037     		adds	r7, r7, #16
 2535              		.cfi_def_cfa_offset 8
 2536 00ee BD46     		mov	sp, r7
 2537              		.cfi_def_cfa_register 13
 2538              		@ sp needed
 2539 00f0 80BD     		pop	{r7, pc}
 2540              	.L133:
 2541 00f2 00BF     		.align	2
 2542              	.L132:
 2543 00f4 00000000 		.word	lrc_obj
 2544              		.cfi_endproc
 2545              	.LFE26:
 2546              		.size	ce_LoopRecur, .-ce_LoopRecur
 2547              		.section	.rodata
 2548              		.align	2
 2549              		.type	ce_dir_offset_rook, %object
ARM GAS  C:\Users\KJA\AppData\Local\Temp\ccNNA7zi.s 			page 65


 2550              		.size	ce_dir_offset_rook, 5
 2551              	ce_dir_offset_rook:
 2552 0000 01       		.byte	1
 2553 0001 10       		.byte	16
 2554 0002 F0       		.byte	-16
 2555 0003 FF       		.byte	-1
 2556 0004 00       		.byte	0
 2557 0005 000000   		.align	2
 2558              		.type	ce_dir_offset_bishop, %object
 2559              		.size	ce_dir_offset_bishop, 5
 2560              	ce_dir_offset_bishop:
 2561 0008 0F       		.byte	15
 2562 0009 11       		.byte	17
 2563 000a EF       		.byte	-17
 2564 000b F1       		.byte	-15
 2565 000c 00       		.byte	0
 2566 000d 000000   		.align	2
 2567              		.type	ce_dir_offset_queen, %object
 2568              		.size	ce_dir_offset_queen, 9
 2569              	ce_dir_offset_queen:
 2570 0010 01       		.byte	1
 2571 0011 10       		.byte	16
 2572 0012 F0       		.byte	-16
 2573 0013 FF       		.byte	-1
 2574 0014 0F       		.byte	15
 2575 0015 11       		.byte	17
 2576 0016 EF       		.byte	-17
 2577 0017 F1       		.byte	-15
 2578 0018 00       		.byte	0
 2579 0019 000000   		.align	2
 2580              		.type	ce_dir_offset_knight, %object
 2581              		.size	ce_dir_offset_knight, 9
 2582              	ce_dir_offset_knight:
 2583 001c 0E       		.byte	14
 2584 001d F2       		.byte	-14
 2585 001e 12       		.byte	18
 2586 001f EE       		.byte	-18
 2587 0020 1F       		.byte	31
 2588 0021 E1       		.byte	-31
 2589 0022 21       		.byte	33
 2590 0023 DF       		.byte	-33
 2591 0024 00       		.byte	0
 2592              		.section	.text.ce_LoopDirsSingleMultiStep,"ax",%progbits
 2593              		.align	2
 2594              		.global	ce_LoopDirsSingleMultiStep
 2595              		.thumb
 2596              		.thumb_func
 2597              		.type	ce_LoopDirsSingleMultiStep, %function
 2598              	ce_LoopDirsSingleMultiStep:
 2599              	.LFB27:
1094:u8glib_arm_v1.18.1\src/chessengine.c **** 
1095:u8glib_arm_v1.18.1\src/chessengine.c **** /*==============================================================*/
1096:u8glib_arm_v1.18.1\src/chessengine.c **** /* move pieces which can move one or more steps into a direction */
1097:u8glib_arm_v1.18.1\src/chessengine.c **** /*==============================================================*/
1098:u8glib_arm_v1.18.1\src/chessengine.c **** 
1099:u8glib_arm_v1.18.1\src/chessengine.c **** /*
1100:u8glib_arm_v1.18.1\src/chessengine.c ****   subprocedure to generate various target positions for some pieces
ARM GAS  C:\Users\KJA\AppData\Local\Temp\ccNNA7zi.s 			page 66


1101:u8glib_arm_v1.18.1\src/chessengine.c ****   special cases are handled in the piece specific sub-procedure
1102:u8glib_arm_v1.18.1\src/chessengine.c **** 
1103:u8glib_arm_v1.18.1\src/chessengine.c ****   Arguments:
1104:u8glib_arm_v1.18.1\src/chessengine.c ****     d: a list of potential directions
1105:u8glib_arm_v1.18.1\src/chessengine.c ****     is_multi_step: if the piece can only do one step (zero for KING and KNIGHT)
1106:u8glib_arm_v1.18.1\src/chessengine.c **** */
1107:u8glib_arm_v1.18.1\src/chessengine.c **** static const uint8_t ce_dir_offset_rook[] PROGMEM = { 1, 16, -16, -1, 0 };
1108:u8glib_arm_v1.18.1\src/chessengine.c **** static const uint8_t ce_dir_offset_bishop[] PROGMEM = { 15, 17, -17, -15, 0 };
1109:u8glib_arm_v1.18.1\src/chessengine.c **** static const uint8_t ce_dir_offset_queen[] PROGMEM = { 1, 16, -16, -1, 15, 17, -17, -15, 0 };
1110:u8glib_arm_v1.18.1\src/chessengine.c **** static const uint8_t ce_dir_offset_knight[] PROGMEM = {14, -14, 18, -18, 31, -31, 33, -33, 0};
1111:u8glib_arm_v1.18.1\src/chessengine.c **** 
1112:u8glib_arm_v1.18.1\src/chessengine.c **** void ce_LoopDirsSingleMultiStep(const uint8_t *d, uint8_t is_multi_step)
1113:u8glib_arm_v1.18.1\src/chessengine.c **** {
 2600              		.loc 1 1113 0
 2601              		.cfi_startproc
 2602              		@ args = 0, pretend = 0, frame = 16
 2603              		@ frame_needed = 1, uses_anonymous_args = 0
 2604 0000 80B5     		push	{r7, lr}
 2605              		.cfi_def_cfa_offset 8
 2606              		.cfi_offset 7, -8
 2607              		.cfi_offset 14, -4
 2608 0002 84B0     		sub	sp, sp, #16
 2609              		.cfi_def_cfa_offset 24
 2610 0004 00AF     		add	r7, sp, #0
 2611              		.cfi_def_cfa_register 7
 2612 0006 7860     		str	r0, [r7, #4]
 2613 0008 0B46     		mov	r3, r1
 2614 000a FB70     		strb	r3, [r7, #3]
 2615              	.L141:
1114:u8glib_arm_v1.18.1\src/chessengine.c ****   uint8_t loop_pos;
1115:u8glib_arm_v1.18.1\src/chessengine.c ****   
1116:u8glib_arm_v1.18.1\src/chessengine.c ****   /* with all directions */
1117:u8glib_arm_v1.18.1\src/chessengine.c ****   for(;;)
1118:u8glib_arm_v1.18.1\src/chessengine.c ****   {
1119:u8glib_arm_v1.18.1\src/chessengine.c ****     if ( u8g_pgm_read(d) == 0 )
 2616              		.loc 1 1119 0
 2617 000c 7B68     		ldr	r3, [r7, #4]
 2618 000e 1B78     		ldrb	r3, [r3]	@ zero_extendqisi2
 2619 0010 002B     		cmp	r3, #0
 2620 0012 00D1     		bne	.L135
1120:u8glib_arm_v1.18.1\src/chessengine.c ****       break;
 2621              		.loc 1 1120 0
 2622 0014 24E0     		b	.L142
 2623              	.L135:
1121:u8glib_arm_v1.18.1\src/chessengine.c ****     
1122:u8glib_arm_v1.18.1\src/chessengine.c ****     /* start again from the initial position */
1123:u8glib_arm_v1.18.1\src/chessengine.c ****     loop_pos = stack_GetCurrElement()->current_pos;
 2624              		.loc 1 1123 0
 2625 0016 FFF7FEFF 		bl	stack_GetCurrElement
 2626 001a 0346     		mov	r3, r0
 2627 001c 1B78     		ldrb	r3, [r3]
 2628 001e FB73     		strb	r3, [r7, #15]
 2629              	.L140:
1124:u8glib_arm_v1.18.1\src/chessengine.c ****     
1125:u8glib_arm_v1.18.1\src/chessengine.c ****     /* check direction */
1126:u8glib_arm_v1.18.1\src/chessengine.c ****     do
1127:u8glib_arm_v1.18.1\src/chessengine.c ****     {
ARM GAS  C:\Users\KJA\AppData\Local\Temp\ccNNA7zi.s 			page 67


1128:u8glib_arm_v1.18.1\src/chessengine.c ****       /* check next position into one direction */
1129:u8glib_arm_v1.18.1\src/chessengine.c ****       loop_pos += u8g_pgm_read(d);
 2630              		.loc 1 1129 0
 2631 0020 7B68     		ldr	r3, [r7, #4]
 2632 0022 1A78     		ldrb	r2, [r3]	@ zero_extendqisi2
 2633 0024 FB7B     		ldrb	r3, [r7, #15]
 2634 0026 1344     		add	r3, r3, r2
 2635 0028 FB73     		strb	r3, [r7, #15]
1130:u8glib_arm_v1.18.1\src/chessengine.c ****       
1131:u8glib_arm_v1.18.1\src/chessengine.c ****       /*
1132:u8glib_arm_v1.18.1\src/chessengine.c **** 	go further to ce_LoopRecur()
1133:u8glib_arm_v1.18.1\src/chessengine.c **** 	0 will be returned if the target position is illegal or a piece of the own color
1134:u8glib_arm_v1.18.1\src/chessengine.c **** 	this is used to stop walking into one direction
1135:u8glib_arm_v1.18.1\src/chessengine.c ****       */
1136:u8glib_arm_v1.18.1\src/chessengine.c ****       if ( ce_LoopRecur(loop_pos) == 0 )
 2636              		.loc 1 1136 0
 2637 002a FB7B     		ldrb	r3, [r7, #15]	@ zero_extendqisi2
 2638 002c 1846     		mov	r0, r3
 2639 002e FFF7FEFF 		bl	ce_LoopRecur
 2640 0032 0346     		mov	r3, r0
 2641 0034 002B     		cmp	r3, #0
 2642 0036 00D1     		bne	.L137
1137:u8glib_arm_v1.18.1\src/chessengine.c **** 	break;
 2643              		.loc 1 1137 0
 2644 0038 0EE0     		b	.L138
 2645              	.L137:
1138:u8glib_arm_v1.18.1\src/chessengine.c ****       
1139:u8glib_arm_v1.18.1\src/chessengine.c ****       /* stop if we had hit another piece */
1140:u8glib_arm_v1.18.1\src/chessengine.c ****       if ( cp_GetPiece(cp_GetFromBoard(loop_pos)) != PIECE_NONE )
 2646              		.loc 1 1140 0
 2647 003a FB7B     		ldrb	r3, [r7, #15]	@ zero_extendqisi2
 2648 003c 1846     		mov	r0, r3
 2649 003e FFF7FEFF 		bl	cp_GetFromBoard
 2650 0042 0346     		mov	r3, r0
 2651 0044 1846     		mov	r0, r3
 2652 0046 FFF7FEFF 		bl	cp_GetPiece
 2653 004a 0346     		mov	r3, r0
 2654 004c 002B     		cmp	r3, #0
 2655 004e 00D0     		beq	.L139
1141:u8glib_arm_v1.18.1\src/chessengine.c **** 	break;
 2656              		.loc 1 1141 0
 2657 0050 02E0     		b	.L138
 2658              	.L139:
1142:u8glib_arm_v1.18.1\src/chessengine.c ****     } while( is_multi_step );
 2659              		.loc 1 1142 0
 2660 0052 FB78     		ldrb	r3, [r7, #3]	@ zero_extendqisi2
 2661 0054 002B     		cmp	r3, #0
 2662 0056 E3D1     		bne	.L140
 2663              	.L138:
1143:u8glib_arm_v1.18.1\src/chessengine.c ****     d++;
 2664              		.loc 1 1143 0
 2665 0058 7B68     		ldr	r3, [r7, #4]
 2666 005a 0133     		adds	r3, r3, #1
 2667 005c 7B60     		str	r3, [r7, #4]
1144:u8glib_arm_v1.18.1\src/chessengine.c ****   }
 2668              		.loc 1 1144 0
 2669 005e D5E7     		b	.L141
ARM GAS  C:\Users\KJA\AppData\Local\Temp\ccNNA7zi.s 			page 68


 2670              	.L142:
1145:u8glib_arm_v1.18.1\src/chessengine.c **** }
 2671              		.loc 1 1145 0
 2672 0060 1037     		adds	r7, r7, #16
 2673              		.cfi_def_cfa_offset 8
 2674 0062 BD46     		mov	sp, r7
 2675              		.cfi_def_cfa_register 13
 2676              		@ sp needed
 2677 0064 80BD     		pop	{r7, pc}
 2678              		.cfi_endproc
 2679              	.LFE27:
 2680              		.size	ce_LoopDirsSingleMultiStep, .-ce_LoopDirsSingleMultiStep
 2681 0066 00BF     		.section	.text.ce_LoopRook,"ax",%progbits
 2682              		.align	2
 2683              		.global	ce_LoopRook
 2684              		.thumb
 2685              		.thumb_func
 2686              		.type	ce_LoopRook, %function
 2687              	ce_LoopRook:
 2688              	.LFB28:
1146:u8glib_arm_v1.18.1\src/chessengine.c **** 
1147:u8glib_arm_v1.18.1\src/chessengine.c **** void ce_LoopRook(void)
1148:u8glib_arm_v1.18.1\src/chessengine.c **** {
 2689              		.loc 1 1148 0
 2690              		.cfi_startproc
 2691              		@ args = 0, pretend = 0, frame = 0
 2692              		@ frame_needed = 1, uses_anonymous_args = 0
 2693 0000 80B5     		push	{r7, lr}
 2694              		.cfi_def_cfa_offset 8
 2695              		.cfi_offset 7, -8
 2696              		.cfi_offset 14, -4
 2697 0002 00AF     		add	r7, sp, #0
 2698              		.cfi_def_cfa_register 7
1149:u8glib_arm_v1.18.1\src/chessengine.c ****   ce_LoopDirsSingleMultiStep(ce_dir_offset_rook, 1);
 2699              		.loc 1 1149 0
 2700 0004 0248     		ldr	r0, .L144
 2701 0006 0121     		movs	r1, #1
 2702 0008 FFF7FEFF 		bl	ce_LoopDirsSingleMultiStep
1150:u8glib_arm_v1.18.1\src/chessengine.c **** }
 2703              		.loc 1 1150 0
 2704 000c 80BD     		pop	{r7, pc}
 2705              	.L145:
 2706 000e 00BF     		.align	2
 2707              	.L144:
 2708 0010 00000000 		.word	ce_dir_offset_rook
 2709              		.cfi_endproc
 2710              	.LFE28:
 2711              		.size	ce_LoopRook, .-ce_LoopRook
 2712              		.section	.text.ce_LoopBishop,"ax",%progbits
 2713              		.align	2
 2714              		.global	ce_LoopBishop
 2715              		.thumb
 2716              		.thumb_func
 2717              		.type	ce_LoopBishop, %function
 2718              	ce_LoopBishop:
 2719              	.LFB29:
1151:u8glib_arm_v1.18.1\src/chessengine.c **** 
ARM GAS  C:\Users\KJA\AppData\Local\Temp\ccNNA7zi.s 			page 69


1152:u8glib_arm_v1.18.1\src/chessengine.c **** void ce_LoopBishop(void)
1153:u8glib_arm_v1.18.1\src/chessengine.c **** {
 2720              		.loc 1 1153 0
 2721              		.cfi_startproc
 2722              		@ args = 0, pretend = 0, frame = 0
 2723              		@ frame_needed = 1, uses_anonymous_args = 0
 2724 0000 80B5     		push	{r7, lr}
 2725              		.cfi_def_cfa_offset 8
 2726              		.cfi_offset 7, -8
 2727              		.cfi_offset 14, -4
 2728 0002 00AF     		add	r7, sp, #0
 2729              		.cfi_def_cfa_register 7
1154:u8glib_arm_v1.18.1\src/chessengine.c ****   ce_LoopDirsSingleMultiStep(ce_dir_offset_bishop, 1);
 2730              		.loc 1 1154 0
 2731 0004 0248     		ldr	r0, .L147
 2732 0006 0121     		movs	r1, #1
 2733 0008 FFF7FEFF 		bl	ce_LoopDirsSingleMultiStep
1155:u8glib_arm_v1.18.1\src/chessengine.c **** }
 2734              		.loc 1 1155 0
 2735 000c 80BD     		pop	{r7, pc}
 2736              	.L148:
 2737 000e 00BF     		.align	2
 2738              	.L147:
 2739 0010 08000000 		.word	ce_dir_offset_bishop
 2740              		.cfi_endproc
 2741              	.LFE29:
 2742              		.size	ce_LoopBishop, .-ce_LoopBishop
 2743              		.section	.text.ce_LoopQueen,"ax",%progbits
 2744              		.align	2
 2745              		.global	ce_LoopQueen
 2746              		.thumb
 2747              		.thumb_func
 2748              		.type	ce_LoopQueen, %function
 2749              	ce_LoopQueen:
 2750              	.LFB30:
1156:u8glib_arm_v1.18.1\src/chessengine.c **** 
1157:u8glib_arm_v1.18.1\src/chessengine.c **** void ce_LoopQueen(void)
1158:u8glib_arm_v1.18.1\src/chessengine.c **** {
 2751              		.loc 1 1158 0
 2752              		.cfi_startproc
 2753              		@ args = 0, pretend = 0, frame = 0
 2754              		@ frame_needed = 1, uses_anonymous_args = 0
 2755 0000 80B5     		push	{r7, lr}
 2756              		.cfi_def_cfa_offset 8
 2757              		.cfi_offset 7, -8
 2758              		.cfi_offset 14, -4
 2759 0002 00AF     		add	r7, sp, #0
 2760              		.cfi_def_cfa_register 7
1159:u8glib_arm_v1.18.1\src/chessengine.c ****   ce_LoopDirsSingleMultiStep(ce_dir_offset_queen, 1);
 2761              		.loc 1 1159 0
 2762 0004 0248     		ldr	r0, .L150
 2763 0006 0121     		movs	r1, #1
 2764 0008 FFF7FEFF 		bl	ce_LoopDirsSingleMultiStep
1160:u8glib_arm_v1.18.1\src/chessengine.c **** }
 2765              		.loc 1 1160 0
 2766 000c 80BD     		pop	{r7, pc}
 2767              	.L151:
ARM GAS  C:\Users\KJA\AppData\Local\Temp\ccNNA7zi.s 			page 70


 2768 000e 00BF     		.align	2
 2769              	.L150:
 2770 0010 10000000 		.word	ce_dir_offset_queen
 2771              		.cfi_endproc
 2772              	.LFE30:
 2773              		.size	ce_LoopQueen, .-ce_LoopQueen
 2774              		.section	.text.ce_LoopKnight,"ax",%progbits
 2775              		.align	2
 2776              		.global	ce_LoopKnight
 2777              		.thumb
 2778              		.thumb_func
 2779              		.type	ce_LoopKnight, %function
 2780              	ce_LoopKnight:
 2781              	.LFB31:
1161:u8glib_arm_v1.18.1\src/chessengine.c **** 
1162:u8glib_arm_v1.18.1\src/chessengine.c **** void ce_LoopKnight(void)
1163:u8glib_arm_v1.18.1\src/chessengine.c **** {
 2782              		.loc 1 1163 0
 2783              		.cfi_startproc
 2784              		@ args = 0, pretend = 0, frame = 0
 2785              		@ frame_needed = 1, uses_anonymous_args = 0
 2786 0000 80B5     		push	{r7, lr}
 2787              		.cfi_def_cfa_offset 8
 2788              		.cfi_offset 7, -8
 2789              		.cfi_offset 14, -4
 2790 0002 00AF     		add	r7, sp, #0
 2791              		.cfi_def_cfa_register 7
1164:u8glib_arm_v1.18.1\src/chessengine.c ****   ce_LoopDirsSingleMultiStep(ce_dir_offset_knight, 0);
 2792              		.loc 1 1164 0
 2793 0004 0248     		ldr	r0, .L153
 2794 0006 0021     		movs	r1, #0
 2795 0008 FFF7FEFF 		bl	ce_LoopDirsSingleMultiStep
1165:u8glib_arm_v1.18.1\src/chessengine.c **** }
 2796              		.loc 1 1165 0
 2797 000c 80BD     		pop	{r7, pc}
 2798              	.L154:
 2799 000e 00BF     		.align	2
 2800              	.L153:
 2801 0010 1C000000 		.word	ce_dir_offset_knight
 2802              		.cfi_endproc
 2803              	.LFE31:
 2804              		.size	ce_LoopKnight, .-ce_LoopKnight
 2805              		.section	.text.cu_IsKingCastling,"ax",%progbits
 2806              		.align	2
 2807              		.global	cu_IsKingCastling
 2808              		.thumb
 2809              		.thumb_func
 2810              		.type	cu_IsKingCastling, %function
 2811              	cu_IsKingCastling:
 2812              	.LFB32:
1166:u8glib_arm_v1.18.1\src/chessengine.c **** 
1167:u8glib_arm_v1.18.1\src/chessengine.c **** 
1168:u8glib_arm_v1.18.1\src/chessengine.c **** 
1169:u8glib_arm_v1.18.1\src/chessengine.c **** /*==============================================================*/
1170:u8glib_arm_v1.18.1\src/chessengine.c **** /* move king */
1171:u8glib_arm_v1.18.1\src/chessengine.c **** /*==============================================================*/
1172:u8glib_arm_v1.18.1\src/chessengine.c **** 
ARM GAS  C:\Users\KJA\AppData\Local\Temp\ccNNA7zi.s 			page 71


1173:u8glib_arm_v1.18.1\src/chessengine.c **** uint8_t cu_IsKingCastling(uint8_t mask, int8_t direction, uint8_t cnt) U8G_NOINLINE;
1174:u8glib_arm_v1.18.1\src/chessengine.c **** 
1175:u8glib_arm_v1.18.1\src/chessengine.c **** /*
1176:u8glib_arm_v1.18.1\src/chessengine.c ****   checks, if the king can do castling
1177:u8glib_arm_v1.18.1\src/chessengine.c **** 
1178:u8glib_arm_v1.18.1\src/chessengine.c ****   Arguments:
1179:u8glib_arm_v1.18.1\src/chessengine.c ****     mask:		the bit-mask for the global "castling possible" flag
1180:u8glib_arm_v1.18.1\src/chessengine.c ****     direction:	left castling: -1, right castling 1
1181:u8glib_arm_v1.18.1\src/chessengine.c ****     cnt:		number of fields to be checked: 3 or 2
1182:u8glib_arm_v1.18.1\src/chessengine.c **** */
1183:u8glib_arm_v1.18.1\src/chessengine.c **** uint8_t cu_IsKingCastling(uint8_t mask, int8_t direction, uint8_t cnt)
1184:u8glib_arm_v1.18.1\src/chessengine.c **** {
 2813              		.loc 1 1184 0
 2814              		.cfi_startproc
 2815              		@ args = 0, pretend = 0, frame = 16
 2816              		@ frame_needed = 1, uses_anonymous_args = 0
 2817 0000 80B5     		push	{r7, lr}
 2818              		.cfi_def_cfa_offset 8
 2819              		.cfi_offset 7, -8
 2820              		.cfi_offset 14, -4
 2821 0002 84B0     		sub	sp, sp, #16
 2822              		.cfi_def_cfa_offset 24
 2823 0004 00AF     		add	r7, sp, #0
 2824              		.cfi_def_cfa_register 7
 2825 0006 0346     		mov	r3, r0
 2826 0008 FB71     		strb	r3, [r7, #7]
 2827 000a 0B46     		mov	r3, r1
 2828 000c BB71     		strb	r3, [r7, #6]
 2829 000e 1346     		mov	r3, r2
 2830 0010 7B71     		strb	r3, [r7, #5]
1185:u8glib_arm_v1.18.1\src/chessengine.c ****   uint8_t pos;
1186:u8glib_arm_v1.18.1\src/chessengine.c ****   uint8_t opponent_color;
1187:u8glib_arm_v1.18.1\src/chessengine.c ****   
1188:u8glib_arm_v1.18.1\src/chessengine.c ****   /* check if the current board state allows castling */
1189:u8glib_arm_v1.18.1\src/chessengine.c ****   if ( (lrc_obj.castling_possible & mask) == 0 )
 2831              		.loc 1 1189 0
 2832 0012 264B     		ldr	r3, .L163
 2833 0014 93F84420 		ldrb	r2, [r3, #68]	@ zero_extendqisi2
 2834 0018 FB79     		ldrb	r3, [r7, #7]
 2835 001a 1340     		ands	r3, r3, r2
 2836 001c DBB2     		uxtb	r3, r3
 2837 001e 002B     		cmp	r3, #0
 2838 0020 01D1     		bne	.L156
1190:u8glib_arm_v1.18.1\src/chessengine.c ****     return 0; 	/* castling not allowed */
 2839              		.loc 1 1190 0
 2840 0022 0023     		movs	r3, #0
 2841 0024 3EE0     		b	.L157
 2842              	.L156:
1191:u8glib_arm_v1.18.1\src/chessengine.c ****   
1192:u8glib_arm_v1.18.1\src/chessengine.c ****   /* get the position of the KING, could be white or black king */
1193:u8glib_arm_v1.18.1\src/chessengine.c ****   pos = stack_GetCurrElement()->current_pos;
 2843              		.loc 1 1193 0
 2844 0026 FFF7FEFF 		bl	stack_GetCurrElement
 2845 002a 0346     		mov	r3, r0
 2846 002c 1B78     		ldrb	r3, [r3]
 2847 002e FB73     		strb	r3, [r7, #15]
1194:u8glib_arm_v1.18.1\src/chessengine.c ****   
ARM GAS  C:\Users\KJA\AppData\Local\Temp\ccNNA7zi.s 			page 72


1195:u8glib_arm_v1.18.1\src/chessengine.c ****   /* calculate the color of the opponent */
1196:u8glib_arm_v1.18.1\src/chessengine.c ****   opponent_color = 1;
 2848              		.loc 1 1196 0
 2849 0030 0123     		movs	r3, #1
 2850 0032 BB73     		strb	r3, [r7, #14]
1197:u8glib_arm_v1.18.1\src/chessengine.c ****   opponent_color -= stack_GetCurrElement()->current_color;
 2851              		.loc 1 1197 0
 2852 0034 FFF7FEFF 		bl	stack_GetCurrElement
 2853 0038 0346     		mov	r3, r0
 2854 003a 9B78     		ldrb	r3, [r3, #2]	@ zero_extendqisi2
 2855 003c BA7B     		ldrb	r2, [r7, #14]
 2856 003e D31A     		subs	r3, r2, r3
 2857 0040 BB73     		strb	r3, [r7, #14]
1198:u8glib_arm_v1.18.1\src/chessengine.c ****   
1199:u8glib_arm_v1.18.1\src/chessengine.c ****   /* if the KING itself is given check... */
1200:u8glib_arm_v1.18.1\src/chessengine.c ****   if ( ce_GetPositionAttackWeight(pos, opponent_color) > 0 )
 2858              		.loc 1 1200 0
 2859 0042 FA7B     		ldrb	r2, [r7, #15]	@ zero_extendqisi2
 2860 0044 BB7B     		ldrb	r3, [r7, #14]	@ zero_extendqisi2
 2861 0046 1046     		mov	r0, r2
 2862 0048 1946     		mov	r1, r3
 2863 004a FFF7FEFF 		bl	ce_GetPositionAttackWeight
 2864 004e 0346     		mov	r3, r0
 2865 0050 002B     		cmp	r3, #0
 2866 0052 01D0     		beq	.L158
1201:u8glib_arm_v1.18.1\src/chessengine.c ****     return 0;
 2867              		.loc 1 1201 0
 2868 0054 0023     		movs	r3, #0
 2869 0056 25E0     		b	.L157
 2870              	.L158:
1202:u8glib_arm_v1.18.1\src/chessengine.c **** 
1203:u8glib_arm_v1.18.1\src/chessengine.c ****   
1204:u8glib_arm_v1.18.1\src/chessengine.c ****   /* check if fields in the desired direction are emtpy */
1205:u8glib_arm_v1.18.1\src/chessengine.c ****   for(;;)
1206:u8glib_arm_v1.18.1\src/chessengine.c ****   {
1207:u8glib_arm_v1.18.1\src/chessengine.c ****     /* go to the next field */
1208:u8glib_arm_v1.18.1\src/chessengine.c ****     pos += direction;
 2871              		.loc 1 1208 0
 2872 0058 BA79     		ldrb	r2, [r7, #6]	@ zero_extendqisi2
 2873 005a FB7B     		ldrb	r3, [r7, #15]
 2874 005c 1344     		add	r3, r3, r2
 2875 005e FB73     		strb	r3, [r7, #15]
1209:u8glib_arm_v1.18.1\src/chessengine.c ****     /* check for a piece */
1210:u8glib_arm_v1.18.1\src/chessengine.c ****     if ( cp_GetPiece(cp_GetFromBoard(pos)) != PIECE_NONE )
 2876              		.loc 1 1210 0
 2877 0060 FB7B     		ldrb	r3, [r7, #15]	@ zero_extendqisi2
 2878 0062 1846     		mov	r0, r3
 2879 0064 FFF7FEFF 		bl	cp_GetFromBoard
 2880 0068 0346     		mov	r3, r0
 2881 006a 1846     		mov	r0, r3
 2882 006c FFF7FEFF 		bl	cp_GetPiece
 2883 0070 0346     		mov	r3, r0
 2884 0072 002B     		cmp	r3, #0
 2885 0074 01D0     		beq	.L159
1211:u8glib_arm_v1.18.1\src/chessengine.c ****       return 0;		/* castling not allowed */
 2886              		.loc 1 1211 0
 2887 0076 0023     		movs	r3, #0
ARM GAS  C:\Users\KJA\AppData\Local\Temp\ccNNA7zi.s 			page 73


 2888 0078 14E0     		b	.L157
 2889              	.L159:
1212:u8glib_arm_v1.18.1\src/chessengine.c **** 
1213:u8glib_arm_v1.18.1\src/chessengine.c ****     /* if some of the fields are under attack */
1214:u8glib_arm_v1.18.1\src/chessengine.c ****     if ( ce_GetPositionAttackWeight(pos, opponent_color) > 0 )
 2890              		.loc 1 1214 0
 2891 007a FA7B     		ldrb	r2, [r7, #15]	@ zero_extendqisi2
 2892 007c BB7B     		ldrb	r3, [r7, #14]	@ zero_extendqisi2
 2893 007e 1046     		mov	r0, r2
 2894 0080 1946     		mov	r1, r3
 2895 0082 FFF7FEFF 		bl	ce_GetPositionAttackWeight
 2896 0086 0346     		mov	r3, r0
 2897 0088 002B     		cmp	r3, #0
 2898 008a 01D0     		beq	.L160
1215:u8glib_arm_v1.18.1\src/chessengine.c ****       return 0;
 2899              		.loc 1 1215 0
 2900 008c 0023     		movs	r3, #0
 2901 008e 09E0     		b	.L157
 2902              	.L160:
1216:u8glib_arm_v1.18.1\src/chessengine.c ****     
1217:u8glib_arm_v1.18.1\src/chessengine.c ****     cnt--;
 2903              		.loc 1 1217 0
 2904 0090 7B79     		ldrb	r3, [r7, #5]	@ zero_extendqisi2
 2905 0092 013B     		subs	r3, r3, #1
 2906 0094 7B71     		strb	r3, [r7, #5]
1218:u8glib_arm_v1.18.1\src/chessengine.c ****     if ( cnt == 0 )
 2907              		.loc 1 1218 0
 2908 0096 7B79     		ldrb	r3, [r7, #5]	@ zero_extendqisi2
 2909 0098 002B     		cmp	r3, #0
 2910 009a 02D1     		bne	.L161
1219:u8glib_arm_v1.18.1\src/chessengine.c ****       break;
 2911              		.loc 1 1219 0
 2912 009c 00BF     		nop
1220:u8glib_arm_v1.18.1\src/chessengine.c ****   }
1221:u8glib_arm_v1.18.1\src/chessengine.c ****   return 1; /* castling allowed */
 2913              		.loc 1 1221 0
 2914 009e 0123     		movs	r3, #1
 2915 00a0 00E0     		b	.L157
 2916              	.L161:
1220:u8glib_arm_v1.18.1\src/chessengine.c ****   }
 2917              		.loc 1 1220 0
 2918 00a2 D9E7     		b	.L158
 2919              	.L157:
1222:u8glib_arm_v1.18.1\src/chessengine.c **** }
 2920              		.loc 1 1222 0
 2921 00a4 1846     		mov	r0, r3
 2922 00a6 1037     		adds	r7, r7, #16
 2923              		.cfi_def_cfa_offset 8
 2924 00a8 BD46     		mov	sp, r7
 2925              		.cfi_def_cfa_register 13
 2926              		@ sp needed
 2927 00aa 80BD     		pop	{r7, pc}
 2928              	.L164:
 2929              		.align	2
 2930              	.L163:
 2931 00ac 00000000 		.word	lrc_obj
 2932              		.cfi_endproc
ARM GAS  C:\Users\KJA\AppData\Local\Temp\ccNNA7zi.s 			page 74


 2933              	.LFE32:
 2934              		.size	cu_IsKingCastling, .-cu_IsKingCastling
 2935              		.section	.text.ce_LoopKing,"ax",%progbits
 2936              		.align	2
 2937              		.global	ce_LoopKing
 2938              		.thumb
 2939              		.thumb_func
 2940              		.type	ce_LoopKing, %function
 2941              	ce_LoopKing:
 2942              	.LFB33:
1223:u8glib_arm_v1.18.1\src/chessengine.c **** 
1224:u8glib_arm_v1.18.1\src/chessengine.c **** void ce_LoopKing(void)
1225:u8glib_arm_v1.18.1\src/chessengine.c **** {
 2943              		.loc 1 1225 0
 2944              		.cfi_startproc
 2945              		@ args = 0, pretend = 0, frame = 0
 2946              		@ frame_needed = 1, uses_anonymous_args = 0
 2947 0000 80B5     		push	{r7, lr}
 2948              		.cfi_def_cfa_offset 8
 2949              		.cfi_offset 7, -8
 2950              		.cfi_offset 14, -4
 2951 0002 00AF     		add	r7, sp, #0
 2952              		.cfi_def_cfa_register 7
1226:u8glib_arm_v1.18.1\src/chessengine.c ****   /*
1227:u8glib_arm_v1.18.1\src/chessengine.c ****     there is an interessting timing problem in this procedure
1228:u8glib_arm_v1.18.1\src/chessengine.c ****     it must be checked for castling first and as second step the normal
1229:u8glib_arm_v1.18.1\src/chessengine.c ****     KING movement. If we would first check for normal moves, than
1230:u8glib_arm_v1.18.1\src/chessengine.c ****     any marks might be overwritten by the ROOK in the case of castling.
1231:u8glib_arm_v1.18.1\src/chessengine.c ****   */
1232:u8glib_arm_v1.18.1\src/chessengine.c ****   
1233:u8glib_arm_v1.18.1\src/chessengine.c ****   /* castling (this must be done before checking normal moves (see above) */
1234:u8glib_arm_v1.18.1\src/chessengine.c ****   if ( stack_GetCurrElement()->current_color == COLOR_WHITE )
 2953              		.loc 1 1234 0
 2954 0004 FFF7FEFF 		bl	stack_GetCurrElement
 2955 0008 0346     		mov	r3, r0
 2956 000a 9B78     		ldrb	r3, [r3, #2]	@ zero_extendqisi2
 2957 000c 002B     		cmp	r3, #0
 2958 000e 23D1     		bne	.L166
1235:u8glib_arm_v1.18.1\src/chessengine.c ****   {
1236:u8glib_arm_v1.18.1\src/chessengine.c ****     /* white left castling */
1237:u8glib_arm_v1.18.1\src/chessengine.c ****     if ( cu_IsKingCastling(1, -1, 3) != 0 )
 2959              		.loc 1 1237 0
 2960 0010 0120     		movs	r0, #1
 2961 0012 4FF0FF31 		mov	r1, #-1
 2962 0016 0322     		movs	r2, #3
 2963 0018 FFF7FEFF 		bl	cu_IsKingCastling
 2964 001c 0346     		mov	r3, r0
 2965 001e 002B     		cmp	r3, #0
 2966 0020 08D0     		beq	.L167
1238:u8glib_arm_v1.18.1\src/chessengine.c ****     {
1239:u8glib_arm_v1.18.1\src/chessengine.c ****       /* check for attacked fields */
1240:u8glib_arm_v1.18.1\src/chessengine.c ****       ce_LoopRecur(stack_GetCurrElement()->current_pos-2);
 2967              		.loc 1 1240 0
 2968 0022 FFF7FEFF 		bl	stack_GetCurrElement
 2969 0026 0346     		mov	r3, r0
 2970 0028 1B78     		ldrb	r3, [r3]	@ zero_extendqisi2
 2971 002a 023B     		subs	r3, r3, #2
ARM GAS  C:\Users\KJA\AppData\Local\Temp\ccNNA7zi.s 			page 75


 2972 002c DBB2     		uxtb	r3, r3
 2973 002e 1846     		mov	r0, r3
 2974 0030 FFF7FEFF 		bl	ce_LoopRecur
 2975              	.L167:
1241:u8glib_arm_v1.18.1\src/chessengine.c ****     }
1242:u8glib_arm_v1.18.1\src/chessengine.c ****     /* white right castling */
1243:u8glib_arm_v1.18.1\src/chessengine.c ****     if ( cu_IsKingCastling(2, 1, 2) != 0 )
 2976              		.loc 1 1243 0
 2977 0034 0220     		movs	r0, #2
 2978 0036 0121     		movs	r1, #1
 2979 0038 0222     		movs	r2, #2
 2980 003a FFF7FEFF 		bl	cu_IsKingCastling
 2981 003e 0346     		mov	r3, r0
 2982 0040 002B     		cmp	r3, #0
 2983 0042 2CD0     		beq	.L169
1244:u8glib_arm_v1.18.1\src/chessengine.c ****     {
1245:u8glib_arm_v1.18.1\src/chessengine.c ****       /* check for attacked fields */
1246:u8glib_arm_v1.18.1\src/chessengine.c ****       ce_LoopRecur(stack_GetCurrElement()->current_pos+2);
 2984              		.loc 1 1246 0
 2985 0044 FFF7FEFF 		bl	stack_GetCurrElement
 2986 0048 0346     		mov	r3, r0
 2987 004a 1B78     		ldrb	r3, [r3]	@ zero_extendqisi2
 2988 004c 0233     		adds	r3, r3, #2
 2989 004e DBB2     		uxtb	r3, r3
 2990 0050 1846     		mov	r0, r3
 2991 0052 FFF7FEFF 		bl	ce_LoopRecur
 2992 0056 22E0     		b	.L169
 2993              	.L166:
1247:u8glib_arm_v1.18.1\src/chessengine.c ****     }
1248:u8glib_arm_v1.18.1\src/chessengine.c ****   }
1249:u8glib_arm_v1.18.1\src/chessengine.c ****   else
1250:u8glib_arm_v1.18.1\src/chessengine.c ****   {
1251:u8glib_arm_v1.18.1\src/chessengine.c ****     /* black left castling */
1252:u8glib_arm_v1.18.1\src/chessengine.c ****     if ( cu_IsKingCastling(4, -1, 3) != 0 )
 2994              		.loc 1 1252 0
 2995 0058 0420     		movs	r0, #4
 2996 005a 4FF0FF31 		mov	r1, #-1
 2997 005e 0322     		movs	r2, #3
 2998 0060 FFF7FEFF 		bl	cu_IsKingCastling
 2999 0064 0346     		mov	r3, r0
 3000 0066 002B     		cmp	r3, #0
 3001 0068 08D0     		beq	.L170
1253:u8glib_arm_v1.18.1\src/chessengine.c ****     {
1254:u8glib_arm_v1.18.1\src/chessengine.c ****       /* check for attacked fields */
1255:u8glib_arm_v1.18.1\src/chessengine.c ****       ce_LoopRecur(stack_GetCurrElement()->current_pos-2);
 3002              		.loc 1 1255 0
 3003 006a FFF7FEFF 		bl	stack_GetCurrElement
 3004 006e 0346     		mov	r3, r0
 3005 0070 1B78     		ldrb	r3, [r3]	@ zero_extendqisi2
 3006 0072 023B     		subs	r3, r3, #2
 3007 0074 DBB2     		uxtb	r3, r3
 3008 0076 1846     		mov	r0, r3
 3009 0078 FFF7FEFF 		bl	ce_LoopRecur
 3010              	.L170:
1256:u8glib_arm_v1.18.1\src/chessengine.c ****     }
1257:u8glib_arm_v1.18.1\src/chessengine.c ****     /* black right castling */
1258:u8glib_arm_v1.18.1\src/chessengine.c ****     if ( cu_IsKingCastling(8, 1, 2) != 0 )
ARM GAS  C:\Users\KJA\AppData\Local\Temp\ccNNA7zi.s 			page 76


 3011              		.loc 1 1258 0
 3012 007c 0820     		movs	r0, #8
 3013 007e 0121     		movs	r1, #1
 3014 0080 0222     		movs	r2, #2
 3015 0082 FFF7FEFF 		bl	cu_IsKingCastling
 3016 0086 0346     		mov	r3, r0
 3017 0088 002B     		cmp	r3, #0
 3018 008a 08D0     		beq	.L169
1259:u8glib_arm_v1.18.1\src/chessengine.c ****     {
1260:u8glib_arm_v1.18.1\src/chessengine.c ****       /* check for attacked fields */
1261:u8glib_arm_v1.18.1\src/chessengine.c ****       ce_LoopRecur(stack_GetCurrElement()->current_pos+2);
 3019              		.loc 1 1261 0
 3020 008c FFF7FEFF 		bl	stack_GetCurrElement
 3021 0090 0346     		mov	r3, r0
 3022 0092 1B78     		ldrb	r3, [r3]	@ zero_extendqisi2
 3023 0094 0233     		adds	r3, r3, #2
 3024 0096 DBB2     		uxtb	r3, r3
 3025 0098 1846     		mov	r0, r3
 3026 009a FFF7FEFF 		bl	ce_LoopRecur
 3027              	.L169:
1262:u8glib_arm_v1.18.1\src/chessengine.c ****     }
1263:u8glib_arm_v1.18.1\src/chessengine.c ****   }
1264:u8glib_arm_v1.18.1\src/chessengine.c ****   
1265:u8glib_arm_v1.18.1\src/chessengine.c ****   /* reuse queen directions */
1266:u8glib_arm_v1.18.1\src/chessengine.c ****   ce_LoopDirsSingleMultiStep(ce_dir_offset_queen, 0);
 3028              		.loc 1 1266 0
 3029 009e 0248     		ldr	r0, .L171
 3030 00a0 0021     		movs	r1, #0
 3031 00a2 FFF7FEFF 		bl	ce_LoopDirsSingleMultiStep
1267:u8glib_arm_v1.18.1\src/chessengine.c **** }
 3032              		.loc 1 1267 0
 3033 00a6 80BD     		pop	{r7, pc}
 3034              	.L172:
 3035              		.align	2
 3036              	.L171:
 3037 00a8 10000000 		.word	ce_dir_offset_queen
 3038              		.cfi_endproc
 3039              	.LFE33:
 3040              		.size	ce_LoopKing, .-ce_LoopKing
 3041              		.section	.text.ce_LoopPawnSideCapture,"ax",%progbits
 3042              		.align	2
 3043              		.global	ce_LoopPawnSideCapture
 3044              		.thumb
 3045              		.thumb_func
 3046              		.type	ce_LoopPawnSideCapture, %function
 3047              	ce_LoopPawnSideCapture:
 3048              	.LFB34:
1268:u8glib_arm_v1.18.1\src/chessengine.c **** 
1269:u8glib_arm_v1.18.1\src/chessengine.c **** 
1270:u8glib_arm_v1.18.1\src/chessengine.c **** /*==============================================================*/
1271:u8glib_arm_v1.18.1\src/chessengine.c **** /* move pawn */
1272:u8glib_arm_v1.18.1\src/chessengine.c **** /*==============================================================*/
1273:u8glib_arm_v1.18.1\src/chessengine.c **** 
1274:u8glib_arm_v1.18.1\src/chessengine.c **** /*
1275:u8glib_arm_v1.18.1\src/chessengine.c ****   doppelschritt: nur von der grundlinie aus, beide (!) felder vor dem bauern mssen frei sein
1276:u8glib_arm_v1.18.1\src/chessengine.c ****   en passant: nur unmittelbar nachdem ein doppelschritt ausgefhrt wurde.
1277:u8glib_arm_v1.18.1\src/chessengine.c **** */
ARM GAS  C:\Users\KJA\AppData\Local\Temp\ccNNA7zi.s 			page 77


1278:u8glib_arm_v1.18.1\src/chessengine.c **** void ce_LoopPawnSideCapture(uint8_t loop_pos)
1279:u8glib_arm_v1.18.1\src/chessengine.c **** {
 3049              		.loc 1 1279 0
 3050              		.cfi_startproc
 3051              		@ args = 0, pretend = 0, frame = 8
 3052              		@ frame_needed = 1, uses_anonymous_args = 0
 3053 0000 80B5     		push	{r7, lr}
 3054              		.cfi_def_cfa_offset 8
 3055              		.cfi_offset 7, -8
 3056              		.cfi_offset 14, -4
 3057 0002 82B0     		sub	sp, sp, #8
 3058              		.cfi_def_cfa_offset 16
 3059 0004 00AF     		add	r7, sp, #0
 3060              		.cfi_def_cfa_register 7
 3061 0006 0346     		mov	r3, r0
 3062 0008 FB71     		strb	r3, [r7, #7]
1280:u8glib_arm_v1.18.1\src/chessengine.c ****   if ( gpos_IsIllegal(loop_pos) == 0 )
 3063              		.loc 1 1280 0
 3064 000a FB79     		ldrb	r3, [r7, #7]	@ zero_extendqisi2
 3065 000c 03F08803 		and	r3, r3, #136
 3066 0010 002B     		cmp	r3, #0
 3067 0012 2ED1     		bne	.L173
1281:u8glib_arm_v1.18.1\src/chessengine.c ****   {
1282:u8glib_arm_v1.18.1\src/chessengine.c ****     /* get the piece from the board */
1283:u8glib_arm_v1.18.1\src/chessengine.c ****     /* if the field is NOT empty */
1284:u8glib_arm_v1.18.1\src/chessengine.c ****     if ( cp_GetPiece(cp_GetFromBoard(loop_pos)) != PIECE_NONE )
 3068              		.loc 1 1284 0
 3069 0014 FB79     		ldrb	r3, [r7, #7]	@ zero_extendqisi2
 3070 0016 1846     		mov	r0, r3
 3071 0018 FFF7FEFF 		bl	cp_GetFromBoard
 3072 001c 0346     		mov	r3, r0
 3073 001e 1846     		mov	r0, r3
 3074 0020 FFF7FEFF 		bl	cp_GetPiece
 3075 0024 0346     		mov	r3, r0
 3076 0026 002B     		cmp	r3, #0
 3077 0028 04D0     		beq	.L175
1285:u8glib_arm_v1.18.1\src/chessengine.c ****     {
1286:u8glib_arm_v1.18.1\src/chessengine.c ****       /* normal capture */
1287:u8glib_arm_v1.18.1\src/chessengine.c ****       ce_LoopRecur(loop_pos);
 3078              		.loc 1 1287 0
 3079 002a FB79     		ldrb	r3, [r7, #7]	@ zero_extendqisi2
 3080 002c 1846     		mov	r0, r3
 3081 002e FFF7FEFF 		bl	ce_LoopRecur
 3082 0032 1EE0     		b	.L173
 3083              	.L175:
1288:u8glib_arm_v1.18.1\src/chessengine.c ****       /* TODO: check for pawn conversion/promotion */
1289:u8glib_arm_v1.18.1\src/chessengine.c ****     }
1290:u8glib_arm_v1.18.1\src/chessengine.c ****     else
1291:u8glib_arm_v1.18.1\src/chessengine.c ****     {
1292:u8glib_arm_v1.18.1\src/chessengine.c ****       /* check conditions for en passant capture */
1293:u8glib_arm_v1.18.1\src/chessengine.c ****       if ( stack_GetCurrElement()->current_color == COLOR_WHITE )
 3084              		.loc 1 1293 0
 3085 0034 FFF7FEFF 		bl	stack_GetCurrElement
 3086 0038 0346     		mov	r3, r0
 3087 003a 9B78     		ldrb	r3, [r3, #2]	@ zero_extendqisi2
 3088 003c 002B     		cmp	r3, #0
 3089 003e 0CD1     		bne	.L176
ARM GAS  C:\Users\KJA\AppData\Local\Temp\ccNNA7zi.s 			page 78


1294:u8glib_arm_v1.18.1\src/chessengine.c ****       {
1295:u8glib_arm_v1.18.1\src/chessengine.c **** 	if ( lrc_obj.pawn_dbl_move[COLOR_BLACK]+16 == loop_pos )
 3090              		.loc 1 1295 0
 3091 0040 0D4B     		ldr	r3, .L178
 3092 0042 93F84330 		ldrb	r3, [r3, #67]	@ zero_extendqisi2
 3093 0046 03F11002 		add	r2, r3, #16
 3094 004a FB79     		ldrb	r3, [r7, #7]	@ zero_extendqisi2
 3095 004c 9A42     		cmp	r2, r3
 3096 004e 10D1     		bne	.L173
1296:u8glib_arm_v1.18.1\src/chessengine.c **** 	{
1297:u8glib_arm_v1.18.1\src/chessengine.c **** 	  ce_LoopRecur(loop_pos);
 3097              		.loc 1 1297 0
 3098 0050 FB79     		ldrb	r3, [r7, #7]	@ zero_extendqisi2
 3099 0052 1846     		mov	r0, r3
 3100 0054 FFF7FEFF 		bl	ce_LoopRecur
 3101 0058 0BE0     		b	.L173
 3102              	.L176:
1298:u8glib_arm_v1.18.1\src/chessengine.c **** 	  /* note: pawn conversion/promotion can not occur */
1299:u8glib_arm_v1.18.1\src/chessengine.c **** 	}
1300:u8glib_arm_v1.18.1\src/chessengine.c ****       }
1301:u8glib_arm_v1.18.1\src/chessengine.c ****       else
1302:u8glib_arm_v1.18.1\src/chessengine.c ****       {
1303:u8glib_arm_v1.18.1\src/chessengine.c **** 	if ( lrc_obj.pawn_dbl_move[COLOR_WHITE] == loop_pos+16 )
 3103              		.loc 1 1303 0
 3104 005a 074B     		ldr	r3, .L178
 3105 005c 93F84230 		ldrb	r3, [r3, #66]	@ zero_extendqisi2
 3106 0060 1A46     		mov	r2, r3
 3107 0062 FB79     		ldrb	r3, [r7, #7]	@ zero_extendqisi2
 3108 0064 1033     		adds	r3, r3, #16
 3109 0066 9A42     		cmp	r2, r3
 3110 0068 03D1     		bne	.L173
1304:u8glib_arm_v1.18.1\src/chessengine.c **** 	{
1305:u8glib_arm_v1.18.1\src/chessengine.c **** 	  ce_LoopRecur(loop_pos);
 3111              		.loc 1 1305 0
 3112 006a FB79     		ldrb	r3, [r7, #7]	@ zero_extendqisi2
 3113 006c 1846     		mov	r0, r3
 3114 006e FFF7FEFF 		bl	ce_LoopRecur
 3115              	.L173:
1306:u8glib_arm_v1.18.1\src/chessengine.c **** 	  /* note: pawn conversion/promotion can not occur */
1307:u8glib_arm_v1.18.1\src/chessengine.c **** 	}
1308:u8glib_arm_v1.18.1\src/chessengine.c ****       }
1309:u8glib_arm_v1.18.1\src/chessengine.c ****     }
1310:u8glib_arm_v1.18.1\src/chessengine.c ****   }
1311:u8glib_arm_v1.18.1\src/chessengine.c **** }
 3116              		.loc 1 1311 0
 3117 0072 0837     		adds	r7, r7, #8
 3118              		.cfi_def_cfa_offset 8
 3119 0074 BD46     		mov	sp, r7
 3120              		.cfi_def_cfa_register 13
 3121              		@ sp needed
 3122 0076 80BD     		pop	{r7, pc}
 3123              	.L179:
 3124              		.align	2
 3125              	.L178:
 3126 0078 00000000 		.word	lrc_obj
 3127              		.cfi_endproc
 3128              	.LFE34:
ARM GAS  C:\Users\KJA\AppData\Local\Temp\ccNNA7zi.s 			page 79


 3129              		.size	ce_LoopPawnSideCapture, .-ce_LoopPawnSideCapture
 3130              		.section	.text.ce_LoopPawn,"ax",%progbits
 3131              		.align	2
 3132              		.global	ce_LoopPawn
 3133              		.thumb
 3134              		.thumb_func
 3135              		.type	ce_LoopPawn, %function
 3136              	ce_LoopPawn:
 3137              	.LFB35:
1312:u8glib_arm_v1.18.1\src/chessengine.c **** 
1313:u8glib_arm_v1.18.1\src/chessengine.c **** void ce_LoopPawn(void)
1314:u8glib_arm_v1.18.1\src/chessengine.c **** {
 3138              		.loc 1 1314 0
 3139              		.cfi_startproc
 3140              		@ args = 0, pretend = 0, frame = 8
 3141              		@ frame_needed = 1, uses_anonymous_args = 0
 3142 0000 80B5     		push	{r7, lr}
 3143              		.cfi_def_cfa_offset 8
 3144              		.cfi_offset 7, -8
 3145              		.cfi_offset 14, -4
 3146 0002 82B0     		sub	sp, sp, #8
 3147              		.cfi_def_cfa_offset 16
 3148 0004 00AF     		add	r7, sp, #0
 3149              		.cfi_def_cfa_register 7
1315:u8glib_arm_v1.18.1\src/chessengine.c ****   uint8_t initial_pos = stack_GetCurrElement()->current_pos; 
 3150              		.loc 1 1315 0
 3151 0006 FFF7FEFF 		bl	stack_GetCurrElement
 3152 000a 0346     		mov	r3, r0
 3153 000c 1B78     		ldrb	r3, [r3]
 3154 000e BB71     		strb	r3, [r7, #6]
1316:u8glib_arm_v1.18.1\src/chessengine.c ****   uint8_t my_color = stack_GetCurrElement()->current_color;
 3155              		.loc 1 1316 0
 3156 0010 FFF7FEFF 		bl	stack_GetCurrElement
 3157 0014 0346     		mov	r3, r0
 3158 0016 9B78     		ldrb	r3, [r3, #2]
 3159 0018 7B71     		strb	r3, [r7, #5]
1317:u8glib_arm_v1.18.1\src/chessengine.c ****   
1318:u8glib_arm_v1.18.1\src/chessengine.c ****   uint8_t loop_pos;
1319:u8glib_arm_v1.18.1\src/chessengine.c ****   uint8_t line;
1320:u8glib_arm_v1.18.1\src/chessengine.c ****   
1321:u8glib_arm_v1.18.1\src/chessengine.c ****   /* one step forward */
1322:u8glib_arm_v1.18.1\src/chessengine.c ****   
1323:u8glib_arm_v1.18.1\src/chessengine.c ****   loop_pos = initial_pos;
 3160              		.loc 1 1323 0
 3161 001a BB79     		ldrb	r3, [r7, #6]
 3162 001c FB71     		strb	r3, [r7, #7]
1324:u8glib_arm_v1.18.1\src/chessengine.c ****   line = initial_pos;
 3163              		.loc 1 1324 0
 3164 001e BB79     		ldrb	r3, [r7, #6]
 3165 0020 3B71     		strb	r3, [r7, #4]
1325:u8glib_arm_v1.18.1\src/chessengine.c ****   line >>= 4;
 3166              		.loc 1 1325 0
 3167 0022 3B79     		ldrb	r3, [r7, #4]	@ zero_extendqisi2
 3168 0024 1B09     		lsrs	r3, r3, #4
 3169 0026 3B71     		strb	r3, [r7, #4]
1326:u8glib_arm_v1.18.1\src/chessengine.c ****   if ( my_color == COLOR_WHITE )
 3170              		.loc 1 1326 0
ARM GAS  C:\Users\KJA\AppData\Local\Temp\ccNNA7zi.s 			page 80


 3171 0028 7B79     		ldrb	r3, [r7, #5]	@ zero_extendqisi2
 3172 002a 002B     		cmp	r3, #0
 3173 002c 03D1     		bne	.L181
1327:u8glib_arm_v1.18.1\src/chessengine.c ****     loop_pos += 16;
 3174              		.loc 1 1327 0
 3175 002e FB79     		ldrb	r3, [r7, #7]
 3176 0030 1033     		adds	r3, r3, #16
 3177 0032 FB71     		strb	r3, [r7, #7]
 3178 0034 02E0     		b	.L182
 3179              	.L181:
1328:u8glib_arm_v1.18.1\src/chessengine.c ****   else
1329:u8glib_arm_v1.18.1\src/chessengine.c ****     loop_pos -= 16;
 3180              		.loc 1 1329 0
 3181 0036 FB79     		ldrb	r3, [r7, #7]
 3182 0038 103B     		subs	r3, r3, #16
 3183 003a FB71     		strb	r3, [r7, #7]
 3184              	.L182:
1330:u8glib_arm_v1.18.1\src/chessengine.c ****   if ( gpos_IsIllegal(loop_pos) == 0 )
 3185              		.loc 1 1330 0
 3186 003c FB79     		ldrb	r3, [r7, #7]	@ zero_extendqisi2
 3187 003e 03F08803 		and	r3, r3, #136
 3188 0042 002B     		cmp	r3, #0
 3189 0044 33D1     		bne	.L183
1331:u8glib_arm_v1.18.1\src/chessengine.c ****   {
1332:u8glib_arm_v1.18.1\src/chessengine.c ****     /* if the field is empty */
1333:u8glib_arm_v1.18.1\src/chessengine.c ****     if ( cp_GetPiece(cp_GetFromBoard(loop_pos)) == PIECE_NONE )
 3190              		.loc 1 1333 0
 3191 0046 FB79     		ldrb	r3, [r7, #7]	@ zero_extendqisi2
 3192 0048 1846     		mov	r0, r3
 3193 004a FFF7FEFF 		bl	cp_GetFromBoard
 3194 004e 0346     		mov	r3, r0
 3195 0050 1846     		mov	r0, r3
 3196 0052 FFF7FEFF 		bl	cp_GetPiece
 3197 0056 0346     		mov	r3, r0
 3198 0058 002B     		cmp	r3, #0
 3199 005a 28D1     		bne	.L183
1334:u8glib_arm_v1.18.1\src/chessengine.c ****     {
1335:u8glib_arm_v1.18.1\src/chessengine.c ****       /* TODO: check for and loop through piece conversion/promotion */
1336:u8glib_arm_v1.18.1\src/chessengine.c ****       ce_LoopRecur(loop_pos);      
 3200              		.loc 1 1336 0
 3201 005c FB79     		ldrb	r3, [r7, #7]	@ zero_extendqisi2
 3202 005e 1846     		mov	r0, r3
 3203 0060 FFF7FEFF 		bl	ce_LoopRecur
1337:u8glib_arm_v1.18.1\src/chessengine.c **** 
1338:u8glib_arm_v1.18.1\src/chessengine.c ****       /* second step forward */
1339:u8glib_arm_v1.18.1\src/chessengine.c ****       
1340:u8glib_arm_v1.18.1\src/chessengine.c ****       /* if pawn is on his starting line */
1341:u8glib_arm_v1.18.1\src/chessengine.c ****       if ( (my_color == COLOR_WHITE && line == 1) || (my_color == COLOR_BLACK && line == 6 ) )
 3204              		.loc 1 1341 0
 3205 0064 7B79     		ldrb	r3, [r7, #5]	@ zero_extendqisi2
 3206 0066 002B     		cmp	r3, #0
 3207 0068 02D1     		bne	.L184
 3208              		.loc 1 1341 0 is_stmt 0 discriminator 1
 3209 006a 3B79     		ldrb	r3, [r7, #4]	@ zero_extendqisi2
 3210 006c 012B     		cmp	r3, #1
 3211 006e 05D0     		beq	.L185
 3212              	.L184:
ARM GAS  C:\Users\KJA\AppData\Local\Temp\ccNNA7zi.s 			page 81


 3213              		.loc 1 1341 0 discriminator 3
 3214 0070 7B79     		ldrb	r3, [r7, #5]	@ zero_extendqisi2
 3215 0072 012B     		cmp	r3, #1
 3216 0074 1BD1     		bne	.L183
 3217              		.loc 1 1341 0 discriminator 4
 3218 0076 3B79     		ldrb	r3, [r7, #4]	@ zero_extendqisi2
 3219 0078 062B     		cmp	r3, #6
 3220 007a 18D1     		bne	.L183
 3221              	.L185:
1342:u8glib_arm_v1.18.1\src/chessengine.c ****       {
1343:u8glib_arm_v1.18.1\src/chessengine.c **** 	/* the place before the pawn is not occupied, so we can do double moves, see above */
1344:u8glib_arm_v1.18.1\src/chessengine.c **** 	
1345:u8glib_arm_v1.18.1\src/chessengine.c **** 	if ( my_color == COLOR_WHITE )
 3222              		.loc 1 1345 0 is_stmt 1
 3223 007c 7B79     		ldrb	r3, [r7, #5]	@ zero_extendqisi2
 3224 007e 002B     		cmp	r3, #0
 3225 0080 03D1     		bne	.L186
1346:u8glib_arm_v1.18.1\src/chessengine.c **** 	  loop_pos += 16;
 3226              		.loc 1 1346 0
 3227 0082 FB79     		ldrb	r3, [r7, #7]
 3228 0084 1033     		adds	r3, r3, #16
 3229 0086 FB71     		strb	r3, [r7, #7]
 3230 0088 02E0     		b	.L187
 3231              	.L186:
1347:u8glib_arm_v1.18.1\src/chessengine.c **** 	else
1348:u8glib_arm_v1.18.1\src/chessengine.c **** 	  loop_pos -= 16;
 3232              		.loc 1 1348 0
 3233 008a FB79     		ldrb	r3, [r7, #7]
 3234 008c 103B     		subs	r3, r3, #16
 3235 008e FB71     		strb	r3, [r7, #7]
 3236              	.L187:
1349:u8glib_arm_v1.18.1\src/chessengine.c **** 	if ( cp_GetPiece(cp_GetFromBoard(loop_pos)) == PIECE_NONE )
 3237              		.loc 1 1349 0
 3238 0090 FB79     		ldrb	r3, [r7, #7]	@ zero_extendqisi2
 3239 0092 1846     		mov	r0, r3
 3240 0094 FFF7FEFF 		bl	cp_GetFromBoard
 3241 0098 0346     		mov	r3, r0
 3242 009a 1846     		mov	r0, r3
 3243 009c FFF7FEFF 		bl	cp_GetPiece
 3244 00a0 0346     		mov	r3, r0
 3245 00a2 002B     		cmp	r3, #0
 3246 00a4 03D1     		bne	.L183
1350:u8glib_arm_v1.18.1\src/chessengine.c **** 	{
1351:u8glib_arm_v1.18.1\src/chessengine.c **** 	  /* this is a special case, other promotions of the pawn can not occur */
1352:u8glib_arm_v1.18.1\src/chessengine.c **** 	  ce_LoopRecur(loop_pos);
 3247              		.loc 1 1352 0
 3248 00a6 FB79     		ldrb	r3, [r7, #7]	@ zero_extendqisi2
 3249 00a8 1846     		mov	r0, r3
 3250 00aa FFF7FEFF 		bl	ce_LoopRecur
 3251              	.L183:
1353:u8glib_arm_v1.18.1\src/chessengine.c **** 	}
1354:u8glib_arm_v1.18.1\src/chessengine.c ****       }
1355:u8glib_arm_v1.18.1\src/chessengine.c ****     }
1356:u8glib_arm_v1.18.1\src/chessengine.c ****   }
1357:u8glib_arm_v1.18.1\src/chessengine.c **** 
1358:u8glib_arm_v1.18.1\src/chessengine.c ****   /* capture */
1359:u8glib_arm_v1.18.1\src/chessengine.c ****   
ARM GAS  C:\Users\KJA\AppData\Local\Temp\ccNNA7zi.s 			page 82


1360:u8glib_arm_v1.18.1\src/chessengine.c ****   loop_pos = initial_pos;
 3252              		.loc 1 1360 0
 3253 00ae BB79     		ldrb	r3, [r7, #6]
 3254 00b0 FB71     		strb	r3, [r7, #7]
1361:u8glib_arm_v1.18.1\src/chessengine.c ****   if ( my_color == COLOR_WHITE )
 3255              		.loc 1 1361 0
 3256 00b2 7B79     		ldrb	r3, [r7, #5]	@ zero_extendqisi2
 3257 00b4 002B     		cmp	r3, #0
 3258 00b6 03D1     		bne	.L188
1362:u8glib_arm_v1.18.1\src/chessengine.c ****     loop_pos += 15;
 3259              		.loc 1 1362 0
 3260 00b8 FB79     		ldrb	r3, [r7, #7]
 3261 00ba 0F33     		adds	r3, r3, #15
 3262 00bc FB71     		strb	r3, [r7, #7]
 3263 00be 02E0     		b	.L189
 3264              	.L188:
1363:u8glib_arm_v1.18.1\src/chessengine.c ****   else
1364:u8glib_arm_v1.18.1\src/chessengine.c ****     loop_pos -= 15;
 3265              		.loc 1 1364 0
 3266 00c0 FB79     		ldrb	r3, [r7, #7]
 3267 00c2 0F3B     		subs	r3, r3, #15
 3268 00c4 FB71     		strb	r3, [r7, #7]
 3269              	.L189:
1365:u8glib_arm_v1.18.1\src/chessengine.c ****   ce_LoopPawnSideCapture(loop_pos);
 3270              		.loc 1 1365 0
 3271 00c6 FB79     		ldrb	r3, [r7, #7]	@ zero_extendqisi2
 3272 00c8 1846     		mov	r0, r3
 3273 00ca FFF7FEFF 		bl	ce_LoopPawnSideCapture
1366:u8glib_arm_v1.18.1\src/chessengine.c **** 
1367:u8glib_arm_v1.18.1\src/chessengine.c **** 
1368:u8glib_arm_v1.18.1\src/chessengine.c ****   loop_pos = initial_pos;
 3274              		.loc 1 1368 0
 3275 00ce BB79     		ldrb	r3, [r7, #6]
 3276 00d0 FB71     		strb	r3, [r7, #7]
1369:u8glib_arm_v1.18.1\src/chessengine.c ****   if ( my_color == COLOR_WHITE )
 3277              		.loc 1 1369 0
 3278 00d2 7B79     		ldrb	r3, [r7, #5]	@ zero_extendqisi2
 3279 00d4 002B     		cmp	r3, #0
 3280 00d6 03D1     		bne	.L190
1370:u8glib_arm_v1.18.1\src/chessengine.c ****     loop_pos += 17;
 3281              		.loc 1 1370 0
 3282 00d8 FB79     		ldrb	r3, [r7, #7]
 3283 00da 1133     		adds	r3, r3, #17
 3284 00dc FB71     		strb	r3, [r7, #7]
 3285 00de 02E0     		b	.L191
 3286              	.L190:
1371:u8glib_arm_v1.18.1\src/chessengine.c ****   else
1372:u8glib_arm_v1.18.1\src/chessengine.c ****     loop_pos -= 17;
 3287              		.loc 1 1372 0
 3288 00e0 FB79     		ldrb	r3, [r7, #7]
 3289 00e2 113B     		subs	r3, r3, #17
 3290 00e4 FB71     		strb	r3, [r7, #7]
 3291              	.L191:
1373:u8glib_arm_v1.18.1\src/chessengine.c ****   ce_LoopPawnSideCapture(loop_pos);
 3292              		.loc 1 1373 0
 3293 00e6 FB79     		ldrb	r3, [r7, #7]	@ zero_extendqisi2
 3294 00e8 1846     		mov	r0, r3
ARM GAS  C:\Users\KJA\AppData\Local\Temp\ccNNA7zi.s 			page 83


 3295 00ea FFF7FEFF 		bl	ce_LoopPawnSideCapture
1374:u8glib_arm_v1.18.1\src/chessengine.c **** }
 3296              		.loc 1 1374 0
 3297 00ee 0837     		adds	r7, r7, #8
 3298              		.cfi_def_cfa_offset 8
 3299 00f0 BD46     		mov	sp, r7
 3300              		.cfi_def_cfa_register 13
 3301              		@ sp needed
 3302 00f2 80BD     		pop	{r7, pc}
 3303              		.cfi_endproc
 3304              	.LFE35:
 3305              		.size	ce_LoopPawn, .-ce_LoopPawn
 3306              		.section	.text.ce_FindPieceByStep,"ax",%progbits
 3307              		.align	2
 3308              		.global	ce_FindPieceByStep
 3309              		.thumb
 3310              		.thumb_func
 3311              		.type	ce_FindPieceByStep, %function
 3312              	ce_FindPieceByStep:
 3313              	.LFB36:
1375:u8glib_arm_v1.18.1\src/chessengine.c **** 
1376:u8glib_arm_v1.18.1\src/chessengine.c **** /*==============================================================*/
1377:u8glib_arm_v1.18.1\src/chessengine.c **** /* attacked */
1378:u8glib_arm_v1.18.1\src/chessengine.c **** /*==============================================================*/
1379:u8glib_arm_v1.18.1\src/chessengine.c **** 
1380:u8glib_arm_v1.18.1\src/chessengine.c **** /*
1381:u8glib_arm_v1.18.1\src/chessengine.c ****   from a starting position, search for a piece, that might jump to that postion.
1382:u8glib_arm_v1.18.1\src/chessengine.c ****   return:
1383:u8glib_arm_v1.18.1\src/chessengine.c ****     the two global variables
1384:u8glib_arm_v1.18.1\src/chessengine.c ****       lrc_obj.find_piece_weight[0];
1385:u8glib_arm_v1.18.1\src/chessengine.c ****       lrc_obj.find_piece_weight[1];
1386:u8glib_arm_v1.18.1\src/chessengine.c ****   will be increased by the weight of the attacked pieces of that color.
1387:u8glib_arm_v1.18.1\src/chessengine.c ****   it is usually required to reset these global variables to zero, before using
1388:u8glib_arm_v1.18.1\src/chessengine.c ****   this function.
1389:u8glib_arm_v1.18.1\src/chessengine.c **** */
1390:u8glib_arm_v1.18.1\src/chessengine.c **** 
1391:u8glib_arm_v1.18.1\src/chessengine.c **** void ce_FindPieceByStep(uint8_t start_pos, uint8_t piece, const uint8_t *d, uint8_t is_multi_step)
1392:u8glib_arm_v1.18.1\src/chessengine.c **** {
 3314              		.loc 1 1392 0
 3315              		.cfi_startproc
 3316              		@ args = 0, pretend = 0, frame = 16
 3317              		@ frame_needed = 1, uses_anonymous_args = 0
 3318 0000 80B5     		push	{r7, lr}
 3319              		.cfi_def_cfa_offset 8
 3320              		.cfi_offset 7, -8
 3321              		.cfi_offset 14, -4
 3322 0002 84B0     		sub	sp, sp, #16
 3323              		.cfi_def_cfa_offset 24
 3324 0004 00AF     		add	r7, sp, #0
 3325              		.cfi_def_cfa_register 7
 3326 0006 3A60     		str	r2, [r7]
 3327 0008 1A46     		mov	r2, r3
 3328 000a 0346     		mov	r3, r0
 3329 000c FB71     		strb	r3, [r7, #7]
 3330 000e 0B46     		mov	r3, r1
 3331 0010 BB71     		strb	r3, [r7, #6]
 3332 0012 1346     		mov	r3, r2
ARM GAS  C:\Users\KJA\AppData\Local\Temp\ccNNA7zi.s 			page 84


 3333 0014 7B71     		strb	r3, [r7, #5]
 3334              	.L200:
1393:u8glib_arm_v1.18.1\src/chessengine.c ****   uint8_t loop_pos, cp;
1394:u8glib_arm_v1.18.1\src/chessengine.c ****   
1395:u8glib_arm_v1.18.1\src/chessengine.c ****   /* with all directions */
1396:u8glib_arm_v1.18.1\src/chessengine.c ****   for(;;)
1397:u8glib_arm_v1.18.1\src/chessengine.c ****   {
1398:u8glib_arm_v1.18.1\src/chessengine.c ****     if ( u8g_pgm_read(d) == 0 )
 3335              		.loc 1 1398 0
 3336 0016 3B68     		ldr	r3, [r7]
 3337 0018 1B78     		ldrb	r3, [r3]	@ zero_extendqisi2
 3338 001a 002B     		cmp	r3, #0
 3339 001c 00D1     		bne	.L193
1399:u8glib_arm_v1.18.1\src/chessengine.c ****       break;
 3340              		.loc 1 1399 0
 3341 001e 4FE0     		b	.L201
 3342              	.L193:
1400:u8glib_arm_v1.18.1\src/chessengine.c ****     
1401:u8glib_arm_v1.18.1\src/chessengine.c ****     /* start again from the initial position */
1402:u8glib_arm_v1.18.1\src/chessengine.c ****     loop_pos = start_pos;
 3343              		.loc 1 1402 0
 3344 0020 FB79     		ldrb	r3, [r7, #7]
 3345 0022 FB73     		strb	r3, [r7, #15]
 3346              	.L199:
1403:u8glib_arm_v1.18.1\src/chessengine.c ****     
1404:u8glib_arm_v1.18.1\src/chessengine.c ****     /* check direction */
1405:u8glib_arm_v1.18.1\src/chessengine.c ****     do
1406:u8glib_arm_v1.18.1\src/chessengine.c ****     {
1407:u8glib_arm_v1.18.1\src/chessengine.c ****       /* check next position into one direction */
1408:u8glib_arm_v1.18.1\src/chessengine.c ****       loop_pos += u8g_pgm_read(d);
 3347              		.loc 1 1408 0
 3348 0024 3B68     		ldr	r3, [r7]
 3349 0026 1A78     		ldrb	r2, [r3]	@ zero_extendqisi2
 3350 0028 FB7B     		ldrb	r3, [r7, #15]
 3351 002a 1344     		add	r3, r3, r2
 3352 002c FB73     		strb	r3, [r7, #15]
1409:u8glib_arm_v1.18.1\src/chessengine.c ****       
1410:u8glib_arm_v1.18.1\src/chessengine.c ****       /* check if the board boundary has been crossed */
1411:u8glib_arm_v1.18.1\src/chessengine.c ****       if ( (loop_pos & 0x088) != 0 )
 3353              		.loc 1 1411 0
 3354 002e FB7B     		ldrb	r3, [r7, #15]	@ zero_extendqisi2
 3355 0030 03F08803 		and	r3, r3, #136
 3356 0034 002B     		cmp	r3, #0
 3357 0036 00D0     		beq	.L195
1412:u8glib_arm_v1.18.1\src/chessengine.c **** 	break;
 3358              		.loc 1 1412 0
 3359 0038 3EE0     		b	.L196
 3360              	.L195:
1413:u8glib_arm_v1.18.1\src/chessengine.c ****       
1414:u8glib_arm_v1.18.1\src/chessengine.c ****       /* get the colored piece from the board */
1415:u8glib_arm_v1.18.1\src/chessengine.c ****       cp = cp_GetFromBoard(loop_pos);
 3361              		.loc 1 1415 0
 3362 003a FB7B     		ldrb	r3, [r7, #15]	@ zero_extendqisi2
 3363 003c 1846     		mov	r0, r3
 3364 003e FFF7FEFF 		bl	cp_GetFromBoard
 3365 0042 0346     		mov	r3, r0
 3366 0044 BB73     		strb	r3, [r7, #14]
ARM GAS  C:\Users\KJA\AppData\Local\Temp\ccNNA7zi.s 			page 85


1416:u8glib_arm_v1.18.1\src/chessengine.c ****       
1417:u8glib_arm_v1.18.1\src/chessengine.c ****       /* stop if we had hit another piece */
1418:u8glib_arm_v1.18.1\src/chessengine.c ****       if ( cp_GetPiece(cp) != PIECE_NONE )
 3367              		.loc 1 1418 0
 3368 0046 BB7B     		ldrb	r3, [r7, #14]	@ zero_extendqisi2
 3369 0048 1846     		mov	r0, r3
 3370 004a FFF7FEFF 		bl	cp_GetPiece
 3371 004e 0346     		mov	r3, r0
 3372 0050 002B     		cmp	r3, #0
 3373 0052 2ED0     		beq	.L197
1419:u8glib_arm_v1.18.1\src/chessengine.c ****       {
1420:u8glib_arm_v1.18.1\src/chessengine.c **** 	/* if it is the piece we are looking for, then add the weight */
1421:u8glib_arm_v1.18.1\src/chessengine.c **** 	if ( cp_GetPiece(cp) == piece )
 3374              		.loc 1 1421 0
 3375 0054 BB7B     		ldrb	r3, [r7, #14]	@ zero_extendqisi2
 3376 0056 1846     		mov	r0, r3
 3377 0058 FFF7FEFF 		bl	cp_GetPiece
 3378 005c 0346     		mov	r3, r0
 3379 005e 1A46     		mov	r2, r3
 3380 0060 BB79     		ldrb	r3, [r7, #6]	@ zero_extendqisi2
 3381 0062 9342     		cmp	r3, r2
 3382 0064 24D1     		bne	.L198
1422:u8glib_arm_v1.18.1\src/chessengine.c **** 	{
1423:u8glib_arm_v1.18.1\src/chessengine.c **** 	  lrc_obj.find_piece_weight[cp_GetColor(cp)] += ce_piece_weight[piece];
 3383              		.loc 1 1423 0
 3384 0066 BB7B     		ldrb	r3, [r7, #14]	@ zero_extendqisi2
 3385 0068 1846     		mov	r0, r3
 3386 006a FFF7FEFF 		bl	cp_GetColor
 3387 006e 0346     		mov	r3, r0
 3388 0070 1846     		mov	r0, r3
 3389 0072 1A46     		mov	r2, r3
 3390 0074 144B     		ldr	r3, .L202
 3391 0076 1344     		add	r3, r3, r2
 3392 0078 93F84D20 		ldrb	r2, [r3, #77]	@ zero_extendqisi2
 3393 007c BB79     		ldrb	r3, [r7, #6]	@ zero_extendqisi2
 3394 007e 1349     		ldr	r1, .L202+4
 3395 0080 CB5C     		ldrb	r3, [r1, r3]	@ zero_extendqisi2
 3396 0082 1344     		add	r3, r3, r2
 3397 0084 DAB2     		uxtb	r2, r3
 3398 0086 104B     		ldr	r3, .L202
 3399 0088 0344     		add	r3, r3, r0
 3400 008a 83F84D20 		strb	r2, [r3, #77]
1424:u8glib_arm_v1.18.1\src/chessengine.c **** 	  lrc_obj.find_piece_cnt[cp_GetColor(cp)]++;
 3401              		.loc 1 1424 0
 3402 008e BB7B     		ldrb	r3, [r7, #14]	@ zero_extendqisi2
 3403 0090 1846     		mov	r0, r3
 3404 0092 FFF7FEFF 		bl	cp_GetColor
 3405 0096 0346     		mov	r3, r0
 3406 0098 0B4A     		ldr	r2, .L202
 3407 009a 1A44     		add	r2, r2, r3
 3408 009c 92F84B20 		ldrb	r2, [r2, #75]	@ zero_extendqisi2
 3409 00a0 0132     		adds	r2, r2, #1
 3410 00a2 D1B2     		uxtb	r1, r2
 3411 00a4 084A     		ldr	r2, .L202
 3412 00a6 1344     		add	r3, r3, r2
 3413 00a8 0A46     		mov	r2, r1
 3414 00aa 83F84B20 		strb	r2, [r3, #75]
ARM GAS  C:\Users\KJA\AppData\Local\Temp\ccNNA7zi.s 			page 86


1425:u8glib_arm_v1.18.1\src/chessengine.c **** 	}
1426:u8glib_arm_v1.18.1\src/chessengine.c **** 	/* in any case, break out of the inner loop */
1427:u8glib_arm_v1.18.1\src/chessengine.c **** 	break;
 3415              		.loc 1 1427 0
 3416 00ae 03E0     		b	.L196
 3417              	.L198:
 3418 00b0 02E0     		b	.L196
 3419              	.L197:
1428:u8glib_arm_v1.18.1\src/chessengine.c ****       }
1429:u8glib_arm_v1.18.1\src/chessengine.c ****     } while( is_multi_step );
 3420              		.loc 1 1429 0
 3421 00b2 7B79     		ldrb	r3, [r7, #5]	@ zero_extendqisi2
 3422 00b4 002B     		cmp	r3, #0
 3423 00b6 B5D1     		bne	.L199
 3424              	.L196:
1430:u8glib_arm_v1.18.1\src/chessengine.c ****     d++;
 3425              		.loc 1 1430 0
 3426 00b8 3B68     		ldr	r3, [r7]
 3427 00ba 0133     		adds	r3, r3, #1
 3428 00bc 3B60     		str	r3, [r7]
1431:u8glib_arm_v1.18.1\src/chessengine.c ****   }
 3429              		.loc 1 1431 0
 3430 00be AAE7     		b	.L200
 3431              	.L201:
1432:u8glib_arm_v1.18.1\src/chessengine.c **** }
 3432              		.loc 1 1432 0
 3433 00c0 1037     		adds	r7, r7, #16
 3434              		.cfi_def_cfa_offset 8
 3435 00c2 BD46     		mov	sp, r7
 3436              		.cfi_def_cfa_register 13
 3437              		@ sp needed
 3438 00c4 80BD     		pop	{r7, pc}
 3439              	.L203:
 3440 00c6 00BF     		.align	2
 3441              	.L202:
 3442 00c8 00000000 		.word	lrc_obj
 3443 00cc 00000000 		.word	ce_piece_weight
 3444              		.cfi_endproc
 3445              	.LFE36:
 3446              		.size	ce_FindPieceByStep, .-ce_FindPieceByStep
 3447              		.section	.text.ce_FindPawnPiece,"ax",%progbits
 3448              		.align	2
 3449              		.global	ce_FindPawnPiece
 3450              		.thumb
 3451              		.thumb_func
 3452              		.type	ce_FindPawnPiece, %function
 3453              	ce_FindPawnPiece:
 3454              	.LFB37:
1433:u8glib_arm_v1.18.1\src/chessengine.c **** 
1434:u8glib_arm_v1.18.1\src/chessengine.c **** void ce_FindPawnPiece(uint8_t dest_pos, uint8_t color)
1435:u8glib_arm_v1.18.1\src/chessengine.c **** {
 3455              		.loc 1 1435 0
 3456              		.cfi_startproc
 3457              		@ args = 0, pretend = 0, frame = 16
 3458              		@ frame_needed = 1, uses_anonymous_args = 0
 3459 0000 80B5     		push	{r7, lr}
 3460              		.cfi_def_cfa_offset 8
ARM GAS  C:\Users\KJA\AppData\Local\Temp\ccNNA7zi.s 			page 87


 3461              		.cfi_offset 7, -8
 3462              		.cfi_offset 14, -4
 3463 0002 84B0     		sub	sp, sp, #16
 3464              		.cfi_def_cfa_offset 24
 3465 0004 00AF     		add	r7, sp, #0
 3466              		.cfi_def_cfa_register 7
 3467 0006 0346     		mov	r3, r0
 3468 0008 0A46     		mov	r2, r1
 3469 000a FB71     		strb	r3, [r7, #7]
 3470 000c 1346     		mov	r3, r2
 3471 000e BB71     		strb	r3, [r7, #6]
1436:u8glib_arm_v1.18.1\src/chessengine.c ****   uint8_t cp;
1437:u8glib_arm_v1.18.1\src/chessengine.c ****   /* check if the board boundary has been crossed */
1438:u8glib_arm_v1.18.1\src/chessengine.c ****   if ( (dest_pos & 0x088) == 0 )
 3472              		.loc 1 1438 0
 3473 0010 FB79     		ldrb	r3, [r7, #7]	@ zero_extendqisi2
 3474 0012 03F08803 		and	r3, r3, #136
 3475 0016 002B     		cmp	r3, #0
 3476 0018 2ED1     		bne	.L204
1439:u8glib_arm_v1.18.1\src/chessengine.c ****   {
1440:u8glib_arm_v1.18.1\src/chessengine.c ****     /* get the colored piece from the board */
1441:u8glib_arm_v1.18.1\src/chessengine.c ****     cp = cp_GetFromBoard(dest_pos);
 3477              		.loc 1 1441 0
 3478 001a FB79     		ldrb	r3, [r7, #7]	@ zero_extendqisi2
 3479 001c 1846     		mov	r0, r3
 3480 001e FFF7FEFF 		bl	cp_GetFromBoard
 3481 0022 0346     		mov	r3, r0
 3482 0024 FB73     		strb	r3, [r7, #15]
1442:u8glib_arm_v1.18.1\src/chessengine.c ****     /* only if there is a pawn of the matching color */
1443:u8glib_arm_v1.18.1\src/chessengine.c ****     if ( cp_GetPiece(cp) == PIECE_PAWN )
 3483              		.loc 1 1443 0
 3484 0026 FB7B     		ldrb	r3, [r7, #15]	@ zero_extendqisi2
 3485 0028 1846     		mov	r0, r3
 3486 002a FFF7FEFF 		bl	cp_GetPiece
 3487 002e 0346     		mov	r3, r0
 3488 0030 012B     		cmp	r3, #1
 3489 0032 21D1     		bne	.L204
1444:u8glib_arm_v1.18.1\src/chessengine.c ****     {
1445:u8glib_arm_v1.18.1\src/chessengine.c ****       if ( cp_GetColor(cp) == color )
 3490              		.loc 1 1445 0
 3491 0034 FB7B     		ldrb	r3, [r7, #15]	@ zero_extendqisi2
 3492 0036 1846     		mov	r0, r3
 3493 0038 FFF7FEFF 		bl	cp_GetColor
 3494 003c 0346     		mov	r3, r0
 3495 003e 1A46     		mov	r2, r3
 3496 0040 BB79     		ldrb	r3, [r7, #6]	@ zero_extendqisi2
 3497 0042 9342     		cmp	r3, r2
 3498 0044 18D1     		bne	.L204
1446:u8glib_arm_v1.18.1\src/chessengine.c ****       {
1447:u8glib_arm_v1.18.1\src/chessengine.c **** 	/* the weight of the PAWN */
1448:u8glib_arm_v1.18.1\src/chessengine.c **** 	lrc_obj.find_piece_weight[color] += 1;
 3499              		.loc 1 1448 0
 3500 0046 BB79     		ldrb	r3, [r7, #6]	@ zero_extendqisi2
 3501 0048 BA79     		ldrb	r2, [r7, #6]	@ zero_extendqisi2
 3502 004a 0D49     		ldr	r1, .L206
 3503 004c 0A44     		add	r2, r2, r1
 3504 004e 92F84D20 		ldrb	r2, [r2, #77]	@ zero_extendqisi2
ARM GAS  C:\Users\KJA\AppData\Local\Temp\ccNNA7zi.s 			page 88


 3505 0052 0132     		adds	r2, r2, #1
 3506 0054 D1B2     		uxtb	r1, r2
 3507 0056 0A4A     		ldr	r2, .L206
 3508 0058 1344     		add	r3, r3, r2
 3509 005a 0A46     		mov	r2, r1
 3510 005c 83F84D20 		strb	r2, [r3, #77]
1449:u8glib_arm_v1.18.1\src/chessengine.c **** 	lrc_obj.find_piece_cnt[color]++;
 3511              		.loc 1 1449 0
 3512 0060 BB79     		ldrb	r3, [r7, #6]	@ zero_extendqisi2
 3513 0062 074A     		ldr	r2, .L206
 3514 0064 1A44     		add	r2, r2, r3
 3515 0066 92F84B20 		ldrb	r2, [r2, #75]	@ zero_extendqisi2
 3516 006a 0132     		adds	r2, r2, #1
 3517 006c D1B2     		uxtb	r1, r2
 3518 006e 044A     		ldr	r2, .L206
 3519 0070 1344     		add	r3, r3, r2
 3520 0072 0A46     		mov	r2, r1
 3521 0074 83F84B20 		strb	r2, [r3, #75]
 3522              	.L204:
1450:u8glib_arm_v1.18.1\src/chessengine.c ****       }
1451:u8glib_arm_v1.18.1\src/chessengine.c ****     }
1452:u8glib_arm_v1.18.1\src/chessengine.c ****   }
1453:u8glib_arm_v1.18.1\src/chessengine.c **** }
 3523              		.loc 1 1453 0
 3524 0078 1037     		adds	r7, r7, #16
 3525              		.cfi_def_cfa_offset 8
 3526 007a BD46     		mov	sp, r7
 3527              		.cfi_def_cfa_register 13
 3528              		@ sp needed
 3529 007c 80BD     		pop	{r7, pc}
 3530              	.L207:
 3531 007e 00BF     		.align	2
 3532              	.L206:
