ARM GAS  C:\Users\Shiguruy\AppData\Local\Temp\ccT6B3sc.s 			page 1


   1              		.syntax unified
   2              		.cpu cortex-m3
   3              		.fpu softvfp
   4              		.eabi_attribute 20, 1
   5              		.eabi_attribute 21, 1
   6              		.eabi_attribute 23, 3
   7              		.eabi_attribute 24, 1
   8              		.eabi_attribute 25, 1
   9              		.eabi_attribute 26, 1
  10              		.eabi_attribute 30, 6
  11              		.eabi_attribute 34, 1
  12              		.eabi_attribute 18, 4
  13              		.thumb
  14              		.file	"Counter_1_PM.c"
  15              		.text
  16              	.Ltext0:
  17              		.cfi_sections	.debug_frame
  18              		.bss
  19              		.align	2
  20              	Counter_1_backup:
  21 0000 00000000 		.space	8
  21      00000000 
  22              		.section	.text.Counter_1_SaveConfig,"ax",%progbits
  23              		.align	2
  24              		.global	Counter_1_SaveConfig
  25              		.thumb
  26              		.thumb_func
  27              		.type	Counter_1_SaveConfig, %function
  28              	Counter_1_SaveConfig:
  29              	.LFB0:
  30              		.file 1 ".\\Generated_Source\\PSoC5\\Counter_1_PM.c"
   1:.\Generated_Source\PSoC5/Counter_1_PM.c **** /*******************************************************************************
   2:.\Generated_Source\PSoC5/Counter_1_PM.c **** * File Name: Counter_1_PM.c  
   3:.\Generated_Source\PSoC5/Counter_1_PM.c **** * Version 3.0
   4:.\Generated_Source\PSoC5/Counter_1_PM.c **** *
   5:.\Generated_Source\PSoC5/Counter_1_PM.c **** *  Description:
   6:.\Generated_Source\PSoC5/Counter_1_PM.c **** *    This file provides the power management source code to API for the
   7:.\Generated_Source\PSoC5/Counter_1_PM.c **** *    Counter.  
   8:.\Generated_Source\PSoC5/Counter_1_PM.c **** *
   9:.\Generated_Source\PSoC5/Counter_1_PM.c **** *   Note:
  10:.\Generated_Source\PSoC5/Counter_1_PM.c **** *     None
  11:.\Generated_Source\PSoC5/Counter_1_PM.c **** *
  12:.\Generated_Source\PSoC5/Counter_1_PM.c **** ********************************************************************************
  13:.\Generated_Source\PSoC5/Counter_1_PM.c **** * Copyright 2008-2012, Cypress Semiconductor Corporation.  All rights reserved.
  14:.\Generated_Source\PSoC5/Counter_1_PM.c **** * You may use this file only in accordance with the license, terms, conditions, 
  15:.\Generated_Source\PSoC5/Counter_1_PM.c **** * disclaimers, and limitations in the end user license agreement accompanying 
  16:.\Generated_Source\PSoC5/Counter_1_PM.c **** * the software package with which this file was provided.
  17:.\Generated_Source\PSoC5/Counter_1_PM.c **** *******************************************************************************/
  18:.\Generated_Source\PSoC5/Counter_1_PM.c **** 
  19:.\Generated_Source\PSoC5/Counter_1_PM.c **** #include "Counter_1.h"
  20:.\Generated_Source\PSoC5/Counter_1_PM.c **** 
  21:.\Generated_Source\PSoC5/Counter_1_PM.c **** static Counter_1_backupStruct Counter_1_backup;
  22:.\Generated_Source\PSoC5/Counter_1_PM.c **** 
  23:.\Generated_Source\PSoC5/Counter_1_PM.c **** 
  24:.\Generated_Source\PSoC5/Counter_1_PM.c **** /*******************************************************************************
  25:.\Generated_Source\PSoC5/Counter_1_PM.c **** * Function Name: Counter_1_SaveConfig
  26:.\Generated_Source\PSoC5/Counter_1_PM.c **** ********************************************************************************
ARM GAS  C:\Users\Shiguruy\AppData\Local\Temp\ccT6B3sc.s 			page 2


  27:.\Generated_Source\PSoC5/Counter_1_PM.c **** * Summary:
  28:.\Generated_Source\PSoC5/Counter_1_PM.c **** *     Save the current user configuration
  29:.\Generated_Source\PSoC5/Counter_1_PM.c **** *
  30:.\Generated_Source\PSoC5/Counter_1_PM.c **** * Parameters:  
  31:.\Generated_Source\PSoC5/Counter_1_PM.c **** *  void
  32:.\Generated_Source\PSoC5/Counter_1_PM.c **** *
  33:.\Generated_Source\PSoC5/Counter_1_PM.c **** * Return: 
  34:.\Generated_Source\PSoC5/Counter_1_PM.c **** *  void
  35:.\Generated_Source\PSoC5/Counter_1_PM.c **** *
  36:.\Generated_Source\PSoC5/Counter_1_PM.c **** * Global variables:
  37:.\Generated_Source\PSoC5/Counter_1_PM.c **** *  Counter_1_backup:  Variables of this global structure are modified to 
  38:.\Generated_Source\PSoC5/Counter_1_PM.c **** *  store the values of non retention configuration registers when Sleep() API is 
  39:.\Generated_Source\PSoC5/Counter_1_PM.c **** *  called.
  40:.\Generated_Source\PSoC5/Counter_1_PM.c **** *
  41:.\Generated_Source\PSoC5/Counter_1_PM.c **** *******************************************************************************/
  42:.\Generated_Source\PSoC5/Counter_1_PM.c **** void Counter_1_SaveConfig(void) 
  43:.\Generated_Source\PSoC5/Counter_1_PM.c **** {
  31              		.loc 1 43 0
  32              		.cfi_startproc
  33              		@ args = 0, pretend = 0, frame = 0
  34              		@ frame_needed = 1, uses_anonymous_args = 0
  35 0000 80B5     		push	{r7, lr}
  36              		.cfi_def_cfa_offset 8
  37              		.cfi_offset 7, -8
  38              		.cfi_offset 14, -4
  39 0002 00AF     		add	r7, sp, #0
  40              		.cfi_def_cfa_register 7
  44:.\Generated_Source\PSoC5/Counter_1_PM.c ****     #if (!Counter_1_UsingFixedFunction)
  45:.\Generated_Source\PSoC5/Counter_1_PM.c **** 
  46:.\Generated_Source\PSoC5/Counter_1_PM.c ****         Counter_1_backup.CounterUdb = Counter_1_ReadCounter();
  41              		.loc 1 46 0
  42 0004 FFF7FEFF 		bl	Counter_1_ReadCounter
  43 0008 0246     		mov	r2, r0
  44 000a 014B     		ldr	r3, .L2
  45 000c 5A60     		str	r2, [r3, #4]
  47:.\Generated_Source\PSoC5/Counter_1_PM.c **** 
  48:.\Generated_Source\PSoC5/Counter_1_PM.c ****         #if(!Counter_1_ControlRegRemoved)
  49:.\Generated_Source\PSoC5/Counter_1_PM.c ****             Counter_1_backup.CounterControlRegister = Counter_1_ReadControlRegister();
  50:.\Generated_Source\PSoC5/Counter_1_PM.c ****         #endif /* (!Counter_1_ControlRegRemoved) */
  51:.\Generated_Source\PSoC5/Counter_1_PM.c **** 
  52:.\Generated_Source\PSoC5/Counter_1_PM.c ****     #endif /* (!Counter_1_UsingFixedFunction) */
  53:.\Generated_Source\PSoC5/Counter_1_PM.c **** }
  46              		.loc 1 53 0
  47 000e 80BD     		pop	{r7, pc}
  48              	.L3:
  49              		.align	2
  50              	.L2:
  51 0010 00000000 		.word	Counter_1_backup
  52              		.cfi_endproc
  53              	.LFE0:
  54              		.size	Counter_1_SaveConfig, .-Counter_1_SaveConfig
  55              		.section	.text.Counter_1_RestoreConfig,"ax",%progbits
  56              		.align	2
  57              		.global	Counter_1_RestoreConfig
  58              		.thumb
  59              		.thumb_func
  60              		.type	Counter_1_RestoreConfig, %function
ARM GAS  C:\Users\Shiguruy\AppData\Local\Temp\ccT6B3sc.s 			page 3


  61              	Counter_1_RestoreConfig:
  62              	.LFB1:
  54:.\Generated_Source\PSoC5/Counter_1_PM.c **** 
  55:.\Generated_Source\PSoC5/Counter_1_PM.c **** 
  56:.\Generated_Source\PSoC5/Counter_1_PM.c **** /*******************************************************************************
  57:.\Generated_Source\PSoC5/Counter_1_PM.c **** * Function Name: Counter_1_RestoreConfig
  58:.\Generated_Source\PSoC5/Counter_1_PM.c **** ********************************************************************************
  59:.\Generated_Source\PSoC5/Counter_1_PM.c **** *
  60:.\Generated_Source\PSoC5/Counter_1_PM.c **** * Summary:
  61:.\Generated_Source\PSoC5/Counter_1_PM.c **** *  Restores the current user configuration.
  62:.\Generated_Source\PSoC5/Counter_1_PM.c **** *
  63:.\Generated_Source\PSoC5/Counter_1_PM.c **** * Parameters:  
  64:.\Generated_Source\PSoC5/Counter_1_PM.c **** *  void
  65:.\Generated_Source\PSoC5/Counter_1_PM.c **** *
  66:.\Generated_Source\PSoC5/Counter_1_PM.c **** * Return: 
  67:.\Generated_Source\PSoC5/Counter_1_PM.c **** *  void
  68:.\Generated_Source\PSoC5/Counter_1_PM.c **** *
  69:.\Generated_Source\PSoC5/Counter_1_PM.c **** * Global variables:
  70:.\Generated_Source\PSoC5/Counter_1_PM.c **** *  Counter_1_backup:  Variables of this global structure are used to 
  71:.\Generated_Source\PSoC5/Counter_1_PM.c **** *  restore the values of non retention registers on wakeup from sleep mode.
  72:.\Generated_Source\PSoC5/Counter_1_PM.c **** *
  73:.\Generated_Source\PSoC5/Counter_1_PM.c **** *******************************************************************************/
  74:.\Generated_Source\PSoC5/Counter_1_PM.c **** void Counter_1_RestoreConfig(void) 
  75:.\Generated_Source\PSoC5/Counter_1_PM.c **** {      
  63              		.loc 1 75 0
  64              		.cfi_startproc
  65              		@ args = 0, pretend = 0, frame = 0
  66              		@ frame_needed = 1, uses_anonymous_args = 0
  67 0000 80B5     		push	{r7, lr}
  68              		.cfi_def_cfa_offset 8
  69              		.cfi_offset 7, -8
  70              		.cfi_offset 14, -4
  71 0002 00AF     		add	r7, sp, #0
  72              		.cfi_def_cfa_register 7
  76:.\Generated_Source\PSoC5/Counter_1_PM.c ****     #if (!Counter_1_UsingFixedFunction)
  77:.\Generated_Source\PSoC5/Counter_1_PM.c **** 
  78:.\Generated_Source\PSoC5/Counter_1_PM.c ****        Counter_1_WriteCounter(Counter_1_backup.CounterUdb);
  73              		.loc 1 78 0
  74 0004 024B     		ldr	r3, .L5
  75 0006 5B68     		ldr	r3, [r3, #4]
  76 0008 1846     		mov	r0, r3
  77 000a FFF7FEFF 		bl	Counter_1_WriteCounter
  79:.\Generated_Source\PSoC5/Counter_1_PM.c **** 
  80:.\Generated_Source\PSoC5/Counter_1_PM.c ****         #if(!Counter_1_ControlRegRemoved)
  81:.\Generated_Source\PSoC5/Counter_1_PM.c ****             Counter_1_WriteControlRegister(Counter_1_backup.CounterControlRegister);
  82:.\Generated_Source\PSoC5/Counter_1_PM.c ****         #endif /* (!Counter_1_ControlRegRemoved) */
  83:.\Generated_Source\PSoC5/Counter_1_PM.c **** 
  84:.\Generated_Source\PSoC5/Counter_1_PM.c ****     #endif /* (!Counter_1_UsingFixedFunction) */
  85:.\Generated_Source\PSoC5/Counter_1_PM.c **** }
  78              		.loc 1 85 0
  79 000e 80BD     		pop	{r7, pc}
  80              	.L6:
  81              		.align	2
  82              	.L5:
  83 0010 00000000 		.word	Counter_1_backup
  84              		.cfi_endproc
  85              	.LFE1:
ARM GAS  C:\Users\Shiguruy\AppData\Local\Temp\ccT6B3sc.s 			page 4


  86              		.size	Counter_1_RestoreConfig, .-Counter_1_RestoreConfig
  87              		.section	.text.Counter_1_Sleep,"ax",%progbits
  88              		.align	2
  89              		.global	Counter_1_Sleep
  90              		.thumb
  91              		.thumb_func
  92              		.type	Counter_1_Sleep, %function
  93              	Counter_1_Sleep:
  94              	.LFB2:
  86:.\Generated_Source\PSoC5/Counter_1_PM.c **** 
  87:.\Generated_Source\PSoC5/Counter_1_PM.c **** 
  88:.\Generated_Source\PSoC5/Counter_1_PM.c **** /*******************************************************************************
  89:.\Generated_Source\PSoC5/Counter_1_PM.c **** * Function Name: Counter_1_Sleep
  90:.\Generated_Source\PSoC5/Counter_1_PM.c **** ********************************************************************************
  91:.\Generated_Source\PSoC5/Counter_1_PM.c **** * Summary:
  92:.\Generated_Source\PSoC5/Counter_1_PM.c **** *     Stop and Save the user configuration
  93:.\Generated_Source\PSoC5/Counter_1_PM.c **** *
  94:.\Generated_Source\PSoC5/Counter_1_PM.c **** * Parameters:  
  95:.\Generated_Source\PSoC5/Counter_1_PM.c **** *  void
  96:.\Generated_Source\PSoC5/Counter_1_PM.c **** *
  97:.\Generated_Source\PSoC5/Counter_1_PM.c **** * Return: 
  98:.\Generated_Source\PSoC5/Counter_1_PM.c **** *  void
  99:.\Generated_Source\PSoC5/Counter_1_PM.c **** *
 100:.\Generated_Source\PSoC5/Counter_1_PM.c **** * Global variables:
 101:.\Generated_Source\PSoC5/Counter_1_PM.c **** *  Counter_1_backup.enableState:  Is modified depending on the enable 
 102:.\Generated_Source\PSoC5/Counter_1_PM.c **** *  state of the block before entering sleep mode.
 103:.\Generated_Source\PSoC5/Counter_1_PM.c **** *
 104:.\Generated_Source\PSoC5/Counter_1_PM.c **** *******************************************************************************/
 105:.\Generated_Source\PSoC5/Counter_1_PM.c **** void Counter_1_Sleep(void) 
 106:.\Generated_Source\PSoC5/Counter_1_PM.c **** {
  95              		.loc 1 106 0
  96              		.cfi_startproc
  97              		@ args = 0, pretend = 0, frame = 0
  98              		@ frame_needed = 1, uses_anonymous_args = 0
  99 0000 80B5     		push	{r7, lr}
 100              		.cfi_def_cfa_offset 8
 101              		.cfi_offset 7, -8
 102              		.cfi_offset 14, -4
 103 0002 00AF     		add	r7, sp, #0
 104              		.cfi_def_cfa_register 7
 107:.\Generated_Source\PSoC5/Counter_1_PM.c ****     #if(!Counter_1_ControlRegRemoved)
 108:.\Generated_Source\PSoC5/Counter_1_PM.c ****         /* Save Counter's enable state */
 109:.\Generated_Source\PSoC5/Counter_1_PM.c ****         if(Counter_1_CTRL_ENABLE == (Counter_1_CONTROL & Counter_1_CTRL_ENABLE))
 110:.\Generated_Source\PSoC5/Counter_1_PM.c ****         {
 111:.\Generated_Source\PSoC5/Counter_1_PM.c ****             /* Counter is enabled */
 112:.\Generated_Source\PSoC5/Counter_1_PM.c ****             Counter_1_backup.CounterEnableState = 1u;
 113:.\Generated_Source\PSoC5/Counter_1_PM.c ****         }
 114:.\Generated_Source\PSoC5/Counter_1_PM.c ****         else
 115:.\Generated_Source\PSoC5/Counter_1_PM.c ****         {
 116:.\Generated_Source\PSoC5/Counter_1_PM.c ****             /* Counter is disabled */
 117:.\Generated_Source\PSoC5/Counter_1_PM.c ****             Counter_1_backup.CounterEnableState = 0u;
 118:.\Generated_Source\PSoC5/Counter_1_PM.c ****         }
 119:.\Generated_Source\PSoC5/Counter_1_PM.c ****     #else
 120:.\Generated_Source\PSoC5/Counter_1_PM.c ****         Counter_1_backup.CounterEnableState = 1u;
 105              		.loc 1 120 0
 106 0004 074B     		ldr	r3, .L9
 107 0006 0122     		movs	r2, #1
ARM GAS  C:\Users\Shiguruy\AppData\Local\Temp\ccT6B3sc.s 			page 5


 108 0008 1A70     		strb	r2, [r3]
 121:.\Generated_Source\PSoC5/Counter_1_PM.c ****         if(Counter_1_backup.CounterEnableState != 0u)
 109              		.loc 1 121 0
 110 000a 064B     		ldr	r3, .L9
 111 000c 1B78     		ldrb	r3, [r3]	@ zero_extendqisi2
 112 000e 002B     		cmp	r3, #0
 113 0010 02D0     		beq	.L8
 122:.\Generated_Source\PSoC5/Counter_1_PM.c ****         {
 123:.\Generated_Source\PSoC5/Counter_1_PM.c ****             Counter_1_backup.CounterEnableState = 0u;
 114              		.loc 1 123 0
 115 0012 044B     		ldr	r3, .L9
 116 0014 0022     		movs	r2, #0
 117 0016 1A70     		strb	r2, [r3]
 118              	.L8:
 124:.\Generated_Source\PSoC5/Counter_1_PM.c ****         }
 125:.\Generated_Source\PSoC5/Counter_1_PM.c ****     #endif /* (!Counter_1_ControlRegRemoved) */
 126:.\Generated_Source\PSoC5/Counter_1_PM.c ****     
 127:.\Generated_Source\PSoC5/Counter_1_PM.c ****     Counter_1_Stop();
 119              		.loc 1 127 0
 120 0018 FFF7FEFF 		bl	Counter_1_Stop
 128:.\Generated_Source\PSoC5/Counter_1_PM.c ****     Counter_1_SaveConfig();
 121              		.loc 1 128 0
 122 001c FFF7FEFF 		bl	Counter_1_SaveConfig
 129:.\Generated_Source\PSoC5/Counter_1_PM.c **** }
 123              		.loc 1 129 0
 124 0020 80BD     		pop	{r7, pc}
 125              	.L10:
 126 0022 00BF     		.align	2
 127              	.L9:
 128 0024 00000000 		.word	Counter_1_backup
 129              		.cfi_endproc
 130              	.LFE2:
 131              		.size	Counter_1_Sleep, .-Counter_1_Sleep
 132              		.section	.text.Counter_1_Wakeup,"ax",%progbits
 133              		.align	2
 134              		.global	Counter_1_Wakeup
 135              		.thumb
 136              		.thumb_func
 137              		.type	Counter_1_Wakeup, %function
 138              	Counter_1_Wakeup:
 139              	.LFB3:
 130:.\Generated_Source\PSoC5/Counter_1_PM.c **** 
 131:.\Generated_Source\PSoC5/Counter_1_PM.c **** 
 132:.\Generated_Source\PSoC5/Counter_1_PM.c **** /*******************************************************************************
 133:.\Generated_Source\PSoC5/Counter_1_PM.c **** * Function Name: Counter_1_Wakeup
 134:.\Generated_Source\PSoC5/Counter_1_PM.c **** ********************************************************************************
 135:.\Generated_Source\PSoC5/Counter_1_PM.c **** *
 136:.\Generated_Source\PSoC5/Counter_1_PM.c **** * Summary:
 137:.\Generated_Source\PSoC5/Counter_1_PM.c **** *  Restores and enables the user configuration
 138:.\Generated_Source\PSoC5/Counter_1_PM.c **** *  
 139:.\Generated_Source\PSoC5/Counter_1_PM.c **** * Parameters:  
 140:.\Generated_Source\PSoC5/Counter_1_PM.c **** *  void
 141:.\Generated_Source\PSoC5/Counter_1_PM.c **** *
 142:.\Generated_Source\PSoC5/Counter_1_PM.c **** * Return: 
 143:.\Generated_Source\PSoC5/Counter_1_PM.c **** *  void
 144:.\Generated_Source\PSoC5/Counter_1_PM.c **** *
 145:.\Generated_Source\PSoC5/Counter_1_PM.c **** * Global variables:
ARM GAS  C:\Users\Shiguruy\AppData\Local\Temp\ccT6B3sc.s 			page 6


 146:.\Generated_Source\PSoC5/Counter_1_PM.c **** *  Counter_1_backup.enableState:  Is used to restore the enable state of 
 147:.\Generated_Source\PSoC5/Counter_1_PM.c **** *  block on wakeup from sleep mode.
 148:.\Generated_Source\PSoC5/Counter_1_PM.c **** *
 149:.\Generated_Source\PSoC5/Counter_1_PM.c **** *******************************************************************************/
 150:.\Generated_Source\PSoC5/Counter_1_PM.c **** void Counter_1_Wakeup(void) 
 151:.\Generated_Source\PSoC5/Counter_1_PM.c **** {
 140              		.loc 1 151 0
 141              		.cfi_startproc
 142              		@ args = 0, pretend = 0, frame = 0
 143              		@ frame_needed = 1, uses_anonymous_args = 0
 144 0000 80B5     		push	{r7, lr}
 145              		.cfi_def_cfa_offset 8
 146              		.cfi_offset 7, -8
 147              		.cfi_offset 14, -4
 148 0002 00AF     		add	r7, sp, #0
 149              		.cfi_def_cfa_register 7
 152:.\Generated_Source\PSoC5/Counter_1_PM.c ****     Counter_1_RestoreConfig();
 150              		.loc 1 152 0
 151 0004 FFF7FEFF 		bl	Counter_1_RestoreConfig
 153:.\Generated_Source\PSoC5/Counter_1_PM.c ****     #if(!Counter_1_ControlRegRemoved)
 154:.\Generated_Source\PSoC5/Counter_1_PM.c ****         if(Counter_1_backup.CounterEnableState == 1u)
 155:.\Generated_Source\PSoC5/Counter_1_PM.c ****         {
 156:.\Generated_Source\PSoC5/Counter_1_PM.c ****             /* Enable Counter's operation */
 157:.\Generated_Source\PSoC5/Counter_1_PM.c ****             Counter_1_Enable();
 158:.\Generated_Source\PSoC5/Counter_1_PM.c ****         } /* Do nothing if Counter was disabled before */    
 159:.\Generated_Source\PSoC5/Counter_1_PM.c ****     #endif /* (!Counter_1_ControlRegRemoved) */
 160:.\Generated_Source\PSoC5/Counter_1_PM.c ****     
 161:.\Generated_Source\PSoC5/Counter_1_PM.c **** }
 152              		.loc 1 161 0
 153 0008 80BD     		pop	{r7, pc}
 154              		.cfi_endproc
 155              	.LFE3:
 156              		.size	Counter_1_Wakeup, .-Counter_1_Wakeup
 157 000a 00BF     		.text
 158              	.Letext0:
 159              		.file 2 ".\\Generated_Source\\PSoC5\\cytypes.h"
 160              		.file 3 ".\\Generated_Source\\PSoC5\\Counter_1.h"