ARM GAS  C:\Users\KJA\AppData\Local\Temp\ccU0rzrs.s 			page 1


   1              		.syntax unified
   2              		.cpu cortex-m3
   3              		.fpu softvfp
   4              		.eabi_attribute 20, 1
   5              		.eabi_attribute 21, 1
   6              		.eabi_attribute 23, 3
   7              		.eabi_attribute 24, 1
   8              		.eabi_attribute 25, 1
   9              		.eabi_attribute 26, 1
  10              		.eabi_attribute 30, 6
  11              		.eabi_attribute 34, 1
  12              		.eabi_attribute 18, 4
  13              		.thumb
  14              		.file	"Counter_Buzz.c"
  15              		.text
  16              	.Ltext0:
  17              		.cfi_sections	.debug_frame
  18              		.global	Counter_Buzz_initVar
  19              		.bss
  20              		.type	Counter_Buzz_initVar, %object
  21              		.size	Counter_Buzz_initVar, 1
  22              	Counter_Buzz_initVar:
  23 0000 00       		.space	1
  24              		.section	.text.Counter_Buzz_Init,"ax",%progbits
  25              		.align	2
  26              		.global	Counter_Buzz_Init
  27              		.thumb
  28              		.thumb_func
  29              		.type	Counter_Buzz_Init, %function
  30              	Counter_Buzz_Init:
  31              	.LFB0:
  32              		.file 1 "Generated_Source\\PSoC5\\Counter_Buzz.c"
   1:Generated_Source\PSoC5/Counter_Buzz.c **** /*******************************************************************************
   2:Generated_Source\PSoC5/Counter_Buzz.c **** * File Name: Counter_Buzz.c  
   3:Generated_Source\PSoC5/Counter_Buzz.c **** * Version 3.0
   4:Generated_Source\PSoC5/Counter_Buzz.c **** *
   5:Generated_Source\PSoC5/Counter_Buzz.c **** *  Description:
   6:Generated_Source\PSoC5/Counter_Buzz.c **** *     The Counter component consists of a 8, 16, 24 or 32-bit counter with
   7:Generated_Source\PSoC5/Counter_Buzz.c **** *     a selectable period between 2 and 2^Width - 1.  
   8:Generated_Source\PSoC5/Counter_Buzz.c **** *
   9:Generated_Source\PSoC5/Counter_Buzz.c **** *   Note:
  10:Generated_Source\PSoC5/Counter_Buzz.c **** *     None
  11:Generated_Source\PSoC5/Counter_Buzz.c **** *
  12:Generated_Source\PSoC5/Counter_Buzz.c **** ********************************************************************************
  13:Generated_Source\PSoC5/Counter_Buzz.c **** * Copyright 2008-2012, Cypress Semiconductor Corporation.  All rights reserved.
  14:Generated_Source\PSoC5/Counter_Buzz.c **** * You may use this file only in accordance with the license, terms, conditions, 
  15:Generated_Source\PSoC5/Counter_Buzz.c **** * disclaimers, and limitations in the end user license agreement accompanying 
  16:Generated_Source\PSoC5/Counter_Buzz.c **** * the software package with which this file was provided.
  17:Generated_Source\PSoC5/Counter_Buzz.c **** *******************************************************************************/
  18:Generated_Source\PSoC5/Counter_Buzz.c **** 
  19:Generated_Source\PSoC5/Counter_Buzz.c **** #include "Counter_Buzz.h"
  20:Generated_Source\PSoC5/Counter_Buzz.c **** 
  21:Generated_Source\PSoC5/Counter_Buzz.c **** uint8 Counter_Buzz_initVar = 0u;
  22:Generated_Source\PSoC5/Counter_Buzz.c **** 
  23:Generated_Source\PSoC5/Counter_Buzz.c **** 
  24:Generated_Source\PSoC5/Counter_Buzz.c **** /*******************************************************************************
  25:Generated_Source\PSoC5/Counter_Buzz.c **** * Function Name: Counter_Buzz_Init
ARM GAS  C:\Users\KJA\AppData\Local\Temp\ccU0rzrs.s 			page 2


  26:Generated_Source\PSoC5/Counter_Buzz.c **** ********************************************************************************
  27:Generated_Source\PSoC5/Counter_Buzz.c **** * Summary:
  28:Generated_Source\PSoC5/Counter_Buzz.c **** *     Initialize to the schematic state
  29:Generated_Source\PSoC5/Counter_Buzz.c **** * 
  30:Generated_Source\PSoC5/Counter_Buzz.c **** * Parameters:  
  31:Generated_Source\PSoC5/Counter_Buzz.c **** *  void  
  32:Generated_Source\PSoC5/Counter_Buzz.c **** *
  33:Generated_Source\PSoC5/Counter_Buzz.c **** * Return: 
  34:Generated_Source\PSoC5/Counter_Buzz.c **** *  void
  35:Generated_Source\PSoC5/Counter_Buzz.c **** *
  36:Generated_Source\PSoC5/Counter_Buzz.c **** *******************************************************************************/
  37:Generated_Source\PSoC5/Counter_Buzz.c **** void Counter_Buzz_Init(void) 
  38:Generated_Source\PSoC5/Counter_Buzz.c **** {
  33              		.loc 1 38 0
  34              		.cfi_startproc
  35              		@ args = 0, pretend = 0, frame = 8
  36              		@ frame_needed = 1, uses_anonymous_args = 0
  37 0000 80B5     		push	{r7, lr}
  38              		.cfi_def_cfa_offset 8
  39              		.cfi_offset 7, -8
  40              		.cfi_offset 14, -4
  41 0002 82B0     		sub	sp, sp, #8
  42              		.cfi_def_cfa_offset 16
  43 0004 00AF     		add	r7, sp, #0
  44              		.cfi_def_cfa_register 7
  39:Generated_Source\PSoC5/Counter_Buzz.c ****         #if (!Counter_Buzz_UsingFixedFunction && !Counter_Buzz_ControlRegRemoved)
  40:Generated_Source\PSoC5/Counter_Buzz.c ****             uint8 ctrl;
  41:Generated_Source\PSoC5/Counter_Buzz.c ****         #endif /* (!Counter_Buzz_UsingFixedFunction && !Counter_Buzz_ControlRegRemoved) */
  42:Generated_Source\PSoC5/Counter_Buzz.c ****         
  43:Generated_Source\PSoC5/Counter_Buzz.c ****         #if(!Counter_Buzz_UsingFixedFunction) 
  44:Generated_Source\PSoC5/Counter_Buzz.c ****             /* Interrupt State Backup for Critical Region*/
  45:Generated_Source\PSoC5/Counter_Buzz.c ****             uint8 Counter_Buzz_interruptState;
  46:Generated_Source\PSoC5/Counter_Buzz.c ****         #endif /* (!Counter_Buzz_UsingFixedFunction) */
  47:Generated_Source\PSoC5/Counter_Buzz.c ****         
  48:Generated_Source\PSoC5/Counter_Buzz.c ****         #if (Counter_Buzz_UsingFixedFunction)
  49:Generated_Source\PSoC5/Counter_Buzz.c ****             /* Clear all bits but the enable bit (if it's already set for Timer operation */
  50:Generated_Source\PSoC5/Counter_Buzz.c ****             Counter_Buzz_CONTROL &= Counter_Buzz_CTRL_ENABLE;
  51:Generated_Source\PSoC5/Counter_Buzz.c ****             
  52:Generated_Source\PSoC5/Counter_Buzz.c ****             /* Clear the mode bits for continuous run mode */
  53:Generated_Source\PSoC5/Counter_Buzz.c ****             #if (CY_PSOC5A)
  54:Generated_Source\PSoC5/Counter_Buzz.c ****                 Counter_Buzz_CONTROL2 &= ((uint8)(~Counter_Buzz_CTRL_MODE_MASK));
  55:Generated_Source\PSoC5/Counter_Buzz.c ****             #endif /* (CY_PSOC5A) */
  56:Generated_Source\PSoC5/Counter_Buzz.c ****             #if (CY_PSOC3 || CY_PSOC5LP)
  57:Generated_Source\PSoC5/Counter_Buzz.c ****                 Counter_Buzz_CONTROL3 &= ((uint8)(~Counter_Buzz_CTRL_MODE_MASK));                
  58:Generated_Source\PSoC5/Counter_Buzz.c ****             #endif /* (CY_PSOC3 || CY_PSOC5LP) */
  59:Generated_Source\PSoC5/Counter_Buzz.c ****             /* Check if One Shot mode is enabled i.e. RunMode !=0*/
  60:Generated_Source\PSoC5/Counter_Buzz.c ****             #if (Counter_Buzz_RunModeUsed != 0x0u)
  61:Generated_Source\PSoC5/Counter_Buzz.c ****                 /* Set 3rd bit of Control register to enable one shot mode */
  62:Generated_Source\PSoC5/Counter_Buzz.c ****                 Counter_Buzz_CONTROL |= Counter_Buzz_ONESHOT;
  63:Generated_Source\PSoC5/Counter_Buzz.c ****             #endif /* (Counter_Buzz_RunModeUsed != 0x0u) */
  64:Generated_Source\PSoC5/Counter_Buzz.c ****             
  65:Generated_Source\PSoC5/Counter_Buzz.c ****             /* Set the IRQ to use the status register interrupts */
  66:Generated_Source\PSoC5/Counter_Buzz.c ****             Counter_Buzz_CONTROL2 |= Counter_Buzz_CTRL2_IRQ_SEL;
  67:Generated_Source\PSoC5/Counter_Buzz.c ****             
  68:Generated_Source\PSoC5/Counter_Buzz.c ****             /* Clear and Set SYNCTC and SYNCCMP bits of RT1 register */
  69:Generated_Source\PSoC5/Counter_Buzz.c ****             Counter_Buzz_RT1 &= ((uint8)(~Counter_Buzz_RT1_MASK));
  70:Generated_Source\PSoC5/Counter_Buzz.c ****             Counter_Buzz_RT1 |= Counter_Buzz_SYNC;     
ARM GAS  C:\Users\KJA\AppData\Local\Temp\ccU0rzrs.s 			page 3


  71:Generated_Source\PSoC5/Counter_Buzz.c ****                     
  72:Generated_Source\PSoC5/Counter_Buzz.c ****             /*Enable DSI Sync all all inputs of the Timer*/
  73:Generated_Source\PSoC5/Counter_Buzz.c ****             Counter_Buzz_RT1 &= ((uint8)(~Counter_Buzz_SYNCDSI_MASK));
  74:Generated_Source\PSoC5/Counter_Buzz.c ****             Counter_Buzz_RT1 |= Counter_Buzz_SYNCDSI_EN;
  75:Generated_Source\PSoC5/Counter_Buzz.c **** 
  76:Generated_Source\PSoC5/Counter_Buzz.c ****         #else
  77:Generated_Source\PSoC5/Counter_Buzz.c ****             #if(!Counter_Buzz_ControlRegRemoved)
  78:Generated_Source\PSoC5/Counter_Buzz.c ****             /* Set the default compare mode defined in the parameter */
  79:Generated_Source\PSoC5/Counter_Buzz.c ****             ctrl = Counter_Buzz_CONTROL & ((uint8)(~Counter_Buzz_CTRL_CMPMODE_MASK));
  45              		.loc 1 79 0
  46 0006 1D4B     		ldr	r3, .L2
  47 0008 1B78     		ldrb	r3, [r3]
  48 000a DBB2     		uxtb	r3, r3
  49 000c 23F00703 		bic	r3, r3, #7
  50 0010 FB71     		strb	r3, [r7, #7]
  80:Generated_Source\PSoC5/Counter_Buzz.c ****             Counter_Buzz_CONTROL = ctrl | Counter_Buzz_DEFAULT_COMPARE_MODE;
  51              		.loc 1 80 0
  52 0012 1A4A     		ldr	r2, .L2
  53 0014 FB79     		ldrb	r3, [r7, #7]
  54 0016 43F00103 		orr	r3, r3, #1
  55 001a DBB2     		uxtb	r3, r3
  56 001c 1370     		strb	r3, [r2]
  81:Generated_Source\PSoC5/Counter_Buzz.c ****             
  82:Generated_Source\PSoC5/Counter_Buzz.c ****             /* Set the default capture mode defined in the parameter */
  83:Generated_Source\PSoC5/Counter_Buzz.c ****             ctrl = Counter_Buzz_CONTROL & ((uint8)(~Counter_Buzz_CTRL_CAPMODE_MASK));
  57              		.loc 1 83 0
  58 001e 174B     		ldr	r3, .L2
  59 0020 1B78     		ldrb	r3, [r3]
  60 0022 DBB2     		uxtb	r3, r3
  61 0024 23F00303 		bic	r3, r3, #3
  62 0028 FB71     		strb	r3, [r7, #7]
  84:Generated_Source\PSoC5/Counter_Buzz.c ****             
  85:Generated_Source\PSoC5/Counter_Buzz.c ****             #if( 0 != Counter_Buzz_CAPTURE_MODE_CONF)
  86:Generated_Source\PSoC5/Counter_Buzz.c ****                 Counter_Buzz_CONTROL = ctrl | Counter_Buzz_DEFAULT_CAPTURE_MODE;
  87:Generated_Source\PSoC5/Counter_Buzz.c ****             #else
  88:Generated_Source\PSoC5/Counter_Buzz.c ****                 Counter_Buzz_CONTROL = ctrl;
  63              		.loc 1 88 0
  64 002a 144A     		ldr	r2, .L2
  65 002c FB79     		ldrb	r3, [r7, #7]
  66 002e 1370     		strb	r3, [r2]
  89:Generated_Source\PSoC5/Counter_Buzz.c ****             #endif /* 0 != Counter_Buzz_CAPTURE_MODE */ 
  90:Generated_Source\PSoC5/Counter_Buzz.c ****             
  91:Generated_Source\PSoC5/Counter_Buzz.c ****             #endif /* (!Counter_Buzz_ControlRegRemoved) */
  92:Generated_Source\PSoC5/Counter_Buzz.c ****         #endif /* (Counter_Buzz_UsingFixedFunction) */
  93:Generated_Source\PSoC5/Counter_Buzz.c ****         
  94:Generated_Source\PSoC5/Counter_Buzz.c ****         /* Clear all data in the FIFO's */
  95:Generated_Source\PSoC5/Counter_Buzz.c ****         #if (!Counter_Buzz_UsingFixedFunction)
  96:Generated_Source\PSoC5/Counter_Buzz.c ****             Counter_Buzz_ClearFIFO();
  67              		.loc 1 96 0
  68 0030 FFF7FEFF 		bl	Counter_Buzz_ClearFIFO
  97:Generated_Source\PSoC5/Counter_Buzz.c ****         #endif /* (!Counter_Buzz_UsingFixedFunction) */
  98:Generated_Source\PSoC5/Counter_Buzz.c ****         
  99:Generated_Source\PSoC5/Counter_Buzz.c ****         /* Set Initial values from Configuration */
 100:Generated_Source\PSoC5/Counter_Buzz.c ****         Counter_Buzz_WritePeriod(Counter_Buzz_INIT_PERIOD_VALUE);
  69              		.loc 1 100 0
  70 0034 4FF0FF30 		mov	r0, #-1
  71 0038 FFF7FEFF 		bl	Counter_Buzz_WritePeriod
ARM GAS  C:\Users\KJA\AppData\Local\Temp\ccU0rzrs.s 			page 4


 101:Generated_Source\PSoC5/Counter_Buzz.c ****         #if (!(Counter_Buzz_UsingFixedFunction && (CY_PSOC5A)))
 102:Generated_Source\PSoC5/Counter_Buzz.c ****             Counter_Buzz_WriteCounter(Counter_Buzz_INIT_COUNTER_VALUE);
  72              		.loc 1 102 0
  73 003c 0020     		movs	r0, #0
  74 003e FFF7FEFF 		bl	Counter_Buzz_WriteCounter
 103:Generated_Source\PSoC5/Counter_Buzz.c ****         #endif /* (!(Counter_Buzz_UsingFixedFunction && (CY_PSOC5A))) */
 104:Generated_Source\PSoC5/Counter_Buzz.c ****         Counter_Buzz_SetInterruptMode(Counter_Buzz_INIT_INTERRUPTS_MASK);
  75              		.loc 1 104 0
  76 0042 0020     		movs	r0, #0
  77 0044 FFF7FEFF 		bl	Counter_Buzz_SetInterruptMode
 105:Generated_Source\PSoC5/Counter_Buzz.c ****         
 106:Generated_Source\PSoC5/Counter_Buzz.c ****         #if (!Counter_Buzz_UsingFixedFunction)
 107:Generated_Source\PSoC5/Counter_Buzz.c ****             /* Read the status register to clear the unwanted interrupts */
 108:Generated_Source\PSoC5/Counter_Buzz.c ****             (void)Counter_Buzz_ReadStatusRegister();
  78              		.loc 1 108 0
  79 0048 FFF7FEFF 		bl	Counter_Buzz_ReadStatusRegister
 109:Generated_Source\PSoC5/Counter_Buzz.c ****             /* Set the compare value (only available to non-fixed function implementation */
 110:Generated_Source\PSoC5/Counter_Buzz.c ****             Counter_Buzz_WriteCompare(Counter_Buzz_INIT_COMPARE_VALUE);
  80              		.loc 1 110 0
  81 004c 41F28830 		movw	r0, #5000
  82 0050 FFF7FEFF 		bl	Counter_Buzz_WriteCompare
 111:Generated_Source\PSoC5/Counter_Buzz.c ****             /* Use the interrupt output of the status register for IRQ output */
 112:Generated_Source\PSoC5/Counter_Buzz.c ****             
 113:Generated_Source\PSoC5/Counter_Buzz.c ****             /* CyEnterCriticalRegion and CyExitCriticalRegion are used to mark following region cri
 114:Generated_Source\PSoC5/Counter_Buzz.c ****             /* Enter Critical Region*/
 115:Generated_Source\PSoC5/Counter_Buzz.c ****             Counter_Buzz_interruptState = CyEnterCriticalSection();
  83              		.loc 1 115 0
  84 0054 FFF7FEFF 		bl	CyEnterCriticalSection
  85 0058 0346     		mov	r3, r0
  86 005a BB71     		strb	r3, [r7, #6]
 116:Generated_Source\PSoC5/Counter_Buzz.c ****             
 117:Generated_Source\PSoC5/Counter_Buzz.c ****             Counter_Buzz_STATUS_AUX_CTRL |= Counter_Buzz_STATUS_ACTL_INT_EN_MASK;
  87              		.loc 1 117 0
  88 005c 084A     		ldr	r2, .L2+4
  89 005e 084B     		ldr	r3, .L2+4
  90 0060 1B78     		ldrb	r3, [r3]
  91 0062 DBB2     		uxtb	r3, r3
  92 0064 43F01003 		orr	r3, r3, #16
  93 0068 DBB2     		uxtb	r3, r3
  94 006a 1370     		strb	r3, [r2]
 118:Generated_Source\PSoC5/Counter_Buzz.c ****             
 119:Generated_Source\PSoC5/Counter_Buzz.c ****             /* Exit Critical Region*/
 120:Generated_Source\PSoC5/Counter_Buzz.c ****             CyExitCriticalSection(Counter_Buzz_interruptState);
  95              		.loc 1 120 0
  96 006c BB79     		ldrb	r3, [r7, #6]	@ zero_extendqisi2
  97 006e 1846     		mov	r0, r3
  98 0070 FFF7FEFF 		bl	CyExitCriticalSection
 121:Generated_Source\PSoC5/Counter_Buzz.c ****             
 122:Generated_Source\PSoC5/Counter_Buzz.c ****         #endif /* (!Counter_Buzz_UsingFixedFunction) */
 123:Generated_Source\PSoC5/Counter_Buzz.c **** }
  99              		.loc 1 123 0
 100 0074 0837     		adds	r7, r7, #8
 101              		.cfi_def_cfa_offset 8
 102 0076 BD46     		mov	sp, r7
 103              		.cfi_def_cfa_register 13
 104              		@ sp needed
 105 0078 80BD     		pop	{r7, pc}
ARM GAS  C:\Users\KJA\AppData\Local\Temp\ccU0rzrs.s 			page 5


 106              	.L3:
 107 007a 00BF     		.align	2
 108              	.L2:
 109 007c 75650040 		.word	1073767797
 110 0080 97650040 		.word	1073767831
 111              		.cfi_endproc
 112              	.LFE0:
 113              		.size	Counter_Buzz_Init, .-Counter_Buzz_Init
 114              		.section	.text.Counter_Buzz_Enable,"ax",%progbits
 115              		.align	2
 116              		.global	Counter_Buzz_Enable
 117              		.thumb
 118              		.thumb_func
 119              		.type	Counter_Buzz_Enable, %function
 120              	Counter_Buzz_Enable:
 121              	.LFB1:
 124:Generated_Source\PSoC5/Counter_Buzz.c **** 
 125:Generated_Source\PSoC5/Counter_Buzz.c **** 
 126:Generated_Source\PSoC5/Counter_Buzz.c **** /*******************************************************************************
 127:Generated_Source\PSoC5/Counter_Buzz.c **** * Function Name: Counter_Buzz_Enable
 128:Generated_Source\PSoC5/Counter_Buzz.c **** ********************************************************************************
 129:Generated_Source\PSoC5/Counter_Buzz.c **** * Summary:
 130:Generated_Source\PSoC5/Counter_Buzz.c **** *     Enable the Counter
 131:Generated_Source\PSoC5/Counter_Buzz.c **** * 
 132:Generated_Source\PSoC5/Counter_Buzz.c **** * Parameters:  
 133:Generated_Source\PSoC5/Counter_Buzz.c **** *  void  
 134:Generated_Source\PSoC5/Counter_Buzz.c **** *
 135:Generated_Source\PSoC5/Counter_Buzz.c **** * Return: 
 136:Generated_Source\PSoC5/Counter_Buzz.c **** *  void
 137:Generated_Source\PSoC5/Counter_Buzz.c **** *
 138:Generated_Source\PSoC5/Counter_Buzz.c **** * Side Effects: 
 139:Generated_Source\PSoC5/Counter_Buzz.c **** *   If the Enable mode is set to Hardware only then this function has no effect 
 140:Generated_Source\PSoC5/Counter_Buzz.c **** *   on the operation of the counter.
 141:Generated_Source\PSoC5/Counter_Buzz.c **** *
 142:Generated_Source\PSoC5/Counter_Buzz.c **** *******************************************************************************/
 143:Generated_Source\PSoC5/Counter_Buzz.c **** void Counter_Buzz_Enable(void) 
 144:Generated_Source\PSoC5/Counter_Buzz.c **** {
 122              		.loc 1 144 0
 123              		.cfi_startproc
 124              		@ args = 0, pretend = 0, frame = 0
 125              		@ frame_needed = 1, uses_anonymous_args = 0
 126              		@ link register save eliminated.
 127 0000 80B4     		push	{r7}
 128              		.cfi_def_cfa_offset 4
 129              		.cfi_offset 7, -4
 130 0002 00AF     		add	r7, sp, #0
 131              		.cfi_def_cfa_register 7
 145:Generated_Source\PSoC5/Counter_Buzz.c ****     /* Globally Enable the Fixed Function Block chosen */
 146:Generated_Source\PSoC5/Counter_Buzz.c ****     #if (Counter_Buzz_UsingFixedFunction)
 147:Generated_Source\PSoC5/Counter_Buzz.c ****         Counter_Buzz_GLOBAL_ENABLE |= Counter_Buzz_BLOCK_EN_MASK;
 148:Generated_Source\PSoC5/Counter_Buzz.c ****         Counter_Buzz_GLOBAL_STBY_ENABLE |= Counter_Buzz_BLOCK_STBY_EN_MASK;
 149:Generated_Source\PSoC5/Counter_Buzz.c ****     #endif /* (Counter_Buzz_UsingFixedFunction) */  
 150:Generated_Source\PSoC5/Counter_Buzz.c ****         
 151:Generated_Source\PSoC5/Counter_Buzz.c ****     /* Enable the counter from the control register  */
 152:Generated_Source\PSoC5/Counter_Buzz.c ****     /* If Fixed Function then make sure Mode is set correctly */
 153:Generated_Source\PSoC5/Counter_Buzz.c ****     /* else make sure reset is clear */
 154:Generated_Source\PSoC5/Counter_Buzz.c ****     #if(!Counter_Buzz_ControlRegRemoved || Counter_Buzz_UsingFixedFunction)
ARM GAS  C:\Users\KJA\AppData\Local\Temp\ccU0rzrs.s 			page 6


 155:Generated_Source\PSoC5/Counter_Buzz.c ****         Counter_Buzz_CONTROL |= Counter_Buzz_CTRL_ENABLE;                
 132              		.loc 1 155 0
 133 0004 054A     		ldr	r2, .L5
 134 0006 054B     		ldr	r3, .L5
 135 0008 1B78     		ldrb	r3, [r3]
 136 000a DBB2     		uxtb	r3, r3
 137 000c 63F07F03 		orn	r3, r3, #127
 138 0010 DBB2     		uxtb	r3, r3
 139 0012 1370     		strb	r3, [r2]
 156:Generated_Source\PSoC5/Counter_Buzz.c ****     #endif /* (!Counter_Buzz_ControlRegRemoved || Counter_Buzz_UsingFixedFunction) */
 157:Generated_Source\PSoC5/Counter_Buzz.c ****     
 158:Generated_Source\PSoC5/Counter_Buzz.c **** }
 140              		.loc 1 158 0
 141 0014 BD46     		mov	sp, r7
 142              		.cfi_def_cfa_register 13
 143              		@ sp needed
 144 0016 5DF8047B 		ldr	r7, [sp], #4
 145              		.cfi_restore 7
 146              		.cfi_def_cfa_offset 0
 147 001a 7047     		bx	lr
 148              	.L6:
 149              		.align	2
 150              	.L5:
 151 001c 75650040 		.word	1073767797
 152              		.cfi_endproc
 153              	.LFE1:
 154              		.size	Counter_Buzz_Enable, .-Counter_Buzz_Enable
 155              		.section	.text.Counter_Buzz_Start,"ax",%progbits
 156              		.align	2
 157              		.global	Counter_Buzz_Start
 158              		.thumb
 159              		.thumb_func
 160              		.type	Counter_Buzz_Start, %function
 161              	Counter_Buzz_Start:
 162              	.LFB2:
 159:Generated_Source\PSoC5/Counter_Buzz.c **** 
 160:Generated_Source\PSoC5/Counter_Buzz.c **** 
 161:Generated_Source\PSoC5/Counter_Buzz.c **** /*******************************************************************************
 162:Generated_Source\PSoC5/Counter_Buzz.c **** * Function Name: Counter_Buzz_Start
 163:Generated_Source\PSoC5/Counter_Buzz.c **** ********************************************************************************
 164:Generated_Source\PSoC5/Counter_Buzz.c **** * Summary:
 165:Generated_Source\PSoC5/Counter_Buzz.c **** *  Enables the counter for operation 
 166:Generated_Source\PSoC5/Counter_Buzz.c **** *
 167:Generated_Source\PSoC5/Counter_Buzz.c **** * Parameters:  
 168:Generated_Source\PSoC5/Counter_Buzz.c **** *  void  
 169:Generated_Source\PSoC5/Counter_Buzz.c **** *
 170:Generated_Source\PSoC5/Counter_Buzz.c **** * Return: 
 171:Generated_Source\PSoC5/Counter_Buzz.c **** *  void
 172:Generated_Source\PSoC5/Counter_Buzz.c **** *
 173:Generated_Source\PSoC5/Counter_Buzz.c **** * Global variables:
 174:Generated_Source\PSoC5/Counter_Buzz.c **** *  Counter_Buzz_initVar: Is modified when this function is called for the  
 175:Generated_Source\PSoC5/Counter_Buzz.c **** *   first time. Is used to ensure that initialization happens only once.
 176:Generated_Source\PSoC5/Counter_Buzz.c **** *
 177:Generated_Source\PSoC5/Counter_Buzz.c **** *******************************************************************************/
 178:Generated_Source\PSoC5/Counter_Buzz.c **** void Counter_Buzz_Start(void) 
 179:Generated_Source\PSoC5/Counter_Buzz.c **** {
 163              		.loc 1 179 0
ARM GAS  C:\Users\KJA\AppData\Local\Temp\ccU0rzrs.s 			page 7


 164              		.cfi_startproc
 165              		@ args = 0, pretend = 0, frame = 0
 166              		@ frame_needed = 1, uses_anonymous_args = 0
 167 0000 80B5     		push	{r7, lr}
 168              		.cfi_def_cfa_offset 8
 169              		.cfi_offset 7, -8
 170              		.cfi_offset 14, -4
 171 0002 00AF     		add	r7, sp, #0
 172              		.cfi_def_cfa_register 7
 180:Generated_Source\PSoC5/Counter_Buzz.c ****     if(Counter_Buzz_initVar == 0u)
 173              		.loc 1 180 0
 174 0004 054B     		ldr	r3, .L9
 175 0006 1B78     		ldrb	r3, [r3]	@ zero_extendqisi2
 176 0008 002B     		cmp	r3, #0
 177 000a 04D1     		bne	.L8
 181:Generated_Source\PSoC5/Counter_Buzz.c ****     {
 182:Generated_Source\PSoC5/Counter_Buzz.c ****         Counter_Buzz_Init();
 178              		.loc 1 182 0
 179 000c FFF7FEFF 		bl	Counter_Buzz_Init
 183:Generated_Source\PSoC5/Counter_Buzz.c ****         
 184:Generated_Source\PSoC5/Counter_Buzz.c ****         Counter_Buzz_initVar = 1u; /* Clear this bit for Initialization */        
 180              		.loc 1 184 0
 181 0010 024B     		ldr	r3, .L9
 182 0012 0122     		movs	r2, #1
 183 0014 1A70     		strb	r2, [r3]
 184              	.L8:
 185:Generated_Source\PSoC5/Counter_Buzz.c ****     }
 186:Generated_Source\PSoC5/Counter_Buzz.c ****     
 187:Generated_Source\PSoC5/Counter_Buzz.c ****     /* Enable the Counter */
 188:Generated_Source\PSoC5/Counter_Buzz.c ****     Counter_Buzz_Enable();        
 185              		.loc 1 188 0
 186 0016 FFF7FEFF 		bl	Counter_Buzz_Enable
 189:Generated_Source\PSoC5/Counter_Buzz.c **** }
 187              		.loc 1 189 0
 188 001a 80BD     		pop	{r7, pc}
 189              	.L10:
 190              		.align	2
 191              	.L9:
 192 001c 00000000 		.word	Counter_Buzz_initVar
 193              		.cfi_endproc
 194              	.LFE2:
 195              		.size	Counter_Buzz_Start, .-Counter_Buzz_Start
 196              		.section	.text.Counter_Buzz_Stop,"ax",%progbits
 197              		.align	2
 198              		.global	Counter_Buzz_Stop
 199              		.thumb
 200              		.thumb_func
 201              		.type	Counter_Buzz_Stop, %function
 202              	Counter_Buzz_Stop:
 203              	.LFB3:
 190:Generated_Source\PSoC5/Counter_Buzz.c **** 
 191:Generated_Source\PSoC5/Counter_Buzz.c **** 
 192:Generated_Source\PSoC5/Counter_Buzz.c **** /*******************************************************************************
 193:Generated_Source\PSoC5/Counter_Buzz.c **** * Function Name: Counter_Buzz_Stop
 194:Generated_Source\PSoC5/Counter_Buzz.c **** ********************************************************************************
 195:Generated_Source\PSoC5/Counter_Buzz.c **** * Summary:
 196:Generated_Source\PSoC5/Counter_Buzz.c **** * Halts the counter, but does not change any modes or disable interrupts.
ARM GAS  C:\Users\KJA\AppData\Local\Temp\ccU0rzrs.s 			page 8


 197:Generated_Source\PSoC5/Counter_Buzz.c **** *
 198:Generated_Source\PSoC5/Counter_Buzz.c **** * Parameters:  
 199:Generated_Source\PSoC5/Counter_Buzz.c **** *  void  
 200:Generated_Source\PSoC5/Counter_Buzz.c **** *
 201:Generated_Source\PSoC5/Counter_Buzz.c **** * Return: 
 202:Generated_Source\PSoC5/Counter_Buzz.c **** *  void
 203:Generated_Source\PSoC5/Counter_Buzz.c **** *
 204:Generated_Source\PSoC5/Counter_Buzz.c **** * Side Effects: If the Enable mode is set to Hardware only then this function
 205:Generated_Source\PSoC5/Counter_Buzz.c **** *               has no effect on the operation of the counter.
 206:Generated_Source\PSoC5/Counter_Buzz.c **** *
 207:Generated_Source\PSoC5/Counter_Buzz.c **** *******************************************************************************/
 208:Generated_Source\PSoC5/Counter_Buzz.c **** void Counter_Buzz_Stop(void) 
 209:Generated_Source\PSoC5/Counter_Buzz.c **** {
 204              		.loc 1 209 0
 205              		.cfi_startproc
 206              		@ args = 0, pretend = 0, frame = 0
 207              		@ frame_needed = 1, uses_anonymous_args = 0
 208              		@ link register save eliminated.
 209 0000 80B4     		push	{r7}
 210              		.cfi_def_cfa_offset 4
 211              		.cfi_offset 7, -4
 212 0002 00AF     		add	r7, sp, #0
 213              		.cfi_def_cfa_register 7
 210:Generated_Source\PSoC5/Counter_Buzz.c ****     /* Disable Counter */
 211:Generated_Source\PSoC5/Counter_Buzz.c ****     #if(!Counter_Buzz_ControlRegRemoved || Counter_Buzz_UsingFixedFunction)
 212:Generated_Source\PSoC5/Counter_Buzz.c ****         Counter_Buzz_CONTROL &= ((uint8)(~Counter_Buzz_CTRL_ENABLE));        
 214              		.loc 1 212 0
 215 0004 054A     		ldr	r2, .L12
 216 0006 054B     		ldr	r3, .L12
 217 0008 1B78     		ldrb	r3, [r3]
 218 000a DBB2     		uxtb	r3, r3
 219 000c 03F07F03 		and	r3, r3, #127
 220 0010 DBB2     		uxtb	r3, r3
 221 0012 1370     		strb	r3, [r2]
 213:Generated_Source\PSoC5/Counter_Buzz.c ****     #endif /* (!Counter_Buzz_ControlRegRemoved || Counter_Buzz_UsingFixedFunction) */
 214:Generated_Source\PSoC5/Counter_Buzz.c ****     
 215:Generated_Source\PSoC5/Counter_Buzz.c ****     /* Globally disable the Fixed Function Block chosen */
 216:Generated_Source\PSoC5/Counter_Buzz.c ****     #if (Counter_Buzz_UsingFixedFunction)
 217:Generated_Source\PSoC5/Counter_Buzz.c ****         Counter_Buzz_GLOBAL_ENABLE &= ((uint8)(~Counter_Buzz_BLOCK_EN_MASK));
 218:Generated_Source\PSoC5/Counter_Buzz.c ****         Counter_Buzz_GLOBAL_STBY_ENABLE &= ((uint8)(~Counter_Buzz_BLOCK_STBY_EN_MASK));
 219:Generated_Source\PSoC5/Counter_Buzz.c ****     #endif /* (Counter_Buzz_UsingFixedFunction) */
 220:Generated_Source\PSoC5/Counter_Buzz.c **** }
 222              		.loc 1 220 0
 223 0014 BD46     		mov	sp, r7
 224              		.cfi_def_cfa_register 13
 225              		@ sp needed
 226 0016 5DF8047B 		ldr	r7, [sp], #4
 227              		.cfi_restore 7
 228              		.cfi_def_cfa_offset 0
 229 001a 7047     		bx	lr
 230              	.L13:
 231              		.align	2
 232              	.L12:
 233 001c 75650040 		.word	1073767797
 234              		.cfi_endproc
 235              	.LFE3:
 236              		.size	Counter_Buzz_Stop, .-Counter_Buzz_Stop
ARM GAS  C:\Users\KJA\AppData\Local\Temp\ccU0rzrs.s 			page 9


 237              		.section	.text.Counter_Buzz_SetInterruptMode,"ax",%progbits
 238              		.align	2
 239              		.global	Counter_Buzz_SetInterruptMode
 240              		.thumb
 241              		.thumb_func
 242              		.type	Counter_Buzz_SetInterruptMode, %function
 243              	Counter_Buzz_SetInterruptMode:
 244              	.LFB4:
 221:Generated_Source\PSoC5/Counter_Buzz.c **** 
 222:Generated_Source\PSoC5/Counter_Buzz.c **** 
 223:Generated_Source\PSoC5/Counter_Buzz.c **** /*******************************************************************************
 224:Generated_Source\PSoC5/Counter_Buzz.c **** * Function Name: Counter_Buzz_SetInterruptMode
 225:Generated_Source\PSoC5/Counter_Buzz.c **** ********************************************************************************
 226:Generated_Source\PSoC5/Counter_Buzz.c **** * Summary:
 227:Generated_Source\PSoC5/Counter_Buzz.c **** * Configures which interrupt sources are enabled to generate the final interrupt
 228:Generated_Source\PSoC5/Counter_Buzz.c **** *
 229:Generated_Source\PSoC5/Counter_Buzz.c **** * Parameters:  
 230:Generated_Source\PSoC5/Counter_Buzz.c **** *  InterruptsMask: This parameter is an or'd collection of the status bits
 231:Generated_Source\PSoC5/Counter_Buzz.c **** *                   which will be allowed to generate the counters interrupt.   
 232:Generated_Source\PSoC5/Counter_Buzz.c **** *
 233:Generated_Source\PSoC5/Counter_Buzz.c **** * Return: 
 234:Generated_Source\PSoC5/Counter_Buzz.c **** *  void
 235:Generated_Source\PSoC5/Counter_Buzz.c **** *
 236:Generated_Source\PSoC5/Counter_Buzz.c **** *******************************************************************************/
 237:Generated_Source\PSoC5/Counter_Buzz.c **** void Counter_Buzz_SetInterruptMode(uint8 interruptsMask) 
 238:Generated_Source\PSoC5/Counter_Buzz.c **** {
 245              		.loc 1 238 0
 246              		.cfi_startproc
 247              		@ args = 0, pretend = 0, frame = 8
 248              		@ frame_needed = 1, uses_anonymous_args = 0
 249              		@ link register save eliminated.
 250 0000 80B4     		push	{r7}
 251              		.cfi_def_cfa_offset 4
 252              		.cfi_offset 7, -4
 253 0002 83B0     		sub	sp, sp, #12
 254              		.cfi_def_cfa_offset 16
 255 0004 00AF     		add	r7, sp, #0
 256              		.cfi_def_cfa_register 7
 257 0006 0346     		mov	r3, r0
 258 0008 FB71     		strb	r3, [r7, #7]
 239:Generated_Source\PSoC5/Counter_Buzz.c ****     Counter_Buzz_STATUS_MASK = interruptsMask;
 259              		.loc 1 239 0
 260 000a 044A     		ldr	r2, .L15
 261 000c FB79     		ldrb	r3, [r7, #7]
 262 000e 1370     		strb	r3, [r2]
 240:Generated_Source\PSoC5/Counter_Buzz.c **** }
 263              		.loc 1 240 0
 264 0010 0C37     		adds	r7, r7, #12
 265              		.cfi_def_cfa_offset 4
 266 0012 BD46     		mov	sp, r7
 267              		.cfi_def_cfa_register 13
 268              		@ sp needed
 269 0014 5DF8047B 		ldr	r7, [sp], #4
 270              		.cfi_restore 7
 271              		.cfi_def_cfa_offset 0
 272 0018 7047     		bx	lr
 273              	.L16:
ARM GAS  C:\Users\KJA\AppData\Local\Temp\ccU0rzrs.s 			page 10


 274 001a 00BF     		.align	2
 275              	.L15:
 276 001c 87650040 		.word	1073767815
 277              		.cfi_endproc
 278              	.LFE4:
 279              		.size	Counter_Buzz_SetInterruptMode, .-Counter_Buzz_SetInterruptMode
 280              		.section	.text.Counter_Buzz_ReadStatusRegister,"ax",%progbits
 281              		.align	2
 282              		.global	Counter_Buzz_ReadStatusRegister
 283              		.thumb
 284              		.thumb_func
 285              		.type	Counter_Buzz_ReadStatusRegister, %function
 286              	Counter_Buzz_ReadStatusRegister:
 287              	.LFB5:
 241:Generated_Source\PSoC5/Counter_Buzz.c **** 
 242:Generated_Source\PSoC5/Counter_Buzz.c **** 
 243:Generated_Source\PSoC5/Counter_Buzz.c **** /*******************************************************************************
 244:Generated_Source\PSoC5/Counter_Buzz.c **** * Function Name: Counter_Buzz_ReadStatusRegister
 245:Generated_Source\PSoC5/Counter_Buzz.c **** ********************************************************************************
 246:Generated_Source\PSoC5/Counter_Buzz.c **** * Summary:
 247:Generated_Source\PSoC5/Counter_Buzz.c **** *   Reads the status register and returns it's state. This function should use
 248:Generated_Source\PSoC5/Counter_Buzz.c **** *       defined types for the bit-field information as the bits in this
 249:Generated_Source\PSoC5/Counter_Buzz.c **** *       register may be permuteable.
 250:Generated_Source\PSoC5/Counter_Buzz.c **** *
 251:Generated_Source\PSoC5/Counter_Buzz.c **** * Parameters:  
 252:Generated_Source\PSoC5/Counter_Buzz.c **** *  void
 253:Generated_Source\PSoC5/Counter_Buzz.c **** *
 254:Generated_Source\PSoC5/Counter_Buzz.c **** * Return: 
 255:Generated_Source\PSoC5/Counter_Buzz.c **** *  (uint8) The contents of the status register
 256:Generated_Source\PSoC5/Counter_Buzz.c **** *
 257:Generated_Source\PSoC5/Counter_Buzz.c **** * Side Effects:
 258:Generated_Source\PSoC5/Counter_Buzz.c **** *   Status register bits may be clear on read. 
 259:Generated_Source\PSoC5/Counter_Buzz.c **** *
 260:Generated_Source\PSoC5/Counter_Buzz.c **** *******************************************************************************/
 261:Generated_Source\PSoC5/Counter_Buzz.c **** uint8   Counter_Buzz_ReadStatusRegister(void) 
 262:Generated_Source\PSoC5/Counter_Buzz.c **** {
 288              		.loc 1 262 0
 289              		.cfi_startproc
 290              		@ args = 0, pretend = 0, frame = 0
 291              		@ frame_needed = 1, uses_anonymous_args = 0
 292              		@ link register save eliminated.
 293 0000 80B4     		push	{r7}
 294              		.cfi_def_cfa_offset 4
 295              		.cfi_offset 7, -4
 296 0002 00AF     		add	r7, sp, #0
 297              		.cfi_def_cfa_register 7
 263:Generated_Source\PSoC5/Counter_Buzz.c ****     return Counter_Buzz_STATUS;
 298              		.loc 1 263 0
 299 0004 034B     		ldr	r3, .L19
 300 0006 1B78     		ldrb	r3, [r3]
 301 0008 DBB2     		uxtb	r3, r3
 264:Generated_Source\PSoC5/Counter_Buzz.c **** }
 302              		.loc 1 264 0
 303 000a 1846     		mov	r0, r3
 304 000c BD46     		mov	sp, r7
 305              		.cfi_def_cfa_register 13
 306              		@ sp needed
ARM GAS  C:\Users\KJA\AppData\Local\Temp\ccU0rzrs.s 			page 11


 307 000e 5DF8047B 		ldr	r7, [sp], #4
 308              		.cfi_restore 7
 309              		.cfi_def_cfa_offset 0
 310 0012 7047     		bx	lr
 311              	.L20:
 312              		.align	2
 313              	.L19:
 314 0014 67650040 		.word	1073767783
 315              		.cfi_endproc
 316              	.LFE5:
 317              		.size	Counter_Buzz_ReadStatusRegister, .-Counter_Buzz_ReadStatusRegister
 318              		.section	.text.Counter_Buzz_ReadControlRegister,"ax",%progbits
 319              		.align	2
 320              		.global	Counter_Buzz_ReadControlRegister
 321              		.thumb
 322              		.thumb_func
 323              		.type	Counter_Buzz_ReadControlRegister, %function
 324              	Counter_Buzz_ReadControlRegister:
 325              	.LFB6:
 265:Generated_Source\PSoC5/Counter_Buzz.c **** 
 266:Generated_Source\PSoC5/Counter_Buzz.c **** 
 267:Generated_Source\PSoC5/Counter_Buzz.c **** #if(!Counter_Buzz_ControlRegRemoved)
 268:Generated_Source\PSoC5/Counter_Buzz.c **** /*******************************************************************************
 269:Generated_Source\PSoC5/Counter_Buzz.c **** * Function Name: Counter_Buzz_ReadControlRegister
 270:Generated_Source\PSoC5/Counter_Buzz.c **** ********************************************************************************
 271:Generated_Source\PSoC5/Counter_Buzz.c **** * Summary:
 272:Generated_Source\PSoC5/Counter_Buzz.c **** *   Reads the control register and returns it's state. This function should use
 273:Generated_Source\PSoC5/Counter_Buzz.c **** *       defined types for the bit-field information as the bits in this
 274:Generated_Source\PSoC5/Counter_Buzz.c **** *       register may be permuteable.
 275:Generated_Source\PSoC5/Counter_Buzz.c **** *
 276:Generated_Source\PSoC5/Counter_Buzz.c **** * Parameters:  
 277:Generated_Source\PSoC5/Counter_Buzz.c **** *  void
 278:Generated_Source\PSoC5/Counter_Buzz.c **** *
 279:Generated_Source\PSoC5/Counter_Buzz.c **** * Return: 
 280:Generated_Source\PSoC5/Counter_Buzz.c **** *  (uint8) The contents of the control register
 281:Generated_Source\PSoC5/Counter_Buzz.c **** *
 282:Generated_Source\PSoC5/Counter_Buzz.c **** *******************************************************************************/
 283:Generated_Source\PSoC5/Counter_Buzz.c **** uint8   Counter_Buzz_ReadControlRegister(void) 
 284:Generated_Source\PSoC5/Counter_Buzz.c **** {
 326              		.loc 1 284 0
 327              		.cfi_startproc
 328              		@ args = 0, pretend = 0, frame = 0
 329              		@ frame_needed = 1, uses_anonymous_args = 0
 330              		@ link register save eliminated.
 331 0000 80B4     		push	{r7}
 332              		.cfi_def_cfa_offset 4
 333              		.cfi_offset 7, -4
 334 0002 00AF     		add	r7, sp, #0
 335              		.cfi_def_cfa_register 7
 285:Generated_Source\PSoC5/Counter_Buzz.c ****     return Counter_Buzz_CONTROL;
 336              		.loc 1 285 0
 337 0004 034B     		ldr	r3, .L23
 338 0006 1B78     		ldrb	r3, [r3]
 339 0008 DBB2     		uxtb	r3, r3
 286:Generated_Source\PSoC5/Counter_Buzz.c **** }
 340              		.loc 1 286 0
 341 000a 1846     		mov	r0, r3
ARM GAS  C:\Users\KJA\AppData\Local\Temp\ccU0rzrs.s 			page 12


 342 000c BD46     		mov	sp, r7
 343              		.cfi_def_cfa_register 13
 344              		@ sp needed
 345 000e 5DF8047B 		ldr	r7, [sp], #4
 346              		.cfi_restore 7
 347              		.cfi_def_cfa_offset 0
 348 0012 7047     		bx	lr
 349              	.L24:
 350              		.align	2
 351              	.L23:
 352 0014 75650040 		.word	1073767797
 353              		.cfi_endproc
 354              	.LFE6:
 355              		.size	Counter_Buzz_ReadControlRegister, .-Counter_Buzz_ReadControlRegister
 356              		.section	.text.Counter_Buzz_WriteControlRegister,"ax",%progbits
 357              		.align	2
 358              		.global	Counter_Buzz_WriteControlRegister
 359              		.thumb
 360              		.thumb_func
 361              		.type	Counter_Buzz_WriteControlRegister, %function
 362              	Counter_Buzz_WriteControlRegister:
 363              	.LFB7:
 287:Generated_Source\PSoC5/Counter_Buzz.c **** 
 288:Generated_Source\PSoC5/Counter_Buzz.c **** 
 289:Generated_Source\PSoC5/Counter_Buzz.c **** /*******************************************************************************
 290:Generated_Source\PSoC5/Counter_Buzz.c **** * Function Name: Counter_Buzz_WriteControlRegister
 291:Generated_Source\PSoC5/Counter_Buzz.c **** ********************************************************************************
 292:Generated_Source\PSoC5/Counter_Buzz.c **** * Summary:
 293:Generated_Source\PSoC5/Counter_Buzz.c **** *   Sets the bit-field of the control register.  This function should use
 294:Generated_Source\PSoC5/Counter_Buzz.c **** *       defined types for the bit-field information as the bits in this
 295:Generated_Source\PSoC5/Counter_Buzz.c **** *       register may be permuteable.
 296:Generated_Source\PSoC5/Counter_Buzz.c **** *
 297:Generated_Source\PSoC5/Counter_Buzz.c **** * Parameters:  
 298:Generated_Source\PSoC5/Counter_Buzz.c **** *  void
 299:Generated_Source\PSoC5/Counter_Buzz.c **** *
 300:Generated_Source\PSoC5/Counter_Buzz.c **** * Return: 
 301:Generated_Source\PSoC5/Counter_Buzz.c **** *  (uint8) The contents of the control register
 302:Generated_Source\PSoC5/Counter_Buzz.c **** *
 303:Generated_Source\PSoC5/Counter_Buzz.c **** *******************************************************************************/
 304:Generated_Source\PSoC5/Counter_Buzz.c **** void    Counter_Buzz_WriteControlRegister(uint8 control) 
 305:Generated_Source\PSoC5/Counter_Buzz.c **** {
 364              		.loc 1 305 0
 365              		.cfi_startproc
 366              		@ args = 0, pretend = 0, frame = 8
 367              		@ frame_needed = 1, uses_anonymous_args = 0
 368              		@ link register save eliminated.
 369 0000 80B4     		push	{r7}
 370              		.cfi_def_cfa_offset 4
 371              		.cfi_offset 7, -4
 372 0002 83B0     		sub	sp, sp, #12
 373              		.cfi_def_cfa_offset 16
 374 0004 00AF     		add	r7, sp, #0
 375              		.cfi_def_cfa_register 7
 376 0006 0346     		mov	r3, r0
 377 0008 FB71     		strb	r3, [r7, #7]
 306:Generated_Source\PSoC5/Counter_Buzz.c ****     Counter_Buzz_CONTROL = control;
 378              		.loc 1 306 0
ARM GAS  C:\Users\KJA\AppData\Local\Temp\ccU0rzrs.s 			page 13


 379 000a 044A     		ldr	r2, .L26
 380 000c FB79     		ldrb	r3, [r7, #7]
 381 000e 1370     		strb	r3, [r2]
 307:Generated_Source\PSoC5/Counter_Buzz.c **** }
 382              		.loc 1 307 0
 383 0010 0C37     		adds	r7, r7, #12
 384              		.cfi_def_cfa_offset 4
 385 0012 BD46     		mov	sp, r7
 386              		.cfi_def_cfa_register 13
 387              		@ sp needed
 388 0014 5DF8047B 		ldr	r7, [sp], #4
 389              		.cfi_restore 7
 390              		.cfi_def_cfa_offset 0
 391 0018 7047     		bx	lr
 392              	.L27:
 393 001a 00BF     		.align	2
 394              	.L26:
 395 001c 75650040 		.word	1073767797
 396              		.cfi_endproc
 397              	.LFE7:
 398              		.size	Counter_Buzz_WriteControlRegister, .-Counter_Buzz_WriteControlRegister
 399              		.section	.text.Counter_Buzz_WriteCounter,"ax",%progbits
 400              		.align	2
 401              		.global	Counter_Buzz_WriteCounter
 402              		.thumb
 403              		.thumb_func
 404              		.type	Counter_Buzz_WriteCounter, %function
 405              	Counter_Buzz_WriteCounter:
 406              	.LFB8:
 308:Generated_Source\PSoC5/Counter_Buzz.c **** 
 309:Generated_Source\PSoC5/Counter_Buzz.c **** #endif  /* (!Counter_Buzz_ControlRegRemoved) */
 310:Generated_Source\PSoC5/Counter_Buzz.c **** 
 311:Generated_Source\PSoC5/Counter_Buzz.c **** 
 312:Generated_Source\PSoC5/Counter_Buzz.c **** #if (!(Counter_Buzz_UsingFixedFunction && (CY_PSOC5A)))
 313:Generated_Source\PSoC5/Counter_Buzz.c **** /*******************************************************************************
 314:Generated_Source\PSoC5/Counter_Buzz.c **** * Function Name: Counter_Buzz_WriteCounter
 315:Generated_Source\PSoC5/Counter_Buzz.c **** ********************************************************************************
 316:Generated_Source\PSoC5/Counter_Buzz.c **** * Summary:
 317:Generated_Source\PSoC5/Counter_Buzz.c **** *   This funtion is used to set the counter to a specific value
 318:Generated_Source\PSoC5/Counter_Buzz.c **** *
 319:Generated_Source\PSoC5/Counter_Buzz.c **** * Parameters:  
 320:Generated_Source\PSoC5/Counter_Buzz.c **** *  counter:  New counter value. 
 321:Generated_Source\PSoC5/Counter_Buzz.c **** *
 322:Generated_Source\PSoC5/Counter_Buzz.c **** * Return: 
 323:Generated_Source\PSoC5/Counter_Buzz.c **** *  void 
 324:Generated_Source\PSoC5/Counter_Buzz.c **** *
 325:Generated_Source\PSoC5/Counter_Buzz.c **** *******************************************************************************/
 326:Generated_Source\PSoC5/Counter_Buzz.c **** void Counter_Buzz_WriteCounter(uint32 counter) \
 327:Generated_Source\PSoC5/Counter_Buzz.c ****                                    
 328:Generated_Source\PSoC5/Counter_Buzz.c **** {
 407              		.loc 1 328 0
 408              		.cfi_startproc
 409              		@ args = 0, pretend = 0, frame = 8
 410              		@ frame_needed = 1, uses_anonymous_args = 0
 411              		@ link register save eliminated.
 412 0000 80B4     		push	{r7}
 413              		.cfi_def_cfa_offset 4
ARM GAS  C:\Users\KJA\AppData\Local\Temp\ccU0rzrs.s 			page 14


 414              		.cfi_offset 7, -4
 415 0002 83B0     		sub	sp, sp, #12
 416              		.cfi_def_cfa_offset 16
 417 0004 00AF     		add	r7, sp, #0
 418              		.cfi_def_cfa_register 7
 419 0006 7860     		str	r0, [r7, #4]
 329:Generated_Source\PSoC5/Counter_Buzz.c ****     #if(Counter_Buzz_UsingFixedFunction)
 330:Generated_Source\PSoC5/Counter_Buzz.c ****         /* assert if block is already enabled */
 331:Generated_Source\PSoC5/Counter_Buzz.c ****         CYASSERT (0u == (Counter_Buzz_GLOBAL_ENABLE & Counter_Buzz_BLOCK_EN_MASK));
 332:Generated_Source\PSoC5/Counter_Buzz.c ****         /* If block is disabled, enable it and then write the counter */
 333:Generated_Source\PSoC5/Counter_Buzz.c ****         Counter_Buzz_GLOBAL_ENABLE |= Counter_Buzz_BLOCK_EN_MASK;
 334:Generated_Source\PSoC5/Counter_Buzz.c ****         CY_SET_REG16(Counter_Buzz_COUNTER_LSB_PTR, (uint16)counter);
 335:Generated_Source\PSoC5/Counter_Buzz.c ****         Counter_Buzz_GLOBAL_ENABLE &= ((uint8)(~Counter_Buzz_BLOCK_EN_MASK));
 336:Generated_Source\PSoC5/Counter_Buzz.c ****     #else
 337:Generated_Source\PSoC5/Counter_Buzz.c ****         CY_SET_REG32(Counter_Buzz_COUNTER_LSB_PTR, counter);
 420              		.loc 1 337 0
 421 0008 034A     		ldr	r2, .L29
 422 000a 7B68     		ldr	r3, [r7, #4]
 423 000c 1360     		str	r3, [r2]
 338:Generated_Source\PSoC5/Counter_Buzz.c ****     #endif /* (Counter_Buzz_UsingFixedFunction) */
 339:Generated_Source\PSoC5/Counter_Buzz.c **** }
 424              		.loc 1 339 0
 425 000e 0C37     		adds	r7, r7, #12
 426              		.cfi_def_cfa_offset 4
 427 0010 BD46     		mov	sp, r7
 428              		.cfi_def_cfa_register 13
 429              		@ sp needed
 430 0012 5DF8047B 		ldr	r7, [sp], #4
 431              		.cfi_restore 7
 432              		.cfi_def_cfa_offset 0
 433 0016 7047     		bx	lr
 434              	.L30:
 435              		.align	2
 436              	.L29:
 437 0018 04650040 		.word	1073767684
 438              		.cfi_endproc
 439              	.LFE8:
 440              		.size	Counter_Buzz_WriteCounter, .-Counter_Buzz_WriteCounter
 441              		.section	.text.Counter_Buzz_ReadCounter,"ax",%progbits
 442              		.align	2
 443              		.global	Counter_Buzz_ReadCounter
 444              		.thumb
 445              		.thumb_func
 446              		.type	Counter_Buzz_ReadCounter, %function
 447              	Counter_Buzz_ReadCounter:
 448              	.LFB9:
 340:Generated_Source\PSoC5/Counter_Buzz.c **** #endif /* (!(Counter_Buzz_UsingFixedFunction && (CY_PSOC5A))) */
 341:Generated_Source\PSoC5/Counter_Buzz.c **** 
 342:Generated_Source\PSoC5/Counter_Buzz.c **** 
 343:Generated_Source\PSoC5/Counter_Buzz.c **** /*******************************************************************************
 344:Generated_Source\PSoC5/Counter_Buzz.c **** * Function Name: Counter_Buzz_ReadCounter
 345:Generated_Source\PSoC5/Counter_Buzz.c **** ********************************************************************************
 346:Generated_Source\PSoC5/Counter_Buzz.c **** * Summary:
 347:Generated_Source\PSoC5/Counter_Buzz.c **** * Returns the current value of the counter.  It doesn't matter
 348:Generated_Source\PSoC5/Counter_Buzz.c **** * if the counter is enabled or running.
 349:Generated_Source\PSoC5/Counter_Buzz.c **** *
 350:Generated_Source\PSoC5/Counter_Buzz.c **** * Parameters:  
ARM GAS  C:\Users\KJA\AppData\Local\Temp\ccU0rzrs.s 			page 15


 351:Generated_Source\PSoC5/Counter_Buzz.c **** *  void:  
 352:Generated_Source\PSoC5/Counter_Buzz.c **** *
 353:Generated_Source\PSoC5/Counter_Buzz.c **** * Return: 
 354:Generated_Source\PSoC5/Counter_Buzz.c **** *  (uint32) The present value of the counter.
 355:Generated_Source\PSoC5/Counter_Buzz.c **** *
 356:Generated_Source\PSoC5/Counter_Buzz.c **** *******************************************************************************/
 357:Generated_Source\PSoC5/Counter_Buzz.c **** uint32 Counter_Buzz_ReadCounter(void) 
 358:Generated_Source\PSoC5/Counter_Buzz.c **** {
 449              		.loc 1 358 0
 450              		.cfi_startproc
 451              		@ args = 0, pretend = 0, frame = 0
 452              		@ frame_needed = 1, uses_anonymous_args = 0
 453              		@ link register save eliminated.
 454 0000 80B4     		push	{r7}
 455              		.cfi_def_cfa_offset 4
 456              		.cfi_offset 7, -4
 457 0002 00AF     		add	r7, sp, #0
 458              		.cfi_def_cfa_register 7
 359:Generated_Source\PSoC5/Counter_Buzz.c ****     /* Force capture by reading Accumulator */
 360:Generated_Source\PSoC5/Counter_Buzz.c ****     /* Must first do a software capture to be able to read the counter */
 361:Generated_Source\PSoC5/Counter_Buzz.c ****     /* It is up to the user code to make sure there isn't already captured data in the FIFO */
 362:Generated_Source\PSoC5/Counter_Buzz.c ****     #if(Counter_Buzz_UsingFixedFunction)
 363:Generated_Source\PSoC5/Counter_Buzz.c **** 		(void)CY_GET_REG16(Counter_Buzz_COUNTER_LSB_PTR);
 364:Generated_Source\PSoC5/Counter_Buzz.c **** 	#else
 365:Generated_Source\PSoC5/Counter_Buzz.c **** 		(void)CY_GET_REG8(Counter_Buzz_COUNTER_LSB_PTR_8BIT);
 459              		.loc 1 365 0
 460 0004 044B     		ldr	r3, .L33
 461 0006 1B78     		ldrb	r3, [r3]
 366:Generated_Source\PSoC5/Counter_Buzz.c **** 	#endif/* (Counter_Buzz_UsingFixedFunction) */
 367:Generated_Source\PSoC5/Counter_Buzz.c ****     
 368:Generated_Source\PSoC5/Counter_Buzz.c ****     /* Read the data from the FIFO (or capture register for Fixed Function)*/
 369:Generated_Source\PSoC5/Counter_Buzz.c ****     #if(Counter_Buzz_UsingFixedFunction)
 370:Generated_Source\PSoC5/Counter_Buzz.c ****         return ((uint32)CY_GET_REG16(Counter_Buzz_STATICCOUNT_LSB_PTR));
 371:Generated_Source\PSoC5/Counter_Buzz.c ****     #else
 372:Generated_Source\PSoC5/Counter_Buzz.c ****         return (CY_GET_REG32(Counter_Buzz_STATICCOUNT_LSB_PTR));
 462              		.loc 1 372 0
 463 0008 044B     		ldr	r3, .L33+4
 464 000a 1B68     		ldr	r3, [r3]
 373:Generated_Source\PSoC5/Counter_Buzz.c ****     #endif /* (Counter_Buzz_UsingFixedFunction) */
 374:Generated_Source\PSoC5/Counter_Buzz.c **** }
 465              		.loc 1 374 0
 466 000c 1846     		mov	r0, r3
 467 000e BD46     		mov	sp, r7
 468              		.cfi_def_cfa_register 13
 469              		@ sp needed
 470 0010 5DF8047B 		ldr	r7, [sp], #4
 471              		.cfi_restore 7
 472              		.cfi_def_cfa_offset 0
 473 0014 7047     		bx	lr
 474              	.L34:
 475 0016 00BF     		.align	2
 476              	.L33:
 477 0018 04650040 		.word	1073767684
 478 001c 44650040 		.word	1073767748
 479              		.cfi_endproc
 480              	.LFE9:
 481              		.size	Counter_Buzz_ReadCounter, .-Counter_Buzz_ReadCounter
ARM GAS  C:\Users\KJA\AppData\Local\Temp\ccU0rzrs.s 			page 16


 482              		.section	.text.Counter_Buzz_ReadCapture,"ax",%progbits
 483              		.align	2
 484              		.global	Counter_Buzz_ReadCapture
 485              		.thumb
 486              		.thumb_func
 487              		.type	Counter_Buzz_ReadCapture, %function
 488              	Counter_Buzz_ReadCapture:
 489              	.LFB10:
 375:Generated_Source\PSoC5/Counter_Buzz.c **** 
 376:Generated_Source\PSoC5/Counter_Buzz.c **** 
 377:Generated_Source\PSoC5/Counter_Buzz.c **** /*******************************************************************************
 378:Generated_Source\PSoC5/Counter_Buzz.c **** * Function Name: Counter_Buzz_ReadCapture
 379:Generated_Source\PSoC5/Counter_Buzz.c **** ********************************************************************************
 380:Generated_Source\PSoC5/Counter_Buzz.c **** * Summary:
 381:Generated_Source\PSoC5/Counter_Buzz.c **** *   This function returns the last value captured.
 382:Generated_Source\PSoC5/Counter_Buzz.c **** *
 383:Generated_Source\PSoC5/Counter_Buzz.c **** * Parameters:  
 384:Generated_Source\PSoC5/Counter_Buzz.c **** *  void
 385:Generated_Source\PSoC5/Counter_Buzz.c **** *
 386:Generated_Source\PSoC5/Counter_Buzz.c **** * Return: 
 387:Generated_Source\PSoC5/Counter_Buzz.c **** *  (uint32) Present Capture value.
 388:Generated_Source\PSoC5/Counter_Buzz.c **** *
 389:Generated_Source\PSoC5/Counter_Buzz.c **** *******************************************************************************/
 390:Generated_Source\PSoC5/Counter_Buzz.c **** uint32 Counter_Buzz_ReadCapture(void) 
 391:Generated_Source\PSoC5/Counter_Buzz.c **** {
 490              		.loc 1 391 0
 491              		.cfi_startproc
 492              		@ args = 0, pretend = 0, frame = 0
 493              		@ frame_needed = 1, uses_anonymous_args = 0
 494              		@ link register save eliminated.
 495 0000 80B4     		push	{r7}
 496              		.cfi_def_cfa_offset 4
 497              		.cfi_offset 7, -4
 498 0002 00AF     		add	r7, sp, #0
 499              		.cfi_def_cfa_register 7
 392:Generated_Source\PSoC5/Counter_Buzz.c ****     #if(Counter_Buzz_UsingFixedFunction)
 393:Generated_Source\PSoC5/Counter_Buzz.c ****         return ((uint32)CY_GET_REG16(Counter_Buzz_STATICCOUNT_LSB_PTR));
 394:Generated_Source\PSoC5/Counter_Buzz.c ****     #else
 395:Generated_Source\PSoC5/Counter_Buzz.c ****         return (CY_GET_REG32(Counter_Buzz_STATICCOUNT_LSB_PTR));
 500              		.loc 1 395 0
 501 0004 034B     		ldr	r3, .L37
 502 0006 1B68     		ldr	r3, [r3]
 396:Generated_Source\PSoC5/Counter_Buzz.c ****     #endif /* (Counter_Buzz_UsingFixedFunction) */
 397:Generated_Source\PSoC5/Counter_Buzz.c **** }
 503              		.loc 1 397 0
 504 0008 1846     		mov	r0, r3
 505 000a BD46     		mov	sp, r7
 506              		.cfi_def_cfa_register 13
 507              		@ sp needed
 508 000c 5DF8047B 		ldr	r7, [sp], #4
 509              		.cfi_restore 7
 510              		.cfi_def_cfa_offset 0
 511 0010 7047     		bx	lr
 512              	.L38:
 513 0012 00BF     		.align	2
 514              	.L37:
 515 0014 44650040 		.word	1073767748
ARM GAS  C:\Users\KJA\AppData\Local\Temp\ccU0rzrs.s 			page 17


 516              		.cfi_endproc
 517              	.LFE10:
 518              		.size	Counter_Buzz_ReadCapture, .-Counter_Buzz_ReadCapture
 519              		.section	.text.Counter_Buzz_WritePeriod,"ax",%progbits
 520              		.align	2
 521              		.global	Counter_Buzz_WritePeriod
 522              		.thumb
 523              		.thumb_func
 524              		.type	Counter_Buzz_WritePeriod, %function
 525              	Counter_Buzz_WritePeriod:
 526              	.LFB11:
 398:Generated_Source\PSoC5/Counter_Buzz.c **** 
 399:Generated_Source\PSoC5/Counter_Buzz.c **** 
 400:Generated_Source\PSoC5/Counter_Buzz.c **** /*******************************************************************************
 401:Generated_Source\PSoC5/Counter_Buzz.c **** * Function Name: Counter_Buzz_WritePeriod
 402:Generated_Source\PSoC5/Counter_Buzz.c **** ********************************************************************************
 403:Generated_Source\PSoC5/Counter_Buzz.c **** * Summary:
 404:Generated_Source\PSoC5/Counter_Buzz.c **** * Changes the period of the counter.  The new period 
 405:Generated_Source\PSoC5/Counter_Buzz.c **** * will be loaded the next time terminal count is detected.
 406:Generated_Source\PSoC5/Counter_Buzz.c **** *
 407:Generated_Source\PSoC5/Counter_Buzz.c **** * Parameters:  
 408:Generated_Source\PSoC5/Counter_Buzz.c **** *  period: (uint32) A value of 0 will result in
 409:Generated_Source\PSoC5/Counter_Buzz.c **** *         the counter remaining at zero.  
 410:Generated_Source\PSoC5/Counter_Buzz.c **** *
 411:Generated_Source\PSoC5/Counter_Buzz.c **** * Return: 
 412:Generated_Source\PSoC5/Counter_Buzz.c **** *  void
 413:Generated_Source\PSoC5/Counter_Buzz.c **** *
 414:Generated_Source\PSoC5/Counter_Buzz.c **** *******************************************************************************/
 415:Generated_Source\PSoC5/Counter_Buzz.c **** void Counter_Buzz_WritePeriod(uint32 period) 
 416:Generated_Source\PSoC5/Counter_Buzz.c **** {
 527              		.loc 1 416 0
 528              		.cfi_startproc
 529              		@ args = 0, pretend = 0, frame = 8
 530              		@ frame_needed = 1, uses_anonymous_args = 0
 531              		@ link register save eliminated.
 532 0000 80B4     		push	{r7}
 533              		.cfi_def_cfa_offset 4
 534              		.cfi_offset 7, -4
 535 0002 83B0     		sub	sp, sp, #12
 536              		.cfi_def_cfa_offset 16
 537 0004 00AF     		add	r7, sp, #0
 538              		.cfi_def_cfa_register 7
 539 0006 7860     		str	r0, [r7, #4]
 417:Generated_Source\PSoC5/Counter_Buzz.c ****     #if(Counter_Buzz_UsingFixedFunction)
 418:Generated_Source\PSoC5/Counter_Buzz.c ****         CY_SET_REG16(Counter_Buzz_PERIOD_LSB_PTR,(uint16)period);
 419:Generated_Source\PSoC5/Counter_Buzz.c ****     #else
 420:Generated_Source\PSoC5/Counter_Buzz.c ****         CY_SET_REG32(Counter_Buzz_PERIOD_LSB_PTR, period);
 540              		.loc 1 420 0
 541 0008 034A     		ldr	r2, .L40
 542 000a 7B68     		ldr	r3, [r7, #4]
 543 000c 1360     		str	r3, [r2]
 421:Generated_Source\PSoC5/Counter_Buzz.c ****     #endif /* (Counter_Buzz_UsingFixedFunction) */
 422:Generated_Source\PSoC5/Counter_Buzz.c **** }
 544              		.loc 1 422 0
 545 000e 0C37     		adds	r7, r7, #12
 546              		.cfi_def_cfa_offset 4
 547 0010 BD46     		mov	sp, r7
ARM GAS  C:\Users\KJA\AppData\Local\Temp\ccU0rzrs.s 			page 18


 548              		.cfi_def_cfa_register 13
 549              		@ sp needed
 550 0012 5DF8047B 		ldr	r7, [sp], #4
 551              		.cfi_restore 7
 552              		.cfi_def_cfa_offset 0
 553 0016 7047     		bx	lr
 554              	.L41:
 555              		.align	2
 556              	.L40:
 557 0018 24650040 		.word	1073767716
 558              		.cfi_endproc
 559              	.LFE11:
 560              		.size	Counter_Buzz_WritePeriod, .-Counter_Buzz_WritePeriod
 561              		.section	.text.Counter_Buzz_ReadPeriod,"ax",%progbits
 562              		.align	2
 563              		.global	Counter_Buzz_ReadPeriod
 564              		.thumb
 565              		.thumb_func
 566              		.type	Counter_Buzz_ReadPeriod, %function
 567              	Counter_Buzz_ReadPeriod:
 568              	.LFB12:
 423:Generated_Source\PSoC5/Counter_Buzz.c **** 
 424:Generated_Source\PSoC5/Counter_Buzz.c **** 
 425:Generated_Source\PSoC5/Counter_Buzz.c **** /*******************************************************************************
 426:Generated_Source\PSoC5/Counter_Buzz.c **** * Function Name: Counter_Buzz_ReadPeriod
 427:Generated_Source\PSoC5/Counter_Buzz.c **** ********************************************************************************
 428:Generated_Source\PSoC5/Counter_Buzz.c **** * Summary:
 429:Generated_Source\PSoC5/Counter_Buzz.c **** * Reads the current period value without affecting counter operation.
 430:Generated_Source\PSoC5/Counter_Buzz.c **** *
 431:Generated_Source\PSoC5/Counter_Buzz.c **** * Parameters:  
 432:Generated_Source\PSoC5/Counter_Buzz.c **** *  void:  
 433:Generated_Source\PSoC5/Counter_Buzz.c **** *
 434:Generated_Source\PSoC5/Counter_Buzz.c **** * Return: 
 435:Generated_Source\PSoC5/Counter_Buzz.c **** *  (uint32) Present period value.
 436:Generated_Source\PSoC5/Counter_Buzz.c **** *
 437:Generated_Source\PSoC5/Counter_Buzz.c **** *******************************************************************************/
 438:Generated_Source\PSoC5/Counter_Buzz.c **** uint32 Counter_Buzz_ReadPeriod(void) 
 439:Generated_Source\PSoC5/Counter_Buzz.c **** {
 569              		.loc 1 439 0
 570              		.cfi_startproc
 571              		@ args = 0, pretend = 0, frame = 0
 572              		@ frame_needed = 1, uses_anonymous_args = 0
 573              		@ link register save eliminated.
 574 0000 80B4     		push	{r7}
 575              		.cfi_def_cfa_offset 4
 576              		.cfi_offset 7, -4
 577 0002 00AF     		add	r7, sp, #0
 578              		.cfi_def_cfa_register 7
 440:Generated_Source\PSoC5/Counter_Buzz.c ****     #if(Counter_Buzz_UsingFixedFunction)
 441:Generated_Source\PSoC5/Counter_Buzz.c ****         return ((uint32)CY_GET_REG16(Counter_Buzz_PERIOD_LSB_PTR));
 442:Generated_Source\PSoC5/Counter_Buzz.c ****     #else
 443:Generated_Source\PSoC5/Counter_Buzz.c ****         return (CY_GET_REG32(Counter_Buzz_PERIOD_LSB_PTR));
 579              		.loc 1 443 0
 580 0004 034B     		ldr	r3, .L44
 581 0006 1B68     		ldr	r3, [r3]
 444:Generated_Source\PSoC5/Counter_Buzz.c ****     #endif /* (Counter_Buzz_UsingFixedFunction) */
 445:Generated_Source\PSoC5/Counter_Buzz.c **** }
ARM GAS  C:\Users\KJA\AppData\Local\Temp\ccU0rzrs.s 			page 19


 582              		.loc 1 445 0
 583 0008 1846     		mov	r0, r3
 584 000a BD46     		mov	sp, r7
 585              		.cfi_def_cfa_register 13
 586              		@ sp needed
 587 000c 5DF8047B 		ldr	r7, [sp], #4
 588              		.cfi_restore 7
 589              		.cfi_def_cfa_offset 0
 590 0010 7047     		bx	lr
 591              	.L45:
 592 0012 00BF     		.align	2
 593              	.L44:
 594 0014 24650040 		.word	1073767716
 595              		.cfi_endproc
 596              	.LFE12:
 597              		.size	Counter_Buzz_ReadPeriod, .-Counter_Buzz_ReadPeriod
 598              		.section	.text.Counter_Buzz_WriteCompare,"ax",%progbits
 599              		.align	2
 600              		.global	Counter_Buzz_WriteCompare
 601              		.thumb
 602              		.thumb_func
 603              		.type	Counter_Buzz_WriteCompare, %function
 604              	Counter_Buzz_WriteCompare:
 605              	.LFB13:
 446:Generated_Source\PSoC5/Counter_Buzz.c **** 
 447:Generated_Source\PSoC5/Counter_Buzz.c **** 
 448:Generated_Source\PSoC5/Counter_Buzz.c **** #if (!Counter_Buzz_UsingFixedFunction)
 449:Generated_Source\PSoC5/Counter_Buzz.c **** /*******************************************************************************
 450:Generated_Source\PSoC5/Counter_Buzz.c **** * Function Name: Counter_Buzz_WriteCompare
 451:Generated_Source\PSoC5/Counter_Buzz.c **** ********************************************************************************
 452:Generated_Source\PSoC5/Counter_Buzz.c **** * Summary:
 453:Generated_Source\PSoC5/Counter_Buzz.c **** * Changes the compare value.  The compare output will 
 454:Generated_Source\PSoC5/Counter_Buzz.c **** * reflect the new value on the next UDB clock.  The compare output will be 
 455:Generated_Source\PSoC5/Counter_Buzz.c **** * driven high when the present counter value compares true based on the 
 456:Generated_Source\PSoC5/Counter_Buzz.c **** * configured compare mode setting. 
 457:Generated_Source\PSoC5/Counter_Buzz.c **** *
 458:Generated_Source\PSoC5/Counter_Buzz.c **** * Parameters:  
 459:Generated_Source\PSoC5/Counter_Buzz.c **** *  Compare:  New compare value. 
 460:Generated_Source\PSoC5/Counter_Buzz.c **** *
 461:Generated_Source\PSoC5/Counter_Buzz.c **** * Return: 
 462:Generated_Source\PSoC5/Counter_Buzz.c **** *  void
 463:Generated_Source\PSoC5/Counter_Buzz.c **** *
 464:Generated_Source\PSoC5/Counter_Buzz.c **** *******************************************************************************/
 465:Generated_Source\PSoC5/Counter_Buzz.c **** void Counter_Buzz_WriteCompare(uint32 compare) \
 466:Generated_Source\PSoC5/Counter_Buzz.c ****                                    
 467:Generated_Source\PSoC5/Counter_Buzz.c **** {
 606              		.loc 1 467 0
 607              		.cfi_startproc
 608              		@ args = 0, pretend = 0, frame = 8
 609              		@ frame_needed = 1, uses_anonymous_args = 0
 610              		@ link register save eliminated.
 611 0000 80B4     		push	{r7}
 612              		.cfi_def_cfa_offset 4
 613              		.cfi_offset 7, -4
 614 0002 83B0     		sub	sp, sp, #12
 615              		.cfi_def_cfa_offset 16
 616 0004 00AF     		add	r7, sp, #0
ARM GAS  C:\Users\KJA\AppData\Local\Temp\ccU0rzrs.s 			page 20


 617              		.cfi_def_cfa_register 7
 618 0006 7860     		str	r0, [r7, #4]
 468:Generated_Source\PSoC5/Counter_Buzz.c ****     #if(Counter_Buzz_UsingFixedFunction)
 469:Generated_Source\PSoC5/Counter_Buzz.c ****         CY_SET_REG16(Counter_Buzz_COMPARE_LSB_PTR, (uint16)compare);
 470:Generated_Source\PSoC5/Counter_Buzz.c ****     #else
 471:Generated_Source\PSoC5/Counter_Buzz.c ****         CY_SET_REG32(Counter_Buzz_COMPARE_LSB_PTR, compare);
 619              		.loc 1 471 0
 620 0008 034A     		ldr	r2, .L47
 621 000a 7B68     		ldr	r3, [r7, #4]
 622 000c 1360     		str	r3, [r2]
 472:Generated_Source\PSoC5/Counter_Buzz.c ****     #endif /* (Counter_Buzz_UsingFixedFunction) */
 473:Generated_Source\PSoC5/Counter_Buzz.c **** }
 623              		.loc 1 473 0
 624 000e 0C37     		adds	r7, r7, #12
 625              		.cfi_def_cfa_offset 4
 626 0010 BD46     		mov	sp, r7
 627              		.cfi_def_cfa_register 13
 628              		@ sp needed
 629 0012 5DF8047B 		ldr	r7, [sp], #4
 630              		.cfi_restore 7
 631              		.cfi_def_cfa_offset 0
 632 0016 7047     		bx	lr
 633              	.L48:
 634              		.align	2
 635              	.L47:
 636 0018 34650040 		.word	1073767732
 637              		.cfi_endproc
 638              	.LFE13:
 639              		.size	Counter_Buzz_WriteCompare, .-Counter_Buzz_WriteCompare
 640              		.section	.text.Counter_Buzz_ReadCompare,"ax",%progbits
 641              		.align	2
 642              		.global	Counter_Buzz_ReadCompare
 643              		.thumb
 644              		.thumb_func
 645              		.type	Counter_Buzz_ReadCompare, %function
 646              	Counter_Buzz_ReadCompare:
 647              	.LFB14:
 474:Generated_Source\PSoC5/Counter_Buzz.c **** 
 475:Generated_Source\PSoC5/Counter_Buzz.c **** 
 476:Generated_Source\PSoC5/Counter_Buzz.c **** /*******************************************************************************
 477:Generated_Source\PSoC5/Counter_Buzz.c **** * Function Name: Counter_Buzz_ReadCompare
 478:Generated_Source\PSoC5/Counter_Buzz.c **** ********************************************************************************
 479:Generated_Source\PSoC5/Counter_Buzz.c **** * Summary:
 480:Generated_Source\PSoC5/Counter_Buzz.c **** * Returns the compare value.
 481:Generated_Source\PSoC5/Counter_Buzz.c **** *
 482:Generated_Source\PSoC5/Counter_Buzz.c **** * Parameters:  
 483:Generated_Source\PSoC5/Counter_Buzz.c **** *  void:
 484:Generated_Source\PSoC5/Counter_Buzz.c **** *
 485:Generated_Source\PSoC5/Counter_Buzz.c **** * Return: 
 486:Generated_Source\PSoC5/Counter_Buzz.c **** *  (uint32) Present compare value.
 487:Generated_Source\PSoC5/Counter_Buzz.c **** *
 488:Generated_Source\PSoC5/Counter_Buzz.c **** *******************************************************************************/
 489:Generated_Source\PSoC5/Counter_Buzz.c **** uint32 Counter_Buzz_ReadCompare(void) 
 490:Generated_Source\PSoC5/Counter_Buzz.c **** {
 648              		.loc 1 490 0
 649              		.cfi_startproc
 650              		@ args = 0, pretend = 0, frame = 0
ARM GAS  C:\Users\KJA\AppData\Local\Temp\ccU0rzrs.s 			page 21


 651              		@ frame_needed = 1, uses_anonymous_args = 0
 652              		@ link register save eliminated.
 653 0000 80B4     		push	{r7}
 654              		.cfi_def_cfa_offset 4
 655              		.cfi_offset 7, -4
 656 0002 00AF     		add	r7, sp, #0
 657              		.cfi_def_cfa_register 7
 491:Generated_Source\PSoC5/Counter_Buzz.c ****     return (CY_GET_REG32(Counter_Buzz_COMPARE_LSB_PTR));
 658              		.loc 1 491 0
 659 0004 034B     		ldr	r3, .L51
 660 0006 1B68     		ldr	r3, [r3]
 492:Generated_Source\PSoC5/Counter_Buzz.c **** }
 661              		.loc 1 492 0
 662 0008 1846     		mov	r0, r3
 663 000a BD46     		mov	sp, r7
 664              		.cfi_def_cfa_register 13
 665              		@ sp needed
 666 000c 5DF8047B 		ldr	r7, [sp], #4
 667              		.cfi_restore 7
 668              		.cfi_def_cfa_offset 0
 669 0010 7047     		bx	lr
 670              	.L52:
 671 0012 00BF     		.align	2
 672              	.L51:
 673 0014 34650040 		.word	1073767732
 674              		.cfi_endproc
 675              	.LFE14:
 676              		.size	Counter_Buzz_ReadCompare, .-Counter_Buzz_ReadCompare
 677              		.section	.text.Counter_Buzz_ClearFIFO,"ax",%progbits
 678              		.align	2
 679              		.global	Counter_Buzz_ClearFIFO
 680              		.thumb
 681              		.thumb_func
 682              		.type	Counter_Buzz_ClearFIFO, %function
 683              	Counter_Buzz_ClearFIFO:
 684              	.LFB15:
 493:Generated_Source\PSoC5/Counter_Buzz.c **** 
 494:Generated_Source\PSoC5/Counter_Buzz.c **** 
 495:Generated_Source\PSoC5/Counter_Buzz.c **** #if (Counter_Buzz_COMPARE_MODE_SOFTWARE)
 496:Generated_Source\PSoC5/Counter_Buzz.c **** /*******************************************************************************
 497:Generated_Source\PSoC5/Counter_Buzz.c **** * Function Name: Counter_Buzz_SetCompareMode
 498:Generated_Source\PSoC5/Counter_Buzz.c **** ********************************************************************************
 499:Generated_Source\PSoC5/Counter_Buzz.c **** * Summary:
 500:Generated_Source\PSoC5/Counter_Buzz.c **** *  Sets the software controlled Compare Mode.
 501:Generated_Source\PSoC5/Counter_Buzz.c **** *
 502:Generated_Source\PSoC5/Counter_Buzz.c **** * Parameters:
 503:Generated_Source\PSoC5/Counter_Buzz.c **** *  compareMode:  Compare Mode Enumerated Type.
 504:Generated_Source\PSoC5/Counter_Buzz.c **** *
 505:Generated_Source\PSoC5/Counter_Buzz.c **** * Return:
 506:Generated_Source\PSoC5/Counter_Buzz.c **** *  void
 507:Generated_Source\PSoC5/Counter_Buzz.c **** *
 508:Generated_Source\PSoC5/Counter_Buzz.c **** *******************************************************************************/
 509:Generated_Source\PSoC5/Counter_Buzz.c **** void Counter_Buzz_SetCompareMode(uint8 compareMode) 
 510:Generated_Source\PSoC5/Counter_Buzz.c **** {
 511:Generated_Source\PSoC5/Counter_Buzz.c ****     /* Clear the compare mode bits in the control register */
 512:Generated_Source\PSoC5/Counter_Buzz.c ****     Counter_Buzz_CONTROL &= ((uint8)(~Counter_Buzz_CTRL_CMPMODE_MASK));
 513:Generated_Source\PSoC5/Counter_Buzz.c ****     
ARM GAS  C:\Users\KJA\AppData\Local\Temp\ccU0rzrs.s 			page 22


 514:Generated_Source\PSoC5/Counter_Buzz.c ****     /* Write the new setting */
 515:Generated_Source\PSoC5/Counter_Buzz.c ****     Counter_Buzz_CONTROL |= compareMode;
 516:Generated_Source\PSoC5/Counter_Buzz.c **** }
 517:Generated_Source\PSoC5/Counter_Buzz.c **** #endif  /* (Counter_Buzz_COMPARE_MODE_SOFTWARE) */
 518:Generated_Source\PSoC5/Counter_Buzz.c **** 
 519:Generated_Source\PSoC5/Counter_Buzz.c **** 
 520:Generated_Source\PSoC5/Counter_Buzz.c **** #if (Counter_Buzz_CAPTURE_MODE_SOFTWARE)
 521:Generated_Source\PSoC5/Counter_Buzz.c **** /*******************************************************************************
 522:Generated_Source\PSoC5/Counter_Buzz.c **** * Function Name: Counter_Buzz_SetCaptureMode
 523:Generated_Source\PSoC5/Counter_Buzz.c **** ********************************************************************************
 524:Generated_Source\PSoC5/Counter_Buzz.c **** * Summary:
 525:Generated_Source\PSoC5/Counter_Buzz.c **** *  Sets the software controlled Capture Mode.
 526:Generated_Source\PSoC5/Counter_Buzz.c **** *
 527:Generated_Source\PSoC5/Counter_Buzz.c **** * Parameters:
 528:Generated_Source\PSoC5/Counter_Buzz.c **** *  captureMode:  Capture Mode Enumerated Type.
 529:Generated_Source\PSoC5/Counter_Buzz.c **** *
 530:Generated_Source\PSoC5/Counter_Buzz.c **** * Return:
 531:Generated_Source\PSoC5/Counter_Buzz.c **** *  void
 532:Generated_Source\PSoC5/Counter_Buzz.c **** *
 533:Generated_Source\PSoC5/Counter_Buzz.c **** *******************************************************************************/
 534:Generated_Source\PSoC5/Counter_Buzz.c **** void Counter_Buzz_SetCaptureMode(uint8 captureMode) 
 535:Generated_Source\PSoC5/Counter_Buzz.c **** {
 536:Generated_Source\PSoC5/Counter_Buzz.c ****     /* Clear the capture mode bits in the control register */
 537:Generated_Source\PSoC5/Counter_Buzz.c ****     Counter_Buzz_CONTROL &= ((uint8)(~Counter_Buzz_CTRL_CAPMODE_MASK));
 538:Generated_Source\PSoC5/Counter_Buzz.c ****     
 539:Generated_Source\PSoC5/Counter_Buzz.c ****     /* Write the new setting */
 540:Generated_Source\PSoC5/Counter_Buzz.c ****     Counter_Buzz_CONTROL |= ((uint8)((uint8)captureMode << Counter_Buzz_CTRL_CAPMODE0_SHIFT));
 541:Generated_Source\PSoC5/Counter_Buzz.c **** }
 542:Generated_Source\PSoC5/Counter_Buzz.c **** #endif  /* (Counter_Buzz_CAPTURE_MODE_SOFTWARE) */
 543:Generated_Source\PSoC5/Counter_Buzz.c **** 
 544:Generated_Source\PSoC5/Counter_Buzz.c **** 
 545:Generated_Source\PSoC5/Counter_Buzz.c **** /*******************************************************************************
 546:Generated_Source\PSoC5/Counter_Buzz.c **** * Function Name: Counter_Buzz_ClearFIFO
 547:Generated_Source\PSoC5/Counter_Buzz.c **** ********************************************************************************
 548:Generated_Source\PSoC5/Counter_Buzz.c **** * Summary:
 549:Generated_Source\PSoC5/Counter_Buzz.c **** *   This function clears all capture data from the capture FIFO
 550:Generated_Source\PSoC5/Counter_Buzz.c **** *
 551:Generated_Source\PSoC5/Counter_Buzz.c **** * Parameters:  
 552:Generated_Source\PSoC5/Counter_Buzz.c **** *  void:
 553:Generated_Source\PSoC5/Counter_Buzz.c **** *
 554:Generated_Source\PSoC5/Counter_Buzz.c **** * Return: 
 555:Generated_Source\PSoC5/Counter_Buzz.c **** *  None
 556:Generated_Source\PSoC5/Counter_Buzz.c **** *
 557:Generated_Source\PSoC5/Counter_Buzz.c **** *******************************************************************************/
 558:Generated_Source\PSoC5/Counter_Buzz.c **** void Counter_Buzz_ClearFIFO(void) 
 559:Generated_Source\PSoC5/Counter_Buzz.c **** {
 685              		.loc 1 559 0
 686              		.cfi_startproc
 687              		@ args = 0, pretend = 0, frame = 0
 688              		@ frame_needed = 1, uses_anonymous_args = 0
 689 0000 80B5     		push	{r7, lr}
 690              		.cfi_def_cfa_offset 8
 691              		.cfi_offset 7, -8
 692              		.cfi_offset 14, -4
 693 0002 00AF     		add	r7, sp, #0
 694              		.cfi_def_cfa_register 7
 560:Generated_Source\PSoC5/Counter_Buzz.c **** 
ARM GAS  C:\Users\KJA\AppData\Local\Temp\ccU0rzrs.s 			page 23


 561:Generated_Source\PSoC5/Counter_Buzz.c ****     while(0u != (Counter_Buzz_ReadStatusRegister() & Counter_Buzz_STATUS_FIFONEMP))
 695              		.loc 1 561 0
 696 0004 01E0     		b	.L54
 697              	.L55:
 562:Generated_Source\PSoC5/Counter_Buzz.c ****     {
 563:Generated_Source\PSoC5/Counter_Buzz.c ****         (void)Counter_Buzz_ReadCapture();
 698              		.loc 1 563 0
 699 0006 FFF7FEFF 		bl	Counter_Buzz_ReadCapture
 700              	.L54:
 561:Generated_Source\PSoC5/Counter_Buzz.c ****     {
 701              		.loc 1 561 0
 702 000a FFF7FEFF 		bl	Counter_Buzz_ReadStatusRegister
 703 000e 0346     		mov	r3, r0
 704 0010 03F04003 		and	r3, r3, #64
 705 0014 002B     		cmp	r3, #0
 706 0016 F6D1     		bne	.L55
 564:Generated_Source\PSoC5/Counter_Buzz.c ****     }
 565:Generated_Source\PSoC5/Counter_Buzz.c **** 
 566:Generated_Source\PSoC5/Counter_Buzz.c **** }
 707              		.loc 1 566 0
 708 0018 80BD     		pop	{r7, pc}
 709              		.cfi_endproc
 710              	.LFE15:
 711              		.size	Counter_Buzz_ClearFIFO, .-Counter_Buzz_ClearFIFO
 712 001a 00BF     		.text
 713              	.Letext0:
 714              		.file 2 "Generated_Source\\PSoC5\\cytypes.h"