ARM GAS  C:\Users\KJA\AppData\Local\Temp\ccUU5Q8A.s 			page 1


   1              		.syntax unified
   2              		.cpu cortex-m3
   3              		.fpu softvfp
   4              		.eabi_attribute 20, 1
   5              		.eabi_attribute 21, 1
   6              		.eabi_attribute 23, 3
   7              		.eabi_attribute 24, 1
   8              		.eabi_attribute 25, 1
   9              		.eabi_attribute 26, 1
  10              		.eabi_attribute 30, 6
  11              		.eabi_attribute 34, 1
  12              		.eabi_attribute 18, 4
  13              		.thumb
  14              		.file	"Counter_Buzz_PM.c"
  15              		.text
  16              	.Ltext0:
  17              		.cfi_sections	.debug_frame
  18              		.bss
  19              		.align	2
  20              	Counter_Buzz_backup:
  21 0000 00000000 		.space	12
  21      00000000 
  21      00000000 
  22              		.section	.text.Counter_Buzz_SaveConfig,"ax",%progbits
  23              		.align	2
  24              		.global	Counter_Buzz_SaveConfig
  25              		.thumb
  26              		.thumb_func
  27              		.type	Counter_Buzz_SaveConfig, %function
  28              	Counter_Buzz_SaveConfig:
  29              	.LFB0:
  30              		.file 1 "Generated_Source\\PSoC5\\Counter_Buzz_PM.c"
   1:Generated_Source\PSoC5/Counter_Buzz_PM.c **** /*******************************************************************************
   2:Generated_Source\PSoC5/Counter_Buzz_PM.c **** * File Name: Counter_Buzz_PM.c  
   3:Generated_Source\PSoC5/Counter_Buzz_PM.c **** * Version 3.0
   4:Generated_Source\PSoC5/Counter_Buzz_PM.c **** *
   5:Generated_Source\PSoC5/Counter_Buzz_PM.c **** *  Description:
   6:Generated_Source\PSoC5/Counter_Buzz_PM.c **** *    This file provides the power management source code to API for the
   7:Generated_Source\PSoC5/Counter_Buzz_PM.c **** *    Counter.  
   8:Generated_Source\PSoC5/Counter_Buzz_PM.c **** *
   9:Generated_Source\PSoC5/Counter_Buzz_PM.c **** *   Note:
  10:Generated_Source\PSoC5/Counter_Buzz_PM.c **** *     None
  11:Generated_Source\PSoC5/Counter_Buzz_PM.c **** *
  12:Generated_Source\PSoC5/Counter_Buzz_PM.c **** ********************************************************************************
  13:Generated_Source\PSoC5/Counter_Buzz_PM.c **** * Copyright 2008-2012, Cypress Semiconductor Corporation.  All rights reserved.
  14:Generated_Source\PSoC5/Counter_Buzz_PM.c **** * You may use this file only in accordance with the license, terms, conditions, 
  15:Generated_Source\PSoC5/Counter_Buzz_PM.c **** * disclaimers, and limitations in the end user license agreement accompanying 
  16:Generated_Source\PSoC5/Counter_Buzz_PM.c **** * the software package with which this file was provided.
  17:Generated_Source\PSoC5/Counter_Buzz_PM.c **** *******************************************************************************/
  18:Generated_Source\PSoC5/Counter_Buzz_PM.c **** 
  19:Generated_Source\PSoC5/Counter_Buzz_PM.c **** #include "Counter_Buzz.h"
  20:Generated_Source\PSoC5/Counter_Buzz_PM.c **** 
  21:Generated_Source\PSoC5/Counter_Buzz_PM.c **** static Counter_Buzz_backupStruct Counter_Buzz_backup;
  22:Generated_Source\PSoC5/Counter_Buzz_PM.c **** 
  23:Generated_Source\PSoC5/Counter_Buzz_PM.c **** 
  24:Generated_Source\PSoC5/Counter_Buzz_PM.c **** /*******************************************************************************
  25:Generated_Source\PSoC5/Counter_Buzz_PM.c **** * Function Name: Counter_Buzz_SaveConfig
ARM GAS  C:\Users\KJA\AppData\Local\Temp\ccUU5Q8A.s 			page 2


  26:Generated_Source\PSoC5/Counter_Buzz_PM.c **** ********************************************************************************
  27:Generated_Source\PSoC5/Counter_Buzz_PM.c **** * Summary:
  28:Generated_Source\PSoC5/Counter_Buzz_PM.c **** *     Save the current user configuration
  29:Generated_Source\PSoC5/Counter_Buzz_PM.c **** *
  30:Generated_Source\PSoC5/Counter_Buzz_PM.c **** * Parameters:  
  31:Generated_Source\PSoC5/Counter_Buzz_PM.c **** *  void
  32:Generated_Source\PSoC5/Counter_Buzz_PM.c **** *
  33:Generated_Source\PSoC5/Counter_Buzz_PM.c **** * Return: 
  34:Generated_Source\PSoC5/Counter_Buzz_PM.c **** *  void
  35:Generated_Source\PSoC5/Counter_Buzz_PM.c **** *
  36:Generated_Source\PSoC5/Counter_Buzz_PM.c **** * Global variables:
  37:Generated_Source\PSoC5/Counter_Buzz_PM.c **** *  Counter_Buzz_backup:  Variables of this global structure are modified to 
  38:Generated_Source\PSoC5/Counter_Buzz_PM.c **** *  store the values of non retention configuration registers when Sleep() API is 
  39:Generated_Source\PSoC5/Counter_Buzz_PM.c **** *  called.
  40:Generated_Source\PSoC5/Counter_Buzz_PM.c **** *
  41:Generated_Source\PSoC5/Counter_Buzz_PM.c **** *******************************************************************************/
  42:Generated_Source\PSoC5/Counter_Buzz_PM.c **** void Counter_Buzz_SaveConfig(void) 
  43:Generated_Source\PSoC5/Counter_Buzz_PM.c **** {
  31              		.loc 1 43 0
  32              		.cfi_startproc
  33              		@ args = 0, pretend = 0, frame = 0
  34              		@ frame_needed = 1, uses_anonymous_args = 0
  35 0000 80B5     		push	{r7, lr}
  36              		.cfi_def_cfa_offset 8
  37              		.cfi_offset 7, -8
  38              		.cfi_offset 14, -4
  39 0002 00AF     		add	r7, sp, #0
  40              		.cfi_def_cfa_register 7
  44:Generated_Source\PSoC5/Counter_Buzz_PM.c ****     #if (!Counter_Buzz_UsingFixedFunction)
  45:Generated_Source\PSoC5/Counter_Buzz_PM.c **** 
  46:Generated_Source\PSoC5/Counter_Buzz_PM.c ****         Counter_Buzz_backup.CounterUdb = Counter_Buzz_ReadCounter();
  41              		.loc 1 46 0
  42 0004 FFF7FEFF 		bl	Counter_Buzz_ReadCounter
  43 0008 0246     		mov	r2, r0
  44 000a 044B     		ldr	r3, .L2
  45 000c 5A60     		str	r2, [r3, #4]
  47:Generated_Source\PSoC5/Counter_Buzz_PM.c **** 
  48:Generated_Source\PSoC5/Counter_Buzz_PM.c ****         #if(!Counter_Buzz_ControlRegRemoved)
  49:Generated_Source\PSoC5/Counter_Buzz_PM.c ****             Counter_Buzz_backup.CounterControlRegister = Counter_Buzz_ReadControlRegister();
  46              		.loc 1 49 0
  47 000e FFF7FEFF 		bl	Counter_Buzz_ReadControlRegister
  48 0012 0346     		mov	r3, r0
  49 0014 1A46     		mov	r2, r3
  50 0016 014B     		ldr	r3, .L2
  51 0018 1A72     		strb	r2, [r3, #8]
  50:Generated_Source\PSoC5/Counter_Buzz_PM.c ****         #endif /* (!Counter_Buzz_ControlRegRemoved) */
  51:Generated_Source\PSoC5/Counter_Buzz_PM.c **** 
  52:Generated_Source\PSoC5/Counter_Buzz_PM.c ****     #endif /* (!Counter_Buzz_UsingFixedFunction) */
  53:Generated_Source\PSoC5/Counter_Buzz_PM.c **** }
  52              		.loc 1 53 0
  53 001a 80BD     		pop	{r7, pc}
  54              	.L3:
  55              		.align	2
  56              	.L2:
  57 001c 00000000 		.word	Counter_Buzz_backup
  58              		.cfi_endproc
  59              	.LFE0:
ARM GAS  C:\Users\KJA\AppData\Local\Temp\ccUU5Q8A.s 			page 3


  60              		.size	Counter_Buzz_SaveConfig, .-Counter_Buzz_SaveConfig
  61              		.section	.text.Counter_Buzz_RestoreConfig,"ax",%progbits
  62              		.align	2
  63              		.global	Counter_Buzz_RestoreConfig
  64              		.thumb
  65              		.thumb_func
  66              		.type	Counter_Buzz_RestoreConfig, %function
  67              	Counter_Buzz_RestoreConfig:
  68              	.LFB1:
  54:Generated_Source\PSoC5/Counter_Buzz_PM.c **** 
  55:Generated_Source\PSoC5/Counter_Buzz_PM.c **** 
  56:Generated_Source\PSoC5/Counter_Buzz_PM.c **** /*******************************************************************************
  57:Generated_Source\PSoC5/Counter_Buzz_PM.c **** * Function Name: Counter_Buzz_RestoreConfig
  58:Generated_Source\PSoC5/Counter_Buzz_PM.c **** ********************************************************************************
  59:Generated_Source\PSoC5/Counter_Buzz_PM.c **** *
  60:Generated_Source\PSoC5/Counter_Buzz_PM.c **** * Summary:
  61:Generated_Source\PSoC5/Counter_Buzz_PM.c **** *  Restores the current user configuration.
  62:Generated_Source\PSoC5/Counter_Buzz_PM.c **** *
  63:Generated_Source\PSoC5/Counter_Buzz_PM.c **** * Parameters:  
  64:Generated_Source\PSoC5/Counter_Buzz_PM.c **** *  void
  65:Generated_Source\PSoC5/Counter_Buzz_PM.c **** *
  66:Generated_Source\PSoC5/Counter_Buzz_PM.c **** * Return: 
  67:Generated_Source\PSoC5/Counter_Buzz_PM.c **** *  void
  68:Generated_Source\PSoC5/Counter_Buzz_PM.c **** *
  69:Generated_Source\PSoC5/Counter_Buzz_PM.c **** * Global variables:
  70:Generated_Source\PSoC5/Counter_Buzz_PM.c **** *  Counter_Buzz_backup:  Variables of this global structure are used to 
  71:Generated_Source\PSoC5/Counter_Buzz_PM.c **** *  restore the values of non retention registers on wakeup from sleep mode.
  72:Generated_Source\PSoC5/Counter_Buzz_PM.c **** *
  73:Generated_Source\PSoC5/Counter_Buzz_PM.c **** *******************************************************************************/
  74:Generated_Source\PSoC5/Counter_Buzz_PM.c **** void Counter_Buzz_RestoreConfig(void) 
  75:Generated_Source\PSoC5/Counter_Buzz_PM.c **** {      
  69              		.loc 1 75 0
  70              		.cfi_startproc
  71              		@ args = 0, pretend = 0, frame = 0
  72              		@ frame_needed = 1, uses_anonymous_args = 0
  73 0000 80B5     		push	{r7, lr}
  74              		.cfi_def_cfa_offset 8
  75              		.cfi_offset 7, -8
  76              		.cfi_offset 14, -4
  77 0002 00AF     		add	r7, sp, #0
  78              		.cfi_def_cfa_register 7
  76:Generated_Source\PSoC5/Counter_Buzz_PM.c ****     #if (!Counter_Buzz_UsingFixedFunction)
  77:Generated_Source\PSoC5/Counter_Buzz_PM.c **** 
  78:Generated_Source\PSoC5/Counter_Buzz_PM.c ****        Counter_Buzz_WriteCounter(Counter_Buzz_backup.CounterUdb);
  79              		.loc 1 78 0
  80 0004 054B     		ldr	r3, .L5
  81 0006 5B68     		ldr	r3, [r3, #4]
  82 0008 1846     		mov	r0, r3
  83 000a FFF7FEFF 		bl	Counter_Buzz_WriteCounter
  79:Generated_Source\PSoC5/Counter_Buzz_PM.c **** 
  80:Generated_Source\PSoC5/Counter_Buzz_PM.c ****         #if(!Counter_Buzz_ControlRegRemoved)
  81:Generated_Source\PSoC5/Counter_Buzz_PM.c ****             Counter_Buzz_WriteControlRegister(Counter_Buzz_backup.CounterControlRegister);
  84              		.loc 1 81 0
  85 000e 034B     		ldr	r3, .L5
  86 0010 1B7A     		ldrb	r3, [r3, #8]	@ zero_extendqisi2
  87 0012 1846     		mov	r0, r3
  88 0014 FFF7FEFF 		bl	Counter_Buzz_WriteControlRegister
ARM GAS  C:\Users\KJA\AppData\Local\Temp\ccUU5Q8A.s 			page 4


  82:Generated_Source\PSoC5/Counter_Buzz_PM.c ****         #endif /* (!Counter_Buzz_ControlRegRemoved) */
  83:Generated_Source\PSoC5/Counter_Buzz_PM.c **** 
  84:Generated_Source\PSoC5/Counter_Buzz_PM.c ****     #endif /* (!Counter_Buzz_UsingFixedFunction) */
  85:Generated_Source\PSoC5/Counter_Buzz_PM.c **** }
  89              		.loc 1 85 0
  90 0018 80BD     		pop	{r7, pc}
  91              	.L6:
  92 001a 00BF     		.align	2
  93              	.L5:
  94 001c 00000000 		.word	Counter_Buzz_backup
  95              		.cfi_endproc
  96              	.LFE1:
  97              		.size	Counter_Buzz_RestoreConfig, .-Counter_Buzz_RestoreConfig
  98              		.section	.text.Counter_Buzz_Sleep,"ax",%progbits
  99              		.align	2
 100              		.global	Counter_Buzz_Sleep
 101              		.thumb
 102              		.thumb_func
 103              		.type	Counter_Buzz_Sleep, %function
 104              	Counter_Buzz_Sleep:
 105              	.LFB2:
  86:Generated_Source\PSoC5/Counter_Buzz_PM.c **** 
  87:Generated_Source\PSoC5/Counter_Buzz_PM.c **** 
  88:Generated_Source\PSoC5/Counter_Buzz_PM.c **** /*******************************************************************************
  89:Generated_Source\PSoC5/Counter_Buzz_PM.c **** * Function Name: Counter_Buzz_Sleep
  90:Generated_Source\PSoC5/Counter_Buzz_PM.c **** ********************************************************************************
  91:Generated_Source\PSoC5/Counter_Buzz_PM.c **** * Summary:
  92:Generated_Source\PSoC5/Counter_Buzz_PM.c **** *     Stop and Save the user configuration
  93:Generated_Source\PSoC5/Counter_Buzz_PM.c **** *
  94:Generated_Source\PSoC5/Counter_Buzz_PM.c **** * Parameters:  
  95:Generated_Source\PSoC5/Counter_Buzz_PM.c **** *  void
  96:Generated_Source\PSoC5/Counter_Buzz_PM.c **** *
  97:Generated_Source\PSoC5/Counter_Buzz_PM.c **** * Return: 
  98:Generated_Source\PSoC5/Counter_Buzz_PM.c **** *  void
  99:Generated_Source\PSoC5/Counter_Buzz_PM.c **** *
 100:Generated_Source\PSoC5/Counter_Buzz_PM.c **** * Global variables:
 101:Generated_Source\PSoC5/Counter_Buzz_PM.c **** *  Counter_Buzz_backup.enableState:  Is modified depending on the enable 
 102:Generated_Source\PSoC5/Counter_Buzz_PM.c **** *  state of the block before entering sleep mode.
 103:Generated_Source\PSoC5/Counter_Buzz_PM.c **** *
 104:Generated_Source\PSoC5/Counter_Buzz_PM.c **** *******************************************************************************/
 105:Generated_Source\PSoC5/Counter_Buzz_PM.c **** void Counter_Buzz_Sleep(void) 
 106:Generated_Source\PSoC5/Counter_Buzz_PM.c **** {
 106              		.loc 1 106 0
 107              		.cfi_startproc
 108              		@ args = 0, pretend = 0, frame = 0
 109              		@ frame_needed = 1, uses_anonymous_args = 0
 110 0000 80B5     		push	{r7, lr}
 111              		.cfi_def_cfa_offset 8
 112              		.cfi_offset 7, -8
 113              		.cfi_offset 14, -4
 114 0002 00AF     		add	r7, sp, #0
 115              		.cfi_def_cfa_register 7
 107:Generated_Source\PSoC5/Counter_Buzz_PM.c ****     #if(!Counter_Buzz_ControlRegRemoved)
 108:Generated_Source\PSoC5/Counter_Buzz_PM.c ****         /* Save Counter's enable state */
 109:Generated_Source\PSoC5/Counter_Buzz_PM.c ****         if(Counter_Buzz_CTRL_ENABLE == (Counter_Buzz_CONTROL & Counter_Buzz_CTRL_ENABLE))
 116              		.loc 1 109 0
 117 0004 094B     		ldr	r3, .L10
ARM GAS  C:\Users\KJA\AppData\Local\Temp\ccUU5Q8A.s 			page 5


 118 0006 1B78     		ldrb	r3, [r3]
 119 0008 DBB2     		uxtb	r3, r3
 120 000a DBB2     		uxtb	r3, r3
 121 000c 5BB2     		sxtb	r3, r3
 122 000e 002B     		cmp	r3, #0
 123 0010 03DA     		bge	.L8
 110:Generated_Source\PSoC5/Counter_Buzz_PM.c ****         {
 111:Generated_Source\PSoC5/Counter_Buzz_PM.c ****             /* Counter is enabled */
 112:Generated_Source\PSoC5/Counter_Buzz_PM.c ****             Counter_Buzz_backup.CounterEnableState = 1u;
 124              		.loc 1 112 0
 125 0012 074B     		ldr	r3, .L10+4
 126 0014 0122     		movs	r2, #1
 127 0016 1A70     		strb	r2, [r3]
 128 0018 02E0     		b	.L9
 129              	.L8:
 113:Generated_Source\PSoC5/Counter_Buzz_PM.c ****         }
 114:Generated_Source\PSoC5/Counter_Buzz_PM.c ****         else
 115:Generated_Source\PSoC5/Counter_Buzz_PM.c ****         {
 116:Generated_Source\PSoC5/Counter_Buzz_PM.c ****             /* Counter is disabled */
 117:Generated_Source\PSoC5/Counter_Buzz_PM.c ****             Counter_Buzz_backup.CounterEnableState = 0u;
 130              		.loc 1 117 0
 131 001a 054B     		ldr	r3, .L10+4
 132 001c 0022     		movs	r2, #0
 133 001e 1A70     		strb	r2, [r3]
 134              	.L9:
 118:Generated_Source\PSoC5/Counter_Buzz_PM.c ****         }
 119:Generated_Source\PSoC5/Counter_Buzz_PM.c ****     #else
 120:Generated_Source\PSoC5/Counter_Buzz_PM.c ****         Counter_Buzz_backup.CounterEnableState = 1u;
 121:Generated_Source\PSoC5/Counter_Buzz_PM.c ****         if(Counter_Buzz_backup.CounterEnableState != 0u)
 122:Generated_Source\PSoC5/Counter_Buzz_PM.c ****         {
 123:Generated_Source\PSoC5/Counter_Buzz_PM.c ****             Counter_Buzz_backup.CounterEnableState = 0u;
 124:Generated_Source\PSoC5/Counter_Buzz_PM.c ****         }
 125:Generated_Source\PSoC5/Counter_Buzz_PM.c ****     #endif /* (!Counter_Buzz_ControlRegRemoved) */
 126:Generated_Source\PSoC5/Counter_Buzz_PM.c ****     
 127:Generated_Source\PSoC5/Counter_Buzz_PM.c ****     Counter_Buzz_Stop();
 135              		.loc 1 127 0
 136 0020 FFF7FEFF 		bl	Counter_Buzz_Stop
 128:Generated_Source\PSoC5/Counter_Buzz_PM.c ****     Counter_Buzz_SaveConfig();
 137              		.loc 1 128 0
 138 0024 FFF7FEFF 		bl	Counter_Buzz_SaveConfig
 129:Generated_Source\PSoC5/Counter_Buzz_PM.c **** }
 139              		.loc 1 129 0
 140 0028 80BD     		pop	{r7, pc}
 141              	.L11:
 142 002a 00BF     		.align	2
 143              	.L10:
 144 002c 75650040 		.word	1073767797
 145 0030 00000000 		.word	Counter_Buzz_backup
 146              		.cfi_endproc
 147              	.LFE2:
 148              		.size	Counter_Buzz_Sleep, .-Counter_Buzz_Sleep
 149              		.section	.text.Counter_Buzz_Wakeup,"ax",%progbits
 150              		.align	2
 151              		.global	Counter_Buzz_Wakeup
 152              		.thumb
 153              		.thumb_func
 154              		.type	Counter_Buzz_Wakeup, %function
ARM GAS  C:\Users\KJA\AppData\Local\Temp\ccUU5Q8A.s 			page 6


 155              	Counter_Buzz_Wakeup:
 156              	.LFB3:
 130:Generated_Source\PSoC5/Counter_Buzz_PM.c **** 
 131:Generated_Source\PSoC5/Counter_Buzz_PM.c **** 
 132:Generated_Source\PSoC5/Counter_Buzz_PM.c **** /*******************************************************************************
 133:Generated_Source\PSoC5/Counter_Buzz_PM.c **** * Function Name: Counter_Buzz_Wakeup
 134:Generated_Source\PSoC5/Counter_Buzz_PM.c **** ********************************************************************************
 135:Generated_Source\PSoC5/Counter_Buzz_PM.c **** *
 136:Generated_Source\PSoC5/Counter_Buzz_PM.c **** * Summary:
 137:Generated_Source\PSoC5/Counter_Buzz_PM.c **** *  Restores and enables the user configuration
 138:Generated_Source\PSoC5/Counter_Buzz_PM.c **** *  
 139:Generated_Source\PSoC5/Counter_Buzz_PM.c **** * Parameters:  
 140:Generated_Source\PSoC5/Counter_Buzz_PM.c **** *  void
 141:Generated_Source\PSoC5/Counter_Buzz_PM.c **** *
 142:Generated_Source\PSoC5/Counter_Buzz_PM.c **** * Return: 
 143:Generated_Source\PSoC5/Counter_Buzz_PM.c **** *  void
 144:Generated_Source\PSoC5/Counter_Buzz_PM.c **** *
 145:Generated_Source\PSoC5/Counter_Buzz_PM.c **** * Global variables:
 146:Generated_Source\PSoC5/Counter_Buzz_PM.c **** *  Counter_Buzz_backup.enableState:  Is used to restore the enable state of 
 147:Generated_Source\PSoC5/Counter_Buzz_PM.c **** *  block on wakeup from sleep mode.
 148:Generated_Source\PSoC5/Counter_Buzz_PM.c **** *
 149:Generated_Source\PSoC5/Counter_Buzz_PM.c **** *******************************************************************************/
 150:Generated_Source\PSoC5/Counter_Buzz_PM.c **** void Counter_Buzz_Wakeup(void) 
 151:Generated_Source\PSoC5/Counter_Buzz_PM.c **** {
 157              		.loc 1 151 0
 158              		.cfi_startproc
 159              		@ args = 0, pretend = 0, frame = 0
 160              		@ frame_needed = 1, uses_anonymous_args = 0
 161 0000 80B5     		push	{r7, lr}
 162              		.cfi_def_cfa_offset 8
 163              		.cfi_offset 7, -8
 164              		.cfi_offset 14, -4
 165 0002 00AF     		add	r7, sp, #0
 166              		.cfi_def_cfa_register 7
 152:Generated_Source\PSoC5/Counter_Buzz_PM.c ****     Counter_Buzz_RestoreConfig();
 167              		.loc 1 152 0
 168 0004 FFF7FEFF 		bl	Counter_Buzz_RestoreConfig
 153:Generated_Source\PSoC5/Counter_Buzz_PM.c ****     #if(!Counter_Buzz_ControlRegRemoved)
 154:Generated_Source\PSoC5/Counter_Buzz_PM.c ****         if(Counter_Buzz_backup.CounterEnableState == 1u)
 169              		.loc 1 154 0
 170 0008 034B     		ldr	r3, .L14
 171 000a 1B78     		ldrb	r3, [r3]	@ zero_extendqisi2
 172 000c 012B     		cmp	r3, #1
 173 000e 01D1     		bne	.L12
 155:Generated_Source\PSoC5/Counter_Buzz_PM.c ****         {
 156:Generated_Source\PSoC5/Counter_Buzz_PM.c ****             /* Enable Counter's operation */
 157:Generated_Source\PSoC5/Counter_Buzz_PM.c ****             Counter_Buzz_Enable();
 174              		.loc 1 157 0
 175 0010 FFF7FEFF 		bl	Counter_Buzz_Enable
 176              	.L12:
 158:Generated_Source\PSoC5/Counter_Buzz_PM.c ****         } /* Do nothing if Counter was disabled before */    
 159:Generated_Source\PSoC5/Counter_Buzz_PM.c ****     #endif /* (!Counter_Buzz_ControlRegRemoved) */
 160:Generated_Source\PSoC5/Counter_Buzz_PM.c ****     
 161:Generated_Source\PSoC5/Counter_Buzz_PM.c **** }
 177              		.loc 1 161 0
 178 0014 80BD     		pop	{r7, pc}
 179              	.L15:
ARM GAS  C:\Users\KJA\AppData\Local\Temp\ccUU5Q8A.s 			page 7


 180 0016 00BF     		.align	2
 181              	.L14:
 182 0018 00000000 		.word	Counter_Buzz_backup
 183              		.cfi_endproc
 184              	.LFE3:
 185              		.size	Counter_Buzz_Wakeup, .-Counter_Buzz_Wakeup
 186              		.text
 187              	.Letext0:
 188              		.file 2 "Generated_Source\\PSoC5\\cytypes.h"
 189              		.file 3 "Generated_Source\\PSoC5\\Counter_Buzz.h"