ARM GAS  C:\Users\KJA\AppData\Local\Temp\ccVQyg55.s 			page 1


   1              		.syntax unified
   2              		.cpu cortex-m3
   3              		.fpu softvfp
   4              		.eabi_attribute 20, 1
   5              		.eabi_attribute 21, 1
   6              		.eabi_attribute 23, 3
   7              		.eabi_attribute 24, 1
   8              		.eabi_attribute 25, 1
   9              		.eabi_attribute 26, 1
  10              		.eabi_attribute 30, 6
  11              		.eabi_attribute 34, 1
  12              		.eabi_attribute 18, 4
  13              		.thumb
  14              		.file	"cyfitter_cfg.c"
  15              		.text
  16              	.Ltext0:
  17              		.cfi_sections	.debug_frame
  18              		.section	.text.CYMEMZERO,"ax",%progbits
  19              		.align	2
  20              		.thumb
  21              		.thumb_func
  22              		.type	CYMEMZERO, %function
  23              	CYMEMZERO:
  24              	.LFB0:
  25              		.file 1 "Generated_Source\\PSoC5\\cyfitter_cfg.c"
   1:Generated_Source\PSoC5/cyfitter_cfg.c **** /*******************************************************************************
   2:Generated_Source\PSoC5/cyfitter_cfg.c **** * File Name: cyfitter_cfg.c
   3:Generated_Source\PSoC5/cyfitter_cfg.c **** * 
   4:Generated_Source\PSoC5/cyfitter_cfg.c **** * PSoC Creator  4.0 Update 1
   5:Generated_Source\PSoC5/cyfitter_cfg.c **** *
   6:Generated_Source\PSoC5/cyfitter_cfg.c **** * Description:
   7:Generated_Source\PSoC5/cyfitter_cfg.c **** * This file contains device initialization code.
   8:Generated_Source\PSoC5/cyfitter_cfg.c **** * Except for the user defined sections in CyClockStartupError(), this file should not be modified.
   9:Generated_Source\PSoC5/cyfitter_cfg.c **** * This file is automatically generated by PSoC Creator.
  10:Generated_Source\PSoC5/cyfitter_cfg.c **** *
  11:Generated_Source\PSoC5/cyfitter_cfg.c **** ********************************************************************************
  12:Generated_Source\PSoC5/cyfitter_cfg.c **** * Copyright (c) 2007-2016 Cypress Semiconductor.  All rights reserved.
  13:Generated_Source\PSoC5/cyfitter_cfg.c **** * You may use this file only in accordance with the license, terms, conditions, 
  14:Generated_Source\PSoC5/cyfitter_cfg.c **** * disclaimers, and limitations in the end user license agreement accompanying 
  15:Generated_Source\PSoC5/cyfitter_cfg.c **** * the software package with which this file was provided.
  16:Generated_Source\PSoC5/cyfitter_cfg.c **** ********************************************************************************/
  17:Generated_Source\PSoC5/cyfitter_cfg.c **** 
  18:Generated_Source\PSoC5/cyfitter_cfg.c **** #include <string.h>
  19:Generated_Source\PSoC5/cyfitter_cfg.c **** #include "cytypes.h"
  20:Generated_Source\PSoC5/cyfitter_cfg.c **** #include "cydevice_trm.h"
  21:Generated_Source\PSoC5/cyfitter_cfg.c **** #include "cyfitter.h"
  22:Generated_Source\PSoC5/cyfitter_cfg.c **** #include "CyLib.h"
  23:Generated_Source\PSoC5/cyfitter_cfg.c **** #include "cyfitter_cfg.h"
  24:Generated_Source\PSoC5/cyfitter_cfg.c **** #include "cyapicallbacks.h"
  25:Generated_Source\PSoC5/cyfitter_cfg.c **** 
  26:Generated_Source\PSoC5/cyfitter_cfg.c **** #define CY_NEED_CYCLOCKSTARTUPERROR 1
  27:Generated_Source\PSoC5/cyfitter_cfg.c **** 
  28:Generated_Source\PSoC5/cyfitter_cfg.c **** 
  29:Generated_Source\PSoC5/cyfitter_cfg.c **** #if defined(__GNUC__) || defined(__ARMCC_VERSION)
  30:Generated_Source\PSoC5/cyfitter_cfg.c ****     #define CYPACKED 
  31:Generated_Source\PSoC5/cyfitter_cfg.c ****     #define CYPACKED_ATTR __attribute__ ((packed))
  32:Generated_Source\PSoC5/cyfitter_cfg.c ****     #define CYALIGNED __attribute__ ((aligned))
ARM GAS  C:\Users\KJA\AppData\Local\Temp\ccVQyg55.s 			page 2


  33:Generated_Source\PSoC5/cyfitter_cfg.c ****     #define CY_CFG_UNUSED __attribute__ ((unused))
  34:Generated_Source\PSoC5/cyfitter_cfg.c ****     #ifndef CY_CFG_SECTION
  35:Generated_Source\PSoC5/cyfitter_cfg.c ****         #define CY_CFG_SECTION __attribute__ ((section(".psocinit")))
  36:Generated_Source\PSoC5/cyfitter_cfg.c ****     #endif
  37:Generated_Source\PSoC5/cyfitter_cfg.c ****     
  38:Generated_Source\PSoC5/cyfitter_cfg.c ****     #if defined(__ARMCC_VERSION)
  39:Generated_Source\PSoC5/cyfitter_cfg.c ****         #define CY_CFG_MEMORY_BARRIER() __memory_changed()
  40:Generated_Source\PSoC5/cyfitter_cfg.c ****     #else
  41:Generated_Source\PSoC5/cyfitter_cfg.c ****         #define CY_CFG_MEMORY_BARRIER() __sync_synchronize()
  42:Generated_Source\PSoC5/cyfitter_cfg.c ****     #endif
  43:Generated_Source\PSoC5/cyfitter_cfg.c ****     
  44:Generated_Source\PSoC5/cyfitter_cfg.c **** #elif defined(__ICCARM__)
  45:Generated_Source\PSoC5/cyfitter_cfg.c ****     #include <intrinsics.h>
  46:Generated_Source\PSoC5/cyfitter_cfg.c **** 
  47:Generated_Source\PSoC5/cyfitter_cfg.c ****     #define CYPACKED __packed
  48:Generated_Source\PSoC5/cyfitter_cfg.c ****     #define CYPACKED_ATTR 
  49:Generated_Source\PSoC5/cyfitter_cfg.c ****     #define CYALIGNED _Pragma("data_alignment=4")
  50:Generated_Source\PSoC5/cyfitter_cfg.c ****     #define CY_CFG_UNUSED _Pragma("diag_suppress=Pe177")
  51:Generated_Source\PSoC5/cyfitter_cfg.c ****     #define CY_CFG_SECTION _Pragma("location=\".psocinit\"")
  52:Generated_Source\PSoC5/cyfitter_cfg.c ****     
  53:Generated_Source\PSoC5/cyfitter_cfg.c ****     #define CY_CFG_MEMORY_BARRIER() __DMB()
  54:Generated_Source\PSoC5/cyfitter_cfg.c ****     
  55:Generated_Source\PSoC5/cyfitter_cfg.c **** #else
  56:Generated_Source\PSoC5/cyfitter_cfg.c ****     #error Unsupported toolchain
  57:Generated_Source\PSoC5/cyfitter_cfg.c **** #endif
  58:Generated_Source\PSoC5/cyfitter_cfg.c **** 
  59:Generated_Source\PSoC5/cyfitter_cfg.c **** 
  60:Generated_Source\PSoC5/cyfitter_cfg.c **** CY_CFG_UNUSED
  61:Generated_Source\PSoC5/cyfitter_cfg.c **** static void CYMEMZERO(void *s, size_t n);
  62:Generated_Source\PSoC5/cyfitter_cfg.c **** CY_CFG_UNUSED
  63:Generated_Source\PSoC5/cyfitter_cfg.c **** static void CYMEMZERO(void *s, size_t n)
  64:Generated_Source\PSoC5/cyfitter_cfg.c **** {
  26              		.loc 1 64 0
  27              		.cfi_startproc
  28              		@ args = 0, pretend = 0, frame = 8
  29              		@ frame_needed = 1, uses_anonymous_args = 0
  30 0000 80B5     		push	{r7, lr}
  31              		.cfi_def_cfa_offset 8
  32              		.cfi_offset 7, -8
  33              		.cfi_offset 14, -4
  34 0002 82B0     		sub	sp, sp, #8
  35              		.cfi_def_cfa_offset 16
  36 0004 00AF     		add	r7, sp, #0
  37              		.cfi_def_cfa_register 7
  38 0006 7860     		str	r0, [r7, #4]
  39 0008 3960     		str	r1, [r7]
  65:Generated_Source\PSoC5/cyfitter_cfg.c **** 	(void)memset(s, 0, n);
  40              		.loc 1 65 0
  41 000a 7868     		ldr	r0, [r7, #4]
  42 000c 0021     		movs	r1, #0
  43 000e 3A68     		ldr	r2, [r7]
  44 0010 FFF7FEFF 		bl	memset
  66:Generated_Source\PSoC5/cyfitter_cfg.c **** }
  45              		.loc 1 66 0
  46 0014 0837     		adds	r7, r7, #8
  47              		.cfi_def_cfa_offset 8
  48 0016 BD46     		mov	sp, r7
ARM GAS  C:\Users\KJA\AppData\Local\Temp\ccVQyg55.s 			page 3


  49              		.cfi_def_cfa_register 13
  50              		@ sp needed
  51 0018 80BD     		pop	{r7, pc}
  52              		.cfi_endproc
  53              	.LFE0:
  54              		.size	CYMEMZERO, .-CYMEMZERO
  55 001a 00BF     		.section	.text.CYCONFIGCPY,"ax",%progbits
  56              		.align	2
  57              		.thumb
  58              		.thumb_func
  59              		.type	CYCONFIGCPY, %function
  60              	CYCONFIGCPY:
  61              	.LFB1:
  67:Generated_Source\PSoC5/cyfitter_cfg.c **** CY_CFG_UNUSED
  68:Generated_Source\PSoC5/cyfitter_cfg.c **** static void CYCONFIGCPY(void *dest, const void *src, size_t n);
  69:Generated_Source\PSoC5/cyfitter_cfg.c **** CY_CFG_UNUSED
  70:Generated_Source\PSoC5/cyfitter_cfg.c **** static void CYCONFIGCPY(void *dest, const void *src, size_t n)
  71:Generated_Source\PSoC5/cyfitter_cfg.c **** {
  62              		.loc 1 71 0
  63              		.cfi_startproc
  64              		@ args = 0, pretend = 0, frame = 16
  65              		@ frame_needed = 1, uses_anonymous_args = 0
  66 0000 80B5     		push	{r7, lr}
  67              		.cfi_def_cfa_offset 8
  68              		.cfi_offset 7, -8
  69              		.cfi_offset 14, -4
  70 0002 84B0     		sub	sp, sp, #16
  71              		.cfi_def_cfa_offset 24
  72 0004 00AF     		add	r7, sp, #0
  73              		.cfi_def_cfa_register 7
  74 0006 F860     		str	r0, [r7, #12]
  75 0008 B960     		str	r1, [r7, #8]
  76 000a 7A60     		str	r2, [r7, #4]
  72:Generated_Source\PSoC5/cyfitter_cfg.c **** 	(void)memcpy(dest, src, n);
  77              		.loc 1 72 0
  78 000c F868     		ldr	r0, [r7, #12]
  79 000e B968     		ldr	r1, [r7, #8]
  80 0010 7A68     		ldr	r2, [r7, #4]
  81 0012 FFF7FEFF 		bl	memcpy
  73:Generated_Source\PSoC5/cyfitter_cfg.c **** }
  82              		.loc 1 73 0
  83 0016 1037     		adds	r7, r7, #16
  84              		.cfi_def_cfa_offset 8
  85 0018 BD46     		mov	sp, r7
  86              		.cfi_def_cfa_register 13
  87              		@ sp needed
  88 001a 80BD     		pop	{r7, pc}
  89              		.cfi_endproc
  90              	.LFE1:
  91              		.size	CYCONFIGCPY, .-CYCONFIGCPY
  92              		.section	.text.CYCONFIGCPYCODE,"ax",%progbits
  93              		.align	2
  94              		.thumb
  95              		.thumb_func
  96              		.type	CYCONFIGCPYCODE, %function
  97              	CYCONFIGCPYCODE:
  98              	.LFB2:
ARM GAS  C:\Users\KJA\AppData\Local\Temp\ccVQyg55.s 			page 4


  74:Generated_Source\PSoC5/cyfitter_cfg.c **** CY_CFG_UNUSED
  75:Generated_Source\PSoC5/cyfitter_cfg.c **** static void CYCONFIGCPYCODE(void *dest, const void *src, size_t n);
  76:Generated_Source\PSoC5/cyfitter_cfg.c **** CY_CFG_UNUSED
  77:Generated_Source\PSoC5/cyfitter_cfg.c **** static void CYCONFIGCPYCODE(void *dest, const void *src, size_t n)
  78:Generated_Source\PSoC5/cyfitter_cfg.c **** {
  99              		.loc 1 78 0
 100              		.cfi_startproc
 101              		@ args = 0, pretend = 0, frame = 16
 102              		@ frame_needed = 1, uses_anonymous_args = 0
 103 0000 80B5     		push	{r7, lr}
 104              		.cfi_def_cfa_offset 8
 105              		.cfi_offset 7, -8
 106              		.cfi_offset 14, -4
 107 0002 84B0     		sub	sp, sp, #16
 108              		.cfi_def_cfa_offset 24
 109 0004 00AF     		add	r7, sp, #0
 110              		.cfi_def_cfa_register 7
 111 0006 F860     		str	r0, [r7, #12]
 112 0008 B960     		str	r1, [r7, #8]
 113 000a 7A60     		str	r2, [r7, #4]
  79:Generated_Source\PSoC5/cyfitter_cfg.c **** 	(void)memcpy(dest, src, n);
 114              		.loc 1 79 0
 115 000c F868     		ldr	r0, [r7, #12]
 116 000e B968     		ldr	r1, [r7, #8]
 117 0010 7A68     		ldr	r2, [r7, #4]
 118 0012 FFF7FEFF 		bl	memcpy
  80:Generated_Source\PSoC5/cyfitter_cfg.c **** }
 119              		.loc 1 80 0
 120 0016 1037     		adds	r7, r7, #16
 121              		.cfi_def_cfa_offset 8
 122 0018 BD46     		mov	sp, r7
 123              		.cfi_def_cfa_register 13
 124              		@ sp needed
 125 001a 80BD     		pop	{r7, pc}
 126              		.cfi_endproc
 127              	.LFE2:
 128              		.size	CYCONFIGCPYCODE, .-CYCONFIGCPYCODE
 129              		.section	.text.CyClockStartupError,"ax",%progbits
 130              		.align	2
 131              		.thumb
 132              		.thumb_func
 133              		.type	CyClockStartupError, %function
 134              	CyClockStartupError:
 135              	.LFB3:
  81:Generated_Source\PSoC5/cyfitter_cfg.c **** 
  82:Generated_Source\PSoC5/cyfitter_cfg.c **** 
  83:Generated_Source\PSoC5/cyfitter_cfg.c **** 
  84:Generated_Source\PSoC5/cyfitter_cfg.c **** 
  85:Generated_Source\PSoC5/cyfitter_cfg.c **** /* Clock startup error codes                                                   */
  86:Generated_Source\PSoC5/cyfitter_cfg.c **** #define CYCLOCKSTART_NO_ERROR    0u
  87:Generated_Source\PSoC5/cyfitter_cfg.c **** #define CYCLOCKSTART_XTAL_ERROR  1u
  88:Generated_Source\PSoC5/cyfitter_cfg.c **** #define CYCLOCKSTART_32KHZ_ERROR 2u
  89:Generated_Source\PSoC5/cyfitter_cfg.c **** #define CYCLOCKSTART_PLL_ERROR   3u
  90:Generated_Source\PSoC5/cyfitter_cfg.c **** 
  91:Generated_Source\PSoC5/cyfitter_cfg.c **** 
  92:Generated_Source\PSoC5/cyfitter_cfg.c **** #ifdef CY_NEED_CYCLOCKSTARTUPERROR
  93:Generated_Source\PSoC5/cyfitter_cfg.c **** /*******************************************************************************
ARM GAS  C:\Users\KJA\AppData\Local\Temp\ccVQyg55.s 			page 5


  94:Generated_Source\PSoC5/cyfitter_cfg.c **** * Function Name: CyClockStartupError
  95:Generated_Source\PSoC5/cyfitter_cfg.c **** ********************************************************************************
  96:Generated_Source\PSoC5/cyfitter_cfg.c **** * Summary:
  97:Generated_Source\PSoC5/cyfitter_cfg.c **** *  If an error is encountered during clock configuration (crystal startup error,
  98:Generated_Source\PSoC5/cyfitter_cfg.c **** *  PLL lock error, etc.), the system will end up here.  Unless reimplemented by
  99:Generated_Source\PSoC5/cyfitter_cfg.c **** *  the customer, this function will stop in an infinite loop.
 100:Generated_Source\PSoC5/cyfitter_cfg.c **** *
 101:Generated_Source\PSoC5/cyfitter_cfg.c **** * Parameters:
 102:Generated_Source\PSoC5/cyfitter_cfg.c **** *   void
 103:Generated_Source\PSoC5/cyfitter_cfg.c **** *
 104:Generated_Source\PSoC5/cyfitter_cfg.c **** * Return:
 105:Generated_Source\PSoC5/cyfitter_cfg.c **** *   void
 106:Generated_Source\PSoC5/cyfitter_cfg.c **** *
 107:Generated_Source\PSoC5/cyfitter_cfg.c **** *******************************************************************************/
 108:Generated_Source\PSoC5/cyfitter_cfg.c **** CY_CFG_UNUSED
 109:Generated_Source\PSoC5/cyfitter_cfg.c **** static void CyClockStartupError(uint8 errorCode);
 110:Generated_Source\PSoC5/cyfitter_cfg.c **** CY_CFG_UNUSED
 111:Generated_Source\PSoC5/cyfitter_cfg.c **** static void CyClockStartupError(uint8 errorCode)
 112:Generated_Source\PSoC5/cyfitter_cfg.c **** {
 136              		.loc 1 112 0
 137              		.cfi_startproc
 138              		@ args = 0, pretend = 0, frame = 8
 139              		@ frame_needed = 1, uses_anonymous_args = 0
 140              		@ link register save eliminated.
 141 0000 80B4     		push	{r7}
 142              		.cfi_def_cfa_offset 4
 143              		.cfi_offset 7, -4
 144 0002 83B0     		sub	sp, sp, #12
 145              		.cfi_def_cfa_offset 16
 146 0004 00AF     		add	r7, sp, #0
 147              		.cfi_def_cfa_register 7
 148 0006 0346     		mov	r3, r0
 149 0008 FB71     		strb	r3, [r7, #7]
 150              	.L5:
 113:Generated_Source\PSoC5/cyfitter_cfg.c ****     /* To remove the compiler warning if errorCode not used.                */
 114:Generated_Source\PSoC5/cyfitter_cfg.c ****     errorCode = errorCode;
 115:Generated_Source\PSoC5/cyfitter_cfg.c **** 
 116:Generated_Source\PSoC5/cyfitter_cfg.c ****     /* If we have a clock startup error (bad MHz crystal, PLL lock, etc.),  */
 117:Generated_Source\PSoC5/cyfitter_cfg.c ****     /* we will end up here to allow the customer to implement something to  */
 118:Generated_Source\PSoC5/cyfitter_cfg.c ****     /* deal with the clock condition.                                       */
 119:Generated_Source\PSoC5/cyfitter_cfg.c **** 
 120:Generated_Source\PSoC5/cyfitter_cfg.c **** #ifdef CY_CFG_CLOCK_STARTUP_ERROR_CALLBACK
 121:Generated_Source\PSoC5/cyfitter_cfg.c **** 	CY_CFG_Clock_Startup_ErrorCallback();
 122:Generated_Source\PSoC5/cyfitter_cfg.c **** #else
 123:Generated_Source\PSoC5/cyfitter_cfg.c **** 	/*  If not using CY_CFG_CLOCK_STARTUP_ERROR_CALLBACK, place your clock startup code here. */
 124:Generated_Source\PSoC5/cyfitter_cfg.c ****     /* `#START CyClockStartupError` */
 125:Generated_Source\PSoC5/cyfitter_cfg.c **** 
 126:Generated_Source\PSoC5/cyfitter_cfg.c ****     /* If we have a clock startup error (bad MHz crystal, PLL lock, etc.),  */
 127:Generated_Source\PSoC5/cyfitter_cfg.c ****     /* we will end up here to allow the customer to implement something to  */
 128:Generated_Source\PSoC5/cyfitter_cfg.c ****     /* deal with the clock condition.                                       */
 129:Generated_Source\PSoC5/cyfitter_cfg.c **** 
 130:Generated_Source\PSoC5/cyfitter_cfg.c ****     /* `#END` */
 131:Generated_Source\PSoC5/cyfitter_cfg.c **** 
 132:Generated_Source\PSoC5/cyfitter_cfg.c ****     /* If nothing else, stop here since the clocks have not started         */
 133:Generated_Source\PSoC5/cyfitter_cfg.c ****     /* correctly.                                                           */
 134:Generated_Source\PSoC5/cyfitter_cfg.c ****     while(1) {}
 151              		.loc 1 134 0 discriminator 1
ARM GAS  C:\Users\KJA\AppData\Local\Temp\ccVQyg55.s 			page 6


 152 000a FEE7     		b	.L5
 153              		.cfi_endproc
 154              	.LFE3:
 155              		.size	CyClockStartupError, .-CyClockStartupError
 156              		.section	.text.cfg_write_bytes32,"ax",%progbits
 157              		.align	2
 158              		.thumb
 159              		.thumb_func
 160              		.type	cfg_write_bytes32, %function
 161              	cfg_write_bytes32:
 162              	.LFB4:
 135:Generated_Source\PSoC5/cyfitter_cfg.c **** #endif /* CY_CFG_CLOCK_STARTUP_ERROR_CALLBACK */ 
 136:Generated_Source\PSoC5/cyfitter_cfg.c **** }
 137:Generated_Source\PSoC5/cyfitter_cfg.c **** #endif
 138:Generated_Source\PSoC5/cyfitter_cfg.c **** 
 139:Generated_Source\PSoC5/cyfitter_cfg.c **** #define CY_CFG_BASE_ADDR_COUNT 42u
 140:Generated_Source\PSoC5/cyfitter_cfg.c **** CYPACKED typedef struct
 141:Generated_Source\PSoC5/cyfitter_cfg.c **** {
 142:Generated_Source\PSoC5/cyfitter_cfg.c **** 	uint8 offset;
 143:Generated_Source\PSoC5/cyfitter_cfg.c **** 	uint8 value;
 144:Generated_Source\PSoC5/cyfitter_cfg.c **** } CYPACKED_ATTR cy_cfg_addrvalue_t;
 145:Generated_Source\PSoC5/cyfitter_cfg.c **** 
 146:Generated_Source\PSoC5/cyfitter_cfg.c **** #define cy_cfg_addr_table ((const uint32 CYFAR *)0x48000000u)
 147:Generated_Source\PSoC5/cyfitter_cfg.c **** #define cy_cfg_data_table ((const cy_cfg_addrvalue_t CYFAR *)0x480000A8u)
 148:Generated_Source\PSoC5/cyfitter_cfg.c **** 
 149:Generated_Source\PSoC5/cyfitter_cfg.c **** /* UDB_0_1_1_CONFIG Address: CYDEV_UCFG_B1_P4_U0_BASE Size (bytes): 128 */
 150:Generated_Source\PSoC5/cyfitter_cfg.c **** #define BS_UDB_0_1_1_CONFIG_VAL ((const uint8 CYFAR *)0x48000D4Cu)
 151:Generated_Source\PSoC5/cyfitter_cfg.c **** 
 152:Generated_Source\PSoC5/cyfitter_cfg.c **** /* UCFG_BCTL0 Address: CYREG_BCTL0_MDCLK_EN Size (bytes): 16 */
 153:Generated_Source\PSoC5/cyfitter_cfg.c **** #define BS_UCFG_BCTL0_VAL ((const uint8 CYFAR *)0x48000DCCu)
 154:Generated_Source\PSoC5/cyfitter_cfg.c **** 
 155:Generated_Source\PSoC5/cyfitter_cfg.c **** /* IOPINS0_0 Address: CYREG_PRT0_DM0 Size (bytes): 8 */
 156:Generated_Source\PSoC5/cyfitter_cfg.c **** #define BS_IOPINS0_0_VAL ((const uint8 CYFAR *)0x48000DDCu)
 157:Generated_Source\PSoC5/cyfitter_cfg.c **** 
 158:Generated_Source\PSoC5/cyfitter_cfg.c **** /* IOPINS0_7 Address: CYREG_PRT12_DM0 Size (bytes): 8 */
 159:Generated_Source\PSoC5/cyfitter_cfg.c **** #define BS_IOPINS0_7_VAL ((const uint8 CYFAR *)0x48000DE4u)
 160:Generated_Source\PSoC5/cyfitter_cfg.c **** 
 161:Generated_Source\PSoC5/cyfitter_cfg.c **** /* IOPINS0_8 Address: CYREG_PRT15_DR Size (bytes): 10 */
 162:Generated_Source\PSoC5/cyfitter_cfg.c **** #define BS_IOPINS0_8_VAL ((const uint8 CYFAR *)0x48000DECu)
 163:Generated_Source\PSoC5/cyfitter_cfg.c **** 
 164:Generated_Source\PSoC5/cyfitter_cfg.c **** /* IOPINS0_1 Address: CYREG_PRT1_DR Size (bytes): 10 */
 165:Generated_Source\PSoC5/cyfitter_cfg.c **** #define BS_IOPINS0_1_VAL ((const uint8 CYFAR *)0x48000DF8u)
 166:Generated_Source\PSoC5/cyfitter_cfg.c **** 
 167:Generated_Source\PSoC5/cyfitter_cfg.c **** /* IOPINS0_2 Address: CYREG_PRT2_DM0 Size (bytes): 8 */
 168:Generated_Source\PSoC5/cyfitter_cfg.c **** #define BS_IOPINS0_2_VAL ((const uint8 CYFAR *)0x48000E04u)
 169:Generated_Source\PSoC5/cyfitter_cfg.c **** 
 170:Generated_Source\PSoC5/cyfitter_cfg.c **** /* IOPINS0_3 Address: CYREG_PRT3_DM0 Size (bytes): 8 */
 171:Generated_Source\PSoC5/cyfitter_cfg.c **** #define BS_IOPINS0_3_VAL ((const uint8 CYFAR *)0x48000E0Cu)
 172:Generated_Source\PSoC5/cyfitter_cfg.c **** 
 173:Generated_Source\PSoC5/cyfitter_cfg.c **** /* CYDEV_CLKDIST_ACFG0_CFG0 Address: CYREG_CLKDIST_ACFG0_CFG0 Size (bytes): 8 */
 174:Generated_Source\PSoC5/cyfitter_cfg.c **** #define BS_CYDEV_CLKDIST_ACFG0_CFG0_VAL ((const uint8 CYFAR *)0x48000E14u)
 175:Generated_Source\PSoC5/cyfitter_cfg.c **** 
 176:Generated_Source\PSoC5/cyfitter_cfg.c **** 
 177:Generated_Source\PSoC5/cyfitter_cfg.c **** /*******************************************************************************
 178:Generated_Source\PSoC5/cyfitter_cfg.c **** * Function Name: cfg_write_bytes32
 179:Generated_Source\PSoC5/cyfitter_cfg.c **** ********************************************************************************
 180:Generated_Source\PSoC5/cyfitter_cfg.c **** * Summary:
ARM GAS  C:\Users\KJA\AppData\Local\Temp\ccVQyg55.s 			page 7


 181:Generated_Source\PSoC5/cyfitter_cfg.c **** *  This function is used for setting up the chip configuration areas that
 182:Generated_Source\PSoC5/cyfitter_cfg.c **** *  contain relatively sparse data.
 183:Generated_Source\PSoC5/cyfitter_cfg.c **** *
 184:Generated_Source\PSoC5/cyfitter_cfg.c **** * Parameters:
 185:Generated_Source\PSoC5/cyfitter_cfg.c **** *   void
 186:Generated_Source\PSoC5/cyfitter_cfg.c **** *
 187:Generated_Source\PSoC5/cyfitter_cfg.c **** * Return:
 188:Generated_Source\PSoC5/cyfitter_cfg.c **** *   void
 189:Generated_Source\PSoC5/cyfitter_cfg.c **** *
 190:Generated_Source\PSoC5/cyfitter_cfg.c **** *******************************************************************************/
 191:Generated_Source\PSoC5/cyfitter_cfg.c **** static void cfg_write_bytes32(const uint32 addr_table[], const cy_cfg_addrvalue_t data_table[]);
 192:Generated_Source\PSoC5/cyfitter_cfg.c **** static void cfg_write_bytes32(const uint32 addr_table[], const cy_cfg_addrvalue_t data_table[])
 193:Generated_Source\PSoC5/cyfitter_cfg.c **** {
 163              		.loc 1 193 0
 164              		.cfi_startproc
 165              		@ args = 0, pretend = 0, frame = 24
 166              		@ frame_needed = 1, uses_anonymous_args = 0
 167              		@ link register save eliminated.
 168 0000 80B4     		push	{r7}
 169              		.cfi_def_cfa_offset 4
 170              		.cfi_offset 7, -4
 171 0002 87B0     		sub	sp, sp, #28
 172              		.cfi_def_cfa_offset 32
 173 0004 00AF     		add	r7, sp, #0
 174              		.cfi_def_cfa_register 7
 175 0006 7860     		str	r0, [r7, #4]
 176 0008 3960     		str	r1, [r7]
 194:Generated_Source\PSoC5/cyfitter_cfg.c **** 	/* For 32-bit little-endian architectures */
 195:Generated_Source\PSoC5/cyfitter_cfg.c **** 	uint32 i, j = 0u;
 177              		.loc 1 195 0
 178 000a 0023     		movs	r3, #0
 179 000c 3B61     		str	r3, [r7, #16]
 196:Generated_Source\PSoC5/cyfitter_cfg.c **** 	for (i = 0u; i < CY_CFG_BASE_ADDR_COUNT; i++)
 180              		.loc 1 196 0
 181 000e 0023     		movs	r3, #0
 182 0010 7B61     		str	r3, [r7, #20]
 183 0012 27E0     		b	.L7
 184              	.L10:
 185              	.LBB2:
 197:Generated_Source\PSoC5/cyfitter_cfg.c **** 	{
 198:Generated_Source\PSoC5/cyfitter_cfg.c **** 		uint32 baseAddr = addr_table[i];
 186              		.loc 1 198 0
 187 0014 7B69     		ldr	r3, [r7, #20]
 188 0016 9B00     		lsls	r3, r3, #2
 189 0018 7A68     		ldr	r2, [r7, #4]
 190 001a 1344     		add	r3, r3, r2
 191 001c 1B68     		ldr	r3, [r3]
 192 001e BB60     		str	r3, [r7, #8]
 199:Generated_Source\PSoC5/cyfitter_cfg.c **** 		uint8 count = (uint8)baseAddr;
 193              		.loc 1 199 0
 194 0020 BB68     		ldr	r3, [r7, #8]
 195 0022 FB73     		strb	r3, [r7, #15]
 200:Generated_Source\PSoC5/cyfitter_cfg.c **** 		baseAddr &= 0xFFFFFF00u;
 196              		.loc 1 200 0
 197 0024 BB68     		ldr	r3, [r7, #8]
 198 0026 23F0FF03 		bic	r3, r3, #255
 199 002a BB60     		str	r3, [r7, #8]
ARM GAS  C:\Users\KJA\AppData\Local\Temp\ccVQyg55.s 			page 8


 201:Generated_Source\PSoC5/cyfitter_cfg.c **** 		while (count != 0u)
 200              		.loc 1 201 0
 201 002c 14E0     		b	.L8
 202              	.L9:
 202:Generated_Source\PSoC5/cyfitter_cfg.c **** 		{
 203:Generated_Source\PSoC5/cyfitter_cfg.c **** 			CY_SET_XTND_REG8((void CYFAR *)(baseAddr + data_table[j].offset), data_table[j].value);
 203              		.loc 1 203 0
 204 002e 3B69     		ldr	r3, [r7, #16]
 205 0030 5B00     		lsls	r3, r3, #1
 206 0032 3A68     		ldr	r2, [r7]
 207 0034 1344     		add	r3, r3, r2
 208 0036 1B78     		ldrb	r3, [r3]	@ zero_extendqisi2
 209 0038 1A46     		mov	r2, r3
 210 003a BB68     		ldr	r3, [r7, #8]
 211 003c 1344     		add	r3, r3, r2
 212 003e 1946     		mov	r1, r3
 213 0040 3B69     		ldr	r3, [r7, #16]
 214 0042 5B00     		lsls	r3, r3, #1
 215 0044 3A68     		ldr	r2, [r7]
 216 0046 1344     		add	r3, r3, r2
 217 0048 5B78     		ldrb	r3, [r3, #1]	@ zero_extendqisi2
 218 004a 0B70     		strb	r3, [r1]
 204:Generated_Source\PSoC5/cyfitter_cfg.c **** 			j++;
 219              		.loc 1 204 0
 220 004c 3B69     		ldr	r3, [r7, #16]
 221 004e 0133     		adds	r3, r3, #1
 222 0050 3B61     		str	r3, [r7, #16]
 205:Generated_Source\PSoC5/cyfitter_cfg.c **** 			count--;
 223              		.loc 1 205 0
 224 0052 FB7B     		ldrb	r3, [r7, #15]	@ zero_extendqisi2
 225 0054 013B     		subs	r3, r3, #1
 226 0056 FB73     		strb	r3, [r7, #15]
 227              	.L8:
 201:Generated_Source\PSoC5/cyfitter_cfg.c **** 		{
 228              		.loc 1 201 0
 229 0058 FB7B     		ldrb	r3, [r7, #15]	@ zero_extendqisi2
 230 005a 002B     		cmp	r3, #0
 231 005c E7D1     		bne	.L9
 232              	.LBE2:
 196:Generated_Source\PSoC5/cyfitter_cfg.c **** 	{
 233              		.loc 1 196 0 discriminator 2
 234 005e 7B69     		ldr	r3, [r7, #20]
 235 0060 0133     		adds	r3, r3, #1
 236 0062 7B61     		str	r3, [r7, #20]
 237              	.L7:
 196:Generated_Source\PSoC5/cyfitter_cfg.c **** 	{
 238              		.loc 1 196 0 is_stmt 0 discriminator 1
 239 0064 7B69     		ldr	r3, [r7, #20]
 240 0066 292B     		cmp	r3, #41
 241 0068 D4D9     		bls	.L10
 206:Generated_Source\PSoC5/cyfitter_cfg.c **** 		}
 207:Generated_Source\PSoC5/cyfitter_cfg.c **** 	}
 208:Generated_Source\PSoC5/cyfitter_cfg.c **** }
 242              		.loc 1 208 0 is_stmt 1
 243 006a 1C37     		adds	r7, r7, #28
 244              		.cfi_def_cfa_offset 4
 245 006c BD46     		mov	sp, r7
ARM GAS  C:\Users\KJA\AppData\Local\Temp\ccVQyg55.s 			page 9


 246              		.cfi_def_cfa_register 13
 247              		@ sp needed
 248 006e 5DF8047B 		ldr	r7, [sp], #4
 249              		.cfi_restore 7
 250              		.cfi_def_cfa_offset 0
 251 0072 7047     		bx	lr
 252              		.cfi_endproc
 253              	.LFE4:
 254              		.size	cfg_write_bytes32, .-cfg_write_bytes32
 255              		.section	.text.ClockSetup,"ax",%progbits
 256              		.align	2
 257              		.thumb
 258              		.thumb_func
 259              		.type	ClockSetup, %function
 260              	ClockSetup:
 261              	.LFB5:
 209:Generated_Source\PSoC5/cyfitter_cfg.c **** 
 210:Generated_Source\PSoC5/cyfitter_cfg.c **** /*******************************************************************************
 211:Generated_Source\PSoC5/cyfitter_cfg.c **** * Function Name: ClockSetup
 212:Generated_Source\PSoC5/cyfitter_cfg.c **** ********************************************************************************
 213:Generated_Source\PSoC5/cyfitter_cfg.c **** *
 214:Generated_Source\PSoC5/cyfitter_cfg.c **** * Summary:
 215:Generated_Source\PSoC5/cyfitter_cfg.c **** *  Performs the initialization of all of the clocks in the device based on the
 216:Generated_Source\PSoC5/cyfitter_cfg.c **** *  settings in the Clock tab of the DWR.  This includes enabling the requested
 217:Generated_Source\PSoC5/cyfitter_cfg.c **** *  clocks and setting the necessary dividers to produce the desired frequency. 
 218:Generated_Source\PSoC5/cyfitter_cfg.c **** *
 219:Generated_Source\PSoC5/cyfitter_cfg.c **** * Parameters:
 220:Generated_Source\PSoC5/cyfitter_cfg.c **** *  void
 221:Generated_Source\PSoC5/cyfitter_cfg.c **** *
 222:Generated_Source\PSoC5/cyfitter_cfg.c **** * Return:
 223:Generated_Source\PSoC5/cyfitter_cfg.c **** *  void
 224:Generated_Source\PSoC5/cyfitter_cfg.c **** *
 225:Generated_Source\PSoC5/cyfitter_cfg.c **** *******************************************************************************/
 226:Generated_Source\PSoC5/cyfitter_cfg.c **** static void ClockSetup(void);
 227:Generated_Source\PSoC5/cyfitter_cfg.c **** static void ClockSetup(void)
 228:Generated_Source\PSoC5/cyfitter_cfg.c **** {
 262              		.loc 1 228 0
 263              		.cfi_startproc
 264              		@ args = 0, pretend = 0, frame = 8
 265              		@ frame_needed = 1, uses_anonymous_args = 0
 266 0000 80B5     		push	{r7, lr}
 267              		.cfi_def_cfa_offset 8
 268              		.cfi_offset 7, -8
 269              		.cfi_offset 14, -4
 270 0002 82B0     		sub	sp, sp, #8
 271              		.cfi_def_cfa_offset 16
 272 0004 00AF     		add	r7, sp, #0
 273              		.cfi_def_cfa_register 7
 229:Generated_Source\PSoC5/cyfitter_cfg.c **** 	uint32 timeout;
 230:Generated_Source\PSoC5/cyfitter_cfg.c **** 	uint8 pllLock;
 231:Generated_Source\PSoC5/cyfitter_cfg.c **** 
 232:Generated_Source\PSoC5/cyfitter_cfg.c **** 
 233:Generated_Source\PSoC5/cyfitter_cfg.c **** 	/* Configure Digital Clocks based on settings from Clock DWR */
 234:Generated_Source\PSoC5/cyfitter_cfg.c **** 	CY_SET_XTND_REG16((void CYFAR *)(CYREG_CLKDIST_DCFG0_CFG0), 0x0000u);
 274              		.loc 1 234 0
 275 0006 514B     		ldr	r3, .L16
 276 0008 0022     		movs	r2, #0
ARM GAS  C:\Users\KJA\AppData\Local\Temp\ccVQyg55.s 			page 10


 277 000a 1A80     		strh	r2, [r3]	@ movhi
 235:Generated_Source\PSoC5/cyfitter_cfg.c **** 	CY_SET_XTND_REG8((void CYFAR *)(CYREG_CLKDIST_DCFG0_CFG0 + 0x2u), 0x50u);
 278              		.loc 1 235 0
 279 000c 504B     		ldr	r3, .L16+4
 280 000e 5022     		movs	r2, #80
 281 0010 1A70     		strb	r2, [r3]
 236:Generated_Source\PSoC5/cyfitter_cfg.c **** 	CY_SET_XTND_REG16((void CYFAR *)(CYREG_CLKDIST_DCFG1_CFG0), 0x0000u);
 282              		.loc 1 236 0
 283 0012 504B     		ldr	r3, .L16+8
 284 0014 0022     		movs	r2, #0
 285 0016 1A80     		strh	r2, [r3]	@ movhi
 237:Generated_Source\PSoC5/cyfitter_cfg.c **** 	CY_SET_XTND_REG8((void CYFAR *)(CYREG_CLKDIST_DCFG1_CFG0 + 0x2u), 0x58u);
 286              		.loc 1 237 0
 287 0018 4F4B     		ldr	r3, .L16+12
 288 001a 5822     		movs	r2, #88
 289 001c 1A70     		strb	r2, [r3]
 238:Generated_Source\PSoC5/cyfitter_cfg.c **** 	CY_SET_XTND_REG16((void CYFAR *)(CYREG_CLKDIST_DCFG2_CFG0), 0x0000u);
 290              		.loc 1 238 0
 291 001e 4F4B     		ldr	r3, .L16+16
 292 0020 0022     		movs	r2, #0
 293 0022 1A80     		strh	r2, [r3]	@ movhi
 239:Generated_Source\PSoC5/cyfitter_cfg.c **** 	CY_SET_XTND_REG8((void CYFAR *)(CYREG_CLKDIST_DCFG2_CFG0 + 0x2u), 0x58u);
 294              		.loc 1 239 0
 295 0024 4E4B     		ldr	r3, .L16+20
 296 0026 5822     		movs	r2, #88
 297 0028 1A70     		strb	r2, [r3]
 240:Generated_Source\PSoC5/cyfitter_cfg.c **** 	CY_SET_XTND_REG16((void CYFAR *)(CYREG_CLKDIST_DCFG3_CFG0), 0x005Fu);
 298              		.loc 1 240 0
 299 002a 4E4B     		ldr	r3, .L16+24
 300 002c 5F22     		movs	r2, #95
 301 002e 1A80     		strh	r2, [r3]	@ movhi
 241:Generated_Source\PSoC5/cyfitter_cfg.c **** 	CY_SET_XTND_REG8((void CYFAR *)(CYREG_CLKDIST_DCFG3_CFG0 + 0x2u), 0x19u);
 302              		.loc 1 241 0
 303 0030 4D4B     		ldr	r3, .L16+28
 304 0032 1922     		movs	r2, #25
 305 0034 1A70     		strb	r2, [r3]
 242:Generated_Source\PSoC5/cyfitter_cfg.c **** 	CY_SET_XTND_REG16((void CYFAR *)(CYREG_CLKDIST_DCFG4_CFG0), 0x00BFu);
 306              		.loc 1 242 0
 307 0036 4D4B     		ldr	r3, .L16+32
 308 0038 BF22     		movs	r2, #191
 309 003a 1A80     		strh	r2, [r3]	@ movhi
 243:Generated_Source\PSoC5/cyfitter_cfg.c **** 	CY_SET_XTND_REG8((void CYFAR *)(CYREG_CLKDIST_DCFG4_CFG0 + 0x2u), 0x19u);
 310              		.loc 1 243 0
 311 003c 4C4B     		ldr	r3, .L16+36
 312 003e 1922     		movs	r2, #25
 313 0040 1A70     		strb	r2, [r3]
 244:Generated_Source\PSoC5/cyfitter_cfg.c **** 	CY_SET_XTND_REG16((void CYFAR *)(CYREG_CLKDIST_DCFG5_CFG0), 0x01DFu);
 314              		.loc 1 244 0
 315 0042 4C4B     		ldr	r3, .L16+40
 316 0044 40F2DF12 		movw	r2, #479
 317 0048 1A80     		strh	r2, [r3]	@ movhi
 245:Generated_Source\PSoC5/cyfitter_cfg.c **** 	CY_SET_XTND_REG8((void CYFAR *)(CYREG_CLKDIST_DCFG5_CFG0 + 0x2u), 0x19u);
 318              		.loc 1 245 0
 319 004a 4B4B     		ldr	r3, .L16+44
 320 004c 1922     		movs	r2, #25
 321 004e 1A70     		strb	r2, [r3]
 246:Generated_Source\PSoC5/cyfitter_cfg.c **** 	CY_SET_XTND_REG16((void CYFAR *)(CYREG_CLKDIST_DCFG6_CFG0), 0x12BFu);
ARM GAS  C:\Users\KJA\AppData\Local\Temp\ccVQyg55.s 			page 11


 322              		.loc 1 246 0
 323 0050 4A4B     		ldr	r3, .L16+48
 324 0052 41F2BF22 		movw	r2, #4799
 325 0056 1A80     		strh	r2, [r3]	@ movhi
 247:Generated_Source\PSoC5/cyfitter_cfg.c **** 	CY_SET_XTND_REG8((void CYFAR *)(CYREG_CLKDIST_DCFG6_CFG0 + 0x2u), 0x19u);
 326              		.loc 1 247 0
 327 0058 494B     		ldr	r3, .L16+52
 328 005a 1922     		movs	r2, #25
 329 005c 1A70     		strb	r2, [r3]
 248:Generated_Source\PSoC5/cyfitter_cfg.c **** 	CY_SET_XTND_REG16((void CYFAR *)(CYREG_CLKDIST_DCFG7_CFG0), 0x0001u);
 330              		.loc 1 248 0
 331 005e 494B     		ldr	r3, .L16+56
 332 0060 0122     		movs	r2, #1
 333 0062 1A80     		strh	r2, [r3]	@ movhi
 249:Generated_Source\PSoC5/cyfitter_cfg.c **** 	CY_SET_XTND_REG8((void CYFAR *)(CYREG_CLKDIST_DCFG7_CFG0 + 0x2u), 0x1Bu);
 334              		.loc 1 249 0
 335 0064 484B     		ldr	r3, .L16+60
 336 0066 1B22     		movs	r2, #27
 337 0068 1A70     		strb	r2, [r3]
 250:Generated_Source\PSoC5/cyfitter_cfg.c **** 
 251:Generated_Source\PSoC5/cyfitter_cfg.c **** 	/* Configure Analog Clocks based on settings from Clock DWR */
 252:Generated_Source\PSoC5/cyfitter_cfg.c **** 	CYCONFIGCPY((void CYFAR *)(CYREG_CLKDIST_ACFG0_CFG0), (const void CYFAR *)(BS_CYDEV_CLKDIST_ACFG0_
 338              		.loc 1 252 0
 339 006a 4848     		ldr	r0, .L16+64
 340 006c 4849     		ldr	r1, .L16+68
 341 006e 0822     		movs	r2, #8
 342 0070 FFF7FEFF 		bl	CYCONFIGCPY
 253:Generated_Source\PSoC5/cyfitter_cfg.c **** 
 254:Generated_Source\PSoC5/cyfitter_cfg.c **** 	/* Configure ILO based on settings from Clock DWR */
 255:Generated_Source\PSoC5/cyfitter_cfg.c **** 	CY_SET_XTND_REG8((void CYFAR *)(CYREG_SLOWCLK_ILO_CR0), 0x02u);
 343              		.loc 1 255 0
 344 0074 474B     		ldr	r3, .L16+72
 345 0076 0222     		movs	r2, #2
 346 0078 1A70     		strb	r2, [r3]
 256:Generated_Source\PSoC5/cyfitter_cfg.c **** 	CY_SET_XTND_REG8((void CYFAR *)(CYREG_CLKDIST_CR), 0x08u);
 347              		.loc 1 256 0
 348 007a 4FF04023 		mov	r3, #1073758208
 349 007e 0822     		movs	r2, #8
 350 0080 1A70     		strb	r2, [r3]
 257:Generated_Source\PSoC5/cyfitter_cfg.c **** 
 258:Generated_Source\PSoC5/cyfitter_cfg.c **** 	/* Configure IMO based on settings from Clock DWR */
 259:Generated_Source\PSoC5/cyfitter_cfg.c **** 	CY_SET_XTND_REG8((void CYFAR *)(CYREG_FASTCLK_IMO_CR), 0x04u);
 351              		.loc 1 259 0
 352 0082 454B     		ldr	r3, .L16+76
 353 0084 0422     		movs	r2, #4
 354 0086 1A70     		strb	r2, [r3]
 260:Generated_Source\PSoC5/cyfitter_cfg.c **** 	CY_SET_XTND_REG8((void CYFAR *)(CYREG_IMO_TR1), (CY_GET_XTND_REG8((void CYFAR *)(CYREG_FLSHID_MFG_
 355              		.loc 1 260 0
 356 0088 444B     		ldr	r3, .L16+80
 357 008a 454A     		ldr	r2, .L16+84
 358 008c 1278     		ldrb	r2, [r2]
 359 008e D2B2     		uxtb	r2, r2
 360 0090 1A70     		strb	r2, [r3]
 261:Generated_Source\PSoC5/cyfitter_cfg.c **** 
 262:Generated_Source\PSoC5/cyfitter_cfg.c **** 	/* Configure PLL based on settings from Clock DWR */
 263:Generated_Source\PSoC5/cyfitter_cfg.c **** 	CY_SET_XTND_REG16((void CYFAR *)(CYREG_FASTCLK_PLL_P), 0x0F19u);
 361              		.loc 1 263 0
ARM GAS  C:\Users\KJA\AppData\Local\Temp\ccVQyg55.s 			page 12


 362 0092 444B     		ldr	r3, .L16+88
 363 0094 40F61972 		movw	r2, #3865
 364 0098 1A80     		strh	r2, [r3]	@ movhi
 264:Generated_Source\PSoC5/cyfitter_cfg.c **** 	CY_SET_XTND_REG16((void CYFAR *)(CYREG_FASTCLK_PLL_CFG0), 0x2251u);
 365              		.loc 1 264 0
 366 009a 434B     		ldr	r3, .L16+92
 367 009c 42F25122 		movw	r2, #8785
 368 00a0 1A80     		strh	r2, [r3]	@ movhi
 265:Generated_Source\PSoC5/cyfitter_cfg.c **** 	/* Wait up to 250us for the PLL to lock */
 266:Generated_Source\PSoC5/cyfitter_cfg.c **** 	pllLock = 0u;
 369              		.loc 1 266 0
 370 00a2 0023     		movs	r3, #0
 371 00a4 FB70     		strb	r3, [r7, #3]
 267:Generated_Source\PSoC5/cyfitter_cfg.c **** 	for (timeout = 250u / 10u; (timeout > 0u) && (pllLock != 0x03u); timeout--)
 372              		.loc 1 267 0
 373 00a6 1923     		movs	r3, #25
 374 00a8 7B60     		str	r3, [r7, #4]
 375 00aa 14E0     		b	.L12
 376              	.L14:
 268:Generated_Source\PSoC5/cyfitter_cfg.c **** 	{ 
 269:Generated_Source\PSoC5/cyfitter_cfg.c **** 		pllLock = 0x03u & ((uint8)((uint8)pllLock << 1) | ((CY_GET_XTND_REG8((void CYFAR *)CYREG_FASTCLK_
 377              		.loc 1 269 0 discriminator 4
 378 00ac FB78     		ldrb	r3, [r7, #3]
 379 00ae 5B00     		lsls	r3, r3, #1
 380 00b0 DAB2     		uxtb	r2, r3
 381 00b2 3E4B     		ldr	r3, .L16+96
 382 00b4 1B78     		ldrb	r3, [r3]
 383 00b6 DBB2     		uxtb	r3, r3
 384 00b8 03F00103 		and	r3, r3, #1
 385 00bc DBB2     		uxtb	r3, r3
 386 00be 1343     		orrs	r3, r3, r2
 387 00c0 DBB2     		uxtb	r3, r3
 388 00c2 03F00303 		and	r3, r3, #3
 389 00c6 FB70     		strb	r3, [r7, #3]
 270:Generated_Source\PSoC5/cyfitter_cfg.c **** 		CyDelayCycles(10u * 48u); /* Delay 10us based on 48MHz clock */
 390              		.loc 1 270 0 discriminator 4
 391 00c8 4FF4F070 		mov	r0, #480
 392 00cc FFF7FEFF 		bl	CyDelayCycles
 267:Generated_Source\PSoC5/cyfitter_cfg.c **** 	for (timeout = 250u / 10u; (timeout > 0u) && (pllLock != 0x03u); timeout--)
 393              		.loc 1 267 0 discriminator 4
 394 00d0 7B68     		ldr	r3, [r7, #4]
 395 00d2 013B     		subs	r3, r3, #1
 396 00d4 7B60     		str	r3, [r7, #4]
 397              	.L12:
 267:Generated_Source\PSoC5/cyfitter_cfg.c **** 	for (timeout = 250u / 10u; (timeout > 0u) && (pllLock != 0x03u); timeout--)
 398              		.loc 1 267 0 is_stmt 0 discriminator 1
 399 00d6 7B68     		ldr	r3, [r7, #4]
 400 00d8 002B     		cmp	r3, #0
 401 00da 02D0     		beq	.L13
 267:Generated_Source\PSoC5/cyfitter_cfg.c **** 	for (timeout = 250u / 10u; (timeout > 0u) && (pllLock != 0x03u); timeout--)
 402              		.loc 1 267 0 discriminator 3
 403 00dc FB78     		ldrb	r3, [r7, #3]	@ zero_extendqisi2
 404 00de 032B     		cmp	r3, #3
 405 00e0 E4D1     		bne	.L14
 406              	.L13:
 271:Generated_Source\PSoC5/cyfitter_cfg.c **** 	}
 272:Generated_Source\PSoC5/cyfitter_cfg.c **** 	/* If we ran out of time the PLL didn't lock so go to the error function */
ARM GAS  C:\Users\KJA\AppData\Local\Temp\ccVQyg55.s 			page 13


 273:Generated_Source\PSoC5/cyfitter_cfg.c **** 	if (timeout == 0u)
 407              		.loc 1 273 0 is_stmt 1
 408 00e2 7B68     		ldr	r3, [r7, #4]
 409 00e4 002B     		cmp	r3, #0
 410 00e6 02D1     		bne	.L15
 274:Generated_Source\PSoC5/cyfitter_cfg.c **** 	{
 275:Generated_Source\PSoC5/cyfitter_cfg.c **** 		CyClockStartupError(CYCLOCKSTART_PLL_ERROR);
 411              		.loc 1 275 0
 412 00e8 0320     		movs	r0, #3
 413 00ea FFF7FEFF 		bl	CyClockStartupError
 414              	.L15:
 276:Generated_Source\PSoC5/cyfitter_cfg.c **** 	}
 277:Generated_Source\PSoC5/cyfitter_cfg.c **** 
 278:Generated_Source\PSoC5/cyfitter_cfg.c **** 	/* Configure Bus/Master Clock based on settings from Clock DWR */
 279:Generated_Source\PSoC5/cyfitter_cfg.c **** 	CY_SET_XTND_REG16((void CYFAR *)(CYREG_CLKDIST_MSTR0), 0x0100u);
 415              		.loc 1 279 0
 416 00ee 304B     		ldr	r3, .L16+100
 417 00f0 4FF48072 		mov	r2, #256
 418 00f4 1A80     		strh	r2, [r3]	@ movhi
 280:Generated_Source\PSoC5/cyfitter_cfg.c **** 	CY_SET_XTND_REG8((void CYFAR *)(CYREG_CLKDIST_MSTR0), 0x07u);
 419              		.loc 1 280 0
 420 00f6 2E4B     		ldr	r3, .L16+100
 421 00f8 0722     		movs	r2, #7
 422 00fa 1A70     		strb	r2, [r3]
 281:Generated_Source\PSoC5/cyfitter_cfg.c **** 	CY_SET_XTND_REG8((void CYFAR *)(CYREG_CLKDIST_BCFG0), 0x00u);
 423              		.loc 1 281 0
 424 00fc 2D4B     		ldr	r3, .L16+104
 425 00fe 0022     		movs	r2, #0
 426 0100 1A70     		strb	r2, [r3]
 282:Generated_Source\PSoC5/cyfitter_cfg.c **** 	CY_SET_XTND_REG8((void CYFAR *)(CYREG_CLKDIST_BCFG2), 0x48u);
 427              		.loc 1 282 0
 428 0102 2D4B     		ldr	r3, .L16+108
 429 0104 4822     		movs	r2, #72
 430 0106 1A70     		strb	r2, [r3]
 283:Generated_Source\PSoC5/cyfitter_cfg.c **** 	CY_SET_XTND_REG8((void CYFAR *)(CYREG_CLKDIST_MSTR0), 0x00u);
 431              		.loc 1 283 0
 432 0108 294B     		ldr	r3, .L16+100
 433 010a 0022     		movs	r2, #0
 434 010c 1A70     		strb	r2, [r3]
 284:Generated_Source\PSoC5/cyfitter_cfg.c **** 	CY_SET_XTND_REG8((void CYFAR *)(CYREG_CLKDIST_LD), 0x02u);
 435              		.loc 1 284 0
 436 010e 2B4B     		ldr	r3, .L16+112
 437 0110 0222     		movs	r2, #2
 438 0112 1A70     		strb	r2, [r3]
 285:Generated_Source\PSoC5/cyfitter_cfg.c **** 	CY_SET_XTND_REG8((void CYFAR *)(CYREG_CLKDIST_DLY1), 0x04u);
 439              		.loc 1 285 0
 440 0114 2A4B     		ldr	r3, .L16+116
 441 0116 0422     		movs	r2, #4
 442 0118 1A70     		strb	r2, [r3]
 286:Generated_Source\PSoC5/cyfitter_cfg.c **** 
 287:Generated_Source\PSoC5/cyfitter_cfg.c **** 	CY_SET_XTND_REG8((void CYFAR *)(CYREG_PM_ACT_CFG2), ((CY_GET_XTND_REG8((void CYFAR *)CYREG_PM_ACT_
 443              		.loc 1 287 0
 444 011a 2A4B     		ldr	r3, .L16+120
 445 011c 1B78     		ldrb	r3, [r3]
 446 011e 294B     		ldr	r3, .L16+120
 447 0120 FF22     		movs	r2, #255
 448 0122 1A70     		strb	r2, [r3]
ARM GAS  C:\Users\KJA\AppData\Local\Temp\ccVQyg55.s 			page 14


 288:Generated_Source\PSoC5/cyfitter_cfg.c **** 	CY_SET_XTND_REG8((void CYFAR *)(CYREG_PM_ACT_CFG1), ((CY_GET_XTND_REG8((void CYFAR *)CYREG_PM_ACT_
 449              		.loc 1 288 0
 450 0124 284A     		ldr	r2, .L16+124
 451 0126 284B     		ldr	r3, .L16+124
 452 0128 1B78     		ldrb	r3, [r3]
 453 012a DBB2     		uxtb	r3, r3
 454 012c 43F00303 		orr	r3, r3, #3
 455 0130 DBB2     		uxtb	r3, r3
 456 0132 1370     		strb	r3, [r2]
 289:Generated_Source\PSoC5/cyfitter_cfg.c **** 	CY_SET_XTND_REG8((void CYFAR *)(CYREG_PM_ACT_CFG0), ((CY_GET_XTND_REG8((void CYFAR *)CYREG_PM_ACT_
 457              		.loc 1 289 0
 458 0134 254A     		ldr	r2, .L16+128
 459 0136 254B     		ldr	r3, .L16+128
 460 0138 1B78     		ldrb	r3, [r3]
 461 013a DBB2     		uxtb	r3, r3
 462 013c 63F07F03 		orn	r3, r3, #127
 463 0140 DBB2     		uxtb	r3, r3
 464 0142 1370     		strb	r3, [r2]
 290:Generated_Source\PSoC5/cyfitter_cfg.c **** }
 465              		.loc 1 290 0
 466 0144 0837     		adds	r7, r7, #8
 467              		.cfi_def_cfa_offset 8
 468 0146 BD46     		mov	sp, r7
 469              		.cfi_def_cfa_register 13
 470              		@ sp needed
 471 0148 80BD     		pop	{r7, pc}
 472              	.L17:
 473 014a 00BF     		.align	2
 474              	.L16:
 475 014c 80400040 		.word	1073758336
 476 0150 82400040 		.word	1073758338
 477 0154 84400040 		.word	1073758340
 478 0158 86400040 		.word	1073758342
 479 015c 88400040 		.word	1073758344
 480 0160 8A400040 		.word	1073758346
 481 0164 8C400040 		.word	1073758348
 482 0168 8E400040 		.word	1073758350
 483 016c 90400040 		.word	1073758352
 484 0170 92400040 		.word	1073758354
 485 0174 94400040 		.word	1073758356
 486 0178 96400040 		.word	1073758358
 487 017c 98400040 		.word	1073758360
 488 0180 9A400040 		.word	1073758362
 489 0184 9C400040 		.word	1073758364
 490 0188 9E400040 		.word	1073758366
 491 018c 00410040 		.word	1073758464
 492 0190 140E0048 		.word	1207963156
 493 0194 00430040 		.word	1073758976
 494 0198 00420040 		.word	1073758720
 495 019c A1460040 		.word	1073759905
 496 01a0 89010049 		.word	1224737161
 497 01a4 22420040 		.word	1073758754
 498 01a8 20420040 		.word	1073758752
 499 01ac 25420040 		.word	1073758757
 500 01b0 04400040 		.word	1073758212
 501 01b4 06400040 		.word	1073758214
 502 01b8 08400040 		.word	1073758216
ARM GAS  C:\Users\KJA\AppData\Local\Temp\ccVQyg55.s 			page 15


 503 01bc 01400040 		.word	1073758209
 504 01c0 0B400040 		.word	1073758219
 505 01c4 A2430040 		.word	1073759138
 506 01c8 A1430040 		.word	1073759137
 507 01cc A0430040 		.word	1073759136
 508              		.cfi_endproc
 509              	.LFE5:
 510              		.size	ClockSetup, .-ClockSetup
 511              		.section	.text.AnalogSetDefault,"ax",%progbits
 512              		.align	2
 513              		.thumb
 514              		.thumb_func
 515              		.type	AnalogSetDefault, %function
 516              	AnalogSetDefault:
 517              	.LFB6:
 291:Generated_Source\PSoC5/cyfitter_cfg.c **** 
 292:Generated_Source\PSoC5/cyfitter_cfg.c **** 
 293:Generated_Source\PSoC5/cyfitter_cfg.c **** /* Analog API Functions */
 294:Generated_Source\PSoC5/cyfitter_cfg.c **** 
 295:Generated_Source\PSoC5/cyfitter_cfg.c **** 
 296:Generated_Source\PSoC5/cyfitter_cfg.c **** /*******************************************************************************
 297:Generated_Source\PSoC5/cyfitter_cfg.c **** * Function Name: AnalogSetDefault
 298:Generated_Source\PSoC5/cyfitter_cfg.c **** ********************************************************************************
 299:Generated_Source\PSoC5/cyfitter_cfg.c **** *
 300:Generated_Source\PSoC5/cyfitter_cfg.c **** * Summary:
 301:Generated_Source\PSoC5/cyfitter_cfg.c **** *  Sets up the analog portions of the chip to default values based on chip
 302:Generated_Source\PSoC5/cyfitter_cfg.c **** *  configuration options from the project.
 303:Generated_Source\PSoC5/cyfitter_cfg.c **** *
 304:Generated_Source\PSoC5/cyfitter_cfg.c **** * Parameters:
 305:Generated_Source\PSoC5/cyfitter_cfg.c **** *  void
 306:Generated_Source\PSoC5/cyfitter_cfg.c **** *
 307:Generated_Source\PSoC5/cyfitter_cfg.c **** * Return:
 308:Generated_Source\PSoC5/cyfitter_cfg.c **** *  void
 309:Generated_Source\PSoC5/cyfitter_cfg.c **** *
 310:Generated_Source\PSoC5/cyfitter_cfg.c **** *******************************************************************************/
 311:Generated_Source\PSoC5/cyfitter_cfg.c **** static void AnalogSetDefault(void);
 312:Generated_Source\PSoC5/cyfitter_cfg.c **** static void AnalogSetDefault(void)
 313:Generated_Source\PSoC5/cyfitter_cfg.c **** {
 518              		.loc 1 313 0
 519              		.cfi_startproc
 520              		@ args = 0, pretend = 0, frame = 8
 521              		@ frame_needed = 1, uses_anonymous_args = 0
 522 0000 80B5     		push	{r7, lr}
 523              		.cfi_def_cfa_offset 8
 524              		.cfi_offset 7, -8
 525              		.cfi_offset 14, -4
 526 0002 82B0     		sub	sp, sp, #8
 527              		.cfi_def_cfa_offset 16
 528 0004 00AF     		add	r7, sp, #0
 529              		.cfi_def_cfa_register 7
 314:Generated_Source\PSoC5/cyfitter_cfg.c **** 	uint8 bg_xover_inl_trim = CY_GET_XTND_REG8((void CYFAR *)(CYREG_FLSHID_MFG_CFG_BG_XOVER_INL_TRIM +
 530              		.loc 1 314 0
 531 0006 2D4B     		ldr	r3, .L19
 532 0008 1B78     		ldrb	r3, [r3]
 533 000a FB71     		strb	r3, [r7, #7]
 315:Generated_Source\PSoC5/cyfitter_cfg.c **** 	uint8 cr4 = CY_GET_XTND_REG8((void CYFAR *)(CYREG_RESET_CR4));
 534              		.loc 1 315 0
ARM GAS  C:\Users\KJA\AppData\Local\Temp\ccVQyg55.s 			page 16


 535 000c 2C4B     		ldr	r3, .L19+4
 536 000e 1B78     		ldrb	r3, [r3]
 537 0010 BB71     		strb	r3, [r7, #6]
 316:Generated_Source\PSoC5/cyfitter_cfg.c **** 	uint8 cr5 = CY_GET_XTND_REG8((void CYFAR *)(CYREG_RESET_CR5));
 538              		.loc 1 316 0
 539 0012 2C4B     		ldr	r3, .L19+8
 540 0014 1B78     		ldrb	r3, [r3]
 541 0016 7B71     		strb	r3, [r7, #5]
 317:Generated_Source\PSoC5/cyfitter_cfg.c **** 	CY_SET_XTND_REG8((void CYFAR *)(CYREG_BG_DFT0), (bg_xover_inl_trim & 0x07u));
 542              		.loc 1 317 0
 543 0018 2B4A     		ldr	r2, .L19+12
 544 001a FB79     		ldrb	r3, [r7, #7]
 545 001c 03F00703 		and	r3, r3, #7
 546 0020 DBB2     		uxtb	r3, r3
 547 0022 1370     		strb	r3, [r2]
 318:Generated_Source\PSoC5/cyfitter_cfg.c **** 	CY_SET_XTND_REG8((void CYFAR *)(CYREG_BG_DFT1), ((bg_xover_inl_trim >> 4) & 0x0Fu));
 548              		.loc 1 318 0
 549 0024 294A     		ldr	r2, .L19+16
 550 0026 FB79     		ldrb	r3, [r7, #7]	@ zero_extendqisi2
 551 0028 1B09     		lsrs	r3, r3, #4
 552 002a DBB2     		uxtb	r3, r3
 553 002c 1370     		strb	r3, [r2]
 319:Generated_Source\PSoC5/cyfitter_cfg.c **** 	/* Disable PRES while setting up SAR voltage reference */
 320:Generated_Source\PSoC5/cyfitter_cfg.c **** 	CY_SET_XTND_REG8((void CYFAR *)(CYREG_RESET_CR4), (cr4 | 0x03u));
 554              		.loc 1 320 0
 555 002e 244A     		ldr	r2, .L19+4
 556 0030 BB79     		ldrb	r3, [r7, #6]
 557 0032 43F00303 		orr	r3, r3, #3
 558 0036 DBB2     		uxtb	r3, r3
 559 0038 1370     		strb	r3, [r2]
 321:Generated_Source\PSoC5/cyfitter_cfg.c **** 	CY_SET_XTND_REG8((void CYFAR *)(CYREG_RESET_CR5), (cr5 | 0x03u));
 560              		.loc 1 321 0
 561 003a 224A     		ldr	r2, .L19+8
 562 003c 7B79     		ldrb	r3, [r7, #5]
 563 003e 43F00303 		orr	r3, r3, #3
 564 0042 DBB2     		uxtb	r3, r3
 565 0044 1370     		strb	r3, [r2]
 322:Generated_Source\PSoC5/cyfitter_cfg.c **** 	CY_SET_XTND_REG16((void CYFAR *)CYREG_PRT2_AMUX, 0xC008u);
 566              		.loc 1 322 0
 567 0046 224B     		ldr	r3, .L19+20
 568 0048 4CF20802 		movw	r2, #49160
 569 004c 1A80     		strh	r2, [r3]	@ movhi
 323:Generated_Source\PSoC5/cyfitter_cfg.c **** 	CY_SET_XTND_REG8((void CYFAR *)CYREG_CAPSR_CFG0, 0x80u);
 570              		.loc 1 323 0
 571 004e 214B     		ldr	r3, .L19+24
 572 0050 8022     		movs	r2, #128
 573 0052 1A70     		strb	r2, [r3]
 324:Generated_Source\PSoC5/cyfitter_cfg.c **** 	CY_SET_XTND_REG8((void CYFAR *)CYREG_SAR0_CSR1, 0x80u);
 574              		.loc 1 324 0
 575 0054 204B     		ldr	r3, .L19+28
 576 0056 8022     		movs	r2, #128
 577 0058 1A70     		strb	r2, [r3]
 325:Generated_Source\PSoC5/cyfitter_cfg.c **** 	CY_SET_XTND_REG8((void CYFAR *)CYREG_SAR1_CSR1, 0x80u);
 578              		.loc 1 325 0
 579 005a 204B     		ldr	r3, .L19+32
 580 005c 8022     		movs	r2, #128
 581 005e 1A70     		strb	r2, [r3]
ARM GAS  C:\Users\KJA\AppData\Local\Temp\ccVQyg55.s 			page 17


 326:Generated_Source\PSoC5/cyfitter_cfg.c **** 	CY_SET_XTND_REG8((void CYFAR *)CYREG_DAC3_SW0, 0x20u);
 582              		.loc 1 326 0
 583 0060 1F4B     		ldr	r3, .L19+36
 584 0062 2022     		movs	r2, #32
 585 0064 1A70     		strb	r2, [r3]
 327:Generated_Source\PSoC5/cyfitter_cfg.c **** 	CY_SET_XTND_REG8((void CYFAR *)CYREG_CMP3_SW0, 0x40u);
 586              		.loc 1 327 0
 587 0066 1F4B     		ldr	r3, .L19+40
 588 0068 4022     		movs	r2, #64
 589 006a 1A70     		strb	r2, [r3]
 328:Generated_Source\PSoC5/cyfitter_cfg.c **** 	CY_SET_XTND_REG8((void CYFAR *)CYREG_DSM0_SW0, 0x40u);
 590              		.loc 1 328 0
 591 006c 1E4B     		ldr	r3, .L19+44
 592 006e 4022     		movs	r2, #64
 593 0070 1A70     		strb	r2, [r3]
 329:Generated_Source\PSoC5/cyfitter_cfg.c **** 	CY_SET_XTND_REG8((void CYFAR *)CYREG_SAR0_SW0, 0x04u);
 594              		.loc 1 329 0
 595 0072 1E4B     		ldr	r3, .L19+48
 596 0074 0422     		movs	r2, #4
 597 0076 1A70     		strb	r2, [r3]
 330:Generated_Source\PSoC5/cyfitter_cfg.c **** 	CY_SET_XTND_REG8((void CYFAR *)CYREG_SAR0_SW3, 0x20u);
 598              		.loc 1 330 0
 599 0078 1D4B     		ldr	r3, .L19+52
 600 007a 2022     		movs	r2, #32
 601 007c 1A70     		strb	r2, [r3]
 331:Generated_Source\PSoC5/cyfitter_cfg.c **** 	CY_SET_XTND_REG8((void CYFAR *)CYREG_SAR1_SW0, 0x08u);
 602              		.loc 1 331 0
 603 007e 1D4B     		ldr	r3, .L19+56
 604 0080 0822     		movs	r2, #8
 605 0082 1A70     		strb	r2, [r3]
 332:Generated_Source\PSoC5/cyfitter_cfg.c **** 	CY_SET_XTND_REG8((void CYFAR *)CYREG_SAR1_SW3, 0x20u);
 606              		.loc 1 332 0
 607 0084 1C4B     		ldr	r3, .L19+60
 608 0086 2022     		movs	r2, #32
 609 0088 1A70     		strb	r2, [r3]
 333:Generated_Source\PSoC5/cyfitter_cfg.c **** 	CY_SET_XTND_REG16((void CYFAR *)CYREG_OPAMP3_MX, 0x0102u);
 610              		.loc 1 333 0
 611 008a 1C4B     		ldr	r3, .L19+64
 612 008c 4FF48172 		mov	r2, #258
 613 0090 1A80     		strh	r2, [r3]	@ movhi
 334:Generated_Source\PSoC5/cyfitter_cfg.c **** 	CY_SET_XTND_REG8((void CYFAR *)CYREG_BUS_SW0, 0x48u);
 614              		.loc 1 334 0
 615 0092 1B4B     		ldr	r3, .L19+68
 616 0094 4822     		movs	r2, #72
 617 0096 1A70     		strb	r2, [r3]
 335:Generated_Source\PSoC5/cyfitter_cfg.c **** 	CY_SET_XTND_REG8((void CYFAR *)CYREG_BUS_SW3, 0x01u);
 618              		.loc 1 335 0
 619 0098 1A4B     		ldr	r3, .L19+72
 620 009a 0122     		movs	r2, #1
 621 009c 1A70     		strb	r2, [r3]
 336:Generated_Source\PSoC5/cyfitter_cfg.c **** 	CyDelayUs(10u); /* Allow vref to settle before re-enabling PRES */
 622              		.loc 1 336 0
 623 009e 0A20     		movs	r0, #10
 624 00a0 FFF7FEFF 		bl	CyDelayUs
 337:Generated_Source\PSoC5/cyfitter_cfg.c **** 	CY_SET_XTND_REG8((void CYFAR *)(CYREG_RESET_CR5), (cr5));
 625              		.loc 1 337 0
 626 00a4 074A     		ldr	r2, .L19+8
ARM GAS  C:\Users\KJA\AppData\Local\Temp\ccVQyg55.s 			page 18


 627 00a6 7B79     		ldrb	r3, [r7, #5]
 628 00a8 1370     		strb	r3, [r2]
 338:Generated_Source\PSoC5/cyfitter_cfg.c **** 	CY_SET_XTND_REG8((void CYFAR *)(CYREG_RESET_CR4), (cr4));
 629              		.loc 1 338 0
 630 00aa 054A     		ldr	r2, .L19+4
 631 00ac BB79     		ldrb	r3, [r7, #6]
 632 00ae 1370     		strb	r3, [r2]
 339:Generated_Source\PSoC5/cyfitter_cfg.c **** 	CY_SET_XTND_REG8((void CYFAR *)CYREG_PUMP_CR0, 0x44u);
 633              		.loc 1 339 0
 634 00b0 154B     		ldr	r3, .L19+76
 635 00b2 4422     		movs	r2, #68
 636 00b4 1A70     		strb	r2, [r3]
 340:Generated_Source\PSoC5/cyfitter_cfg.c **** }
 637              		.loc 1 340 0
 638 00b6 0837     		adds	r7, r7, #8
 639              		.cfi_def_cfa_offset 8
 640 00b8 BD46     		mov	sp, r7
 641              		.cfi_def_cfa_register 13
 642              		@ sp needed
 643 00ba 80BD     		pop	{r7, pc}
 644              	.L20:
 645              		.align	2
 646              	.L19:
 647 00bc CF010049 		.word	1224737231
 648 00c0 F8460040 		.word	1073759992
 649 00c4 F9460040 		.word	1073759993
 650 00c8 6E580040 		.word	1073764462
 651 00cc 6F580040 		.word	1073764463
 652 00d0 2C510040 		.word	1073762604
 653 00d4 72580040 		.word	1073764466
 654 00d8 01590040 		.word	1073764609
 655 00dc 09590040 		.word	1073764617
 656 00e0 985A0040 		.word	1073765016
 657 00e4 D85A0040 		.word	1073765080
 658 00e8 005B0040 		.word	1073765120
 659 00ec 205B0040 		.word	1073765152
 660 00f0 235B0040 		.word	1073765155
 661 00f4 285B0040 		.word	1073765160
 662 00f8 2B5B0040 		.word	1073765163
 663 00fc 465B0040 		.word	1073765190
 664 0100 585B0040 		.word	1073765208
 665 0104 5B5B0040 		.word	1073765211
 666 0108 76580040 		.word	1073764470
 667              		.cfi_endproc
 668              	.LFE6:
 669              		.size	AnalogSetDefault, .-AnalogSetDefault
 670              		.section	.text.SetAnalogRoutingPumps,"ax",%progbits
 671              		.align	2
 672              		.global	SetAnalogRoutingPumps
 673              		.thumb
 674              		.thumb_func
 675              		.type	SetAnalogRoutingPumps, %function
 676              	SetAnalogRoutingPumps:
 677              	.LFB7:
 341:Generated_Source\PSoC5/cyfitter_cfg.c **** 
 342:Generated_Source\PSoC5/cyfitter_cfg.c **** 
 343:Generated_Source\PSoC5/cyfitter_cfg.c **** /*******************************************************************************
ARM GAS  C:\Users\KJA\AppData\Local\Temp\ccVQyg55.s 			page 19


 344:Generated_Source\PSoC5/cyfitter_cfg.c **** * Function Name: SetAnalogRoutingPumps
 345:Generated_Source\PSoC5/cyfitter_cfg.c **** ********************************************************************************
 346:Generated_Source\PSoC5/cyfitter_cfg.c **** *
 347:Generated_Source\PSoC5/cyfitter_cfg.c **** * Summary:
 348:Generated_Source\PSoC5/cyfitter_cfg.c **** * Enables or disables the analog pumps feeding analog routing switches.
 349:Generated_Source\PSoC5/cyfitter_cfg.c **** * Intended to be called at startup, based on the Vdda system configuration;
 350:Generated_Source\PSoC5/cyfitter_cfg.c **** * may be called during operation when the user informs us that the Vdda voltage
 351:Generated_Source\PSoC5/cyfitter_cfg.c **** * crossed the pump threshold.
 352:Generated_Source\PSoC5/cyfitter_cfg.c **** *
 353:Generated_Source\PSoC5/cyfitter_cfg.c **** * Parameters:
 354:Generated_Source\PSoC5/cyfitter_cfg.c **** *  enabled - 1 to enable the pumps, 0 to disable the pumps
 355:Generated_Source\PSoC5/cyfitter_cfg.c **** *
 356:Generated_Source\PSoC5/cyfitter_cfg.c **** * Return:
 357:Generated_Source\PSoC5/cyfitter_cfg.c **** *  void
 358:Generated_Source\PSoC5/cyfitter_cfg.c **** *
 359:Generated_Source\PSoC5/cyfitter_cfg.c **** *******************************************************************************/
 360:Generated_Source\PSoC5/cyfitter_cfg.c **** void SetAnalogRoutingPumps(uint8 enabled)
 361:Generated_Source\PSoC5/cyfitter_cfg.c **** {
 678              		.loc 1 361 0
 679              		.cfi_startproc
 680              		@ args = 0, pretend = 0, frame = 16
 681              		@ frame_needed = 1, uses_anonymous_args = 0
 682              		@ link register save eliminated.
 683 0000 80B4     		push	{r7}
 684              		.cfi_def_cfa_offset 4
 685              		.cfi_offset 7, -4
 686 0002 85B0     		sub	sp, sp, #20
 687              		.cfi_def_cfa_offset 24
 688 0004 00AF     		add	r7, sp, #0
 689              		.cfi_def_cfa_register 7
 690 0006 0346     		mov	r3, r0
 691 0008 FB71     		strb	r3, [r7, #7]
 362:Generated_Source\PSoC5/cyfitter_cfg.c **** 	uint8 regValue = CY_GET_XTND_REG8((void CYFAR *)CYREG_PUMP_CR0);
 692              		.loc 1 362 0
 693 000a 0B4B     		ldr	r3, .L24
 694 000c 1B78     		ldrb	r3, [r3]
 695 000e FB73     		strb	r3, [r7, #15]
 363:Generated_Source\PSoC5/cyfitter_cfg.c **** 	if (enabled != 0u)
 696              		.loc 1 363 0
 697 0010 FB79     		ldrb	r3, [r7, #7]	@ zero_extendqisi2
 698 0012 002B     		cmp	r3, #0
 699 0014 04D0     		beq	.L22
 364:Generated_Source\PSoC5/cyfitter_cfg.c **** 	{
 365:Generated_Source\PSoC5/cyfitter_cfg.c **** 		regValue |= 0x22u;
 700              		.loc 1 365 0
 701 0016 FB7B     		ldrb	r3, [r7, #15]
 702 0018 43F02203 		orr	r3, r3, #34
 703 001c FB73     		strb	r3, [r7, #15]
 704 001e 03E0     		b	.L23
 705              	.L22:
 366:Generated_Source\PSoC5/cyfitter_cfg.c **** 	}
 367:Generated_Source\PSoC5/cyfitter_cfg.c **** 	else
 368:Generated_Source\PSoC5/cyfitter_cfg.c **** 	{
 369:Generated_Source\PSoC5/cyfitter_cfg.c **** 		regValue &= (uint8)~0x22u;
 706              		.loc 1 369 0
 707 0020 FB7B     		ldrb	r3, [r7, #15]
 708 0022 23F02203 		bic	r3, r3, #34
ARM GAS  C:\Users\KJA\AppData\Local\Temp\ccVQyg55.s 			page 20


 709 0026 FB73     		strb	r3, [r7, #15]
 710              	.L23:
 370:Generated_Source\PSoC5/cyfitter_cfg.c **** 	}
 371:Generated_Source\PSoC5/cyfitter_cfg.c **** 	CY_SET_XTND_REG8((void CYFAR *)CYREG_PUMP_CR0, regValue);
 711              		.loc 1 371 0
 712 0028 034A     		ldr	r2, .L24
 713 002a FB7B     		ldrb	r3, [r7, #15]
 714 002c 1370     		strb	r3, [r2]
 372:Generated_Source\PSoC5/cyfitter_cfg.c **** }
 715              		.loc 1 372 0
 716 002e 1437     		adds	r7, r7, #20
 717              		.cfi_def_cfa_offset 4
 718 0030 BD46     		mov	sp, r7
 719              		.cfi_def_cfa_register 13
 720              		@ sp needed
 721 0032 5DF8047B 		ldr	r7, [sp], #4
 722              		.cfi_restore 7
 723              		.cfi_def_cfa_offset 0
 724 0036 7047     		bx	lr
 725              	.L25:
 726              		.align	2
 727              	.L24:
 728 0038 76580040 		.word	1073764470
 729              		.cfi_endproc
 730              	.LFE7:
 731              		.size	SetAnalogRoutingPumps, .-SetAnalogRoutingPumps
 732              		.global	DAC_MUX__addrTable
 733              		.section	.rodata
 734              		.align	2
 735              		.type	DAC_MUX__addrTable, %object
 736              		.size	DAC_MUX__addrTable, 24
 737              	DAC_MUX__addrTable:
 738 0000 CB5A0040 		.word	1073765067
 739 0004 24430040 		.word	1073759012
 740 0008 3C510040 		.word	1073762620
 741 000c 24430040 		.word	1073759012
 742 0010 8B5A0040 		.word	1073765003
 743 0014 24430040 		.word	1073759012
 744              		.global	DAC_MUX__maskTable
 745              		.align	2
 746              		.type	DAC_MUX__maskTable, %object
 747              		.size	DAC_MUX__maskTable, 6
 748              	DAC_MUX__maskTable:
 749 0018 09       		.byte	9
 750 0019 00       		.byte	0
 751 001a 80       		.byte	-128
 752 001b 00       		.byte	0
 753 001c 01       		.byte	1
 754 001d 00       		.byte	0
 755              		.section	.text.DAC_MUX_Set,"ax",%progbits
 756              		.align	2
 757              		.global	DAC_MUX_Set
 758              		.thumb
 759              		.thumb_func
 760              		.type	DAC_MUX_Set, %function
 761              	DAC_MUX_Set:
 762              	.LFB8:
ARM GAS  C:\Users\KJA\AppData\Local\Temp\ccVQyg55.s 			page 21


 373:Generated_Source\PSoC5/cyfitter_cfg.c **** 
 374:Generated_Source\PSoC5/cyfitter_cfg.c **** #define CY_AMUX_UNUSED CYREG_BOOST_SR
 375:Generated_Source\PSoC5/cyfitter_cfg.c **** /* This is an implementation detail of the AMux. Code that depends on it may be
 376:Generated_Source\PSoC5/cyfitter_cfg.c ****    incompatible with other versions of PSoC Creator. */
 377:Generated_Source\PSoC5/cyfitter_cfg.c **** uint8 CYXDATA * const CYCODE DAC_MUX__addrTable[6] = {
 378:Generated_Source\PSoC5/cyfitter_cfg.c **** 	(uint8 CYXDATA *)CYREG_CMP1_SW3, (uint8 CYXDATA *)CY_AMUX_UNUSED, 
 379:Generated_Source\PSoC5/cyfitter_cfg.c **** 	(uint8 CYXDATA *)CYREG_PRT3_AMUX, (uint8 CYXDATA *)CY_AMUX_UNUSED, 
 380:Generated_Source\PSoC5/cyfitter_cfg.c **** 	(uint8 CYXDATA *)CYREG_DAC1_SW3, (uint8 CYXDATA *)CY_AMUX_UNUSED, 
 381:Generated_Source\PSoC5/cyfitter_cfg.c **** };
 382:Generated_Source\PSoC5/cyfitter_cfg.c **** 
 383:Generated_Source\PSoC5/cyfitter_cfg.c **** /* This is an implementation detail of the AMux. Code that depends on it may be
 384:Generated_Source\PSoC5/cyfitter_cfg.c ****    incompatible with other versions of PSoC Creator. */
 385:Generated_Source\PSoC5/cyfitter_cfg.c **** const uint8 CYCODE DAC_MUX__maskTable[6] = {
 386:Generated_Source\PSoC5/cyfitter_cfg.c **** 	0x09u, 0x00u, 
 387:Generated_Source\PSoC5/cyfitter_cfg.c **** 	0x80u, 0x00u, 
 388:Generated_Source\PSoC5/cyfitter_cfg.c **** 	0x01u, 0x00u, 
 389:Generated_Source\PSoC5/cyfitter_cfg.c **** };
 390:Generated_Source\PSoC5/cyfitter_cfg.c **** 
 391:Generated_Source\PSoC5/cyfitter_cfg.c **** /*******************************************************************************
 392:Generated_Source\PSoC5/cyfitter_cfg.c **** * Function Name: DAC_MUX_Set
 393:Generated_Source\PSoC5/cyfitter_cfg.c **** ********************************************************************************
 394:Generated_Source\PSoC5/cyfitter_cfg.c **** * Summary:
 395:Generated_Source\PSoC5/cyfitter_cfg.c **** *  This function is used to set a particular channel as active on the AMux.
 396:Generated_Source\PSoC5/cyfitter_cfg.c **** *
 397:Generated_Source\PSoC5/cyfitter_cfg.c **** * Parameters:  
 398:Generated_Source\PSoC5/cyfitter_cfg.c **** *   channel - The mux channel input to set as active
 399:Generated_Source\PSoC5/cyfitter_cfg.c **** *
 400:Generated_Source\PSoC5/cyfitter_cfg.c **** * Return:
 401:Generated_Source\PSoC5/cyfitter_cfg.c **** *   void
 402:Generated_Source\PSoC5/cyfitter_cfg.c **** *
 403:Generated_Source\PSoC5/cyfitter_cfg.c **** *******************************************************************************/
 404:Generated_Source\PSoC5/cyfitter_cfg.c **** void DAC_MUX_Set(uint8 channel)
 405:Generated_Source\PSoC5/cyfitter_cfg.c **** {
 763              		.loc 1 405 0
 764              		.cfi_startproc
 765              		@ args = 0, pretend = 0, frame = 8
 766              		@ frame_needed = 1, uses_anonymous_args = 0
 767              		@ link register save eliminated.
 768 0000 80B4     		push	{r7}
 769              		.cfi_def_cfa_offset 4
 770              		.cfi_offset 7, -4
 771 0002 83B0     		sub	sp, sp, #12
 772              		.cfi_def_cfa_offset 16
 773 0004 00AF     		add	r7, sp, #0
 774              		.cfi_def_cfa_register 7
 775 0006 0346     		mov	r3, r0
 776 0008 FB71     		strb	r3, [r7, #7]
 406:Generated_Source\PSoC5/cyfitter_cfg.c **** 	if (channel < 3)
 777              		.loc 1 406 0
 778 000a FB79     		ldrb	r3, [r7, #7]	@ zero_extendqisi2
 779 000c 022B     		cmp	r3, #2
 780 000e 24D8     		bhi	.L26
 407:Generated_Source\PSoC5/cyfitter_cfg.c **** 	{
 408:Generated_Source\PSoC5/cyfitter_cfg.c **** 		channel += channel;
 781              		.loc 1 408 0
 782 0010 FA79     		ldrb	r2, [r7, #7]
 783 0012 FB79     		ldrb	r3, [r7, #7]
ARM GAS  C:\Users\KJA\AppData\Local\Temp\ccVQyg55.s 			page 22


 784 0014 1344     		add	r3, r3, r2
 785 0016 FB71     		strb	r3, [r7, #7]
 409:Generated_Source\PSoC5/cyfitter_cfg.c **** 		*DAC_MUX__addrTable[channel] |= DAC_MUX__maskTable[channel];
 786              		.loc 1 409 0
 787 0018 FB79     		ldrb	r3, [r7, #7]	@ zero_extendqisi2
 788 001a 124A     		ldr	r2, .L28
 789 001c 52F82330 		ldr	r3, [r2, r3, lsl #2]
 790 0020 FA79     		ldrb	r2, [r7, #7]	@ zero_extendqisi2
 791 0022 1049     		ldr	r1, .L28
 792 0024 51F82220 		ldr	r2, [r1, r2, lsl #2]
 793 0028 1178     		ldrb	r1, [r2]	@ zero_extendqisi2
 794 002a FA79     		ldrb	r2, [r7, #7]	@ zero_extendqisi2
 795 002c 0E48     		ldr	r0, .L28+4
 796 002e 825C     		ldrb	r2, [r0, r2]	@ zero_extendqisi2
 797 0030 0A43     		orrs	r2, r2, r1
 798 0032 D2B2     		uxtb	r2, r2
 799 0034 1A70     		strb	r2, [r3]
 410:Generated_Source\PSoC5/cyfitter_cfg.c **** 		channel++;
 800              		.loc 1 410 0
 801 0036 FB79     		ldrb	r3, [r7, #7]	@ zero_extendqisi2
 802 0038 0133     		adds	r3, r3, #1
 803 003a FB71     		strb	r3, [r7, #7]
 411:Generated_Source\PSoC5/cyfitter_cfg.c **** 		*DAC_MUX__addrTable[channel] |= DAC_MUX__maskTable[channel];
 804              		.loc 1 411 0
 805 003c FB79     		ldrb	r3, [r7, #7]	@ zero_extendqisi2
 806 003e 094A     		ldr	r2, .L28
 807 0040 52F82330 		ldr	r3, [r2, r3, lsl #2]
 808 0044 FA79     		ldrb	r2, [r7, #7]	@ zero_extendqisi2
 809 0046 0749     		ldr	r1, .L28
 810 0048 51F82220 		ldr	r2, [r1, r2, lsl #2]
 811 004c 1178     		ldrb	r1, [r2]	@ zero_extendqisi2
 812 004e FA79     		ldrb	r2, [r7, #7]	@ zero_extendqisi2
 813 0050 0548     		ldr	r0, .L28+4
 814 0052 825C     		ldrb	r2, [r0, r2]	@ zero_extendqisi2
 815 0054 0A43     		orrs	r2, r2, r1
 816 0056 D2B2     		uxtb	r2, r2
 817 0058 1A70     		strb	r2, [r3]
 818              	.L26:
 412:Generated_Source\PSoC5/cyfitter_cfg.c **** 	}
 413:Generated_Source\PSoC5/cyfitter_cfg.c **** }
 819              		.loc 1 413 0
 820 005a 0C37     		adds	r7, r7, #12
 821              		.cfi_def_cfa_offset 4
 822 005c BD46     		mov	sp, r7
 823              		.cfi_def_cfa_register 13
 824              		@ sp needed
 825 005e 5DF8047B 		ldr	r7, [sp], #4
 826              		.cfi_restore 7
 827              		.cfi_def_cfa_offset 0
 828 0062 7047     		bx	lr
 829              	.L29:
 830              		.align	2
 831              	.L28:
 832 0064 00000000 		.word	DAC_MUX__addrTable
 833 0068 00000000 		.word	DAC_MUX__maskTable
 834              		.cfi_endproc
 835              	.LFE8:
ARM GAS  C:\Users\KJA\AppData\Local\Temp\ccVQyg55.s 			page 23


 836              		.size	DAC_MUX_Set, .-DAC_MUX_Set
 837              		.section	.text.DAC_MUX_Unset,"ax",%progbits
 838              		.align	2
 839              		.global	DAC_MUX_Unset
 840              		.thumb
 841              		.thumb_func
 842              		.type	DAC_MUX_Unset, %function
 843              	DAC_MUX_Unset:
 844              	.LFB9:
 414:Generated_Source\PSoC5/cyfitter_cfg.c **** 
 415:Generated_Source\PSoC5/cyfitter_cfg.c **** /*******************************************************************************
 416:Generated_Source\PSoC5/cyfitter_cfg.c **** * Function Name: DAC_MUX_Unset
 417:Generated_Source\PSoC5/cyfitter_cfg.c **** ********************************************************************************
 418:Generated_Source\PSoC5/cyfitter_cfg.c **** * Summary:
 419:Generated_Source\PSoC5/cyfitter_cfg.c **** *  This function is used to clear a particular channel from being active on the
 420:Generated_Source\PSoC5/cyfitter_cfg.c **** *  AMux.
 421:Generated_Source\PSoC5/cyfitter_cfg.c **** *
 422:Generated_Source\PSoC5/cyfitter_cfg.c **** * Parameters:  
 423:Generated_Source\PSoC5/cyfitter_cfg.c **** *   channel - The mux channel input to mark inactive
 424:Generated_Source\PSoC5/cyfitter_cfg.c **** *
 425:Generated_Source\PSoC5/cyfitter_cfg.c **** * Return:
 426:Generated_Source\PSoC5/cyfitter_cfg.c **** *   void
 427:Generated_Source\PSoC5/cyfitter_cfg.c **** *
 428:Generated_Source\PSoC5/cyfitter_cfg.c **** *******************************************************************************/
 429:Generated_Source\PSoC5/cyfitter_cfg.c **** void DAC_MUX_Unset(uint8 channel)
 430:Generated_Source\PSoC5/cyfitter_cfg.c **** {
 845              		.loc 1 430 0
 846              		.cfi_startproc
 847              		@ args = 0, pretend = 0, frame = 8
 848              		@ frame_needed = 1, uses_anonymous_args = 0
 849              		@ link register save eliminated.
 850 0000 80B4     		push	{r7}
 851              		.cfi_def_cfa_offset 4
 852              		.cfi_offset 7, -4
 853 0002 83B0     		sub	sp, sp, #12
 854              		.cfi_def_cfa_offset 16
 855 0004 00AF     		add	r7, sp, #0
 856              		.cfi_def_cfa_register 7
 857 0006 0346     		mov	r3, r0
 858 0008 FB71     		strb	r3, [r7, #7]
 431:Generated_Source\PSoC5/cyfitter_cfg.c **** 	if (channel < 3)
 859              		.loc 1 431 0
 860 000a FB79     		ldrb	r3, [r7, #7]	@ zero_extendqisi2
 861 000c 022B     		cmp	r3, #2
 862 000e 28D8     		bhi	.L30
 432:Generated_Source\PSoC5/cyfitter_cfg.c **** 	{
 433:Generated_Source\PSoC5/cyfitter_cfg.c **** 		channel += channel;
 863              		.loc 1 433 0
 864 0010 FA79     		ldrb	r2, [r7, #7]
 865 0012 FB79     		ldrb	r3, [r7, #7]
 866 0014 1344     		add	r3, r3, r2
 867 0016 FB71     		strb	r3, [r7, #7]
 434:Generated_Source\PSoC5/cyfitter_cfg.c **** 		*DAC_MUX__addrTable[channel] &= (uint8)~DAC_MUX__maskTable[channel];
 868              		.loc 1 434 0
 869 0018 FB79     		ldrb	r3, [r7, #7]	@ zero_extendqisi2
 870 001a 144A     		ldr	r2, .L32
 871 001c 52F82330 		ldr	r3, [r2, r3, lsl #2]
ARM GAS  C:\Users\KJA\AppData\Local\Temp\ccVQyg55.s 			page 24


 872 0020 FA79     		ldrb	r2, [r7, #7]	@ zero_extendqisi2
 873 0022 1249     		ldr	r1, .L32
 874 0024 51F82220 		ldr	r2, [r1, r2, lsl #2]
 875 0028 1178     		ldrb	r1, [r2]	@ zero_extendqisi2
 876 002a FA79     		ldrb	r2, [r7, #7]	@ zero_extendqisi2
 877 002c 1048     		ldr	r0, .L32+4
 878 002e 825C     		ldrb	r2, [r0, r2]	@ zero_extendqisi2
 879 0030 D243     		mvns	r2, r2
 880 0032 D2B2     		uxtb	r2, r2
 881 0034 0A40     		ands	r2, r2, r1
 882 0036 D2B2     		uxtb	r2, r2
 883 0038 1A70     		strb	r2, [r3]
 435:Generated_Source\PSoC5/cyfitter_cfg.c **** 		channel++;
 884              		.loc 1 435 0
 885 003a FB79     		ldrb	r3, [r7, #7]	@ zero_extendqisi2
 886 003c 0133     		adds	r3, r3, #1
 887 003e FB71     		strb	r3, [r7, #7]
 436:Generated_Source\PSoC5/cyfitter_cfg.c **** 		*DAC_MUX__addrTable[channel] &= (uint8)~DAC_MUX__maskTable[channel];
 888              		.loc 1 436 0
 889 0040 FB79     		ldrb	r3, [r7, #7]	@ zero_extendqisi2
 890 0042 0A4A     		ldr	r2, .L32
 891 0044 52F82330 		ldr	r3, [r2, r3, lsl #2]
 892 0048 FA79     		ldrb	r2, [r7, #7]	@ zero_extendqisi2
 893 004a 0849     		ldr	r1, .L32
 894 004c 51F82220 		ldr	r2, [r1, r2, lsl #2]
 895 0050 1178     		ldrb	r1, [r2]	@ zero_extendqisi2
 896 0052 FA79     		ldrb	r2, [r7, #7]	@ zero_extendqisi2
 897 0054 0648     		ldr	r0, .L32+4
 898 0056 825C     		ldrb	r2, [r0, r2]	@ zero_extendqisi2
 899 0058 D243     		mvns	r2, r2
 900 005a D2B2     		uxtb	r2, r2
 901 005c 0A40     		ands	r2, r2, r1
 902 005e D2B2     		uxtb	r2, r2
 903 0060 1A70     		strb	r2, [r3]
 904              	.L30:
 437:Generated_Source\PSoC5/cyfitter_cfg.c **** 	}
 438:Generated_Source\PSoC5/cyfitter_cfg.c **** }
 905              		.loc 1 438 0
 906 0062 0C37     		adds	r7, r7, #12
 907              		.cfi_def_cfa_offset 4
 908 0064 BD46     		mov	sp, r7
 909              		.cfi_def_cfa_register 13
 910              		@ sp needed
 911 0066 5DF8047B 		ldr	r7, [sp], #4
 912              		.cfi_restore 7
 913              		.cfi_def_cfa_offset 0
 914 006a 7047     		bx	lr
 915              	.L33:
 916              		.align	2
 917              	.L32:
 918 006c 00000000 		.word	DAC_MUX__addrTable
 919 0070 00000000 		.word	DAC_MUX__maskTable
 920              		.cfi_endproc
 921              	.LFE9:
 922              		.size	DAC_MUX_Unset, .-DAC_MUX_Unset
 923              		.global	ResistiveTouch_1_ADC_AMux__addrTable
 924              		.section	.rodata
ARM GAS  C:\Users\KJA\AppData\Local\Temp\ccVQyg55.s 			page 25


 925 001e 0000     		.align	2
 926              		.type	ResistiveTouch_1_ADC_AMux__addrTable, %object
 927              		.size	ResistiveTouch_1_ADC_AMux__addrTable, 8
 928              	ResistiveTouch_1_ADC_AMux__addrTable:
 929 0020 035B0040 		.word	1073765123
 930 0024 24430040 		.word	1073759012
 931              		.global	ResistiveTouch_1_ADC_AMux__maskTable
 932              		.align	2
 933              		.type	ResistiveTouch_1_ADC_AMux__maskTable, %object
 934              		.size	ResistiveTouch_1_ADC_AMux__maskTable, 2
 935              	ResistiveTouch_1_ADC_AMux__maskTable:
 936 0028 40       		.byte	64
 937 0029 00       		.byte	0
 938              		.section	.text.ResistiveTouch_1_ADC_AMux_Set,"ax",%progbits
 939              		.align	2
 940              		.global	ResistiveTouch_1_ADC_AMux_Set
 941              		.thumb
 942              		.thumb_func
 943              		.type	ResistiveTouch_1_ADC_AMux_Set, %function
 944              	ResistiveTouch_1_ADC_AMux_Set:
 945              	.LFB10:
 439:Generated_Source\PSoC5/cyfitter_cfg.c **** 
 440:Generated_Source\PSoC5/cyfitter_cfg.c **** /* This is an implementation detail of the AMux. Code that depends on it may be
 441:Generated_Source\PSoC5/cyfitter_cfg.c ****    incompatible with other versions of PSoC Creator. */
 442:Generated_Source\PSoC5/cyfitter_cfg.c **** uint8 CYXDATA * const CYCODE ResistiveTouch_1_ADC_AMux__addrTable[2] = {
 443:Generated_Source\PSoC5/cyfitter_cfg.c **** 	(uint8 CYXDATA *)CYREG_DSM0_SW3, 
 444:Generated_Source\PSoC5/cyfitter_cfg.c **** 	(uint8 CYXDATA *)CY_AMUX_UNUSED, 
 445:Generated_Source\PSoC5/cyfitter_cfg.c **** };
 446:Generated_Source\PSoC5/cyfitter_cfg.c **** 
 447:Generated_Source\PSoC5/cyfitter_cfg.c **** /* This is an implementation detail of the AMux. Code that depends on it may be
 448:Generated_Source\PSoC5/cyfitter_cfg.c ****    incompatible with other versions of PSoC Creator. */
 449:Generated_Source\PSoC5/cyfitter_cfg.c **** const uint8 CYCODE ResistiveTouch_1_ADC_AMux__maskTable[2] = {
 450:Generated_Source\PSoC5/cyfitter_cfg.c **** 	0x40u, 
 451:Generated_Source\PSoC5/cyfitter_cfg.c **** 	0x00u, 
 452:Generated_Source\PSoC5/cyfitter_cfg.c **** };
 453:Generated_Source\PSoC5/cyfitter_cfg.c **** 
 454:Generated_Source\PSoC5/cyfitter_cfg.c **** /*******************************************************************************
 455:Generated_Source\PSoC5/cyfitter_cfg.c **** * Function Name: ResistiveTouch_1_ADC_AMux_Set
 456:Generated_Source\PSoC5/cyfitter_cfg.c **** ********************************************************************************
 457:Generated_Source\PSoC5/cyfitter_cfg.c **** * Summary:
 458:Generated_Source\PSoC5/cyfitter_cfg.c **** *  This function is used to set a particular channel as active on the AMux.
 459:Generated_Source\PSoC5/cyfitter_cfg.c **** *
 460:Generated_Source\PSoC5/cyfitter_cfg.c **** * Parameters:  
 461:Generated_Source\PSoC5/cyfitter_cfg.c **** *   channel - The mux channel input to set as active
 462:Generated_Source\PSoC5/cyfitter_cfg.c **** *
 463:Generated_Source\PSoC5/cyfitter_cfg.c **** * Return:
 464:Generated_Source\PSoC5/cyfitter_cfg.c **** *   void
 465:Generated_Source\PSoC5/cyfitter_cfg.c **** *
 466:Generated_Source\PSoC5/cyfitter_cfg.c **** *******************************************************************************/
 467:Generated_Source\PSoC5/cyfitter_cfg.c **** void ResistiveTouch_1_ADC_AMux_Set(uint8 channel)
 468:Generated_Source\PSoC5/cyfitter_cfg.c **** {
 946              		.loc 1 468 0
 947              		.cfi_startproc
 948              		@ args = 0, pretend = 0, frame = 8
 949              		@ frame_needed = 1, uses_anonymous_args = 0
 950              		@ link register save eliminated.
 951 0000 80B4     		push	{r7}
ARM GAS  C:\Users\KJA\AppData\Local\Temp\ccVQyg55.s 			page 26


 952              		.cfi_def_cfa_offset 4
 953              		.cfi_offset 7, -4
 954 0002 83B0     		sub	sp, sp, #12
 955              		.cfi_def_cfa_offset 16
 956 0004 00AF     		add	r7, sp, #0
 957              		.cfi_def_cfa_register 7
 958 0006 0346     		mov	r3, r0
 959 0008 FB71     		strb	r3, [r7, #7]
 469:Generated_Source\PSoC5/cyfitter_cfg.c **** 	if (channel < 2)
 960              		.loc 1 469 0
 961 000a FB79     		ldrb	r3, [r7, #7]	@ zero_extendqisi2
 962 000c 012B     		cmp	r3, #1
 963 000e 0ED8     		bhi	.L34
 470:Generated_Source\PSoC5/cyfitter_cfg.c **** 	{
 471:Generated_Source\PSoC5/cyfitter_cfg.c **** 		*ResistiveTouch_1_ADC_AMux__addrTable[channel] |= ResistiveTouch_1_ADC_AMux__maskTable[channel];
 964              		.loc 1 471 0
 965 0010 FB79     		ldrb	r3, [r7, #7]	@ zero_extendqisi2
 966 0012 094A     		ldr	r2, .L36
 967 0014 52F82330 		ldr	r3, [r2, r3, lsl #2]
 968 0018 FA79     		ldrb	r2, [r7, #7]	@ zero_extendqisi2
 969 001a 0749     		ldr	r1, .L36
 970 001c 51F82220 		ldr	r2, [r1, r2, lsl #2]
 971 0020 1178     		ldrb	r1, [r2]	@ zero_extendqisi2
 972 0022 FA79     		ldrb	r2, [r7, #7]	@ zero_extendqisi2
 973 0024 0548     		ldr	r0, .L36+4
 974 0026 825C     		ldrb	r2, [r0, r2]	@ zero_extendqisi2
 975 0028 0A43     		orrs	r2, r2, r1
 976 002a D2B2     		uxtb	r2, r2
 977 002c 1A70     		strb	r2, [r3]
 978              	.L34:
 472:Generated_Source\PSoC5/cyfitter_cfg.c **** 	}
 473:Generated_Source\PSoC5/cyfitter_cfg.c **** }
 979              		.loc 1 473 0
 980 002e 0C37     		adds	r7, r7, #12
 981              		.cfi_def_cfa_offset 4
 982 0030 BD46     		mov	sp, r7
 983              		.cfi_def_cfa_register 13
 984              		@ sp needed
 985 0032 5DF8047B 		ldr	r7, [sp], #4
 986              		.cfi_restore 7
 987              		.cfi_def_cfa_offset 0
 988 0036 7047     		bx	lr
 989              	.L37:
 990              		.align	2
 991              	.L36:
 992 0038 00000000 		.word	ResistiveTouch_1_ADC_AMux__addrTable
 993 003c 00000000 		.word	ResistiveTouch_1_ADC_AMux__maskTable
 994              		.cfi_endproc
 995              	.LFE10:
 996              		.size	ResistiveTouch_1_ADC_AMux_Set, .-ResistiveTouch_1_ADC_AMux_Set
 997              		.section	.text.ResistiveTouch_1_ADC_AMux_Unset,"ax",%progbits
 998              		.align	2
 999              		.global	ResistiveTouch_1_ADC_AMux_Unset
 1000              		.thumb
 1001              		.thumb_func
 1002              		.type	ResistiveTouch_1_ADC_AMux_Unset, %function
 1003              	ResistiveTouch_1_ADC_AMux_Unset:
ARM GAS  C:\Users\KJA\AppData\Local\Temp\ccVQyg55.s 			page 27


 1004              	.LFB11:
 474:Generated_Source\PSoC5/cyfitter_cfg.c **** 
 475:Generated_Source\PSoC5/cyfitter_cfg.c **** /*******************************************************************************
 476:Generated_Source\PSoC5/cyfitter_cfg.c **** * Function Name: ResistiveTouch_1_ADC_AMux_Unset
 477:Generated_Source\PSoC5/cyfitter_cfg.c **** ********************************************************************************
 478:Generated_Source\PSoC5/cyfitter_cfg.c **** * Summary:
 479:Generated_Source\PSoC5/cyfitter_cfg.c **** *  This function is used to clear a particular channel from being active on the
 480:Generated_Source\PSoC5/cyfitter_cfg.c **** *  AMux.
 481:Generated_Source\PSoC5/cyfitter_cfg.c **** *
 482:Generated_Source\PSoC5/cyfitter_cfg.c **** * Parameters:  
 483:Generated_Source\PSoC5/cyfitter_cfg.c **** *   channel - The mux channel input to mark inactive
 484:Generated_Source\PSoC5/cyfitter_cfg.c **** *
 485:Generated_Source\PSoC5/cyfitter_cfg.c **** * Return:
 486:Generated_Source\PSoC5/cyfitter_cfg.c **** *   void
 487:Generated_Source\PSoC5/cyfitter_cfg.c **** *
 488:Generated_Source\PSoC5/cyfitter_cfg.c **** *******************************************************************************/
 489:Generated_Source\PSoC5/cyfitter_cfg.c **** void ResistiveTouch_1_ADC_AMux_Unset(uint8 channel)
 490:Generated_Source\PSoC5/cyfitter_cfg.c **** {
 1005              		.loc 1 490 0
 1006              		.cfi_startproc
 1007              		@ args = 0, pretend = 0, frame = 8
 1008              		@ frame_needed = 1, uses_anonymous_args = 0
 1009              		@ link register save eliminated.
 1010 0000 80B4     		push	{r7}
 1011              		.cfi_def_cfa_offset 4
 1012              		.cfi_offset 7, -4
 1013 0002 83B0     		sub	sp, sp, #12
 1014              		.cfi_def_cfa_offset 16
 1015 0004 00AF     		add	r7, sp, #0
 1016              		.cfi_def_cfa_register 7
 1017 0006 0346     		mov	r3, r0
 1018 0008 FB71     		strb	r3, [r7, #7]
 491:Generated_Source\PSoC5/cyfitter_cfg.c **** 	if (channel < 2)
 1019              		.loc 1 491 0
 1020 000a FB79     		ldrb	r3, [r7, #7]	@ zero_extendqisi2
 1021 000c 012B     		cmp	r3, #1
 1022 000e 10D8     		bhi	.L38
 492:Generated_Source\PSoC5/cyfitter_cfg.c **** 	{
 493:Generated_Source\PSoC5/cyfitter_cfg.c **** 		*ResistiveTouch_1_ADC_AMux__addrTable[channel] &= (uint8)~ResistiveTouch_1_ADC_AMux__maskTable[ch
 1023              		.loc 1 493 0
 1024 0010 FB79     		ldrb	r3, [r7, #7]	@ zero_extendqisi2
 1025 0012 0A4A     		ldr	r2, .L40
 1026 0014 52F82330 		ldr	r3, [r2, r3, lsl #2]
 1027 0018 FA79     		ldrb	r2, [r7, #7]	@ zero_extendqisi2
 1028 001a 0849     		ldr	r1, .L40
 1029 001c 51F82220 		ldr	r2, [r1, r2, lsl #2]
 1030 0020 1178     		ldrb	r1, [r2]	@ zero_extendqisi2
 1031 0022 FA79     		ldrb	r2, [r7, #7]	@ zero_extendqisi2
 1032 0024 0648     		ldr	r0, .L40+4
 1033 0026 825C     		ldrb	r2, [r0, r2]	@ zero_extendqisi2
 1034 0028 D243     		mvns	r2, r2
 1035 002a D2B2     		uxtb	r2, r2
 1036 002c 0A40     		ands	r2, r2, r1
 1037 002e D2B2     		uxtb	r2, r2
 1038 0030 1A70     		strb	r2, [r3]
 1039              	.L38:
 494:Generated_Source\PSoC5/cyfitter_cfg.c **** 	}
ARM GAS  C:\Users\KJA\AppData\Local\Temp\ccVQyg55.s 			page 28


 495:Generated_Source\PSoC5/cyfitter_cfg.c **** }
 1040              		.loc 1 495 0
 1041 0032 0C37     		adds	r7, r7, #12
 1042              		.cfi_def_cfa_offset 4
 1043 0034 BD46     		mov	sp, r7
 1044              		.cfi_def_cfa_register 13
 1045              		@ sp needed
 1046 0036 5DF8047B 		ldr	r7, [sp], #4
 1047              		.cfi_restore 7
 1048              		.cfi_def_cfa_offset 0
 1049 003a 7047     		bx	lr
 1050              	.L41:
 1051              		.align	2
 1052              	.L40:
 1053 003c 00000000 		.word	ResistiveTouch_1_ADC_AMux__addrTable
 1054 0040 00000000 		.word	ResistiveTouch_1_ADC_AMux__maskTable
 1055              		.cfi_endproc
 1056              	.LFE11:
 1057              		.size	ResistiveTouch_1_ADC_AMux_Unset, .-ResistiveTouch_1_ADC_AMux_Unset
 1058              		.global	ResistiveTouch_1_AMux_curChannel
 1059              		.data
 1060              		.type	ResistiveTouch_1_AMux_curChannel, %object
 1061              		.size	ResistiveTouch_1_AMux_curChannel, 1
 1062              	ResistiveTouch_1_AMux_curChannel:
 1063 0000 FF       		.byte	-1
 1064              		.section	.text.ResistiveTouch_1_AMux_DisconnectAll,"ax",%progbits
 1065              		.align	2
 1066              		.global	ResistiveTouch_1_AMux_DisconnectAll
 1067              		.thumb
 1068              		.thumb_func
 1069              		.type	ResistiveTouch_1_AMux_DisconnectAll, %function
 1070              	ResistiveTouch_1_AMux_DisconnectAll:
 1071              	.LFB12:
 496:Generated_Source\PSoC5/cyfitter_cfg.c **** 
 497:Generated_Source\PSoC5/cyfitter_cfg.c **** int8 ResistiveTouch_1_AMux_curChannel = -1;
 498:Generated_Source\PSoC5/cyfitter_cfg.c **** 
 499:Generated_Source\PSoC5/cyfitter_cfg.c **** void ResistiveTouch_1_AMux_DisconnectAll(void)
 500:Generated_Source\PSoC5/cyfitter_cfg.c **** {
 1072              		.loc 1 500 0
 1073              		.cfi_startproc
 1074              		@ args = 0, pretend = 0, frame = 0
 1075              		@ frame_needed = 1, uses_anonymous_args = 0
 1076              		@ link register save eliminated.
 1077 0000 80B4     		push	{r7}
 1078              		.cfi_def_cfa_offset 4
 1079              		.cfi_offset 7, -4
 1080 0002 00AF     		add	r7, sp, #0
 1081              		.cfi_def_cfa_register 7
 501:Generated_Source\PSoC5/cyfitter_cfg.c **** 	ResistiveTouch_1_AMux_curChannel = -1;
 1082              		.loc 1 501 0
 1083 0004 064B     		ldr	r3, .L43
 1084 0006 FF22     		movs	r2, #255
 1085 0008 1A70     		strb	r2, [r3]
 502:Generated_Source\PSoC5/cyfitter_cfg.c **** 	CY_SET_REG8((void CYXDATA *)CYREG_PRT1_AG, 0x00u);
 1086              		.loc 1 502 0
 1087 000a 064B     		ldr	r3, .L43+4
 1088 000c 0022     		movs	r2, #0
ARM GAS  C:\Users\KJA\AppData\Local\Temp\ccVQyg55.s 			page 29


 1089 000e 1A70     		strb	r2, [r3]
 503:Generated_Source\PSoC5/cyfitter_cfg.c **** 	CY_SET_REG8((void CYXDATA *)CYREG_CMP3_SW0, 0x40u);
 1090              		.loc 1 503 0
 1091 0010 054B     		ldr	r3, .L43+8
 1092 0012 4022     		movs	r2, #64
 1093 0014 1A70     		strb	r2, [r3]
 504:Generated_Source\PSoC5/cyfitter_cfg.c **** }
 1094              		.loc 1 504 0
 1095 0016 BD46     		mov	sp, r7
 1096              		.cfi_def_cfa_register 13
 1097              		@ sp needed
 1098 0018 5DF8047B 		ldr	r7, [sp], #4
 1099              		.cfi_restore 7
 1100              		.cfi_def_cfa_offset 0
 1101 001c 7047     		bx	lr
 1102              	.L44:
 1103 001e 00BF     		.align	2
 1104              	.L43:
 1105 0020 00000000 		.word	ResistiveTouch_1_AMux_curChannel
 1106 0024 1D510040 		.word	1073762589
 1107 0028 D85A0040 		.word	1073765080
 1108              		.cfi_endproc
 1109              	.LFE12:
 1110              		.size	ResistiveTouch_1_AMux_DisconnectAll, .-ResistiveTouch_1_AMux_DisconnectAll
 1111              		.section	.text.ResistiveTouch_1_AMux_Next,"ax",%progbits
 1112              		.align	2
 1113              		.global	ResistiveTouch_1_AMux_Next
 1114              		.thumb
 1115              		.thumb_func
 1116              		.type	ResistiveTouch_1_AMux_Next, %function
 1117              	ResistiveTouch_1_AMux_Next:
 1118              	.LFB13:
 505:Generated_Source\PSoC5/cyfitter_cfg.c **** 
 506:Generated_Source\PSoC5/cyfitter_cfg.c **** #if defined(__C51__) || defined(__CX51__)
 507:Generated_Source\PSoC5/cyfitter_cfg.c ****     #pragma OT(5, SPEED)
 508:Generated_Source\PSoC5/cyfitter_cfg.c **** #endif
 509:Generated_Source\PSoC5/cyfitter_cfg.c **** void ResistiveTouch_1_AMux_Next(void)
 510:Generated_Source\PSoC5/cyfitter_cfg.c **** {
 1119              		.loc 1 510 0
 1120              		.cfi_startproc
 1121              		@ args = 0, pretend = 0, frame = 0
 1122              		@ frame_needed = 1, uses_anonymous_args = 0
 1123              		@ link register save eliminated.
 1124 0000 80B4     		push	{r7}
 1125              		.cfi_def_cfa_offset 4
 1126              		.cfi_offset 7, -4
 1127 0002 00AF     		add	r7, sp, #0
 1128              		.cfi_def_cfa_register 7
 511:Generated_Source\PSoC5/cyfitter_cfg.c **** 	ResistiveTouch_1_AMux_curChannel++;
 1129              		.loc 1 511 0
 1130 0004 224B     		ldr	r3, .L56
 1131 0006 1B78     		ldrb	r3, [r3]	@ zero_extendqisi2
 1132 0008 DBB2     		uxtb	r3, r3
 1133 000a DBB2     		uxtb	r3, r3
 1134 000c 0133     		adds	r3, r3, #1
 1135 000e DBB2     		uxtb	r3, r3
 1136 0010 DAB2     		uxtb	r2, r3
ARM GAS  C:\Users\KJA\AppData\Local\Temp\ccVQyg55.s 			page 30


 1137 0012 1F4B     		ldr	r3, .L56
 1138 0014 1A70     		strb	r2, [r3]
 512:Generated_Source\PSoC5/cyfitter_cfg.c **** 	switch (ResistiveTouch_1_AMux_curChannel)
 1139              		.loc 1 512 0
 1140 0016 1E4B     		ldr	r3, .L56
 1141 0018 1B78     		ldrb	r3, [r3]	@ zero_extendqisi2
 1142 001a 5BB2     		sxtb	r3, r3
 1143 001c 072B     		cmp	r3, #7
 1144 001e 22D8     		bhi	.L46
 1145 0020 01A2     		adr	r2, .L48
 1146 0022 52F823F0 		ldr	pc, [r2, r3, lsl #2]
 1147 0026 00BF     		.p2align 2
 1148              	.L48:
 1149 0028 6D000000 		.word	.L47+1
 1150 002c 7B000000 		.word	.L49+1
 1151 0030 67000000 		.word	.L46+1
 1152 0034 49000000 		.word	.L50+1
 1153 0038 4F000000 		.word	.L51+1
 1154 003c 55000000 		.word	.L52+1
 1155 0040 5B000000 		.word	.L53+1
 1156 0044 61000000 		.word	.L54+1
 1157              		.p2align 1
 1158              	.L50:
 513:Generated_Source\PSoC5/cyfitter_cfg.c **** 	{
 514:Generated_Source\PSoC5/cyfitter_cfg.c **** 	case 3: /* to force jump table (not executed) */
 515:Generated_Source\PSoC5/cyfitter_cfg.c **** 		ResistiveTouch_1_AMux_curChannel = 3;
 1159              		.loc 1 515 0
 1160 0048 114B     		ldr	r3, .L56
 1161 004a 0322     		movs	r2, #3
 1162 004c 1A70     		strb	r2, [r3]
 1163              	.L51:
 516:Generated_Source\PSoC5/cyfitter_cfg.c **** 	case 4: /* to force jump table (not executed) */
 517:Generated_Source\PSoC5/cyfitter_cfg.c **** 		ResistiveTouch_1_AMux_curChannel = 4;
 1164              		.loc 1 517 0
 1165 004e 104B     		ldr	r3, .L56
 1166 0050 0422     		movs	r2, #4
 1167 0052 1A70     		strb	r2, [r3]
 1168              	.L52:
 518:Generated_Source\PSoC5/cyfitter_cfg.c **** 	case 5: /* to force jump table (not executed) */
 519:Generated_Source\PSoC5/cyfitter_cfg.c **** 		ResistiveTouch_1_AMux_curChannel = 5;
 1169              		.loc 1 519 0
 1170 0054 0E4B     		ldr	r3, .L56
 1171 0056 0522     		movs	r2, #5
 1172 0058 1A70     		strb	r2, [r3]
 1173              	.L53:
 520:Generated_Source\PSoC5/cyfitter_cfg.c **** 	case 6: /* to force jump table (not executed) */
 521:Generated_Source\PSoC5/cyfitter_cfg.c **** 		ResistiveTouch_1_AMux_curChannel = 6;
 1174              		.loc 1 521 0
 1175 005a 0D4B     		ldr	r3, .L56
 1176 005c 0622     		movs	r2, #6
 1177 005e 1A70     		strb	r2, [r3]
 1178              	.L54:
 522:Generated_Source\PSoC5/cyfitter_cfg.c **** 	case 7: /* to force jump table (not executed) */
 523:Generated_Source\PSoC5/cyfitter_cfg.c **** 		ResistiveTouch_1_AMux_curChannel = 7;
 1179              		.loc 1 523 0
 1180 0060 0B4B     		ldr	r3, .L56
 1181 0062 0722     		movs	r2, #7
ARM GAS  C:\Users\KJA\AppData\Local\Temp\ccVQyg55.s 			page 31


 1182 0064 1A70     		strb	r2, [r3]
 1183              	.L46:
 524:Generated_Source\PSoC5/cyfitter_cfg.c **** 	case 2:
 525:Generated_Source\PSoC5/cyfitter_cfg.c **** 	default:
 526:Generated_Source\PSoC5/cyfitter_cfg.c **** 		ResistiveTouch_1_AMux_curChannel = 0;
 1184              		.loc 1 526 0
 1185 0066 0A4B     		ldr	r3, .L56
 1186 0068 0022     		movs	r2, #0
 1187 006a 1A70     		strb	r2, [r3]
 1188              	.L47:
 527:Generated_Source\PSoC5/cyfitter_cfg.c **** 	case 0:
 528:Generated_Source\PSoC5/cyfitter_cfg.c **** 		CY_SET_REG8((void CYXDATA *)CYREG_PRT1_AG, 0x40u);
 1189              		.loc 1 528 0
 1190 006c 094B     		ldr	r3, .L56+4
 1191 006e 4022     		movs	r2, #64
 1192 0070 1A70     		strb	r2, [r3]
 529:Generated_Source\PSoC5/cyfitter_cfg.c **** 		CY_SET_REG8((void CYXDATA *)CYREG_CMP3_SW0, 0x40u | 0x04u);
 1193              		.loc 1 529 0
 1194 0072 094B     		ldr	r3, .L56+8
 1195 0074 4422     		movs	r2, #68
 1196 0076 1A70     		strb	r2, [r3]
 530:Generated_Source\PSoC5/cyfitter_cfg.c **** 		break;
 1197              		.loc 1 530 0
 1198 0078 06E0     		b	.L45
 1199              	.L49:
 531:Generated_Source\PSoC5/cyfitter_cfg.c **** 	case 1:
 532:Generated_Source\PSoC5/cyfitter_cfg.c **** 		CY_SET_REG8((void CYXDATA *)CYREG_PRT1_AG, 0x10u);
 1200              		.loc 1 532 0
 1201 007a 064B     		ldr	r3, .L56+4
 1202 007c 1022     		movs	r2, #16
 1203 007e 1A70     		strb	r2, [r3]
 533:Generated_Source\PSoC5/cyfitter_cfg.c **** 		CY_SET_REG8((void CYXDATA *)CYREG_CMP3_SW0, 0x40u | 0x01u);
 1204              		.loc 1 533 0
 1205 0080 054B     		ldr	r3, .L56+8
 1206 0082 4122     		movs	r2, #65
 1207 0084 1A70     		strb	r2, [r3]
 534:Generated_Source\PSoC5/cyfitter_cfg.c **** 		break;
 1208              		.loc 1 534 0
 1209 0086 00BF     		nop
 1210              	.L45:
 535:Generated_Source\PSoC5/cyfitter_cfg.c **** 	}
 536:Generated_Source\PSoC5/cyfitter_cfg.c **** }
 1211              		.loc 1 536 0
 1212 0088 BD46     		mov	sp, r7
 1213              		.cfi_def_cfa_register 13
 1214              		@ sp needed
 1215 008a 5DF8047B 		ldr	r7, [sp], #4
 1216              		.cfi_restore 7
 1217              		.cfi_def_cfa_offset 0
 1218 008e 7047     		bx	lr
 1219              	.L57:
 1220              		.align	2
 1221              	.L56:
 1222 0090 00000000 		.word	ResistiveTouch_1_AMux_curChannel
 1223 0094 1D510040 		.word	1073762589
 1224 0098 D85A0040 		.word	1073765080
 1225              		.cfi_endproc
ARM GAS  C:\Users\KJA\AppData\Local\Temp\ccVQyg55.s 			page 32


 1226              	.LFE13:
 1227              		.size	ResistiveTouch_1_AMux_Next, .-ResistiveTouch_1_AMux_Next
 1228              		.section	.text.cyfitter_cfg,"ax",%progbits
 1229              		.align	2
 1230              		.global	cyfitter_cfg
 1231              		.thumb
 1232              		.thumb_func
 1233              		.type	cyfitter_cfg, %function
 1234              	cyfitter_cfg:
 1235              	.LFB14:
 537:Generated_Source\PSoC5/cyfitter_cfg.c **** 
 538:Generated_Source\PSoC5/cyfitter_cfg.c **** 
 539:Generated_Source\PSoC5/cyfitter_cfg.c **** 
 540:Generated_Source\PSoC5/cyfitter_cfg.c **** /*******************************************************************************
 541:Generated_Source\PSoC5/cyfitter_cfg.c **** * Function Name: cyfitter_cfg
 542:Generated_Source\PSoC5/cyfitter_cfg.c **** ********************************************************************************
 543:Generated_Source\PSoC5/cyfitter_cfg.c **** * Summary:
 544:Generated_Source\PSoC5/cyfitter_cfg.c **** *  This function is called by the start-up code for the selected device. It
 545:Generated_Source\PSoC5/cyfitter_cfg.c **** *  performs all of the necessary device configuration based on the design
 546:Generated_Source\PSoC5/cyfitter_cfg.c **** *  settings.  This includes settings from the Design Wide Resources (DWR) such
 547:Generated_Source\PSoC5/cyfitter_cfg.c **** *  as Clocks and Pins as well as any component configuration that is necessary.
 548:Generated_Source\PSoC5/cyfitter_cfg.c **** *
 549:Generated_Source\PSoC5/cyfitter_cfg.c **** * Parameters:  
 550:Generated_Source\PSoC5/cyfitter_cfg.c **** *   void
 551:Generated_Source\PSoC5/cyfitter_cfg.c **** *
 552:Generated_Source\PSoC5/cyfitter_cfg.c **** * Return:
 553:Generated_Source\PSoC5/cyfitter_cfg.c **** *   void
 554:Generated_Source\PSoC5/cyfitter_cfg.c **** *
 555:Generated_Source\PSoC5/cyfitter_cfg.c **** *******************************************************************************/
 556:Generated_Source\PSoC5/cyfitter_cfg.c **** 
 557:Generated_Source\PSoC5/cyfitter_cfg.c **** void cyfitter_cfg(void)
 558:Generated_Source\PSoC5/cyfitter_cfg.c **** {
 1236              		.loc 1 558 0
 1237              		.cfi_startproc
 1238              		@ args = 0, pretend = 0, frame = 24
 1239              		@ frame_needed = 1, uses_anonymous_args = 0
 1240 0000 80B5     		push	{r7, lr}
 1241              		.cfi_def_cfa_offset 8
 1242              		.cfi_offset 7, -8
 1243              		.cfi_offset 14, -4
 1244 0002 86B0     		sub	sp, sp, #24
 1245              		.cfi_def_cfa_offset 32
 1246 0004 00AF     		add	r7, sp, #0
 1247              		.cfi_def_cfa_register 7
 559:Generated_Source\PSoC5/cyfitter_cfg.c **** #ifdef CYGlobalIntDisable
 560:Generated_Source\PSoC5/cyfitter_cfg.c **** 	/* Disable interrupts by default. Let user enable if/when they want. */
 561:Generated_Source\PSoC5/cyfitter_cfg.c **** 	CYGlobalIntDisable
 1248              		.loc 1 561 0
 1249              	@ 561 "Generated_Source\PSoC5\cyfitter_cfg.c" 1
 1250 0006 72B6     		CPSID   i
 1251              	@ 0 "" 2
 562:Generated_Source\PSoC5/cyfitter_cfg.c **** #endif
 563:Generated_Source\PSoC5/cyfitter_cfg.c **** 
 564:Generated_Source\PSoC5/cyfitter_cfg.c **** 
 565:Generated_Source\PSoC5/cyfitter_cfg.c **** 	/* Set Flash Cycles based on max possible frequency in case a glitch occurs during ClockSetup(). *
 566:Generated_Source\PSoC5/cyfitter_cfg.c **** 	CY_SET_XTND_REG8((void CYFAR *)(CYREG_CACHE_CC_CTL), (((CYDEV_INSTRUCT_CACHE_ENABLED) != 0) ? 0x61
 1252              		.loc 1 566 0
ARM GAS  C:\Users\KJA\AppData\Local\Temp\ccVQyg55.s 			page 33


 1253              		.thumb
 1254 0008 584B     		ldr	r3, .L63
 1255 000a 6022     		movs	r2, #96
 1256 000c 1A70     		strb	r2, [r3]
 567:Generated_Source\PSoC5/cyfitter_cfg.c **** 	/* Setup clocks based on selections from Clock DWR */
 568:Generated_Source\PSoC5/cyfitter_cfg.c **** 	ClockSetup();
 1257              		.loc 1 568 0
 1258 000e FFF7FEFF 		bl	ClockSetup
 569:Generated_Source\PSoC5/cyfitter_cfg.c **** 	/* Enable/Disable Debug functionality based on settings from System DWR */
 570:Generated_Source\PSoC5/cyfitter_cfg.c **** 	CY_SET_XTND_REG8((void CYFAR *)CYREG_MLOGIC_DEBUG, (CY_GET_XTND_REG8((void CYFAR *)CYREG_MLOGIC_DE
 1259              		.loc 1 570 0
 1260 0012 574A     		ldr	r2, .L63+4
 1261 0014 564B     		ldr	r3, .L63+4
 1262 0016 1B78     		ldrb	r3, [r3]
 1263 0018 DBB2     		uxtb	r3, r3
 1264 001a 43F00403 		orr	r3, r3, #4
 1265 001e DBB2     		uxtb	r3, r3
 1266 0020 1370     		strb	r3, [r2]
 1267              	.LBB3:
 571:Generated_Source\PSoC5/cyfitter_cfg.c **** 
 572:Generated_Source\PSoC5/cyfitter_cfg.c **** 	{
 573:Generated_Source\PSoC5/cyfitter_cfg.c **** 
 574:Generated_Source\PSoC5/cyfitter_cfg.c **** 		CYPACKED typedef struct {
 575:Generated_Source\PSoC5/cyfitter_cfg.c **** 			void CYFAR *address;
 576:Generated_Source\PSoC5/cyfitter_cfg.c **** 			uint16 size;
 577:Generated_Source\PSoC5/cyfitter_cfg.c **** 		} CYPACKED_ATTR cfg_memset_t;
 578:Generated_Source\PSoC5/cyfitter_cfg.c **** 
 579:Generated_Source\PSoC5/cyfitter_cfg.c **** 
 580:Generated_Source\PSoC5/cyfitter_cfg.c **** 		CYPACKED typedef struct {
 581:Generated_Source\PSoC5/cyfitter_cfg.c **** 			void CYFAR *dest;
 582:Generated_Source\PSoC5/cyfitter_cfg.c **** 			const void CYFAR *src;
 583:Generated_Source\PSoC5/cyfitter_cfg.c **** 			uint16 size;
 584:Generated_Source\PSoC5/cyfitter_cfg.c **** 		} CYPACKED_ATTR cfg_memcpy_t;
 585:Generated_Source\PSoC5/cyfitter_cfg.c **** 
 586:Generated_Source\PSoC5/cyfitter_cfg.c **** 		static const cfg_memset_t CYCODE cfg_memset_list [] = {
 587:Generated_Source\PSoC5/cyfitter_cfg.c **** 			/* address, size */
 588:Generated_Source\PSoC5/cyfitter_cfg.c **** 			{(void CYFAR *)(CYREG_I2C_XCFG), 25u},
 589:Generated_Source\PSoC5/cyfitter_cfg.c **** 			{(void CYFAR *)(CYREG_PRT4_DR), 48u},
 590:Generated_Source\PSoC5/cyfitter_cfg.c **** 			{(void CYFAR *)(CYDEV_UCFG_B0_P0_U0_BASE), 4096u},
 591:Generated_Source\PSoC5/cyfitter_cfg.c **** 			{(void CYFAR *)(CYDEV_UCFG_B1_P2_U0_BASE), 1024u},
 592:Generated_Source\PSoC5/cyfitter_cfg.c **** 			{(void CYFAR *)(CYDEV_UCFG_B1_P4_U1_BASE), 896u},
 593:Generated_Source\PSoC5/cyfitter_cfg.c **** 			{(void CYFAR *)(CYDEV_UCFG_DSI0_BASE), 2560u},
 594:Generated_Source\PSoC5/cyfitter_cfg.c **** 			{(void CYFAR *)(CYDEV_UCFG_DSI12_BASE), 512u},
 595:Generated_Source\PSoC5/cyfitter_cfg.c **** 			{(void CYFAR *)(CYREG_BCTL1_MDCLK_EN), 16u},
 596:Generated_Source\PSoC5/cyfitter_cfg.c **** 		};
 597:Generated_Source\PSoC5/cyfitter_cfg.c **** 
 598:Generated_Source\PSoC5/cyfitter_cfg.c **** 		static const cfg_memcpy_t CYCODE cfg_memcpy_list [] = {
 599:Generated_Source\PSoC5/cyfitter_cfg.c **** 			/* dest, src, size */
 600:Generated_Source\PSoC5/cyfitter_cfg.c **** 			{(void CYFAR *)(CYDEV_UCFG_B1_P4_U0_BASE), BS_UDB_0_1_1_CONFIG_VAL, 128u},
 601:Generated_Source\PSoC5/cyfitter_cfg.c **** 			{(void CYFAR *)(CYREG_BCTL0_MDCLK_EN), BS_UCFG_BCTL0_VAL, 16u},
 602:Generated_Source\PSoC5/cyfitter_cfg.c **** 		};
 603:Generated_Source\PSoC5/cyfitter_cfg.c **** 
 604:Generated_Source\PSoC5/cyfitter_cfg.c **** 		uint8 CYDATA i;
 605:Generated_Source\PSoC5/cyfitter_cfg.c **** 
 606:Generated_Source\PSoC5/cyfitter_cfg.c **** 		/* Zero out critical memory blocks before beginning configuration */
 607:Generated_Source\PSoC5/cyfitter_cfg.c **** 		for (i = 0u; i < (sizeof(cfg_memset_list)/sizeof(cfg_memset_list[0])); i++)
 1268              		.loc 1 607 0
ARM GAS  C:\Users\KJA\AppData\Local\Temp\ccVQyg55.s 			page 34


 1269 0022 0023     		movs	r3, #0
 1270 0024 FB75     		strb	r3, [r7, #23]
 1271 0026 13E0     		b	.L59
 1272              	.L60:
 1273              	.LBB4:
 608:Generated_Source\PSoC5/cyfitter_cfg.c **** 		{
 609:Generated_Source\PSoC5/cyfitter_cfg.c **** 			const cfg_memset_t CYCODE * CYDATA ms = &cfg_memset_list[i];
 1274              		.loc 1 609 0 discriminator 3
 1275 0028 FA7D     		ldrb	r2, [r7, #23]	@ zero_extendqisi2
 1276 002a 1346     		mov	r3, r2
 1277 002c 5B00     		lsls	r3, r3, #1
 1278 002e 1344     		add	r3, r3, r2
 1279 0030 5B00     		lsls	r3, r3, #1
 1280 0032 504A     		ldr	r2, .L63+8
 1281 0034 1344     		add	r3, r3, r2
 1282 0036 3B61     		str	r3, [r7, #16]
 610:Generated_Source\PSoC5/cyfitter_cfg.c **** 			CYMEMZERO(ms->address, (size_t)(uint32)(ms->size));
 1283              		.loc 1 610 0 discriminator 3
 1284 0038 3B69     		ldr	r3, [r7, #16]
 1285 003a 1A68     		ldr	r2, [r3]	@ unaligned
 1286 003c 3B69     		ldr	r3, [r7, #16]
 1287 003e 9B88     		ldrh	r3, [r3, #4]	@ unaligned
 1288 0040 9BB2     		uxth	r3, r3
 1289 0042 1046     		mov	r0, r2
 1290 0044 1946     		mov	r1, r3
 1291 0046 FFF7FEFF 		bl	CYMEMZERO
 1292              	.LBE4:
 607:Generated_Source\PSoC5/cyfitter_cfg.c **** 		{
 1293              		.loc 1 607 0 discriminator 3
 1294 004a FB7D     		ldrb	r3, [r7, #23]	@ zero_extendqisi2
 1295 004c 0133     		adds	r3, r3, #1
 1296 004e FB75     		strb	r3, [r7, #23]
 1297              	.L59:
 607:Generated_Source\PSoC5/cyfitter_cfg.c **** 		{
 1298              		.loc 1 607 0 is_stmt 0 discriminator 1
 1299 0050 FB7D     		ldrb	r3, [r7, #23]	@ zero_extendqisi2
 1300 0052 072B     		cmp	r3, #7
 1301 0054 E8D9     		bls	.L60
 611:Generated_Source\PSoC5/cyfitter_cfg.c **** 		}
 612:Generated_Source\PSoC5/cyfitter_cfg.c **** 
 613:Generated_Source\PSoC5/cyfitter_cfg.c **** 		/* Copy device configuration data into registers */
 614:Generated_Source\PSoC5/cyfitter_cfg.c **** 		for (i = 0u; i < (sizeof(cfg_memcpy_list)/sizeof(cfg_memcpy_list[0])); i++)
 1302              		.loc 1 614 0 is_stmt 1
 1303 0056 0023     		movs	r3, #0
 1304 0058 FB75     		strb	r3, [r7, #23]
 1305 005a 1CE0     		b	.L61
 1306              	.L62:
 1307              	.LBB5:
 615:Generated_Source\PSoC5/cyfitter_cfg.c **** 		{
 616:Generated_Source\PSoC5/cyfitter_cfg.c **** 			const cfg_memcpy_t CYCODE * CYDATA mc = &cfg_memcpy_list[i];
 1308              		.loc 1 616 0 discriminator 3
 1309 005c FA7D     		ldrb	r2, [r7, #23]	@ zero_extendqisi2
 1310 005e 1346     		mov	r3, r2
 1311 0060 9B00     		lsls	r3, r3, #2
 1312 0062 1344     		add	r3, r3, r2
 1313 0064 5B00     		lsls	r3, r3, #1
 1314 0066 444A     		ldr	r2, .L63+12
ARM GAS  C:\Users\KJA\AppData\Local\Temp\ccVQyg55.s 			page 35


 1315 0068 1344     		add	r3, r3, r2
 1316 006a FB60     		str	r3, [r7, #12]
 617:Generated_Source\PSoC5/cyfitter_cfg.c **** 			void * CYDATA destPtr = mc->dest;
 1317              		.loc 1 617 0 discriminator 3
 1318 006c FB68     		ldr	r3, [r7, #12]
 1319 006e 1B68     		ldr	r3, [r3]	@ unaligned
 1320 0070 BB60     		str	r3, [r7, #8]
 618:Generated_Source\PSoC5/cyfitter_cfg.c **** 			const void * CYDATA srcPtr = mc->src;
 1321              		.loc 1 618 0 discriminator 3
 1322 0072 FB68     		ldr	r3, [r7, #12]
 1323 0074 5B68     		ldr	r3, [r3, #4]	@ unaligned
 1324 0076 7B60     		str	r3, [r7, #4]
 619:Generated_Source\PSoC5/cyfitter_cfg.c **** 			uint16 CYDATA numBytes = mc->size;
 1325              		.loc 1 619 0 discriminator 3
 1326 0078 FB68     		ldr	r3, [r7, #12]
 1327 007a 1A7A     		ldrb	r2, [r3, #8]	@ zero_extendqisi2
 1328 007c 5B7A     		ldrb	r3, [r3, #9]	@ zero_extendqisi2
 1329 007e 1B02     		lsls	r3, r3, #8
 1330 0080 1343     		orrs	r3, r3, r2
 1331 0082 7B80     		strh	r3, [r7, #2]	@ movhi
 620:Generated_Source\PSoC5/cyfitter_cfg.c **** 			CYCONFIGCPY(destPtr, srcPtr, numBytes);
 1332              		.loc 1 620 0 discriminator 3
 1333 0084 7B88     		ldrh	r3, [r7, #2]
 1334 0086 B868     		ldr	r0, [r7, #8]
 1335 0088 7968     		ldr	r1, [r7, #4]
 1336 008a 1A46     		mov	r2, r3
 1337 008c FFF7FEFF 		bl	CYCONFIGCPY
 1338              	.LBE5:
 614:Generated_Source\PSoC5/cyfitter_cfg.c **** 		{
 1339              		.loc 1 614 0 discriminator 3
 1340 0090 FB7D     		ldrb	r3, [r7, #23]	@ zero_extendqisi2
 1341 0092 0133     		adds	r3, r3, #1
 1342 0094 FB75     		strb	r3, [r7, #23]
 1343              	.L61:
 614:Generated_Source\PSoC5/cyfitter_cfg.c **** 		{
 1344              		.loc 1 614 0 is_stmt 0 discriminator 1
 1345 0096 FB7D     		ldrb	r3, [r7, #23]	@ zero_extendqisi2
 1346 0098 012B     		cmp	r3, #1
 1347 009a DFD9     		bls	.L62
 621:Generated_Source\PSoC5/cyfitter_cfg.c **** 		}
 622:Generated_Source\PSoC5/cyfitter_cfg.c **** 
 623:Generated_Source\PSoC5/cyfitter_cfg.c **** 		cfg_write_bytes32(cy_cfg_addr_table, cy_cfg_data_table);
 1348              		.loc 1 623 0 is_stmt 1
 1349 009c 4FF09040 		mov	r0, #1207959552
 1350 00a0 3649     		ldr	r1, .L63+16
 1351 00a2 FFF7FEFF 		bl	cfg_write_bytes32
 624:Generated_Source\PSoC5/cyfitter_cfg.c **** 
 625:Generated_Source\PSoC5/cyfitter_cfg.c **** 		/* Perform normal device configuration. Order is not critical for these items. */
 626:Generated_Source\PSoC5/cyfitter_cfg.c **** 		CY_SET_XTND_REG8((void CYFAR *)(CYREG_DSM0_CR3), 0x0Au);
 1352              		.loc 1 626 0
 1353 00a6 364B     		ldr	r3, .L63+20
 1354 00a8 0A22     		movs	r2, #10
 1355 00aa 1A70     		strb	r2, [r3]
 627:Generated_Source\PSoC5/cyfitter_cfg.c **** 		CYMEMZERO((void CYFAR *)(CYREG_PHUB_CFGMEM0_CFG0), 4u);
 1356              		.loc 1 627 0
 1357 00ac 3548     		ldr	r0, .L63+24
 1358 00ae 0421     		movs	r1, #4
ARM GAS  C:\Users\KJA\AppData\Local\Temp\ccVQyg55.s 			page 36


 1359 00b0 FFF7FEFF 		bl	CYMEMZERO
 628:Generated_Source\PSoC5/cyfitter_cfg.c **** 		CYMEMZERO((void CYFAR *)(CYREG_PHUB_CFGMEM1_CFG0), 4u);
 1360              		.loc 1 628 0
 1361 00b4 3448     		ldr	r0, .L63+28
 1362 00b6 0421     		movs	r1, #4
 1363 00b8 FFF7FEFF 		bl	CYMEMZERO
 629:Generated_Source\PSoC5/cyfitter_cfg.c **** 		CYMEMZERO((void CYFAR *)(CYREG_PHUB_CFGMEM2_CFG0), 4u);
 1364              		.loc 1 629 0
 1365 00bc 3348     		ldr	r0, .L63+32
 1366 00be 0421     		movs	r1, #4
 1367 00c0 FFF7FEFF 		bl	CYMEMZERO
 630:Generated_Source\PSoC5/cyfitter_cfg.c **** 
 631:Generated_Source\PSoC5/cyfitter_cfg.c **** 		/* Enable digital routing */
 632:Generated_Source\PSoC5/cyfitter_cfg.c **** 		CY_SET_XTND_REG8((void CYFAR *)CYREG_BCTL0_BANK_CTL, CY_GET_XTND_REG8((void CYFAR *)CYREG_BCTL0_B
 1368              		.loc 1 632 0
 1369 00c4 324A     		ldr	r2, .L63+36
 1370 00c6 324B     		ldr	r3, .L63+36
 1371 00c8 1B78     		ldrb	r3, [r3]
 1372 00ca DBB2     		uxtb	r3, r3
 1373 00cc 43F00203 		orr	r3, r3, #2
 1374 00d0 DBB2     		uxtb	r3, r3
 1375 00d2 1370     		strb	r3, [r2]
 633:Generated_Source\PSoC5/cyfitter_cfg.c **** 		CY_SET_XTND_REG8((void CYFAR *)CYREG_BCTL1_BANK_CTL, CY_GET_XTND_REG8((void CYFAR *)CYREG_BCTL1_B
 1376              		.loc 1 633 0
 1377 00d4 2F4A     		ldr	r2, .L63+40
 1378 00d6 2F4B     		ldr	r3, .L63+40
 1379 00d8 1B78     		ldrb	r3, [r3]
 1380 00da DBB2     		uxtb	r3, r3
 1381 00dc 43F00203 		orr	r3, r3, #2
 1382 00e0 DBB2     		uxtb	r3, r3
 1383 00e2 1370     		strb	r3, [r2]
 634:Generated_Source\PSoC5/cyfitter_cfg.c **** 
 635:Generated_Source\PSoC5/cyfitter_cfg.c **** 		/* Enable UDB array */
 636:Generated_Source\PSoC5/cyfitter_cfg.c **** 		CY_SET_XTND_REG8((void CYFAR *)CYREG_PM_ACT_CFG0, CY_GET_XTND_REG8((void CYFAR *)CYREG_PM_ACT_CFG
 1384              		.loc 1 636 0
 1385 00e4 2C4A     		ldr	r2, .L63+44
 1386 00e6 2C4B     		ldr	r3, .L63+44
 1387 00e8 1B78     		ldrb	r3, [r3]
 1388 00ea DBB2     		uxtb	r3, r3
 1389 00ec 43F04003 		orr	r3, r3, #64
 1390 00f0 DBB2     		uxtb	r3, r3
 1391 00f2 1370     		strb	r3, [r2]
 637:Generated_Source\PSoC5/cyfitter_cfg.c **** 		CY_SET_XTND_REG8((void CYFAR *)CYREG_PM_AVAIL_CR2, CY_GET_XTND_REG8((void CYFAR *)CYREG_PM_AVAIL_
 1392              		.loc 1 637 0
 1393 00f4 294A     		ldr	r2, .L63+48
 1394 00f6 294B     		ldr	r3, .L63+48
 1395 00f8 1B78     		ldrb	r3, [r3]
 1396 00fa DBB2     		uxtb	r3, r3
 1397 00fc 43F01003 		orr	r3, r3, #16
 1398 0100 DBB2     		uxtb	r3, r3
 1399 0102 1370     		strb	r3, [r2]
 1400              	.LBE3:
 638:Generated_Source\PSoC5/cyfitter_cfg.c **** 	}
 639:Generated_Source\PSoC5/cyfitter_cfg.c **** 
 640:Generated_Source\PSoC5/cyfitter_cfg.c **** 
 641:Generated_Source\PSoC5/cyfitter_cfg.c **** 	/* Perform second pass device configuration. These items must be configured in specific order afte
 642:Generated_Source\PSoC5/cyfitter_cfg.c **** 	CYCONFIGCPY((void CYFAR *)(CYREG_PRT0_DM0), (const void CYFAR *)(BS_IOPINS0_0_VAL), 8u);
ARM GAS  C:\Users\KJA\AppData\Local\Temp\ccVQyg55.s 			page 37


 1401              		.loc 1 642 0
 1402 0104 2648     		ldr	r0, .L63+52
 1403 0106 2749     		ldr	r1, .L63+56
 1404 0108 0822     		movs	r2, #8
 1405 010a FFF7FEFF 		bl	CYCONFIGCPY
 643:Generated_Source\PSoC5/cyfitter_cfg.c **** 	CYCONFIGCPY((void CYFAR *)(CYREG_PRT12_DM0), (const void CYFAR *)(BS_IOPINS0_7_VAL), 8u);
 1406              		.loc 1 643 0
 1407 010e 2648     		ldr	r0, .L63+60
 1408 0110 2649     		ldr	r1, .L63+64
 1409 0112 0822     		movs	r2, #8
 1410 0114 FFF7FEFF 		bl	CYCONFIGCPY
 644:Generated_Source\PSoC5/cyfitter_cfg.c **** 	CYCONFIGCPY((void CYFAR *)(CYREG_PRT15_DR), (const void CYFAR *)(BS_IOPINS0_8_VAL), 10u);
 1411              		.loc 1 644 0
 1412 0118 2548     		ldr	r0, .L63+68
 1413 011a 2649     		ldr	r1, .L63+72
 1414 011c 0A22     		movs	r2, #10
 1415 011e FFF7FEFF 		bl	CYCONFIGCPY
 645:Generated_Source\PSoC5/cyfitter_cfg.c **** 	CYCONFIGCPY((void CYFAR *)(CYREG_PRT1_DR), (const void CYFAR *)(BS_IOPINS0_1_VAL), 10u);
 1416              		.loc 1 645 0
 1417 0122 2548     		ldr	r0, .L63+76
 1418 0124 2549     		ldr	r1, .L63+80
 1419 0126 0A22     		movs	r2, #10
 1420 0128 FFF7FEFF 		bl	CYCONFIGCPY
 646:Generated_Source\PSoC5/cyfitter_cfg.c **** 	CYCONFIGCPY((void CYFAR *)(CYREG_PRT2_DM0), (const void CYFAR *)(BS_IOPINS0_2_VAL), 8u);
 1421              		.loc 1 646 0
 1422 012c 2448     		ldr	r0, .L63+84
 1423 012e 2549     		ldr	r1, .L63+88
 1424 0130 0822     		movs	r2, #8
 1425 0132 FFF7FEFF 		bl	CYCONFIGCPY
 647:Generated_Source\PSoC5/cyfitter_cfg.c **** 	CYCONFIGCPY((void CYFAR *)(CYREG_PRT3_DM0), (const void CYFAR *)(BS_IOPINS0_3_VAL), 8u);
 1426              		.loc 1 647 0
 1427 0136 2448     		ldr	r0, .L63+92
 1428 0138 2449     		ldr	r1, .L63+96
 1429 013a 0822     		movs	r2, #8
 1430 013c FFF7FEFF 		bl	CYCONFIGCPY
 648:Generated_Source\PSoC5/cyfitter_cfg.c **** 	CY_SET_XTND_REG8((void CYFAR *)(CYREG_B0_P3_U1_CFG27), 0x84u);
 1431              		.loc 1 648 0
 1432 0140 234B     		ldr	r3, .L63+100
 1433 0142 8422     		movs	r2, #132
 1434 0144 1A70     		strb	r2, [r3]
 649:Generated_Source\PSoC5/cyfitter_cfg.c **** 	/* Switch Boost to the precision bandgap reference from its internal reference */
 650:Generated_Source\PSoC5/cyfitter_cfg.c **** 	CY_SET_REG8((void CYXDATA *)CYREG_BOOST_CR2, (CY_GET_REG8((void CYXDATA *)CYREG_BOOST_CR2) | 0x08u
 1435              		.loc 1 650 0
 1436 0146 234A     		ldr	r2, .L63+104
 1437 0148 224B     		ldr	r3, .L63+104
 1438 014a 1B78     		ldrb	r3, [r3]
 1439 014c DBB2     		uxtb	r3, r3
 1440 014e 43F00803 		orr	r3, r3, #8
 1441 0152 DBB2     		uxtb	r3, r3
 1442 0154 1370     		strb	r3, [r2]
 651:Generated_Source\PSoC5/cyfitter_cfg.c **** 
 652:Generated_Source\PSoC5/cyfitter_cfg.c **** 	/* Perform basic analog initialization to defaults */
 653:Generated_Source\PSoC5/cyfitter_cfg.c **** 	AnalogSetDefault();
 1443              		.loc 1 653 0
 1444 0156 FFF7FEFF 		bl	AnalogSetDefault
 654:Generated_Source\PSoC5/cyfitter_cfg.c **** 
 655:Generated_Source\PSoC5/cyfitter_cfg.c **** 	/* Configure alternate active mode */
ARM GAS  C:\Users\KJA\AppData\Local\Temp\ccVQyg55.s 			page 38


 656:Generated_Source\PSoC5/cyfitter_cfg.c **** 	CYCONFIGCPY((void CYFAR *)CYDEV_PM_STBY_BASE, (const void CYFAR *)CYDEV_PM_ACT_BASE, 14u);
 1445              		.loc 1 656 0
 1446 015a 1F48     		ldr	r0, .L63+108
 1447 015c 0E49     		ldr	r1, .L63+44
 1448 015e 0E22     		movs	r2, #14
 1449 0160 FFF7FEFF 		bl	CYCONFIGCPY
 657:Generated_Source\PSoC5/cyfitter_cfg.c **** }
 1450              		.loc 1 657 0
 1451 0164 1837     		adds	r7, r7, #24
 1452              		.cfi_def_cfa_offset 8
 1453 0166 BD46     		mov	sp, r7
 1454              		.cfi_def_cfa_register 13
 1455              		@ sp needed
 1456 0168 80BD     		pop	{r7, pc}
 1457              	.L64:
 1458 016a 00BF     		.align	2
 1459              	.L63:
 1460 016c 00480040 		.word	1073760256
 1461 0170 E8460040 		.word	1073759976
 1462 0174 2C000000 		.word	cfg_memset_list.4937
 1463 0178 5C000000 		.word	cfg_memcpy_list.4938
 1464 017c A8000048 		.word	1207959720
 1465 0180 83580040 		.word	1073764483
 1466 0184 00760040 		.word	1073772032
 1467 0188 08760040 		.word	1073772040
 1468 018c 10760040 		.word	1073772048
 1469 0190 03500140 		.word	1073827843
 1470 0194 13500140 		.word	1073827859
 1471 0198 A0430040 		.word	1073759136
 1472 019c C2430040 		.word	1073759170
 1473 01a0 02510040 		.word	1073762562
 1474 01a4 DC0D0048 		.word	1207963100
 1475 01a8 C2510040 		.word	1073762754
 1476 01ac E40D0048 		.word	1207963108
 1477 01b0 F0510040 		.word	1073762800
 1478 01b4 EC0D0048 		.word	1207963116
 1479 01b8 10510040 		.word	1073762576
 1480 01bc F80D0048 		.word	1207963128
 1481 01c0 22510040 		.word	1073762594
 1482 01c4 040E0048 		.word	1207963140
 1483 01c8 32510040 		.word	1073762610
 1484 01cc 0C0E0048 		.word	1207963148
 1485 01d0 DB060140 		.word	1073809115
 1486 01d4 22430040 		.word	1073759010
 1487 01d8 B0430040 		.word	1073759152
 1488              		.cfi_endproc
 1489              	.LFE14:
 1490              		.size	cyfitter_cfg, .-cyfitter_cfg
 1491              		.section	.rodata
 1492 002a 0000     		.align	2
 1493              		.type	cfg_memset_list.4937, %object
 1494              		.size	cfg_memset_list.4937, 48
 1495              	cfg_memset_list.4937:
 1496 002c C8490040 		.word	1073760712
 1497 0030 1900     		.short	25
 1498 0032 40510040 		.4byte	1073762624
 1499 0036 3000     		.short	48
ARM GAS  C:\Users\KJA\AppData\Local\Temp\ccVQyg55.s 			page 39


 1500 0038 00000140 		.word	1073807360
 1501 003c 0010     		.short	4096
 1502 003e 00140140 		.4byte	1073812480
 1503 0042 0004     		.short	1024
 1504 0044 80180140 		.word	1073813632
 1505 0048 8003     		.short	896
 1506 004a 00400140 		.4byte	1073823744
 1507 004e 000A     		.short	2560
 1508 0050 004C0140 		.word	1073826816
 1509 0054 0002     		.short	512
 1510 0056 10500140 		.4byte	1073827856
 1511 005a 1000     		.short	16
 1512              		.align	2
 1513              		.type	cfg_memcpy_list.4938, %object
 1514              		.size	cfg_memcpy_list.4938, 20
 1515              	cfg_memcpy_list.4938:
 1516 005c 00180140 		.word	1073813504
 1517 0060 4C0D0048 		.word	1207962956
 1518 0064 8000     		.short	128
 1519 0066 00500140 		.4byte	1073827840
 1520 006a CC0D0048 		.4byte	1207963084
 1521 006e 1000     		.short	16
 1522              		.text
 1523              	.Letext0:
 1524              		.file 2 "c:\\program files (x86)\\cypress\\psoc creator\\4.0\\psoc creator\\import\\gnu\\arm\\4.9.
 1525              		.file 3 "Generated_Source\\PSoC5\\cytypes.h"