ARM GAS  C:\Users\KJA\AppData\Local\Temp\ccrj3nsr.s 			page 1


   1              		.syntax unified
   2              		.cpu cortex-m3
   3              		.fpu softvfp
   4              		.eabi_attribute 20, 1
   5              		.eabi_attribute 21, 1
   6              		.eabi_attribute 23, 3
   7              		.eabi_attribute 24, 1
   8              		.eabi_attribute 25, 1
   9              		.eabi_attribute 26, 1
  10              		.eabi_attribute 30, 6
  11              		.eabi_attribute 34, 1
  12              		.eabi_attribute 18, 4
  13              		.thumb
  14              		.file	"DieTemp.c"
  15              		.text
  16              	.Ltext0:
  17              		.cfi_sections	.debug_frame
  18              		.section	.text.DieTemp_Start,"ax",%progbits
  19              		.align	2
  20              		.global	DieTemp_Start
  21              		.thumb
  22              		.thumb_func
  23              		.type	DieTemp_Start, %function
  24              	DieTemp_Start:
  25              	.LFB0:
  26              		.file 1 "Generated_Source\\PSoC5\\DieTemp.c"
   1:Generated_Source\PSoC5/DieTemp.c **** /*******************************************************************************
   2:Generated_Source\PSoC5/DieTemp.c **** * File Name: DieTemp_DieTemp.c
   3:Generated_Source\PSoC5/DieTemp.c **** * Version 2.0
   4:Generated_Source\PSoC5/DieTemp.c **** *
   5:Generated_Source\PSoC5/DieTemp.c **** * Description:
   6:Generated_Source\PSoC5/DieTemp.c **** *  Provides the API to acquire the die temperature.
   7:Generated_Source\PSoC5/DieTemp.c **** *
   8:Generated_Source\PSoC5/DieTemp.c **** ********************************************************************************
   9:Generated_Source\PSoC5/DieTemp.c **** * Copyright 2008-2012, Cypress Semiconductor Corporation.  All rights reserved.
  10:Generated_Source\PSoC5/DieTemp.c **** * You may use this file only in accordance with the license, terms, conditions,
  11:Generated_Source\PSoC5/DieTemp.c **** * disclaimers, and limitations in the end user license agreement accompanying
  12:Generated_Source\PSoC5/DieTemp.c **** * the software package with which this file was provided.
  13:Generated_Source\PSoC5/DieTemp.c **** *******************************************************************************/
  14:Generated_Source\PSoC5/DieTemp.c **** 
  15:Generated_Source\PSoC5/DieTemp.c **** 
  16:Generated_Source\PSoC5/DieTemp.c **** #include <cydevice_trm.H>
  17:Generated_Source\PSoC5/DieTemp.c **** #include <DieTemp.h>
  18:Generated_Source\PSoC5/DieTemp.c **** 
  19:Generated_Source\PSoC5/DieTemp.c **** 
  20:Generated_Source\PSoC5/DieTemp.c **** #define DieTemp_NUMBER_OF_SAMPLES      (0x1u)
  21:Generated_Source\PSoC5/DieTemp.c **** #define DieTemp_TIMER_PERIOD           (0xFFFu)
  22:Generated_Source\PSoC5/DieTemp.c **** #define DieTemp_CLK_DIV_SELECT         (0x4u)
  23:Generated_Source\PSoC5/DieTemp.c **** #define DieTemp_SPC_CLK_PERIOD         (120u) /* In nano seconds. */
  24:Generated_Source\PSoC5/DieTemp.c **** #define DieTemp_NANO_TO_MILLI_FACTOR   (1000000u)
  25:Generated_Source\PSoC5/DieTemp.c **** #define DieTemp_FRM_EXEC_TIME          (1000u) /* In nano seconds. */
  26:Generated_Source\PSoC5/DieTemp.c **** 
  27:Generated_Source\PSoC5/DieTemp.c **** #define DieTemp_GET_TEMPR_TIME     (uint32)(((((uint32)1u << (DieTemp_NUMBER_OF_SAMPLES + 1u))) * \
  28:Generated_Source\PSoC5/DieTemp.c ****                                                 ((uint32)(DieTemp_SPC_CLK_PERIOD * \
  29:Generated_Source\PSoC5/DieTemp.c ****                                                 DieTemp_CLK_DIV_SELECT)) * \
  30:Generated_Source\PSoC5/DieTemp.c ****                                                 ((uint32)DieTemp_TIMER_PERIOD)) + \
  31:Generated_Source\PSoC5/DieTemp.c ****                                                 (uint32)DieTemp_FRM_EXEC_TIME)
ARM GAS  C:\Users\KJA\AppData\Local\Temp\ccrj3nsr.s 			page 2


  32:Generated_Source\PSoC5/DieTemp.c **** 
  33:Generated_Source\PSoC5/DieTemp.c **** #define DieTemp_MAX_WAIT           (uint16)(((DieTemp_GET_TEMPR_TIME + \
  34:Generated_Source\PSoC5/DieTemp.c ****                                                 DieTemp_NANO_TO_MILLI_FACTOR) - 1u) / \
  35:Generated_Source\PSoC5/DieTemp.c ****                                                 DieTemp_NANO_TO_MILLI_FACTOR)  /* In milli seconds.
  36:Generated_Source\PSoC5/DieTemp.c **** 
  37:Generated_Source\PSoC5/DieTemp.c **** static cystatus DieTemp_GetTempT(int16 * temperature);
  38:Generated_Source\PSoC5/DieTemp.c **** 
  39:Generated_Source\PSoC5/DieTemp.c **** 
  40:Generated_Source\PSoC5/DieTemp.c **** /*******************************************************************************
  41:Generated_Source\PSoC5/DieTemp.c **** * Function Name: DieTemp_Start
  42:Generated_Source\PSoC5/DieTemp.c **** ********************************************************************************
  43:Generated_Source\PSoC5/DieTemp.c **** *
  44:Generated_Source\PSoC5/DieTemp.c **** * Summary:
  45:Generated_Source\PSoC5/DieTemp.c **** *  Starts the SPC command to get the die temperature. If this function is
  46:Generated_Source\PSoC5/DieTemp.c **** *  called successfuly. The SPC will be locked and DieTemp_QueryDieTemp
  47:Generated_Source\PSoC5/DieTemp.c **** *  will have to be successfuly called to unlock it. CySpcUnlock() can also
  48:Generated_Source\PSoC5/DieTemp.c **** *  be called if the caller decides not to finish the temperature reading.
  49:Generated_Source\PSoC5/DieTemp.c **** *
  50:Generated_Source\PSoC5/DieTemp.c **** * Parameters:
  51:Generated_Source\PSoC5/DieTemp.c **** *  void.
  52:Generated_Source\PSoC5/DieTemp.c **** *
  53:Generated_Source\PSoC5/DieTemp.c **** * Return:
  54:Generated_Source\PSoC5/DieTemp.c **** *  CYRET_STARTED if the spc command was started sucessfuly.
  55:Generated_Source\PSoC5/DieTemp.c **** *  CYRET_UNKNOWN if the spc command failed.
  56:Generated_Source\PSoC5/DieTemp.c **** *  CYRET_LOCKED if the spc was busy.
  57:Generated_Source\PSoC5/DieTemp.c **** *
  58:Generated_Source\PSoC5/DieTemp.c **** *******************************************************************************/
  59:Generated_Source\PSoC5/DieTemp.c **** cystatus DieTemp_Start(void) 
  60:Generated_Source\PSoC5/DieTemp.c **** {
  27              		.loc 1 60 0
  28              		.cfi_startproc
  29              		@ args = 0, pretend = 0, frame = 8
  30              		@ frame_needed = 1, uses_anonymous_args = 0
  31 0000 80B5     		push	{r7, lr}
  32              		.cfi_def_cfa_offset 8
  33              		.cfi_offset 7, -8
  34              		.cfi_offset 14, -4
  35 0002 82B0     		sub	sp, sp, #8
  36              		.cfi_def_cfa_offset 16
  37 0004 00AF     		add	r7, sp, #0
  38              		.cfi_def_cfa_register 7
  61:Generated_Source\PSoC5/DieTemp.c ****     cystatus status;
  62:Generated_Source\PSoC5/DieTemp.c **** 
  63:Generated_Source\PSoC5/DieTemp.c ****     /* Plan for failure. */
  64:Generated_Source\PSoC5/DieTemp.c ****     status = CYRET_UNKNOWN;
  39              		.loc 1 64 0
  40 0006 4FF0FF33 		mov	r3, #-1
  41 000a 7B60     		str	r3, [r7, #4]
  65:Generated_Source\PSoC5/DieTemp.c **** 
  66:Generated_Source\PSoC5/DieTemp.c ****     /* Power up the SPC. */
  67:Generated_Source\PSoC5/DieTemp.c ****     CySpcStart();
  42              		.loc 1 67 0
  43 000c FFF7FEFF 		bl	CySpcStart
  68:Generated_Source\PSoC5/DieTemp.c **** 
  69:Generated_Source\PSoC5/DieTemp.c ****     if(CySpcLock() == CYRET_SUCCESS)
  44              		.loc 1 69 0
  45 0010 FFF7FEFF 		bl	CySpcLock
ARM GAS  C:\Users\KJA\AppData\Local\Temp\ccrj3nsr.s 			page 3


  46 0014 0346     		mov	r3, r0
  47 0016 002B     		cmp	r3, #0
  48 0018 0AD1     		bne	.L2
  70:Generated_Source\PSoC5/DieTemp.c ****     {
  71:Generated_Source\PSoC5/DieTemp.c ****         #if(CY_PSOC5A)
  72:Generated_Source\PSoC5/DieTemp.c ****             if(CYRET_STARTED == CySpcGetTemp(DieTemp_NUMBER_OF_SAMPLES,
  73:Generated_Source\PSoC5/DieTemp.c ****                                              DieTemp_TIMER_PERIOD,
  74:Generated_Source\PSoC5/DieTemp.c ****                                              DieTemp_CLK_DIV_SELECT))
  75:Generated_Source\PSoC5/DieTemp.c ****             {
  76:Generated_Source\PSoC5/DieTemp.c ****                 status = CYRET_STARTED;
  77:Generated_Source\PSoC5/DieTemp.c ****             }
  78:Generated_Source\PSoC5/DieTemp.c ****         #else
  79:Generated_Source\PSoC5/DieTemp.c ****             if(CYRET_STARTED == CySpcGetTemp(DieTemp_NUMBER_OF_SAMPLES))
  49              		.loc 1 79 0
  50 001a 0120     		movs	r0, #1
  51 001c FFF7FEFF 		bl	CySpcGetTemp
  52 0020 0346     		mov	r3, r0
  53 0022 072B     		cmp	r3, #7
  54 0024 01D1     		bne	.L3
  80:Generated_Source\PSoC5/DieTemp.c ****             {
  81:Generated_Source\PSoC5/DieTemp.c ****                 status = CYRET_STARTED;
  55              		.loc 1 81 0
  56 0026 0723     		movs	r3, #7
  57 0028 7B60     		str	r3, [r7, #4]
  58              	.L3:
  82:Generated_Source\PSoC5/DieTemp.c ****             }
  83:Generated_Source\PSoC5/DieTemp.c ****         #endif  /* (CY_PSOC5A) */
  84:Generated_Source\PSoC5/DieTemp.c ****         CySpcUnlock();
  59              		.loc 1 84 0
  60 002a FFF7FEFF 		bl	CySpcUnlock
  61 002e 01E0     		b	.L4
  62              	.L2:
  85:Generated_Source\PSoC5/DieTemp.c ****     }
  86:Generated_Source\PSoC5/DieTemp.c ****     else
  87:Generated_Source\PSoC5/DieTemp.c ****     {
  88:Generated_Source\PSoC5/DieTemp.c ****         status = CYRET_LOCKED;
  63              		.loc 1 88 0
  64 0030 0423     		movs	r3, #4
  65 0032 7B60     		str	r3, [r7, #4]
  66              	.L4:
  89:Generated_Source\PSoC5/DieTemp.c ****     }
  90:Generated_Source\PSoC5/DieTemp.c ****     return (status);
  67              		.loc 1 90 0
  68 0034 7B68     		ldr	r3, [r7, #4]
  91:Generated_Source\PSoC5/DieTemp.c **** }
  69              		.loc 1 91 0
  70 0036 1846     		mov	r0, r3
  71 0038 0837     		adds	r7, r7, #8
  72              		.cfi_def_cfa_offset 8
  73 003a BD46     		mov	sp, r7
  74              		.cfi_def_cfa_register 13
  75              		@ sp needed
  76 003c 80BD     		pop	{r7, pc}
  77              		.cfi_endproc
  78              	.LFE0:
  79              		.size	DieTemp_Start, .-DieTemp_Start
  80 003e 00BF     		.section	.text.DieTemp_Stop,"ax",%progbits
ARM GAS  C:\Users\KJA\AppData\Local\Temp\ccrj3nsr.s 			page 4


  81              		.align	2
  82              		.global	DieTemp_Stop
  83              		.thumb
  84              		.thumb_func
  85              		.type	DieTemp_Stop, %function
  86              	DieTemp_Stop:
  87              	.LFB1:
  92:Generated_Source\PSoC5/DieTemp.c **** 
  93:Generated_Source\PSoC5/DieTemp.c **** 
  94:Generated_Source\PSoC5/DieTemp.c **** /*******************************************************************************
  95:Generated_Source\PSoC5/DieTemp.c **** * FUNCTION NAME:   DieTemp_Stop
  96:Generated_Source\PSoC5/DieTemp.c **** ********************************************************************************
  97:Generated_Source\PSoC5/DieTemp.c **** *
  98:Generated_Source\PSoC5/DieTemp.c **** * Summary:
  99:Generated_Source\PSoC5/DieTemp.c **** *  There is no need to stop or disable this component. This component is
 100:Generated_Source\PSoC5/DieTemp.c **** *  naturally a slave that sends request to SPC through SPC API of cy_boot
 101:Generated_Source\PSoC5/DieTemp.c **** *  and waits for data to be ready or in case of non-blocking operation it
 102:Generated_Source\PSoC5/DieTemp.c **** *  sends request to SPC and user can manually poll the result.
 103:Generated_Source\PSoC5/DieTemp.c **** *
 104:Generated_Source\PSoC5/DieTemp.c **** * Parameters:
 105:Generated_Source\PSoC5/DieTemp.c **** *  void
 106:Generated_Source\PSoC5/DieTemp.c **** *
 107:Generated_Source\PSoC5/DieTemp.c **** * Return:
 108:Generated_Source\PSoC5/DieTemp.c **** *  void
 109:Generated_Source\PSoC5/DieTemp.c **** *
 110:Generated_Source\PSoC5/DieTemp.c **** *******************************************************************************/
 111:Generated_Source\PSoC5/DieTemp.c **** void DieTemp_Stop(void) 
 112:Generated_Source\PSoC5/DieTemp.c **** {
  88              		.loc 1 112 0
  89              		.cfi_startproc
  90              		@ args = 0, pretend = 0, frame = 0
  91              		@ frame_needed = 1, uses_anonymous_args = 0
  92              		@ link register save eliminated.
  93 0000 80B4     		push	{r7}
  94              		.cfi_def_cfa_offset 4
  95              		.cfi_offset 7, -4
  96 0002 00AF     		add	r7, sp, #0
  97              		.cfi_def_cfa_register 7
 113:Generated_Source\PSoC5/DieTemp.c ****     /* There aren't anything to stop */
 114:Generated_Source\PSoC5/DieTemp.c **** }
  98              		.loc 1 114 0
  99 0004 BD46     		mov	sp, r7
 100              		.cfi_def_cfa_register 13
 101              		@ sp needed
 102 0006 5DF8047B 		ldr	r7, [sp], #4
 103              		.cfi_restore 7
 104              		.cfi_def_cfa_offset 0
 105 000a 7047     		bx	lr
 106              		.cfi_endproc
 107              	.LFE1:
 108              		.size	DieTemp_Stop, .-DieTemp_Stop
 109              		.section	.text.DieTemp_Query,"ax",%progbits
 110              		.align	2
 111              		.global	DieTemp_Query
 112              		.thumb
 113              		.thumb_func
 114              		.type	DieTemp_Query, %function
ARM GAS  C:\Users\KJA\AppData\Local\Temp\ccrj3nsr.s 			page 5


 115              	DieTemp_Query:
 116              	.LFB2:
 115:Generated_Source\PSoC5/DieTemp.c **** 
 116:Generated_Source\PSoC5/DieTemp.c **** 
 117:Generated_Source\PSoC5/DieTemp.c **** /*******************************************************************************
 118:Generated_Source\PSoC5/DieTemp.c **** * Function Name: DieTemp_Query
 119:Generated_Source\PSoC5/DieTemp.c **** ********************************************************************************
 120:Generated_Source\PSoC5/DieTemp.c **** *
 121:Generated_Source\PSoC5/DieTemp.c **** * Summary:
 122:Generated_Source\PSoC5/DieTemp.c **** *  Querys the SPC to see if the termperature command is finished.
 123:Generated_Source\PSoC5/DieTemp.c **** *
 124:Generated_Source\PSoC5/DieTemp.c **** * Parameters:
 125:Generated_Source\PSoC5/DieTemp.c **** *  temperature: Address to store the two byte temperature value.
 126:Generated_Source\PSoC5/DieTemp.c **** *
 127:Generated_Source\PSoC5/DieTemp.c **** * Return:
 128:Generated_Source\PSoC5/DieTemp.c **** *  CYRET_SUCCESS if the temperature command completed sucessfully.
 129:Generated_Source\PSoC5/DieTemp.c **** *  CYRET_UNKNOWN if the there was an spc failure.
 130:Generated_Source\PSoC5/DieTemp.c **** *  CYRET_STARTED if the temperature command has not completed.
 131:Generated_Source\PSoC5/DieTemp.c **** *  CYRET_TIMEOUT if waited to long before reading data.
 132:Generated_Source\PSoC5/DieTemp.c **** *
 133:Generated_Source\PSoC5/DieTemp.c **** *******************************************************************************/
 134:Generated_Source\PSoC5/DieTemp.c **** cystatus DieTemp_Query(int16 * temperature) 
 135:Generated_Source\PSoC5/DieTemp.c **** {
 117              		.loc 1 135 0
 118              		.cfi_startproc
 119              		@ args = 0, pretend = 0, frame = 16
 120              		@ frame_needed = 1, uses_anonymous_args = 0
 121 0000 80B5     		push	{r7, lr}
 122              		.cfi_def_cfa_offset 8
 123              		.cfi_offset 7, -8
 124              		.cfi_offset 14, -4
 125 0002 84B0     		sub	sp, sp, #16
 126              		.cfi_def_cfa_offset 24
 127 0004 00AF     		add	r7, sp, #0
 128              		.cfi_def_cfa_register 7
 129 0006 7860     		str	r0, [r7, #4]
 136:Generated_Source\PSoC5/DieTemp.c ****     uint8 temp[2u];
 137:Generated_Source\PSoC5/DieTemp.c ****     cystatus status;
 138:Generated_Source\PSoC5/DieTemp.c **** 
 139:Generated_Source\PSoC5/DieTemp.c **** 
 140:Generated_Source\PSoC5/DieTemp.c ****     if(CY_SPC_BUSY)
 130              		.loc 1 140 0
 131 0008 1D4B     		ldr	r3, .L18
 132 000a 1B78     		ldrb	r3, [r3]
 133 000c DBB2     		uxtb	r3, r3
 134 000e 03F00203 		and	r3, r3, #2
 135 0012 002B     		cmp	r3, #0
 136 0014 28D1     		bne	.L8
 141:Generated_Source\PSoC5/DieTemp.c ****     {
 142:Generated_Source\PSoC5/DieTemp.c ****         if((CY_SPC_STATUS_REG>>2u) == CYRET_SUCCESS)
 137              		.loc 1 142 0
 138 0016 1A4B     		ldr	r3, .L18
 139 0018 1B78     		ldrb	r3, [r3]
 140 001a DBB2     		uxtb	r3, r3
 141 001c 9B08     		lsrs	r3, r3, #2
 142 001e DBB2     		uxtb	r3, r3
 143 0020 002B     		cmp	r3, #0
ARM GAS  C:\Users\KJA\AppData\Local\Temp\ccrj3nsr.s 			page 6


 144 0022 1ED1     		bne	.L9
 143:Generated_Source\PSoC5/DieTemp.c ****         {
 144:Generated_Source\PSoC5/DieTemp.c ****             /* See if any data is ready. */
 145:Generated_Source\PSoC5/DieTemp.c ****             if(CySpcReadData(temp, 2u) == 2u)
 145              		.loc 1 145 0
 146 0024 07F10803 		add	r3, r7, #8
 147 0028 1846     		mov	r0, r3
 148 002a 0221     		movs	r1, #2
 149 002c FFF7FEFF 		bl	CySpcReadData
 150 0030 0346     		mov	r3, r0
 151 0032 022B     		cmp	r3, #2
 152 0034 11D1     		bne	.L10
 146:Generated_Source\PSoC5/DieTemp.c ****             {
 147:Generated_Source\PSoC5/DieTemp.c ****                 if(temp[0u] == 1u)
 153              		.loc 1 147 0
 154 0036 3B7A     		ldrb	r3, [r7, #8]	@ zero_extendqisi2
 155 0038 012B     		cmp	r3, #1
 156 003a 04D1     		bne	.L11
 148:Generated_Source\PSoC5/DieTemp.c ****                 {
 149:Generated_Source\PSoC5/DieTemp.c ****                     *temperature = (int16) ((uint16) temp[1]);
 157              		.loc 1 149 0
 158 003c 7B7A     		ldrb	r3, [r7, #9]	@ zero_extendqisi2
 159 003e 9AB2     		uxth	r2, r3
 160 0040 7B68     		ldr	r3, [r7, #4]
 161 0042 1A80     		strh	r2, [r3]	@ movhi
 162 0044 06E0     		b	.L12
 163              	.L11:
 150:Generated_Source\PSoC5/DieTemp.c ****                 }
 151:Generated_Source\PSoC5/DieTemp.c ****                 else
 152:Generated_Source\PSoC5/DieTemp.c ****                 {
 153:Generated_Source\PSoC5/DieTemp.c ****                     *temperature = (int16) - ((int16) temp[1]);
 164              		.loc 1 153 0
 165 0046 7B7A     		ldrb	r3, [r7, #9]	@ zero_extendqisi2
 166 0048 9BB2     		uxth	r3, r3
 167 004a 5B42     		negs	r3, r3
 168 004c 9BB2     		uxth	r3, r3
 169 004e 9AB2     		uxth	r2, r3
 170 0050 7B68     		ldr	r3, [r7, #4]
 171 0052 1A80     		strh	r2, [r3]	@ movhi
 172              	.L12:
 154:Generated_Source\PSoC5/DieTemp.c ****                 }
 155:Generated_Source\PSoC5/DieTemp.c ****                 status = CYRET_SUCCESS;
 173              		.loc 1 155 0
 174 0054 0023     		movs	r3, #0
 175 0056 FB60     		str	r3, [r7, #12]
 176 0058 08E0     		b	.L15
 177              	.L10:
 156:Generated_Source\PSoC5/DieTemp.c ****             }
 157:Generated_Source\PSoC5/DieTemp.c ****             else
 158:Generated_Source\PSoC5/DieTemp.c ****             {
 159:Generated_Source\PSoC5/DieTemp.c ****                 status = CYRET_UNKNOWN;
 178              		.loc 1 159 0
 179 005a 4FF0FF33 		mov	r3, #-1
 180 005e FB60     		str	r3, [r7, #12]
 181 0060 04E0     		b	.L15
 182              	.L9:
 160:Generated_Source\PSoC5/DieTemp.c ****             }
ARM GAS  C:\Users\KJA\AppData\Local\Temp\ccrj3nsr.s 			page 7


 161:Generated_Source\PSoC5/DieTemp.c ****         }
 162:Generated_Source\PSoC5/DieTemp.c ****         else
 163:Generated_Source\PSoC5/DieTemp.c ****         {
 164:Generated_Source\PSoC5/DieTemp.c ****             status = CYRET_STARTED;
 183              		.loc 1 164 0
 184 0062 0723     		movs	r3, #7
 185 0064 FB60     		str	r3, [r7, #12]
 186 0066 01E0     		b	.L15
 187              	.L8:
 165:Generated_Source\PSoC5/DieTemp.c ****         }
 166:Generated_Source\PSoC5/DieTemp.c ****     }
 167:Generated_Source\PSoC5/DieTemp.c ****     else
 168:Generated_Source\PSoC5/DieTemp.c ****     {
 169:Generated_Source\PSoC5/DieTemp.c ****         status = CYRET_TIMEOUT;
 188              		.loc 1 169 0
 189 0068 1023     		movs	r3, #16
 190 006a FB60     		str	r3, [r7, #12]
 191              	.L15:
 170:Generated_Source\PSoC5/DieTemp.c ****     }
 171:Generated_Source\PSoC5/DieTemp.c **** 
 172:Generated_Source\PSoC5/DieTemp.c ****     if(status != CYRET_STARTED)
 192              		.loc 1 172 0
 193 006c FB68     		ldr	r3, [r7, #12]
 194 006e 072B     		cmp	r3, #7
 195 0070 01D0     		beq	.L16
 173:Generated_Source\PSoC5/DieTemp.c ****     {
 174:Generated_Source\PSoC5/DieTemp.c ****         /* Unlock the SPC so someone else can use it. */
 175:Generated_Source\PSoC5/DieTemp.c ****         CySpcUnlock();
 196              		.loc 1 175 0
 197 0072 FFF7FEFF 		bl	CySpcUnlock
 198              	.L16:
 176:Generated_Source\PSoC5/DieTemp.c ****     }
 177:Generated_Source\PSoC5/DieTemp.c ****     return (status);
 199              		.loc 1 177 0
 200 0076 FB68     		ldr	r3, [r7, #12]
 178:Generated_Source\PSoC5/DieTemp.c **** }
 201              		.loc 1 178 0
 202 0078 1846     		mov	r0, r3
 203 007a 1037     		adds	r7, r7, #16
 204              		.cfi_def_cfa_offset 8
 205 007c BD46     		mov	sp, r7
 206              		.cfi_def_cfa_register 13
 207              		@ sp needed
 208 007e 80BD     		pop	{r7, pc}
 209              	.L19:
 210              		.align	2
 211              	.L18:
 212 0080 22470040 		.word	1073760034
 213              		.cfi_endproc
 214              	.LFE2:
 215              		.size	DieTemp_Query, .-DieTemp_Query
 216              		.section	.text.DieTemp_GetTempT,"ax",%progbits
 217              		.align	2
 218              		.thumb
 219              		.thumb_func
 220              		.type	DieTemp_GetTempT, %function
 221              	DieTemp_GetTempT:
ARM GAS  C:\Users\KJA\AppData\Local\Temp\ccrj3nsr.s 			page 8


 222              	.LFB3:
 179:Generated_Source\PSoC5/DieTemp.c **** 
 180:Generated_Source\PSoC5/DieTemp.c **** 
 181:Generated_Source\PSoC5/DieTemp.c **** /*******************************************************************************
 182:Generated_Source\PSoC5/DieTemp.c **** * Function Name: DieTemp_GetTemp
 183:Generated_Source\PSoC5/DieTemp.c **** ********************************************************************************
 184:Generated_Source\PSoC5/DieTemp.c **** *
 185:Generated_Source\PSoC5/DieTemp.c **** * Summary:
 186:Generated_Source\PSoC5/DieTemp.c **** *  Sets up the command to get the temperature and blocks until finished. After
 187:Generated_Source\PSoC5/DieTemp.c **** *  DieTemp_MAX_WAIT ticks the function will return even if the
 188:Generated_Source\PSoC5/DieTemp.c **** *  SPC has not finished.
 189:Generated_Source\PSoC5/DieTemp.c **** *
 190:Generated_Source\PSoC5/DieTemp.c **** * Parameters:
 191:Generated_Source\PSoC5/DieTemp.c **** *  temperature: Address to store the two byte temperature value.
 192:Generated_Source\PSoC5/DieTemp.c **** *
 193:Generated_Source\PSoC5/DieTemp.c **** * Return:
 194:Generated_Source\PSoC5/DieTemp.c **** *  CYRET_SUCCESS if the command was completed sucessfuly.
 195:Generated_Source\PSoC5/DieTemp.c **** *  Status code from DieTemp_Start or DieTemp_Query
 196:Generated_Source\PSoC5/DieTemp.c **** *
 197:Generated_Source\PSoC5/DieTemp.c **** *******************************************************************************/
 198:Generated_Source\PSoC5/DieTemp.c **** static cystatus DieTemp_GetTempT(int16 * temperature) 
 199:Generated_Source\PSoC5/DieTemp.c **** {
 223              		.loc 1 199 0
 224              		.cfi_startproc
 225              		@ args = 0, pretend = 0, frame = 16
 226              		@ frame_needed = 1, uses_anonymous_args = 0
 227 0000 80B5     		push	{r7, lr}
 228              		.cfi_def_cfa_offset 8
 229              		.cfi_offset 7, -8
 230              		.cfi_offset 14, -4
 231 0002 84B0     		sub	sp, sp, #16
 232              		.cfi_def_cfa_offset 24
 233 0004 00AF     		add	r7, sp, #0
 234              		.cfi_def_cfa_register 7
 235 0006 7860     		str	r0, [r7, #4]
 200:Generated_Source\PSoC5/DieTemp.c ****     uint16 us;
 201:Generated_Source\PSoC5/DieTemp.c ****     cystatus status;
 202:Generated_Source\PSoC5/DieTemp.c **** 
 203:Generated_Source\PSoC5/DieTemp.c ****     /* Start the temp reading */
 204:Generated_Source\PSoC5/DieTemp.c ****     status = DieTemp_Start();
 236              		.loc 1 204 0
 237 0008 FFF7FEFF 		bl	DieTemp_Start
 238 000c B860     		str	r0, [r7, #8]
 205:Generated_Source\PSoC5/DieTemp.c **** 
 206:Generated_Source\PSoC5/DieTemp.c ****     if(status == CYRET_STARTED)
 239              		.loc 1 206 0
 240 000e BB68     		ldr	r3, [r7, #8]
 241 0010 072B     		cmp	r3, #7
 242 0012 1DD1     		bne	.L21
 207:Generated_Source\PSoC5/DieTemp.c ****     {
 208:Generated_Source\PSoC5/DieTemp.c ****         /**************************************************************************
 209:Generated_Source\PSoC5/DieTemp.c ****         * Wait for SPC to finish temperature reading. If state will change and SPC
 210:Generated_Source\PSoC5/DieTemp.c ****         * will finish - break cycle.
 211:Generated_Source\PSoC5/DieTemp.c ****         * DieTemp_MAX_WAIT is maximum time in ms to wait for SPC.
 212:Generated_Source\PSoC5/DieTemp.c ****         **************************************************************************/
 213:Generated_Source\PSoC5/DieTemp.c ****         for (us=(DieTemp_MAX_WAIT*1000u); us>0u; us-=10u)
 243              		.loc 1 213 0
ARM GAS  C:\Users\KJA\AppData\Local\Temp\ccrj3nsr.s 			page 9


 244 0014 4FF4FA53 		mov	r3, #8000
 245 0018 FB81     		strh	r3, [r7, #14]	@ movhi
 246 001a 16E0     		b	.L22
 247              	.L25:
 214:Generated_Source\PSoC5/DieTemp.c ****         {
 215:Generated_Source\PSoC5/DieTemp.c ****             if((CYRET_STARTED != status)&&(CY_SPC_IDLE))
 248              		.loc 1 215 0
 249 001c BB68     		ldr	r3, [r7, #8]
 250 001e 072B     		cmp	r3, #7
 251 0020 06D0     		beq	.L23
 252              		.loc 1 215 0 is_stmt 0 discriminator 1
 253 0022 0E4B     		ldr	r3, .L27
 254 0024 1B78     		ldrb	r3, [r3]
 255 0026 DBB2     		uxtb	r3, r3
 256 0028 03F00203 		and	r3, r3, #2
 257 002c 002B     		cmp	r3, #0
 258 002e 0FD1     		bne	.L21
 259              	.L23:
 216:Generated_Source\PSoC5/DieTemp.c ****             {
 217:Generated_Source\PSoC5/DieTemp.c ****                 break;
 218:Generated_Source\PSoC5/DieTemp.c ****             }
 219:Generated_Source\PSoC5/DieTemp.c ****             else if(CYRET_STARTED == status)
 260              		.loc 1 219 0 is_stmt 1
 261 0030 BB68     		ldr	r3, [r7, #8]
 262 0032 072B     		cmp	r3, #7
 263 0034 03D1     		bne	.L24
 220:Generated_Source\PSoC5/DieTemp.c ****             {
 221:Generated_Source\PSoC5/DieTemp.c ****                 status = DieTemp_Query(temperature);
 264              		.loc 1 221 0
 265 0036 7868     		ldr	r0, [r7, #4]
 266 0038 FFF7FEFF 		bl	DieTemp_Query
 267 003c B860     		str	r0, [r7, #8]
 268              	.L24:
 222:Generated_Source\PSoC5/DieTemp.c ****             }
 223:Generated_Source\PSoC5/DieTemp.c ****             else
 224:Generated_Source\PSoC5/DieTemp.c ****             {
 225:Generated_Source\PSoC5/DieTemp.c ****                 /* SPC has not finished reading or isn't idle */
 226:Generated_Source\PSoC5/DieTemp.c ****             }
 227:Generated_Source\PSoC5/DieTemp.c ****             CyDelayUs(10u);
 269              		.loc 1 227 0 discriminator 2
 270 003e 0A20     		movs	r0, #10
 271 0040 FFF7FEFF 		bl	CyDelayUs
 213:Generated_Source\PSoC5/DieTemp.c ****         {
 272              		.loc 1 213 0 discriminator 2
 273 0044 FB89     		ldrh	r3, [r7, #14]	@ movhi
 274 0046 0A3B     		subs	r3, r3, #10
 275 0048 FB81     		strh	r3, [r7, #14]	@ movhi
 276              	.L22:
 213:Generated_Source\PSoC5/DieTemp.c ****         {
 277              		.loc 1 213 0 is_stmt 0 discriminator 1
 278 004a FB89     		ldrh	r3, [r7, #14]
 279 004c 002B     		cmp	r3, #0
 280 004e E5D1     		bne	.L25
 281              	.L21:
 228:Generated_Source\PSoC5/DieTemp.c ****         }
 229:Generated_Source\PSoC5/DieTemp.c ****     }
 230:Generated_Source\PSoC5/DieTemp.c **** 
ARM GAS  C:\Users\KJA\AppData\Local\Temp\ccrj3nsr.s 			page 10


 231:Generated_Source\PSoC5/DieTemp.c ****     return status;
 282              		.loc 1 231 0 is_stmt 1
 283 0050 BB68     		ldr	r3, [r7, #8]
 232:Generated_Source\PSoC5/DieTemp.c **** }
 284              		.loc 1 232 0
 285 0052 1846     		mov	r0, r3
 286 0054 1037     		adds	r7, r7, #16
 287              		.cfi_def_cfa_offset 8
 288 0056 BD46     		mov	sp, r7
 289              		.cfi_def_cfa_register 13
 290              		@ sp needed
 291 0058 80BD     		pop	{r7, pc}
 292              	.L28:
 293 005a 00BF     		.align	2
 294              	.L27:
 295 005c 22470040 		.word	1073760034
 296              		.cfi_endproc
 297              	.LFE3:
 298              		.size	DieTemp_GetTempT, .-DieTemp_GetTempT
 299              		.section	.text.DieTemp_GetTemp,"ax",%progbits
 300              		.align	2
 301              		.global	DieTemp_GetTemp
 302              		.thumb
 303              		.thumb_func
 304              		.type	DieTemp_GetTemp, %function
 305              	DieTemp_GetTemp:
 306              	.LFB4:
 233:Generated_Source\PSoC5/DieTemp.c **** cystatus DieTemp_GetTemp(int16 * temperature) 
 234:Generated_Source\PSoC5/DieTemp.c **** {
 307              		.loc 1 234 0
 308              		.cfi_startproc
 309              		@ args = 0, pretend = 0, frame = 16
 310              		@ frame_needed = 1, uses_anonymous_args = 0
 311 0000 80B5     		push	{r7, lr}
 312              		.cfi_def_cfa_offset 8
 313              		.cfi_offset 7, -8
 314              		.cfi_offset 14, -4
 315 0002 84B0     		sub	sp, sp, #16
 316              		.cfi_def_cfa_offset 24
 317 0004 00AF     		add	r7, sp, #0
 318              		.cfi_def_cfa_register 7
 319 0006 7860     		str	r0, [r7, #4]
 235:Generated_Source\PSoC5/DieTemp.c ****     cystatus status;
 236:Generated_Source\PSoC5/DieTemp.c ****     uint8 count = 2u;
 320              		.loc 1 236 0
 321 0008 0223     		movs	r3, #2
 322 000a FB72     		strb	r3, [r7, #11]
 237:Generated_Source\PSoC5/DieTemp.c ****     while (count != 0u)
 323              		.loc 1 237 0
 324 000c 0AE0     		b	.L30
 325              	.L33:
 238:Generated_Source\PSoC5/DieTemp.c ****     {
 239:Generated_Source\PSoC5/DieTemp.c ****         status = DieTemp_GetTempT(temperature);
 326              		.loc 1 239 0
 327 000e 7868     		ldr	r0, [r7, #4]
 328 0010 FFF7FEFF 		bl	DieTemp_GetTempT
 329 0014 F860     		str	r0, [r7, #12]
ARM GAS  C:\Users\KJA\AppData\Local\Temp\ccrj3nsr.s 			page 11


 240:Generated_Source\PSoC5/DieTemp.c ****         if (status != CYRET_SUCCESS)
 330              		.loc 1 240 0
 331 0016 FB68     		ldr	r3, [r7, #12]
 332 0018 002B     		cmp	r3, #0
 333 001a 00D0     		beq	.L31
 241:Generated_Source\PSoC5/DieTemp.c ****         {
 242:Generated_Source\PSoC5/DieTemp.c ****             break;
 334              		.loc 1 242 0
 335 001c 05E0     		b	.L32
 336              	.L31:
 243:Generated_Source\PSoC5/DieTemp.c ****         }
 244:Generated_Source\PSoC5/DieTemp.c ****         count--;
 337              		.loc 1 244 0
 338 001e FB7A     		ldrb	r3, [r7, #11]	@ zero_extendqisi2
 339 0020 013B     		subs	r3, r3, #1
 340 0022 FB72     		strb	r3, [r7, #11]
 341              	.L30:
 237:Generated_Source\PSoC5/DieTemp.c ****     {
 342              		.loc 1 237 0
 343 0024 FB7A     		ldrb	r3, [r7, #11]	@ zero_extendqisi2
 344 0026 002B     		cmp	r3, #0
 345 0028 F1D1     		bne	.L33
 346              	.L32:
 245:Generated_Source\PSoC5/DieTemp.c ****     }
 246:Generated_Source\PSoC5/DieTemp.c ****     return status;
 347              		.loc 1 246 0
 348 002a FB68     		ldr	r3, [r7, #12]
 247:Generated_Source\PSoC5/DieTemp.c **** }
 349              		.loc 1 247 0
 350 002c 1846     		mov	r0, r3
 351 002e 1037     		adds	r7, r7, #16
 352              		.cfi_def_cfa_offset 8
 353 0030 BD46     		mov	sp, r7
 354              		.cfi_def_cfa_register 13
 355              		@ sp needed
 356 0032 80BD     		pop	{r7, pc}
 357              		.cfi_endproc
 358              	.LFE4:
 359              		.size	DieTemp_GetTemp, .-DieTemp_GetTemp
 360              		.text
 361              	.Letext0:
 362              		.file 2 "Generated_Source\\PSoC5/cytypes.h"