ARM GAS  C:\Users\Shiguruy\AppData\Local\Temp\cc92M6nF.s 			page 1


   1              		.syntax unified
   2              		.cpu cortex-m3
   3              		.fpu softvfp
   4              		.eabi_attribute 20, 1
   5              		.eabi_attribute 21, 1
   6              		.eabi_attribute 23, 3
   7              		.eabi_attribute 24, 1
   8              		.eabi_attribute 25, 1
   9              		.eabi_attribute 26, 1
  10              		.eabi_attribute 30, 6
  11              		.eabi_attribute 34, 1
  12              		.eabi_attribute 18, 4
  13              		.thumb
  14              		.file	"DVDAC_1.c"
  15              		.text
  16              	.Ltext0:
  17              		.cfi_sections	.debug_frame
  18              		.data
  19              		.align	2
  20              		.type	DVDAC_1_ditheredValues, %object
  21              		.size	DVDAC_1_ditheredValues, 4
  22              	DVDAC_1_ditheredValues:
  23 0000 80       		.byte	-128
  24 0001 80       		.byte	-128
  25 0002 80       		.byte	-128
  26 0003 80       		.byte	-128
  27              		.global	DVDAC_1_initVar
  28              		.bss
  29              		.type	DVDAC_1_initVar, %object
  30              		.size	DVDAC_1_initVar, 1
  31              	DVDAC_1_initVar:
  32 0000 00       		.space	1
  33              	DVDAC_1_dmaChan:
  34 0001 00       		.space	1
  35              		.data
  36              		.type	DVDAC_1_dmaTd, %object
  37              		.size	DVDAC_1_dmaTd, 1
  38              	DVDAC_1_dmaTd:
  39 0004 FF       		.byte	-1
  40 0005 000000   		.section	.text.DVDAC_1_Init,"ax",%progbits
  41              		.align	2
  42              		.global	DVDAC_1_Init
  43              		.thumb
  44              		.thumb_func
  45              		.type	DVDAC_1_Init, %function
  46              	DVDAC_1_Init:
  47              	.LFB0:
  48              		.file 1 ".\\Generated_Source\\PSoC5\\DVDAC_1.c"
   1:.\Generated_Source\PSoC5/DVDAC_1.c **** /*******************************************************************************
   2:.\Generated_Source\PSoC5/DVDAC_1.c **** * File Name: DVDAC_1.c
   3:.\Generated_Source\PSoC5/DVDAC_1.c **** * Version 2.10
   4:.\Generated_Source\PSoC5/DVDAC_1.c **** *
   5:.\Generated_Source\PSoC5/DVDAC_1.c **** * Description:
   6:.\Generated_Source\PSoC5/DVDAC_1.c **** *  This file provides the source code of APIs for the DVDAC component.
   7:.\Generated_Source\PSoC5/DVDAC_1.c **** *
   8:.\Generated_Source\PSoC5/DVDAC_1.c **** ********************************************************************************
   9:.\Generated_Source\PSoC5/DVDAC_1.c **** * Copyright 2013, Cypress Semiconductor Corporation.  All rights reserved.
ARM GAS  C:\Users\Shiguruy\AppData\Local\Temp\cc92M6nF.s 			page 2


  10:.\Generated_Source\PSoC5/DVDAC_1.c **** * You may use this file only in accordance with the license, terms, conditions,
  11:.\Generated_Source\PSoC5/DVDAC_1.c **** * disclaimers, and limitations in the end user license agreement accompanying
  12:.\Generated_Source\PSoC5/DVDAC_1.c **** * the software package with which this file was provided.
  13:.\Generated_Source\PSoC5/DVDAC_1.c **** *******************************************************************************/
  14:.\Generated_Source\PSoC5/DVDAC_1.c **** 
  15:.\Generated_Source\PSoC5/DVDAC_1.c **** #include "DVDAC_1.h"
  16:.\Generated_Source\PSoC5/DVDAC_1.c **** #include "DVDAC_1_VDAC8.h"
  17:.\Generated_Source\PSoC5/DVDAC_1.c **** #include "CyDmac.h"
  18:.\Generated_Source\PSoC5/DVDAC_1.c **** #include "DVDAC_1_DMA_dma.H"
  19:.\Generated_Source\PSoC5/DVDAC_1.c **** 
  20:.\Generated_Source\PSoC5/DVDAC_1.c **** #if(DVDAC_1_INTERNAL_CLOCK_USED)
  21:.\Generated_Source\PSoC5/DVDAC_1.c ****     #include "DVDAC_1_IntClock.h"
  22:.\Generated_Source\PSoC5/DVDAC_1.c **** #endif /* DVDAC_1_INTERNAL_CLOCK_USED */
  23:.\Generated_Source\PSoC5/DVDAC_1.c **** 
  24:.\Generated_Source\PSoC5/DVDAC_1.c **** 
  25:.\Generated_Source\PSoC5/DVDAC_1.c **** static uint8 DVDAC_1_ditheredValues[4u] = {0x80u, 0x80u, 0x80u, 0x80u};
  26:.\Generated_Source\PSoC5/DVDAC_1.c **** 
  27:.\Generated_Source\PSoC5/DVDAC_1.c **** 
  28:.\Generated_Source\PSoC5/DVDAC_1.c **** uint8 DVDAC_1_initVar = 0u;
  29:.\Generated_Source\PSoC5/DVDAC_1.c **** 
  30:.\Generated_Source\PSoC5/DVDAC_1.c **** static uint8 DVDAC_1_dmaChan;
  31:.\Generated_Source\PSoC5/DVDAC_1.c **** static uint8 DVDAC_1_dmaTd = CY_DMA_INVALID_TD;
  32:.\Generated_Source\PSoC5/DVDAC_1.c **** 
  33:.\Generated_Source\PSoC5/DVDAC_1.c **** static void DVDAC_1_InitDma(void)  ;
  34:.\Generated_Source\PSoC5/DVDAC_1.c **** 
  35:.\Generated_Source\PSoC5/DVDAC_1.c **** 
  36:.\Generated_Source\PSoC5/DVDAC_1.c **** /*******************************************************************************
  37:.\Generated_Source\PSoC5/DVDAC_1.c **** * Function Name: DVDAC_1_Init
  38:.\Generated_Source\PSoC5/DVDAC_1.c **** ********************************************************************************
  39:.\Generated_Source\PSoC5/DVDAC_1.c **** *
  40:.\Generated_Source\PSoC5/DVDAC_1.c **** * Summary:
  41:.\Generated_Source\PSoC5/DVDAC_1.c **** *  Initializes or restores the component according to the customizer Configure
  42:.\Generated_Source\PSoC5/DVDAC_1.c **** *  dialog settings. It is not necessary to call DVDAC_1_Init() because
  43:.\Generated_Source\PSoC5/DVDAC_1.c **** *  the DVDAC_1_Start() API calls this function and is the preferred
  44:.\Generated_Source\PSoC5/DVDAC_1.c **** *  method to begin component operation.
  45:.\Generated_Source\PSoC5/DVDAC_1.c **** *
  46:.\Generated_Source\PSoC5/DVDAC_1.c **** * Parameters:
  47:.\Generated_Source\PSoC5/DVDAC_1.c **** *  None
  48:.\Generated_Source\PSoC5/DVDAC_1.c **** *
  49:.\Generated_Source\PSoC5/DVDAC_1.c **** * Return:
  50:.\Generated_Source\PSoC5/DVDAC_1.c **** *  None
  51:.\Generated_Source\PSoC5/DVDAC_1.c **** *
  52:.\Generated_Source\PSoC5/DVDAC_1.c **** * Side Effects:
  53:.\Generated_Source\PSoC5/DVDAC_1.c **** *  All registers will be set to values according to the customizer Configure
  54:.\Generated_Source\PSoC5/DVDAC_1.c **** *  dialog.
  55:.\Generated_Source\PSoC5/DVDAC_1.c **** *
  56:.\Generated_Source\PSoC5/DVDAC_1.c **** * Global variables:
  57:.\Generated_Source\PSoC5/DVDAC_1.c **** *  None
  58:.\Generated_Source\PSoC5/DVDAC_1.c **** *
  59:.\Generated_Source\PSoC5/DVDAC_1.c **** *******************************************************************************/
  60:.\Generated_Source\PSoC5/DVDAC_1.c **** void DVDAC_1_Init(void) 
  61:.\Generated_Source\PSoC5/DVDAC_1.c **** {
  49              		.loc 1 61 0
  50              		.cfi_startproc
  51              		@ args = 0, pretend = 0, frame = 0
  52              		@ frame_needed = 1, uses_anonymous_args = 0
  53 0000 80B5     		push	{r7, lr}
ARM GAS  C:\Users\Shiguruy\AppData\Local\Temp\cc92M6nF.s 			page 3


  54              		.cfi_def_cfa_offset 8
  55              		.cfi_offset 7, -8
  56              		.cfi_offset 14, -4
  57 0002 00AF     		add	r7, sp, #0
  58              		.cfi_def_cfa_register 7
  62:.\Generated_Source\PSoC5/DVDAC_1.c ****     DVDAC_1_VDAC8_Init();
  59              		.loc 1 62 0
  60 0004 FFF7FEFF 		bl	DVDAC_1_VDAC8_Init
  63:.\Generated_Source\PSoC5/DVDAC_1.c **** 
  64:.\Generated_Source\PSoC5/DVDAC_1.c ****     if(CY_DMA_INVALID_TD == DVDAC_1_dmaTd)
  61              		.loc 1 64 0
  62 0008 034B     		ldr	r3, .L3
  63 000a 1B78     		ldrb	r3, [r3]	@ zero_extendqisi2
  64 000c FF2B     		cmp	r3, #255
  65 000e 01D1     		bne	.L1
  65:.\Generated_Source\PSoC5/DVDAC_1.c ****     {
  66:.\Generated_Source\PSoC5/DVDAC_1.c ****         DVDAC_1_InitDma();
  66              		.loc 1 66 0
  67 0010 FFF7FEFF 		bl	DVDAC_1_InitDma
  68              	.L1:
  67:.\Generated_Source\PSoC5/DVDAC_1.c ****     }
  68:.\Generated_Source\PSoC5/DVDAC_1.c **** }
  69              		.loc 1 68 0
  70 0014 80BD     		pop	{r7, pc}
  71              	.L4:
  72 0016 00BF     		.align	2
  73              	.L3:
  74 0018 04000000 		.word	DVDAC_1_dmaTd
  75              		.cfi_endproc
  76              	.LFE0:
  77              		.size	DVDAC_1_Init, .-DVDAC_1_Init
  78              		.section	.text.DVDAC_1_Enable,"ax",%progbits
  79              		.align	2
  80              		.global	DVDAC_1_Enable
  81              		.thumb
  82              		.thumb_func
  83              		.type	DVDAC_1_Enable, %function
  84              	DVDAC_1_Enable:
  85              	.LFB1:
  69:.\Generated_Source\PSoC5/DVDAC_1.c **** 
  70:.\Generated_Source\PSoC5/DVDAC_1.c **** 
  71:.\Generated_Source\PSoC5/DVDAC_1.c **** /*******************************************************************************
  72:.\Generated_Source\PSoC5/DVDAC_1.c **** * Function Name: DVDAC_1_Enable
  73:.\Generated_Source\PSoC5/DVDAC_1.c **** ********************************************************************************
  74:.\Generated_Source\PSoC5/DVDAC_1.c **** *
  75:.\Generated_Source\PSoC5/DVDAC_1.c **** * Summary:
  76:.\Generated_Source\PSoC5/DVDAC_1.c **** *  Activates the hardware and begins component operation. It is not necessary to
  77:.\Generated_Source\PSoC5/DVDAC_1.c **** *  call DVDAC_1_Enable() because the DVDAC_1_Start() API calls
  78:.\Generated_Source\PSoC5/DVDAC_1.c **** *  this function, which is the preferred method to begin component operation.
  79:.\Generated_Source\PSoC5/DVDAC_1.c **** *
  80:.\Generated_Source\PSoC5/DVDAC_1.c **** * Parameters:
  81:.\Generated_Source\PSoC5/DVDAC_1.c **** *  None
  82:.\Generated_Source\PSoC5/DVDAC_1.c **** *
  83:.\Generated_Source\PSoC5/DVDAC_1.c **** * Return:
  84:.\Generated_Source\PSoC5/DVDAC_1.c **** *  None
  85:.\Generated_Source\PSoC5/DVDAC_1.c **** *
  86:.\Generated_Source\PSoC5/DVDAC_1.c **** * Global variables:
ARM GAS  C:\Users\Shiguruy\AppData\Local\Temp\cc92M6nF.s 			page 4


  87:.\Generated_Source\PSoC5/DVDAC_1.c **** *  None
  88:.\Generated_Source\PSoC5/DVDAC_1.c **** *
  89:.\Generated_Source\PSoC5/DVDAC_1.c **** *******************************************************************************/
  90:.\Generated_Source\PSoC5/DVDAC_1.c **** void DVDAC_1_Enable(void) 
  91:.\Generated_Source\PSoC5/DVDAC_1.c **** {
  86              		.loc 1 91 0
  87              		.cfi_startproc
  88              		@ args = 0, pretend = 0, frame = 0
  89              		@ frame_needed = 1, uses_anonymous_args = 0
  90 0000 80B5     		push	{r7, lr}
  91              		.cfi_def_cfa_offset 8
  92              		.cfi_offset 7, -8
  93              		.cfi_offset 14, -4
  94 0002 00AF     		add	r7, sp, #0
  95              		.cfi_def_cfa_register 7
  92:.\Generated_Source\PSoC5/DVDAC_1.c ****     (void) CyDmaChEnable(DVDAC_1_dmaChan, 1u);
  96              		.loc 1 92 0
  97 0004 054B     		ldr	r3, .L6
  98 0006 1B78     		ldrb	r3, [r3]	@ zero_extendqisi2
  99 0008 1846     		mov	r0, r3
 100 000a 0121     		movs	r1, #1
 101 000c FFF7FEFF 		bl	CyDmaChEnable
  93:.\Generated_Source\PSoC5/DVDAC_1.c **** 
  94:.\Generated_Source\PSoC5/DVDAC_1.c ****     #if(DVDAC_1_INTERNAL_CLOCK_USED)
  95:.\Generated_Source\PSoC5/DVDAC_1.c ****         DVDAC_1_IntClock_Start();
 102              		.loc 1 95 0
 103 0010 FFF7FEFF 		bl	DVDAC_1_IntClock_Start
  96:.\Generated_Source\PSoC5/DVDAC_1.c ****     #endif /* DVDAC_1_INTERNAL_CLOCK_USED */
  97:.\Generated_Source\PSoC5/DVDAC_1.c **** 
  98:.\Generated_Source\PSoC5/DVDAC_1.c ****     DVDAC_1_VDAC8_Enable();
 104              		.loc 1 98 0
 105 0014 FFF7FEFF 		bl	DVDAC_1_VDAC8_Enable
  99:.\Generated_Source\PSoC5/DVDAC_1.c **** }
 106              		.loc 1 99 0
 107 0018 80BD     		pop	{r7, pc}
 108              	.L7:
 109 001a 00BF     		.align	2
 110              	.L6:
 111 001c 01000000 		.word	DVDAC_1_dmaChan
 112              		.cfi_endproc
 113              	.LFE1:
 114              		.size	DVDAC_1_Enable, .-DVDAC_1_Enable
 115              		.section	.text.DVDAC_1_Start,"ax",%progbits
 116              		.align	2
 117              		.global	DVDAC_1_Start
 118              		.thumb
 119              		.thumb_func
 120              		.type	DVDAC_1_Start, %function
 121              	DVDAC_1_Start:
 122              	.LFB2:
 100:.\Generated_Source\PSoC5/DVDAC_1.c **** 
 101:.\Generated_Source\PSoC5/DVDAC_1.c **** 
 102:.\Generated_Source\PSoC5/DVDAC_1.c **** /*******************************************************************************
 103:.\Generated_Source\PSoC5/DVDAC_1.c **** * Function Name: DVDAC_1_Start
 104:.\Generated_Source\PSoC5/DVDAC_1.c **** ********************************************************************************
 105:.\Generated_Source\PSoC5/DVDAC_1.c **** *
 106:.\Generated_Source\PSoC5/DVDAC_1.c **** * Summary:
ARM GAS  C:\Users\Shiguruy\AppData\Local\Temp\cc92M6nF.s 			page 5


 107:.\Generated_Source\PSoC5/DVDAC_1.c **** *  Performs all of the required initialization for the component and enables
 108:.\Generated_Source\PSoC5/DVDAC_1.c **** *  power to the block. The first time the routine is executed, the component is
 109:.\Generated_Source\PSoC5/DVDAC_1.c **** *  initialized to the configured settings. When called to restart the DVDAC
 110:.\Generated_Source\PSoC5/DVDAC_1.c **** *  following a DVDAC_1_Stop() call, the current component parameter
 111:.\Generated_Source\PSoC5/DVDAC_1.c **** *  settings are retained.
 112:.\Generated_Source\PSoC5/DVDAC_1.c **** *
 113:.\Generated_Source\PSoC5/DVDAC_1.c **** * Parameters:
 114:.\Generated_Source\PSoC5/DVDAC_1.c **** *  None
 115:.\Generated_Source\PSoC5/DVDAC_1.c **** *
 116:.\Generated_Source\PSoC5/DVDAC_1.c **** * Return:
 117:.\Generated_Source\PSoC5/DVDAC_1.c **** *  None
 118:.\Generated_Source\PSoC5/DVDAC_1.c **** *
 119:.\Generated_Source\PSoC5/DVDAC_1.c **** * Side Effects:
 120:.\Generated_Source\PSoC5/DVDAC_1.c **** *  If the DVDAC_1_initVar variable is already set, this function only
 121:.\Generated_Source\PSoC5/DVDAC_1.c **** *  calls the DVDAC_1_Enable() function.
 122:.\Generated_Source\PSoC5/DVDAC_1.c **** *
 123:.\Generated_Source\PSoC5/DVDAC_1.c **** * Global variables:
 124:.\Generated_Source\PSoC5/DVDAC_1.c **** *  DVDAC_1_initVar - indicates whether the DVDAC has been initialized.
 125:.\Generated_Source\PSoC5/DVDAC_1.c **** *  The variable is initialized to 0 and set to 1 the first time DVDAC_Start()
 126:.\Generated_Source\PSoC5/DVDAC_1.c **** *  is called. This allows the component to restart without reinitialization
 127:.\Generated_Source\PSoC5/DVDAC_1.c **** *  after the first call to the DVDAC_1_Start() routine. If
 128:.\Generated_Source\PSoC5/DVDAC_1.c **** *  reinitialization of the component is required, then the
 129:.\Generated_Source\PSoC5/DVDAC_1.c **** *  DVDAC_1_Init() function can be called before the
 130:.\Generated_Source\PSoC5/DVDAC_1.c **** *  DVDAC_1_Start() or DVDAC_1_Enable() function.
 131:.\Generated_Source\PSoC5/DVDAC_1.c **** *
 132:.\Generated_Source\PSoC5/DVDAC_1.c **** *******************************************************************************/
 133:.\Generated_Source\PSoC5/DVDAC_1.c **** void DVDAC_1_Start(void) 
 134:.\Generated_Source\PSoC5/DVDAC_1.c **** {
 123              		.loc 1 134 0
 124              		.cfi_startproc
 125              		@ args = 0, pretend = 0, frame = 0
 126              		@ frame_needed = 1, uses_anonymous_args = 0
 127 0000 80B5     		push	{r7, lr}
 128              		.cfi_def_cfa_offset 8
 129              		.cfi_offset 7, -8
 130              		.cfi_offset 14, -4
 131 0002 00AF     		add	r7, sp, #0
 132              		.cfi_def_cfa_register 7
 135:.\Generated_Source\PSoC5/DVDAC_1.c ****     /* Hardware initiazation only needs to occure the first time */
 136:.\Generated_Source\PSoC5/DVDAC_1.c ****     if(0u == DVDAC_1_initVar)
 133              		.loc 1 136 0
 134 0004 054B     		ldr	r3, .L10
 135 0006 1B78     		ldrb	r3, [r3]	@ zero_extendqisi2
 136 0008 002B     		cmp	r3, #0
 137 000a 04D1     		bne	.L9
 137:.\Generated_Source\PSoC5/DVDAC_1.c ****     {
 138:.\Generated_Source\PSoC5/DVDAC_1.c ****         DVDAC_1_Init();
 138              		.loc 1 138 0
 139 000c FFF7FEFF 		bl	DVDAC_1_Init
 139:.\Generated_Source\PSoC5/DVDAC_1.c ****         DVDAC_1_initVar = 1u;
 140              		.loc 1 139 0
 141 0010 024B     		ldr	r3, .L10
 142 0012 0122     		movs	r2, #1
 143 0014 1A70     		strb	r2, [r3]
 144              	.L9:
 140:.\Generated_Source\PSoC5/DVDAC_1.c ****     }
 141:.\Generated_Source\PSoC5/DVDAC_1.c **** 
ARM GAS  C:\Users\Shiguruy\AppData\Local\Temp\cc92M6nF.s 			page 6


 142:.\Generated_Source\PSoC5/DVDAC_1.c ****     DVDAC_1_Enable();
 145              		.loc 1 142 0
 146 0016 FFF7FEFF 		bl	DVDAC_1_Enable
 143:.\Generated_Source\PSoC5/DVDAC_1.c **** }
 147              		.loc 1 143 0
 148 001a 80BD     		pop	{r7, pc}
 149              	.L11:
 150              		.align	2
 151              	.L10:
 152 001c 00000000 		.word	DVDAC_1_initVar
 153              		.cfi_endproc
 154              	.LFE2:
 155              		.size	DVDAC_1_Start, .-DVDAC_1_Start
 156              		.section	.text.DVDAC_1_Stop,"ax",%progbits
 157              		.align	2
 158              		.global	DVDAC_1_Stop
 159              		.thumb
 160              		.thumb_func
 161              		.type	DVDAC_1_Stop, %function
 162              	DVDAC_1_Stop:
 163              	.LFB3:
 144:.\Generated_Source\PSoC5/DVDAC_1.c **** 
 145:.\Generated_Source\PSoC5/DVDAC_1.c **** 
 146:.\Generated_Source\PSoC5/DVDAC_1.c **** /*******************************************************************************
 147:.\Generated_Source\PSoC5/DVDAC_1.c **** * Function Name: DVDAC_1_Stop
 148:.\Generated_Source\PSoC5/DVDAC_1.c **** ********************************************************************************
 149:.\Generated_Source\PSoC5/DVDAC_1.c **** *
 150:.\Generated_Source\PSoC5/DVDAC_1.c **** * Summary:
 151:.\Generated_Source\PSoC5/DVDAC_1.c **** *  Stops the component and turns off the analog blocks in the DVDAC.
 152:.\Generated_Source\PSoC5/DVDAC_1.c **** *
 153:.\Generated_Source\PSoC5/DVDAC_1.c **** * Parameters:
 154:.\Generated_Source\PSoC5/DVDAC_1.c **** *  None
 155:.\Generated_Source\PSoC5/DVDAC_1.c **** *
 156:.\Generated_Source\PSoC5/DVDAC_1.c **** * Return:
 157:.\Generated_Source\PSoC5/DVDAC_1.c **** *  None
 158:.\Generated_Source\PSoC5/DVDAC_1.c **** *
 159:.\Generated_Source\PSoC5/DVDAC_1.c **** * Global variables:
 160:.\Generated_Source\PSoC5/DVDAC_1.c **** *  None
 161:.\Generated_Source\PSoC5/DVDAC_1.c **** *
 162:.\Generated_Source\PSoC5/DVDAC_1.c **** *******************************************************************************/
 163:.\Generated_Source\PSoC5/DVDAC_1.c **** void DVDAC_1_Stop(void) 
 164:.\Generated_Source\PSoC5/DVDAC_1.c **** {
 164              		.loc 1 164 0
 165              		.cfi_startproc
 166              		@ args = 0, pretend = 0, frame = 0
 167              		@ frame_needed = 1, uses_anonymous_args = 0
 168 0000 80B5     		push	{r7, lr}
 169              		.cfi_def_cfa_offset 8
 170              		.cfi_offset 7, -8
 171              		.cfi_offset 14, -4
 172 0002 00AF     		add	r7, sp, #0
 173              		.cfi_def_cfa_register 7
 165:.\Generated_Source\PSoC5/DVDAC_1.c ****     #if(DVDAC_1_INTERNAL_CLOCK_USED)
 166:.\Generated_Source\PSoC5/DVDAC_1.c ****         DVDAC_1_IntClock_Stop();
 174              		.loc 1 166 0
 175 0004 FFF7FEFF 		bl	DVDAC_1_IntClock_Stop
 167:.\Generated_Source\PSoC5/DVDAC_1.c ****     #endif /* DVDAC_1_INTERNAL_CLOCK_USED */
ARM GAS  C:\Users\Shiguruy\AppData\Local\Temp\cc92M6nF.s 			page 7


 168:.\Generated_Source\PSoC5/DVDAC_1.c **** 
 169:.\Generated_Source\PSoC5/DVDAC_1.c ****     (void) CyDmaChDisable(DVDAC_1_dmaChan);
 176              		.loc 1 169 0
 177 0008 034B     		ldr	r3, .L13
 178 000a 1B78     		ldrb	r3, [r3]	@ zero_extendqisi2
 179 000c 1846     		mov	r0, r3
 180 000e FFF7FEFF 		bl	CyDmaChDisable
 170:.\Generated_Source\PSoC5/DVDAC_1.c ****     DVDAC_1_VDAC8_Stop();
 181              		.loc 1 170 0
 182 0012 FFF7FEFF 		bl	DVDAC_1_VDAC8_Stop
 171:.\Generated_Source\PSoC5/DVDAC_1.c **** }
 183              		.loc 1 171 0
 184 0016 80BD     		pop	{r7, pc}
 185              	.L14:
 186              		.align	2
 187              	.L13:
 188 0018 01000000 		.word	DVDAC_1_dmaChan
 189              		.cfi_endproc
 190              	.LFE3:
 191              		.size	DVDAC_1_Stop, .-DVDAC_1_Stop
 192              		.section	.text.DVDAC_1_SetValue,"ax",%progbits
 193              		.align	2
 194              		.global	DVDAC_1_SetValue
 195              		.thumb
 196              		.thumb_func
 197              		.type	DVDAC_1_SetValue, %function
 198              	DVDAC_1_SetValue:
 199              	.LFB4:
 172:.\Generated_Source\PSoC5/DVDAC_1.c **** 
 173:.\Generated_Source\PSoC5/DVDAC_1.c **** 
 174:.\Generated_Source\PSoC5/DVDAC_1.c **** /*******************************************************************************
 175:.\Generated_Source\PSoC5/DVDAC_1.c **** * Function Name: DVDAC_1_SetValue
 176:.\Generated_Source\PSoC5/DVDAC_1.c **** ********************************************************************************
 177:.\Generated_Source\PSoC5/DVDAC_1.c **** *
 178:.\Generated_Source\PSoC5/DVDAC_1.c **** * Summary:
 179:.\Generated_Source\PSoC5/DVDAC_1.c **** *  Sets the DVDACs output. The function populates the SRAM array based on the
 180:.\Generated_Source\PSoC5/DVDAC_1.c **** *  value and the resolution setting. That array is then transferred to the
 181:.\Generated_Source\PSoC5/DVDAC_1.c **** *  internal VDAC by DMA.
 182:.\Generated_Source\PSoC5/DVDAC_1.c **** *
 183:.\Generated_Source\PSoC5/DVDAC_1.c **** * Parameters:
 184:.\Generated_Source\PSoC5/DVDAC_1.c **** *  (uint16) value:  The maximum value will be dependent on the resolution
 185:.\Generated_Source\PSoC5/DVDAC_1.c **** *  selected:
 186:.\Generated_Source\PSoC5/DVDAC_1.c **** *   Resolution       Valid range
 187:.\Generated_Source\PSoC5/DVDAC_1.c **** *        9 bits       0x0 - 0x1FE
 188:.\Generated_Source\PSoC5/DVDAC_1.c **** *       10 bits       0x0 - 0x3FC
 189:.\Generated_Source\PSoC5/DVDAC_1.c **** *       11 bits       0x0 - 0x7F8
 190:.\Generated_Source\PSoC5/DVDAC_1.c **** *       12 bits       0x0 - 0xFF0
 191:.\Generated_Source\PSoC5/DVDAC_1.c **** *
 192:.\Generated_Source\PSoC5/DVDAC_1.c **** *  This value includes an integer portion and a fractional portion that varies
 193:.\Generated_Source\PSoC5/DVDAC_1.c **** *  depending on number of bits of resolution:
 194:.\Generated_Source\PSoC5/DVDAC_1.c **** *   - 9-bits:  1 fractional bit
 195:.\Generated_Source\PSoC5/DVDAC_1.c **** *   - 10-bits: 2 fractional bits
 196:.\Generated_Source\PSoC5/DVDAC_1.c **** *   - 11-bits: 3 fractional bits
 197:.\Generated_Source\PSoC5/DVDAC_1.c **** *   - 12-bits: 4 fractional bits
 198:.\Generated_Source\PSoC5/DVDAC_1.c **** *
 199:.\Generated_Source\PSoC5/DVDAC_1.c **** * Return:
 200:.\Generated_Source\PSoC5/DVDAC_1.c **** *  None
ARM GAS  C:\Users\Shiguruy\AppData\Local\Temp\cc92M6nF.s 			page 8


 201:.\Generated_Source\PSoC5/DVDAC_1.c **** *
 202:.\Generated_Source\PSoC5/DVDAC_1.c **** * Global variables:
 203:.\Generated_Source\PSoC5/DVDAC_1.c **** *  None
 204:.\Generated_Source\PSoC5/DVDAC_1.c **** *
 205:.\Generated_Source\PSoC5/DVDAC_1.c **** *******************************************************************************/
 206:.\Generated_Source\PSoC5/DVDAC_1.c **** void DVDAC_1_SetValue(uint16 value) 
 207:.\Generated_Source\PSoC5/DVDAC_1.c **** {
 200              		.loc 1 207 0
 201              		.cfi_startproc
 202              		@ args = 0, pretend = 0, frame = 16
 203              		@ frame_needed = 1, uses_anonymous_args = 0
 204 0000 80B5     		push	{r7, lr}
 205              		.cfi_def_cfa_offset 8
 206              		.cfi_offset 7, -8
 207              		.cfi_offset 14, -4
 208 0002 84B0     		sub	sp, sp, #16
 209              		.cfi_def_cfa_offset 24
 210 0004 00AF     		add	r7, sp, #0
 211              		.cfi_def_cfa_register 7
 212 0006 0346     		mov	r3, r0
 213 0008 FB80     		strh	r3, [r7, #6]	@ movhi
 208:.\Generated_Source\PSoC5/DVDAC_1.c ****     uint8  lowCount  = (uint8)(value & DVDAC_1_FRACTIONAL_PORTION_MASK);
 214              		.loc 1 208 0
 215 000a FB88     		ldrh	r3, [r7, #6]	@ movhi
 216 000c DBB2     		uxtb	r3, r3
 217 000e 03F00303 		and	r3, r3, #3
 218 0012 BB73     		strb	r3, [r7, #14]
 209:.\Generated_Source\PSoC5/DVDAC_1.c ****     uint8 highCount  = (uint8)(value >> DVDAC_1_INTEGER_PORTION_SHIFT);
 219              		.loc 1 209 0
 220 0014 FB88     		ldrh	r3, [r7, #6]
 221 0016 9B08     		lsrs	r3, r3, #2
 222 0018 9BB2     		uxth	r3, r3
 223 001a 7B73     		strb	r3, [r7, #13]
 210:.\Generated_Source\PSoC5/DVDAC_1.c ****     uint8 i;
 211:.\Generated_Source\PSoC5/DVDAC_1.c **** 
 212:.\Generated_Source\PSoC5/DVDAC_1.c **** 
 213:.\Generated_Source\PSoC5/DVDAC_1.c ****     CYASSERT(value <= DVDAC_1_DVDAC_MAX_VALUE);
 224              		.loc 1 213 0
 225 001c FB88     		ldrh	r3, [r7, #6]
 226 001e B3F57F7F 		cmp	r3, #1020
 227 0022 02D9     		bls	.L16
 228              		.loc 1 213 0 is_stmt 0 discriminator 1
 229 0024 0020     		movs	r0, #0
 230 0026 FFF7FEFF 		bl	CyHalt
 231              	.L16:
 214:.\Generated_Source\PSoC5/DVDAC_1.c **** 
 215:.\Generated_Source\PSoC5/DVDAC_1.c ****     if (DVDAC_1_INTEGER_PORTION_MAX_VALUE == highCount)
 232              		.loc 1 215 0 is_stmt 1
 233 002a 7B7B     		ldrb	r3, [r7, #13]	@ zero_extendqisi2
 234 002c FF2B     		cmp	r3, #255
 235 002e 0DD1     		bne	.L17
 216:.\Generated_Source\PSoC5/DVDAC_1.c ****     {
 217:.\Generated_Source\PSoC5/DVDAC_1.c ****         for (i = 0u; i < DVDAC_1_DITHERED_ARRAY_SIZE; i++)
 236              		.loc 1 217 0
 237 0030 0023     		movs	r3, #0
 238 0032 FB73     		strb	r3, [r7, #15]
 239 0034 06E0     		b	.L18
ARM GAS  C:\Users\Shiguruy\AppData\Local\Temp\cc92M6nF.s 			page 9


 240              	.L19:
 218:.\Generated_Source\PSoC5/DVDAC_1.c ****         {
 219:.\Generated_Source\PSoC5/DVDAC_1.c ****             DVDAC_1_ditheredValues[i] = DVDAC_1_INTEGER_PORTION_MAX_VALUE;
 241              		.loc 1 219 0 discriminator 3
 242 0036 FB7B     		ldrb	r3, [r7, #15]	@ zero_extendqisi2
 243 0038 134A     		ldr	r2, .L25
 244 003a FF21     		movs	r1, #255
 245 003c D154     		strb	r1, [r2, r3]
 217:.\Generated_Source\PSoC5/DVDAC_1.c ****         {
 246              		.loc 1 217 0 discriminator 3
 247 003e FB7B     		ldrb	r3, [r7, #15]	@ zero_extendqisi2
 248 0040 0133     		adds	r3, r3, #1
 249 0042 FB73     		strb	r3, [r7, #15]
 250              	.L18:
 217:.\Generated_Source\PSoC5/DVDAC_1.c ****         {
 251              		.loc 1 217 0 is_stmt 0 discriminator 1
 252 0044 FB7B     		ldrb	r3, [r7, #15]	@ zero_extendqisi2
 253 0046 032B     		cmp	r3, #3
 254 0048 F5D9     		bls	.L19
 255 004a 19E0     		b	.L15
 256              	.L17:
 220:.\Generated_Source\PSoC5/DVDAC_1.c ****         }
 221:.\Generated_Source\PSoC5/DVDAC_1.c ****     }
 222:.\Generated_Source\PSoC5/DVDAC_1.c ****     else
 223:.\Generated_Source\PSoC5/DVDAC_1.c ****     {
 224:.\Generated_Source\PSoC5/DVDAC_1.c ****         for(i = 0u; i < DVDAC_1_DITHERED_ARRAY_SIZE; i++)
 257              		.loc 1 224 0 is_stmt 1
 258 004c 0023     		movs	r3, #0
 259 004e FB73     		strb	r3, [r7, #15]
 260 0050 13E0     		b	.L21
 261              	.L24:
 225:.\Generated_Source\PSoC5/DVDAC_1.c ****         {
 226:.\Generated_Source\PSoC5/DVDAC_1.c ****             if(i < (DVDAC_1_DITHERED_ARRAY_SIZE - lowCount))
 262              		.loc 1 226 0
 263 0052 FA7B     		ldrb	r2, [r7, #15]	@ zero_extendqisi2
 264 0054 BB7B     		ldrb	r3, [r7, #14]	@ zero_extendqisi2
 265 0056 C3F10403 		rsb	r3, r3, #4
 266 005a 9A42     		cmp	r2, r3
 267 005c 04DA     		bge	.L22
 227:.\Generated_Source\PSoC5/DVDAC_1.c ****             {
 228:.\Generated_Source\PSoC5/DVDAC_1.c ****                 DVDAC_1_ditheredValues[i] = highCount;
 268              		.loc 1 228 0
 269 005e FB7B     		ldrb	r3, [r7, #15]	@ zero_extendqisi2
 270 0060 0949     		ldr	r1, .L25
 271 0062 7A7B     		ldrb	r2, [r7, #13]
 272 0064 CA54     		strb	r2, [r1, r3]
 273 0066 05E0     		b	.L23
 274              	.L22:
 229:.\Generated_Source\PSoC5/DVDAC_1.c ****             }
 230:.\Generated_Source\PSoC5/DVDAC_1.c ****             else
 231:.\Generated_Source\PSoC5/DVDAC_1.c ****             {
 232:.\Generated_Source\PSoC5/DVDAC_1.c ****                 DVDAC_1_ditheredValues[i] = highCount + 1u;
 275              		.loc 1 232 0
 276 0068 FB7B     		ldrb	r3, [r7, #15]	@ zero_extendqisi2
 277 006a 7A7B     		ldrb	r2, [r7, #13]
 278 006c 0132     		adds	r2, r2, #1
 279 006e D1B2     		uxtb	r1, r2
ARM GAS  C:\Users\Shiguruy\AppData\Local\Temp\cc92M6nF.s 			page 10


 280 0070 054A     		ldr	r2, .L25
 281 0072 D154     		strb	r1, [r2, r3]
 282              	.L23:
 224:.\Generated_Source\PSoC5/DVDAC_1.c ****         {
 283              		.loc 1 224 0 discriminator 2
 284 0074 FB7B     		ldrb	r3, [r7, #15]	@ zero_extendqisi2
 285 0076 0133     		adds	r3, r3, #1
 286 0078 FB73     		strb	r3, [r7, #15]
 287              	.L21:
 224:.\Generated_Source\PSoC5/DVDAC_1.c ****         {
 288              		.loc 1 224 0 is_stmt 0 discriminator 1
 289 007a FB7B     		ldrb	r3, [r7, #15]	@ zero_extendqisi2
 290 007c 032B     		cmp	r3, #3
 291 007e E8D9     		bls	.L24
 292              	.L15:
 233:.\Generated_Source\PSoC5/DVDAC_1.c ****             }
 234:.\Generated_Source\PSoC5/DVDAC_1.c ****         }
 235:.\Generated_Source\PSoC5/DVDAC_1.c ****     }
 236:.\Generated_Source\PSoC5/DVDAC_1.c **** }
 293              		.loc 1 236 0 is_stmt 1
 294 0080 1037     		adds	r7, r7, #16
 295              		.cfi_def_cfa_offset 8
 296 0082 BD46     		mov	sp, r7
 297              		.cfi_def_cfa_register 13
 298              		@ sp needed
 299 0084 80BD     		pop	{r7, pc}
 300              	.L26:
 301 0086 00BF     		.align	2
 302              	.L25:
 303 0088 00000000 		.word	DVDAC_1_ditheredValues
 304              		.cfi_endproc
 305              	.LFE4:
 306              		.size	DVDAC_1_SetValue, .-DVDAC_1_SetValue
 307              		.section	.text.DVDAC_1_InitDma,"ax",%progbits
 308              		.align	2
 309              		.thumb
 310              		.thumb_func
 311              		.type	DVDAC_1_InitDma, %function
 312              	DVDAC_1_InitDma:
 313              	.LFB5:
 237:.\Generated_Source\PSoC5/DVDAC_1.c **** 
 238:.\Generated_Source\PSoC5/DVDAC_1.c **** 
 239:.\Generated_Source\PSoC5/DVDAC_1.c **** /*******************************************************************************
 240:.\Generated_Source\PSoC5/DVDAC_1.c **** * Function Name: DVDAC_1_InitDma
 241:.\Generated_Source\PSoC5/DVDAC_1.c **** ********************************************************************************
 242:.\Generated_Source\PSoC5/DVDAC_1.c **** *
 243:.\Generated_Source\PSoC5/DVDAC_1.c **** * Summary:
 244:.\Generated_Source\PSoC5/DVDAC_1.c **** *  Configures a DMA transfer of channel values from memory to VDAC.
 245:.\Generated_Source\PSoC5/DVDAC_1.c **** *
 246:.\Generated_Source\PSoC5/DVDAC_1.c **** * Parameters:
 247:.\Generated_Source\PSoC5/DVDAC_1.c **** *  None
 248:.\Generated_Source\PSoC5/DVDAC_1.c **** *
 249:.\Generated_Source\PSoC5/DVDAC_1.c **** * Return:
 250:.\Generated_Source\PSoC5/DVDAC_1.c **** *  None
 251:.\Generated_Source\PSoC5/DVDAC_1.c **** *
 252:.\Generated_Source\PSoC5/DVDAC_1.c **** *******************************************************************************/
 253:.\Generated_Source\PSoC5/DVDAC_1.c **** static void DVDAC_1_InitDma(void)  
ARM GAS  C:\Users\Shiguruy\AppData\Local\Temp\cc92M6nF.s 			page 11


 254:.\Generated_Source\PSoC5/DVDAC_1.c **** {
 314              		.loc 1 254 0
 315              		.cfi_startproc
 316              		@ args = 0, pretend = 0, frame = 0
 317              		@ frame_needed = 1, uses_anonymous_args = 0
 318 0000 80B5     		push	{r7, lr}
 319              		.cfi_def_cfa_offset 8
 320              		.cfi_offset 7, -8
 321              		.cfi_offset 14, -4
 322 0002 00AF     		add	r7, sp, #0
 323              		.cfi_def_cfa_register 7
 255:.\Generated_Source\PSoC5/DVDAC_1.c ****     /***************************************************************************
 256:.\Generated_Source\PSoC5/DVDAC_1.c ****     * Transfers channel values from SRAM to VDAC register. One byte transfer,
 257:.\Generated_Source\PSoC5/DVDAC_1.c ****     * each burst requires a request.
 258:.\Generated_Source\PSoC5/DVDAC_1.c ****     ***************************************************************************/
 259:.\Generated_Source\PSoC5/DVDAC_1.c ****     DVDAC_1_dmaChan = DVDAC_1_DMA_DmaInitialize(
 324              		.loc 1 259 0
 325 0004 0120     		movs	r0, #1
 326 0006 0121     		movs	r1, #1
 327 0008 41F6FF72 		movw	r2, #8191
 328 000c 4FF48043 		mov	r3, #16384
 329 0010 FFF7FEFF 		bl	DVDAC_1_DMA_DmaInitialize
 330 0014 0346     		mov	r3, r0
 331 0016 1A46     		mov	r2, r3
 332 0018 124B     		ldr	r3, .L28
 333 001a 1A70     		strb	r2, [r3]
 260:.\Generated_Source\PSoC5/DVDAC_1.c ****                                     DVDAC_1_DMA_BYTES_PER_BURST,
 261:.\Generated_Source\PSoC5/DVDAC_1.c ****                                     DVDAC_1_DMA_REQUEST_PER_BURST,
 262:.\Generated_Source\PSoC5/DVDAC_1.c ****                                     HI16(DVDAC_1_DMA_SRC_BASE),
 263:.\Generated_Source\PSoC5/DVDAC_1.c ****                                     HI16(DVDAC_1_DMA_DST_BASE));
 264:.\Generated_Source\PSoC5/DVDAC_1.c **** 
 265:.\Generated_Source\PSoC5/DVDAC_1.c ****     DVDAC_1_dmaTd = CyDmaTdAllocate();
 334              		.loc 1 265 0
 335 001c FFF7FEFF 		bl	CyDmaTdAllocate
 336 0020 0346     		mov	r3, r0
 337 0022 1A46     		mov	r2, r3
 338 0024 104B     		ldr	r3, .L28+4
 339 0026 1A70     		strb	r2, [r3]
 266:.\Generated_Source\PSoC5/DVDAC_1.c **** 
 267:.\Generated_Source\PSoC5/DVDAC_1.c **** 
 268:.\Generated_Source\PSoC5/DVDAC_1.c ****     /***************************************************************************
 269:.\Generated_Source\PSoC5/DVDAC_1.c ****     * One TD looping on itself, increment the source address, but not the
 270:.\Generated_Source\PSoC5/DVDAC_1.c ****     * destination address.
 271:.\Generated_Source\PSoC5/DVDAC_1.c ****     ***************************************************************************/
 272:.\Generated_Source\PSoC5/DVDAC_1.c ****     (void) CyDmaTdSetConfiguration( DVDAC_1_dmaTd,
 340              		.loc 1 272 0
 341 0028 0F4B     		ldr	r3, .L28+4
 342 002a 1A78     		ldrb	r2, [r3]	@ zero_extendqisi2
 343 002c 0E4B     		ldr	r3, .L28+4
 344 002e 1B78     		ldrb	r3, [r3]	@ zero_extendqisi2
 345 0030 1046     		mov	r0, r2
 346 0032 0421     		movs	r1, #4
 347 0034 1A46     		mov	r2, r3
 348 0036 0123     		movs	r3, #1
 349 0038 FFF7FEFF 		bl	CyDmaTdSetConfiguration
 273:.\Generated_Source\PSoC5/DVDAC_1.c ****                                     DVDAC_1_DITHERED_ARRAY_SIZE,
 274:.\Generated_Source\PSoC5/DVDAC_1.c ****                                     DVDAC_1_dmaTd,
ARM GAS  C:\Users\Shiguruy\AppData\Local\Temp\cc92M6nF.s 			page 12


 275:.\Generated_Source\PSoC5/DVDAC_1.c ****                                     (uint8) CY_DMA_TD_INC_SRC_ADR);
 276:.\Generated_Source\PSoC5/DVDAC_1.c **** 
 277:.\Generated_Source\PSoC5/DVDAC_1.c ****     /* Transfers the value for each channel from memory to VDAC */
 278:.\Generated_Source\PSoC5/DVDAC_1.c ****     (void) CyDmaTdSetAddress(   DVDAC_1_dmaTd,
 350              		.loc 1 278 0
 351 003c 0A4B     		ldr	r3, .L28+4
 352 003e 1A78     		ldrb	r2, [r3]	@ zero_extendqisi2
 353 0040 0A4B     		ldr	r3, .L28+8
 354 0042 9BB2     		uxth	r3, r3
 355 0044 1046     		mov	r0, r2
 356 0046 1946     		mov	r1, r3
 357 0048 45F68132 		movw	r2, #23425
 358 004c FFF7FEFF 		bl	CyDmaTdSetAddress
 279:.\Generated_Source\PSoC5/DVDAC_1.c ****                                 LO16((uint32)DVDAC_1_ditheredValues),
 280:.\Generated_Source\PSoC5/DVDAC_1.c ****                                 LO16((uint32)DVDAC_1_VDAC8_Data_PTR));
 281:.\Generated_Source\PSoC5/DVDAC_1.c **** 
 282:.\Generated_Source\PSoC5/DVDAC_1.c ****     (void) CyDmaChSetInitialTd(DVDAC_1_dmaChan, DVDAC_1_dmaTd);
 359              		.loc 1 282 0
 360 0050 044B     		ldr	r3, .L28
 361 0052 1A78     		ldrb	r2, [r3]	@ zero_extendqisi2
 362 0054 044B     		ldr	r3, .L28+4
 363 0056 1B78     		ldrb	r3, [r3]	@ zero_extendqisi2
 364 0058 1046     		mov	r0, r2
 365 005a 1946     		mov	r1, r3
 366 005c FFF7FEFF 		bl	CyDmaChSetInitialTd
 283:.\Generated_Source\PSoC5/DVDAC_1.c **** }
 367              		.loc 1 283 0
 368 0060 80BD     		pop	{r7, pc}
 369              	.L29:
 370 0062 00BF     		.align	2
 371              	.L28:
 372 0064 01000000 		.word	DVDAC_1_dmaChan
 373 0068 04000000 		.word	DVDAC_1_dmaTd
 374 006c 00000000 		.word	DVDAC_1_ditheredValues
 375              		.cfi_endproc
 376              	.LFE5:
 377              		.size	DVDAC_1_InitDma, .-DVDAC_1_InitDma
 378              		.text
 379              	.Letext0:
 380              		.file 2 ".\\Generated_Source\\PSoC5\\cytypes.h"