ARM GAS  C:\Users\KJA\AppData\Local\Temp\cc52Jlc3.s 			page 1


   1              		.syntax unified
   2              		.cpu cortex-m3
   3              		.fpu softvfp
   4              		.eabi_attribute 20, 1
   5              		.eabi_attribute 21, 1
   6              		.eabi_attribute 23, 3
   7              		.eabi_attribute 24, 1
   8              		.eabi_attribute 25, 1
   9              		.eabi_attribute 26, 1
  10              		.eabi_attribute 30, 6
  11              		.eabi_attribute 34, 1
  12              		.eabi_attribute 18, 4
  13              		.thumb
  14              		.file	"DVDAC8_1.c"
  15              		.text
  16              	.Ltext0:
  17              		.cfi_sections	.debug_frame
  18              		.data
  19              		.align	2
  20              		.type	DVDAC8_1_ditheredValues, %object
  21              		.size	DVDAC8_1_ditheredValues, 16
  22              	DVDAC8_1_ditheredValues:
  23 0000 20       		.byte	32
  24 0001 20       		.byte	32
  25 0002 20       		.byte	32
  26 0003 20       		.byte	32
  27 0004 20       		.byte	32
  28 0005 20       		.byte	32
  29 0006 20       		.byte	32
  30 0007 20       		.byte	32
  31 0008 20       		.byte	32
  32 0009 20       		.byte	32
  33 000a 20       		.byte	32
  34 000b 20       		.byte	32
  35 000c 20       		.byte	32
  36 000d 20       		.byte	32
  37 000e 20       		.byte	32
  38 000f 20       		.byte	32
  39              		.global	DVDAC8_1_initVar
  40              		.bss
  41              		.type	DVDAC8_1_initVar, %object
  42              		.size	DVDAC8_1_initVar, 1
  43              	DVDAC8_1_initVar:
  44 0000 00       		.space	1
  45              	DVDAC8_1_dmaChan:
  46 0001 00       		.space	1
  47              		.data
  48              		.type	DVDAC8_1_dmaTd, %object
  49              		.size	DVDAC8_1_dmaTd, 1
  50              	DVDAC8_1_dmaTd:
  51 0010 FF       		.byte	-1
  52 0011 000000   		.section	.text.DVDAC8_1_Init,"ax",%progbits
  53              		.align	2
  54              		.global	DVDAC8_1_Init
  55              		.thumb
  56              		.thumb_func
  57              		.type	DVDAC8_1_Init, %function
ARM GAS  C:\Users\KJA\AppData\Local\Temp\cc52Jlc3.s 			page 2


  58              	DVDAC8_1_Init:
  59              	.LFB0:
  60              		.file 1 "Generated_Source\\PSoC5\\DVDAC8_1.c"
   1:Generated_Source\PSoC5/DVDAC8_1.c **** /*******************************************************************************
   2:Generated_Source\PSoC5/DVDAC8_1.c **** * File Name: DVDAC8_1.c
   3:Generated_Source\PSoC5/DVDAC8_1.c **** * Version 2.10
   4:Generated_Source\PSoC5/DVDAC8_1.c **** *
   5:Generated_Source\PSoC5/DVDAC8_1.c **** * Description:
   6:Generated_Source\PSoC5/DVDAC8_1.c **** *  This file provides the source code of APIs for the DVDAC component.
   7:Generated_Source\PSoC5/DVDAC8_1.c **** *
   8:Generated_Source\PSoC5/DVDAC8_1.c **** ********************************************************************************
   9:Generated_Source\PSoC5/DVDAC8_1.c **** * Copyright 2013, Cypress Semiconductor Corporation.  All rights reserved.
  10:Generated_Source\PSoC5/DVDAC8_1.c **** * You may use this file only in accordance with the license, terms, conditions,
  11:Generated_Source\PSoC5/DVDAC8_1.c **** * disclaimers, and limitations in the end user license agreement accompanying
  12:Generated_Source\PSoC5/DVDAC8_1.c **** * the software package with which this file was provided.
  13:Generated_Source\PSoC5/DVDAC8_1.c **** *******************************************************************************/
  14:Generated_Source\PSoC5/DVDAC8_1.c **** 
  15:Generated_Source\PSoC5/DVDAC8_1.c **** #include "DVDAC8_1.h"
  16:Generated_Source\PSoC5/DVDAC8_1.c **** #include "DVDAC8_1_VDAC8.h"
  17:Generated_Source\PSoC5/DVDAC8_1.c **** #include "CyDmac.h"
  18:Generated_Source\PSoC5/DVDAC8_1.c **** #include "DVDAC8_1_DMA_dma.H"
  19:Generated_Source\PSoC5/DVDAC8_1.c **** 
  20:Generated_Source\PSoC5/DVDAC8_1.c **** #if(DVDAC8_1_INTERNAL_CLOCK_USED)
  21:Generated_Source\PSoC5/DVDAC8_1.c ****     #include "DVDAC8_1_IntClock.h"
  22:Generated_Source\PSoC5/DVDAC8_1.c **** #endif /* DVDAC8_1_INTERNAL_CLOCK_USED */
  23:Generated_Source\PSoC5/DVDAC8_1.c **** 
  24:Generated_Source\PSoC5/DVDAC8_1.c **** 
  25:Generated_Source\PSoC5/DVDAC8_1.c **** static uint8 DVDAC8_1_ditheredValues[16u] = {0x20u, 0x20u, 0x20u, 0x20u, 0x20u, 0x20u, 0x20u, 0x20u
  26:Generated_Source\PSoC5/DVDAC8_1.c ****                                              0x20u, 0x20u, 0x20u, 0x20u, 0x20u, 0x20u};
  27:Generated_Source\PSoC5/DVDAC8_1.c **** 
  28:Generated_Source\PSoC5/DVDAC8_1.c **** 
  29:Generated_Source\PSoC5/DVDAC8_1.c **** uint8 DVDAC8_1_initVar = 0u;
  30:Generated_Source\PSoC5/DVDAC8_1.c **** 
  31:Generated_Source\PSoC5/DVDAC8_1.c **** static uint8 DVDAC8_1_dmaChan;
  32:Generated_Source\PSoC5/DVDAC8_1.c **** static uint8 DVDAC8_1_dmaTd = CY_DMA_INVALID_TD;
  33:Generated_Source\PSoC5/DVDAC8_1.c **** 
  34:Generated_Source\PSoC5/DVDAC8_1.c **** static void DVDAC8_1_InitDma(void)  ;
  35:Generated_Source\PSoC5/DVDAC8_1.c **** 
  36:Generated_Source\PSoC5/DVDAC8_1.c **** 
  37:Generated_Source\PSoC5/DVDAC8_1.c **** /*******************************************************************************
  38:Generated_Source\PSoC5/DVDAC8_1.c **** * Function Name: DVDAC8_1_Init
  39:Generated_Source\PSoC5/DVDAC8_1.c **** ********************************************************************************
  40:Generated_Source\PSoC5/DVDAC8_1.c **** *
  41:Generated_Source\PSoC5/DVDAC8_1.c **** * Summary:
  42:Generated_Source\PSoC5/DVDAC8_1.c **** *  Initializes or restores the component according to the customizer Configure
  43:Generated_Source\PSoC5/DVDAC8_1.c **** *  dialog settings. It is not necessary to call DVDAC8_1_Init() because
  44:Generated_Source\PSoC5/DVDAC8_1.c **** *  the DVDAC8_1_Start() API calls this function and is the preferred
  45:Generated_Source\PSoC5/DVDAC8_1.c **** *  method to begin component operation.
  46:Generated_Source\PSoC5/DVDAC8_1.c **** *
  47:Generated_Source\PSoC5/DVDAC8_1.c **** * Parameters:
  48:Generated_Source\PSoC5/DVDAC8_1.c **** *  None
  49:Generated_Source\PSoC5/DVDAC8_1.c **** *
  50:Generated_Source\PSoC5/DVDAC8_1.c **** * Return:
  51:Generated_Source\PSoC5/DVDAC8_1.c **** *  None
  52:Generated_Source\PSoC5/DVDAC8_1.c **** *
  53:Generated_Source\PSoC5/DVDAC8_1.c **** * Side Effects:
  54:Generated_Source\PSoC5/DVDAC8_1.c **** *  All registers will be set to values according to the customizer Configure
ARM GAS  C:\Users\KJA\AppData\Local\Temp\cc52Jlc3.s 			page 3


  55:Generated_Source\PSoC5/DVDAC8_1.c **** *  dialog.
  56:Generated_Source\PSoC5/DVDAC8_1.c **** *
  57:Generated_Source\PSoC5/DVDAC8_1.c **** * Global variables:
  58:Generated_Source\PSoC5/DVDAC8_1.c **** *  None
  59:Generated_Source\PSoC5/DVDAC8_1.c **** *
  60:Generated_Source\PSoC5/DVDAC8_1.c **** *******************************************************************************/
  61:Generated_Source\PSoC5/DVDAC8_1.c **** void DVDAC8_1_Init(void) 
  62:Generated_Source\PSoC5/DVDAC8_1.c **** {
  61              		.loc 1 62 0
  62              		.cfi_startproc
  63              		@ args = 0, pretend = 0, frame = 0
  64              		@ frame_needed = 1, uses_anonymous_args = 0
  65 0000 80B5     		push	{r7, lr}
  66              		.cfi_def_cfa_offset 8
  67              		.cfi_offset 7, -8
  68              		.cfi_offset 14, -4
  69 0002 00AF     		add	r7, sp, #0
  70              		.cfi_def_cfa_register 7
  63:Generated_Source\PSoC5/DVDAC8_1.c ****     DVDAC8_1_VDAC8_Init();
  71              		.loc 1 63 0
  72 0004 FFF7FEFF 		bl	DVDAC8_1_VDAC8_Init
  64:Generated_Source\PSoC5/DVDAC8_1.c **** 
  65:Generated_Source\PSoC5/DVDAC8_1.c ****     if(CY_DMA_INVALID_TD == DVDAC8_1_dmaTd)
  73              		.loc 1 65 0
  74 0008 034B     		ldr	r3, .L3
  75 000a 1B78     		ldrb	r3, [r3]	@ zero_extendqisi2
  76 000c FF2B     		cmp	r3, #255
  77 000e 01D1     		bne	.L1
  66:Generated_Source\PSoC5/DVDAC8_1.c ****     {
  67:Generated_Source\PSoC5/DVDAC8_1.c ****         DVDAC8_1_InitDma();
  78              		.loc 1 67 0
  79 0010 FFF7FEFF 		bl	DVDAC8_1_InitDma
  80              	.L1:
  68:Generated_Source\PSoC5/DVDAC8_1.c ****     }
  69:Generated_Source\PSoC5/DVDAC8_1.c **** }
  81              		.loc 1 69 0
  82 0014 80BD     		pop	{r7, pc}
  83              	.L4:
  84 0016 00BF     		.align	2
  85              	.L3:
  86 0018 10000000 		.word	DVDAC8_1_dmaTd
  87              		.cfi_endproc
  88              	.LFE0:
  89              		.size	DVDAC8_1_Init, .-DVDAC8_1_Init
  90              		.section	.text.DVDAC8_1_Enable,"ax",%progbits
  91              		.align	2
  92              		.global	DVDAC8_1_Enable
  93              		.thumb
  94              		.thumb_func
  95              		.type	DVDAC8_1_Enable, %function
  96              	DVDAC8_1_Enable:
  97              	.LFB1:
  70:Generated_Source\PSoC5/DVDAC8_1.c **** 
  71:Generated_Source\PSoC5/DVDAC8_1.c **** 
  72:Generated_Source\PSoC5/DVDAC8_1.c **** /*******************************************************************************
  73:Generated_Source\PSoC5/DVDAC8_1.c **** * Function Name: DVDAC8_1_Enable
  74:Generated_Source\PSoC5/DVDAC8_1.c **** ********************************************************************************
ARM GAS  C:\Users\KJA\AppData\Local\Temp\cc52Jlc3.s 			page 4


  75:Generated_Source\PSoC5/DVDAC8_1.c **** *
  76:Generated_Source\PSoC5/DVDAC8_1.c **** * Summary:
  77:Generated_Source\PSoC5/DVDAC8_1.c **** *  Activates the hardware and begins component operation. It is not necessary to
  78:Generated_Source\PSoC5/DVDAC8_1.c **** *  call DVDAC8_1_Enable() because the DVDAC8_1_Start() API calls
  79:Generated_Source\PSoC5/DVDAC8_1.c **** *  this function, which is the preferred method to begin component operation.
  80:Generated_Source\PSoC5/DVDAC8_1.c **** *
  81:Generated_Source\PSoC5/DVDAC8_1.c **** * Parameters:
  82:Generated_Source\PSoC5/DVDAC8_1.c **** *  None
  83:Generated_Source\PSoC5/DVDAC8_1.c **** *
  84:Generated_Source\PSoC5/DVDAC8_1.c **** * Return:
  85:Generated_Source\PSoC5/DVDAC8_1.c **** *  None
  86:Generated_Source\PSoC5/DVDAC8_1.c **** *
  87:Generated_Source\PSoC5/DVDAC8_1.c **** * Global variables:
  88:Generated_Source\PSoC5/DVDAC8_1.c **** *  None
  89:Generated_Source\PSoC5/DVDAC8_1.c **** *
  90:Generated_Source\PSoC5/DVDAC8_1.c **** *******************************************************************************/
  91:Generated_Source\PSoC5/DVDAC8_1.c **** void DVDAC8_1_Enable(void) 
  92:Generated_Source\PSoC5/DVDAC8_1.c **** {
  98              		.loc 1 92 0
  99              		.cfi_startproc
 100              		@ args = 0, pretend = 0, frame = 0
 101              		@ frame_needed = 1, uses_anonymous_args = 0
 102 0000 80B5     		push	{r7, lr}
 103              		.cfi_def_cfa_offset 8
 104              		.cfi_offset 7, -8
 105              		.cfi_offset 14, -4
 106 0002 00AF     		add	r7, sp, #0
 107              		.cfi_def_cfa_register 7
  93:Generated_Source\PSoC5/DVDAC8_1.c ****     (void) CyDmaChEnable(DVDAC8_1_dmaChan, 1u);
 108              		.loc 1 93 0
 109 0004 044B     		ldr	r3, .L6
 110 0006 1B78     		ldrb	r3, [r3]	@ zero_extendqisi2
 111 0008 1846     		mov	r0, r3
 112 000a 0121     		movs	r1, #1
 113 000c FFF7FEFF 		bl	CyDmaChEnable
  94:Generated_Source\PSoC5/DVDAC8_1.c **** 
  95:Generated_Source\PSoC5/DVDAC8_1.c ****     #if(DVDAC8_1_INTERNAL_CLOCK_USED)
  96:Generated_Source\PSoC5/DVDAC8_1.c ****         DVDAC8_1_IntClock_Start();
  97:Generated_Source\PSoC5/DVDAC8_1.c ****     #endif /* DVDAC8_1_INTERNAL_CLOCK_USED */
  98:Generated_Source\PSoC5/DVDAC8_1.c **** 
  99:Generated_Source\PSoC5/DVDAC8_1.c ****     DVDAC8_1_VDAC8_Enable();
 114              		.loc 1 99 0
 115 0010 FFF7FEFF 		bl	DVDAC8_1_VDAC8_Enable
 100:Generated_Source\PSoC5/DVDAC8_1.c **** }
 116              		.loc 1 100 0
 117 0014 80BD     		pop	{r7, pc}
 118              	.L7:
 119 0016 00BF     		.align	2
 120              	.L6:
 121 0018 01000000 		.word	DVDAC8_1_dmaChan
 122              		.cfi_endproc
 123              	.LFE1:
 124              		.size	DVDAC8_1_Enable, .-DVDAC8_1_Enable
 125              		.section	.text.DVDAC8_1_Start,"ax",%progbits
 126              		.align	2
 127              		.global	DVDAC8_1_Start
 128              		.thumb
ARM GAS  C:\Users\KJA\AppData\Local\Temp\cc52Jlc3.s 			page 5


 129              		.thumb_func
 130              		.type	DVDAC8_1_Start, %function
 131              	DVDAC8_1_Start:
 132              	.LFB2:
 101:Generated_Source\PSoC5/DVDAC8_1.c **** 
 102:Generated_Source\PSoC5/DVDAC8_1.c **** 
 103:Generated_Source\PSoC5/DVDAC8_1.c **** /*******************************************************************************
 104:Generated_Source\PSoC5/DVDAC8_1.c **** * Function Name: DVDAC8_1_Start
 105:Generated_Source\PSoC5/DVDAC8_1.c **** ********************************************************************************
 106:Generated_Source\PSoC5/DVDAC8_1.c **** *
 107:Generated_Source\PSoC5/DVDAC8_1.c **** * Summary:
 108:Generated_Source\PSoC5/DVDAC8_1.c **** *  Performs all of the required initialization for the component and enables
 109:Generated_Source\PSoC5/DVDAC8_1.c **** *  power to the block. The first time the routine is executed, the component is
 110:Generated_Source\PSoC5/DVDAC8_1.c **** *  initialized to the configured settings. When called to restart the DVDAC
 111:Generated_Source\PSoC5/DVDAC8_1.c **** *  following a DVDAC8_1_Stop() call, the current component parameter
 112:Generated_Source\PSoC5/DVDAC8_1.c **** *  settings are retained.
 113:Generated_Source\PSoC5/DVDAC8_1.c **** *
 114:Generated_Source\PSoC5/DVDAC8_1.c **** * Parameters:
 115:Generated_Source\PSoC5/DVDAC8_1.c **** *  None
 116:Generated_Source\PSoC5/DVDAC8_1.c **** *
 117:Generated_Source\PSoC5/DVDAC8_1.c **** * Return:
 118:Generated_Source\PSoC5/DVDAC8_1.c **** *  None
 119:Generated_Source\PSoC5/DVDAC8_1.c **** *
 120:Generated_Source\PSoC5/DVDAC8_1.c **** * Side Effects:
 121:Generated_Source\PSoC5/DVDAC8_1.c **** *  If the DVDAC8_1_initVar variable is already set, this function only
 122:Generated_Source\PSoC5/DVDAC8_1.c **** *  calls the DVDAC8_1_Enable() function.
 123:Generated_Source\PSoC5/DVDAC8_1.c **** *
 124:Generated_Source\PSoC5/DVDAC8_1.c **** * Global variables:
 125:Generated_Source\PSoC5/DVDAC8_1.c **** *  DVDAC8_1_initVar - indicates whether the DVDAC has been initialized.
 126:Generated_Source\PSoC5/DVDAC8_1.c **** *  The variable is initialized to 0 and set to 1 the first time DVDAC_Start()
 127:Generated_Source\PSoC5/DVDAC8_1.c **** *  is called. This allows the component to restart without reinitialization
 128:Generated_Source\PSoC5/DVDAC8_1.c **** *  after the first call to the DVDAC8_1_Start() routine. If
 129:Generated_Source\PSoC5/DVDAC8_1.c **** *  reinitialization of the component is required, then the
 130:Generated_Source\PSoC5/DVDAC8_1.c **** *  DVDAC8_1_Init() function can be called before the
 131:Generated_Source\PSoC5/DVDAC8_1.c **** *  DVDAC8_1_Start() or DVDAC8_1_Enable() function.
 132:Generated_Source\PSoC5/DVDAC8_1.c **** *
 133:Generated_Source\PSoC5/DVDAC8_1.c **** *******************************************************************************/
 134:Generated_Source\PSoC5/DVDAC8_1.c **** void DVDAC8_1_Start(void) 
 135:Generated_Source\PSoC5/DVDAC8_1.c **** {
 133              		.loc 1 135 0
 134              		.cfi_startproc
 135              		@ args = 0, pretend = 0, frame = 0
 136              		@ frame_needed = 1, uses_anonymous_args = 0
 137 0000 80B5     		push	{r7, lr}
 138              		.cfi_def_cfa_offset 8
 139              		.cfi_offset 7, -8
 140              		.cfi_offset 14, -4
 141 0002 00AF     		add	r7, sp, #0
 142              		.cfi_def_cfa_register 7
 136:Generated_Source\PSoC5/DVDAC8_1.c ****     /* Hardware initiazation only needs to occure the first time */
 137:Generated_Source\PSoC5/DVDAC8_1.c ****     if(0u == DVDAC8_1_initVar)
 143              		.loc 1 137 0
 144 0004 054B     		ldr	r3, .L10
 145 0006 1B78     		ldrb	r3, [r3]	@ zero_extendqisi2
 146 0008 002B     		cmp	r3, #0
 147 000a 04D1     		bne	.L9
 138:Generated_Source\PSoC5/DVDAC8_1.c ****     {
ARM GAS  C:\Users\KJA\AppData\Local\Temp\cc52Jlc3.s 			page 6


 139:Generated_Source\PSoC5/DVDAC8_1.c ****         DVDAC8_1_Init();
 148              		.loc 1 139 0
 149 000c FFF7FEFF 		bl	DVDAC8_1_Init
 140:Generated_Source\PSoC5/DVDAC8_1.c ****         DVDAC8_1_initVar = 1u;
 150              		.loc 1 140 0
 151 0010 024B     		ldr	r3, .L10
 152 0012 0122     		movs	r2, #1
 153 0014 1A70     		strb	r2, [r3]
 154              	.L9:
 141:Generated_Source\PSoC5/DVDAC8_1.c ****     }
 142:Generated_Source\PSoC5/DVDAC8_1.c **** 
 143:Generated_Source\PSoC5/DVDAC8_1.c ****     DVDAC8_1_Enable();
 155              		.loc 1 143 0
 156 0016 FFF7FEFF 		bl	DVDAC8_1_Enable
 144:Generated_Source\PSoC5/DVDAC8_1.c **** }
 157              		.loc 1 144 0
 158 001a 80BD     		pop	{r7, pc}
 159              	.L11:
 160              		.align	2
 161              	.L10:
 162 001c 00000000 		.word	DVDAC8_1_initVar
 163              		.cfi_endproc
 164              	.LFE2:
 165              		.size	DVDAC8_1_Start, .-DVDAC8_1_Start
 166              		.section	.text.DVDAC8_1_Stop,"ax",%progbits
 167              		.align	2
 168              		.global	DVDAC8_1_Stop
 169              		.thumb
 170              		.thumb_func
 171              		.type	DVDAC8_1_Stop, %function
 172              	DVDAC8_1_Stop:
 173              	.LFB3:
 145:Generated_Source\PSoC5/DVDAC8_1.c **** 
 146:Generated_Source\PSoC5/DVDAC8_1.c **** 
 147:Generated_Source\PSoC5/DVDAC8_1.c **** /*******************************************************************************
 148:Generated_Source\PSoC5/DVDAC8_1.c **** * Function Name: DVDAC8_1_Stop
 149:Generated_Source\PSoC5/DVDAC8_1.c **** ********************************************************************************
 150:Generated_Source\PSoC5/DVDAC8_1.c **** *
 151:Generated_Source\PSoC5/DVDAC8_1.c **** * Summary:
 152:Generated_Source\PSoC5/DVDAC8_1.c **** *  Stops the component and turns off the analog blocks in the DVDAC.
 153:Generated_Source\PSoC5/DVDAC8_1.c **** *
 154:Generated_Source\PSoC5/DVDAC8_1.c **** * Parameters:
 155:Generated_Source\PSoC5/DVDAC8_1.c **** *  None
 156:Generated_Source\PSoC5/DVDAC8_1.c **** *
 157:Generated_Source\PSoC5/DVDAC8_1.c **** * Return:
 158:Generated_Source\PSoC5/DVDAC8_1.c **** *  None
 159:Generated_Source\PSoC5/DVDAC8_1.c **** *
 160:Generated_Source\PSoC5/DVDAC8_1.c **** * Global variables:
 161:Generated_Source\PSoC5/DVDAC8_1.c **** *  None
 162:Generated_Source\PSoC5/DVDAC8_1.c **** *
 163:Generated_Source\PSoC5/DVDAC8_1.c **** *******************************************************************************/
 164:Generated_Source\PSoC5/DVDAC8_1.c **** void DVDAC8_1_Stop(void) 
 165:Generated_Source\PSoC5/DVDAC8_1.c **** {
 174              		.loc 1 165 0
 175              		.cfi_startproc
 176              		@ args = 0, pretend = 0, frame = 0
 177              		@ frame_needed = 1, uses_anonymous_args = 0
ARM GAS  C:\Users\KJA\AppData\Local\Temp\cc52Jlc3.s 			page 7


 178 0000 80B5     		push	{r7, lr}
 179              		.cfi_def_cfa_offset 8
 180              		.cfi_offset 7, -8
 181              		.cfi_offset 14, -4
 182 0002 00AF     		add	r7, sp, #0
 183              		.cfi_def_cfa_register 7
 166:Generated_Source\PSoC5/DVDAC8_1.c ****     #if(DVDAC8_1_INTERNAL_CLOCK_USED)
 167:Generated_Source\PSoC5/DVDAC8_1.c ****         DVDAC8_1_IntClock_Stop();
 168:Generated_Source\PSoC5/DVDAC8_1.c ****     #endif /* DVDAC8_1_INTERNAL_CLOCK_USED */
 169:Generated_Source\PSoC5/DVDAC8_1.c **** 
 170:Generated_Source\PSoC5/DVDAC8_1.c ****     (void) CyDmaChDisable(DVDAC8_1_dmaChan);
 184              		.loc 1 170 0
 185 0004 034B     		ldr	r3, .L13
 186 0006 1B78     		ldrb	r3, [r3]	@ zero_extendqisi2
 187 0008 1846     		mov	r0, r3
 188 000a FFF7FEFF 		bl	CyDmaChDisable
 171:Generated_Source\PSoC5/DVDAC8_1.c ****     DVDAC8_1_VDAC8_Stop();
 189              		.loc 1 171 0
 190 000e FFF7FEFF 		bl	DVDAC8_1_VDAC8_Stop
 172:Generated_Source\PSoC5/DVDAC8_1.c **** }
 191              		.loc 1 172 0
 192 0012 80BD     		pop	{r7, pc}
 193              	.L14:
 194              		.align	2
 195              	.L13:
 196 0014 01000000 		.word	DVDAC8_1_dmaChan
 197              		.cfi_endproc
 198              	.LFE3:
 199              		.size	DVDAC8_1_Stop, .-DVDAC8_1_Stop
 200              		.section	.text.DVDAC8_1_SetValue,"ax",%progbits
 201              		.align	2
 202              		.global	DVDAC8_1_SetValue
 203              		.thumb
 204              		.thumb_func
 205              		.type	DVDAC8_1_SetValue, %function
 206              	DVDAC8_1_SetValue:
 207              	.LFB4:
 173:Generated_Source\PSoC5/DVDAC8_1.c **** 
 174:Generated_Source\PSoC5/DVDAC8_1.c **** 
 175:Generated_Source\PSoC5/DVDAC8_1.c **** /*******************************************************************************
 176:Generated_Source\PSoC5/DVDAC8_1.c **** * Function Name: DVDAC8_1_SetValue
 177:Generated_Source\PSoC5/DVDAC8_1.c **** ********************************************************************************
 178:Generated_Source\PSoC5/DVDAC8_1.c **** *
 179:Generated_Source\PSoC5/DVDAC8_1.c **** * Summary:
 180:Generated_Source\PSoC5/DVDAC8_1.c **** *  Sets the DVDACs output. The function populates the SRAM array based on the
 181:Generated_Source\PSoC5/DVDAC8_1.c **** *  value and the resolution setting. That array is then transferred to the
 182:Generated_Source\PSoC5/DVDAC8_1.c **** *  internal VDAC by DMA.
 183:Generated_Source\PSoC5/DVDAC8_1.c **** *
 184:Generated_Source\PSoC5/DVDAC8_1.c **** * Parameters:
 185:Generated_Source\PSoC5/DVDAC8_1.c **** *  (uint16) value:  The maximum value will be dependent on the resolution
 186:Generated_Source\PSoC5/DVDAC8_1.c **** *  selected:
 187:Generated_Source\PSoC5/DVDAC8_1.c **** *   Resolution       Valid range
 188:Generated_Source\PSoC5/DVDAC8_1.c **** *        9 bits       0x0 - 0x1FE
 189:Generated_Source\PSoC5/DVDAC8_1.c **** *       10 bits       0x0 - 0x3FC
 190:Generated_Source\PSoC5/DVDAC8_1.c **** *       11 bits       0x0 - 0x7F8
 191:Generated_Source\PSoC5/DVDAC8_1.c **** *       12 bits       0x0 - 0xFF0
 192:Generated_Source\PSoC5/DVDAC8_1.c **** *
ARM GAS  C:\Users\KJA\AppData\Local\Temp\cc52Jlc3.s 			page 8


 193:Generated_Source\PSoC5/DVDAC8_1.c **** *  This value includes an integer portion and a fractional portion that varies
 194:Generated_Source\PSoC5/DVDAC8_1.c **** *  depending on number of bits of resolution:
 195:Generated_Source\PSoC5/DVDAC8_1.c **** *   - 9-bits:  1 fractional bit
 196:Generated_Source\PSoC5/DVDAC8_1.c **** *   - 10-bits: 2 fractional bits
 197:Generated_Source\PSoC5/DVDAC8_1.c **** *   - 11-bits: 3 fractional bits
 198:Generated_Source\PSoC5/DVDAC8_1.c **** *   - 12-bits: 4 fractional bits
 199:Generated_Source\PSoC5/DVDAC8_1.c **** *
 200:Generated_Source\PSoC5/DVDAC8_1.c **** * Return:
 201:Generated_Source\PSoC5/DVDAC8_1.c **** *  None
 202:Generated_Source\PSoC5/DVDAC8_1.c **** *
 203:Generated_Source\PSoC5/DVDAC8_1.c **** * Global variables:
 204:Generated_Source\PSoC5/DVDAC8_1.c **** *  None
 205:Generated_Source\PSoC5/DVDAC8_1.c **** *
 206:Generated_Source\PSoC5/DVDAC8_1.c **** *******************************************************************************/
 207:Generated_Source\PSoC5/DVDAC8_1.c **** void DVDAC8_1_SetValue(uint16 value) 
 208:Generated_Source\PSoC5/DVDAC8_1.c **** {
 208              		.loc 1 208 0
 209              		.cfi_startproc
 210              		@ args = 0, pretend = 0, frame = 16
 211              		@ frame_needed = 1, uses_anonymous_args = 0
 212 0000 80B5     		push	{r7, lr}
 213              		.cfi_def_cfa_offset 8
 214              		.cfi_offset 7, -8
 215              		.cfi_offset 14, -4
 216 0002 84B0     		sub	sp, sp, #16
 217              		.cfi_def_cfa_offset 24
 218 0004 00AF     		add	r7, sp, #0
 219              		.cfi_def_cfa_register 7
 220 0006 0346     		mov	r3, r0
 221 0008 FB80     		strh	r3, [r7, #6]	@ movhi
 209:Generated_Source\PSoC5/DVDAC8_1.c ****     uint8  lowCount  = (uint8)(value & DVDAC8_1_FRACTIONAL_PORTION_MASK);
 222              		.loc 1 209 0
 223 000a FB88     		ldrh	r3, [r7, #6]	@ movhi
 224 000c DBB2     		uxtb	r3, r3
 225 000e 03F00F03 		and	r3, r3, #15
 226 0012 BB73     		strb	r3, [r7, #14]
 210:Generated_Source\PSoC5/DVDAC8_1.c ****     uint8 highCount  = (uint8)(value >> DVDAC8_1_INTEGER_PORTION_SHIFT);
 227              		.loc 1 210 0
 228 0014 FB88     		ldrh	r3, [r7, #6]
 229 0016 1B09     		lsrs	r3, r3, #4
 230 0018 9BB2     		uxth	r3, r3
 231 001a 7B73     		strb	r3, [r7, #13]
 211:Generated_Source\PSoC5/DVDAC8_1.c ****     uint8 i;
 212:Generated_Source\PSoC5/DVDAC8_1.c **** 
 213:Generated_Source\PSoC5/DVDAC8_1.c **** 
 214:Generated_Source\PSoC5/DVDAC8_1.c ****     CYASSERT(value <= DVDAC8_1_DVDAC_MAX_VALUE);
 232              		.loc 1 214 0
 233 001c FB88     		ldrh	r3, [r7, #6]
 234 001e B3F57F6F 		cmp	r3, #4080
 235 0022 02D9     		bls	.L16
 236              		.loc 1 214 0 is_stmt 0 discriminator 1
 237 0024 0020     		movs	r0, #0
 238 0026 FFF7FEFF 		bl	CyHalt
 239              	.L16:
 215:Generated_Source\PSoC5/DVDAC8_1.c **** 
 216:Generated_Source\PSoC5/DVDAC8_1.c ****     if (DVDAC8_1_INTEGER_PORTION_MAX_VALUE == highCount)
 240              		.loc 1 216 0 is_stmt 1
ARM GAS  C:\Users\KJA\AppData\Local\Temp\cc52Jlc3.s 			page 9


 241 002a 7B7B     		ldrb	r3, [r7, #13]	@ zero_extendqisi2
 242 002c FF2B     		cmp	r3, #255
 243 002e 0DD1     		bne	.L17
 217:Generated_Source\PSoC5/DVDAC8_1.c ****     {
 218:Generated_Source\PSoC5/DVDAC8_1.c ****         for (i = 0u; i < DVDAC8_1_DITHERED_ARRAY_SIZE; i++)
 244              		.loc 1 218 0
 245 0030 0023     		movs	r3, #0
 246 0032 FB73     		strb	r3, [r7, #15]
 247 0034 06E0     		b	.L18
 248              	.L19:
 219:Generated_Source\PSoC5/DVDAC8_1.c ****         {
 220:Generated_Source\PSoC5/DVDAC8_1.c ****             DVDAC8_1_ditheredValues[i] = DVDAC8_1_INTEGER_PORTION_MAX_VALUE;
 249              		.loc 1 220 0 discriminator 3
 250 0036 FB7B     		ldrb	r3, [r7, #15]	@ zero_extendqisi2
 251 0038 134A     		ldr	r2, .L25
 252 003a FF21     		movs	r1, #255
 253 003c D154     		strb	r1, [r2, r3]
 218:Generated_Source\PSoC5/DVDAC8_1.c ****         {
 254              		.loc 1 218 0 discriminator 3
 255 003e FB7B     		ldrb	r3, [r7, #15]	@ zero_extendqisi2
 256 0040 0133     		adds	r3, r3, #1
 257 0042 FB73     		strb	r3, [r7, #15]
 258              	.L18:
 218:Generated_Source\PSoC5/DVDAC8_1.c ****         {
 259              		.loc 1 218 0 is_stmt 0 discriminator 1
 260 0044 FB7B     		ldrb	r3, [r7, #15]	@ zero_extendqisi2
 261 0046 0F2B     		cmp	r3, #15
 262 0048 F5D9     		bls	.L19
 263 004a 19E0     		b	.L15
 264              	.L17:
 221:Generated_Source\PSoC5/DVDAC8_1.c ****         }
 222:Generated_Source\PSoC5/DVDAC8_1.c ****     }
 223:Generated_Source\PSoC5/DVDAC8_1.c ****     else
 224:Generated_Source\PSoC5/DVDAC8_1.c ****     {
 225:Generated_Source\PSoC5/DVDAC8_1.c ****         for(i = 0u; i < DVDAC8_1_DITHERED_ARRAY_SIZE; i++)
 265              		.loc 1 225 0 is_stmt 1
 266 004c 0023     		movs	r3, #0
 267 004e FB73     		strb	r3, [r7, #15]
 268 0050 13E0     		b	.L21
 269              	.L24:
 226:Generated_Source\PSoC5/DVDAC8_1.c ****         {
 227:Generated_Source\PSoC5/DVDAC8_1.c ****             if(i < (DVDAC8_1_DITHERED_ARRAY_SIZE - lowCount))
 270              		.loc 1 227 0
 271 0052 FA7B     		ldrb	r2, [r7, #15]	@ zero_extendqisi2
 272 0054 BB7B     		ldrb	r3, [r7, #14]	@ zero_extendqisi2
 273 0056 C3F11003 		rsb	r3, r3, #16
 274 005a 9A42     		cmp	r2, r3
 275 005c 04DA     		bge	.L22
 228:Generated_Source\PSoC5/DVDAC8_1.c ****             {
 229:Generated_Source\PSoC5/DVDAC8_1.c ****                 DVDAC8_1_ditheredValues[i] = highCount;
 276              		.loc 1 229 0
 277 005e FB7B     		ldrb	r3, [r7, #15]	@ zero_extendqisi2
 278 0060 0949     		ldr	r1, .L25
 279 0062 7A7B     		ldrb	r2, [r7, #13]
 280 0064 CA54     		strb	r2, [r1, r3]
 281 0066 05E0     		b	.L23
 282              	.L22:
ARM GAS  C:\Users\KJA\AppData\Local\Temp\cc52Jlc3.s 			page 10


 230:Generated_Source\PSoC5/DVDAC8_1.c ****             }
 231:Generated_Source\PSoC5/DVDAC8_1.c ****             else
 232:Generated_Source\PSoC5/DVDAC8_1.c ****             {
 233:Generated_Source\PSoC5/DVDAC8_1.c ****                 DVDAC8_1_ditheredValues[i] = highCount + 1u;
 283              		.loc 1 233 0
 284 0068 FB7B     		ldrb	r3, [r7, #15]	@ zero_extendqisi2
 285 006a 7A7B     		ldrb	r2, [r7, #13]
 286 006c 0132     		adds	r2, r2, #1
 287 006e D1B2     		uxtb	r1, r2
 288 0070 054A     		ldr	r2, .L25
 289 0072 D154     		strb	r1, [r2, r3]
 290              	.L23:
 225:Generated_Source\PSoC5/DVDAC8_1.c ****         {
 291              		.loc 1 225 0 discriminator 2
 292 0074 FB7B     		ldrb	r3, [r7, #15]	@ zero_extendqisi2
 293 0076 0133     		adds	r3, r3, #1
 294 0078 FB73     		strb	r3, [r7, #15]
 295              	.L21:
 225:Generated_Source\PSoC5/DVDAC8_1.c ****         {
 296              		.loc 1 225 0 is_stmt 0 discriminator 1
 297 007a FB7B     		ldrb	r3, [r7, #15]	@ zero_extendqisi2
 298 007c 0F2B     		cmp	r3, #15
 299 007e E8D9     		bls	.L24
 300              	.L15:
 234:Generated_Source\PSoC5/DVDAC8_1.c ****             }
 235:Generated_Source\PSoC5/DVDAC8_1.c ****         }
 236:Generated_Source\PSoC5/DVDAC8_1.c ****     }
 237:Generated_Source\PSoC5/DVDAC8_1.c **** }
 301              		.loc 1 237 0 is_stmt 1
 302 0080 1037     		adds	r7, r7, #16
 303              		.cfi_def_cfa_offset 8
 304 0082 BD46     		mov	sp, r7
 305              		.cfi_def_cfa_register 13
 306              		@ sp needed
 307 0084 80BD     		pop	{r7, pc}
 308              	.L26:
 309 0086 00BF     		.align	2
 310              	.L25:
 311 0088 00000000 		.word	DVDAC8_1_ditheredValues
 312              		.cfi_endproc
 313              	.LFE4:
 314              		.size	DVDAC8_1_SetValue, .-DVDAC8_1_SetValue
 315              		.section	.text.DVDAC8_1_InitDma,"ax",%progbits
 316              		.align	2
 317              		.thumb
 318              		.thumb_func
 319              		.type	DVDAC8_1_InitDma, %function
 320              	DVDAC8_1_InitDma:
 321              	.LFB5:
 238:Generated_Source\PSoC5/DVDAC8_1.c **** 
 239:Generated_Source\PSoC5/DVDAC8_1.c **** 
 240:Generated_Source\PSoC5/DVDAC8_1.c **** /*******************************************************************************
 241:Generated_Source\PSoC5/DVDAC8_1.c **** * Function Name: DVDAC8_1_InitDma
 242:Generated_Source\PSoC5/DVDAC8_1.c **** ********************************************************************************
 243:Generated_Source\PSoC5/DVDAC8_1.c **** *
 244:Generated_Source\PSoC5/DVDAC8_1.c **** * Summary:
 245:Generated_Source\PSoC5/DVDAC8_1.c **** *  Configures a DMA transfer of channel values from memory to VDAC.
ARM GAS  C:\Users\KJA\AppData\Local\Temp\cc52Jlc3.s 			page 11


 246:Generated_Source\PSoC5/DVDAC8_1.c **** *
 247:Generated_Source\PSoC5/DVDAC8_1.c **** * Parameters:
 248:Generated_Source\PSoC5/DVDAC8_1.c **** *  None
 249:Generated_Source\PSoC5/DVDAC8_1.c **** *
 250:Generated_Source\PSoC5/DVDAC8_1.c **** * Return:
 251:Generated_Source\PSoC5/DVDAC8_1.c **** *  None
 252:Generated_Source\PSoC5/DVDAC8_1.c **** *
 253:Generated_Source\PSoC5/DVDAC8_1.c **** *******************************************************************************/
 254:Generated_Source\PSoC5/DVDAC8_1.c **** static void DVDAC8_1_InitDma(void)  
 255:Generated_Source\PSoC5/DVDAC8_1.c **** {
 322              		.loc 1 255 0
 323              		.cfi_startproc
 324              		@ args = 0, pretend = 0, frame = 0
 325              		@ frame_needed = 1, uses_anonymous_args = 0
 326 0000 80B5     		push	{r7, lr}
 327              		.cfi_def_cfa_offset 8
 328              		.cfi_offset 7, -8
 329              		.cfi_offset 14, -4
 330 0002 00AF     		add	r7, sp, #0
 331              		.cfi_def_cfa_register 7
 256:Generated_Source\PSoC5/DVDAC8_1.c ****     /***************************************************************************
 257:Generated_Source\PSoC5/DVDAC8_1.c ****     * Transfers channel values from SRAM to VDAC register. One byte transfer,
 258:Generated_Source\PSoC5/DVDAC8_1.c ****     * each burst requires a request.
 259:Generated_Source\PSoC5/DVDAC8_1.c ****     ***************************************************************************/
 260:Generated_Source\PSoC5/DVDAC8_1.c ****     DVDAC8_1_dmaChan = DVDAC8_1_DMA_DmaInitialize(
 332              		.loc 1 260 0
 333 0004 0120     		movs	r0, #1
 334 0006 0121     		movs	r1, #1
 335 0008 41F6FF72 		movw	r2, #8191
 336 000c 4FF48043 		mov	r3, #16384
 337 0010 FFF7FEFF 		bl	DVDAC8_1_DMA_DmaInitialize
 338 0014 0346     		mov	r3, r0
 339 0016 1A46     		mov	r2, r3
 340 0018 124B     		ldr	r3, .L28
 341 001a 1A70     		strb	r2, [r3]
 261:Generated_Source\PSoC5/DVDAC8_1.c ****                                     DVDAC8_1_DMA_BYTES_PER_BURST,
 262:Generated_Source\PSoC5/DVDAC8_1.c ****                                     DVDAC8_1_DMA_REQUEST_PER_BURST,
 263:Generated_Source\PSoC5/DVDAC8_1.c ****                                     HI16(DVDAC8_1_DMA_SRC_BASE),
 264:Generated_Source\PSoC5/DVDAC8_1.c ****                                     HI16(DVDAC8_1_DMA_DST_BASE));
 265:Generated_Source\PSoC5/DVDAC8_1.c **** 
 266:Generated_Source\PSoC5/DVDAC8_1.c ****     DVDAC8_1_dmaTd = CyDmaTdAllocate();
 342              		.loc 1 266 0
 343 001c FFF7FEFF 		bl	CyDmaTdAllocate
 344 0020 0346     		mov	r3, r0
 345 0022 1A46     		mov	r2, r3
 346 0024 104B     		ldr	r3, .L28+4
 347 0026 1A70     		strb	r2, [r3]
 267:Generated_Source\PSoC5/DVDAC8_1.c **** 
 268:Generated_Source\PSoC5/DVDAC8_1.c **** 
 269:Generated_Source\PSoC5/DVDAC8_1.c ****     /***************************************************************************
 270:Generated_Source\PSoC5/DVDAC8_1.c ****     * One TD looping on itself, increment the source address, but not the
 271:Generated_Source\PSoC5/DVDAC8_1.c ****     * destination address.
 272:Generated_Source\PSoC5/DVDAC8_1.c ****     ***************************************************************************/
 273:Generated_Source\PSoC5/DVDAC8_1.c ****     (void) CyDmaTdSetConfiguration( DVDAC8_1_dmaTd,
 348              		.loc 1 273 0
 349 0028 0F4B     		ldr	r3, .L28+4
 350 002a 1A78     		ldrb	r2, [r3]	@ zero_extendqisi2
ARM GAS  C:\Users\KJA\AppData\Local\Temp\cc52Jlc3.s 			page 12


 351 002c 0E4B     		ldr	r3, .L28+4
 352 002e 1B78     		ldrb	r3, [r3]	@ zero_extendqisi2
 353 0030 1046     		mov	r0, r2
 354 0032 1021     		movs	r1, #16
 355 0034 1A46     		mov	r2, r3
 356 0036 0123     		movs	r3, #1
 357 0038 FFF7FEFF 		bl	CyDmaTdSetConfiguration
 274:Generated_Source\PSoC5/DVDAC8_1.c ****                                     DVDAC8_1_DITHERED_ARRAY_SIZE,
 275:Generated_Source\PSoC5/DVDAC8_1.c ****                                     DVDAC8_1_dmaTd,
 276:Generated_Source\PSoC5/DVDAC8_1.c ****                                     (uint8) CY_DMA_TD_INC_SRC_ADR);
 277:Generated_Source\PSoC5/DVDAC8_1.c **** 
 278:Generated_Source\PSoC5/DVDAC8_1.c ****     /* Transfers the value for each channel from memory to VDAC */
 279:Generated_Source\PSoC5/DVDAC8_1.c ****     (void) CyDmaTdSetAddress(   DVDAC8_1_dmaTd,
 358              		.loc 1 279 0
 359 003c 0A4B     		ldr	r3, .L28+4
 360 003e 1A78     		ldrb	r2, [r3]	@ zero_extendqisi2
 361 0040 0A4B     		ldr	r3, .L28+8
 362 0042 9BB2     		uxth	r3, r3
 363 0044 1046     		mov	r0, r2
 364 0046 1946     		mov	r1, r3
 365 0048 45F68132 		movw	r2, #23425
 366 004c FFF7FEFF 		bl	CyDmaTdSetAddress
 280:Generated_Source\PSoC5/DVDAC8_1.c ****                                 LO16((uint32)DVDAC8_1_ditheredValues),
 281:Generated_Source\PSoC5/DVDAC8_1.c ****                                 LO16((uint32)DVDAC8_1_VDAC8_Data_PTR));
 282:Generated_Source\PSoC5/DVDAC8_1.c **** 
 283:Generated_Source\PSoC5/DVDAC8_1.c ****     (void) CyDmaChSetInitialTd(DVDAC8_1_dmaChan, DVDAC8_1_dmaTd);
 367              		.loc 1 283 0
 368 0050 044B     		ldr	r3, .L28
 369 0052 1A78     		ldrb	r2, [r3]	@ zero_extendqisi2
 370 0054 044B     		ldr	r3, .L28+4
 371 0056 1B78     		ldrb	r3, [r3]	@ zero_extendqisi2
 372 0058 1046     		mov	r0, r2
 373 005a 1946     		mov	r1, r3
 374 005c FFF7FEFF 		bl	CyDmaChSetInitialTd
 284:Generated_Source\PSoC5/DVDAC8_1.c **** }
 375              		.loc 1 284 0
 376 0060 80BD     		pop	{r7, pc}
 377              	.L29:
 378 0062 00BF     		.align	2
 379              	.L28:
 380 0064 01000000 		.word	DVDAC8_1_dmaChan
 381 0068 10000000 		.word	DVDAC8_1_dmaTd
 382 006c 00000000 		.word	DVDAC8_1_ditheredValues
 383              		.cfi_endproc
 384              	.LFE5:
 385              		.size	DVDAC8_1_InitDma, .-DVDAC8_1_InitDma
 386              		.text
 387              	.Letext0:
 388              		.file 2 "Generated_Source\\PSoC5\\cytypes.h"