ARM GAS  C:\Users\KJA\AppData\Local\Temp\ccJYNvpW.s 			page 1


   1              		.syntax unified
   2              		.cpu cortex-m3
   3              		.fpu softvfp
   4              		.eabi_attribute 20, 1
   5              		.eabi_attribute 21, 1
   6              		.eabi_attribute 23, 3
   7              		.eabi_attribute 24, 1
   8              		.eabi_attribute 25, 1
   9              		.eabi_attribute 26, 1
  10              		.eabi_attribute 30, 6
  11              		.eabi_attribute 34, 1
  12              		.eabi_attribute 18, 4
  13              		.thumb
  14              		.file	"EEPROM.c"
  15              		.text
  16              	.Ltext0:
  17              		.cfi_sections	.debug_frame
  18              		.section	.text.EEPROM_Enable,"ax",%progbits
  19              		.align	2
  20              		.global	EEPROM_Enable
  21              		.thumb
  22              		.thumb_func
  23              		.type	EEPROM_Enable, %function
  24              	EEPROM_Enable:
  25              	.LFB0:
  26              		.file 1 "Generated_Source\\PSoC5\\EEPROM.c"
   1:Generated_Source\PSoC5/EEPROM.c **** /*******************************************************************************
   2:Generated_Source\PSoC5/EEPROM.c **** * File Name: EEPROM.c
   3:Generated_Source\PSoC5/EEPROM.c **** * Version 3.0
   4:Generated_Source\PSoC5/EEPROM.c **** *
   5:Generated_Source\PSoC5/EEPROM.c **** *  Description:
   6:Generated_Source\PSoC5/EEPROM.c **** *   Provides the source code to the API for the EEPROM component.
   7:Generated_Source\PSoC5/EEPROM.c **** *
   8:Generated_Source\PSoC5/EEPROM.c **** ********************************************************************************
   9:Generated_Source\PSoC5/EEPROM.c **** * Copyright 2008-2015, Cypress Semiconductor Corporation.  All rights reserved.
  10:Generated_Source\PSoC5/EEPROM.c **** * You may use this file only in accordance with the license, terms, conditions,
  11:Generated_Source\PSoC5/EEPROM.c **** * disclaimers, and limitations in the end user license agreement accompanying
  12:Generated_Source\PSoC5/EEPROM.c **** * the software package with which this file was provided.
  13:Generated_Source\PSoC5/EEPROM.c **** *******************************************************************************/
  14:Generated_Source\PSoC5/EEPROM.c **** 
  15:Generated_Source\PSoC5/EEPROM.c **** #include "EEPROM.h"
  16:Generated_Source\PSoC5/EEPROM.c **** 
  17:Generated_Source\PSoC5/EEPROM.c **** 
  18:Generated_Source\PSoC5/EEPROM.c **** /*******************************************************************************
  19:Generated_Source\PSoC5/EEPROM.c **** * Function Name: EEPROM_Enable
  20:Generated_Source\PSoC5/EEPROM.c **** ********************************************************************************
  21:Generated_Source\PSoC5/EEPROM.c **** *
  22:Generated_Source\PSoC5/EEPROM.c **** * Summary:
  23:Generated_Source\PSoC5/EEPROM.c **** *  Enable the EEPROM block. Also reads the temperature and stores it for
  24:Generated_Source\PSoC5/EEPROM.c **** *  future writes.
  25:Generated_Source\PSoC5/EEPROM.c **** *
  26:Generated_Source\PSoC5/EEPROM.c **** * Parameters:
  27:Generated_Source\PSoC5/EEPROM.c **** *  None
  28:Generated_Source\PSoC5/EEPROM.c **** *
  29:Generated_Source\PSoC5/EEPROM.c **** * Return:
  30:Generated_Source\PSoC5/EEPROM.c **** *  None
  31:Generated_Source\PSoC5/EEPROM.c **** *
ARM GAS  C:\Users\KJA\AppData\Local\Temp\ccJYNvpW.s 			page 2


  32:Generated_Source\PSoC5/EEPROM.c **** *******************************************************************************/
  33:Generated_Source\PSoC5/EEPROM.c **** void EEPROM_Enable(void) 
  34:Generated_Source\PSoC5/EEPROM.c **** {
  27              		.loc 1 34 0
  28              		.cfi_startproc
  29              		@ args = 0, pretend = 0, frame = 0
  30              		@ frame_needed = 1, uses_anonymous_args = 0
  31 0000 80B5     		push	{r7, lr}
  32              		.cfi_def_cfa_offset 8
  33              		.cfi_offset 7, -8
  34              		.cfi_offset 14, -4
  35 0002 00AF     		add	r7, sp, #0
  36              		.cfi_def_cfa_register 7
  35:Generated_Source\PSoC5/EEPROM.c ****     /* Read temperature value */
  36:Generated_Source\PSoC5/EEPROM.c ****     (void)CySetTemp();
  37              		.loc 1 36 0
  38 0004 FFF7FEFF 		bl	CySetTemp
  37:Generated_Source\PSoC5/EEPROM.c **** 
  38:Generated_Source\PSoC5/EEPROM.c ****     /* Start EEPROM block */
  39:Generated_Source\PSoC5/EEPROM.c ****     CyEEPROM_Start();
  39              		.loc 1 39 0
  40 0008 FFF7FEFF 		bl	CyEEPROM_Start
  40:Generated_Source\PSoC5/EEPROM.c **** }
  41              		.loc 1 40 0
  42 000c 80BD     		pop	{r7, pc}
  43              		.cfi_endproc
  44              	.LFE0:
  45              		.size	EEPROM_Enable, .-EEPROM_Enable
  46 000e 00BF     		.section	.text.EEPROM_Start,"ax",%progbits
  47              		.align	2
  48              		.global	EEPROM_Start
  49              		.thumb
  50              		.thumb_func
  51              		.type	EEPROM_Start, %function
  52              	EEPROM_Start:
  53              	.LFB1:
  41:Generated_Source\PSoC5/EEPROM.c **** 
  42:Generated_Source\PSoC5/EEPROM.c **** 
  43:Generated_Source\PSoC5/EEPROM.c **** /*******************************************************************************
  44:Generated_Source\PSoC5/EEPROM.c **** * Function Name: EEPROM_Start
  45:Generated_Source\PSoC5/EEPROM.c **** ********************************************************************************
  46:Generated_Source\PSoC5/EEPROM.c **** *
  47:Generated_Source\PSoC5/EEPROM.c **** * Summary:
  48:Generated_Source\PSoC5/EEPROM.c **** *  Starts EEPROM.
  49:Generated_Source\PSoC5/EEPROM.c **** *
  50:Generated_Source\PSoC5/EEPROM.c **** * Parameters:
  51:Generated_Source\PSoC5/EEPROM.c **** *  None
  52:Generated_Source\PSoC5/EEPROM.c **** *
  53:Generated_Source\PSoC5/EEPROM.c **** * Return:
  54:Generated_Source\PSoC5/EEPROM.c **** *  None
  55:Generated_Source\PSoC5/EEPROM.c **** *
  56:Generated_Source\PSoC5/EEPROM.c **** *******************************************************************************/
  57:Generated_Source\PSoC5/EEPROM.c **** void EEPROM_Start(void) 
  58:Generated_Source\PSoC5/EEPROM.c **** {
  54              		.loc 1 58 0
  55              		.cfi_startproc
  56              		@ args = 0, pretend = 0, frame = 0
ARM GAS  C:\Users\KJA\AppData\Local\Temp\ccJYNvpW.s 			page 3


  57              		@ frame_needed = 1, uses_anonymous_args = 0
  58 0000 80B5     		push	{r7, lr}
  59              		.cfi_def_cfa_offset 8
  60              		.cfi_offset 7, -8
  61              		.cfi_offset 14, -4
  62 0002 00AF     		add	r7, sp, #0
  63              		.cfi_def_cfa_register 7
  59:Generated_Source\PSoC5/EEPROM.c ****     EEPROM_Enable();
  64              		.loc 1 59 0
  65 0004 FFF7FEFF 		bl	EEPROM_Enable
  60:Generated_Source\PSoC5/EEPROM.c **** }
  66              		.loc 1 60 0
  67 0008 80BD     		pop	{r7, pc}
  68              		.cfi_endproc
  69              	.LFE1:
  70              		.size	EEPROM_Start, .-EEPROM_Start
  71 000a 00BF     		.section	.text.EEPROM_Stop,"ax",%progbits
  72              		.align	2
  73              		.global	EEPROM_Stop
  74              		.thumb
  75              		.thumb_func
  76              		.type	EEPROM_Stop, %function
  77              	EEPROM_Stop:
  78              	.LFB2:
  61:Generated_Source\PSoC5/EEPROM.c **** 
  62:Generated_Source\PSoC5/EEPROM.c **** 
  63:Generated_Source\PSoC5/EEPROM.c **** /*******************************************************************************
  64:Generated_Source\PSoC5/EEPROM.c **** * Function Name: EEPROM_Stop
  65:Generated_Source\PSoC5/EEPROM.c **** ********************************************************************************
  66:Generated_Source\PSoC5/EEPROM.c **** *
  67:Generated_Source\PSoC5/EEPROM.c **** * Summary:
  68:Generated_Source\PSoC5/EEPROM.c **** *  Stops and powers down EEPROM.
  69:Generated_Source\PSoC5/EEPROM.c **** *
  70:Generated_Source\PSoC5/EEPROM.c **** * Parameters:
  71:Generated_Source\PSoC5/EEPROM.c **** *  None
  72:Generated_Source\PSoC5/EEPROM.c **** *
  73:Generated_Source\PSoC5/EEPROM.c **** * Return:
  74:Generated_Source\PSoC5/EEPROM.c **** *  None
  75:Generated_Source\PSoC5/EEPROM.c **** *
  76:Generated_Source\PSoC5/EEPROM.c **** *******************************************************************************/
  77:Generated_Source\PSoC5/EEPROM.c **** void EEPROM_Stop (void) 
  78:Generated_Source\PSoC5/EEPROM.c **** {
  79              		.loc 1 78 0
  80              		.cfi_startproc
  81              		@ args = 0, pretend = 0, frame = 0
  82              		@ frame_needed = 1, uses_anonymous_args = 0
  83 0000 80B5     		push	{r7, lr}
  84              		.cfi_def_cfa_offset 8
  85              		.cfi_offset 7, -8
  86              		.cfi_offset 14, -4
  87 0002 00AF     		add	r7, sp, #0
  88              		.cfi_def_cfa_register 7
  79:Generated_Source\PSoC5/EEPROM.c ****     /* Stop and power down EEPROM block */
  80:Generated_Source\PSoC5/EEPROM.c ****     CyEEPROM_Stop();
  89              		.loc 1 80 0
  90 0004 FFF7FEFF 		bl	CyEEPROM_Stop
  81:Generated_Source\PSoC5/EEPROM.c **** }
ARM GAS  C:\Users\KJA\AppData\Local\Temp\ccJYNvpW.s 			page 4


  91              		.loc 1 81 0
  92 0008 80BD     		pop	{r7, pc}
  93              		.cfi_endproc
  94              	.LFE2:
  95              		.size	EEPROM_Stop, .-EEPROM_Stop
  96 000a 00BF     		.section	.text.EEPROM_WriteByte,"ax",%progbits
  97              		.align	2
  98              		.global	EEPROM_WriteByte
  99              		.thumb
 100              		.thumb_func
 101              		.type	EEPROM_WriteByte, %function
 102              	EEPROM_WriteByte:
 103              	.LFB3:
  82:Generated_Source\PSoC5/EEPROM.c **** 
  83:Generated_Source\PSoC5/EEPROM.c **** 
  84:Generated_Source\PSoC5/EEPROM.c **** /*******************************************************************************
  85:Generated_Source\PSoC5/EEPROM.c **** * Function Name: EEPROM_WriteByte
  86:Generated_Source\PSoC5/EEPROM.c **** ********************************************************************************
  87:Generated_Source\PSoC5/EEPROM.c **** *
  88:Generated_Source\PSoC5/EEPROM.c **** * Summary:
  89:Generated_Source\PSoC5/EEPROM.c **** *  Writes a byte of data to the EEPROM. This function blocks until
  90:Generated_Source\PSoC5/EEPROM.c **** *  the function is complete. For a reliable write procedure to occur you should
  91:Generated_Source\PSoC5/EEPROM.c **** *  call EEPROM_UpdateTemperature() function if the temperature of the
  92:Generated_Source\PSoC5/EEPROM.c **** *  silicon has been changed for more than 10C since the component was started.
  93:Generated_Source\PSoC5/EEPROM.c **** *
  94:Generated_Source\PSoC5/EEPROM.c **** * Parameters:
  95:Generated_Source\PSoC5/EEPROM.c **** *  dataByte:  The byte of data to write to the EEPROM
  96:Generated_Source\PSoC5/EEPROM.c **** *  address:   The address of data to be written. The maximum address is dependent
  97:Generated_Source\PSoC5/EEPROM.c **** *             on the EEPROM size.
  98:Generated_Source\PSoC5/EEPROM.c **** *
  99:Generated_Source\PSoC5/EEPROM.c **** * Return:
 100:Generated_Source\PSoC5/EEPROM.c **** *  CYRET_SUCCESS, if the operation was successful.
 101:Generated_Source\PSoC5/EEPROM.c **** *  CYRET_BAD_PARAM, if the parameter sectorNumber is out of range.
 102:Generated_Source\PSoC5/EEPROM.c **** *  CYRET_LOCKED, if the SPC is being used.
 103:Generated_Source\PSoC5/EEPROM.c **** *  CYRET_UNKNOWN, if there was an SPC error.
 104:Generated_Source\PSoC5/EEPROM.c **** *
 105:Generated_Source\PSoC5/EEPROM.c **** *******************************************************************************/
 106:Generated_Source\PSoC5/EEPROM.c **** cystatus EEPROM_WriteByte(uint8 dataByte, uint16 address) 
 107:Generated_Source\PSoC5/EEPROM.c **** {
 104              		.loc 1 107 0
 105              		.cfi_startproc
 106              		@ args = 0, pretend = 0, frame = 16
 107              		@ frame_needed = 1, uses_anonymous_args = 0
 108 0000 80B5     		push	{r7, lr}
 109              		.cfi_def_cfa_offset 8
 110              		.cfi_offset 7, -8
 111              		.cfi_offset 14, -4
 112 0002 84B0     		sub	sp, sp, #16
 113              		.cfi_def_cfa_offset 24
 114 0004 00AF     		add	r7, sp, #0
 115              		.cfi_def_cfa_register 7
 116 0006 0346     		mov	r3, r0
 117 0008 0A46     		mov	r2, r1
 118 000a FB71     		strb	r3, [r7, #7]
 119 000c 1346     		mov	r3, r2	@ movhi
 120 000e BB80     		strh	r3, [r7, #4]	@ movhi
 108:Generated_Source\PSoC5/EEPROM.c ****     cystatus status;
ARM GAS  C:\Users\KJA\AppData\Local\Temp\ccJYNvpW.s 			page 5


 109:Generated_Source\PSoC5/EEPROM.c ****     uint16 rowNumber;
 110:Generated_Source\PSoC5/EEPROM.c ****     uint16 byteNumber;
 111:Generated_Source\PSoC5/EEPROM.c ****     
 112:Generated_Source\PSoC5/EEPROM.c ****     CySpcStart();
 121              		.loc 1 112 0
 122 0010 FFF7FEFF 		bl	CySpcStart
 113:Generated_Source\PSoC5/EEPROM.c **** 
 114:Generated_Source\PSoC5/EEPROM.c ****     if (address < CY_EEPROM_SIZE)
 123              		.loc 1 114 0
 124 0014 BB88     		ldrh	r3, [r7, #4]
 125 0016 B3F5006F 		cmp	r3, #2048
 126 001a 75D2     		bcs	.L5
 115:Generated_Source\PSoC5/EEPROM.c ****     {
 116:Generated_Source\PSoC5/EEPROM.c ****         rowNumber = address/(uint16)CY_EEPROM_SIZEOF_ROW;
 127              		.loc 1 116 0
 128 001c BB88     		ldrh	r3, [r7, #4]
 129 001e 1B09     		lsrs	r3, r3, #4
 130 0020 7B81     		strh	r3, [r7, #10]	@ movhi
 117:Generated_Source\PSoC5/EEPROM.c ****         byteNumber = address - (rowNumber * ((uint16)CY_EEPROM_SIZEOF_ROW));
 131              		.loc 1 117 0
 132 0022 7B89     		ldrh	r3, [r7, #10]	@ movhi
 133 0024 1A46     		mov	r2, r3	@ movhi
 134 0026 1203     		lsls	r2, r2, #12
 135 0028 D31A     		subs	r3, r2, r3
 136 002a 1B01     		lsls	r3, r3, #4
 137 002c 9AB2     		uxth	r2, r3
 138 002e BB88     		ldrh	r3, [r7, #4]	@ movhi
 139 0030 1344     		add	r3, r3, r2
 140 0032 3B81     		strh	r3, [r7, #8]	@ movhi
 118:Generated_Source\PSoC5/EEPROM.c ****         if(CYRET_SUCCESS == CySpcLock())
 141              		.loc 1 118 0
 142 0034 FFF7FEFF 		bl	CySpcLock
 143 0038 0346     		mov	r3, r0
 144 003a 002B     		cmp	r3, #0
 145 003c 61D1     		bne	.L6
 119:Generated_Source\PSoC5/EEPROM.c ****         {
 120:Generated_Source\PSoC5/EEPROM.c ****             status = CySpcLoadMultiByte(CY_SPC_FIRST_EE_ARRAYID, byteNumber, &dataByte, \
 146              		.loc 1 120 0
 147 003e 3A89     		ldrh	r2, [r7, #8]
 148 0040 FB1D     		adds	r3, r7, #7
 149 0042 4020     		movs	r0, #64
 150 0044 1146     		mov	r1, r2
 151 0046 1A46     		mov	r2, r3
 152 0048 0123     		movs	r3, #1
 153 004a FFF7FEFF 		bl	CySpcLoadMultiByte
 154 004e F860     		str	r0, [r7, #12]
 121:Generated_Source\PSoC5/EEPROM.c ****                                                                     EEPROM_SPC_BYTE_WRITE_SIZE);
 122:Generated_Source\PSoC5/EEPROM.c ****             if (CYRET_STARTED == status)
 155              		.loc 1 122 0
 156 0050 FB68     		ldr	r3, [r7, #12]
 157 0052 072B     		cmp	r3, #7
 158 0054 4CD1     		bne	.L7
 123:Generated_Source\PSoC5/EEPROM.c ****             {
 124:Generated_Source\PSoC5/EEPROM.c ****                 /* Plan for failure */
 125:Generated_Source\PSoC5/EEPROM.c ****                 status = CYRET_UNKNOWN;
 159              		.loc 1 125 0
 160 0056 4FF0FF33 		mov	r3, #-1
ARM GAS  C:\Users\KJA\AppData\Local\Temp\ccJYNvpW.s 			page 6


 161 005a FB60     		str	r3, [r7, #12]
 126:Generated_Source\PSoC5/EEPROM.c **** 
 127:Generated_Source\PSoC5/EEPROM.c ****                 while(CY_SPC_BUSY)
 162              		.loc 1 127 0
 163 005c 00BF     		nop
 164              	.L8:
 165              		.loc 1 127 0 is_stmt 0 discriminator 1
 166 005e 2E4B     		ldr	r3, .L20
 167 0060 1B78     		ldrb	r3, [r3]
 168 0062 DBB2     		uxtb	r3, r3
 169 0064 03F00203 		and	r3, r3, #2
 170 0068 002B     		cmp	r3, #0
 171 006a F8D0     		beq	.L8
 128:Generated_Source\PSoC5/EEPROM.c ****                 {
 129:Generated_Source\PSoC5/EEPROM.c ****                     /* Wait until SPC becomes idle */
 130:Generated_Source\PSoC5/EEPROM.c ****                 }
 131:Generated_Source\PSoC5/EEPROM.c **** 
 132:Generated_Source\PSoC5/EEPROM.c ****                 if(CY_SPC_STATUS_SUCCESS == CY_SPC_READ_STATUS)
 172              		.loc 1 132 0 is_stmt 1
 173 006c 2A4B     		ldr	r3, .L20
 174 006e 1B78     		ldrb	r3, [r3]
 175 0070 DBB2     		uxtb	r3, r3
 176 0072 03F00203 		and	r3, r3, #2
 177 0076 002B     		cmp	r3, #0
 178 0078 08D0     		beq	.L9
 179              		.loc 1 132 0 is_stmt 0 discriminator 1
 180 007a 274B     		ldr	r3, .L20
 181 007c 1B78     		ldrb	r3, [r3]
 182 007e DBB2     		uxtb	r3, r3
 183 0080 9B08     		lsrs	r3, r3, #2
 184 0082 DBB2     		uxtb	r3, r3
 185 0084 002B     		cmp	r3, #0
 186 0086 01D1     		bne	.L9
 133:Generated_Source\PSoC5/EEPROM.c ****                 {
 134:Generated_Source\PSoC5/EEPROM.c ****                     status = CYRET_SUCCESS;
 187              		.loc 1 134 0 is_stmt 1
 188 0088 0023     		movs	r3, #0
 189 008a FB60     		str	r3, [r7, #12]
 190              	.L9:
 135:Generated_Source\PSoC5/EEPROM.c ****                 }
 136:Generated_Source\PSoC5/EEPROM.c ****                 /* Command to erase and program the row. */
 137:Generated_Source\PSoC5/EEPROM.c ****                 if(CYRET_SUCCESS == status)
 191              		.loc 1 137 0
 192 008c FB68     		ldr	r3, [r7, #12]
 193 008e 002B     		cmp	r3, #0
 194 0090 2AD1     		bne	.L10
 138:Generated_Source\PSoC5/EEPROM.c ****                 {
 139:Generated_Source\PSoC5/EEPROM.c ****                     if(CySpcWriteRow(CY_SPC_FIRST_EE_ARRAYID, (uint16)rowNumber, dieTemperature[0u]
 195              		.loc 1 139 0
 196 0092 224B     		ldr	r3, .L20+4
 197 0094 1A78     		ldrb	r2, [r3]	@ zero_extendqisi2
 198 0096 214B     		ldr	r3, .L20+4
 199 0098 5B78     		ldrb	r3, [r3, #1]	@ zero_extendqisi2
 200 009a 7989     		ldrh	r1, [r7, #10]
 201 009c 4020     		movs	r0, #64
 202 009e FFF7FEFF 		bl	CySpcWriteRow
 203 00a2 0346     		mov	r3, r0
ARM GAS  C:\Users\KJA\AppData\Local\Temp\ccJYNvpW.s 			page 7


 204 00a4 072B     		cmp	r3, #7
 205 00a6 1BD1     		bne	.L11
 140:Generated_Source\PSoC5/EEPROM.c ****                     dieTemperature[1u]) == CYRET_STARTED)
 141:Generated_Source\PSoC5/EEPROM.c ****                     {
 142:Generated_Source\PSoC5/EEPROM.c ****                         /* Plan for failure */
 143:Generated_Source\PSoC5/EEPROM.c ****                         status = CYRET_UNKNOWN;
 206              		.loc 1 143 0
 207 00a8 4FF0FF33 		mov	r3, #-1
 208 00ac FB60     		str	r3, [r7, #12]
 144:Generated_Source\PSoC5/EEPROM.c **** 
 145:Generated_Source\PSoC5/EEPROM.c ****                         while(CY_SPC_BUSY)
 209              		.loc 1 145 0
 210 00ae 00BF     		nop
 211              	.L12:
 212              		.loc 1 145 0 is_stmt 0 discriminator 1
 213 00b0 194B     		ldr	r3, .L20
 214 00b2 1B78     		ldrb	r3, [r3]
 215 00b4 DBB2     		uxtb	r3, r3
 216 00b6 03F00203 		and	r3, r3, #2
 217 00ba 002B     		cmp	r3, #0
 218 00bc F8D0     		beq	.L12
 146:Generated_Source\PSoC5/EEPROM.c ****                         {
 147:Generated_Source\PSoC5/EEPROM.c ****                             /* Wait until SPC becomes idle */
 148:Generated_Source\PSoC5/EEPROM.c ****                         }
 149:Generated_Source\PSoC5/EEPROM.c **** 
 150:Generated_Source\PSoC5/EEPROM.c ****                         /* SPC is idle now */
 151:Generated_Source\PSoC5/EEPROM.c ****                         if(CY_SPC_STATUS_SUCCESS == CY_SPC_READ_STATUS)
 219              		.loc 1 151 0 is_stmt 1
 220 00be 164B     		ldr	r3, .L20
 221 00c0 1B78     		ldrb	r3, [r3]
 222 00c2 DBB2     		uxtb	r3, r3
 223 00c4 03F00203 		and	r3, r3, #2
 224 00c8 002B     		cmp	r3, #0
 225 00ca 17D0     		beq	.L16
 226              		.loc 1 151 0 is_stmt 0 discriminator 1
 227 00cc 124B     		ldr	r3, .L20
 228 00ce 1B78     		ldrb	r3, [r3]
 229 00d0 DBB2     		uxtb	r3, r3
 230 00d2 9B08     		lsrs	r3, r3, #2
 231 00d4 DBB2     		uxtb	r3, r3
 232 00d6 002B     		cmp	r3, #0
 233 00d8 10D1     		bne	.L16
 152:Generated_Source\PSoC5/EEPROM.c ****                         {
 153:Generated_Source\PSoC5/EEPROM.c ****                             status = CYRET_SUCCESS;
 234              		.loc 1 153 0 is_stmt 1
 235 00da 0023     		movs	r3, #0
 236 00dc FB60     		str	r3, [r7, #12]
 237 00de 0DE0     		b	.L16
 238              	.L11:
 154:Generated_Source\PSoC5/EEPROM.c ****                         }
 155:Generated_Source\PSoC5/EEPROM.c ****                     }
 156:Generated_Source\PSoC5/EEPROM.c ****                     else
 157:Generated_Source\PSoC5/EEPROM.c ****                     {
 158:Generated_Source\PSoC5/EEPROM.c ****                         status = CYRET_UNKNOWN;
 239              		.loc 1 158 0
 240 00e0 4FF0FF33 		mov	r3, #-1
 241 00e4 FB60     		str	r3, [r7, #12]
ARM GAS  C:\Users\KJA\AppData\Local\Temp\ccJYNvpW.s 			page 8


 242 00e6 09E0     		b	.L16
 243              	.L10:
 159:Generated_Source\PSoC5/EEPROM.c ****                     }
 160:Generated_Source\PSoC5/EEPROM.c ****                 }
 161:Generated_Source\PSoC5/EEPROM.c ****                 else
 162:Generated_Source\PSoC5/EEPROM.c ****                 {
 163:Generated_Source\PSoC5/EEPROM.c ****                     status = CYRET_UNKNOWN;
 244              		.loc 1 163 0
 245 00e8 4FF0FF33 		mov	r3, #-1
 246 00ec FB60     		str	r3, [r7, #12]
 247 00ee 05E0     		b	.L16
 248              	.L7:
 164:Generated_Source\PSoC5/EEPROM.c ****                 }
 165:Generated_Source\PSoC5/EEPROM.c ****             }
 166:Generated_Source\PSoC5/EEPROM.c ****             else
 167:Generated_Source\PSoC5/EEPROM.c ****             {
 168:Generated_Source\PSoC5/EEPROM.c ****                 if (CYRET_BAD_PARAM != status)
 249              		.loc 1 168 0
 250 00f0 FB68     		ldr	r3, [r7, #12]
 251 00f2 012B     		cmp	r3, #1
 252 00f4 02D0     		beq	.L16
 169:Generated_Source\PSoC5/EEPROM.c ****                 {
 170:Generated_Source\PSoC5/EEPROM.c ****                     status = CYRET_UNKNOWN;
 253              		.loc 1 170 0
 254 00f6 4FF0FF33 		mov	r3, #-1
 255 00fa FB60     		str	r3, [r7, #12]
 256              	.L16:
 171:Generated_Source\PSoC5/EEPROM.c ****                 }
 172:Generated_Source\PSoC5/EEPROM.c ****             }
 173:Generated_Source\PSoC5/EEPROM.c ****             CySpcUnlock();
 257              		.loc 1 173 0
 258 00fc FFF7FEFF 		bl	CySpcUnlock
 259 0100 04E0     		b	.L18
 260              	.L6:
 174:Generated_Source\PSoC5/EEPROM.c ****         }
 175:Generated_Source\PSoC5/EEPROM.c ****         else
 176:Generated_Source\PSoC5/EEPROM.c ****         {
 177:Generated_Source\PSoC5/EEPROM.c ****             status = CYRET_LOCKED;
 261              		.loc 1 177 0
 262 0102 0423     		movs	r3, #4
 263 0104 FB60     		str	r3, [r7, #12]
 264 0106 01E0     		b	.L18
 265              	.L5:
 178:Generated_Source\PSoC5/EEPROM.c ****         }
 179:Generated_Source\PSoC5/EEPROM.c ****     }
 180:Generated_Source\PSoC5/EEPROM.c ****     else
 181:Generated_Source\PSoC5/EEPROM.c ****     {
 182:Generated_Source\PSoC5/EEPROM.c ****         status = CYRET_BAD_PARAM;
 266              		.loc 1 182 0
 267 0108 0123     		movs	r3, #1
 268 010a FB60     		str	r3, [r7, #12]
 269              	.L18:
 183:Generated_Source\PSoC5/EEPROM.c ****     }
 184:Generated_Source\PSoC5/EEPROM.c **** 
 185:Generated_Source\PSoC5/EEPROM.c **** 
 186:Generated_Source\PSoC5/EEPROM.c ****     return (status);
 270              		.loc 1 186 0
ARM GAS  C:\Users\KJA\AppData\Local\Temp\ccJYNvpW.s 			page 9


 271 010c FB68     		ldr	r3, [r7, #12]
 187:Generated_Source\PSoC5/EEPROM.c **** }
 272              		.loc 1 187 0
 273 010e 1846     		mov	r0, r3
 274 0110 1037     		adds	r7, r7, #16
 275              		.cfi_def_cfa_offset 8
 276 0112 BD46     		mov	sp, r7
 277              		.cfi_def_cfa_register 13
 278              		@ sp needed
 279 0114 80BD     		pop	{r7, pc}
 280              	.L21:
 281 0116 00BF     		.align	2
 282              	.L20:
 283 0118 22470040 		.word	1073760034
 284 011c 00000000 		.word	dieTemperature
 285              		.cfi_endproc
 286              	.LFE3:
 287              		.size	EEPROM_WriteByte, .-EEPROM_WriteByte
 288              		.section	.text.EEPROM_ReadByte,"ax",%progbits
 289              		.align	2
 290              		.global	EEPROM_ReadByte
 291              		.thumb
 292              		.thumb_func
 293              		.type	EEPROM_ReadByte, %function
 294              	EEPROM_ReadByte:
 295              	.LFB4:
 188:Generated_Source\PSoC5/EEPROM.c **** 
 189:Generated_Source\PSoC5/EEPROM.c **** 
 190:Generated_Source\PSoC5/EEPROM.c **** /*******************************************************************************
 191:Generated_Source\PSoC5/EEPROM.c **** * Function Name: EEPROM_ReadByte
 192:Generated_Source\PSoC5/EEPROM.c **** ********************************************************************************
 193:Generated_Source\PSoC5/EEPROM.c **** *
 194:Generated_Source\PSoC5/EEPROM.c **** * Summary:
 195:Generated_Source\PSoC5/EEPROM.c **** *  Reads and returns a byte of data from the on-chip EEPROM memory. Although
 196:Generated_Source\PSoC5/EEPROM.c **** *  the data is present in the CPU memory space, this function provides an
 197:Generated_Source\PSoC5/EEPROM.c **** *  intuitive user interface, addressing the EEPROM memory as a separate block with
 198:Generated_Source\PSoC5/EEPROM.c **** *  the first EERPOM byte address equal to 0x0000.
 199:Generated_Source\PSoC5/EEPROM.c **** *
 200:Generated_Source\PSoC5/EEPROM.c **** * Parameters:
 201:Generated_Source\PSoC5/EEPROM.c **** *  address:   The address of data to be read. The maximum address is limited by the
 202:Generated_Source\PSoC5/EEPROM.c **** *             size of the EEPROM array on a specific device.
 203:Generated_Source\PSoC5/EEPROM.c **** *
 204:Generated_Source\PSoC5/EEPROM.c **** * Return:
 205:Generated_Source\PSoC5/EEPROM.c **** *  Data located at an address.
 206:Generated_Source\PSoC5/EEPROM.c **** *
 207:Generated_Source\PSoC5/EEPROM.c **** *******************************************************************************/
 208:Generated_Source\PSoC5/EEPROM.c **** uint8 EEPROM_ReadByte(uint16 address) 
 209:Generated_Source\PSoC5/EEPROM.c **** {
 296              		.loc 1 209 0
 297              		.cfi_startproc
 298              		@ args = 0, pretend = 0, frame = 16
 299              		@ frame_needed = 1, uses_anonymous_args = 0
 300 0000 80B5     		push	{r7, lr}
 301              		.cfi_def_cfa_offset 8
 302              		.cfi_offset 7, -8
 303              		.cfi_offset 14, -4
 304 0002 84B0     		sub	sp, sp, #16
ARM GAS  C:\Users\KJA\AppData\Local\Temp\ccJYNvpW.s 			page 10


 305              		.cfi_def_cfa_offset 24
 306 0004 00AF     		add	r7, sp, #0
 307              		.cfi_def_cfa_register 7
 308 0006 0346     		mov	r3, r0
 309 0008 FB80     		strh	r3, [r7, #6]	@ movhi
 210:Generated_Source\PSoC5/EEPROM.c ****     uint8 retByte;
 211:Generated_Source\PSoC5/EEPROM.c ****     uint8 interruptState;
 212:Generated_Source\PSoC5/EEPROM.c **** 
 213:Generated_Source\PSoC5/EEPROM.c ****     interruptState = CyEnterCriticalSection();
 310              		.loc 1 213 0
 311 000a FFF7FEFF 		bl	CyEnterCriticalSection
 312 000e 0346     		mov	r3, r0
 313 0010 FB73     		strb	r3, [r7, #15]
 214:Generated_Source\PSoC5/EEPROM.c **** 
 215:Generated_Source\PSoC5/EEPROM.c ****     /* Request access to EEPROM for reading.
 216:Generated_Source\PSoC5/EEPROM.c ****     This is needed to reserve PHUB for read operation from EEPROM */
 217:Generated_Source\PSoC5/EEPROM.c ****     CyEEPROM_ReadReserve();
 314              		.loc 1 217 0
 315 0012 FFF7FEFF 		bl	CyEEPROM_ReadReserve
 218:Generated_Source\PSoC5/EEPROM.c ****     
 219:Generated_Source\PSoC5/EEPROM.c ****     retByte = *((reg8 *) (CYDEV_EE_BASE + address));
 316              		.loc 1 219 0
 317 0016 FB88     		ldrh	r3, [r7, #6]
 318 0018 03F18043 		add	r3, r3, #1073741824
 319 001c 03F50043 		add	r3, r3, #32768
 320 0020 1B78     		ldrb	r3, [r3]
 321 0022 BB73     		strb	r3, [r7, #14]
 220:Generated_Source\PSoC5/EEPROM.c **** 
 221:Generated_Source\PSoC5/EEPROM.c ****     /* Release EEPROM array */
 222:Generated_Source\PSoC5/EEPROM.c ****     CyEEPROM_ReadRelease();
 322              		.loc 1 222 0
 323 0024 FFF7FEFF 		bl	CyEEPROM_ReadRelease
 223:Generated_Source\PSoC5/EEPROM.c ****     
 224:Generated_Source\PSoC5/EEPROM.c ****     CyExitCriticalSection(interruptState);
 324              		.loc 1 224 0
 325 0028 FB7B     		ldrb	r3, [r7, #15]	@ zero_extendqisi2
 326 002a 1846     		mov	r0, r3
 327 002c FFF7FEFF 		bl	CyExitCriticalSection
 225:Generated_Source\PSoC5/EEPROM.c **** 
 226:Generated_Source\PSoC5/EEPROM.c ****     return (retByte);
 328              		.loc 1 226 0
 329 0030 BB7B     		ldrb	r3, [r7, #14]	@ zero_extendqisi2
 227:Generated_Source\PSoC5/EEPROM.c **** }
 330              		.loc 1 227 0
 331 0032 1846     		mov	r0, r3
 332 0034 1037     		adds	r7, r7, #16
 333              		.cfi_def_cfa_offset 8
 334 0036 BD46     		mov	sp, r7
 335              		.cfi_def_cfa_register 13
 336              		@ sp needed
 337 0038 80BD     		pop	{r7, pc}
 338              		.cfi_endproc
 339              	.LFE4:
 340              		.size	EEPROM_ReadByte, .-EEPROM_ReadByte
 341 003a 00BF     		.section	.text.EEPROM_UpdateTemperature,"ax",%progbits
 342              		.align	2
 343              		.global	EEPROM_UpdateTemperature
ARM GAS  C:\Users\KJA\AppData\Local\Temp\ccJYNvpW.s 			page 11


 344              		.thumb
 345              		.thumb_func
 346              		.type	EEPROM_UpdateTemperature, %function
 347              	EEPROM_UpdateTemperature:
 348              	.LFB5:
 228:Generated_Source\PSoC5/EEPROM.c **** 
 229:Generated_Source\PSoC5/EEPROM.c **** 
 230:Generated_Source\PSoC5/EEPROM.c **** /*******************************************************************************
 231:Generated_Source\PSoC5/EEPROM.c **** * Function Name: EEPROM_UpdateTemperature
 232:Generated_Source\PSoC5/EEPROM.c **** ********************************************************************************
 233:Generated_Source\PSoC5/EEPROM.c **** *
 234:Generated_Source\PSoC5/EEPROM.c **** * Summary:
 235:Generated_Source\PSoC5/EEPROM.c **** *  Updates and stores the temperature value. This function should be called
 236:Generated_Source\PSoC5/EEPROM.c **** *  before EEPROM writes if the temperature may have been changed by more than
 237:Generated_Source\PSoC5/EEPROM.c **** *  10 degrees Celsius.
 238:Generated_Source\PSoC5/EEPROM.c **** *
 239:Generated_Source\PSoC5/EEPROM.c **** * Parameters:
 240:Generated_Source\PSoC5/EEPROM.c **** *  None
 241:Generated_Source\PSoC5/EEPROM.c **** *
 242:Generated_Source\PSoC5/EEPROM.c **** * Return:
 243:Generated_Source\PSoC5/EEPROM.c **** *  Status of operation, 0 if operation complete, non-zero value if error
 244:Generated_Source\PSoC5/EEPROM.c **** *  was detected.
 245:Generated_Source\PSoC5/EEPROM.c **** *
 246:Generated_Source\PSoC5/EEPROM.c **** *******************************************************************************/
 247:Generated_Source\PSoC5/EEPROM.c **** uint8 EEPROM_UpdateTemperature(void) 
 248:Generated_Source\PSoC5/EEPROM.c **** {
 349              		.loc 1 248 0
 350              		.cfi_startproc
 351              		@ args = 0, pretend = 0, frame = 0
 352              		@ frame_needed = 1, uses_anonymous_args = 0
 353 0000 80B5     		push	{r7, lr}
 354              		.cfi_def_cfa_offset 8
 355              		.cfi_offset 7, -8
 356              		.cfi_offset 14, -4
 357 0002 00AF     		add	r7, sp, #0
 358              		.cfi_def_cfa_register 7
 249:Generated_Source\PSoC5/EEPROM.c ****     return ((uint8)CySetTemp());
 359              		.loc 1 249 0
 360 0004 FFF7FEFF 		bl	CySetTemp
 361 0008 0346     		mov	r3, r0
 362 000a DBB2     		uxtb	r3, r3
 250:Generated_Source\PSoC5/EEPROM.c **** }
 363              		.loc 1 250 0
 364 000c 1846     		mov	r0, r3
 365 000e 80BD     		pop	{r7, pc}
 366              		.cfi_endproc
 367              	.LFE5:
 368              		.size	EEPROM_UpdateTemperature, .-EEPROM_UpdateTemperature
 369              		.section	.text.EEPROM_EraseSector,"ax",%progbits
 370              		.align	2
 371              		.global	EEPROM_EraseSector
 372              		.thumb
 373              		.thumb_func
 374              		.type	EEPROM_EraseSector, %function
 375              	EEPROM_EraseSector:
 376              	.LFB6:
 251:Generated_Source\PSoC5/EEPROM.c **** 
ARM GAS  C:\Users\KJA\AppData\Local\Temp\ccJYNvpW.s 			page 12


 252:Generated_Source\PSoC5/EEPROM.c **** 
 253:Generated_Source\PSoC5/EEPROM.c **** /*******************************************************************************
 254:Generated_Source\PSoC5/EEPROM.c **** * Function Name: EEPROM_EraseSector
 255:Generated_Source\PSoC5/EEPROM.c **** ********************************************************************************
 256:Generated_Source\PSoC5/EEPROM.c **** *
 257:Generated_Source\PSoC5/EEPROM.c **** * Summary:
 258:Generated_Source\PSoC5/EEPROM.c **** *  Erase an EEPROM sector (64 rows). This function blocks until the erase
 259:Generated_Source\PSoC5/EEPROM.c **** *  operation is complete. Using this API helps to erase the EEPROM sector at
 260:Generated_Source\PSoC5/EEPROM.c **** *  a time. This is faster than using individual writes but affects a cycle
 261:Generated_Source\PSoC5/EEPROM.c **** *  recourse of the whole EEPROM row.
 262:Generated_Source\PSoC5/EEPROM.c **** *
 263:Generated_Source\PSoC5/EEPROM.c **** * Parameters:
 264:Generated_Source\PSoC5/EEPROM.c **** *  sectorNumber:  The sector number to erase.
 265:Generated_Source\PSoC5/EEPROM.c **** *
 266:Generated_Source\PSoC5/EEPROM.c **** * Return:
 267:Generated_Source\PSoC5/EEPROM.c **** *  CYRET_SUCCESS, if the operation was successful.
 268:Generated_Source\PSoC5/EEPROM.c **** *  CYRET_BAD_PARAM, if the parameter sectorNumber is out of range.
 269:Generated_Source\PSoC5/EEPROM.c **** *  CYRET_LOCKED, if the SPC is being used.
 270:Generated_Source\PSoC5/EEPROM.c **** *  CYRET_UNKNOWN, if there was an SPC error.
 271:Generated_Source\PSoC5/EEPROM.c **** *
 272:Generated_Source\PSoC5/EEPROM.c **** *******************************************************************************/
 273:Generated_Source\PSoC5/EEPROM.c **** cystatus EEPROM_EraseSector(uint8 sectorNumber) 
 274:Generated_Source\PSoC5/EEPROM.c **** {
 377              		.loc 1 274 0
 378              		.cfi_startproc
 379              		@ args = 0, pretend = 0, frame = 16
 380              		@ frame_needed = 1, uses_anonymous_args = 0
 381 0000 80B5     		push	{r7, lr}
 382              		.cfi_def_cfa_offset 8
 383              		.cfi_offset 7, -8
 384              		.cfi_offset 14, -4
 385 0002 84B0     		sub	sp, sp, #16
 386              		.cfi_def_cfa_offset 24
 387 0004 00AF     		add	r7, sp, #0
 388              		.cfi_def_cfa_register 7
 389 0006 0346     		mov	r3, r0
 390 0008 FB71     		strb	r3, [r7, #7]
 275:Generated_Source\PSoC5/EEPROM.c ****     cystatus status;
 276:Generated_Source\PSoC5/EEPROM.c ****     
 277:Generated_Source\PSoC5/EEPROM.c ****     CySpcStart();
 391              		.loc 1 277 0
 392 000a FFF7FEFF 		bl	CySpcStart
 278:Generated_Source\PSoC5/EEPROM.c **** 
 279:Generated_Source\PSoC5/EEPROM.c ****     if(sectorNumber < (uint8) EEPROM_SECTORS_NUMBER)
 393              		.loc 1 279 0
 394 000e FB79     		ldrb	r3, [r7, #7]	@ zero_extendqisi2
 395 0010 012B     		cmp	r3, #1
 396 0012 31D8     		bhi	.L27
 280:Generated_Source\PSoC5/EEPROM.c ****     {
 281:Generated_Source\PSoC5/EEPROM.c ****         /* See if we can get SPC. */
 282:Generated_Source\PSoC5/EEPROM.c ****         if(CySpcLock() == CYRET_SUCCESS)
 397              		.loc 1 282 0
 398 0014 FFF7FEFF 		bl	CySpcLock
 399 0018 0346     		mov	r3, r0
 400 001a 002B     		cmp	r3, #0
 401 001c 29D1     		bne	.L28
 283:Generated_Source\PSoC5/EEPROM.c ****         {
ARM GAS  C:\Users\KJA\AppData\Local\Temp\ccJYNvpW.s 			page 13


 284:Generated_Source\PSoC5/EEPROM.c ****             if(CySpcEraseSector(CY_SPC_FIRST_EE_ARRAYID, sectorNumber) == CYRET_STARTED)
 402              		.loc 1 284 0
 403 001e FB79     		ldrb	r3, [r7, #7]	@ zero_extendqisi2
 404 0020 4020     		movs	r0, #64
 405 0022 1946     		mov	r1, r3
 406 0024 FFF7FEFF 		bl	CySpcEraseSector
 407 0028 0346     		mov	r3, r0
 408 002a 072B     		cmp	r3, #7
 409 002c 1BD1     		bne	.L29
 285:Generated_Source\PSoC5/EEPROM.c ****             {
 286:Generated_Source\PSoC5/EEPROM.c ****                 /* Plan for failure */
 287:Generated_Source\PSoC5/EEPROM.c ****                 status = CYRET_UNKNOWN;
 410              		.loc 1 287 0
 411 002e 4FF0FF33 		mov	r3, #-1
 412 0032 FB60     		str	r3, [r7, #12]
 288:Generated_Source\PSoC5/EEPROM.c **** 
 289:Generated_Source\PSoC5/EEPROM.c ****                 while(CY_SPC_BUSY)
 413              		.loc 1 289 0
 414 0034 00BF     		nop
 415              	.L30:
 416              		.loc 1 289 0 is_stmt 0 discriminator 1
 417 0036 144B     		ldr	r3, .L36
 418 0038 1B78     		ldrb	r3, [r3]
 419 003a DBB2     		uxtb	r3, r3
 420 003c 03F00203 		and	r3, r3, #2
 421 0040 002B     		cmp	r3, #0
 422 0042 F8D0     		beq	.L30
 290:Generated_Source\PSoC5/EEPROM.c ****                 {
 291:Generated_Source\PSoC5/EEPROM.c ****                     /* Wait until SPC becomes idle */
 292:Generated_Source\PSoC5/EEPROM.c ****                 }
 293:Generated_Source\PSoC5/EEPROM.c **** 
 294:Generated_Source\PSoC5/EEPROM.c ****                 /* SPC is idle now */
 295:Generated_Source\PSoC5/EEPROM.c ****                 if(CY_SPC_STATUS_SUCCESS == CY_SPC_READ_STATUS)
 423              		.loc 1 295 0 is_stmt 1
 424 0044 104B     		ldr	r3, .L36
 425 0046 1B78     		ldrb	r3, [r3]
 426 0048 DBB2     		uxtb	r3, r3
 427 004a 03F00203 		and	r3, r3, #2
 428 004e 002B     		cmp	r3, #0
 429 0050 0CD0     		beq	.L32
 430              		.loc 1 295 0 is_stmt 0 discriminator 1
 431 0052 0D4B     		ldr	r3, .L36
 432 0054 1B78     		ldrb	r3, [r3]
 433 0056 DBB2     		uxtb	r3, r3
 434 0058 9B08     		lsrs	r3, r3, #2
 435 005a DBB2     		uxtb	r3, r3
 436 005c 002B     		cmp	r3, #0
 437 005e 05D1     		bne	.L32
 296:Generated_Source\PSoC5/EEPROM.c ****                 {
 297:Generated_Source\PSoC5/EEPROM.c ****                     status = CYRET_SUCCESS;
 438              		.loc 1 297 0 is_stmt 1
 439 0060 0023     		movs	r3, #0
 440 0062 FB60     		str	r3, [r7, #12]
 441 0064 02E0     		b	.L32
 442              	.L29:
 298:Generated_Source\PSoC5/EEPROM.c ****                 }
 299:Generated_Source\PSoC5/EEPROM.c ****             }
ARM GAS  C:\Users\KJA\AppData\Local\Temp\ccJYNvpW.s 			page 14


 300:Generated_Source\PSoC5/EEPROM.c ****             else
 301:Generated_Source\PSoC5/EEPROM.c ****             {
 302:Generated_Source\PSoC5/EEPROM.c ****                 status = CYRET_UNKNOWN;
 443              		.loc 1 302 0
 444 0066 4FF0FF33 		mov	r3, #-1
 445 006a FB60     		str	r3, [r7, #12]
 446              	.L32:
 303:Generated_Source\PSoC5/EEPROM.c ****             }
 304:Generated_Source\PSoC5/EEPROM.c **** 
 305:Generated_Source\PSoC5/EEPROM.c ****             /* Unlock SPC so that someone else can use it. */
 306:Generated_Source\PSoC5/EEPROM.c ****             CySpcUnlock();
 447              		.loc 1 306 0
 448 006c FFF7FEFF 		bl	CySpcUnlock
 449 0070 04E0     		b	.L34
 450              	.L28:
 307:Generated_Source\PSoC5/EEPROM.c ****         }
 308:Generated_Source\PSoC5/EEPROM.c ****         else
 309:Generated_Source\PSoC5/EEPROM.c ****         {
 310:Generated_Source\PSoC5/EEPROM.c ****             status = CYRET_LOCKED;
 451              		.loc 1 310 0
 452 0072 0423     		movs	r3, #4
 453 0074 FB60     		str	r3, [r7, #12]
 454 0076 01E0     		b	.L34
 455              	.L27:
 311:Generated_Source\PSoC5/EEPROM.c ****         }
 312:Generated_Source\PSoC5/EEPROM.c ****     }
 313:Generated_Source\PSoC5/EEPROM.c ****     else
 314:Generated_Source\PSoC5/EEPROM.c ****     {
 315:Generated_Source\PSoC5/EEPROM.c ****         status = CYRET_BAD_PARAM;
 456              		.loc 1 315 0
 457 0078 0123     		movs	r3, #1
 458 007a FB60     		str	r3, [r7, #12]
 459              	.L34:
 316:Generated_Source\PSoC5/EEPROM.c ****     }
 317:Generated_Source\PSoC5/EEPROM.c **** 
 318:Generated_Source\PSoC5/EEPROM.c ****     return(status);
 460              		.loc 1 318 0
 461 007c FB68     		ldr	r3, [r7, #12]
 319:Generated_Source\PSoC5/EEPROM.c **** }
 462              		.loc 1 319 0
 463 007e 1846     		mov	r0, r3
 464 0080 1037     		adds	r7, r7, #16
 465              		.cfi_def_cfa_offset 8
 466 0082 BD46     		mov	sp, r7
 467              		.cfi_def_cfa_register 13
 468              		@ sp needed
 469 0084 80BD     		pop	{r7, pc}
 470              	.L37:
 471 0086 00BF     		.align	2
 472              	.L36:
 473 0088 22470040 		.word	1073760034
 474              		.cfi_endproc
 475              	.LFE6:
 476              		.size	EEPROM_EraseSector, .-EEPROM_EraseSector
 477              		.section	.text.EEPROM_Write,"ax",%progbits
 478              		.align	2
 479              		.global	EEPROM_Write
ARM GAS  C:\Users\KJA\AppData\Local\Temp\ccJYNvpW.s 			page 15


 480              		.thumb
 481              		.thumb_func
 482              		.type	EEPROM_Write, %function
 483              	EEPROM_Write:
 484              	.LFB7:
 320:Generated_Source\PSoC5/EEPROM.c **** 
 321:Generated_Source\PSoC5/EEPROM.c **** 
 322:Generated_Source\PSoC5/EEPROM.c **** /*******************************************************************************
 323:Generated_Source\PSoC5/EEPROM.c **** * Function Name: EEPROM_Write
 324:Generated_Source\PSoC5/EEPROM.c **** ********************************************************************************
 325:Generated_Source\PSoC5/EEPROM.c **** *
 326:Generated_Source\PSoC5/EEPROM.c **** * Summary:
 327:Generated_Source\PSoC5/EEPROM.c **** *  Writes a row (16 bytes) of data to the EEPROM. This function blocks until
 328:Generated_Source\PSoC5/EEPROM.c **** *  the write operation is complete. Compared to functions that write one byte,
 329:Generated_Source\PSoC5/EEPROM.c **** *  this function allows writing a whole row (16 bytes) at a time. For
 330:Generated_Source\PSoC5/EEPROM.c **** *  a reliable write procedure to occur you should call the
 331:Generated_Source\PSoC5/EEPROM.c **** *  EEPROM_UpdateTemperature() function if the temperature of the
 332:Generated_Source\PSoC5/EEPROM.c **** *  silicon has changed for more than 10C since component was started.
 333:Generated_Source\PSoC5/EEPROM.c **** *
 334:Generated_Source\PSoC5/EEPROM.c **** * Parameters:
 335:Generated_Source\PSoC5/EEPROM.c **** *  rowData:    The address of the data to write to the EEPROM.
 336:Generated_Source\PSoC5/EEPROM.c **** *  rowNumber:  The row number to write.
 337:Generated_Source\PSoC5/EEPROM.c **** *
 338:Generated_Source\PSoC5/EEPROM.c **** * Return:
 339:Generated_Source\PSoC5/EEPROM.c **** *  CYRET_SUCCESS, if the operation was successful.
 340:Generated_Source\PSoC5/EEPROM.c **** *  CYRET_BAD_PARAM, if the parameter rowNumber is out of range.
 341:Generated_Source\PSoC5/EEPROM.c **** *  CYRET_LOCKED, if the SPC is being used.
 342:Generated_Source\PSoC5/EEPROM.c **** *  CYRET_UNKNOWN, if there was an SPC error.
 343:Generated_Source\PSoC5/EEPROM.c **** *
 344:Generated_Source\PSoC5/EEPROM.c **** *******************************************************************************/
 345:Generated_Source\PSoC5/EEPROM.c **** cystatus EEPROM_Write(const uint8 * rowData, uint8 rowNumber) 
 346:Generated_Source\PSoC5/EEPROM.c **** {
 485              		.loc 1 346 0
 486              		.cfi_startproc
 487              		@ args = 0, pretend = 0, frame = 16
 488              		@ frame_needed = 1, uses_anonymous_args = 0
 489 0000 80B5     		push	{r7, lr}
 490              		.cfi_def_cfa_offset 8
 491              		.cfi_offset 7, -8
 492              		.cfi_offset 14, -4
 493 0002 84B0     		sub	sp, sp, #16
 494              		.cfi_def_cfa_offset 24
 495 0004 00AF     		add	r7, sp, #0
 496              		.cfi_def_cfa_register 7
 497 0006 7860     		str	r0, [r7, #4]
 498 0008 0B46     		mov	r3, r1
 499 000a FB70     		strb	r3, [r7, #3]
 347:Generated_Source\PSoC5/EEPROM.c ****     cystatus status;
 348:Generated_Source\PSoC5/EEPROM.c ****     
 349:Generated_Source\PSoC5/EEPROM.c ****     CySpcStart();
 500              		.loc 1 349 0
 501 000c FFF7FEFF 		bl	CySpcStart
 350:Generated_Source\PSoC5/EEPROM.c **** 
 351:Generated_Source\PSoC5/EEPROM.c ****     if(rowNumber < (uint8) CY_EEPROM_NUMBER_ROWS)
 502              		.loc 1 351 0
 503 0010 FB78     		ldrb	r3, [r7, #3]	@ zero_extendqisi2
 504 0012 5BB2     		sxtb	r3, r3
ARM GAS  C:\Users\KJA\AppData\Local\Temp\ccJYNvpW.s 			page 16


 505 0014 002B     		cmp	r3, #0
 506 0016 5FDB     		blt	.L39
 352:Generated_Source\PSoC5/EEPROM.c ****     {
 353:Generated_Source\PSoC5/EEPROM.c ****         /* See if we can get SPC. */
 354:Generated_Source\PSoC5/EEPROM.c ****         if(CySpcLock() == CYRET_SUCCESS)
 507              		.loc 1 354 0
 508 0018 FFF7FEFF 		bl	CySpcLock
 509 001c 0346     		mov	r3, r0
 510 001e 002B     		cmp	r3, #0
 511 0020 57D1     		bne	.L40
 355:Generated_Source\PSoC5/EEPROM.c ****         {
 356:Generated_Source\PSoC5/EEPROM.c ****             /* Plan for failure */
 357:Generated_Source\PSoC5/EEPROM.c ****             status = CYRET_UNKNOWN;
 512              		.loc 1 357 0
 513 0022 4FF0FF33 		mov	r3, #-1
 514 0026 FB60     		str	r3, [r7, #12]
 358:Generated_Source\PSoC5/EEPROM.c **** 
 359:Generated_Source\PSoC5/EEPROM.c ****             /* Command to load a row of data */
 360:Generated_Source\PSoC5/EEPROM.c ****             if(CySpcLoadRow(CY_SPC_FIRST_EE_ARRAYID, rowData, CYDEV_EEPROM_ROW_SIZE) == CYRET_START
 515              		.loc 1 360 0
 516 0028 4020     		movs	r0, #64
 517 002a 7968     		ldr	r1, [r7, #4]
 518 002c 1022     		movs	r2, #16
 519 002e FFF7FEFF 		bl	CySpcLoadRow
 520 0032 0346     		mov	r3, r0
 521 0034 072B     		cmp	r3, #7
 522 0036 49D1     		bne	.L41
 361:Generated_Source\PSoC5/EEPROM.c ****             {
 362:Generated_Source\PSoC5/EEPROM.c ****                 while(CY_SPC_BUSY)
 523              		.loc 1 362 0
 524 0038 00BF     		nop
 525              	.L42:
 526              		.loc 1 362 0 is_stmt 0 discriminator 1
 527 003a 2B4B     		ldr	r3, .L52
 528 003c 1B78     		ldrb	r3, [r3]
 529 003e DBB2     		uxtb	r3, r3
 530 0040 03F00203 		and	r3, r3, #2
 531 0044 002B     		cmp	r3, #0
 532 0046 F8D0     		beq	.L42
 363:Generated_Source\PSoC5/EEPROM.c ****                 {
 364:Generated_Source\PSoC5/EEPROM.c ****                     /* Wait until SPC becomes idle */
 365:Generated_Source\PSoC5/EEPROM.c ****                 }
 366:Generated_Source\PSoC5/EEPROM.c **** 
 367:Generated_Source\PSoC5/EEPROM.c ****                 /* SPC is idle now */
 368:Generated_Source\PSoC5/EEPROM.c ****                 if(CY_SPC_STATUS_SUCCESS == CY_SPC_READ_STATUS)
 533              		.loc 1 368 0 is_stmt 1
 534 0048 274B     		ldr	r3, .L52
 535 004a 1B78     		ldrb	r3, [r3]
 536 004c DBB2     		uxtb	r3, r3
 537 004e 03F00203 		and	r3, r3, #2
 538 0052 002B     		cmp	r3, #0
 539 0054 08D0     		beq	.L43
 540              		.loc 1 368 0 is_stmt 0 discriminator 1
 541 0056 244B     		ldr	r3, .L52
 542 0058 1B78     		ldrb	r3, [r3]
 543 005a DBB2     		uxtb	r3, r3
 544 005c 9B08     		lsrs	r3, r3, #2
ARM GAS  C:\Users\KJA\AppData\Local\Temp\ccJYNvpW.s 			page 17


 545 005e DBB2     		uxtb	r3, r3
 546 0060 002B     		cmp	r3, #0
 547 0062 01D1     		bne	.L43
 369:Generated_Source\PSoC5/EEPROM.c ****                 {
 370:Generated_Source\PSoC5/EEPROM.c ****                     status = CYRET_SUCCESS;
 548              		.loc 1 370 0 is_stmt 1
 549 0064 0023     		movs	r3, #0
 550 0066 FB60     		str	r3, [r7, #12]
 551              	.L43:
 371:Generated_Source\PSoC5/EEPROM.c ****                 }
 372:Generated_Source\PSoC5/EEPROM.c **** 
 373:Generated_Source\PSoC5/EEPROM.c ****                 /* Command to erase and program the row. */
 374:Generated_Source\PSoC5/EEPROM.c ****                 if(status == CYRET_SUCCESS)
 552              		.loc 1 374 0
 553 0068 FB68     		ldr	r3, [r7, #12]
 554 006a 002B     		cmp	r3, #0
 555 006c 2BD1     		bne	.L44
 375:Generated_Source\PSoC5/EEPROM.c ****                 {
 376:Generated_Source\PSoC5/EEPROM.c ****                     if(CySpcWriteRow(CY_SPC_FIRST_EE_ARRAYID, (uint16)rowNumber, dieTemperature[0u]
 556              		.loc 1 376 0
 557 006e FB78     		ldrb	r3, [r7, #3]	@ zero_extendqisi2
 558 0070 99B2     		uxth	r1, r3
 559 0072 1E4B     		ldr	r3, .L52+4
 560 0074 1A78     		ldrb	r2, [r3]	@ zero_extendqisi2
 561 0076 1D4B     		ldr	r3, .L52+4
 562 0078 5B78     		ldrb	r3, [r3, #1]	@ zero_extendqisi2
 563 007a 4020     		movs	r0, #64
 564 007c FFF7FEFF 		bl	CySpcWriteRow
 565 0080 0346     		mov	r3, r0
 566 0082 072B     		cmp	r3, #7
 567 0084 1BD1     		bne	.L45
 377:Generated_Source\PSoC5/EEPROM.c ****                     dieTemperature[1u]) == CYRET_STARTED)
 378:Generated_Source\PSoC5/EEPROM.c ****                     {
 379:Generated_Source\PSoC5/EEPROM.c ****                         /* Plan for failure */
 380:Generated_Source\PSoC5/EEPROM.c ****                         status = CYRET_UNKNOWN;
 568              		.loc 1 380 0
 569 0086 4FF0FF33 		mov	r3, #-1
 570 008a FB60     		str	r3, [r7, #12]
 381:Generated_Source\PSoC5/EEPROM.c **** 
 382:Generated_Source\PSoC5/EEPROM.c ****                         while(CY_SPC_BUSY)
 571              		.loc 1 382 0
 572 008c 00BF     		nop
 573              	.L46:
 574              		.loc 1 382 0 is_stmt 0 discriminator 1
 575 008e 164B     		ldr	r3, .L52
 576 0090 1B78     		ldrb	r3, [r3]
 577 0092 DBB2     		uxtb	r3, r3
 578 0094 03F00203 		and	r3, r3, #2
 579 0098 002B     		cmp	r3, #0
 580 009a F8D0     		beq	.L46
 383:Generated_Source\PSoC5/EEPROM.c ****                         {
 384:Generated_Source\PSoC5/EEPROM.c ****                             /* Wait until SPC becomes idle */
 385:Generated_Source\PSoC5/EEPROM.c ****                         }
 386:Generated_Source\PSoC5/EEPROM.c **** 
 387:Generated_Source\PSoC5/EEPROM.c ****                         /* SPC is idle now */
 388:Generated_Source\PSoC5/EEPROM.c ****                         if(CY_SPC_STATUS_SUCCESS == CY_SPC_READ_STATUS)
 581              		.loc 1 388 0 is_stmt 1
ARM GAS  C:\Users\KJA\AppData\Local\Temp\ccJYNvpW.s 			page 18


 582 009c 124B     		ldr	r3, .L52
 583 009e 1B78     		ldrb	r3, [r3]
 584 00a0 DBB2     		uxtb	r3, r3
 585 00a2 03F00203 		and	r3, r3, #2
 586 00a6 002B     		cmp	r3, #0
 587 00a8 10D0     		beq	.L41
 588              		.loc 1 388 0 is_stmt 0 discriminator 1
 589 00aa 0F4B     		ldr	r3, .L52
 590 00ac 1B78     		ldrb	r3, [r3]
 591 00ae DBB2     		uxtb	r3, r3
 592 00b0 9B08     		lsrs	r3, r3, #2
 593 00b2 DBB2     		uxtb	r3, r3
 594 00b4 002B     		cmp	r3, #0
 595 00b6 09D1     		bne	.L41
 389:Generated_Source\PSoC5/EEPROM.c ****                         {
 390:Generated_Source\PSoC5/EEPROM.c ****                             status = CYRET_SUCCESS;
 596              		.loc 1 390 0 is_stmt 1
 597 00b8 0023     		movs	r3, #0
 598 00ba FB60     		str	r3, [r7, #12]
 599 00bc 06E0     		b	.L41
 600              	.L45:
 391:Generated_Source\PSoC5/EEPROM.c ****                         }
 392:Generated_Source\PSoC5/EEPROM.c ****                     }
 393:Generated_Source\PSoC5/EEPROM.c ****                     else
 394:Generated_Source\PSoC5/EEPROM.c ****                     {
 395:Generated_Source\PSoC5/EEPROM.c ****                         status = CYRET_UNKNOWN;
 601              		.loc 1 395 0
 602 00be 4FF0FF33 		mov	r3, #-1
 603 00c2 FB60     		str	r3, [r7, #12]
 604 00c4 02E0     		b	.L41
 605              	.L44:
 396:Generated_Source\PSoC5/EEPROM.c ****                     }
 397:Generated_Source\PSoC5/EEPROM.c ****                 }
 398:Generated_Source\PSoC5/EEPROM.c ****                 else
 399:Generated_Source\PSoC5/EEPROM.c ****                 {
 400:Generated_Source\PSoC5/EEPROM.c ****                     status = CYRET_UNKNOWN;
 606              		.loc 1 400 0
 607 00c6 4FF0FF33 		mov	r3, #-1
 608 00ca FB60     		str	r3, [r7, #12]
 609              	.L41:
 401:Generated_Source\PSoC5/EEPROM.c ****                 }
 402:Generated_Source\PSoC5/EEPROM.c ****             }
 403:Generated_Source\PSoC5/EEPROM.c **** 
 404:Generated_Source\PSoC5/EEPROM.c ****             /* Unlock SPC so that someone else can use it. */
 405:Generated_Source\PSoC5/EEPROM.c ****             CySpcUnlock();
 610              		.loc 1 405 0
 611 00cc FFF7FEFF 		bl	CySpcUnlock
 612 00d0 04E0     		b	.L50
 613              	.L40:
 406:Generated_Source\PSoC5/EEPROM.c ****         }
 407:Generated_Source\PSoC5/EEPROM.c ****         else
 408:Generated_Source\PSoC5/EEPROM.c ****         {
 409:Generated_Source\PSoC5/EEPROM.c ****             status = CYRET_LOCKED;
 614              		.loc 1 409 0
 615 00d2 0423     		movs	r3, #4
 616 00d4 FB60     		str	r3, [r7, #12]
 617 00d6 01E0     		b	.L50
ARM GAS  C:\Users\KJA\AppData\Local\Temp\ccJYNvpW.s 			page 19


 618              	.L39:
 410:Generated_Source\PSoC5/EEPROM.c ****         }
 411:Generated_Source\PSoC5/EEPROM.c ****     }
 412:Generated_Source\PSoC5/EEPROM.c ****     else
 413:Generated_Source\PSoC5/EEPROM.c ****     {
 414:Generated_Source\PSoC5/EEPROM.c ****         status = CYRET_BAD_PARAM;
 619              		.loc 1 414 0
 620 00d8 0123     		movs	r3, #1
 621 00da FB60     		str	r3, [r7, #12]
 622              	.L50:
 415:Generated_Source\PSoC5/EEPROM.c ****     }
 416:Generated_Source\PSoC5/EEPROM.c **** 
 417:Generated_Source\PSoC5/EEPROM.c ****     return(status);
 623              		.loc 1 417 0
 624 00dc FB68     		ldr	r3, [r7, #12]
 418:Generated_Source\PSoC5/EEPROM.c **** }
 625              		.loc 1 418 0
 626 00de 1846     		mov	r0, r3
 627 00e0 1037     		adds	r7, r7, #16
 628              		.cfi_def_cfa_offset 8
 629 00e2 BD46     		mov	sp, r7
 630              		.cfi_def_cfa_register 13
 631              		@ sp needed
 632 00e4 80BD     		pop	{r7, pc}
 633              	.L53:
 634 00e6 00BF     		.align	2
 635              	.L52:
 636 00e8 22470040 		.word	1073760034
 637 00ec 00000000 		.word	dieTemperature
 638              		.cfi_endproc
 639              	.LFE7:
 640              		.size	EEPROM_Write, .-EEPROM_Write
 641              		.section	.text.EEPROM_StartWrite,"ax",%progbits
 642              		.align	2
 643              		.global	EEPROM_StartWrite
 644              		.thumb
 645              		.thumb_func
 646              		.type	EEPROM_StartWrite, %function
 647              	EEPROM_StartWrite:
 648              	.LFB8:
 419:Generated_Source\PSoC5/EEPROM.c **** 
 420:Generated_Source\PSoC5/EEPROM.c **** 
 421:Generated_Source\PSoC5/EEPROM.c **** /*******************************************************************************
 422:Generated_Source\PSoC5/EEPROM.c **** * Function Name: EEPROM_StartWrite
 423:Generated_Source\PSoC5/EEPROM.c **** ********************************************************************************
 424:Generated_Source\PSoC5/EEPROM.c **** *
 425:Generated_Source\PSoC5/EEPROM.c **** * Summary:
 426:Generated_Source\PSoC5/EEPROM.c **** *  Starts a write of a row (16 bytes) of data to the EEPROM.
 427:Generated_Source\PSoC5/EEPROM.c **** *  This function does not block. The function returns once the SPC has begun
 428:Generated_Source\PSoC5/EEPROM.c **** *  writing the data. This function must be used in combination with
 429:Generated_Source\PSoC5/EEPROM.c **** *  EEPROM_Query(). EEPROM_Query() must be called
 430:Generated_Source\PSoC5/EEPROM.c **** *  until it returns a status other than CYRET_STARTED. That indicates that the
 431:Generated_Source\PSoC5/EEPROM.c **** *  write has completed. Until EEPROM_Query() detects that
 432:Generated_Source\PSoC5/EEPROM.c **** *  the write is complete, the SPC is marked as locked to prevent another
 433:Generated_Source\PSoC5/EEPROM.c **** *  SPC operation from being performed. For a reliable write procedure to occur
 434:Generated_Source\PSoC5/EEPROM.c **** *  you should call EEPROM_UpdateTemperature() API if the temperature
 435:Generated_Source\PSoC5/EEPROM.c **** *  of the silicon has changed for more than 10C since component was started.
ARM GAS  C:\Users\KJA\AppData\Local\Temp\ccJYNvpW.s 			page 20


 436:Generated_Source\PSoC5/EEPROM.c **** *
 437:Generated_Source\PSoC5/EEPROM.c **** * Parameters:
 438:Generated_Source\PSoC5/EEPROM.c **** *  rowData:    The address of the data to write to the EEPROM.
 439:Generated_Source\PSoC5/EEPROM.c **** *  rowNumber:  The row number to write.
 440:Generated_Source\PSoC5/EEPROM.c **** *
 441:Generated_Source\PSoC5/EEPROM.c **** * Return:
 442:Generated_Source\PSoC5/EEPROM.c **** *  CYRET_STARTED, if the SPC command to write was successfully started.
 443:Generated_Source\PSoC5/EEPROM.c **** *  CYRET_BAD_PARAM, if the parameter rowNumber is out of range.
 444:Generated_Source\PSoC5/EEPROM.c **** *  CYRET_LOCKED, if the SPC is being used.
 445:Generated_Source\PSoC5/EEPROM.c **** *  CYRET_UNKNOWN, if there was an SPC error.
 446:Generated_Source\PSoC5/EEPROM.c **** *
 447:Generated_Source\PSoC5/EEPROM.c **** * Side effects:
 448:Generated_Source\PSoC5/EEPROM.c **** *  After calling this API, the device should not be powered down, reset or switched
 449:Generated_Source\PSoC5/EEPROM.c **** *  to low power modes until EEPROM operation is complete. 
 450:Generated_Source\PSoC5/EEPROM.c **** *  Ignoring this recommendation may lead to data corruption or silicon
 451:Generated_Source\PSoC5/EEPROM.c **** *  unexpected behavior.
 452:Generated_Source\PSoC5/EEPROM.c **** *
 453:Generated_Source\PSoC5/EEPROM.c **** *******************************************************************************/
 454:Generated_Source\PSoC5/EEPROM.c **** cystatus EEPROM_StartWrite(const uint8 * rowData, uint8 rowNumber) \
 455:Generated_Source\PSoC5/EEPROM.c **** 
 456:Generated_Source\PSoC5/EEPROM.c **** {
 649              		.loc 1 456 0
 650              		.cfi_startproc
 651              		@ args = 0, pretend = 0, frame = 16
 652              		@ frame_needed = 1, uses_anonymous_args = 0
 653 0000 80B5     		push	{r7, lr}
 654              		.cfi_def_cfa_offset 8
 655              		.cfi_offset 7, -8
 656              		.cfi_offset 14, -4
 657 0002 84B0     		sub	sp, sp, #16
 658              		.cfi_def_cfa_offset 24
 659 0004 00AF     		add	r7, sp, #0
 660              		.cfi_def_cfa_register 7
 661 0006 7860     		str	r0, [r7, #4]
 662 0008 0B46     		mov	r3, r1
 663 000a FB70     		strb	r3, [r7, #3]
 457:Generated_Source\PSoC5/EEPROM.c ****     cystatus status;
 458:Generated_Source\PSoC5/EEPROM.c ****     
 459:Generated_Source\PSoC5/EEPROM.c ****     CySpcStart();
 664              		.loc 1 459 0
 665 000c FFF7FEFF 		bl	CySpcStart
 460:Generated_Source\PSoC5/EEPROM.c **** 
 461:Generated_Source\PSoC5/EEPROM.c ****     if(rowNumber < (uint8) CY_EEPROM_NUMBER_ROWS)
 666              		.loc 1 461 0
 667 0010 FB78     		ldrb	r3, [r7, #3]	@ zero_extendqisi2
 668 0012 5BB2     		sxtb	r3, r3
 669 0014 002B     		cmp	r3, #0
 670 0016 44DB     		blt	.L55
 462:Generated_Source\PSoC5/EEPROM.c ****     {
 463:Generated_Source\PSoC5/EEPROM.c ****         /* See if we can get SPC. */
 464:Generated_Source\PSoC5/EEPROM.c ****         if(CySpcLock() == CYRET_SUCCESS)
 671              		.loc 1 464 0
 672 0018 FFF7FEFF 		bl	CySpcLock
 673 001c 0346     		mov	r3, r0
 674 001e 002B     		cmp	r3, #0
 675 0020 3CD1     		bne	.L56
 465:Generated_Source\PSoC5/EEPROM.c ****         {
ARM GAS  C:\Users\KJA\AppData\Local\Temp\ccJYNvpW.s 			page 21


 466:Generated_Source\PSoC5/EEPROM.c ****             /* Plan for failure */
 467:Generated_Source\PSoC5/EEPROM.c ****             status = CYRET_UNKNOWN;
 676              		.loc 1 467 0
 677 0022 4FF0FF33 		mov	r3, #-1
 678 0026 FB60     		str	r3, [r7, #12]
 468:Generated_Source\PSoC5/EEPROM.c **** 
 469:Generated_Source\PSoC5/EEPROM.c ****             /* Command to load a row of data */
 470:Generated_Source\PSoC5/EEPROM.c ****             if(CySpcLoadRow(CY_SPC_FIRST_EE_ARRAYID, rowData, CYDEV_EEPROM_ROW_SIZE) == CYRET_START
 679              		.loc 1 470 0
 680 0028 4020     		movs	r0, #64
 681 002a 7968     		ldr	r1, [r7, #4]
 682 002c 1022     		movs	r2, #16
 683 002e FFF7FEFF 		bl	CySpcLoadRow
 684 0032 0346     		mov	r3, r0
 685 0034 072B     		cmp	r3, #7
 686 0036 36D1     		bne	.L64
 471:Generated_Source\PSoC5/EEPROM.c ****             {
 472:Generated_Source\PSoC5/EEPROM.c ****                 while(CY_SPC_BUSY)
 687              		.loc 1 472 0
 688 0038 00BF     		nop
 689              	.L58:
 690              		.loc 1 472 0 is_stmt 0 discriminator 1
 691 003a 1D4B     		ldr	r3, .L66
 692 003c 1B78     		ldrb	r3, [r3]
 693 003e DBB2     		uxtb	r3, r3
 694 0040 03F00203 		and	r3, r3, #2
 695 0044 002B     		cmp	r3, #0
 696 0046 F8D0     		beq	.L58
 473:Generated_Source\PSoC5/EEPROM.c ****                 {
 474:Generated_Source\PSoC5/EEPROM.c ****                     /* Wait until SPC becomes idle */
 475:Generated_Source\PSoC5/EEPROM.c ****                 }
 476:Generated_Source\PSoC5/EEPROM.c **** 
 477:Generated_Source\PSoC5/EEPROM.c ****                 /* SPC is idle now */
 478:Generated_Source\PSoC5/EEPROM.c ****                 if(CY_SPC_STATUS_SUCCESS == CY_SPC_READ_STATUS)
 697              		.loc 1 478 0 is_stmt 1
 698 0048 194B     		ldr	r3, .L66
 699 004a 1B78     		ldrb	r3, [r3]
 700 004c DBB2     		uxtb	r3, r3
 701 004e 03F00203 		and	r3, r3, #2
 702 0052 002B     		cmp	r3, #0
 703 0054 08D0     		beq	.L59
 704              		.loc 1 478 0 is_stmt 0 discriminator 1
 705 0056 164B     		ldr	r3, .L66
 706 0058 1B78     		ldrb	r3, [r3]
 707 005a DBB2     		uxtb	r3, r3
 708 005c 9B08     		lsrs	r3, r3, #2
 709 005e DBB2     		uxtb	r3, r3
 710 0060 002B     		cmp	r3, #0
 711 0062 01D1     		bne	.L59
 479:Generated_Source\PSoC5/EEPROM.c ****                 {
 480:Generated_Source\PSoC5/EEPROM.c ****                     status = CYRET_SUCCESS;
 712              		.loc 1 480 0 is_stmt 1
 713 0064 0023     		movs	r3, #0
 714 0066 FB60     		str	r3, [r7, #12]
 715              	.L59:
 481:Generated_Source\PSoC5/EEPROM.c ****                 }
 482:Generated_Source\PSoC5/EEPROM.c **** 
ARM GAS  C:\Users\KJA\AppData\Local\Temp\ccJYNvpW.s 			page 22


 483:Generated_Source\PSoC5/EEPROM.c ****                 /* Command to erase and program the row. */
 484:Generated_Source\PSoC5/EEPROM.c ****                 if(status == CYRET_SUCCESS)
 716              		.loc 1 484 0
 717 0068 FB68     		ldr	r3, [r7, #12]
 718 006a 002B     		cmp	r3, #0
 719 006c 12D1     		bne	.L60
 485:Generated_Source\PSoC5/EEPROM.c ****                 {
 486:Generated_Source\PSoC5/EEPROM.c ****                     if(CySpcWriteRow(CY_SPC_FIRST_EE_ARRAYID, (uint16)rowNumber, dieTemperature[0u]
 720              		.loc 1 486 0
 721 006e FB78     		ldrb	r3, [r7, #3]	@ zero_extendqisi2
 722 0070 99B2     		uxth	r1, r3
 723 0072 104B     		ldr	r3, .L66+4
 724 0074 1A78     		ldrb	r2, [r3]	@ zero_extendqisi2
 725 0076 0F4B     		ldr	r3, .L66+4
 726 0078 5B78     		ldrb	r3, [r3, #1]	@ zero_extendqisi2
 727 007a 4020     		movs	r0, #64
 728 007c FFF7FEFF 		bl	CySpcWriteRow
 729 0080 0346     		mov	r3, r0
 730 0082 072B     		cmp	r3, #7
 731 0084 02D1     		bne	.L61
 487:Generated_Source\PSoC5/EEPROM.c ****                     dieTemperature[1u]) == CYRET_STARTED)
 488:Generated_Source\PSoC5/EEPROM.c ****                     {
 489:Generated_Source\PSoC5/EEPROM.c ****                         status = CYRET_STARTED;
 732              		.loc 1 489 0
 733 0086 0723     		movs	r3, #7
 734 0088 FB60     		str	r3, [r7, #12]
 735 008a 0CE0     		b	.L64
 736              	.L61:
 490:Generated_Source\PSoC5/EEPROM.c ****                     }
 491:Generated_Source\PSoC5/EEPROM.c ****                     else
 492:Generated_Source\PSoC5/EEPROM.c ****                     {
 493:Generated_Source\PSoC5/EEPROM.c ****                         status = CYRET_UNKNOWN;
 737              		.loc 1 493 0
 738 008c 4FF0FF33 		mov	r3, #-1
 739 0090 FB60     		str	r3, [r7, #12]
 740 0092 08E0     		b	.L64
 741              	.L60:
 494:Generated_Source\PSoC5/EEPROM.c ****                     }
 495:Generated_Source\PSoC5/EEPROM.c ****                 }
 496:Generated_Source\PSoC5/EEPROM.c ****                 else
 497:Generated_Source\PSoC5/EEPROM.c ****                 {
 498:Generated_Source\PSoC5/EEPROM.c ****                     status = CYRET_UNKNOWN;
 742              		.loc 1 498 0
 743 0094 4FF0FF33 		mov	r3, #-1
 744 0098 FB60     		str	r3, [r7, #12]
 745 009a 04E0     		b	.L64
 746              	.L56:
 499:Generated_Source\PSoC5/EEPROM.c ****                 }
 500:Generated_Source\PSoC5/EEPROM.c ****             }
 501:Generated_Source\PSoC5/EEPROM.c ****         }
 502:Generated_Source\PSoC5/EEPROM.c ****         else
 503:Generated_Source\PSoC5/EEPROM.c ****         {
 504:Generated_Source\PSoC5/EEPROM.c ****             status = CYRET_LOCKED;
 747              		.loc 1 504 0
 748 009c 0423     		movs	r3, #4
 749 009e FB60     		str	r3, [r7, #12]
 750 00a0 01E0     		b	.L64
ARM GAS  C:\Users\KJA\AppData\Local\Temp\ccJYNvpW.s 			page 23


 751              	.L55:
 505:Generated_Source\PSoC5/EEPROM.c ****         }
 506:Generated_Source\PSoC5/EEPROM.c ****     }
 507:Generated_Source\PSoC5/EEPROM.c ****     else
 508:Generated_Source\PSoC5/EEPROM.c ****     {
 509:Generated_Source\PSoC5/EEPROM.c ****         status = CYRET_BAD_PARAM;
 752              		.loc 1 509 0
 753 00a2 0123     		movs	r3, #1
 754 00a4 FB60     		str	r3, [r7, #12]
 755              	.L64:
 510:Generated_Source\PSoC5/EEPROM.c ****     }
 511:Generated_Source\PSoC5/EEPROM.c **** 
 512:Generated_Source\PSoC5/EEPROM.c ****     return(status);
 756              		.loc 1 512 0
 757 00a6 FB68     		ldr	r3, [r7, #12]
 513:Generated_Source\PSoC5/EEPROM.c **** }
 758              		.loc 1 513 0
 759 00a8 1846     		mov	r0, r3
 760 00aa 1037     		adds	r7, r7, #16
 761              		.cfi_def_cfa_offset 8
 762 00ac BD46     		mov	sp, r7
 763              		.cfi_def_cfa_register 13
 764              		@ sp needed
 765 00ae 80BD     		pop	{r7, pc}
 766              	.L67:
 767              		.align	2
 768              	.L66:
 769 00b0 22470040 		.word	1073760034
 770 00b4 00000000 		.word	dieTemperature
 771              		.cfi_endproc
 772              	.LFE8:
 773              		.size	EEPROM_StartWrite, .-EEPROM_StartWrite
 774              		.section	.text.EEPROM_StartErase,"ax",%progbits
 775              		.align	2
 776              		.global	EEPROM_StartErase
 777              		.thumb
 778              		.thumb_func
 779              		.type	EEPROM_StartErase, %function
 780              	EEPROM_StartErase:
 781              	.LFB9:
 514:Generated_Source\PSoC5/EEPROM.c **** 
 515:Generated_Source\PSoC5/EEPROM.c **** 
 516:Generated_Source\PSoC5/EEPROM.c **** /*******************************************************************************
 517:Generated_Source\PSoC5/EEPROM.c **** * Function Name: EEPROM_StartErase
 518:Generated_Source\PSoC5/EEPROM.c **** ********************************************************************************
 519:Generated_Source\PSoC5/EEPROM.c **** *
 520:Generated_Source\PSoC5/EEPROM.c **** * Summary:
 521:Generated_Source\PSoC5/EEPROM.c **** *  Starts the EEPROM sector erase. This function does not block.
 522:Generated_Source\PSoC5/EEPROM.c **** *  The function returns once the SPC has begun writing the data. This function
 523:Generated_Source\PSoC5/EEPROM.c **** *  must be used in combination with EEPROM_Query().
 524:Generated_Source\PSoC5/EEPROM.c **** *  EEPROM_Query() must be called until it returns a status
 525:Generated_Source\PSoC5/EEPROM.c **** *  other than CYRET_STARTED. That indicates the erase has been completed.
 526:Generated_Source\PSoC5/EEPROM.c **** *  Until EEPROM_Query() detects that the erase is
 527:Generated_Source\PSoC5/EEPROM.c **** *  complete, the SPC is marked as locked to prevent another SPC operation
 528:Generated_Source\PSoC5/EEPROM.c **** *  from being performed.
 529:Generated_Source\PSoC5/EEPROM.c **** *
 530:Generated_Source\PSoC5/EEPROM.c **** * Parameters:
ARM GAS  C:\Users\KJA\AppData\Local\Temp\ccJYNvpW.s 			page 24


 531:Generated_Source\PSoC5/EEPROM.c **** *  sectorNumber:  The sector number to erase.
 532:Generated_Source\PSoC5/EEPROM.c **** *
 533:Generated_Source\PSoC5/EEPROM.c **** * Return:
 534:Generated_Source\PSoC5/EEPROM.c **** *  CYRET_STARTED, if the SPC command to erase was successfully started.
 535:Generated_Source\PSoC5/EEPROM.c **** *  CYRET_BAD_PARAM, if the parameter sectorNumber is out of range.
 536:Generated_Source\PSoC5/EEPROM.c **** *  CYRET_LOCKED, if the SPC is being used.
 537:Generated_Source\PSoC5/EEPROM.c **** *  CYRET_UNKNOWN, if there was an SPC error.
 538:Generated_Source\PSoC5/EEPROM.c **** *
 539:Generated_Source\PSoC5/EEPROM.c **** * Side effects:
 540:Generated_Source\PSoC5/EEPROM.c **** *  After calling this API, the device should not be powered down, reset or switched
 541:Generated_Source\PSoC5/EEPROM.c **** *  to low power modes until EEPROM operation is complete.
 542:Generated_Source\PSoC5/EEPROM.c **** *  Ignoring this recommendation may lead to data corruption or silicon
 543:Generated_Source\PSoC5/EEPROM.c **** *  unexpected behavior.
 544:Generated_Source\PSoC5/EEPROM.c **** *
 545:Generated_Source\PSoC5/EEPROM.c **** *******************************************************************************/
 546:Generated_Source\PSoC5/EEPROM.c **** cystatus EEPROM_StartErase(uint8 sectorNumber) 
 547:Generated_Source\PSoC5/EEPROM.c **** {
 782              		.loc 1 547 0
 783              		.cfi_startproc
 784              		@ args = 0, pretend = 0, frame = 16
 785              		@ frame_needed = 1, uses_anonymous_args = 0
 786 0000 80B5     		push	{r7, lr}
 787              		.cfi_def_cfa_offset 8
 788              		.cfi_offset 7, -8
 789              		.cfi_offset 14, -4
 790 0002 84B0     		sub	sp, sp, #16
 791              		.cfi_def_cfa_offset 24
 792 0004 00AF     		add	r7, sp, #0
 793              		.cfi_def_cfa_register 7
 794 0006 0346     		mov	r3, r0
 795 0008 FB71     		strb	r3, [r7, #7]
 548:Generated_Source\PSoC5/EEPROM.c ****     cystatus status;
 549:Generated_Source\PSoC5/EEPROM.c ****     
 550:Generated_Source\PSoC5/EEPROM.c ****     CySpcStart();
 796              		.loc 1 550 0
 797 000a FFF7FEFF 		bl	CySpcStart
 551:Generated_Source\PSoC5/EEPROM.c **** 
 552:Generated_Source\PSoC5/EEPROM.c ****     if(sectorNumber < (uint8) CY_EEPROM_NUMBER_ARRAYS)
 798              		.loc 1 552 0
 799 000e FB79     		ldrb	r3, [r7, #7]	@ zero_extendqisi2
 800 0010 002B     		cmp	r3, #0
 801 0012 15D1     		bne	.L69
 553:Generated_Source\PSoC5/EEPROM.c ****     {
 554:Generated_Source\PSoC5/EEPROM.c ****         /* See if we can get SPC. */
 555:Generated_Source\PSoC5/EEPROM.c ****         if(CySpcLock() == CYRET_SUCCESS)
 802              		.loc 1 555 0
 803 0014 FFF7FEFF 		bl	CySpcLock
 804 0018 0346     		mov	r3, r0
 805 001a 002B     		cmp	r3, #0
 806 001c 0DD1     		bne	.L70
 556:Generated_Source\PSoC5/EEPROM.c ****         {
 557:Generated_Source\PSoC5/EEPROM.c ****             /* Plan for failure */
 558:Generated_Source\PSoC5/EEPROM.c ****             status = CYRET_UNKNOWN;
 807              		.loc 1 558 0
 808 001e 4FF0FF33 		mov	r3, #-1
 809 0022 FB60     		str	r3, [r7, #12]
 559:Generated_Source\PSoC5/EEPROM.c **** 
ARM GAS  C:\Users\KJA\AppData\Local\Temp\ccJYNvpW.s 			page 25


 560:Generated_Source\PSoC5/EEPROM.c ****             /* Command to load a row of data */
 561:Generated_Source\PSoC5/EEPROM.c ****             if(CySpcEraseSector(CY_SPC_FIRST_EE_ARRAYID, sectorNumber) == CYRET_STARTED)
 810              		.loc 1 561 0
 811 0024 FB79     		ldrb	r3, [r7, #7]	@ zero_extendqisi2
 812 0026 4020     		movs	r0, #64
 813 0028 1946     		mov	r1, r3
 814 002a FFF7FEFF 		bl	CySpcEraseSector
 815 002e 0346     		mov	r3, r0
 816 0030 072B     		cmp	r3, #7
 817 0032 07D1     		bne	.L73
 562:Generated_Source\PSoC5/EEPROM.c ****             {
 563:Generated_Source\PSoC5/EEPROM.c ****                 status = CYRET_SUCCESS;
 818              		.loc 1 563 0
 819 0034 0023     		movs	r3, #0
 820 0036 FB60     		str	r3, [r7, #12]
 821 0038 04E0     		b	.L73
 822              	.L70:
 564:Generated_Source\PSoC5/EEPROM.c ****             }
 565:Generated_Source\PSoC5/EEPROM.c ****         }
 566:Generated_Source\PSoC5/EEPROM.c ****         else
 567:Generated_Source\PSoC5/EEPROM.c ****         {
 568:Generated_Source\PSoC5/EEPROM.c ****             status = CYRET_LOCKED;
 823              		.loc 1 568 0
 824 003a 0423     		movs	r3, #4
 825 003c FB60     		str	r3, [r7, #12]
 826 003e 01E0     		b	.L73
 827              	.L69:
 569:Generated_Source\PSoC5/EEPROM.c ****         }
 570:Generated_Source\PSoC5/EEPROM.c ****     }
 571:Generated_Source\PSoC5/EEPROM.c ****     else
 572:Generated_Source\PSoC5/EEPROM.c ****     {
 573:Generated_Source\PSoC5/EEPROM.c ****         status = CYRET_BAD_PARAM;
 828              		.loc 1 573 0
 829 0040 0123     		movs	r3, #1
 830 0042 FB60     		str	r3, [r7, #12]
 831              	.L73:
 574:Generated_Source\PSoC5/EEPROM.c ****     }
 575:Generated_Source\PSoC5/EEPROM.c **** 
 576:Generated_Source\PSoC5/EEPROM.c ****     return(status);
 832              		.loc 1 576 0
 833 0044 FB68     		ldr	r3, [r7, #12]
 577:Generated_Source\PSoC5/EEPROM.c **** }
 834              		.loc 1 577 0
 835 0046 1846     		mov	r0, r3
 836 0048 1037     		adds	r7, r7, #16
 837              		.cfi_def_cfa_offset 8
 838 004a BD46     		mov	sp, r7
 839              		.cfi_def_cfa_register 13
 840              		@ sp needed
 841 004c 80BD     		pop	{r7, pc}
 842              		.cfi_endproc
 843              	.LFE9:
 844              		.size	EEPROM_StartErase, .-EEPROM_StartErase
 845 004e 00BF     		.section	.text.EEPROM_Query,"ax",%progbits
 846              		.align	2
 847              		.global	EEPROM_Query
 848              		.thumb
ARM GAS  C:\Users\KJA\AppData\Local\Temp\ccJYNvpW.s 			page 26


 849              		.thumb_func
 850              		.type	EEPROM_Query, %function
 851              	EEPROM_Query:
 852              	.LFB10:
 578:Generated_Source\PSoC5/EEPROM.c **** 
 579:Generated_Source\PSoC5/EEPROM.c **** 
 580:Generated_Source\PSoC5/EEPROM.c **** /*******************************************************************************
 581:Generated_Source\PSoC5/EEPROM.c **** * Function Name: EEPROM_Query
 582:Generated_Source\PSoC5/EEPROM.c **** ********************************************************************************
 583:Generated_Source\PSoC5/EEPROM.c **** *
 584:Generated_Source\PSoC5/EEPROM.c **** * Summary:
 585:Generated_Source\PSoC5/EEPROM.c **** *  Checks the status of an earlier call to EEPROM_StartWrite() or
 586:Generated_Source\PSoC5/EEPROM.c **** *  EEPROM_StartErase().
 587:Generated_Source\PSoC5/EEPROM.c **** *  This function must be called until it returns a value other than
 588:Generated_Source\PSoC5/EEPROM.c **** *  CYRET_STARTED. Once that occurs, the write or erase has been completed and
 589:Generated_Source\PSoC5/EEPROM.c **** *  the SPC is unlocked.
 590:Generated_Source\PSoC5/EEPROM.c **** *
 591:Generated_Source\PSoC5/EEPROM.c **** * Parameters:
 592:Generated_Source\PSoC5/EEPROM.c **** *  None
 593:Generated_Source\PSoC5/EEPROM.c **** *
 594:Generated_Source\PSoC5/EEPROM.c **** * Return:
 595:Generated_Source\PSoC5/EEPROM.c **** *  CYRET_STARTED, if the SPC command is still processing.
 596:Generated_Source\PSoC5/EEPROM.c **** *  CYRET_SUCCESS, if the operation was completed successfully.
 597:Generated_Source\PSoC5/EEPROM.c **** *  CYRET_UNKNOWN, if there was an SPC error.
 598:Generated_Source\PSoC5/EEPROM.c **** *
 599:Generated_Source\PSoC5/EEPROM.c **** *******************************************************************************/
 600:Generated_Source\PSoC5/EEPROM.c **** cystatus EEPROM_Query(void) 
 601:Generated_Source\PSoC5/EEPROM.c **** {
 853              		.loc 1 601 0
 854              		.cfi_startproc
 855              		@ args = 0, pretend = 0, frame = 8
 856              		@ frame_needed = 1, uses_anonymous_args = 0
 857 0000 80B5     		push	{r7, lr}
 858              		.cfi_def_cfa_offset 8
 859              		.cfi_offset 7, -8
 860              		.cfi_offset 14, -4
 861 0002 82B0     		sub	sp, sp, #8
 862              		.cfi_def_cfa_offset 16
 863 0004 00AF     		add	r7, sp, #0
 864              		.cfi_def_cfa_register 7
 602:Generated_Source\PSoC5/EEPROM.c ****     cystatus status;
 603:Generated_Source\PSoC5/EEPROM.c ****     
 604:Generated_Source\PSoC5/EEPROM.c ****     CySpcStart();
 865              		.loc 1 604 0
 866 0006 FFF7FEFF 		bl	CySpcStart
 605:Generated_Source\PSoC5/EEPROM.c **** 
 606:Generated_Source\PSoC5/EEPROM.c ****     /* Check if SPC is idle */
 607:Generated_Source\PSoC5/EEPROM.c ****     if(CY_SPC_IDLE)
 867              		.loc 1 607 0
 868 000a 124B     		ldr	r3, .L81
 869 000c 1B78     		ldrb	r3, [r3]
 870 000e DBB2     		uxtb	r3, r3
 871 0010 03F00203 		and	r3, r3, #2
 872 0014 002B     		cmp	r3, #0
 873 0016 16D0     		beq	.L76
 608:Generated_Source\PSoC5/EEPROM.c ****     {
 609:Generated_Source\PSoC5/EEPROM.c ****         /* SPC is idle now */
ARM GAS  C:\Users\KJA\AppData\Local\Temp\ccJYNvpW.s 			page 27


 610:Generated_Source\PSoC5/EEPROM.c ****         if(CY_SPC_STATUS_SUCCESS == CY_SPC_READ_STATUS)
 874              		.loc 1 610 0
 875 0018 0E4B     		ldr	r3, .L81
 876 001a 1B78     		ldrb	r3, [r3]
 877 001c DBB2     		uxtb	r3, r3
 878 001e 03F00203 		and	r3, r3, #2
 879 0022 002B     		cmp	r3, #0
 880 0024 09D0     		beq	.L77
 881              		.loc 1 610 0 is_stmt 0 discriminator 1
 882 0026 0B4B     		ldr	r3, .L81
 883 0028 1B78     		ldrb	r3, [r3]
 884 002a DBB2     		uxtb	r3, r3
 885 002c 9B08     		lsrs	r3, r3, #2
 886 002e DBB2     		uxtb	r3, r3
 887 0030 002B     		cmp	r3, #0
 888 0032 02D1     		bne	.L77
 611:Generated_Source\PSoC5/EEPROM.c ****         {
 612:Generated_Source\PSoC5/EEPROM.c ****             status = CYRET_SUCCESS;
 889              		.loc 1 612 0 is_stmt 1
 890 0034 0023     		movs	r3, #0
 891 0036 7B60     		str	r3, [r7, #4]
 892 0038 02E0     		b	.L78
 893              	.L77:
 613:Generated_Source\PSoC5/EEPROM.c ****         }
 614:Generated_Source\PSoC5/EEPROM.c ****         else
 615:Generated_Source\PSoC5/EEPROM.c ****         {
 616:Generated_Source\PSoC5/EEPROM.c ****             status = CYRET_UNKNOWN;
 894              		.loc 1 616 0
 895 003a 4FF0FF33 		mov	r3, #-1
 896 003e 7B60     		str	r3, [r7, #4]
 897              	.L78:
 617:Generated_Source\PSoC5/EEPROM.c ****         }
 618:Generated_Source\PSoC5/EEPROM.c **** 
 619:Generated_Source\PSoC5/EEPROM.c ****         /* Unlock SPC so that someone else can use it. */
 620:Generated_Source\PSoC5/EEPROM.c ****         CySpcUnlock();
 898              		.loc 1 620 0
 899 0040 FFF7FEFF 		bl	CySpcUnlock
 900 0044 01E0     		b	.L79
 901              	.L76:
 621:Generated_Source\PSoC5/EEPROM.c ****     }
 622:Generated_Source\PSoC5/EEPROM.c ****     else
 623:Generated_Source\PSoC5/EEPROM.c ****     {
 624:Generated_Source\PSoC5/EEPROM.c ****         status = CYRET_STARTED;
 902              		.loc 1 624 0
 903 0046 0723     		movs	r3, #7
 904 0048 7B60     		str	r3, [r7, #4]
 905              	.L79:
 625:Generated_Source\PSoC5/EEPROM.c ****     }
 626:Generated_Source\PSoC5/EEPROM.c **** 
 627:Generated_Source\PSoC5/EEPROM.c ****     return(status);
 906              		.loc 1 627 0
 907 004a 7B68     		ldr	r3, [r7, #4]
 628:Generated_Source\PSoC5/EEPROM.c **** }
 908              		.loc 1 628 0
 909 004c 1846     		mov	r0, r3
 910 004e 0837     		adds	r7, r7, #8
 911              		.cfi_def_cfa_offset 8
ARM GAS  C:\Users\KJA\AppData\Local\Temp\ccJYNvpW.s 			page 28


 912 0050 BD46     		mov	sp, r7
 913              		.cfi_def_cfa_register 13
 914              		@ sp needed
 915 0052 80BD     		pop	{r7, pc}
 916              	.L82:
 917              		.align	2
 918              	.L81:
 919 0054 22470040 		.word	1073760034
 920              		.cfi_endproc
 921              	.LFE10:
 922              		.size	EEPROM_Query, .-EEPROM_Query
 923              		.section	.text.EEPROM_ByteWritePos,"ax",%progbits
 924              		.align	2
 925              		.global	EEPROM_ByteWritePos
 926              		.thumb
 927              		.thumb_func
 928              		.type	EEPROM_ByteWritePos, %function
 929              	EEPROM_ByteWritePos:
 930              	.LFB11:
 629:Generated_Source\PSoC5/EEPROM.c **** 
 630:Generated_Source\PSoC5/EEPROM.c **** 
 631:Generated_Source\PSoC5/EEPROM.c **** /*******************************************************************************
 632:Generated_Source\PSoC5/EEPROM.c **** * Function Name: EEPROM_ByteWritePos
 633:Generated_Source\PSoC5/EEPROM.c **** ********************************************************************************
 634:Generated_Source\PSoC5/EEPROM.c **** *
 635:Generated_Source\PSoC5/EEPROM.c **** * Summary:
 636:Generated_Source\PSoC5/EEPROM.c **** *  Writes a byte of data to the EEPROM. This is a blocking call. It will not
 637:Generated_Source\PSoC5/EEPROM.c **** *  return until the write operation succeeds or fails.
 638:Generated_Source\PSoC5/EEPROM.c **** *
 639:Generated_Source\PSoC5/EEPROM.c **** * Parameters:
 640:Generated_Source\PSoC5/EEPROM.c **** *  dataByte:   The byte of data to write to the EEPROM.
 641:Generated_Source\PSoC5/EEPROM.c **** *  rowNumber:  The EEPROM row number to program.
 642:Generated_Source\PSoC5/EEPROM.c **** *  byteNumber: The byte number within the row to program.
 643:Generated_Source\PSoC5/EEPROM.c **** *
 644:Generated_Source\PSoC5/EEPROM.c **** * Return:
 645:Generated_Source\PSoC5/EEPROM.c **** *  CYRET_SUCCESS, if the operation was successful.
 646:Generated_Source\PSoC5/EEPROM.c **** *  CYRET_BAD_PARAM, if the parameter rowNumber or byteNumber is out of range.
 647:Generated_Source\PSoC5/EEPROM.c **** *  CYRET_LOCKED, if the SPC is being used.
 648:Generated_Source\PSoC5/EEPROM.c **** *  CYRET_UNKNOWN, if there was an SPC error.
 649:Generated_Source\PSoC5/EEPROM.c **** *
 650:Generated_Source\PSoC5/EEPROM.c **** *******************************************************************************/
 651:Generated_Source\PSoC5/EEPROM.c **** cystatus EEPROM_ByteWritePos(uint8 dataByte, uint8 rowNumber, uint8 byteNumber) \
 652:Generated_Source\PSoC5/EEPROM.c **** 
 653:Generated_Source\PSoC5/EEPROM.c **** {
 931              		.loc 1 653 0
 932              		.cfi_startproc
 933              		@ args = 0, pretend = 0, frame = 16
 934              		@ frame_needed = 1, uses_anonymous_args = 0
 935 0000 80B5     		push	{r7, lr}
 936              		.cfi_def_cfa_offset 8
 937              		.cfi_offset 7, -8
 938              		.cfi_offset 14, -4
 939 0002 84B0     		sub	sp, sp, #16
 940              		.cfi_def_cfa_offset 24
 941 0004 00AF     		add	r7, sp, #0
 942              		.cfi_def_cfa_register 7
 943 0006 0346     		mov	r3, r0
ARM GAS  C:\Users\KJA\AppData\Local\Temp\ccJYNvpW.s 			page 29


 944 0008 FB71     		strb	r3, [r7, #7]
 945 000a 0B46     		mov	r3, r1
 946 000c BB71     		strb	r3, [r7, #6]
 947 000e 1346     		mov	r3, r2
 948 0010 7B71     		strb	r3, [r7, #5]
 654:Generated_Source\PSoC5/EEPROM.c ****     cystatus status;
 655:Generated_Source\PSoC5/EEPROM.c **** 
 656:Generated_Source\PSoC5/EEPROM.c ****     /* Start SPC */
 657:Generated_Source\PSoC5/EEPROM.c ****     CySpcStart();
 949              		.loc 1 657 0
 950 0012 FFF7FEFF 		bl	CySpcStart
 658:Generated_Source\PSoC5/EEPROM.c **** 
 659:Generated_Source\PSoC5/EEPROM.c ****     if((rowNumber < (uint8) CY_EEPROM_NUMBER_ROWS) && (byteNumber < (uint8) SIZEOF_EEPROM_ROW))
 951              		.loc 1 659 0
 952 0016 BB79     		ldrb	r3, [r7, #6]	@ zero_extendqisi2
 953 0018 5BB2     		sxtb	r3, r3
 954 001a 002B     		cmp	r3, #0
 955 001c 66DB     		blt	.L84
 956              		.loc 1 659 0 is_stmt 0 discriminator 1
 957 001e 7B79     		ldrb	r3, [r7, #5]	@ zero_extendqisi2
 958 0020 0F2B     		cmp	r3, #15
 959 0022 63D8     		bhi	.L84
 660:Generated_Source\PSoC5/EEPROM.c ****     {
 661:Generated_Source\PSoC5/EEPROM.c ****         /* See if we can get SPC. */
 662:Generated_Source\PSoC5/EEPROM.c ****         if(CySpcLock() == CYRET_SUCCESS)
 960              		.loc 1 662 0 is_stmt 1
 961 0024 FFF7FEFF 		bl	CySpcLock
 962 0028 0346     		mov	r3, r0
 963 002a 002B     		cmp	r3, #0
 964 002c 5BD1     		bne	.L85
 663:Generated_Source\PSoC5/EEPROM.c ****         {
 664:Generated_Source\PSoC5/EEPROM.c ****             /* Plan for failure */
 665:Generated_Source\PSoC5/EEPROM.c ****             status = CYRET_UNKNOWN;
 965              		.loc 1 665 0
 966 002e 4FF0FF33 		mov	r3, #-1
 967 0032 FB60     		str	r3, [r7, #12]
 666:Generated_Source\PSoC5/EEPROM.c **** 
 667:Generated_Source\PSoC5/EEPROM.c ****             /* Command to load byte of data */
 668:Generated_Source\PSoC5/EEPROM.c ****             if(CySpcLoadMultiByte(CY_SPC_FIRST_EE_ARRAYID, (uint16)byteNumber, &dataByte,\
 968              		.loc 1 668 0
 969 0034 7B79     		ldrb	r3, [r7, #5]	@ zero_extendqisi2
 970 0036 9AB2     		uxth	r2, r3
 971 0038 FB1D     		adds	r3, r7, #7
 972 003a 4020     		movs	r0, #64
 973 003c 1146     		mov	r1, r2
 974 003e 1A46     		mov	r2, r3
 975 0040 0123     		movs	r3, #1
 976 0042 FFF7FEFF 		bl	CySpcLoadMultiByte
 977 0046 0346     		mov	r3, r0
 978 0048 072B     		cmp	r3, #7
 979 004a 49D1     		bne	.L86
 669:Generated_Source\PSoC5/EEPROM.c ****                                                                 EEPROM_SPC_BYTE_WRITE_SIZE) == CYRE
 670:Generated_Source\PSoC5/EEPROM.c ****             {
 671:Generated_Source\PSoC5/EEPROM.c ****                 while(CY_SPC_BUSY)
 980              		.loc 1 671 0
 981 004c 00BF     		nop
 982              	.L87:
ARM GAS  C:\Users\KJA\AppData\Local\Temp\ccJYNvpW.s 			page 30


 983              		.loc 1 671 0 is_stmt 0 discriminator 1
 984 004e 2B4B     		ldr	r3, .L97
 985 0050 1B78     		ldrb	r3, [r3]
 986 0052 DBB2     		uxtb	r3, r3
 987 0054 03F00203 		and	r3, r3, #2
 988 0058 002B     		cmp	r3, #0
 989 005a F8D0     		beq	.L87
 672:Generated_Source\PSoC5/EEPROM.c ****                 {
 673:Generated_Source\PSoC5/EEPROM.c ****                     /* Wait until SPC becomes idle */
 674:Generated_Source\PSoC5/EEPROM.c ****                 }
 675:Generated_Source\PSoC5/EEPROM.c **** 
 676:Generated_Source\PSoC5/EEPROM.c ****                 /* SPC is idle now */
 677:Generated_Source\PSoC5/EEPROM.c ****                 if(CY_SPC_STATUS_SUCCESS == CY_SPC_READ_STATUS)
 990              		.loc 1 677 0 is_stmt 1
 991 005c 274B     		ldr	r3, .L97
 992 005e 1B78     		ldrb	r3, [r3]
 993 0060 DBB2     		uxtb	r3, r3
 994 0062 03F00203 		and	r3, r3, #2
 995 0066 002B     		cmp	r3, #0
 996 0068 08D0     		beq	.L88
 997              		.loc 1 677 0 is_stmt 0 discriminator 1
 998 006a 244B     		ldr	r3, .L97
 999 006c 1B78     		ldrb	r3, [r3]
 1000 006e DBB2     		uxtb	r3, r3
 1001 0070 9B08     		lsrs	r3, r3, #2
 1002 0072 DBB2     		uxtb	r3, r3
 1003 0074 002B     		cmp	r3, #0
 1004 0076 01D1     		bne	.L88
 678:Generated_Source\PSoC5/EEPROM.c ****                 {
 679:Generated_Source\PSoC5/EEPROM.c ****                     status = CYRET_SUCCESS;
 1005              		.loc 1 679 0 is_stmt 1
 1006 0078 0023     		movs	r3, #0
 1007 007a FB60     		str	r3, [r7, #12]
 1008              	.L88:
 680:Generated_Source\PSoC5/EEPROM.c ****                 }
 681:Generated_Source\PSoC5/EEPROM.c **** 
 682:Generated_Source\PSoC5/EEPROM.c ****                 /* Command to erase and program the row. */
 683:Generated_Source\PSoC5/EEPROM.c ****                 if(status == CYRET_SUCCESS)
 1009              		.loc 1 683 0
 1010 007c FB68     		ldr	r3, [r7, #12]
 1011 007e 002B     		cmp	r3, #0
 1012 0080 2BD1     		bne	.L89
 684:Generated_Source\PSoC5/EEPROM.c ****                 {
 685:Generated_Source\PSoC5/EEPROM.c ****                     if(CySpcWriteRow(CY_SPC_FIRST_EE_ARRAYID, (uint16)rowNumber, dieTemperature[0u]
 1013              		.loc 1 685 0
 1014 0082 BB79     		ldrb	r3, [r7, #6]	@ zero_extendqisi2
 1015 0084 99B2     		uxth	r1, r3
 1016 0086 1E4B     		ldr	r3, .L97+4
 1017 0088 1A78     		ldrb	r2, [r3]	@ zero_extendqisi2
 1018 008a 1D4B     		ldr	r3, .L97+4
 1019 008c 5B78     		ldrb	r3, [r3, #1]	@ zero_extendqisi2
 1020 008e 4020     		movs	r0, #64
 1021 0090 FFF7FEFF 		bl	CySpcWriteRow
 1022 0094 0346     		mov	r3, r0
 1023 0096 072B     		cmp	r3, #7
 1024 0098 1BD1     		bne	.L90
 686:Generated_Source\PSoC5/EEPROM.c ****                     dieTemperature[1u]) == CYRET_STARTED)
ARM GAS  C:\Users\KJA\AppData\Local\Temp\ccJYNvpW.s 			page 31


 687:Generated_Source\PSoC5/EEPROM.c ****                     {
 688:Generated_Source\PSoC5/EEPROM.c ****                         /* Plan for failure */
 689:Generated_Source\PSoC5/EEPROM.c ****                         status = CYRET_UNKNOWN;
 1025              		.loc 1 689 0
 1026 009a 4FF0FF33 		mov	r3, #-1
 1027 009e FB60     		str	r3, [r7, #12]
 690:Generated_Source\PSoC5/EEPROM.c **** 
 691:Generated_Source\PSoC5/EEPROM.c ****                         while(CY_SPC_BUSY)
 1028              		.loc 1 691 0
 1029 00a0 00BF     		nop
 1030              	.L91:
 1031              		.loc 1 691 0 is_stmt 0 discriminator 1
 1032 00a2 164B     		ldr	r3, .L97
 1033 00a4 1B78     		ldrb	r3, [r3]
 1034 00a6 DBB2     		uxtb	r3, r3
 1035 00a8 03F00203 		and	r3, r3, #2
 1036 00ac 002B     		cmp	r3, #0
 1037 00ae F8D0     		beq	.L91
 692:Generated_Source\PSoC5/EEPROM.c ****                         {
 693:Generated_Source\PSoC5/EEPROM.c ****                             /* Wait until SPC becomes idle */
 694:Generated_Source\PSoC5/EEPROM.c ****                         }
 695:Generated_Source\PSoC5/EEPROM.c **** 
 696:Generated_Source\PSoC5/EEPROM.c ****                         /* SPC is idle now */
 697:Generated_Source\PSoC5/EEPROM.c ****                         if(CY_SPC_STATUS_SUCCESS == CY_SPC_READ_STATUS)
 1038              		.loc 1 697 0 is_stmt 1
 1039 00b0 124B     		ldr	r3, .L97
 1040 00b2 1B78     		ldrb	r3, [r3]
 1041 00b4 DBB2     		uxtb	r3, r3
 1042 00b6 03F00203 		and	r3, r3, #2
 1043 00ba 002B     		cmp	r3, #0
 1044 00bc 10D0     		beq	.L86
 1045              		.loc 1 697 0 is_stmt 0 discriminator 1
 1046 00be 0F4B     		ldr	r3, .L97
 1047 00c0 1B78     		ldrb	r3, [r3]
 1048 00c2 DBB2     		uxtb	r3, r3
 1049 00c4 9B08     		lsrs	r3, r3, #2
 1050 00c6 DBB2     		uxtb	r3, r3
 1051 00c8 002B     		cmp	r3, #0
 1052 00ca 09D1     		bne	.L86
 698:Generated_Source\PSoC5/EEPROM.c ****                         {
 699:Generated_Source\PSoC5/EEPROM.c ****                             status = CYRET_SUCCESS;
 1053              		.loc 1 699 0 is_stmt 1
 1054 00cc 0023     		movs	r3, #0
 1055 00ce FB60     		str	r3, [r7, #12]
 1056 00d0 06E0     		b	.L86
 1057              	.L90:
 700:Generated_Source\PSoC5/EEPROM.c ****                         }
 701:Generated_Source\PSoC5/EEPROM.c ****                     }
 702:Generated_Source\PSoC5/EEPROM.c ****                     else
 703:Generated_Source\PSoC5/EEPROM.c ****                     {
 704:Generated_Source\PSoC5/EEPROM.c ****                         status = CYRET_UNKNOWN;
 1058              		.loc 1 704 0
 1059 00d2 4FF0FF33 		mov	r3, #-1
 1060 00d6 FB60     		str	r3, [r7, #12]
 1061 00d8 02E0     		b	.L86
 1062              	.L89:
 705:Generated_Source\PSoC5/EEPROM.c ****                     }
ARM GAS  C:\Users\KJA\AppData\Local\Temp\ccJYNvpW.s 			page 32


 706:Generated_Source\PSoC5/EEPROM.c ****                 }
 707:Generated_Source\PSoC5/EEPROM.c ****                 else
 708:Generated_Source\PSoC5/EEPROM.c ****                 {
 709:Generated_Source\PSoC5/EEPROM.c ****                     status = CYRET_UNKNOWN;
 1063              		.loc 1 709 0
 1064 00da 4FF0FF33 		mov	r3, #-1
 1065 00de FB60     		str	r3, [r7, #12]
 1066              	.L86:
 710:Generated_Source\PSoC5/EEPROM.c ****                 }
 711:Generated_Source\PSoC5/EEPROM.c ****             }
 712:Generated_Source\PSoC5/EEPROM.c **** 
 713:Generated_Source\PSoC5/EEPROM.c ****             /* Unlock SPC so that someone else can use it. */
 714:Generated_Source\PSoC5/EEPROM.c ****             CySpcUnlock();
 1067              		.loc 1 714 0
 1068 00e0 FFF7FEFF 		bl	CySpcUnlock
 662:Generated_Source\PSoC5/EEPROM.c ****         {
 1069              		.loc 1 662 0
 1070 00e4 04E0     		b	.L95
 1071              	.L85:
 715:Generated_Source\PSoC5/EEPROM.c ****         }
 716:Generated_Source\PSoC5/EEPROM.c ****         else
 717:Generated_Source\PSoC5/EEPROM.c ****         {
 718:Generated_Source\PSoC5/EEPROM.c ****             status = CYRET_LOCKED;
 1072              		.loc 1 718 0
 1073 00e6 0423     		movs	r3, #4
 1074 00e8 FB60     		str	r3, [r7, #12]
 662:Generated_Source\PSoC5/EEPROM.c ****         {
 1075              		.loc 1 662 0
 1076 00ea 01E0     		b	.L95
 1077              	.L84:
 719:Generated_Source\PSoC5/EEPROM.c ****         }
 720:Generated_Source\PSoC5/EEPROM.c ****     }
 721:Generated_Source\PSoC5/EEPROM.c ****     else
 722:Generated_Source\PSoC5/EEPROM.c ****     {
 723:Generated_Source\PSoC5/EEPROM.c ****         status = CYRET_BAD_PARAM;
 1078              		.loc 1 723 0
 1079 00ec 0123     		movs	r3, #1
 1080 00ee FB60     		str	r3, [r7, #12]
 1081              	.L95:
 724:Generated_Source\PSoC5/EEPROM.c ****     }
 725:Generated_Source\PSoC5/EEPROM.c **** 
 726:Generated_Source\PSoC5/EEPROM.c ****     return(status);
 1082              		.loc 1 726 0
 1083 00f0 FB68     		ldr	r3, [r7, #12]
 727:Generated_Source\PSoC5/EEPROM.c **** }
 1084              		.loc 1 727 0
 1085 00f2 1846     		mov	r0, r3
 1086 00f4 1037     		adds	r7, r7, #16
 1087              		.cfi_def_cfa_offset 8
 1088 00f6 BD46     		mov	sp, r7
 1089              		.cfi_def_cfa_register 13
 1090              		@ sp needed
 1091 00f8 80BD     		pop	{r7, pc}
 1092              	.L98:
 1093 00fa 00BF     		.align	2
 1094              	.L97:
 1095 00fc 22470040 		.word	1073760034
ARM GAS  C:\Users\KJA\AppData\Local\Temp\ccJYNvpW.s 			page 33


 1096 0100 00000000 		.word	dieTemperature
 1097              		.cfi_endproc
 1098              	.LFE11:
 1099              		.size	EEPROM_ByteWritePos, .-EEPROM_ByteWritePos
 1100              		.text
 1101              	.Letext0:
 1102              		.file 2 "Generated_Source\\PSoC5\\cytypes.h"
 1103              		.file 3 "Generated_Source\\PSoC5\\CyFlash.h"