ARM GAS  C:\Users\KJA\AppData\Local\Temp\ccXXXugL.s 			page 1


   1              		.syntax unified
   2              		.cpu cortex-m3
   3              		.fpu softvfp
   4              		.eabi_attribute 20, 1
   5              		.eabi_attribute 21, 1
   6              		.eabi_attribute 23, 3
   7              		.eabi_attribute 24, 1
   8              		.eabi_attribute 25, 1
   9              		.eabi_attribute 26, 1
  10              		.eabi_attribute 30, 6
  11              		.eabi_attribute 34, 1
  12              		.eabi_attribute 18, 4
  13              		.thumb
  14              		.file	"global_variables.c"
  15              		.text
  16              	.Ltext0:
  17              		.cfi_sections	.debug_frame
  18              		.comm	Current_State,1,1
  19              		.comm	Previous_State,1,1
  20              		.comm	Sound_Enable,1,1
  21              		.comm	Current_Menu_Position,1,1
  22              		.comm	CurrentBacklightValue,1,1
  23              		.comm	CurrentBacklightValueString,8,4
  24              		.comm	CurrentVolumeValue,1,1
  25              		.comm	CurrentVolumeValueString,8,4
  26              		.comm	Current_Calibration_Range1,4,4
  27              		.comm	Current_Calibration_Range2,4,4
  28              		.comm	Current_Calibration_Range3,4,4
  29              		.comm	LEM_Offset_Value,1,1
  30              		.comm	Two_Wire_Range,4,4
  31              		.comm	Four_Wire_Range,4,4
  32              		.comm	Four_Wire_Method,1,1
  33              		.comm	Actual_Range,1,1
  34              		.comm	View_Mode,1,1
  35              		.comm	qdCount,2,2
  36              		.comm	Last_qdCount,2,2
  37              		.comm	button1,1,1
  38              		.comm	button2,1,1
  39              		.comm	button3,1,1
  40              		.comm	button4,1,1
  41              		.comm	button5,1,1
  42              		.comm	button6,1,1
  43              		.comm	push,1,1
  44              		.comm	OutputEnable,1,1
  45              		.comm	u8g,60,4
  46              		.comm	Push_Buzzer__Default_Lenght,4,4
  47              		.comm	Rotate_Buzzer__Default_Lenght,4,4
  48              		.comm	Edit_Value_Mode,1,1
  49              		.comm	cVoltage_Actual,16,4
  50              		.comm	cCurrent_Actual,16,4
  51              		.comm	cPower_Actual,16,4
  52              		.comm	cResist_Actual,16,4
  53              		.comm	cVoltage_Set,16,4
  54              		.comm	cCurrent_Set,16,4
  55              		.comm	cPower_Set,16,4
  56              		.comm	cResist_Set,16,4
  57              		.comm	TestChar,16,4
ARM GAS  C:\Users\KJA\AppData\Local\Temp\ccXXXugL.s 			page 2


  58              		.comm	XPosition,2,2
  59              		.comm	cXPosition,16,4
  60              		.comm	YPosition,2,2
  61              		.comm	cYPosition,16,4
  62              		.comm	Touched,1,1
  63              		.comm	MeasuredVoltage,2,2
  64              		.comm	fVoltage,4,4
  65              		.comm	MeasuredCurrent,2,2
  66              		.comm	fCurrent,4,4
  67              		.comm	Power,2,2
  68              		.comm	fPower,4,4
  69              		.comm	Resist,2,2
  70              		.comm	fResist,4,4
  71              		.comm	Set_Voltage,4,4
  72              		.comm	Set_Current,4,4
  73              		.comm	Set_Current_Temporary_Value,4,4
  74              		.comm	Set_Power,4,4
  75              		.comm	Set_Power_Temporary_Value,4,4
  76              		.comm	Set_Resist,4,4
  77              		.comm	Set_Resist_Temporary_Value,4,4
  78              		.comm	Position_Number,1,1
  79              		.comm	MaxPower,4,4
  80              		.comm	MaxVoltage,4,4
  81              		.comm	MaxCurrent,4,4
  82              		.comm	MinResistance,4,4
  83              		.comm	MaxResistance,4,4
  84              		.comm	C_Kp,4,4
  85              		.comm	C_Ki,4,4
  86              		.comm	C_Kd,4,4
  87              		.comm	Max_FET_Temp,1,1
  88              		.comm	OverTemperature,1,1
  89              		.comm	Set_Ampl,2,2
  90              		.comm	Set_Ampl_Temporary_Value,2,2
  91              		.comm	Set_Freq,2,2
  92              		.comm	Set_Freq_Temporary_Value,4,4
  93              		.comm	Set_Duty,1,1
  94              		.comm	Set_Duty_Temporary_Value,1,1
  95              		.comm	cSet_Ampl,16,4
  96              		.comm	cSet_Freq,16,4
  97              		.comm	cSet_Duty,16,4
  98              		.comm	Current_Edit_Value,1,1
  99              		.comm	Actual_Multiplier_Value,1,1
 100              		.comm	cCounter,32,4
 101              		.section	.text.Buzzer_Shot,"ax",%progbits
 102              		.align	2
 103              		.global	Buzzer_Shot
 104              		.thumb
 105              		.thumb_func
 106              		.type	Buzzer_Shot, %function
 107              	Buzzer_Shot:
 108              	.LFB63:
 109              		.file 1 "global_variables.c"
   1:global_variables.c **** #include "global_variables.h"
   2:global_variables.c **** 
   3:global_variables.c **** 
   4:global_variables.c **** 
   5:global_variables.c **** void SetBacklight(uint8 BacklightValue);
ARM GAS  C:\Users\KJA\AppData\Local\Temp\ccXXXugL.s 			page 3


   6:global_variables.c **** void Check_Buttons(void);
   7:global_variables.c **** 
   8:global_variables.c **** 
   9:global_variables.c **** void Buzzer_Shot(uint32 pulse_length){
 110              		.loc 1 9 0
 111              		.cfi_startproc
 112              		@ args = 0, pretend = 0, frame = 8
 113              		@ frame_needed = 1, uses_anonymous_args = 0
 114 0000 80B5     		push	{r7, lr}
 115              		.cfi_def_cfa_offset 8
 116              		.cfi_offset 7, -8
 117              		.cfi_offset 14, -4
 118 0002 82B0     		sub	sp, sp, #8
 119              		.cfi_def_cfa_offset 16
 120 0004 00AF     		add	r7, sp, #0
 121              		.cfi_def_cfa_register 7
 122 0006 7860     		str	r0, [r7, #4]
  10:global_variables.c ****     if(Sound_Enable == 1){
 123              		.loc 1 10 0
 124 0008 074B     		ldr	r3, .L3
 125 000a 1B78     		ldrb	r3, [r3]	@ zero_extendqisi2
 126 000c 012B     		cmp	r3, #1
 127 000e 07D1     		bne	.L1
  11:global_variables.c ****         Counter_Buzz_WriteCompare(pulse_length);
 128              		.loc 1 11 0
 129 0010 7868     		ldr	r0, [r7, #4]
 130 0012 FFF7FEFF 		bl	Counter_Buzz_WriteCompare
  12:global_variables.c ****         Counter_Buzz_WriteCounter(0);
 131              		.loc 1 12 0
 132 0016 0020     		movs	r0, #0
 133 0018 FFF7FEFF 		bl	Counter_Buzz_WriteCounter
  13:global_variables.c ****         Counter_Buzz_Start();
 134              		.loc 1 13 0
 135 001c FFF7FEFF 		bl	Counter_Buzz_Start
 136              	.L1:
  14:global_variables.c ****     }
  15:global_variables.c **** }
 137              		.loc 1 15 0
 138 0020 0837     		adds	r7, r7, #8
 139              		.cfi_def_cfa_offset 8
 140 0022 BD46     		mov	sp, r7
 141              		.cfi_def_cfa_register 13
 142              		@ sp needed
 143 0024 80BD     		pop	{r7, pc}
 144              	.L4:
 145 0026 00BF     		.align	2
 146              	.L3:
 147 0028 00000000 		.word	Sound_Enable
 148              		.cfi_endproc
 149              	.LFE63:
 150              		.size	Buzzer_Shot, .-Buzzer_Shot
 151              		.section	.text.Buzzer,"ax",%progbits
 152              		.align	2
 153              		.global	Buzzer
 154              		.thumb
 155              		.thumb_func
 156              		.type	Buzzer, %function
ARM GAS  C:\Users\KJA\AppData\Local\Temp\ccXXXugL.s 			page 4


 157              	Buzzer:
 158              	.LFB64:
  16:global_variables.c **** 
  17:global_variables.c **** 
  18:global_variables.c **** void Buzzer(uint8 Enable){
 159              		.loc 1 18 0
 160              		.cfi_startproc
 161              		@ args = 0, pretend = 0, frame = 8
 162              		@ frame_needed = 1, uses_anonymous_args = 0
 163 0000 80B5     		push	{r7, lr}
 164              		.cfi_def_cfa_offset 8
 165              		.cfi_offset 7, -8
 166              		.cfi_offset 14, -4
 167 0002 82B0     		sub	sp, sp, #8
 168              		.cfi_def_cfa_offset 16
 169 0004 00AF     		add	r7, sp, #0
 170              		.cfi_def_cfa_register 7
 171 0006 0346     		mov	r3, r0
 172 0008 FB71     		strb	r3, [r7, #7]
  19:global_variables.c ****     if(Sound_Enable == 1){
 173              		.loc 1 19 0
 174 000a 084B     		ldr	r3, .L8
 175 000c 1B78     		ldrb	r3, [r3]	@ zero_extendqisi2
 176 000e 012B     		cmp	r3, #1
 177 0010 09D1     		bne	.L5
  20:global_variables.c ****         if(Enable == 1){ 
 178              		.loc 1 20 0
 179 0012 FB79     		ldrb	r3, [r7, #7]	@ zero_extendqisi2
 180 0014 012B     		cmp	r3, #1
 181 0016 01D1     		bne	.L7
  21:global_variables.c ****             PWM_Buzz_Start();
 182              		.loc 1 21 0
 183 0018 FFF7FEFF 		bl	PWM_Buzz_Start
 184              	.L7:
  22:global_variables.c ****         }
  23:global_variables.c ****         if(Enable == 0){
 185              		.loc 1 23 0
 186 001c FB79     		ldrb	r3, [r7, #7]	@ zero_extendqisi2
 187 001e 002B     		cmp	r3, #0
 188 0020 01D1     		bne	.L5
  24:global_variables.c ****             PWM_Buzz_Stop();
 189              		.loc 1 24 0
 190 0022 FFF7FEFF 		bl	PWM_Buzz_Stop
 191              	.L5:
  25:global_variables.c ****         }
  26:global_variables.c ****     }
  27:global_variables.c **** }
 192              		.loc 1 27 0
 193 0026 0837     		adds	r7, r7, #8
 194              		.cfi_def_cfa_offset 8
 195 0028 BD46     		mov	sp, r7
 196              		.cfi_def_cfa_register 13
 197              		@ sp needed
 198 002a 80BD     		pop	{r7, pc}
 199              	.L9:
 200              		.align	2
 201              	.L8:
ARM GAS  C:\Users\KJA\AppData\Local\Temp\ccXXXugL.s 			page 5


 202 002c 00000000 		.word	Sound_Enable
 203              		.cfi_endproc
 204              	.LFE64:
 205              		.size	Buzzer, .-Buzzer
 206              		.section	.text.Check_Input,"ax",%progbits
 207              		.align	2
 208              		.global	Check_Input
 209              		.thumb
 210              		.thumb_func
 211              		.type	Check_Input, %function
 212              	Check_Input:
 213              	.LFB65:
  28:global_variables.c **** 
  29:global_variables.c **** 
  30:global_variables.c **** uint8 Check_Input(){
 214              		.loc 1 30 0
 215              		.cfi_startproc
 216              		@ args = 0, pretend = 0, frame = 0
 217              		@ frame_needed = 1, uses_anonymous_args = 0
 218 0000 80B5     		push	{r7, lr}
 219              		.cfi_def_cfa_offset 8
 220              		.cfi_offset 7, -8
 221              		.cfi_offset 14, -4
 222 0002 00AF     		add	r7, sp, #0
 223              		.cfi_def_cfa_register 7
  31:global_variables.c ****     if(REV_POLARITY_Read() == 1){
 224              		.loc 1 31 0
 225 0004 FFF7FEFF 		bl	REV_POLARITY_Read
 226 0008 0346     		mov	r3, r0
 227 000a 012B     		cmp	r3, #1
 228 000c 0BD1     		bne	.L11
  32:global_variables.c ****         Previous_State = Current_State;
 229              		.loc 1 32 0
 230 000e 104B     		ldr	r3, .L14
 231 0010 1A78     		ldrb	r2, [r3]	@ zero_extendqisi2
 232 0012 104B     		ldr	r3, .L14+4
 233 0014 1A70     		strb	r2, [r3]
  33:global_variables.c ****         Current_State = Error_RP;
 234              		.loc 1 33 0
 235 0016 0E4B     		ldr	r3, .L14
 236 0018 0B22     		movs	r2, #11
 237 001a 1A70     		strb	r2, [r3]
  34:global_variables.c ****         Buzzer_Shot(500000);
 238              		.loc 1 34 0
 239 001c 0E48     		ldr	r0, .L14+8
 240 001e FFF7FEFF 		bl	Buzzer_Shot
  35:global_variables.c ****         return 0;
 241              		.loc 1 35 0
 242 0022 0023     		movs	r3, #0
 243 0024 11E0     		b	.L12
 244              	.L11:
  36:global_variables.c ****     }
  37:global_variables.c ****     else if(INPUT_OK_Read() == 0){
 245              		.loc 1 37 0
 246 0026 FFF7FEFF 		bl	INPUT_OK_Read
 247 002a 0346     		mov	r3, r0
 248 002c 002B     		cmp	r3, #0
ARM GAS  C:\Users\KJA\AppData\Local\Temp\ccXXXugL.s 			page 6


 249 002e 0BD1     		bne	.L13
  38:global_variables.c ****         Previous_State = Current_State;
 250              		.loc 1 38 0
 251 0030 074B     		ldr	r3, .L14
 252 0032 1A78     		ldrb	r2, [r3]	@ zero_extendqisi2
 253 0034 074B     		ldr	r3, .L14+4
 254 0036 1A70     		strb	r2, [r3]
  39:global_variables.c ****         Current_State = Error_NC;
 255              		.loc 1 39 0
 256 0038 054B     		ldr	r3, .L14
 257 003a 0D22     		movs	r2, #13
 258 003c 1A70     		strb	r2, [r3]
  40:global_variables.c ****         Buzzer_Shot(500000);
 259              		.loc 1 40 0
 260 003e 0648     		ldr	r0, .L14+8
 261 0040 FFF7FEFF 		bl	Buzzer_Shot
  41:global_variables.c ****         return 0;
 262              		.loc 1 41 0
 263 0044 0023     		movs	r3, #0
 264 0046 00E0     		b	.L12
 265              	.L13:
  42:global_variables.c ****     }   
  43:global_variables.c ****     else{
  44:global_variables.c ****         return 1;
 266              		.loc 1 44 0
 267 0048 0123     		movs	r3, #1
 268              	.L12:
  45:global_variables.c ****     }
  46:global_variables.c **** }
 269              		.loc 1 46 0
 270 004a 1846     		mov	r0, r3
 271 004c 80BD     		pop	{r7, pc}
 272              	.L15:
 273 004e 00BF     		.align	2
 274              	.L14:
 275 0050 00000000 		.word	Current_State
 276 0054 00000000 		.word	Previous_State
 277 0058 20A10700 		.word	500000
 278              		.cfi_endproc
 279              	.LFE65:
 280              		.size	Check_Input, .-Check_Input
 281              		.section	.text.Get_Encoder,"ax",%progbits
 282              		.align	2
 283              		.global	Get_Encoder
 284              		.thumb
 285              		.thumb_func
 286              		.type	Get_Encoder, %function
 287              	Get_Encoder:
 288              	.LFB66:
  47:global_variables.c **** 
  48:global_variables.c **** uint16 Get_Encoder(uint16 maxValue){
 289              		.loc 1 48 0
 290              		.cfi_startproc
 291              		@ args = 0, pretend = 0, frame = 8
 292              		@ frame_needed = 1, uses_anonymous_args = 0
 293 0000 80B5     		push	{r7, lr}
 294              		.cfi_def_cfa_offset 8
ARM GAS  C:\Users\KJA\AppData\Local\Temp\ccXXXugL.s 			page 7


 295              		.cfi_offset 7, -8
 296              		.cfi_offset 14, -4
 297 0002 82B0     		sub	sp, sp, #8
 298              		.cfi_def_cfa_offset 16
 299 0004 00AF     		add	r7, sp, #0
 300              		.cfi_def_cfa_register 7
 301 0006 0346     		mov	r3, r0
 302 0008 FB80     		strh	r3, [r7, #6]	@ movhi
  49:global_variables.c ****     qdCount = QD_GetCounter();  // Encoder Value   
 303              		.loc 1 49 0
 304 000a FFF7FEFF 		bl	QD_GetCounter
 305 000e 0346     		mov	r3, r0
 306 0010 9AB2     		uxth	r2, r3
 307 0012 1B4B     		ldr	r3, .L21
 308 0014 1A80     		strh	r2, [r3]	@ movhi
  50:global_variables.c ****     if(!(Last_qdCount == qdCount)){
 309              		.loc 1 50 0
 310 0016 1B4B     		ldr	r3, .L21+4
 311 0018 1A88     		ldrh	r2, [r3]
 312 001a 194B     		ldr	r3, .L21
 313 001c 1B88     		ldrh	r3, [r3]
 314 001e 9A42     		cmp	r2, r3
 315 0020 28D0     		beq	.L17
  51:global_variables.c ****         Buzzer_Shot(Rotate_Buzzer__Default_Lenght);
 316              		.loc 1 51 0
 317 0022 194B     		ldr	r3, .L21+8
 318 0024 1B68     		ldr	r3, [r3]
 319 0026 1846     		mov	r0, r3
 320 0028 FFF7FEFF 		bl	Buzzer_Shot
  52:global_variables.c ****         if(qdCount >= 65530){
 321              		.loc 1 52 0
 322 002c 144B     		ldr	r3, .L21
 323 002e 1B88     		ldrh	r3, [r3]
 324 0030 4FF6F972 		movw	r2, #65529
 325 0034 9342     		cmp	r3, r2
 326 0036 05D9     		bls	.L18
  53:global_variables.c ****             QD_SetCounter(0);
 327              		.loc 1 53 0
 328 0038 0020     		movs	r0, #0
 329 003a FFF7FEFF 		bl	QD_SetCounter
  54:global_variables.c ****             qdCount = 0;
 330              		.loc 1 54 0
 331 003e 104B     		ldr	r3, .L21
 332 0040 0022     		movs	r2, #0
 333 0042 1A80     		strh	r2, [r3]	@ movhi
 334              	.L18:
  55:global_variables.c ****         }       
  56:global_variables.c ****         if(qdCount >= maxValue-1){
 335              		.loc 1 56 0
 336 0044 0E4B     		ldr	r3, .L21
 337 0046 1B88     		ldrh	r3, [r3]
 338 0048 1A46     		mov	r2, r3
 339 004a FB88     		ldrh	r3, [r7, #6]
 340 004c 013B     		subs	r3, r3, #1
 341 004e 9A42     		cmp	r2, r3
 342 0050 0CDB     		blt	.L19
  57:global_variables.c ****             QD_SetCounter(maxValue-1);
ARM GAS  C:\Users\KJA\AppData\Local\Temp\ccXXXugL.s 			page 8


 343              		.loc 1 57 0
 344 0052 FB88     		ldrh	r3, [r7, #6]	@ movhi
 345 0054 013B     		subs	r3, r3, #1
 346 0056 9BB2     		uxth	r3, r3
 347 0058 9BB2     		uxth	r3, r3
 348 005a 1BB2     		sxth	r3, r3
 349 005c 1846     		mov	r0, r3
 350 005e FFF7FEFF 		bl	QD_SetCounter
  58:global_variables.c ****             qdCount = maxValue-1;
 351              		.loc 1 58 0
 352 0062 FB88     		ldrh	r3, [r7, #6]	@ movhi
 353 0064 013B     		subs	r3, r3, #1
 354 0066 9AB2     		uxth	r2, r3
 355 0068 054B     		ldr	r3, .L21
 356 006a 1A80     		strh	r2, [r3]	@ movhi
 357              	.L19:
  59:global_variables.c ****         }
  60:global_variables.c ****         Last_qdCount = qdCount;
 358              		.loc 1 60 0
 359 006c 044B     		ldr	r3, .L21
 360 006e 1A88     		ldrh	r2, [r3]
 361 0070 044B     		ldr	r3, .L21+4
 362 0072 1A80     		strh	r2, [r3]	@ movhi
 363              	.L17:
  61:global_variables.c ****     }
  62:global_variables.c ****     return Last_qdCount;
 364              		.loc 1 62 0
 365 0074 034B     		ldr	r3, .L21+4
 366 0076 1B88     		ldrh	r3, [r3]
  63:global_variables.c **** }
 367              		.loc 1 63 0
 368 0078 1846     		mov	r0, r3
 369 007a 0837     		adds	r7, r7, #8
 370              		.cfi_def_cfa_offset 8
 371 007c BD46     		mov	sp, r7
 372              		.cfi_def_cfa_register 13
 373              		@ sp needed
 374 007e 80BD     		pop	{r7, pc}
 375              	.L22:
 376              		.align	2
 377              	.L21:
 378 0080 00000000 		.word	qdCount
 379 0084 00000000 		.word	Last_qdCount
 380 0088 00000000 		.word	Rotate_Buzzer__Default_Lenght
 381              		.cfi_endproc
 382              	.LFE66:
 383              		.size	Get_Encoder, .-Get_Encoder
 384              		.section	.text.Get_Encoder_Menu,"ax",%progbits
 385              		.align	2
 386              		.global	Get_Encoder_Menu
 387              		.thumb
 388              		.thumb_func
 389              		.type	Get_Encoder_Menu, %function
 390              	Get_Encoder_Menu:
 391              	.LFB67:
  64:global_variables.c **** 
  65:global_variables.c **** uint16 Get_Encoder_Menu(uint16 minValue, uint16 maxValue){
ARM GAS  C:\Users\KJA\AppData\Local\Temp\ccXXXugL.s 			page 9


 392              		.loc 1 65 0
 393              		.cfi_startproc
 394              		@ args = 0, pretend = 0, frame = 8
 395              		@ frame_needed = 1, uses_anonymous_args = 0
 396 0000 80B5     		push	{r7, lr}
 397              		.cfi_def_cfa_offset 8
 398              		.cfi_offset 7, -8
 399              		.cfi_offset 14, -4
 400 0002 82B0     		sub	sp, sp, #8
 401              		.cfi_def_cfa_offset 16
 402 0004 00AF     		add	r7, sp, #0
 403              		.cfi_def_cfa_register 7
 404 0006 0346     		mov	r3, r0
 405 0008 0A46     		mov	r2, r1
 406 000a FB80     		strh	r3, [r7, #6]	@ movhi
 407 000c 1346     		mov	r3, r2	@ movhi
 408 000e BB80     		strh	r3, [r7, #4]	@ movhi
  66:global_variables.c ****     qdCount = QD_GetCounter();  // Encoder Value    
 409              		.loc 1 66 0
 410 0010 FFF7FEFF 		bl	QD_GetCounter
 411 0014 0346     		mov	r3, r0
 412 0016 9AB2     		uxth	r2, r3
 413 0018 1E4B     		ldr	r3, .L29
 414 001a 1A80     		strh	r2, [r3]	@ movhi
  67:global_variables.c ****     if(!(Last_qdCount == qdCount)){
 415              		.loc 1 67 0
 416 001c 1E4B     		ldr	r3, .L29+4
 417 001e 1A88     		ldrh	r2, [r3]
 418 0020 1C4B     		ldr	r3, .L29
 419 0022 1B88     		ldrh	r3, [r3]
 420 0024 9A42     		cmp	r2, r3
 421 0026 2ED0     		beq	.L24
  68:global_variables.c ****         Buzzer_Shot(Rotate_Buzzer__Default_Lenght);
 422              		.loc 1 68 0
 423 0028 1C4B     		ldr	r3, .L29+8
 424 002a 1B68     		ldr	r3, [r3]
 425 002c 1846     		mov	r0, r3
 426 002e FFF7FEFF 		bl	Buzzer_Shot
  69:global_variables.c ****         if(qdCount >= 65530){
 427              		.loc 1 69 0
 428 0032 184B     		ldr	r3, .L29
 429 0034 1B88     		ldrh	r3, [r3]
 430 0036 4FF6F972 		movw	r2, #65529
 431 003a 9342     		cmp	r3, r2
 432 003c 05D9     		bls	.L25
  70:global_variables.c ****             QD_SetCounter(0);
 433              		.loc 1 70 0
 434 003e 0020     		movs	r0, #0
 435 0040 FFF7FEFF 		bl	QD_SetCounter
  71:global_variables.c ****             qdCount = 0;
 436              		.loc 1 71 0
 437 0044 134B     		ldr	r3, .L29
 438 0046 0022     		movs	r2, #0
 439 0048 1A80     		strh	r2, [r3]	@ movhi
 440              	.L25:
  72:global_variables.c ****         }  
  73:global_variables.c ****         if(qdCount < minValue){
ARM GAS  C:\Users\KJA\AppData\Local\Temp\ccXXXugL.s 			page 10


 441              		.loc 1 73 0
 442 004a 124B     		ldr	r3, .L29
 443 004c 1B88     		ldrh	r3, [r3]
 444 004e FA88     		ldrh	r2, [r7, #6]
 445 0050 9A42     		cmp	r2, r3
 446 0052 07D9     		bls	.L26
  74:global_variables.c ****             QD_SetCounter(minValue);
 447              		.loc 1 74 0
 448 0054 FB88     		ldrh	r3, [r7, #6]
 449 0056 1BB2     		sxth	r3, r3
 450 0058 1846     		mov	r0, r3
 451 005a FFF7FEFF 		bl	QD_SetCounter
  75:global_variables.c ****             qdCount = minValue;
 452              		.loc 1 75 0
 453 005e 0D4A     		ldr	r2, .L29
 454 0060 FB88     		ldrh	r3, [r7, #6]	@ movhi
 455 0062 1380     		strh	r3, [r2]	@ movhi
 456              	.L26:
  76:global_variables.c ****         }       
  77:global_variables.c ****         if(qdCount >= maxValue){
 457              		.loc 1 77 0
 458 0064 0B4B     		ldr	r3, .L29
 459 0066 1B88     		ldrh	r3, [r3]
 460 0068 BA88     		ldrh	r2, [r7, #4]
 461 006a 9A42     		cmp	r2, r3
 462 006c 07D8     		bhi	.L27
  78:global_variables.c ****             QD_SetCounter(maxValue);
 463              		.loc 1 78 0
 464 006e BB88     		ldrh	r3, [r7, #4]
 465 0070 1BB2     		sxth	r3, r3
 466 0072 1846     		mov	r0, r3
 467 0074 FFF7FEFF 		bl	QD_SetCounter
  79:global_variables.c ****             qdCount = maxValue;
 468              		.loc 1 79 0
 469 0078 064A     		ldr	r2, .L29
 470 007a BB88     		ldrh	r3, [r7, #4]	@ movhi
 471 007c 1380     		strh	r3, [r2]	@ movhi
 472              	.L27:
  80:global_variables.c ****         }
  81:global_variables.c ****         Last_qdCount = qdCount;
 473              		.loc 1 81 0
 474 007e 054B     		ldr	r3, .L29
 475 0080 1A88     		ldrh	r2, [r3]
 476 0082 054B     		ldr	r3, .L29+4
 477 0084 1A80     		strh	r2, [r3]	@ movhi
 478              	.L24:
  82:global_variables.c ****     }
  83:global_variables.c ****     return Last_qdCount;  
 479              		.loc 1 83 0
 480 0086 044B     		ldr	r3, .L29+4
 481 0088 1B88     		ldrh	r3, [r3]
  84:global_variables.c **** }
 482              		.loc 1 84 0
 483 008a 1846     		mov	r0, r3
 484 008c 0837     		adds	r7, r7, #8
 485              		.cfi_def_cfa_offset 8
 486 008e BD46     		mov	sp, r7
ARM GAS  C:\Users\KJA\AppData\Local\Temp\ccXXXugL.s 			page 11


 487              		.cfi_def_cfa_register 13
 488              		@ sp needed
 489 0090 80BD     		pop	{r7, pc}
 490              	.L30:
 491 0092 00BF     		.align	2
 492              	.L29:
 493 0094 00000000 		.word	qdCount
 494 0098 00000000 		.word	Last_qdCount
 495 009c 00000000 		.word	Rotate_Buzzer__Default_Lenght
 496              		.cfi_endproc
 497              	.LFE67:
 498              		.size	Get_Encoder_Menu, .-Get_Encoder_Menu
 499              		.section	.text.Check_Buttons,"ax",%progbits
 500              		.align	2
 501              		.global	Check_Buttons
 502              		.thumb
 503              		.thumb_func
 504              		.type	Check_Buttons, %function
 505              	Check_Buttons:
 506              	.LFB68:
  85:global_variables.c **** 
  86:global_variables.c **** void Check_Buttons(void){
 507              		.loc 1 86 0
 508              		.cfi_startproc
 509              		@ args = 0, pretend = 0, frame = 0
 510              		@ frame_needed = 1, uses_anonymous_args = 0
 511 0000 80B5     		push	{r7, lr}
 512              		.cfi_def_cfa_offset 8
 513              		.cfi_offset 7, -8
 514              		.cfi_offset 14, -4
 515 0002 00AF     		add	r7, sp, #0
 516              		.cfi_def_cfa_register 7
  87:global_variables.c ****     button1 = Button1_Reg_Read();
 517              		.loc 1 87 0
 518 0004 FFF7FEFF 		bl	Button1_Reg_Read
 519 0008 0346     		mov	r3, r0
 520 000a 1A46     		mov	r2, r3
 521 000c 104B     		ldr	r3, .L32
 522 000e 1A70     		strb	r2, [r3]
  88:global_variables.c ****     button2 = Button2_Reg_Read();
 523              		.loc 1 88 0
 524 0010 FFF7FEFF 		bl	Button2_Reg_Read
 525 0014 0346     		mov	r3, r0
 526 0016 1A46     		mov	r2, r3
 527 0018 0E4B     		ldr	r3, .L32+4
 528 001a 1A70     		strb	r2, [r3]
  89:global_variables.c ****     button3 = Button3_Reg_Read();
 529              		.loc 1 89 0
 530 001c FFF7FEFF 		bl	Button3_Reg_Read
 531 0020 0346     		mov	r3, r0
 532 0022 1A46     		mov	r2, r3
 533 0024 0C4B     		ldr	r3, .L32+8
 534 0026 1A70     		strb	r2, [r3]
  90:global_variables.c ****     button4 = Button4_Reg_Read();
 535              		.loc 1 90 0
 536 0028 FFF7FEFF 		bl	Button4_Reg_Read
 537 002c 0346     		mov	r3, r0
ARM GAS  C:\Users\KJA\AppData\Local\Temp\ccXXXugL.s 			page 12


 538 002e 1A46     		mov	r2, r3
 539 0030 0A4B     		ldr	r3, .L32+12
 540 0032 1A70     		strb	r2, [r3]
  91:global_variables.c ****     button5 = Button5_Reg_Read();
 541              		.loc 1 91 0
 542 0034 FFF7FEFF 		bl	Button5_Reg_Read
 543 0038 0346     		mov	r3, r0
 544 003a 1A46     		mov	r2, r3
 545 003c 084B     		ldr	r3, .L32+16
 546 003e 1A70     		strb	r2, [r3]
  92:global_variables.c ****     button6 = Button6_Reg_Read(); 
 547              		.loc 1 92 0
 548 0040 FFF7FEFF 		bl	Button6_Reg_Read
 549 0044 0346     		mov	r3, r0
 550 0046 1A46     		mov	r2, r3
 551 0048 064B     		ldr	r3, .L32+20
 552 004a 1A70     		strb	r2, [r3]
  93:global_variables.c **** }
 553              		.loc 1 93 0
 554 004c 80BD     		pop	{r7, pc}
 555              	.L33:
 556 004e 00BF     		.align	2
 557              	.L32:
 558 0050 00000000 		.word	button1
 559 0054 00000000 		.word	button2
 560 0058 00000000 		.word	button3
 561 005c 00000000 		.word	button4
 562 0060 00000000 		.word	button5
 563 0064 00000000 		.word	button6
 564              		.cfi_endproc
 565              	.LFE68:
 566              		.size	Check_Buttons, .-Check_Buttons
 567              		.section	.rodata
 568              		.align	2
 569              	.LC0:
 570 0000 256400   		.ascii	"%d\000"
 571 0003 00       		.section	.text.SetBacklight,"ax",%progbits
 572              		.align	2
 573              		.global	SetBacklight
 574              		.thumb
 575              		.thumb_func
 576              		.type	SetBacklight, %function
 577              	SetBacklight:
 578              	.LFB69:
  94:global_variables.c **** 
  95:global_variables.c **** void SetBacklight(uint8 BacklightValue){
 579              		.loc 1 95 0
 580              		.cfi_startproc
 581              		@ args = 0, pretend = 0, frame = 16
 582              		@ frame_needed = 1, uses_anonymous_args = 0
 583 0000 80B5     		push	{r7, lr}
 584              		.cfi_def_cfa_offset 8
 585              		.cfi_offset 7, -8
 586              		.cfi_offset 14, -4
 587 0002 84B0     		sub	sp, sp, #16
 588              		.cfi_def_cfa_offset 24
 589 0004 00AF     		add	r7, sp, #0
ARM GAS  C:\Users\KJA\AppData\Local\Temp\ccXXXugL.s 			page 13


 590              		.cfi_def_cfa_register 7
 591 0006 0346     		mov	r3, r0
 592 0008 FB71     		strb	r3, [r7, #7]
  96:global_variables.c ****     int Backlight = BacklightValue;
 593              		.loc 1 96 0
 594 000a FB79     		ldrb	r3, [r7, #7]	@ zero_extendqisi2
 595 000c FB60     		str	r3, [r7, #12]
  97:global_variables.c ****     if(Backlight>=10) Backlight = 10;
 596              		.loc 1 97 0
 597 000e FB68     		ldr	r3, [r7, #12]
 598 0010 092B     		cmp	r3, #9
 599 0012 01DD     		ble	.L35
 600              		.loc 1 97 0 is_stmt 0 discriminator 1
 601 0014 0A23     		movs	r3, #10
 602 0016 FB60     		str	r3, [r7, #12]
 603              	.L35:
  98:global_variables.c ****     if(Backlight<=0) Backlight = 0;
 604              		.loc 1 98 0 is_stmt 1
 605 0018 FB68     		ldr	r3, [r7, #12]
 606 001a 002B     		cmp	r3, #0
 607 001c 01DC     		bgt	.L36
 608              		.loc 1 98 0 is_stmt 0 discriminator 1
 609 001e 0023     		movs	r3, #0
 610 0020 FB60     		str	r3, [r7, #12]
 611              	.L36:
  99:global_variables.c ****     PWM_Back_WriteCompare(Backlight);
 612              		.loc 1 99 0 is_stmt 1
 613 0022 FB68     		ldr	r3, [r7, #12]
 614 0024 DBB2     		uxtb	r3, r3
 615 0026 1846     		mov	r0, r3
 616 0028 FFF7FEFF 		bl	PWM_Back_WriteCompare
 100:global_variables.c ****     CurrentBacklightValue = Backlight;
 617              		.loc 1 100 0
 618 002c FB68     		ldr	r3, [r7, #12]
 619 002e DAB2     		uxtb	r2, r3
 620 0030 0B4B     		ldr	r3, .L37
 621 0032 1A70     		strb	r2, [r3]
 101:global_variables.c ****     sprintf((char *)CurrentBacklightValueString,"%d",Backlight);
 622              		.loc 1 101 0
 623 0034 0B48     		ldr	r0, .L37+4
 624 0036 0C49     		ldr	r1, .L37+8
 625 0038 FA68     		ldr	r2, [r7, #12]
 626 003a FFF7FEFF 		bl	sprintf
 102:global_variables.c ****     
 103:global_variables.c ****     PWM_Back_WriteCompare(Backlight*25);
 627              		.loc 1 103 0
 628 003e FB68     		ldr	r3, [r7, #12]
 629 0040 DBB2     		uxtb	r3, r3
 630 0042 1A46     		mov	r2, r3
 631 0044 9200     		lsls	r2, r2, #2
 632 0046 1344     		add	r3, r3, r2
 633 0048 1A46     		mov	r2, r3
 634 004a 9100     		lsls	r1, r2, #2
 635 004c 1A46     		mov	r2, r3
 636 004e 0B46     		mov	r3, r1
 637 0050 1344     		add	r3, r3, r2
 638 0052 DBB2     		uxtb	r3, r3
ARM GAS  C:\Users\KJA\AppData\Local\Temp\ccXXXugL.s 			page 14


 639 0054 1846     		mov	r0, r3
 640 0056 FFF7FEFF 		bl	PWM_Back_WriteCompare
 104:global_variables.c **** }
 641              		.loc 1 104 0
 642 005a 1037     		adds	r7, r7, #16
 643              		.cfi_def_cfa_offset 8
 644 005c BD46     		mov	sp, r7
 645              		.cfi_def_cfa_register 13
 646              		@ sp needed
 647 005e 80BD     		pop	{r7, pc}
 648              	.L38:
 649              		.align	2
 650              	.L37:
 651 0060 00000000 		.word	CurrentBacklightValue
 652 0064 00000000 		.word	CurrentBacklightValueString
 653 0068 00000000 		.word	.LC0
 654              		.cfi_endproc
 655              	.LFE69:
 656              		.size	SetBacklight, .-SetBacklight
 657              		.section	.text.SetVolume,"ax",%progbits
 658              		.align	2
 659              		.global	SetVolume
 660              		.thumb
 661              		.thumb_func
 662              		.type	SetVolume, %function
 663              	SetVolume:
 664              	.LFB70:
 105:global_variables.c **** 
 106:global_variables.c **** void SetVolume(uint8 VolumeValue){
 665              		.loc 1 106 0
 666              		.cfi_startproc
 667              		@ args = 0, pretend = 0, frame = 16
 668              		@ frame_needed = 1, uses_anonymous_args = 0
 669 0000 80B5     		push	{r7, lr}
 670              		.cfi_def_cfa_offset 8
 671              		.cfi_offset 7, -8
 672              		.cfi_offset 14, -4
 673 0002 84B0     		sub	sp, sp, #16
 674              		.cfi_def_cfa_offset 24
 675 0004 00AF     		add	r7, sp, #0
 676              		.cfi_def_cfa_register 7
 677 0006 0346     		mov	r3, r0
 678 0008 FB71     		strb	r3, [r7, #7]
 107:global_variables.c ****     int Volume = VolumeValue;
 679              		.loc 1 107 0
 680 000a FB79     		ldrb	r3, [r7, #7]	@ zero_extendqisi2
 681 000c FB60     		str	r3, [r7, #12]
 108:global_variables.c ****     if(Volume>=10) Volume = 10;
 682              		.loc 1 108 0
 683 000e FB68     		ldr	r3, [r7, #12]
 684 0010 092B     		cmp	r3, #9
 685 0012 01DD     		ble	.L40
 686              		.loc 1 108 0 is_stmt 0 discriminator 1
 687 0014 0A23     		movs	r3, #10
 688 0016 FB60     		str	r3, [r7, #12]
 689              	.L40:
 109:global_variables.c ****     if(Volume<=0) Volume = 0;
ARM GAS  C:\Users\KJA\AppData\Local\Temp\ccXXXugL.s 			page 15


 690              		.loc 1 109 0 is_stmt 1
 691 0018 FB68     		ldr	r3, [r7, #12]
 692 001a 002B     		cmp	r3, #0
 693 001c 01DC     		bgt	.L41
 694              		.loc 1 109 0 is_stmt 0 discriminator 1
 695 001e 0023     		movs	r3, #0
 696 0020 FB60     		str	r3, [r7, #12]
 697              	.L41:
 110:global_variables.c ****     CurrentVolumeValue = Volume;
 698              		.loc 1 110 0 is_stmt 1
 699 0022 FB68     		ldr	r3, [r7, #12]
 700 0024 DAB2     		uxtb	r2, r3
 701 0026 0A4B     		ldr	r3, .L42
 702 0028 1A70     		strb	r2, [r3]
 111:global_variables.c ****     sprintf((char *)CurrentVolumeValueString,"%d",Volume); 
 703              		.loc 1 111 0
 704 002a 0A48     		ldr	r0, .L42+4
 705 002c 0A49     		ldr	r1, .L42+8
 706 002e FA68     		ldr	r2, [r7, #12]
 707 0030 FFF7FEFF 		bl	sprintf
 112:global_variables.c ****     
 113:global_variables.c ****     PWM_Buzz_WriteCompare(Volume*10);
 708              		.loc 1 113 0
 709 0034 FB68     		ldr	r3, [r7, #12]
 710 0036 DBB2     		uxtb	r3, r3
 711 0038 1A46     		mov	r2, r3
 712 003a 9200     		lsls	r2, r2, #2
 713 003c 1344     		add	r3, r3, r2
 714 003e 5B00     		lsls	r3, r3, #1
 715 0040 DBB2     		uxtb	r3, r3
 716 0042 1846     		mov	r0, r3
 717 0044 FFF7FEFF 		bl	PWM_Buzz_WriteCompare
 114:global_variables.c **** }...
 718              		.loc 1 114 0
 719 0048 1037     		adds	r7, r7, #16
 720              		.cfi_def_cfa_offset 8
 721 004a BD46     		mov	sp, r7
 722              		.cfi_def_cfa_register 13
 723              		@ sp needed
 724 004c 80BD     		pop	{r7, pc}
 725              	.L43:
 726 004e 00BF     		.align	2
 727              	.L42:
 728 0050 00000000 		.word	CurrentVolumeValue
 729 0054 00000000 		.word	CurrentVolumeValueString
 730 0058 00000000 		.word	.LC0
 731              		.cfi_endproc
 732              	.LFE70:
 733              		.size	SetVolume, .-SetVolume
 734              		.text
 735              	.Letext0:
 736              		.file 2 "c:\\program files (x86)\\cypress\\psoc creator\\4.0\\psoc creator\\import\\gnu\\arm\\4.9.
 737              		.file 3 "c:\\program files (x86)\\cypress\\psoc creator\\4.0\\psoc creator\\import\\gnu\\arm\\4.9.
 738              		.file 4 "Generated_Source\\PSoC5/cytypes.h"
 739              		.file 5 "u8g.h"
 740              		.file 6 "Generated_Source\\PSoC5/core_cm3.h"
 741              		.file 7 "global_variables.h"
ARM GAS  C:\Users\KJA\AppData\Local\Temp\ccXXXugL.s 			page 16

