ARM GAS  C:\Users\KJA\AppData\Local\Temp\ccYpJsWS.s 			page 1


   1              		.syntax unified
   2              		.cpu cortex-m3
   3              		.fpu softvfp
   4              		.eabi_attribute 20, 1
   5              		.eabi_attribute 21, 1
   6              		.eabi_attribute 23, 3
   7              		.eabi_attribute 24, 1
   8              		.eabi_attribute 25, 1
   9              		.eabi_attribute 26, 1
  10              		.eabi_attribute 30, 6
  11              		.eabi_attribute 34, 1
  12              		.eabi_attribute 18, 4
  13              		.thumb
  14              		.file	"I2C.c"
  15              		.text
  16              	.Ltext0:
  17              		.cfi_sections	.debug_frame
  18              		.global	I2C_initVar
  19              		.bss
  20              		.type	I2C_initVar, %object
  21              		.size	I2C_initVar, 1
  22              	I2C_initVar:
  23 0000 00       		.space	1
  24              		.comm	I2C_state,1,1
  25              		.section	.text.I2C_Init,"ax",%progbits
  26              		.align	2
  27              		.global	I2C_Init
  28              		.thumb
  29              		.thumb_func
  30              		.type	I2C_Init, %function
  31              	I2C_Init:
  32              	.LFB0:
  33              		.file 1 "Generated_Source\\PSoC5\\I2C.c"
   1:Generated_Source\PSoC5/I2C.c **** /*******************************************************************************
   2:Generated_Source\PSoC5/I2C.c **** * File Name: I2C.c
   3:Generated_Source\PSoC5/I2C.c **** * Version 3.50
   4:Generated_Source\PSoC5/I2C.c **** *
   5:Generated_Source\PSoC5/I2C.c **** * Description:
   6:Generated_Source\PSoC5/I2C.c **** *  This file provides the source code of APIs for the I2C component.
   7:Generated_Source\PSoC5/I2C.c **** *  The actual protocol and operation code resides in the interrupt service
   8:Generated_Source\PSoC5/I2C.c **** *  routine file.
   9:Generated_Source\PSoC5/I2C.c **** *
  10:Generated_Source\PSoC5/I2C.c **** *******************************************************************************
  11:Generated_Source\PSoC5/I2C.c **** * Copyright 2008-2015, Cypress Semiconductor Corporation. All rights reserved.
  12:Generated_Source\PSoC5/I2C.c **** * You may use this file only in accordance with the license, terms, conditions,
  13:Generated_Source\PSoC5/I2C.c **** * disclaimers, and limitations in the end user license agreement accompanying
  14:Generated_Source\PSoC5/I2C.c **** * the software package with which this file was provided.
  15:Generated_Source\PSoC5/I2C.c **** *******************************************************************************/
  16:Generated_Source\PSoC5/I2C.c **** 
  17:Generated_Source\PSoC5/I2C.c **** #include "I2C_PVT.h"
  18:Generated_Source\PSoC5/I2C.c **** 
  19:Generated_Source\PSoC5/I2C.c **** 
  20:Generated_Source\PSoC5/I2C.c **** /**********************************
  21:Generated_Source\PSoC5/I2C.c **** *      System variables
  22:Generated_Source\PSoC5/I2C.c **** **********************************/
  23:Generated_Source\PSoC5/I2C.c **** 
  24:Generated_Source\PSoC5/I2C.c **** uint8 I2C_initVar = 0u; /* Defines if component was initialized */
ARM GAS  C:\Users\KJA\AppData\Local\Temp\ccYpJsWS.s 			page 2


  25:Generated_Source\PSoC5/I2C.c **** 
  26:Generated_Source\PSoC5/I2C.c **** volatile uint8 I2C_state;  /* Current state of I2C FSM */
  27:Generated_Source\PSoC5/I2C.c **** 
  28:Generated_Source\PSoC5/I2C.c **** 
  29:Generated_Source\PSoC5/I2C.c **** /*******************************************************************************
  30:Generated_Source\PSoC5/I2C.c **** * Function Name: I2C_Init
  31:Generated_Source\PSoC5/I2C.c **** ********************************************************************************
  32:Generated_Source\PSoC5/I2C.c **** *
  33:Generated_Source\PSoC5/I2C.c **** * Summary:
  34:Generated_Source\PSoC5/I2C.c **** *  Initializes I2C registers with initial values provided from customizer.
  35:Generated_Source\PSoC5/I2C.c **** *
  36:Generated_Source\PSoC5/I2C.c **** * Parameters:
  37:Generated_Source\PSoC5/I2C.c **** *  None.
  38:Generated_Source\PSoC5/I2C.c **** *
  39:Generated_Source\PSoC5/I2C.c **** * Return:
  40:Generated_Source\PSoC5/I2C.c **** *  None.
  41:Generated_Source\PSoC5/I2C.c **** *
  42:Generated_Source\PSoC5/I2C.c **** * Global variables:
  43:Generated_Source\PSoC5/I2C.c **** *  None.
  44:Generated_Source\PSoC5/I2C.c **** *
  45:Generated_Source\PSoC5/I2C.c **** * Reentrant:
  46:Generated_Source\PSoC5/I2C.c **** *  No.
  47:Generated_Source\PSoC5/I2C.c **** *
  48:Generated_Source\PSoC5/I2C.c **** *******************************************************************************/
  49:Generated_Source\PSoC5/I2C.c **** void I2C_Init(void) 
  50:Generated_Source\PSoC5/I2C.c **** {
  34              		.loc 1 50 0
  35              		.cfi_startproc
  36              		@ args = 0, pretend = 0, frame = 0
  37              		@ frame_needed = 1, uses_anonymous_args = 0
  38 0000 80B5     		push	{r7, lr}
  39              		.cfi_def_cfa_offset 8
  40              		.cfi_offset 7, -8
  41              		.cfi_offset 14, -4
  42 0002 00AF     		add	r7, sp, #0
  43              		.cfi_def_cfa_register 7
  51:Generated_Source\PSoC5/I2C.c **** #if (I2C_FF_IMPLEMENTED)
  52:Generated_Source\PSoC5/I2C.c ****     /* Configure fixed function block */
  53:Generated_Source\PSoC5/I2C.c ****     I2C_CFG_REG  = I2C_DEFAULT_CFG;
  44              		.loc 1 53 0
  45 0004 134B     		ldr	r3, .L2
  46 0006 0222     		movs	r2, #2
  47 0008 1A70     		strb	r2, [r3]
  54:Generated_Source\PSoC5/I2C.c ****     I2C_XCFG_REG = I2C_DEFAULT_XCFG;
  48              		.loc 1 54 0
  49 000a 134B     		ldr	r3, .L2+4
  50 000c 8122     		movs	r2, #129
  51 000e 1A70     		strb	r2, [r3]
  55:Generated_Source\PSoC5/I2C.c ****     I2C_ADDR_REG = I2C_DEFAULT_ADDR;
  52              		.loc 1 55 0
  53 0010 124B     		ldr	r3, .L2+8
  54 0012 0822     		movs	r2, #8
  55 0014 1A70     		strb	r2, [r3]
  56:Generated_Source\PSoC5/I2C.c ****     I2C_CLKDIV1_REG = LO8(I2C_DEFAULT_DIVIDE_FACTOR);
  56              		.loc 1 56 0
  57 0016 124B     		ldr	r3, .L2+12
  58 0018 0C22     		movs	r2, #12
ARM GAS  C:\Users\KJA\AppData\Local\Temp\ccYpJsWS.s 			page 3


  59 001a 1A70     		strb	r2, [r3]
  57:Generated_Source\PSoC5/I2C.c ****     I2C_CLKDIV2_REG = HI8(I2C_DEFAULT_DIVIDE_FACTOR);
  60              		.loc 1 57 0
  61 001c 114B     		ldr	r3, .L2+16
  62 001e 0022     		movs	r2, #0
  63 0020 1A70     		strb	r2, [r3]
  58:Generated_Source\PSoC5/I2C.c **** 
  59:Generated_Source\PSoC5/I2C.c **** #else
  60:Generated_Source\PSoC5/I2C.c ****     uint8 intState;
  61:Generated_Source\PSoC5/I2C.c **** 
  62:Generated_Source\PSoC5/I2C.c ****     /* Configure control and interrupt sources */
  63:Generated_Source\PSoC5/I2C.c ****     I2C_CFG_REG      = I2C_DEFAULT_CFG;
  64:Generated_Source\PSoC5/I2C.c ****     I2C_INT_MASK_REG = I2C_DEFAULT_INT_MASK;
  65:Generated_Source\PSoC5/I2C.c **** 
  66:Generated_Source\PSoC5/I2C.c ****     /* Enable interrupt generation in status */
  67:Generated_Source\PSoC5/I2C.c ****     intState = CyEnterCriticalSection();
  68:Generated_Source\PSoC5/I2C.c ****     I2C_INT_ENABLE_REG |= I2C_INTR_ENABLE;
  69:Generated_Source\PSoC5/I2C.c ****     CyExitCriticalSection(intState);
  70:Generated_Source\PSoC5/I2C.c **** 
  71:Generated_Source\PSoC5/I2C.c ****     /* Configure bit counter */
  72:Generated_Source\PSoC5/I2C.c ****     #if (I2C_MODE_SLAVE_ENABLED)
  73:Generated_Source\PSoC5/I2C.c ****         I2C_PERIOD_REG = I2C_DEFAULT_PERIOD;
  74:Generated_Source\PSoC5/I2C.c ****     #endif  /* (I2C_MODE_SLAVE_ENABLED) */
  75:Generated_Source\PSoC5/I2C.c **** 
  76:Generated_Source\PSoC5/I2C.c ****     /* Configure clock generator */
  77:Generated_Source\PSoC5/I2C.c ****     #if (I2C_MODE_MASTER_ENABLED)
  78:Generated_Source\PSoC5/I2C.c ****         I2C_MCLK_PRD_REG = I2C_DEFAULT_MCLK_PRD;
  79:Generated_Source\PSoC5/I2C.c ****         I2C_MCLK_CMP_REG = I2C_DEFAULT_MCLK_CMP;
  80:Generated_Source\PSoC5/I2C.c ****     #endif /* (I2C_MODE_MASTER_ENABLED) */
  81:Generated_Source\PSoC5/I2C.c **** #endif /* (I2C_FF_IMPLEMENTED) */
  82:Generated_Source\PSoC5/I2C.c **** 
  83:Generated_Source\PSoC5/I2C.c **** #if (I2C_TIMEOUT_ENABLED)
  84:Generated_Source\PSoC5/I2C.c ****     I2C_TimeoutInit();
  85:Generated_Source\PSoC5/I2C.c **** #endif /* (I2C_TIMEOUT_ENABLED) */
  86:Generated_Source\PSoC5/I2C.c **** 
  87:Generated_Source\PSoC5/I2C.c ****     /* Configure internal interrupt */
  88:Generated_Source\PSoC5/I2C.c ****     CyIntDisable    (I2C_ISR_NUMBER);
  64              		.loc 1 88 0
  65 0022 114B     		ldr	r3, .L2+20
  66 0024 4FF40042 		mov	r2, #32768
  67 0028 1A60     		str	r2, [r3]
  89:Generated_Source\PSoC5/I2C.c ****     CyIntSetPriority(I2C_ISR_NUMBER, I2C_ISR_PRIORITY);
  68              		.loc 1 89 0
  69 002a 0F20     		movs	r0, #15
  70 002c 0721     		movs	r1, #7
  71 002e FFF7FEFF 		bl	CyIntSetPriority
  90:Generated_Source\PSoC5/I2C.c ****     #if (I2C_INTERN_I2C_INTR_HANDLER)
  91:Generated_Source\PSoC5/I2C.c ****         (void) CyIntSetVector(I2C_ISR_NUMBER, &I2C_ISR);
  72              		.loc 1 91 0
  73 0032 0F20     		movs	r0, #15
  74 0034 0D49     		ldr	r1, .L2+24
  75 0036 FFF7FEFF 		bl	CyIntSetVector
  92:Generated_Source\PSoC5/I2C.c ****     #endif /* (I2C_INTERN_I2C_INTR_HANDLER) */
  93:Generated_Source\PSoC5/I2C.c **** 
  94:Generated_Source\PSoC5/I2C.c ****     /* Set FSM to default state */
  95:Generated_Source\PSoC5/I2C.c ****     I2C_state = I2C_SM_IDLE;
  76              		.loc 1 95 0
ARM GAS  C:\Users\KJA\AppData\Local\Temp\ccYpJsWS.s 			page 4


  77 003a 0D4B     		ldr	r3, .L2+28
  78 003c 1022     		movs	r2, #16
  79 003e 1A70     		strb	r2, [r3]
  96:Generated_Source\PSoC5/I2C.c **** 
  97:Generated_Source\PSoC5/I2C.c **** #if (I2C_MODE_SLAVE_ENABLED)
  98:Generated_Source\PSoC5/I2C.c ****     /* Clear status and buffers index */
  99:Generated_Source\PSoC5/I2C.c ****     I2C_slStatus = 0u;
 100:Generated_Source\PSoC5/I2C.c ****     I2C_slRdBufIndex = 0u;
 101:Generated_Source\PSoC5/I2C.c ****     I2C_slWrBufIndex = 0u;
 102:Generated_Source\PSoC5/I2C.c **** 
 103:Generated_Source\PSoC5/I2C.c ****     /* Configure matched address */
 104:Generated_Source\PSoC5/I2C.c ****     I2C_SlaveSetAddress(I2C_DEFAULT_ADDR);
 105:Generated_Source\PSoC5/I2C.c **** #endif /* (I2C_MODE_SLAVE_ENABLED) */
 106:Generated_Source\PSoC5/I2C.c **** 
 107:Generated_Source\PSoC5/I2C.c **** #if (I2C_MODE_MASTER_ENABLED)
 108:Generated_Source\PSoC5/I2C.c ****     /* Clear status and buffers index */
 109:Generated_Source\PSoC5/I2C.c ****     I2C_mstrStatus = 0u;
  80              		.loc 1 109 0
  81 0040 0C4B     		ldr	r3, .L2+32
  82 0042 0022     		movs	r2, #0
  83 0044 1A70     		strb	r2, [r3]
 110:Generated_Source\PSoC5/I2C.c ****     I2C_mstrRdBufIndex = 0u;
  84              		.loc 1 110 0
  85 0046 0C4B     		ldr	r3, .L2+36
  86 0048 0022     		movs	r2, #0
  87 004a 1A70     		strb	r2, [r3]
 111:Generated_Source\PSoC5/I2C.c ****     I2C_mstrWrBufIndex = 0u;
  88              		.loc 1 111 0
  89 004c 0B4B     		ldr	r3, .L2+40
  90 004e 0022     		movs	r2, #0
  91 0050 1A70     		strb	r2, [r3]
 112:Generated_Source\PSoC5/I2C.c **** #endif /* (I2C_MODE_MASTER_ENABLED) */
 113:Generated_Source\PSoC5/I2C.c **** }
  92              		.loc 1 113 0
  93 0052 80BD     		pop	{r7, pc}
  94              	.L3:
  95              		.align	2
  96              	.L2:
  97 0054 D6490040 		.word	1073760726
  98 0058 C8490040 		.word	1073760712
  99 005c CA490040 		.word	1073760714
 100 0060 DB490040 		.word	1073760731
 101 0064 DC490040 		.word	1073760732
 102 0068 80E100E0 		.word	-536813184
 103 006c 00000000 		.word	I2C_ISR
 104 0070 00000000 		.word	I2C_state
 105 0074 00000000 		.word	I2C_mstrStatus
 106 0078 00000000 		.word	I2C_mstrRdBufIndex
 107 007c 00000000 		.word	I2C_mstrWrBufIndex
 108              		.cfi_endproc
 109              	.LFE0:
 110              		.size	I2C_Init, .-I2C_Init
 111              		.section	.text.I2C_Enable,"ax",%progbits
 112              		.align	2
 113              		.global	I2C_Enable
 114              		.thumb
 115              		.thumb_func
ARM GAS  C:\Users\KJA\AppData\Local\Temp\ccYpJsWS.s 			page 5


 116              		.type	I2C_Enable, %function
 117              	I2C_Enable:
 118              	.LFB1:
 114:Generated_Source\PSoC5/I2C.c **** 
 115:Generated_Source\PSoC5/I2C.c **** 
 116:Generated_Source\PSoC5/I2C.c **** /*******************************************************************************
 117:Generated_Source\PSoC5/I2C.c **** * Function Name: I2C_Enable
 118:Generated_Source\PSoC5/I2C.c **** ********************************************************************************
 119:Generated_Source\PSoC5/I2C.c **** *
 120:Generated_Source\PSoC5/I2C.c **** * Summary:
 121:Generated_Source\PSoC5/I2C.c **** *  Enables I2C operations.
 122:Generated_Source\PSoC5/I2C.c **** *
 123:Generated_Source\PSoC5/I2C.c **** * Parameters:
 124:Generated_Source\PSoC5/I2C.c **** *  None.
 125:Generated_Source\PSoC5/I2C.c **** *
 126:Generated_Source\PSoC5/I2C.c **** * Return:
 127:Generated_Source\PSoC5/I2C.c **** *  None.
 128:Generated_Source\PSoC5/I2C.c **** *
 129:Generated_Source\PSoC5/I2C.c **** * Global variables:
 130:Generated_Source\PSoC5/I2C.c **** *  None.
 131:Generated_Source\PSoC5/I2C.c **** *
 132:Generated_Source\PSoC5/I2C.c **** *******************************************************************************/
 133:Generated_Source\PSoC5/I2C.c **** void I2C_Enable(void) 
 134:Generated_Source\PSoC5/I2C.c **** {
 119              		.loc 1 134 0
 120              		.cfi_startproc
 121              		@ args = 0, pretend = 0, frame = 8
 122              		@ frame_needed = 1, uses_anonymous_args = 0
 123 0000 80B5     		push	{r7, lr}
 124              		.cfi_def_cfa_offset 8
 125              		.cfi_offset 7, -8
 126              		.cfi_offset 14, -4
 127 0002 82B0     		sub	sp, sp, #8
 128              		.cfi_def_cfa_offset 16
 129 0004 00AF     		add	r7, sp, #0
 130              		.cfi_def_cfa_register 7
 135:Generated_Source\PSoC5/I2C.c **** #if (I2C_FF_IMPLEMENTED)
 136:Generated_Source\PSoC5/I2C.c ****     uint8 intState;
 137:Generated_Source\PSoC5/I2C.c **** 
 138:Generated_Source\PSoC5/I2C.c ****     /* Enable power to block */
 139:Generated_Source\PSoC5/I2C.c ****     intState = CyEnterCriticalSection();
 131              		.loc 1 139 0
 132 0006 FFF7FEFF 		bl	CyEnterCriticalSection
 133 000a 0346     		mov	r3, r0
 134 000c FB71     		strb	r3, [r7, #7]
 140:Generated_Source\PSoC5/I2C.c ****     I2C_ACT_PWRMGR_REG  |= I2C_ACT_PWR_EN;
 135              		.loc 1 140 0
 136 000e 0B4A     		ldr	r2, .L5
 137 0010 0A4B     		ldr	r3, .L5
 138 0012 1B78     		ldrb	r3, [r3]
 139 0014 DBB2     		uxtb	r3, r3
 140 0016 43F00403 		orr	r3, r3, #4
 141 001a DBB2     		uxtb	r3, r3
 142 001c 1370     		strb	r3, [r2]
 141:Generated_Source\PSoC5/I2C.c ****     I2C_STBY_PWRMGR_REG |= I2C_STBY_PWR_EN;
 143              		.loc 1 141 0
 144 001e 084A     		ldr	r2, .L5+4
ARM GAS  C:\Users\KJA\AppData\Local\Temp\ccYpJsWS.s 			page 6


 145 0020 074B     		ldr	r3, .L5+4
 146 0022 1B78     		ldrb	r3, [r3]
 147 0024 DBB2     		uxtb	r3, r3
 148 0026 43F00403 		orr	r3, r3, #4
 149 002a DBB2     		uxtb	r3, r3
 150 002c 1370     		strb	r3, [r2]
 142:Generated_Source\PSoC5/I2C.c ****     CyExitCriticalSection(intState);
 151              		.loc 1 142 0
 152 002e FB79     		ldrb	r3, [r7, #7]	@ zero_extendqisi2
 153 0030 1846     		mov	r0, r3
 154 0032 FFF7FEFF 		bl	CyExitCriticalSection
 143:Generated_Source\PSoC5/I2C.c **** #else
 144:Generated_Source\PSoC5/I2C.c ****     #if (I2C_MODE_SLAVE_ENABLED)
 145:Generated_Source\PSoC5/I2C.c ****         /* Enable bit counter */
 146:Generated_Source\PSoC5/I2C.c ****         uint8 intState = CyEnterCriticalSection();
 147:Generated_Source\PSoC5/I2C.c ****         I2C_COUNTER_AUX_CTL_REG |= I2C_CNT7_ENABLE;
 148:Generated_Source\PSoC5/I2C.c ****         CyExitCriticalSection(intState);
 149:Generated_Source\PSoC5/I2C.c ****     #endif /* (I2C_MODE_SLAVE_ENABLED) */
 150:Generated_Source\PSoC5/I2C.c **** 
 151:Generated_Source\PSoC5/I2C.c ****     /* Enable slave or master bits */
 152:Generated_Source\PSoC5/I2C.c ****     I2C_CFG_REG |= I2C_ENABLE_MS;
 153:Generated_Source\PSoC5/I2C.c **** #endif /* (I2C_FF_IMPLEMENTED) */
 154:Generated_Source\PSoC5/I2C.c **** 
 155:Generated_Source\PSoC5/I2C.c **** #if (I2C_TIMEOUT_ENABLED)
 156:Generated_Source\PSoC5/I2C.c ****     I2C_TimeoutEnable();
 157:Generated_Source\PSoC5/I2C.c **** #endif /* (I2C_TIMEOUT_ENABLED) */
 158:Generated_Source\PSoC5/I2C.c **** }
 155              		.loc 1 158 0
 156 0036 0837     		adds	r7, r7, #8
 157              		.cfi_def_cfa_offset 8
 158 0038 BD46     		mov	sp, r7
 159              		.cfi_def_cfa_register 13
 160              		@ sp needed
 161 003a 80BD     		pop	{r7, pc}
 162              	.L6:
 163              		.align	2
 164              	.L5:
 165 003c A5430040 		.word	1073759141
 166 0040 B5430040 		.word	1073759157
 167              		.cfi_endproc
 168              	.LFE1:
 169              		.size	I2C_Enable, .-I2C_Enable
 170              		.section	.text.I2C_Start,"ax",%progbits
 171              		.align	2
 172              		.global	I2C_Start
 173              		.thumb
 174              		.thumb_func
 175              		.type	I2C_Start, %function
 176              	I2C_Start:
 177              	.LFB2:
 159:Generated_Source\PSoC5/I2C.c **** 
 160:Generated_Source\PSoC5/I2C.c **** 
 161:Generated_Source\PSoC5/I2C.c **** /*******************************************************************************
 162:Generated_Source\PSoC5/I2C.c **** * Function Name: I2C_Start
 163:Generated_Source\PSoC5/I2C.c **** ********************************************************************************
 164:Generated_Source\PSoC5/I2C.c **** *
 165:Generated_Source\PSoC5/I2C.c **** * Summary:
ARM GAS  C:\Users\KJA\AppData\Local\Temp\ccYpJsWS.s 			page 7


 166:Generated_Source\PSoC5/I2C.c **** *  Starts the I2C hardware. Enables Active mode power template bits or clock
 167:Generated_Source\PSoC5/I2C.c **** *  gating as appropriate. It is required to be executed before I2C bus
 168:Generated_Source\PSoC5/I2C.c **** *  operation.
 169:Generated_Source\PSoC5/I2C.c **** *
 170:Generated_Source\PSoC5/I2C.c **** * Parameters:
 171:Generated_Source\PSoC5/I2C.c **** *  None.
 172:Generated_Source\PSoC5/I2C.c **** *
 173:Generated_Source\PSoC5/I2C.c **** * Return:
 174:Generated_Source\PSoC5/I2C.c **** *  None.
 175:Generated_Source\PSoC5/I2C.c **** *
 176:Generated_Source\PSoC5/I2C.c **** * Side Effects:
 177:Generated_Source\PSoC5/I2C.c **** *  This component automatically enables its interrupt.  If I2C is enabled !
 178:Generated_Source\PSoC5/I2C.c **** *  without the interrupt enabled, it can lock up the I2C bus.
 179:Generated_Source\PSoC5/I2C.c **** *
 180:Generated_Source\PSoC5/I2C.c **** * Global variables:
 181:Generated_Source\PSoC5/I2C.c **** *  I2C_initVar - This variable is used to check the initial
 182:Generated_Source\PSoC5/I2C.c **** *                             configuration, modified on the first
 183:Generated_Source\PSoC5/I2C.c **** *                             function call.
 184:Generated_Source\PSoC5/I2C.c **** *
 185:Generated_Source\PSoC5/I2C.c **** * Reentrant:
 186:Generated_Source\PSoC5/I2C.c **** *  No.
 187:Generated_Source\PSoC5/I2C.c **** *
 188:Generated_Source\PSoC5/I2C.c **** *******************************************************************************/
 189:Generated_Source\PSoC5/I2C.c **** void I2C_Start(void) 
 190:Generated_Source\PSoC5/I2C.c **** {
 178              		.loc 1 190 0
 179              		.cfi_startproc
 180              		@ args = 0, pretend = 0, frame = 0
 181              		@ frame_needed = 1, uses_anonymous_args = 0
 182 0000 80B5     		push	{r7, lr}
 183              		.cfi_def_cfa_offset 8
 184              		.cfi_offset 7, -8
 185              		.cfi_offset 14, -4
 186 0002 00AF     		add	r7, sp, #0
 187              		.cfi_def_cfa_register 7
 191:Generated_Source\PSoC5/I2C.c ****     if (0u == I2C_initVar)
 188              		.loc 1 191 0
 189 0004 074B     		ldr	r3, .L9
 190 0006 1B78     		ldrb	r3, [r3]	@ zero_extendqisi2
 191 0008 002B     		cmp	r3, #0
 192 000a 04D1     		bne	.L8
 192:Generated_Source\PSoC5/I2C.c ****     {
 193:Generated_Source\PSoC5/I2C.c ****         I2C_Init();
 193              		.loc 1 193 0
 194 000c FFF7FEFF 		bl	I2C_Init
 194:Generated_Source\PSoC5/I2C.c ****         I2C_initVar = 1u; /* Component initialized */
 195              		.loc 1 194 0
 196 0010 044B     		ldr	r3, .L9
 197 0012 0122     		movs	r2, #1
 198 0014 1A70     		strb	r2, [r3]
 199              	.L8:
 195:Generated_Source\PSoC5/I2C.c ****     }
 196:Generated_Source\PSoC5/I2C.c **** 
 197:Generated_Source\PSoC5/I2C.c ****     I2C_Enable();
 200              		.loc 1 197 0
 201 0016 FFF7FEFF 		bl	I2C_Enable
 198:Generated_Source\PSoC5/I2C.c ****     I2C_EnableInt();
ARM GAS  C:\Users\KJA\AppData\Local\Temp\ccYpJsWS.s 			page 8


 202              		.loc 1 198 0
 203 001a 034B     		ldr	r3, .L9+4
 204 001c 4FF40042 		mov	r2, #32768
 205 0020 1A60     		str	r2, [r3]
 199:Generated_Source\PSoC5/I2C.c **** }
 206              		.loc 1 199 0
 207 0022 80BD     		pop	{r7, pc}
 208              	.L10:
 209              		.align	2
 210              	.L9:
 211 0024 00000000 		.word	I2C_initVar
 212 0028 00E100E0 		.word	-536813312
 213              		.cfi_endproc
 214              	.LFE2:
 215              		.size	I2C_Start, .-I2C_Start
 216              		.section	.text.I2C_Stop,"ax",%progbits
 217              		.align	2
 218              		.global	I2C_Stop
 219              		.thumb
 220              		.thumb_func
 221              		.type	I2C_Stop, %function
 222              	I2C_Stop:
 223              	.LFB3:
 200:Generated_Source\PSoC5/I2C.c **** 
 201:Generated_Source\PSoC5/I2C.c **** 
 202:Generated_Source\PSoC5/I2C.c **** /*******************************************************************************
 203:Generated_Source\PSoC5/I2C.c **** * Function Name: I2C_Stop
 204:Generated_Source\PSoC5/I2C.c **** ********************************************************************************
 205:Generated_Source\PSoC5/I2C.c **** *
 206:Generated_Source\PSoC5/I2C.c **** * Summary:
 207:Generated_Source\PSoC5/I2C.c **** *  Disables I2C hardware and disables I2C interrupt. Disables Active mode power
 208:Generated_Source\PSoC5/I2C.c **** *  template bits or clock gating as appropriate.
 209:Generated_Source\PSoC5/I2C.c **** *
 210:Generated_Source\PSoC5/I2C.c **** * Parameters:
 211:Generated_Source\PSoC5/I2C.c **** *  None.
 212:Generated_Source\PSoC5/I2C.c **** *
 213:Generated_Source\PSoC5/I2C.c **** * Return:
 214:Generated_Source\PSoC5/I2C.c **** *  None.
 215:Generated_Source\PSoC5/I2C.c **** *
 216:Generated_Source\PSoC5/I2C.c **** *******************************************************************************/
 217:Generated_Source\PSoC5/I2C.c **** void I2C_Stop(void) 
 218:Generated_Source\PSoC5/I2C.c **** {
 224              		.loc 1 218 0
 225              		.cfi_startproc
 226              		@ args = 0, pretend = 0, frame = 8
 227              		@ frame_needed = 1, uses_anonymous_args = 0
 228 0000 80B5     		push	{r7, lr}
 229              		.cfi_def_cfa_offset 8
 230              		.cfi_offset 7, -8
 231              		.cfi_offset 14, -4
 232 0002 82B0     		sub	sp, sp, #8
 233              		.cfi_def_cfa_offset 16
 234 0004 00AF     		add	r7, sp, #0
 235              		.cfi_def_cfa_register 7
 219:Generated_Source\PSoC5/I2C.c ****     I2C_DisableInt();
 236              		.loc 1 219 0
 237 0006 374B     		ldr	r3, .L12
ARM GAS  C:\Users\KJA\AppData\Local\Temp\ccYpJsWS.s 			page 9


 238 0008 4FF40042 		mov	r2, #32768
 239 000c 1A60     		str	r2, [r3]
 240              	.LBB2:
 220:Generated_Source\PSoC5/I2C.c **** 
 221:Generated_Source\PSoC5/I2C.c **** #if (I2C_TIMEOUT_ENABLED)
 222:Generated_Source\PSoC5/I2C.c ****     I2C_TimeoutStop();
 223:Generated_Source\PSoC5/I2C.c **** #endif  /* End (I2C_TIMEOUT_ENABLED) */
 224:Generated_Source\PSoC5/I2C.c **** 
 225:Generated_Source\PSoC5/I2C.c **** #if (I2C_FF_IMPLEMENTED)
 226:Generated_Source\PSoC5/I2C.c ****     {
 227:Generated_Source\PSoC5/I2C.c ****         uint8 intState;
 228:Generated_Source\PSoC5/I2C.c ****         uint16 blockResetCycles;
 229:Generated_Source\PSoC5/I2C.c **** 
 230:Generated_Source\PSoC5/I2C.c ****         /* Store registers effected by block disable */
 231:Generated_Source\PSoC5/I2C.c ****         I2C_backup.addr    = I2C_ADDR_REG;
 241              		.loc 1 231 0
 242 000e 364B     		ldr	r3, .L12+4
 243 0010 1B78     		ldrb	r3, [r3]
 244 0012 DAB2     		uxtb	r2, r3
 245 0014 354B     		ldr	r3, .L12+8
 246 0016 DA70     		strb	r2, [r3, #3]
 232:Generated_Source\PSoC5/I2C.c ****         I2C_backup.clkDiv1 = I2C_CLKDIV1_REG;
 247              		.loc 1 232 0
 248 0018 354B     		ldr	r3, .L12+12
 249 001a 1B78     		ldrb	r3, [r3]
 250 001c DAB2     		uxtb	r2, r3
 251 001e 334B     		ldr	r3, .L12+8
 252 0020 1A71     		strb	r2, [r3, #4]
 233:Generated_Source\PSoC5/I2C.c ****         I2C_backup.clkDiv2 = I2C_CLKDIV2_REG;
 253              		.loc 1 233 0
 254 0022 344B     		ldr	r3, .L12+16
 255 0024 1B78     		ldrb	r3, [r3]
 256 0026 DAB2     		uxtb	r2, r3
 257 0028 304B     		ldr	r3, .L12+8
 258 002a 5A71     		strb	r2, [r3, #5]
 234:Generated_Source\PSoC5/I2C.c **** 
 235:Generated_Source\PSoC5/I2C.c ****         /* Calculate number of cycles to reset block */
 236:Generated_Source\PSoC5/I2C.c ****         blockResetCycles = ((uint16) ((uint16) I2C_CLKDIV2_REG << 8u) | I2C_CLKDIV1_REG) + 1u;
 259              		.loc 1 236 0
 260 002c 314B     		ldr	r3, .L12+16
 261 002e 1B78     		ldrb	r3, [r3]
 262 0030 DBB2     		uxtb	r3, r3
 263 0032 9BB2     		uxth	r3, r3
 264 0034 1B02     		lsls	r3, r3, #8
 265 0036 9AB2     		uxth	r2, r3
 266 0038 2D4B     		ldr	r3, .L12+12
 267 003a 1B78     		ldrb	r3, [r3]
 268 003c DBB2     		uxtb	r3, r3
 269 003e 9BB2     		uxth	r3, r3
 270 0040 1343     		orrs	r3, r3, r2
 271 0042 9BB2     		uxth	r3, r3
 272 0044 0133     		adds	r3, r3, #1
 273 0046 FB80     		strh	r3, [r7, #6]	@ movhi
 237:Generated_Source\PSoC5/I2C.c **** 
 238:Generated_Source\PSoC5/I2C.c ****         /* Disable block */
 239:Generated_Source\PSoC5/I2C.c ****         I2C_CFG_REG &= (uint8) ~I2C_CFG_EN_SLAVE;
 274              		.loc 1 239 0
ARM GAS  C:\Users\KJA\AppData\Local\Temp\ccYpJsWS.s 			page 10


 275 0048 2B4A     		ldr	r2, .L12+20
 276 004a 2B4B     		ldr	r3, .L12+20
 277 004c 1B78     		ldrb	r3, [r3]
 278 004e DBB2     		uxtb	r3, r3
 279 0050 23F00103 		bic	r3, r3, #1
 280 0054 DBB2     		uxtb	r3, r3
 281 0056 1370     		strb	r3, [r2]
 240:Generated_Source\PSoC5/I2C.c ****         /* Wait for block reset before disable power */
 241:Generated_Source\PSoC5/I2C.c ****         CyDelayCycles((uint32) blockResetCycles);
 282              		.loc 1 241 0
 283 0058 FB88     		ldrh	r3, [r7, #6]
 284 005a 1846     		mov	r0, r3
 285 005c FFF7FEFF 		bl	CyDelayCycles
 242:Generated_Source\PSoC5/I2C.c **** 
 243:Generated_Source\PSoC5/I2C.c ****         /* Disable power to block */
 244:Generated_Source\PSoC5/I2C.c ****         intState = CyEnterCriticalSection();
 286              		.loc 1 244 0
 287 0060 FFF7FEFF 		bl	CyEnterCriticalSection
 288 0064 0346     		mov	r3, r0
 289 0066 7B71     		strb	r3, [r7, #5]
 245:Generated_Source\PSoC5/I2C.c ****         I2C_ACT_PWRMGR_REG  &= (uint8) ~I2C_ACT_PWR_EN;
 290              		.loc 1 245 0
 291 0068 244A     		ldr	r2, .L12+24
 292 006a 244B     		ldr	r3, .L12+24
 293 006c 1B78     		ldrb	r3, [r3]
 294 006e DBB2     		uxtb	r3, r3
 295 0070 23F00403 		bic	r3, r3, #4
 296 0074 DBB2     		uxtb	r3, r3
 297 0076 1370     		strb	r3, [r2]
 246:Generated_Source\PSoC5/I2C.c ****         I2C_STBY_PWRMGR_REG &= (uint8) ~I2C_STBY_PWR_EN;
 298              		.loc 1 246 0
 299 0078 214A     		ldr	r2, .L12+28
 300 007a 214B     		ldr	r3, .L12+28
 301 007c 1B78     		ldrb	r3, [r3]
 302 007e DBB2     		uxtb	r3, r3
 303 0080 23F00403 		bic	r3, r3, #4
 304 0084 DBB2     		uxtb	r3, r3
 305 0086 1370     		strb	r3, [r2]
 247:Generated_Source\PSoC5/I2C.c ****         CyExitCriticalSection(intState);
 306              		.loc 1 247 0
 307 0088 7B79     		ldrb	r3, [r7, #5]	@ zero_extendqisi2
 308 008a 1846     		mov	r0, r3
 309 008c FFF7FEFF 		bl	CyExitCriticalSection
 248:Generated_Source\PSoC5/I2C.c **** 
 249:Generated_Source\PSoC5/I2C.c ****         /* Enable block */
 250:Generated_Source\PSoC5/I2C.c ****         I2C_CFG_REG |= (uint8) I2C_ENABLE_MS;
 310              		.loc 1 250 0
 311 0090 194A     		ldr	r2, .L12+20
 312 0092 194B     		ldr	r3, .L12+20
 313 0094 1B78     		ldrb	r3, [r3]
 314 0096 DBB2     		uxtb	r3, r3
 315 0098 43F00203 		orr	r3, r3, #2
 316 009c DBB2     		uxtb	r3, r3
 317 009e 1370     		strb	r3, [r2]
 251:Generated_Source\PSoC5/I2C.c **** 
 252:Generated_Source\PSoC5/I2C.c ****         /* Restore registers effected by block disable. Ticket ID#198004 */
 253:Generated_Source\PSoC5/I2C.c ****         I2C_ADDR_REG    = I2C_backup.addr;
ARM GAS  C:\Users\KJA\AppData\Local\Temp\ccYpJsWS.s 			page 11


 318              		.loc 1 253 0
 319 00a0 114B     		ldr	r3, .L12+4
 320 00a2 124A     		ldr	r2, .L12+8
 321 00a4 D278     		ldrb	r2, [r2, #3]	@ zero_extendqisi2
 322 00a6 1A70     		strb	r2, [r3]
 254:Generated_Source\PSoC5/I2C.c ****         I2C_ADDR_REG    = I2C_backup.addr;
 323              		.loc 1 254 0
 324 00a8 0F4B     		ldr	r3, .L12+4
 325 00aa 104A     		ldr	r2, .L12+8
 326 00ac D278     		ldrb	r2, [r2, #3]	@ zero_extendqisi2
 327 00ae 1A70     		strb	r2, [r3]
 255:Generated_Source\PSoC5/I2C.c ****         I2C_CLKDIV1_REG = I2C_backup.clkDiv1;
 328              		.loc 1 255 0
 329 00b0 0F4B     		ldr	r3, .L12+12
 330 00b2 0E4A     		ldr	r2, .L12+8
 331 00b4 1279     		ldrb	r2, [r2, #4]	@ zero_extendqisi2
 332 00b6 1A70     		strb	r2, [r3]
 256:Generated_Source\PSoC5/I2C.c ****         I2C_CLKDIV2_REG = I2C_backup.clkDiv2;
 333              		.loc 1 256 0
 334 00b8 0E4B     		ldr	r3, .L12+16
 335 00ba 0C4A     		ldr	r2, .L12+8
 336 00bc 5279     		ldrb	r2, [r2, #5]	@ zero_extendqisi2
 337 00be 1A70     		strb	r2, [r3]
 338              	.LBE2:
 257:Generated_Source\PSoC5/I2C.c ****     }
 258:Generated_Source\PSoC5/I2C.c **** #else
 259:Generated_Source\PSoC5/I2C.c **** 
 260:Generated_Source\PSoC5/I2C.c ****     /* Disable slave or master bits */
 261:Generated_Source\PSoC5/I2C.c ****     I2C_CFG_REG &= (uint8) ~I2C_ENABLE_MS;
 262:Generated_Source\PSoC5/I2C.c **** 
 263:Generated_Source\PSoC5/I2C.c **** #if (I2C_MODE_SLAVE_ENABLED)
 264:Generated_Source\PSoC5/I2C.c ****     {
 265:Generated_Source\PSoC5/I2C.c ****         /* Disable bit counter */
 266:Generated_Source\PSoC5/I2C.c ****         uint8 intState = CyEnterCriticalSection();
 267:Generated_Source\PSoC5/I2C.c ****         I2C_COUNTER_AUX_CTL_REG &= (uint8) ~I2C_CNT7_ENABLE;
 268:Generated_Source\PSoC5/I2C.c ****         CyExitCriticalSection(intState);
 269:Generated_Source\PSoC5/I2C.c ****     }
 270:Generated_Source\PSoC5/I2C.c **** #endif /* (I2C_MODE_SLAVE_ENABLED) */
 271:Generated_Source\PSoC5/I2C.c **** 
 272:Generated_Source\PSoC5/I2C.c ****     /* Clear interrupt source register */
 273:Generated_Source\PSoC5/I2C.c ****     (void) I2C_CSR_REG;
 274:Generated_Source\PSoC5/I2C.c **** #endif /* (I2C_FF_IMPLEMENTED) */
 275:Generated_Source\PSoC5/I2C.c **** 
 276:Generated_Source\PSoC5/I2C.c ****     /* Disable interrupt on stop (enabled by write transaction) */
 277:Generated_Source\PSoC5/I2C.c ****     I2C_DISABLE_INT_ON_STOP;
 339              		.loc 1 277 0
 340 00c0 0D4A     		ldr	r2, .L12+20
 341 00c2 0D4B     		ldr	r3, .L12+20
 342 00c4 1B78     		ldrb	r3, [r3]
 343 00c6 DBB2     		uxtb	r3, r3
 344 00c8 23F01003 		bic	r3, r3, #16
 345 00cc DBB2     		uxtb	r3, r3
 346 00ce 1370     		strb	r3, [r2]
 278:Generated_Source\PSoC5/I2C.c ****     I2C_ClearPendingInt();
 347              		.loc 1 278 0
 348 00d0 0C4B     		ldr	r3, .L12+32
 349 00d2 4FF40042 		mov	r2, #32768
ARM GAS  C:\Users\KJA\AppData\Local\Temp\ccYpJsWS.s 			page 12


 350 00d6 1A60     		str	r2, [r3]
 279:Generated_Source\PSoC5/I2C.c **** 
 280:Generated_Source\PSoC5/I2C.c ****     /* Reset FSM to default state */
 281:Generated_Source\PSoC5/I2C.c ****     I2C_state = I2C_SM_IDLE;
 351              		.loc 1 281 0
 352 00d8 0B4B     		ldr	r3, .L12+36
 353 00da 1022     		movs	r2, #16
 354 00dc 1A70     		strb	r2, [r3]
 282:Generated_Source\PSoC5/I2C.c **** 
 283:Generated_Source\PSoC5/I2C.c ****     /* Clear busy statuses */
 284:Generated_Source\PSoC5/I2C.c **** #if (I2C_MODE_SLAVE_ENABLED)
 285:Generated_Source\PSoC5/I2C.c ****     I2C_slStatus &= (uint8) ~(I2C_SSTAT_RD_BUSY | I2C_SSTAT_WR_BUSY);
 286:Generated_Source\PSoC5/I2C.c **** #endif /* (I2C_MODE_SLAVE_ENABLED) */
 287:Generated_Source\PSoC5/I2C.c **** }
 355              		.loc 1 287 0
 356 00de 0837     		adds	r7, r7, #8
 357              		.cfi_def_cfa_offset 8
 358 00e0 BD46     		mov	sp, r7
 359              		.cfi_def_cfa_register 13
 360              		@ sp needed
 361 00e2 80BD     		pop	{r7, pc}
 362              	.L13:
 363              		.align	2
 364              	.L12:
 365 00e4 80E100E0 		.word	-536813184
 366 00e8 CA490040 		.word	1073760714
 367 00ec 00000000 		.word	I2C_backup
 368 00f0 DB490040 		.word	1073760731
 369 00f4 DC490040 		.word	1073760732
 370 00f8 D6490040 		.word	1073760726
 371 00fc A5430040 		.word	1073759141
 372 0100 B5430040 		.word	1073759157
 373 0104 80E200E0 		.word	-536812928
 374 0108 00000000 		.word	I2C_state
 375              		.cfi_endproc
 376              	.LFE3:
 377              		.size	I2C_Stop, .-I2C_Stop
 378              		.text
 379              	.Letext0:
 380              		.file 2 "Generated_Source\\PSoC5\\cytypes.h"
 381              		.file 3 "Generated_Source\\PSoC5\\I2C.h"
 382              		.file 4 "Generated_Source\\PSoC5\\I2C_PVT.h"