ARM GAS  C:\Users\Shiguruy\AppData\Local\Temp\ccMw3Upc.s 			page 1


   1              		.syntax unified
   2              		.cpu cortex-m3
   3              		.fpu softvfp
   4              		.eabi_attribute 20, 1
   5              		.eabi_attribute 21, 1
   6              		.eabi_attribute 23, 3
   7              		.eabi_attribute 24, 1
   8              		.eabi_attribute 25, 1
   9              		.eabi_attribute 26, 1
  10              		.eabi_attribute 30, 6
  11              		.eabi_attribute 34, 1
  12              		.eabi_attribute 18, 4
  13              		.thumb
  14              		.file	"I2C_1_INT.c"
  15              		.text
  16              	.Ltext0:
  17              		.cfi_sections	.debug_frame
  18              		.section	.text.I2C_1_ISR,"ax",%progbits
  19              		.align	2
  20              		.global	I2C_1_ISR
  21              		.thumb
  22              		.thumb_func
  23              		.type	I2C_1_ISR, %function
  24              	I2C_1_ISR:
  25              	.LFB0:
  26              		.file 1 ".\\Generated_Source\\PSoC5\\I2C_1_INT.c"
   1:.\Generated_Source\PSoC5/I2C_1_INT.c **** /*******************************************************************************
   2:.\Generated_Source\PSoC5/I2C_1_INT.c **** * File Name: I2C_1_INT.c
   3:.\Generated_Source\PSoC5/I2C_1_INT.c **** * Version 3.50
   4:.\Generated_Source\PSoC5/I2C_1_INT.c **** *
   5:.\Generated_Source\PSoC5/I2C_1_INT.c **** * Description:
   6:.\Generated_Source\PSoC5/I2C_1_INT.c **** *  This file provides the source code of Interrupt Service Routine (ISR)
   7:.\Generated_Source\PSoC5/I2C_1_INT.c **** *  for the I2C component.
   8:.\Generated_Source\PSoC5/I2C_1_INT.c **** *
   9:.\Generated_Source\PSoC5/I2C_1_INT.c **** ********************************************************************************
  10:.\Generated_Source\PSoC5/I2C_1_INT.c **** * Copyright 2008-2015, Cypress Semiconductor Corporation. All rights reserved.
  11:.\Generated_Source\PSoC5/I2C_1_INT.c **** * You may use this file only in accordance with the license, terms, conditions,
  12:.\Generated_Source\PSoC5/I2C_1_INT.c **** * disclaimers, and limitations in the end user license agreement accompanying
  13:.\Generated_Source\PSoC5/I2C_1_INT.c **** * the software package with which this file was provided.
  14:.\Generated_Source\PSoC5/I2C_1_INT.c **** *******************************************************************************/
  15:.\Generated_Source\PSoC5/I2C_1_INT.c **** 
  16:.\Generated_Source\PSoC5/I2C_1_INT.c **** #include "I2C_1_PVT.h"
  17:.\Generated_Source\PSoC5/I2C_1_INT.c **** #include "cyapicallbacks.h"
  18:.\Generated_Source\PSoC5/I2C_1_INT.c **** 
  19:.\Generated_Source\PSoC5/I2C_1_INT.c **** 
  20:.\Generated_Source\PSoC5/I2C_1_INT.c **** /*******************************************************************************
  21:.\Generated_Source\PSoC5/I2C_1_INT.c **** *  Place your includes, defines and code here.
  22:.\Generated_Source\PSoC5/I2C_1_INT.c **** ********************************************************************************/
  23:.\Generated_Source\PSoC5/I2C_1_INT.c **** /* `#START I2C_1_ISR_intc` */
  24:.\Generated_Source\PSoC5/I2C_1_INT.c **** 
  25:.\Generated_Source\PSoC5/I2C_1_INT.c **** /* `#END` */
  26:.\Generated_Source\PSoC5/I2C_1_INT.c **** 
  27:.\Generated_Source\PSoC5/I2C_1_INT.c **** 
  28:.\Generated_Source\PSoC5/I2C_1_INT.c **** /*******************************************************************************
  29:.\Generated_Source\PSoC5/I2C_1_INT.c **** * Function Name: I2C_1_ISR
  30:.\Generated_Source\PSoC5/I2C_1_INT.c **** ********************************************************************************
  31:.\Generated_Source\PSoC5/I2C_1_INT.c **** *
ARM GAS  C:\Users\Shiguruy\AppData\Local\Temp\ccMw3Upc.s 			page 2


  32:.\Generated_Source\PSoC5/I2C_1_INT.c **** * Summary:
  33:.\Generated_Source\PSoC5/I2C_1_INT.c **** *  The handler for the I2C interrupt. The slave and master operations are
  34:.\Generated_Source\PSoC5/I2C_1_INT.c **** *  handled here.
  35:.\Generated_Source\PSoC5/I2C_1_INT.c **** *
  36:.\Generated_Source\PSoC5/I2C_1_INT.c **** * Parameters:
  37:.\Generated_Source\PSoC5/I2C_1_INT.c **** *  None.
  38:.\Generated_Source\PSoC5/I2C_1_INT.c **** *
  39:.\Generated_Source\PSoC5/I2C_1_INT.c **** * Return:
  40:.\Generated_Source\PSoC5/I2C_1_INT.c **** *  None.
  41:.\Generated_Source\PSoC5/I2C_1_INT.c **** *
  42:.\Generated_Source\PSoC5/I2C_1_INT.c **** * Reentrant:
  43:.\Generated_Source\PSoC5/I2C_1_INT.c **** *  No.
  44:.\Generated_Source\PSoC5/I2C_1_INT.c **** *
  45:.\Generated_Source\PSoC5/I2C_1_INT.c **** *******************************************************************************/
  46:.\Generated_Source\PSoC5/I2C_1_INT.c **** CY_ISR(I2C_1_ISR)
  47:.\Generated_Source\PSoC5/I2C_1_INT.c **** {
  27              		.loc 1 47 0
  28              		.cfi_startproc
  29              		@ args = 0, pretend = 0, frame = 8
  30              		@ frame_needed = 1, uses_anonymous_args = 0
  31 0000 80B5     		push	{r7, lr}
  32              		.cfi_def_cfa_offset 8
  33              		.cfi_offset 7, -8
  34              		.cfi_offset 14, -4
  35 0002 82B0     		sub	sp, sp, #8
  36              		.cfi_def_cfa_offset 16
  37 0004 00AF     		add	r7, sp, #0
  38              		.cfi_def_cfa_register 7
  48:.\Generated_Source\PSoC5/I2C_1_INT.c **** #if (I2C_1_MODE_SLAVE_ENABLED)
  49:.\Generated_Source\PSoC5/I2C_1_INT.c ****    uint8  tmp8;
  50:.\Generated_Source\PSoC5/I2C_1_INT.c **** #endif  /* (I2C_1_MODE_SLAVE_ENABLED) */
  51:.\Generated_Source\PSoC5/I2C_1_INT.c **** 
  52:.\Generated_Source\PSoC5/I2C_1_INT.c ****     uint8  tmpCsr;
  53:.\Generated_Source\PSoC5/I2C_1_INT.c ****     
  54:.\Generated_Source\PSoC5/I2C_1_INT.c **** #ifdef I2C_1_ISR_ENTRY_CALLBACK
  55:.\Generated_Source\PSoC5/I2C_1_INT.c ****     I2C_1_ISR_EntryCallback();
  56:.\Generated_Source\PSoC5/I2C_1_INT.c **** #endif /* I2C_1_ISR_ENTRY_CALLBACK */
  57:.\Generated_Source\PSoC5/I2C_1_INT.c ****     
  58:.\Generated_Source\PSoC5/I2C_1_INT.c **** 
  59:.\Generated_Source\PSoC5/I2C_1_INT.c **** #if(I2C_1_TIMEOUT_FF_ENABLED)
  60:.\Generated_Source\PSoC5/I2C_1_INT.c ****     if(0u != I2C_1_TimeoutGetStatus())
  61:.\Generated_Source\PSoC5/I2C_1_INT.c ****     {
  62:.\Generated_Source\PSoC5/I2C_1_INT.c ****         I2C_1_TimeoutReset();
  63:.\Generated_Source\PSoC5/I2C_1_INT.c ****         I2C_1_state = I2C_1_SM_EXIT_IDLE;
  64:.\Generated_Source\PSoC5/I2C_1_INT.c ****         /* I2C_1_CSR_REG should be cleared after reset */
  65:.\Generated_Source\PSoC5/I2C_1_INT.c ****     }
  66:.\Generated_Source\PSoC5/I2C_1_INT.c **** #endif /* (I2C_1_TIMEOUT_FF_ENABLED) */
  67:.\Generated_Source\PSoC5/I2C_1_INT.c **** 
  68:.\Generated_Source\PSoC5/I2C_1_INT.c **** 
  69:.\Generated_Source\PSoC5/I2C_1_INT.c ****     tmpCsr = I2C_1_CSR_REG;      /* Make copy as interrupts clear */
  39              		.loc 1 69 0
  40 0006 A84B     		ldr	r3, .L34
  41 0008 1B78     		ldrb	r3, [r3]
  42 000a FB71     		strb	r3, [r7, #7]
  70:.\Generated_Source\PSoC5/I2C_1_INT.c **** 
  71:.\Generated_Source\PSoC5/I2C_1_INT.c **** #if(I2C_1_MODE_MULTI_MASTER_SLAVE_ENABLED)
  72:.\Generated_Source\PSoC5/I2C_1_INT.c ****     if(I2C_1_CHECK_START_GEN(I2C_1_MCSR_REG))
ARM GAS  C:\Users\Shiguruy\AppData\Local\Temp\ccMw3Upc.s 			page 3


  73:.\Generated_Source\PSoC5/I2C_1_INT.c ****     {
  74:.\Generated_Source\PSoC5/I2C_1_INT.c ****         I2C_1_CLEAR_START_GEN;
  75:.\Generated_Source\PSoC5/I2C_1_INT.c **** 
  76:.\Generated_Source\PSoC5/I2C_1_INT.c ****         /* Set transfer complete and error flags */
  77:.\Generated_Source\PSoC5/I2C_1_INT.c ****         I2C_1_mstrStatus |= (I2C_1_MSTAT_ERR_XFER |
  78:.\Generated_Source\PSoC5/I2C_1_INT.c ****                                         I2C_1_GET_MSTAT_CMPLT);
  79:.\Generated_Source\PSoC5/I2C_1_INT.c **** 
  80:.\Generated_Source\PSoC5/I2C_1_INT.c ****         /* Slave was addressed */
  81:.\Generated_Source\PSoC5/I2C_1_INT.c ****         I2C_1_state = I2C_1_SM_SLAVE;
  82:.\Generated_Source\PSoC5/I2C_1_INT.c ****     }
  83:.\Generated_Source\PSoC5/I2C_1_INT.c **** #endif /* (I2C_1_MODE_MULTI_MASTER_SLAVE_ENABLED) */
  84:.\Generated_Source\PSoC5/I2C_1_INT.c **** 
  85:.\Generated_Source\PSoC5/I2C_1_INT.c **** 
  86:.\Generated_Source\PSoC5/I2C_1_INT.c **** #if(I2C_1_MODE_MULTI_MASTER_ENABLED)
  87:.\Generated_Source\PSoC5/I2C_1_INT.c ****     if(I2C_1_CHECK_LOST_ARB(tmpCsr))
  88:.\Generated_Source\PSoC5/I2C_1_INT.c ****     {
  89:.\Generated_Source\PSoC5/I2C_1_INT.c ****         /* Set errors */
  90:.\Generated_Source\PSoC5/I2C_1_INT.c ****         I2C_1_mstrStatus |= (I2C_1_MSTAT_ERR_XFER     |
  91:.\Generated_Source\PSoC5/I2C_1_INT.c ****                                         I2C_1_MSTAT_ERR_ARB_LOST |
  92:.\Generated_Source\PSoC5/I2C_1_INT.c ****                                         I2C_1_GET_MSTAT_CMPLT);
  93:.\Generated_Source\PSoC5/I2C_1_INT.c **** 
  94:.\Generated_Source\PSoC5/I2C_1_INT.c ****         I2C_1_DISABLE_INT_ON_STOP; /* Interrupt on Stop is enabled by write */
  95:.\Generated_Source\PSoC5/I2C_1_INT.c **** 
  96:.\Generated_Source\PSoC5/I2C_1_INT.c ****         #if(I2C_1_MODE_MULTI_MASTER_SLAVE_ENABLED)
  97:.\Generated_Source\PSoC5/I2C_1_INT.c ****             if(I2C_1_CHECK_ADDRESS_STS(tmpCsr))
  98:.\Generated_Source\PSoC5/I2C_1_INT.c ****             {
  99:.\Generated_Source\PSoC5/I2C_1_INT.c ****                 /* Slave was addressed */
 100:.\Generated_Source\PSoC5/I2C_1_INT.c ****                 I2C_1_state = I2C_1_SM_SLAVE;
 101:.\Generated_Source\PSoC5/I2C_1_INT.c ****             }
 102:.\Generated_Source\PSoC5/I2C_1_INT.c ****             else
 103:.\Generated_Source\PSoC5/I2C_1_INT.c ****             {
 104:.\Generated_Source\PSoC5/I2C_1_INT.c ****                 I2C_1_BUS_RELEASE;
 105:.\Generated_Source\PSoC5/I2C_1_INT.c **** 
 106:.\Generated_Source\PSoC5/I2C_1_INT.c ****                 I2C_1_state = I2C_1_SM_EXIT_IDLE;
 107:.\Generated_Source\PSoC5/I2C_1_INT.c ****             }
 108:.\Generated_Source\PSoC5/I2C_1_INT.c ****         #else
 109:.\Generated_Source\PSoC5/I2C_1_INT.c ****             I2C_1_BUS_RELEASE;
 110:.\Generated_Source\PSoC5/I2C_1_INT.c **** 
 111:.\Generated_Source\PSoC5/I2C_1_INT.c ****             I2C_1_state = I2C_1_SM_EXIT_IDLE;
 112:.\Generated_Source\PSoC5/I2C_1_INT.c **** 
 113:.\Generated_Source\PSoC5/I2C_1_INT.c ****         #endif /* (I2C_1_MODE_MULTI_MASTER_SLAVE_ENABLED) */
 114:.\Generated_Source\PSoC5/I2C_1_INT.c ****     }
 115:.\Generated_Source\PSoC5/I2C_1_INT.c **** #endif /* (I2C_1_MODE_MULTI_MASTER_ENABLED) */
 116:.\Generated_Source\PSoC5/I2C_1_INT.c **** 
 117:.\Generated_Source\PSoC5/I2C_1_INT.c ****     /* Check for master operation mode */
 118:.\Generated_Source\PSoC5/I2C_1_INT.c ****     if(I2C_1_CHECK_SM_MASTER)
  43              		.loc 1 118 0
  44 000c A74B     		ldr	r3, .L34+4
  45 000e 1B78     		ldrb	r3, [r3]
  46 0010 DBB2     		uxtb	r3, r3
  47 0012 03F04003 		and	r3, r3, #64
  48 0016 DBB2     		uxtb	r3, r3
  49 0018 002B     		cmp	r3, #0
  50 001a 00F0AC81 		beq	.L2
 119:.\Generated_Source\PSoC5/I2C_1_INT.c ****     {
 120:.\Generated_Source\PSoC5/I2C_1_INT.c ****     #if(I2C_1_MODE_MASTER_ENABLED)
 121:.\Generated_Source\PSoC5/I2C_1_INT.c ****         if(I2C_1_CHECK_BYTE_COMPLETE(tmpCsr))
ARM GAS  C:\Users\Shiguruy\AppData\Local\Temp\ccMw3Upc.s 			page 4


  51              		.loc 1 121 0
  52 001e FB79     		ldrb	r3, [r7, #7]	@ zero_extendqisi2
  53 0020 03F00103 		and	r3, r3, #1
  54 0024 002B     		cmp	r3, #0
  55 0026 00F08381 		beq	.L3
 122:.\Generated_Source\PSoC5/I2C_1_INT.c ****         {
 123:.\Generated_Source\PSoC5/I2C_1_INT.c ****             switch (I2C_1_state)
  56              		.loc 1 123 0
  57 002a A04B     		ldr	r3, .L34+4
  58 002c 1B78     		ldrb	r3, [r3]
  59 002e DBB2     		uxtb	r3, r3
  60 0030 453B     		subs	r3, r3, #69
  61 0032 052B     		cmp	r3, #5
  62 0034 00F27881 		bhi	.L4
  63 0038 01A2     		adr	r2, .L6
  64 003a 52F823F0 		ldr	pc, [r2, r3, lsl #2]
  65 003e 00BF     		.p2align 2
  66              	.L6:
  67 0040 59000000 		.word	.L5+1
  68 0044 81010000 		.word	.L7+1
  69 0048 29030000 		.word	.L4+1
  70 004c 29030000 		.word	.L4+1
  71 0050 59000000 		.word	.L5+1
  72 0054 6F020000 		.word	.L8+1
  73              		.p2align 1
  74              	.L5:
 124:.\Generated_Source\PSoC5/I2C_1_INT.c ****             {
 125:.\Generated_Source\PSoC5/I2C_1_INT.c ****             case I2C_1_SM_MSTR_WR_ADDR:  /* After address is sent, write data */
 126:.\Generated_Source\PSoC5/I2C_1_INT.c ****             case I2C_1_SM_MSTR_RD_ADDR:  /* After address is sent, read data */
 127:.\Generated_Source\PSoC5/I2C_1_INT.c **** 
 128:.\Generated_Source\PSoC5/I2C_1_INT.c ****                 tmpCsr &= ((uint8) ~I2C_1_CSR_STOP_STATUS); /* Clear Stop bit history on address ph
  75              		.loc 1 128 0
  76 0058 FB79     		ldrb	r3, [r7, #7]
  77 005a 23F02003 		bic	r3, r3, #32
  78 005e FB71     		strb	r3, [r7, #7]
 129:.\Generated_Source\PSoC5/I2C_1_INT.c **** 
 130:.\Generated_Source\PSoC5/I2C_1_INT.c ****                 if(I2C_1_CHECK_ADDR_ACK(tmpCsr))
  79              		.loc 1 130 0
  80 0060 FB79     		ldrb	r3, [r7, #7]
  81 0062 03F00A03 		and	r3, r3, #10
  82 0066 DBB2     		uxtb	r3, r3
  83 0068 082B     		cmp	r3, #8
  84 006a 46D1     		bne	.L9
 131:.\Generated_Source\PSoC5/I2C_1_INT.c ****                 {
 132:.\Generated_Source\PSoC5/I2C_1_INT.c ****                     /* Setup for transmit or receive of data */
 133:.\Generated_Source\PSoC5/I2C_1_INT.c ****                     if(I2C_1_state == I2C_1_SM_MSTR_WR_ADDR)   /* TRANSMIT data */
  85              		.loc 1 133 0
  86 006c 8F4B     		ldr	r3, .L34+4
  87 006e 1B78     		ldrb	r3, [r3]
  88 0070 DBB2     		uxtb	r3, r3
  89 0072 452B     		cmp	r3, #69
  90 0074 3AD1     		bne	.L10
 134:.\Generated_Source\PSoC5/I2C_1_INT.c ****                     {
 135:.\Generated_Source\PSoC5/I2C_1_INT.c ****                         /* Check if at least one byte to transfer */
 136:.\Generated_Source\PSoC5/I2C_1_INT.c ****                         if(I2C_1_mstrWrBufSize > 0u)
  91              		.loc 1 136 0
  92 0076 8E4B     		ldr	r3, .L34+8
ARM GAS  C:\Users\Shiguruy\AppData\Local\Temp\ccMw3Upc.s 			page 5


  93 0078 1B78     		ldrb	r3, [r3]
  94 007a DBB2     		uxtb	r3, r3
  95 007c 002B     		cmp	r3, #0
  96 007e 0FD0     		beq	.L11
 137:.\Generated_Source\PSoC5/I2C_1_INT.c ****                         {
 138:.\Generated_Source\PSoC5/I2C_1_INT.c ****                             /* Load the 1st data byte */
 139:.\Generated_Source\PSoC5/I2C_1_INT.c ****                             I2C_1_DATA_REG = I2C_1_mstrWrBufPtr[0u];
  97              		.loc 1 139 0
  98 0080 8C4A     		ldr	r2, .L34+12
  99 0082 8D4B     		ldr	r3, .L34+16
 100 0084 1B68     		ldr	r3, [r3]
 101 0086 1B78     		ldrb	r3, [r3]
 102 0088 DBB2     		uxtb	r3, r3
 103 008a 1370     		strb	r3, [r2]
 140:.\Generated_Source\PSoC5/I2C_1_INT.c ****                             I2C_1_TRANSMIT_DATA;
 104              		.loc 1 140 0
 105 008c 864B     		ldr	r3, .L34
 106 008e 0422     		movs	r2, #4
 107 0090 1A70     		strb	r2, [r3]
 141:.\Generated_Source\PSoC5/I2C_1_INT.c ****                             I2C_1_mstrWrBufIndex = 1u;   /* Set index to 2nd element */
 108              		.loc 1 141 0
 109 0092 8A4B     		ldr	r3, .L34+20
 110 0094 0122     		movs	r2, #1
 111 0096 1A70     		strb	r2, [r3]
 142:.\Generated_Source\PSoC5/I2C_1_INT.c **** 
 143:.\Generated_Source\PSoC5/I2C_1_INT.c ****                             /* Set transmit state until done */
 144:.\Generated_Source\PSoC5/I2C_1_INT.c ****                             I2C_1_state = I2C_1_SM_MSTR_WR_DATA;
 112              		.loc 1 144 0
 113 0098 844B     		ldr	r3, .L34+4
 114 009a 4622     		movs	r2, #70
 115 009c 1A70     		strb	r2, [r3]
 116 009e 6EE0     		b	.L15
 117              	.L11:
 145:.\Generated_Source\PSoC5/I2C_1_INT.c ****                         }
 146:.\Generated_Source\PSoC5/I2C_1_INT.c ****                         /* End of buffer: complete writing */
 147:.\Generated_Source\PSoC5/I2C_1_INT.c ****                         else if(I2C_1_CHECK_NO_STOP(I2C_1_mstrControl))
 118              		.loc 1 147 0
 119 00a0 874B     		ldr	r3, .L34+24
 120 00a2 1B78     		ldrb	r3, [r3]
 121 00a4 DBB2     		uxtb	r3, r3
 122 00a6 03F00203 		and	r3, r3, #2
 123 00aa 002B     		cmp	r3, #0
 124 00ac 0FD0     		beq	.L13
 148:.\Generated_Source\PSoC5/I2C_1_INT.c ****                         {
 149:.\Generated_Source\PSoC5/I2C_1_INT.c ****                             /* Set write complete and master halted */
 150:.\Generated_Source\PSoC5/I2C_1_INT.c ****                             I2C_1_mstrStatus |= (I2C_1_MSTAT_XFER_HALT |
 125              		.loc 1 150 0
 126 00ae 854B     		ldr	r3, .L34+28
 127 00b0 1B78     		ldrb	r3, [r3]
 128 00b2 DBB2     		uxtb	r3, r3
 129 00b4 43F00A03 		orr	r3, r3, #10
 130 00b8 DAB2     		uxtb	r2, r3
 131 00ba 824B     		ldr	r3, .L34+28
 132 00bc 1A70     		strb	r2, [r3]
 151:.\Generated_Source\PSoC5/I2C_1_INT.c ****                                                             I2C_1_MSTAT_WR_CMPLT);
 152:.\Generated_Source\PSoC5/I2C_1_INT.c **** 
 153:.\Generated_Source\PSoC5/I2C_1_INT.c ****                             I2C_1_state = I2C_1_SM_MSTR_HALT; /* Expect ReStart */
ARM GAS  C:\Users\Shiguruy\AppData\Local\Temp\ccMw3Upc.s 			page 6


 133              		.loc 1 153 0
 134 00be 7B4B     		ldr	r3, .L34+4
 135 00c0 6022     		movs	r2, #96
 136 00c2 1A70     		strb	r2, [r3]
 154:.\Generated_Source\PSoC5/I2C_1_INT.c ****                             I2C_1_DisableInt();
 137              		.loc 1 154 0
 138 00c4 804B     		ldr	r3, .L34+32
 139 00c6 4FF40042 		mov	r2, #32768
 140 00ca 1A60     		str	r2, [r3]
 141 00cc 57E0     		b	.L15
 142              	.L13:
 155:.\Generated_Source\PSoC5/I2C_1_INT.c ****                         }
 156:.\Generated_Source\PSoC5/I2C_1_INT.c ****                         else
 157:.\Generated_Source\PSoC5/I2C_1_INT.c ****                         {
 158:.\Generated_Source\PSoC5/I2C_1_INT.c ****                             I2C_1_ENABLE_INT_ON_STOP; /* Enable interrupt on Stop, to catch it */
 143              		.loc 1 158 0
 144 00ce 7F4A     		ldr	r2, .L34+36
 145 00d0 7E4B     		ldr	r3, .L34+36
 146 00d2 1B78     		ldrb	r3, [r3]
 147 00d4 DBB2     		uxtb	r3, r3
 148 00d6 43F01003 		orr	r3, r3, #16
 149 00da DBB2     		uxtb	r3, r3
 150 00dc 1370     		strb	r3, [r2]
 159:.\Generated_Source\PSoC5/I2C_1_INT.c ****                             I2C_1_GENERATE_STOP;
 151              		.loc 1 159 0
 152 00de 7C4B     		ldr	r3, .L34+40
 153 00e0 1022     		movs	r2, #16
 154 00e2 1A70     		strb	r2, [r3]
 155 00e4 704B     		ldr	r3, .L34
 156 00e6 0422     		movs	r2, #4
 157 00e8 1A70     		strb	r2, [r3]
 158 00ea 48E0     		b	.L15
 159              	.L10:
 160:.\Generated_Source\PSoC5/I2C_1_INT.c ****                         }
 161:.\Generated_Source\PSoC5/I2C_1_INT.c ****                     }
 162:.\Generated_Source\PSoC5/I2C_1_INT.c ****                     else  /* Master receive data */
 163:.\Generated_Source\PSoC5/I2C_1_INT.c ****                     {
 164:.\Generated_Source\PSoC5/I2C_1_INT.c ****                         I2C_1_READY_TO_READ; /* Release bus to read data */
 160              		.loc 1 164 0
 161 00ec 6E4B     		ldr	r3, .L34
 162 00ee 0022     		movs	r2, #0
 163 00f0 1A70     		strb	r2, [r3]
 165:.\Generated_Source\PSoC5/I2C_1_INT.c **** 
 166:.\Generated_Source\PSoC5/I2C_1_INT.c ****                         I2C_1_state  = I2C_1_SM_MSTR_RD_DATA;
 164              		.loc 1 166 0
 165 00f2 6E4B     		ldr	r3, .L34+4
 166 00f4 4A22     		movs	r2, #74
 167 00f6 1A70     		strb	r2, [r3]
 167:.\Generated_Source\PSoC5/I2C_1_INT.c ****                     }
 168:.\Generated_Source\PSoC5/I2C_1_INT.c ****                 }
 169:.\Generated_Source\PSoC5/I2C_1_INT.c ****                 /* Address is NACKed */
 170:.\Generated_Source\PSoC5/I2C_1_INT.c ****                 else if(I2C_1_CHECK_ADDR_NAK(tmpCsr))
 171:.\Generated_Source\PSoC5/I2C_1_INT.c ****                 {
 172:.\Generated_Source\PSoC5/I2C_1_INT.c ****                     /* Set Address NAK error */
 173:.\Generated_Source\PSoC5/I2C_1_INT.c ****                     I2C_1_mstrStatus |= (I2C_1_MSTAT_ERR_XFER |
 174:.\Generated_Source\PSoC5/I2C_1_INT.c ****                                                     I2C_1_MSTAT_ERR_ADDR_NAK);
 175:.\Generated_Source\PSoC5/I2C_1_INT.c **** 
ARM GAS  C:\Users\Shiguruy\AppData\Local\Temp\ccMw3Upc.s 			page 7


 176:.\Generated_Source\PSoC5/I2C_1_INT.c ****                     if(I2C_1_CHECK_NO_STOP(I2C_1_mstrControl))
 177:.\Generated_Source\PSoC5/I2C_1_INT.c ****                     {
 178:.\Generated_Source\PSoC5/I2C_1_INT.c ****                         I2C_1_mstrStatus |= (I2C_1_MSTAT_XFER_HALT |
 179:.\Generated_Source\PSoC5/I2C_1_INT.c ****                                                         I2C_1_GET_MSTAT_CMPLT);
 180:.\Generated_Source\PSoC5/I2C_1_INT.c **** 
 181:.\Generated_Source\PSoC5/I2C_1_INT.c ****                         I2C_1_state = I2C_1_SM_MSTR_HALT; /* Expect RESTART */
 182:.\Generated_Source\PSoC5/I2C_1_INT.c ****                         I2C_1_DisableInt();
 183:.\Generated_Source\PSoC5/I2C_1_INT.c ****                     }
 184:.\Generated_Source\PSoC5/I2C_1_INT.c ****                     else  /* Do normal Stop */
 185:.\Generated_Source\PSoC5/I2C_1_INT.c ****                     {
 186:.\Generated_Source\PSoC5/I2C_1_INT.c ****                         I2C_1_ENABLE_INT_ON_STOP; /* Enable interrupt on Stop, to catch it */
 187:.\Generated_Source\PSoC5/I2C_1_INT.c ****                         I2C_1_GENERATE_STOP;
 188:.\Generated_Source\PSoC5/I2C_1_INT.c ****                     }
 189:.\Generated_Source\PSoC5/I2C_1_INT.c ****                 }
 190:.\Generated_Source\PSoC5/I2C_1_INT.c ****                 else
 191:.\Generated_Source\PSoC5/I2C_1_INT.c ****                 {
 192:.\Generated_Source\PSoC5/I2C_1_INT.c ****                     /* Address phase is not set for some reason: error */
 193:.\Generated_Source\PSoC5/I2C_1_INT.c ****                     #if(I2C_1_TIMEOUT_ENABLED)
 194:.\Generated_Source\PSoC5/I2C_1_INT.c ****                         /* Exit interrupt to take chance for timeout timer to handle this case */
 195:.\Generated_Source\PSoC5/I2C_1_INT.c ****                         I2C_1_DisableInt();
 196:.\Generated_Source\PSoC5/I2C_1_INT.c ****                         I2C_1_ClearPendingInt();
 197:.\Generated_Source\PSoC5/I2C_1_INT.c ****                     #else
 198:.\Generated_Source\PSoC5/I2C_1_INT.c ****                         /* Block execution flow: unexpected condition */
 199:.\Generated_Source\PSoC5/I2C_1_INT.c ****                         CYASSERT(0u != 0u);
 200:.\Generated_Source\PSoC5/I2C_1_INT.c ****                     #endif /* (I2C_1_TIMEOUT_ENABLED) */
 201:.\Generated_Source\PSoC5/I2C_1_INT.c ****                 }
 202:.\Generated_Source\PSoC5/I2C_1_INT.c ****                 break;
 168              		.loc 1 202 0
 169 00f8 1AE1     		b	.L3
 170              	.L9:
 170:.\Generated_Source\PSoC5/I2C_1_INT.c ****                 {
 171              		.loc 1 170 0
 172 00fa FB79     		ldrb	r3, [r7, #7]
 173 00fc 03F00A03 		and	r3, r3, #10
 174 0100 DBB2     		uxtb	r3, r3
 175 0102 0A2B     		cmp	r3, #10
 176 0104 37D1     		bne	.L16
 173:.\Generated_Source\PSoC5/I2C_1_INT.c ****                                                     I2C_1_MSTAT_ERR_ADDR_NAK);
 177              		.loc 1 173 0
 178 0106 6F4B     		ldr	r3, .L34+28
 179 0108 1B78     		ldrb	r3, [r3]
 180 010a DBB2     		uxtb	r3, r3
 181 010c 63F05F03 		orn	r3, r3, #95
 182 0110 DAB2     		uxtb	r2, r3
 183 0112 6C4B     		ldr	r3, .L34+28
 184 0114 1A70     		strb	r2, [r3]
 176:.\Generated_Source\PSoC5/I2C_1_INT.c ****                     {
 185              		.loc 1 176 0
 186 0116 6A4B     		ldr	r3, .L34+24
 187 0118 1B78     		ldrb	r3, [r3]
 188 011a DBB2     		uxtb	r3, r3
 189 011c 03F00203 		and	r3, r3, #2
 190 0120 002B     		cmp	r3, #0
 191 0122 19D0     		beq	.L17
 179:.\Generated_Source\PSoC5/I2C_1_INT.c **** 
 192              		.loc 1 179 0
 193 0124 614B     		ldr	r3, .L34+4
ARM GAS  C:\Users\Shiguruy\AppData\Local\Temp\ccMw3Upc.s 			page 8


 194 0126 1B78     		ldrb	r3, [r3]
 195 0128 DBB2     		uxtb	r3, r3
 196 012a 03F00803 		and	r3, r3, #8
 178:.\Generated_Source\PSoC5/I2C_1_INT.c ****                                                         I2C_1_GET_MSTAT_CMPLT);
 197              		.loc 1 178 0
 198 012e 002B     		cmp	r3, #0
 199 0130 01D0     		beq	.L18
 178:.\Generated_Source\PSoC5/I2C_1_INT.c ****                                                         I2C_1_GET_MSTAT_CMPLT);
 200              		.loc 1 178 0 is_stmt 0 discriminator 1
 201 0132 0923     		movs	r3, #9
 202 0134 00E0     		b	.L19
 203              	.L18:
 178:.\Generated_Source\PSoC5/I2C_1_INT.c ****                                                         I2C_1_GET_MSTAT_CMPLT);
 204              		.loc 1 178 0 discriminator 2
 205 0136 0A23     		movs	r3, #10
 206              	.L19:
 178:.\Generated_Source\PSoC5/I2C_1_INT.c ****                                                         I2C_1_GET_MSTAT_CMPLT);
 207              		.loc 1 178 0 discriminator 4
 208 0138 DAB2     		uxtb	r2, r3
 209 013a 624B     		ldr	r3, .L34+28
 210 013c 1B78     		ldrb	r3, [r3]
 211 013e DBB2     		uxtb	r3, r3
 212 0140 1343     		orrs	r3, r3, r2
 213 0142 DAB2     		uxtb	r2, r3
 214 0144 5F4B     		ldr	r3, .L34+28
 215 0146 1A70     		strb	r2, [r3]
 181:.\Generated_Source\PSoC5/I2C_1_INT.c ****                         I2C_1_DisableInt();
 216              		.loc 1 181 0 is_stmt 1 discriminator 4
 217 0148 584B     		ldr	r3, .L34+4
 218 014a 6022     		movs	r2, #96
 219 014c 1A70     		strb	r2, [r3]
 182:.\Generated_Source\PSoC5/I2C_1_INT.c ****                     }
 220              		.loc 1 182 0 discriminator 4
 221 014e 5E4B     		ldr	r3, .L34+32
 222 0150 4FF40042 		mov	r2, #32768
 223 0154 1A60     		str	r2, [r3]
 224 0156 12E0     		b	.L15
 225              	.L17:
 186:.\Generated_Source\PSoC5/I2C_1_INT.c ****                         I2C_1_GENERATE_STOP;
 226              		.loc 1 186 0
 227 0158 5C4A     		ldr	r2, .L34+36
 228 015a 5C4B     		ldr	r3, .L34+36
 229 015c 1B78     		ldrb	r3, [r3]
 230 015e DBB2     		uxtb	r3, r3
 231 0160 43F01003 		orr	r3, r3, #16
 232 0164 DBB2     		uxtb	r3, r3
 233 0166 1370     		strb	r3, [r2]
 187:.\Generated_Source\PSoC5/I2C_1_INT.c ****                     }
 234              		.loc 1 187 0
 235 0168 594B     		ldr	r3, .L34+40
 236 016a 1022     		movs	r2, #16
 237 016c 1A70     		strb	r2, [r3]
 238 016e 4E4B     		ldr	r3, .L34
 239 0170 0422     		movs	r2, #4
 240 0172 1A70     		strb	r2, [r3]
 241              		.loc 1 202 0
 242 0174 DCE0     		b	.L3
ARM GAS  C:\Users\Shiguruy\AppData\Local\Temp\ccMw3Upc.s 			page 9


 243              	.L16:
 199:.\Generated_Source\PSoC5/I2C_1_INT.c ****                     #endif /* (I2C_1_TIMEOUT_ENABLED) */
 244              		.loc 1 199 0 discriminator 1
 245 0176 0020     		movs	r0, #0
 246 0178 FFF7FEFF 		bl	CyHalt
 247              		.loc 1 202 0 discriminator 1
 248 017c D8E0     		b	.L3
 249              	.L15:
 250              		.loc 1 202 0 is_stmt 0 discriminator 2
 251 017e D7E0     		b	.L3
 252              	.L7:
 203:.\Generated_Source\PSoC5/I2C_1_INT.c **** 
 204:.\Generated_Source\PSoC5/I2C_1_INT.c ****             case I2C_1_SM_MSTR_WR_DATA:
 205:.\Generated_Source\PSoC5/I2C_1_INT.c **** 
 206:.\Generated_Source\PSoC5/I2C_1_INT.c ****                 if(I2C_1_CHECK_DATA_ACK(tmpCsr))
 253              		.loc 1 206 0 is_stmt 1
 254 0180 FB79     		ldrb	r3, [r7, #7]	@ zero_extendqisi2
 255 0182 03F00203 		and	r3, r3, #2
 256 0186 002B     		cmp	r3, #0
 257 0188 42D1     		bne	.L21
 207:.\Generated_Source\PSoC5/I2C_1_INT.c ****                 {
 208:.\Generated_Source\PSoC5/I2C_1_INT.c ****                     /* Check if end of buffer */
 209:.\Generated_Source\PSoC5/I2C_1_INT.c ****                     if(I2C_1_mstrWrBufIndex  < I2C_1_mstrWrBufSize)
 258              		.loc 1 209 0
 259 018a 4C4B     		ldr	r3, .L34+20
 260 018c 1B78     		ldrb	r3, [r3]
 261 018e DAB2     		uxtb	r2, r3
 262 0190 474B     		ldr	r3, .L34+8
 263 0192 1B78     		ldrb	r3, [r3]
 264 0194 DBB2     		uxtb	r3, r3
 265 0196 9A42     		cmp	r2, r3
 266 0198 14D2     		bcs	.L22
 210:.\Generated_Source\PSoC5/I2C_1_INT.c ****                     {
 211:.\Generated_Source\PSoC5/I2C_1_INT.c ****                         I2C_1_DATA_REG =
 267              		.loc 1 211 0
 268 019a 464A     		ldr	r2, .L34+12
 212:.\Generated_Source\PSoC5/I2C_1_INT.c ****                                                  I2C_1_mstrWrBufPtr[I2C_1_mstrWrBufIndex];
 269              		.loc 1 212 0
 270 019c 464B     		ldr	r3, .L34+16
 271 019e 1B68     		ldr	r3, [r3]
 272 01a0 4649     		ldr	r1, .L34+20
 273 01a2 0978     		ldrb	r1, [r1]
 274 01a4 C9B2     		uxtb	r1, r1
 275 01a6 0B44     		add	r3, r3, r1
 276 01a8 1B78     		ldrb	r3, [r3]
 277 01aa DBB2     		uxtb	r3, r3
 211:.\Generated_Source\PSoC5/I2C_1_INT.c ****                                                  I2C_1_mstrWrBufPtr[I2C_1_mstrWrBufIndex];
 278              		.loc 1 211 0
 279 01ac 1370     		strb	r3, [r2]
 213:.\Generated_Source\PSoC5/I2C_1_INT.c ****                         I2C_1_TRANSMIT_DATA;
 280              		.loc 1 213 0
 281 01ae 3E4B     		ldr	r3, .L34
 282 01b0 0422     		movs	r2, #4
 283 01b2 1A70     		strb	r2, [r3]
 214:.\Generated_Source\PSoC5/I2C_1_INT.c ****                         I2C_1_mstrWrBufIndex++;
 284              		.loc 1 214 0
 285 01b4 414B     		ldr	r3, .L34+20
ARM GAS  C:\Users\Shiguruy\AppData\Local\Temp\ccMw3Upc.s 			page 10


 286 01b6 1B78     		ldrb	r3, [r3]
 287 01b8 DBB2     		uxtb	r3, r3
 288 01ba 0133     		adds	r3, r3, #1
 289 01bc DAB2     		uxtb	r2, r3
 290 01be 3F4B     		ldr	r3, .L34+20
 291 01c0 1A70     		strb	r2, [r3]
 292 01c2 53E0     		b	.L25
 293              	.L22:
 215:.\Generated_Source\PSoC5/I2C_1_INT.c ****                     }
 216:.\Generated_Source\PSoC5/I2C_1_INT.c ****                     /* End of buffer: complete writing */
 217:.\Generated_Source\PSoC5/I2C_1_INT.c ****                     else if(I2C_1_CHECK_NO_STOP(I2C_1_mstrControl))
 294              		.loc 1 217 0
 295 01c4 3E4B     		ldr	r3, .L34+24
 296 01c6 1B78     		ldrb	r3, [r3]
 297 01c8 DBB2     		uxtb	r3, r3
 298 01ca 03F00203 		and	r3, r3, #2
 299 01ce 002B     		cmp	r3, #0
 300 01d0 0FD0     		beq	.L24
 218:.\Generated_Source\PSoC5/I2C_1_INT.c ****                     {
 219:.\Generated_Source\PSoC5/I2C_1_INT.c ****                         /* Set write complete and master halted */
 220:.\Generated_Source\PSoC5/I2C_1_INT.c ****                         I2C_1_mstrStatus |= (I2C_1_MSTAT_XFER_HALT |
 301              		.loc 1 220 0
 302 01d2 3C4B     		ldr	r3, .L34+28
 303 01d4 1B78     		ldrb	r3, [r3]
 304 01d6 DBB2     		uxtb	r3, r3
 305 01d8 43F00A03 		orr	r3, r3, #10
 306 01dc DAB2     		uxtb	r2, r3
 307 01de 394B     		ldr	r3, .L34+28
 308 01e0 1A70     		strb	r2, [r3]
 221:.\Generated_Source\PSoC5/I2C_1_INT.c ****                                                         I2C_1_MSTAT_WR_CMPLT);
 222:.\Generated_Source\PSoC5/I2C_1_INT.c **** 
 223:.\Generated_Source\PSoC5/I2C_1_INT.c ****                         I2C_1_state = I2C_1_SM_MSTR_HALT;    /* Expect restart */
 309              		.loc 1 223 0
 310 01e2 324B     		ldr	r3, .L34+4
 311 01e4 6022     		movs	r2, #96
 312 01e6 1A70     		strb	r2, [r3]
 224:.\Generated_Source\PSoC5/I2C_1_INT.c ****                         I2C_1_DisableInt();
 313              		.loc 1 224 0
 314 01e8 374B     		ldr	r3, .L34+32
 315 01ea 4FF40042 		mov	r2, #32768
 316 01ee 1A60     		str	r2, [r3]
 317 01f0 3CE0     		b	.L25
 318              	.L24:
 225:.\Generated_Source\PSoC5/I2C_1_INT.c ****                     }
 226:.\Generated_Source\PSoC5/I2C_1_INT.c ****                     else  /* Do normal Stop */
 227:.\Generated_Source\PSoC5/I2C_1_INT.c ****                     {
 228:.\Generated_Source\PSoC5/I2C_1_INT.c ****                         I2C_1_ENABLE_INT_ON_STOP;    /* Enable interrupt on Stop, to catch it */
 319              		.loc 1 228 0
 320 01f2 364A     		ldr	r2, .L34+36
 321 01f4 354B     		ldr	r3, .L34+36
 322 01f6 1B78     		ldrb	r3, [r3]
 323 01f8 DBB2     		uxtb	r3, r3
 324 01fa 43F01003 		orr	r3, r3, #16
 325 01fe DBB2     		uxtb	r3, r3
 326 0200 1370     		strb	r3, [r2]
 229:.\Generated_Source\PSoC5/I2C_1_INT.c ****                         I2C_1_GENERATE_STOP;
 327              		.loc 1 229 0
ARM GAS  C:\Users\Shiguruy\AppData\Local\Temp\ccMw3Upc.s 			page 11


 328 0202 334B     		ldr	r3, .L34+40
 329 0204 1022     		movs	r2, #16
 330 0206 1A70     		strb	r2, [r3]
 331 0208 274B     		ldr	r3, .L34
 332 020a 0422     		movs	r2, #4
 333 020c 1A70     		strb	r2, [r3]
 230:.\Generated_Source\PSoC5/I2C_1_INT.c ****                     }
 231:.\Generated_Source\PSoC5/I2C_1_INT.c ****                 }
 232:.\Generated_Source\PSoC5/I2C_1_INT.c ****                 /* Last byte NAKed: end writing */
 233:.\Generated_Source\PSoC5/I2C_1_INT.c ****                 else if(I2C_1_CHECK_NO_STOP(I2C_1_mstrControl))
 234:.\Generated_Source\PSoC5/I2C_1_INT.c ****                 {
 235:.\Generated_Source\PSoC5/I2C_1_INT.c ****                     /* Set write complete, short transfer and master halted */
 236:.\Generated_Source\PSoC5/I2C_1_INT.c ****                     I2C_1_mstrStatus |= (I2C_1_MSTAT_ERR_XFER       |
 237:.\Generated_Source\PSoC5/I2C_1_INT.c ****                                                     I2C_1_MSTAT_ERR_SHORT_XFER |
 238:.\Generated_Source\PSoC5/I2C_1_INT.c ****                                                     I2C_1_MSTAT_XFER_HALT      |
 239:.\Generated_Source\PSoC5/I2C_1_INT.c ****                                                     I2C_1_MSTAT_WR_CMPLT);
 240:.\Generated_Source\PSoC5/I2C_1_INT.c **** 
 241:.\Generated_Source\PSoC5/I2C_1_INT.c ****                     I2C_1_state = I2C_1_SM_MSTR_HALT;    /* Expect ReStart */
 242:.\Generated_Source\PSoC5/I2C_1_INT.c ****                     I2C_1_DisableInt();
 243:.\Generated_Source\PSoC5/I2C_1_INT.c ****                 }
 244:.\Generated_Source\PSoC5/I2C_1_INT.c ****                 else  /* Do normal Stop */
 245:.\Generated_Source\PSoC5/I2C_1_INT.c ****                 {
 246:.\Generated_Source\PSoC5/I2C_1_INT.c ****                     I2C_1_ENABLE_INT_ON_STOP;    /* Enable interrupt on Stop, to catch it */
 247:.\Generated_Source\PSoC5/I2C_1_INT.c ****                     I2C_1_GENERATE_STOP;
 248:.\Generated_Source\PSoC5/I2C_1_INT.c **** 
 249:.\Generated_Source\PSoC5/I2C_1_INT.c ****                     /* Set short transfer and error flag */
 250:.\Generated_Source\PSoC5/I2C_1_INT.c ****                     I2C_1_mstrStatus |= (I2C_1_MSTAT_ERR_SHORT_XFER |
 251:.\Generated_Source\PSoC5/I2C_1_INT.c ****                                                     I2C_1_MSTAT_ERR_XFER);
 252:.\Generated_Source\PSoC5/I2C_1_INT.c ****                 }
 253:.\Generated_Source\PSoC5/I2C_1_INT.c **** 
 254:.\Generated_Source\PSoC5/I2C_1_INT.c ****                 break;
 334              		.loc 1 254 0
 335 020e 8FE0     		b	.L3
 336              	.L21:
 233:.\Generated_Source\PSoC5/I2C_1_INT.c ****                 {
 337              		.loc 1 233 0
 338 0210 2B4B     		ldr	r3, .L34+24
 339 0212 1B78     		ldrb	r3, [r3]
 340 0214 DBB2     		uxtb	r3, r3
 341 0216 03F00203 		and	r3, r3, #2
 342 021a 002B     		cmp	r3, #0
 343 021c 0FD0     		beq	.L26
 236:.\Generated_Source\PSoC5/I2C_1_INT.c ****                                                     I2C_1_MSTAT_ERR_SHORT_XFER |
 344              		.loc 1 236 0
 345 021e 294B     		ldr	r3, .L34+28
 346 0220 1B78     		ldrb	r3, [r3]
 347 0222 DBB2     		uxtb	r3, r3
 348 0224 63F06503 		orn	r3, r3, #101
 349 0228 DAB2     		uxtb	r2, r3
 350 022a 264B     		ldr	r3, .L34+28
 351 022c 1A70     		strb	r2, [r3]
 241:.\Generated_Source\PSoC5/I2C_1_INT.c ****                     I2C_1_DisableInt();
 352              		.loc 1 241 0
 353 022e 1F4B     		ldr	r3, .L34+4
 354 0230 6022     		movs	r2, #96
 355 0232 1A70     		strb	r2, [r3]
 242:.\Generated_Source\PSoC5/I2C_1_INT.c ****                 }
ARM GAS  C:\Users\Shiguruy\AppData\Local\Temp\ccMw3Upc.s 			page 12


 356              		.loc 1 242 0
 357 0234 244B     		ldr	r3, .L34+32
 358 0236 4FF40042 		mov	r2, #32768
 359 023a 1A60     		str	r2, [r3]
 360 023c 16E0     		b	.L25
 361              	.L26:
 246:.\Generated_Source\PSoC5/I2C_1_INT.c ****                     I2C_1_GENERATE_STOP;
 362              		.loc 1 246 0
 363 023e 234A     		ldr	r2, .L34+36
 364 0240 224B     		ldr	r3, .L34+36
 365 0242 1B78     		ldrb	r3, [r3]
 366 0244 DBB2     		uxtb	r3, r3
 367 0246 43F01003 		orr	r3, r3, #16
 368 024a DBB2     		uxtb	r3, r3
 369 024c 1370     		strb	r3, [r2]
 247:.\Generated_Source\PSoC5/I2C_1_INT.c **** 
 370              		.loc 1 247 0
 371 024e 204B     		ldr	r3, .L34+40
 372 0250 1022     		movs	r2, #16
 373 0252 1A70     		strb	r2, [r3]
 374 0254 144B     		ldr	r3, .L34
 375 0256 0422     		movs	r2, #4
 376 0258 1A70     		strb	r2, [r3]
 250:.\Generated_Source\PSoC5/I2C_1_INT.c ****                                                     I2C_1_MSTAT_ERR_XFER);
 377              		.loc 1 250 0
 378 025a 1A4B     		ldr	r3, .L34+28
 379 025c 1B78     		ldrb	r3, [r3]
 380 025e DBB2     		uxtb	r3, r3
 381 0260 63F06F03 		orn	r3, r3, #111
 382 0264 DAB2     		uxtb	r2, r3
 383 0266 174B     		ldr	r3, .L34+28
 384 0268 1A70     		strb	r2, [r3]
 385              		.loc 1 254 0
 386 026a 61E0     		b	.L3
 387              	.L25:
 388              		.loc 1 254 0 is_stmt 0 discriminator 4
 389 026c 60E0     		b	.L3
 390              	.L8:
 255:.\Generated_Source\PSoC5/I2C_1_INT.c **** 
 256:.\Generated_Source\PSoC5/I2C_1_INT.c ****             case I2C_1_SM_MSTR_RD_DATA:
 257:.\Generated_Source\PSoC5/I2C_1_INT.c **** 
 258:.\Generated_Source\PSoC5/I2C_1_INT.c ****                 I2C_1_mstrRdBufPtr[I2C_1_mstrRdBufIndex] = I2C_1_DATA_REG;
 391              		.loc 1 258 0 is_stmt 1
 392 026e 194B     		ldr	r3, .L34+44
 393 0270 1B68     		ldr	r3, [r3]
 394 0272 194A     		ldr	r2, .L34+48
 395 0274 1278     		ldrb	r2, [r2]
 396 0276 D2B2     		uxtb	r2, r2
 397 0278 1344     		add	r3, r3, r2
 398 027a 0E4A     		ldr	r2, .L34+12
 399 027c 1278     		ldrb	r2, [r2]
 400 027e D2B2     		uxtb	r2, r2
 401 0280 1A70     		strb	r2, [r3]
 259:.\Generated_Source\PSoC5/I2C_1_INT.c ****                 I2C_1_mstrRdBufIndex++;
 402              		.loc 1 259 0
 403 0282 154B     		ldr	r3, .L34+48
 404 0284 1B78     		ldrb	r3, [r3]
ARM GAS  C:\Users\Shiguruy\AppData\Local\Temp\ccMw3Upc.s 			page 13


 405 0286 DBB2     		uxtb	r3, r3
 406 0288 0133     		adds	r3, r3, #1
 407 028a DAB2     		uxtb	r2, r3
 408 028c 124B     		ldr	r3, .L34+48
 409 028e 1A70     		strb	r2, [r3]
 260:.\Generated_Source\PSoC5/I2C_1_INT.c **** 
 261:.\Generated_Source\PSoC5/I2C_1_INT.c ****                 /* Check if end of buffer */
 262:.\Generated_Source\PSoC5/I2C_1_INT.c ****                 if(I2C_1_mstrRdBufIndex < I2C_1_mstrRdBufSize)
 410              		.loc 1 262 0
 411 0290 114B     		ldr	r3, .L34+48
 412 0292 1B78     		ldrb	r3, [r3]
 413 0294 DAB2     		uxtb	r2, r3
 414 0296 114B     		ldr	r3, .L34+52
 415 0298 1B78     		ldrb	r3, [r3]
 416 029a DBB2     		uxtb	r3, r3
 417 029c 9A42     		cmp	r2, r3
 418 029e 1FD2     		bcs	.L27
 263:.\Generated_Source\PSoC5/I2C_1_INT.c ****                 {
 264:.\Generated_Source\PSoC5/I2C_1_INT.c ****                     I2C_1_ACK_AND_RECEIVE;       /* ACK and receive byte */
 419              		.loc 1 264 0
 420 02a0 014B     		ldr	r3, .L34
 421 02a2 1022     		movs	r2, #16
 422 02a4 1A70     		strb	r2, [r3]
 423 02a6 3EE0     		b	.L28
 424              	.L35:
 425              		.align	2
 426              	.L34:
 427 02a8 D7490040 		.word	1073760727
 428 02ac 00000000 		.word	I2C_1_state
 429 02b0 00000000 		.word	I2C_1_mstrWrBufSize
 430 02b4 D8490040 		.word	1073760728
 431 02b8 00000000 		.word	I2C_1_mstrWrBufPtr
 432 02bc 00000000 		.word	I2C_1_mstrWrBufIndex
 433 02c0 00000000 		.word	I2C_1_mstrControl
 434 02c4 00000000 		.word	I2C_1_mstrStatus
 435 02c8 80E100E0 		.word	-536813184
 436 02cc D6490040 		.word	1073760726
 437 02d0 D9490040 		.word	1073760729
 438 02d4 00000000 		.word	I2C_1_mstrRdBufPtr
 439 02d8 00000000 		.word	I2C_1_mstrRdBufIndex
 440 02dc 00000000 		.word	I2C_1_mstrRdBufSize
 441              	.L27:
 265:.\Generated_Source\PSoC5/I2C_1_INT.c ****                 }
 266:.\Generated_Source\PSoC5/I2C_1_INT.c ****                 /* End of buffer: complete reading */
 267:.\Generated_Source\PSoC5/I2C_1_INT.c ****                 else if(I2C_1_CHECK_NO_STOP(I2C_1_mstrControl))
 442              		.loc 1 267 0
 443 02e0 2C4B     		ldr	r3, .L36
 444 02e2 1B78     		ldrb	r3, [r3]
 445 02e4 DBB2     		uxtb	r3, r3
 446 02e6 03F00203 		and	r3, r3, #2
 447 02ea 002B     		cmp	r3, #0
 448 02ec 0FD0     		beq	.L29
 268:.\Generated_Source\PSoC5/I2C_1_INT.c ****                 {
 269:.\Generated_Source\PSoC5/I2C_1_INT.c ****                     /* Set read complete and master halted */
 270:.\Generated_Source\PSoC5/I2C_1_INT.c ****                     I2C_1_mstrStatus |= (I2C_1_MSTAT_XFER_HALT |
 449              		.loc 1 270 0
 450 02ee 2A4B     		ldr	r3, .L36+4
ARM GAS  C:\Users\Shiguruy\AppData\Local\Temp\ccMw3Upc.s 			page 14


 451 02f0 1B78     		ldrb	r3, [r3]
 452 02f2 DBB2     		uxtb	r3, r3
 453 02f4 43F00903 		orr	r3, r3, #9
 454 02f8 DAB2     		uxtb	r2, r3
 455 02fa 274B     		ldr	r3, .L36+4
 456 02fc 1A70     		strb	r2, [r3]
 271:.\Generated_Source\PSoC5/I2C_1_INT.c ****                                                     I2C_1_MSTAT_RD_CMPLT);
 272:.\Generated_Source\PSoC5/I2C_1_INT.c **** 
 273:.\Generated_Source\PSoC5/I2C_1_INT.c ****                     I2C_1_state = I2C_1_SM_MSTR_HALT;    /* Expect ReStart */
 457              		.loc 1 273 0
 458 02fe 274B     		ldr	r3, .L36+8
 459 0300 6022     		movs	r2, #96
 460 0302 1A70     		strb	r2, [r3]
 274:.\Generated_Source\PSoC5/I2C_1_INT.c ****                     I2C_1_DisableInt();
 461              		.loc 1 274 0
 462 0304 264B     		ldr	r3, .L36+12
 463 0306 4FF40042 		mov	r2, #32768
 464 030a 1A60     		str	r2, [r3]
 465 030c 0BE0     		b	.L28
 466              	.L29:
 275:.\Generated_Source\PSoC5/I2C_1_INT.c ****                 }
 276:.\Generated_Source\PSoC5/I2C_1_INT.c ****                 else
 277:.\Generated_Source\PSoC5/I2C_1_INT.c ****                 {
 278:.\Generated_Source\PSoC5/I2C_1_INT.c ****                     I2C_1_ENABLE_INT_ON_STOP;
 467              		.loc 1 278 0
 468 030e 254A     		ldr	r2, .L36+16
 469 0310 244B     		ldr	r3, .L36+16
 470 0312 1B78     		ldrb	r3, [r3]
 471 0314 DBB2     		uxtb	r3, r3
 472 0316 43F01003 		orr	r3, r3, #16
 473 031a DBB2     		uxtb	r3, r3
 474 031c 1370     		strb	r3, [r2]
 279:.\Generated_Source\PSoC5/I2C_1_INT.c ****                     I2C_1_NAK_AND_RECEIVE;       /* NACK and TRY to generate Stop */
 475              		.loc 1 279 0
 476 031e 224B     		ldr	r3, .L36+20
 477 0320 0022     		movs	r2, #0
 478 0322 1A70     		strb	r2, [r3]
 280:.\Generated_Source\PSoC5/I2C_1_INT.c ****                 }
 281:.\Generated_Source\PSoC5/I2C_1_INT.c ****                 break;
 479              		.loc 1 281 0
 480 0324 04E0     		b	.L3
 481              	.L28:
 482 0326 03E0     		b	.L3
 483              	.L4:
 282:.\Generated_Source\PSoC5/I2C_1_INT.c **** 
 283:.\Generated_Source\PSoC5/I2C_1_INT.c ****             default: /* This is an invalid state and should not occur */
 284:.\Generated_Source\PSoC5/I2C_1_INT.c **** 
 285:.\Generated_Source\PSoC5/I2C_1_INT.c ****             #if(I2C_1_TIMEOUT_ENABLED)
 286:.\Generated_Source\PSoC5/I2C_1_INT.c ****                 /* Exit interrupt to take chance for timeout timer to handles this case */
 287:.\Generated_Source\PSoC5/I2C_1_INT.c ****                 I2C_1_DisableInt();
 288:.\Generated_Source\PSoC5/I2C_1_INT.c ****                 I2C_1_ClearPendingInt();
 289:.\Generated_Source\PSoC5/I2C_1_INT.c ****             #else
 290:.\Generated_Source\PSoC5/I2C_1_INT.c ****                 /* Block execution flow: unexpected condition */
 291:.\Generated_Source\PSoC5/I2C_1_INT.c ****                 CYASSERT(0u != 0u);
 484              		.loc 1 291 0
 485 0328 0020     		movs	r0, #0
 486 032a FFF7FEFF 		bl	CyHalt
ARM GAS  C:\Users\Shiguruy\AppData\Local\Temp\ccMw3Upc.s 			page 15


 292:.\Generated_Source\PSoC5/I2C_1_INT.c ****             #endif /* (I2C_1_TIMEOUT_ENABLED) */
 293:.\Generated_Source\PSoC5/I2C_1_INT.c **** 
 294:.\Generated_Source\PSoC5/I2C_1_INT.c ****                 break;
 487              		.loc 1 294 0
 488 032e 00BF     		nop
 489              	.L3:
 295:.\Generated_Source\PSoC5/I2C_1_INT.c ****             }
 296:.\Generated_Source\PSoC5/I2C_1_INT.c ****         }
 297:.\Generated_Source\PSoC5/I2C_1_INT.c **** 
 298:.\Generated_Source\PSoC5/I2C_1_INT.c ****         /* Catches Stop: end of transaction */
 299:.\Generated_Source\PSoC5/I2C_1_INT.c ****         if(I2C_1_CHECK_STOP_STS(tmpCsr))
 490              		.loc 1 299 0
 491 0330 FB79     		ldrb	r3, [r7, #7]	@ zero_extendqisi2
 492 0332 03F02003 		and	r3, r3, #32
 493 0336 002B     		cmp	r3, #0
 494 0338 28D0     		beq	.L1
 300:.\Generated_Source\PSoC5/I2C_1_INT.c ****         {
 301:.\Generated_Source\PSoC5/I2C_1_INT.c ****             I2C_1_mstrStatus |= I2C_1_GET_MSTAT_CMPLT;
 495              		.loc 1 301 0
 496 033a 184B     		ldr	r3, .L36+8
 497 033c 1B78     		ldrb	r3, [r3]
 498 033e DBB2     		uxtb	r3, r3
 499 0340 03F00803 		and	r3, r3, #8
 500 0344 002B     		cmp	r3, #0
 501 0346 01D0     		beq	.L31
 502              		.loc 1 301 0 is_stmt 0 discriminator 1
 503 0348 0123     		movs	r3, #1
 504 034a 00E0     		b	.L32
 505              	.L31:
 506              		.loc 1 301 0 discriminator 2
 507 034c 0223     		movs	r3, #2
 508              	.L32:
 509              		.loc 1 301 0 discriminator 4
 510 034e DAB2     		uxtb	r2, r3
 511 0350 114B     		ldr	r3, .L36+4
 512 0352 1B78     		ldrb	r3, [r3]
 513 0354 DBB2     		uxtb	r3, r3
 514 0356 1343     		orrs	r3, r3, r2
 515 0358 DAB2     		uxtb	r2, r3
 516 035a 0F4B     		ldr	r3, .L36+4
 517 035c 1A70     		strb	r2, [r3]
 302:.\Generated_Source\PSoC5/I2C_1_INT.c **** 
 303:.\Generated_Source\PSoC5/I2C_1_INT.c ****             I2C_1_DISABLE_INT_ON_STOP;
 518              		.loc 1 303 0 is_stmt 1 discriminator 4
 519 035e 114A     		ldr	r2, .L36+16
 520 0360 104B     		ldr	r3, .L36+16
 521 0362 1B78     		ldrb	r3, [r3]
 522 0364 DBB2     		uxtb	r3, r3
 523 0366 23F01003 		bic	r3, r3, #16
 524 036a DBB2     		uxtb	r3, r3
 525 036c 1370     		strb	r3, [r2]
 304:.\Generated_Source\PSoC5/I2C_1_INT.c ****             I2C_1_state = I2C_1_SM_IDLE;
 526              		.loc 1 304 0 discriminator 4
 527 036e 0B4B     		ldr	r3, .L36+8
 528 0370 1022     		movs	r2, #16
 529 0372 1A70     		strb	r2, [r3]
 530 0374 0AE0     		b	.L1
ARM GAS  C:\Users\Shiguruy\AppData\Local\Temp\ccMw3Upc.s 			page 16


 531              	.L2:
 305:.\Generated_Source\PSoC5/I2C_1_INT.c ****         }
 306:.\Generated_Source\PSoC5/I2C_1_INT.c ****     #endif /* (I2C_1_MODE_MASTER_ENABLED) */
 307:.\Generated_Source\PSoC5/I2C_1_INT.c ****     }
 308:.\Generated_Source\PSoC5/I2C_1_INT.c ****     else if(I2C_1_CHECK_SM_SLAVE)
 532              		.loc 1 308 0
 533 0376 094B     		ldr	r3, .L36+8
 534 0378 1B78     		ldrb	r3, [r3]
 535 037a DBB2     		uxtb	r3, r3
 536 037c 03F01003 		and	r3, r3, #16
 537 0380 DBB2     		uxtb	r3, r3
 538 0382 002B     		cmp	r3, #0
 539 0384 02D1     		bne	.L1
 309:.\Generated_Source\PSoC5/I2C_1_INT.c ****     {
 310:.\Generated_Source\PSoC5/I2C_1_INT.c ****     #if(I2C_1_MODE_SLAVE_ENABLED)
 311:.\Generated_Source\PSoC5/I2C_1_INT.c **** 
 312:.\Generated_Source\PSoC5/I2C_1_INT.c ****         if((I2C_1_CHECK_STOP_STS(tmpCsr)) || /* Stop || Restart */
 313:.\Generated_Source\PSoC5/I2C_1_INT.c ****            (I2C_1_CHECK_BYTE_COMPLETE(tmpCsr) && I2C_1_CHECK_ADDRESS_STS(tmpCsr)))
 314:.\Generated_Source\PSoC5/I2C_1_INT.c ****         {
 315:.\Generated_Source\PSoC5/I2C_1_INT.c ****             /* Catch end of master write transaction: use interrupt on Stop */
 316:.\Generated_Source\PSoC5/I2C_1_INT.c ****             /* The Stop bit history on address phase does not have correct state */
 317:.\Generated_Source\PSoC5/I2C_1_INT.c ****             if(I2C_1_SM_SL_WR_DATA == I2C_1_state)
 318:.\Generated_Source\PSoC5/I2C_1_INT.c ****             {
 319:.\Generated_Source\PSoC5/I2C_1_INT.c ****                 I2C_1_DISABLE_INT_ON_STOP;
 320:.\Generated_Source\PSoC5/I2C_1_INT.c **** 
 321:.\Generated_Source\PSoC5/I2C_1_INT.c ****                 I2C_1_slStatus &= ((uint8) ~I2C_1_SSTAT_WR_BUSY);
 322:.\Generated_Source\PSoC5/I2C_1_INT.c ****                 I2C_1_slStatus |= ((uint8)  I2C_1_SSTAT_WR_CMPLT);
 323:.\Generated_Source\PSoC5/I2C_1_INT.c **** 
 324:.\Generated_Source\PSoC5/I2C_1_INT.c ****                 I2C_1_state = I2C_1_SM_IDLE;
 325:.\Generated_Source\PSoC5/I2C_1_INT.c ****             }
 326:.\Generated_Source\PSoC5/I2C_1_INT.c ****         }
 327:.\Generated_Source\PSoC5/I2C_1_INT.c **** 
 328:.\Generated_Source\PSoC5/I2C_1_INT.c ****         if(I2C_1_CHECK_BYTE_COMPLETE(tmpCsr))
 329:.\Generated_Source\PSoC5/I2C_1_INT.c ****         {
 330:.\Generated_Source\PSoC5/I2C_1_INT.c ****             /* The address only issued after Start or ReStart: so check the address
 331:.\Generated_Source\PSoC5/I2C_1_INT.c ****                to catch these events:
 332:.\Generated_Source\PSoC5/I2C_1_INT.c ****                 FF : sets an address phase with a byte_complete interrupt trigger.
 333:.\Generated_Source\PSoC5/I2C_1_INT.c ****                 UDB: sets an address phase immediately after Start or ReStart. */
 334:.\Generated_Source\PSoC5/I2C_1_INT.c ****             if(I2C_1_CHECK_ADDRESS_STS(tmpCsr))
 335:.\Generated_Source\PSoC5/I2C_1_INT.c ****             {
 336:.\Generated_Source\PSoC5/I2C_1_INT.c ****             /* Check for software address detection */
 337:.\Generated_Source\PSoC5/I2C_1_INT.c ****             #if(I2C_1_SW_ADRR_DECODE)
 338:.\Generated_Source\PSoC5/I2C_1_INT.c ****                 tmp8 = I2C_1_GET_SLAVE_ADDR(I2C_1_DATA_REG);
 339:.\Generated_Source\PSoC5/I2C_1_INT.c **** 
 340:.\Generated_Source\PSoC5/I2C_1_INT.c ****                 if(tmp8 == I2C_1_slAddress)   /* Check for address match */
 341:.\Generated_Source\PSoC5/I2C_1_INT.c ****                 {
 342:.\Generated_Source\PSoC5/I2C_1_INT.c ****                     if(0u != (I2C_1_DATA_REG & I2C_1_READ_FLAG))
 343:.\Generated_Source\PSoC5/I2C_1_INT.c ****                     {
 344:.\Generated_Source\PSoC5/I2C_1_INT.c ****                         /* Place code to prepare read buffer here                  */
 345:.\Generated_Source\PSoC5/I2C_1_INT.c ****                         /* `#START I2C_1_SW_PREPARE_READ_BUF_interrupt` */
 346:.\Generated_Source\PSoC5/I2C_1_INT.c **** 
 347:.\Generated_Source\PSoC5/I2C_1_INT.c ****                         /* `#END` */
 348:.\Generated_Source\PSoC5/I2C_1_INT.c **** 
 349:.\Generated_Source\PSoC5/I2C_1_INT.c ****                     #ifdef I2C_1_SW_PREPARE_READ_BUF_CALLBACK
 350:.\Generated_Source\PSoC5/I2C_1_INT.c ****                         I2C_1_SwPrepareReadBuf_Callback();
 351:.\Generated_Source\PSoC5/I2C_1_INT.c ****                     #endif /* I2C_1_SW_PREPARE_READ_BUF_CALLBACK */
 352:.\Generated_Source\PSoC5/I2C_1_INT.c ****                         
ARM GAS  C:\Users\Shiguruy\AppData\Local\Temp\ccMw3Upc.s 			page 17


 353:.\Generated_Source\PSoC5/I2C_1_INT.c ****                         /* Prepare next operation to read, get data and place in data register */
 354:.\Generated_Source\PSoC5/I2C_1_INT.c ****                         if(I2C_1_slRdBufIndex < I2C_1_slRdBufSize)
 355:.\Generated_Source\PSoC5/I2C_1_INT.c ****                         {
 356:.\Generated_Source\PSoC5/I2C_1_INT.c ****                             /* Load first data byte from array */
 357:.\Generated_Source\PSoC5/I2C_1_INT.c ****                             I2C_1_DATA_REG = I2C_1_slRdBufPtr[I2C_1_slRdBufIndex];
 358:.\Generated_Source\PSoC5/I2C_1_INT.c ****                             I2C_1_ACK_AND_TRANSMIT;
 359:.\Generated_Source\PSoC5/I2C_1_INT.c ****                             I2C_1_slRdBufIndex++;
 360:.\Generated_Source\PSoC5/I2C_1_INT.c **** 
 361:.\Generated_Source\PSoC5/I2C_1_INT.c ****                             I2C_1_slStatus |= I2C_1_SSTAT_RD_BUSY;
 362:.\Generated_Source\PSoC5/I2C_1_INT.c ****                         }
 363:.\Generated_Source\PSoC5/I2C_1_INT.c ****                         else    /* Overflow: provide 0xFF on bus */
 364:.\Generated_Source\PSoC5/I2C_1_INT.c ****                         {
 365:.\Generated_Source\PSoC5/I2C_1_INT.c ****                             I2C_1_DATA_REG = I2C_1_OVERFLOW_RETURN;
 366:.\Generated_Source\PSoC5/I2C_1_INT.c ****                             I2C_1_ACK_AND_TRANSMIT;
 367:.\Generated_Source\PSoC5/I2C_1_INT.c **** 
 368:.\Generated_Source\PSoC5/I2C_1_INT.c ****                             I2C_1_slStatus  |= (I2C_1_SSTAT_RD_BUSY |
 369:.\Generated_Source\PSoC5/I2C_1_INT.c ****                                                            I2C_1_SSTAT_RD_ERR_OVFL);
 370:.\Generated_Source\PSoC5/I2C_1_INT.c ****                         }
 371:.\Generated_Source\PSoC5/I2C_1_INT.c **** 
 372:.\Generated_Source\PSoC5/I2C_1_INT.c ****                         I2C_1_state = I2C_1_SM_SL_RD_DATA;
 373:.\Generated_Source\PSoC5/I2C_1_INT.c ****                     }
 374:.\Generated_Source\PSoC5/I2C_1_INT.c ****                     else  /* Write transaction: receive 1st byte */
 375:.\Generated_Source\PSoC5/I2C_1_INT.c ****                     {
 376:.\Generated_Source\PSoC5/I2C_1_INT.c ****                         I2C_1_ACK_AND_RECEIVE;
 377:.\Generated_Source\PSoC5/I2C_1_INT.c ****                         I2C_1_state = I2C_1_SM_SL_WR_DATA;
 378:.\Generated_Source\PSoC5/I2C_1_INT.c **** 
 379:.\Generated_Source\PSoC5/I2C_1_INT.c ****                         I2C_1_slStatus |= I2C_1_SSTAT_WR_BUSY;
 380:.\Generated_Source\PSoC5/I2C_1_INT.c ****                         I2C_1_ENABLE_INT_ON_STOP;
 381:.\Generated_Source\PSoC5/I2C_1_INT.c ****                     }
 382:.\Generated_Source\PSoC5/I2C_1_INT.c ****                 }
 383:.\Generated_Source\PSoC5/I2C_1_INT.c ****                 else
 384:.\Generated_Source\PSoC5/I2C_1_INT.c ****                 {
 385:.\Generated_Source\PSoC5/I2C_1_INT.c ****                     /*     Place code to compare for additional address here    */
 386:.\Generated_Source\PSoC5/I2C_1_INT.c ****                     /* `#START I2C_1_SW_ADDR_COMPARE_interruptStart` */
 387:.\Generated_Source\PSoC5/I2C_1_INT.c **** 
 388:.\Generated_Source\PSoC5/I2C_1_INT.c ****                     /* `#END` */
 389:.\Generated_Source\PSoC5/I2C_1_INT.c **** 
 390:.\Generated_Source\PSoC5/I2C_1_INT.c ****                 #ifdef I2C_1_SW_ADDR_COMPARE_ENTRY_CALLBACK
 391:.\Generated_Source\PSoC5/I2C_1_INT.c ****                     I2C_1_SwAddrCompare_EntryCallback();
 392:.\Generated_Source\PSoC5/I2C_1_INT.c ****                 #endif /* I2C_1_SW_ADDR_COMPARE_ENTRY_CALLBACK */
 393:.\Generated_Source\PSoC5/I2C_1_INT.c ****                     
 394:.\Generated_Source\PSoC5/I2C_1_INT.c ****                     I2C_1_NAK_AND_RECEIVE;   /* NACK address */
 395:.\Generated_Source\PSoC5/I2C_1_INT.c **** 
 396:.\Generated_Source\PSoC5/I2C_1_INT.c ****                     /* Place code to end of condition for NACK generation here */
 397:.\Generated_Source\PSoC5/I2C_1_INT.c ****                     /* `#START I2C_1_SW_ADDR_COMPARE_interruptEnd`  */
 398:.\Generated_Source\PSoC5/I2C_1_INT.c **** 
 399:.\Generated_Source\PSoC5/I2C_1_INT.c ****                     /* `#END` */
 400:.\Generated_Source\PSoC5/I2C_1_INT.c **** 
 401:.\Generated_Source\PSoC5/I2C_1_INT.c ****                 #ifdef I2C_1_SW_ADDR_COMPARE_EXIT_CALLBACK
 402:.\Generated_Source\PSoC5/I2C_1_INT.c ****                     I2C_1_SwAddrCompare_ExitCallback();
 403:.\Generated_Source\PSoC5/I2C_1_INT.c ****                 #endif /* I2C_1_SW_ADDR_COMPARE_EXIT_CALLBACK */
 404:.\Generated_Source\PSoC5/I2C_1_INT.c ****                 }
 405:.\Generated_Source\PSoC5/I2C_1_INT.c **** 
 406:.\Generated_Source\PSoC5/I2C_1_INT.c ****             #else /* (I2C_1_HW_ADRR_DECODE) */
 407:.\Generated_Source\PSoC5/I2C_1_INT.c **** 
 408:.\Generated_Source\PSoC5/I2C_1_INT.c ****                 if(0u != (I2C_1_DATA_REG & I2C_1_READ_FLAG))
 409:.\Generated_Source\PSoC5/I2C_1_INT.c ****                 {
ARM GAS  C:\Users\Shiguruy\AppData\Local\Temp\ccMw3Upc.s 			page 18


 410:.\Generated_Source\PSoC5/I2C_1_INT.c ****                     /* Place code to prepare read buffer here                  */
 411:.\Generated_Source\PSoC5/I2C_1_INT.c ****                     /* `#START I2C_1_HW_PREPARE_READ_BUF_interrupt` */
 412:.\Generated_Source\PSoC5/I2C_1_INT.c **** 
 413:.\Generated_Source\PSoC5/I2C_1_INT.c ****                     /* `#END` */
 414:.\Generated_Source\PSoC5/I2C_1_INT.c ****                     
 415:.\Generated_Source\PSoC5/I2C_1_INT.c ****                 #ifdef I2C_1_HW_PREPARE_READ_BUF_CALLBACK
 416:.\Generated_Source\PSoC5/I2C_1_INT.c ****                     I2C_1_HwPrepareReadBuf_Callback();
 417:.\Generated_Source\PSoC5/I2C_1_INT.c ****                 #endif /* I2C_1_HW_PREPARE_READ_BUF_CALLBACK */
 418:.\Generated_Source\PSoC5/I2C_1_INT.c **** 
 419:.\Generated_Source\PSoC5/I2C_1_INT.c ****                     /* Prepare next operation to read, get data and place in data register */
 420:.\Generated_Source\PSoC5/I2C_1_INT.c ****                     if(I2C_1_slRdBufIndex < I2C_1_slRdBufSize)
 421:.\Generated_Source\PSoC5/I2C_1_INT.c ****                     {
 422:.\Generated_Source\PSoC5/I2C_1_INT.c ****                         /* Load first data byte from array */
 423:.\Generated_Source\PSoC5/I2C_1_INT.c ****                         I2C_1_DATA_REG = I2C_1_slRdBufPtr[I2C_1_slRdBufIndex];
 424:.\Generated_Source\PSoC5/I2C_1_INT.c ****                         I2C_1_ACK_AND_TRANSMIT;
 425:.\Generated_Source\PSoC5/I2C_1_INT.c ****                         I2C_1_slRdBufIndex++;
 426:.\Generated_Source\PSoC5/I2C_1_INT.c **** 
 427:.\Generated_Source\PSoC5/I2C_1_INT.c ****                         I2C_1_slStatus |= I2C_1_SSTAT_RD_BUSY;
 428:.\Generated_Source\PSoC5/I2C_1_INT.c ****                     }
 429:.\Generated_Source\PSoC5/I2C_1_INT.c ****                     else    /* Overflow: provide 0xFF on bus */
 430:.\Generated_Source\PSoC5/I2C_1_INT.c ****                     {
 431:.\Generated_Source\PSoC5/I2C_1_INT.c ****                         I2C_1_DATA_REG = I2C_1_OVERFLOW_RETURN;
 432:.\Generated_Source\PSoC5/I2C_1_INT.c ****                         I2C_1_ACK_AND_TRANSMIT;
 433:.\Generated_Source\PSoC5/I2C_1_INT.c **** 
 434:.\Generated_Source\PSoC5/I2C_1_INT.c ****                         I2C_1_slStatus  |= (I2C_1_SSTAT_RD_BUSY |
 435:.\Generated_Source\PSoC5/I2C_1_INT.c ****                                                        I2C_1_SSTAT_RD_ERR_OVFL);
 436:.\Generated_Source\PSoC5/I2C_1_INT.c ****                     }
 437:.\Generated_Source\PSoC5/I2C_1_INT.c **** 
 438:.\Generated_Source\PSoC5/I2C_1_INT.c ****                     I2C_1_state = I2C_1_SM_SL_RD_DATA;
 439:.\Generated_Source\PSoC5/I2C_1_INT.c ****                 }
 440:.\Generated_Source\PSoC5/I2C_1_INT.c ****                 else  /* Write transaction: receive 1st byte */
 441:.\Generated_Source\PSoC5/I2C_1_INT.c ****                 {
 442:.\Generated_Source\PSoC5/I2C_1_INT.c ****                     I2C_1_ACK_AND_RECEIVE;
 443:.\Generated_Source\PSoC5/I2C_1_INT.c ****                     I2C_1_state = I2C_1_SM_SL_WR_DATA;
 444:.\Generated_Source\PSoC5/I2C_1_INT.c **** 
 445:.\Generated_Source\PSoC5/I2C_1_INT.c ****                     I2C_1_slStatus |= I2C_1_SSTAT_WR_BUSY;
 446:.\Generated_Source\PSoC5/I2C_1_INT.c ****                     I2C_1_ENABLE_INT_ON_STOP;
 447:.\Generated_Source\PSoC5/I2C_1_INT.c ****                 }
 448:.\Generated_Source\PSoC5/I2C_1_INT.c **** 
 449:.\Generated_Source\PSoC5/I2C_1_INT.c ****             #endif /* (I2C_1_SW_ADRR_DECODE) */
 450:.\Generated_Source\PSoC5/I2C_1_INT.c ****             }
 451:.\Generated_Source\PSoC5/I2C_1_INT.c ****             /* Data states */
 452:.\Generated_Source\PSoC5/I2C_1_INT.c ****             /* Data master writes into slave */
 453:.\Generated_Source\PSoC5/I2C_1_INT.c ****             else if(I2C_1_state == I2C_1_SM_SL_WR_DATA)
 454:.\Generated_Source\PSoC5/I2C_1_INT.c ****             {
 455:.\Generated_Source\PSoC5/I2C_1_INT.c ****                 if(I2C_1_slWrBufIndex < I2C_1_slWrBufSize)
 456:.\Generated_Source\PSoC5/I2C_1_INT.c ****                 {
 457:.\Generated_Source\PSoC5/I2C_1_INT.c ****                     tmp8 = I2C_1_DATA_REG;
 458:.\Generated_Source\PSoC5/I2C_1_INT.c ****                     I2C_1_ACK_AND_RECEIVE;
 459:.\Generated_Source\PSoC5/I2C_1_INT.c ****                     I2C_1_slWrBufPtr[I2C_1_slWrBufIndex] = tmp8;
 460:.\Generated_Source\PSoC5/I2C_1_INT.c ****                     I2C_1_slWrBufIndex++;
 461:.\Generated_Source\PSoC5/I2C_1_INT.c ****                 }
 462:.\Generated_Source\PSoC5/I2C_1_INT.c ****                 else  /* of array: complete write, send NACK */
 463:.\Generated_Source\PSoC5/I2C_1_INT.c ****                 {
 464:.\Generated_Source\PSoC5/I2C_1_INT.c ****                     I2C_1_NAK_AND_RECEIVE;
 465:.\Generated_Source\PSoC5/I2C_1_INT.c **** 
 466:.\Generated_Source\PSoC5/I2C_1_INT.c ****                     I2C_1_slStatus |= I2C_1_SSTAT_WR_ERR_OVFL;
ARM GAS  C:\Users\Shiguruy\AppData\Local\Temp\ccMw3Upc.s 			page 19


 467:.\Generated_Source\PSoC5/I2C_1_INT.c ****                 }
 468:.\Generated_Source\PSoC5/I2C_1_INT.c ****             }
 469:.\Generated_Source\PSoC5/I2C_1_INT.c ****             /* Data master reads from slave */
 470:.\Generated_Source\PSoC5/I2C_1_INT.c ****             else if(I2C_1_state == I2C_1_SM_SL_RD_DATA)
 471:.\Generated_Source\PSoC5/I2C_1_INT.c ****             {
 472:.\Generated_Source\PSoC5/I2C_1_INT.c ****                 if(I2C_1_CHECK_DATA_ACK(tmpCsr))
 473:.\Generated_Source\PSoC5/I2C_1_INT.c ****                 {
 474:.\Generated_Source\PSoC5/I2C_1_INT.c ****                     if(I2C_1_slRdBufIndex < I2C_1_slRdBufSize)
 475:.\Generated_Source\PSoC5/I2C_1_INT.c ****                     {
 476:.\Generated_Source\PSoC5/I2C_1_INT.c ****                          /* Get data from array */
 477:.\Generated_Source\PSoC5/I2C_1_INT.c ****                         I2C_1_DATA_REG = I2C_1_slRdBufPtr[I2C_1_slRdBufIndex];
 478:.\Generated_Source\PSoC5/I2C_1_INT.c ****                         I2C_1_TRANSMIT_DATA;
 479:.\Generated_Source\PSoC5/I2C_1_INT.c ****                         I2C_1_slRdBufIndex++;
 480:.\Generated_Source\PSoC5/I2C_1_INT.c ****                     }
 481:.\Generated_Source\PSoC5/I2C_1_INT.c ****                     else   /* Overflow: provide 0xFF on bus */
 482:.\Generated_Source\PSoC5/I2C_1_INT.c ****                     {
 483:.\Generated_Source\PSoC5/I2C_1_INT.c ****                         I2C_1_DATA_REG = I2C_1_OVERFLOW_RETURN;
 484:.\Generated_Source\PSoC5/I2C_1_INT.c ****                         I2C_1_TRANSMIT_DATA;
 485:.\Generated_Source\PSoC5/I2C_1_INT.c **** 
 486:.\Generated_Source\PSoC5/I2C_1_INT.c ****                         I2C_1_slStatus |= I2C_1_SSTAT_RD_ERR_OVFL;
 487:.\Generated_Source\PSoC5/I2C_1_INT.c ****                     }
 488:.\Generated_Source\PSoC5/I2C_1_INT.c ****                 }
 489:.\Generated_Source\PSoC5/I2C_1_INT.c ****                 else  /* Last byte was NACKed: read complete */
 490:.\Generated_Source\PSoC5/I2C_1_INT.c ****                 {
 491:.\Generated_Source\PSoC5/I2C_1_INT.c ****                     /* Only NACK appears on bus */
 492:.\Generated_Source\PSoC5/I2C_1_INT.c ****                     I2C_1_DATA_REG = I2C_1_OVERFLOW_RETURN;
 493:.\Generated_Source\PSoC5/I2C_1_INT.c ****                     I2C_1_NAK_AND_TRANSMIT;
 494:.\Generated_Source\PSoC5/I2C_1_INT.c **** 
 495:.\Generated_Source\PSoC5/I2C_1_INT.c ****                     I2C_1_slStatus &= ((uint8) ~I2C_1_SSTAT_RD_BUSY);
 496:.\Generated_Source\PSoC5/I2C_1_INT.c ****                     I2C_1_slStatus |= ((uint8)  I2C_1_SSTAT_RD_CMPLT);
 497:.\Generated_Source\PSoC5/I2C_1_INT.c **** 
 498:.\Generated_Source\PSoC5/I2C_1_INT.c ****                     I2C_1_state = I2C_1_SM_IDLE;
 499:.\Generated_Source\PSoC5/I2C_1_INT.c ****                 }
 500:.\Generated_Source\PSoC5/I2C_1_INT.c ****             }
 501:.\Generated_Source\PSoC5/I2C_1_INT.c ****             else
 502:.\Generated_Source\PSoC5/I2C_1_INT.c ****             {
 503:.\Generated_Source\PSoC5/I2C_1_INT.c ****             #if(I2C_1_TIMEOUT_ENABLED)
 504:.\Generated_Source\PSoC5/I2C_1_INT.c ****                 /* Exit interrupt to take chance for timeout timer to handle this case */
 505:.\Generated_Source\PSoC5/I2C_1_INT.c ****                 I2C_1_DisableInt();
 506:.\Generated_Source\PSoC5/I2C_1_INT.c ****                 I2C_1_ClearPendingInt();
 507:.\Generated_Source\PSoC5/I2C_1_INT.c ****             #else
 508:.\Generated_Source\PSoC5/I2C_1_INT.c ****                 /* Block execution flow: unexpected condition */
 509:.\Generated_Source\PSoC5/I2C_1_INT.c ****                 CYASSERT(0u != 0u);
 510:.\Generated_Source\PSoC5/I2C_1_INT.c ****             #endif /* (I2C_1_TIMEOUT_ENABLED) */
 511:.\Generated_Source\PSoC5/I2C_1_INT.c ****             }
 512:.\Generated_Source\PSoC5/I2C_1_INT.c ****         }
 513:.\Generated_Source\PSoC5/I2C_1_INT.c ****     #endif /* (I2C_1_MODE_SLAVE_ENABLED) */
 514:.\Generated_Source\PSoC5/I2C_1_INT.c ****     }
 515:.\Generated_Source\PSoC5/I2C_1_INT.c ****     else
 516:.\Generated_Source\PSoC5/I2C_1_INT.c ****     {
 517:.\Generated_Source\PSoC5/I2C_1_INT.c ****         /* The FSM skips master and slave processing: return to IDLE */
 518:.\Generated_Source\PSoC5/I2C_1_INT.c ****         I2C_1_state = I2C_1_SM_IDLE;
 540              		.loc 1 518 0
 541 0386 054B     		ldr	r3, .L36+8
 542 0388 1022     		movs	r2, #16
 543 038a 1A70     		strb	r2, [r3]
 544              	.L1:
ARM GAS  C:\Users\Shiguruy\AppData\Local\Temp\ccMw3Upc.s 			page 20


 519:.\Generated_Source\PSoC5/I2C_1_INT.c ****     }
 520:.\Generated_Source\PSoC5/I2C_1_INT.c **** 
 521:.\Generated_Source\PSoC5/I2C_1_INT.c **** #ifdef I2C_1_ISR_EXIT_CALLBACK
 522:.\Generated_Source\PSoC5/I2C_1_INT.c ****     I2C_1_ISR_ExitCallback();
 523:.\Generated_Source\PSoC5/I2C_1_INT.c **** #endif /* I2C_1_ISR_EXIT_CALLBACK */    
 524:.\Generated_Source\PSoC5/I2C_1_INT.c **** }
 545              		.loc 1 524 0
 546 038c 0837     		adds	r7, r7, #8
 547              		.cfi_def_cfa_offset 8
 548 038e BD46     		mov	sp, r7
 549              		.cfi_def_cfa_register 13
 550              		@ sp needed
 551 0390 80BD     		pop	{r7, pc}
 552              	.L37:
 553 0392 00BF     		.align	2
 554              	.L36:
 555 0394 00000000 		.word	I2C_1_mstrControl
 556 0398 00000000 		.word	I2C_1_mstrStatus
 557 039c 00000000 		.word	I2C_1_state
 558 03a0 80E100E0 		.word	-536813184
 559 03a4 D6490040 		.word	1073760726
 560 03a8 D7490040 		.word	1073760727
 561              		.cfi_endproc
 562              	.LFE0:
 563              		.size	I2C_1_ISR, .-I2C_1_ISR
 564              		.text
 565              	.Letext0:
 566              		.file 2 ".\\Generated_Source\\PSoC5\\cytypes.h"
 567              		.file 3 ".\\Generated_Source\\PSoC5\\I2C_1_PVT.h"