ARM GAS  C:\Users\KJA\AppData\Local\Temp\ccbnGHAr.s 			page 1


   1              		.syntax unified
   2              		.cpu cortex-m3
   3              		.fpu softvfp
   4              		.eabi_attribute 20, 1
   5              		.eabi_attribute 21, 1
   6              		.eabi_attribute 23, 3
   7              		.eabi_attribute 24, 1
   8              		.eabi_attribute 25, 1
   9              		.eabi_attribute 26, 1
  10              		.eabi_attribute 30, 6
  11              		.eabi_attribute 34, 1
  12              		.eabi_attribute 18, 4
  13              		.thumb
  14              		.file	"LCD_Menu.c"
  15              		.text
  16              	.Ltext0:
  17              		.cfi_sections	.debug_frame
  18              		.comm	Current_State,1,1
  19              		.comm	Previous_State,1,1
  20              		.comm	Sound_Enable,1,1
  21              		.comm	Current_Menu_Position,1,1
  22              		.comm	CurrentBacklightValue,1,1
  23              		.comm	CurrentBacklightValueString,8,4
  24              		.comm	CurrentVolumeValue,1,1
  25              		.comm	CurrentVolumeValueString,8,4
  26              		.comm	Current_Calibration_Range1,4,4
  27              		.comm	Current_Calibration_Range2,4,4
  28              		.comm	Current_Calibration_Range3,4,4
  29              		.comm	LEM_Offset_Value,1,1
  30              		.comm	Two_Wire_Range,4,4
  31              		.comm	Four_Wire_Range,4,4
  32              		.comm	Four_Wire_Method,1,1
  33              		.comm	Actual_Range,1,1
  34              		.comm	View_Mode,1,1
  35              		.comm	qdCount,2,2
  36              		.comm	Last_qdCount,2,2
  37              		.comm	button1,1,1
  38              		.comm	button2,1,1
  39              		.comm	button3,1,1
  40              		.comm	button4,1,1
  41              		.comm	button5,1,1
  42              		.comm	button6,1,1
  43              		.comm	push,1,1
  44              		.comm	OutputEnable,1,1
  45              		.comm	u8g,60,4
  46              		.comm	Push_Buzzer__Default_Lenght,4,4
  47              		.comm	Rotate_Buzzer__Default_Lenght,4,4
  48              		.comm	Edit_Value_Mode,1,1
  49              		.comm	cVoltage_Actual,16,4
  50              		.comm	cCurrent_Actual,16,4
  51              		.comm	cPower_Actual,16,4
  52              		.comm	cResist_Actual,16,4
  53              		.comm	cVoltage_Set,16,4
  54              		.comm	cCurrent_Set,16,4
  55              		.comm	cPower_Set,16,4
  56              		.comm	cResist_Set,16,4
  57              		.comm	TestChar,16,4
ARM GAS  C:\Users\KJA\AppData\Local\Temp\ccbnGHAr.s 			page 2


  58              		.comm	XPosition,2,2
  59              		.comm	cXPosition,16,4
  60              		.comm	YPosition,2,2
  61              		.comm	cYPosition,16,4
  62              		.comm	Touched,1,1
  63              		.comm	MeasuredVoltage,2,2
  64              		.comm	fVoltage,4,4
  65              		.comm	MeasuredCurrent,2,2
  66              		.comm	fCurrent,4,4
  67              		.comm	Power,2,2
  68              		.comm	fPower,4,4
  69              		.comm	Resist,2,2
  70              		.comm	fResist,4,4
  71              		.comm	Set_Voltage,4,4
  72              		.comm	Set_Current,4,4
  73              		.comm	Set_Current_Temporary_Value,4,4
  74              		.comm	Set_Power,4,4
  75              		.comm	Set_Power_Temporary_Value,4,4
  76              		.comm	Set_Resist,4,4
  77              		.comm	Set_Resist_Temporary_Value,4,4
  78              		.comm	Position_Number,1,1
  79              		.comm	MaxPower,4,4
  80              		.comm	MaxVoltage,4,4
  81              		.comm	MaxCurrent,4,4
  82              		.comm	MinResistance,4,4
  83              		.comm	MaxResistance,4,4
  84              		.comm	C_Kp,4,4
  85              		.comm	C_Ki,4,4
  86              		.comm	C_Kd,4,4
  87              		.comm	Max_FET_Temp,1,1
  88              		.comm	OverTemperature,1,1
  89              		.comm	Set_Ampl,2,2
  90              		.comm	Set_Ampl_Temporary_Value,2,2
  91              		.comm	Set_Freq,2,2
  92              		.comm	Set_Freq_Temporary_Value,4,4
  93              		.comm	Set_Duty,1,1
  94              		.comm	Set_Duty_Temporary_Value,1,1
  95              		.comm	cSet_Ampl,16,4
  96              		.comm	cSet_Freq,16,4
  97              		.comm	cSet_Duty,16,4
  98              		.comm	Current_Edit_Value,1,1
  99              		.comm	Actual_Multiplier_Value,1,1
 100              		.comm	cCounter,32,4
 101              		.comm	deltaT,1,1
 102              		.comm	Avarage_FET_Temp,4,4
 103              		.comm	Current_DIE_Temp,2,2
 104              		.comm	Current_DIE_TempString,8,4
 105              		.comm	Current_FET_Temp,1,1
 106              		.comm	Current_FET_TempString,8,4
 107              		.section	.rodata
 108              		.align	2
 109              	.LC0:
 110 0000 4572726F 		.ascii	"Error!\000"
 110      722100
 111 0007 00       		.align	2
 112              	.LC1:
 113 0008 4F766572 		.ascii	"Over Voltage!\000"
ARM GAS  C:\Users\KJA\AppData\Local\Temp\ccbnGHAr.s 			page 3


 113      20566F6C 
 113      74616765 
 113      2100
 114 0016 0000     		.align	2
 115              	.LC2:
 116 0018 3E507265 		.ascii	">Press any key<\000"
 116      73732061 
 116      6E79206B 
 116      65793C00 
 117              		.align	2
 118              	.LC3:
 119 0028 52657620 		.ascii	"Rev Polarity!\000"
 119      506F6C61 
 119      72697479 
 119      2100
 120 0036 0000     		.align	2
 121              	.LC4:
 122 0038 4F766572 		.ascii	"Over Heat!\000"
 122      20486561 
 122      742100
 123 0043 00       		.align	2
 124              	.LC5:
 125 0044 4E6F2053 		.ascii	"No Supply!\000"
 125      7570706C 
 125      792100
 126 004f 00       		.align	2
 127              	.LC6:
 128 0050 4F766572 		.ascii	"Over Current!\000"
 128      20437572 
 128      72656E74 
 128      2100
 129 005e 0000     		.align	2
 130              	.LC7:
 131 0060 41726269 		.ascii	"Arbitrary Mode\000"
 131      74726172 
 131      79204D6F 
 131      646500
 132 006f 00       		.align	2
 133              	.LC8:
 134 0070 42617420 		.ascii	"Bat Discharge\000"
 134      44697363 
 134      68617267 
 134      6500
 135 007e 0000     		.align	2
 136              	.LC9:
 137 0080 53657474 		.ascii	"Settings\000"
 137      696E6773 
 137      00
 138 0089 000000   		.align	2
 139              	.LC10:
 140 008c 436F6E73 		.ascii	"Constant Mode\000"
 140      74616E74 
 140      204D6F64 
 140      6500
 141 009a 0000     		.align	2
 142              	.LC11:
 143 009c 46756E63 		.ascii	"Function Mode\000"
ARM GAS  C:\Users\KJA\AppData\Local\Temp\ccbnGHAr.s 			page 4


 143      74696F6E 
 143      204D6F64 
 143      6500
 144 00aa 0000     		.align	2
 145              	.LC12:
 146 00ac 436F6E73 		.ascii	"Const Current\000"
 146      74204375 
 146      7272656E 
 146      7400
 147 00ba 0000     		.align	2
 148              	.LC13:
 149 00bc 436F6E73 		.ascii	"Const Power\000"
 149      7420506F 
 149      77657200 
 150              		.align	2
 151              	.LC14:
 152 00c8 436F6E73 		.ascii	"Const Resist\000"
 152      74205265 
 152      73697374 
 152      00
 153 00d5 000000   		.align	2
 154              	.LC15:
 155 00d8 20202020 		.ascii	"          <-Back\000"
 155      20202020 
 155      20203C2D 
 155      4261636B 
 155      00
 156 00e9 000000   		.align	2
 157              	.LC16:
 158 00ec 57617665 		.ascii	"Waveform Mode\000"
 158      666F726D 
 158      204D6F64 
 158      6500
 159 00fa 0000     		.align	2
 160              	.LC17:
 161 00fc 50574D20 		.ascii	"PWM Mode\000"
 161      4D6F6465 
 161      00
 162 0105 000000   		.align	2
 163              	.LC18:
 164 0108 45787465 		.ascii	"External Drive\000"
 164      726E616C 
 164      20447269 
 164      766500
 165 0117 00       		.align	2
 166              	.LC19:
 167 0118 57617665 		.ascii	"WaveForm_Mode\000"
 167      466F726D 
 167      5F4D6F64 
 167      6500
 168 0126 0000     		.align	2
 169              	.LC20:
 170 0128 416D706C 		.ascii	"Ampl:\000"
 170      3A00
 171 012e 0000     		.align	2
 172              	.LC21:
 173 0130 46726571 		.ascii	"Freq:\000"
ARM GAS  C:\Users\KJA\AppData\Local\Temp\ccbnGHAr.s 			page 5


 173      3A00
 174 0136 0000     		.align	2
 175              	.LC22:
 176 0138 44757479 		.ascii	"Duty:\000"
 176      3A00
 177 013e 0000     		.align	2
 178              	.LC23:
 179 0140 73657400 		.ascii	"set\000"
 180              		.align	2
 181              	.LC24:
 182 0144 6F6B00   		.ascii	"ok\000"
 183 0147 00       		.align	2
 184              	.LC25:
 185 0148 45787465 		.ascii	"External_Drive\000"
 185      726E616C 
 185      5F447269 
 185      766500
 186 0157 00       		.align	2
 187              	.LC26:
 188 0158 4261636B 		.ascii	"Backlight\000"
 188      6C696768 
 188      7400
 189 0162 0000     		.align	2
 190              	.LC27:
 191 0164 566F6C75 		.ascii	"Volume:\000"
 191      6D653A00 
 192              		.align	2
 193              	.LC28:
 194 016c 54656D70 		.ascii	"Temperature\000"
 194      65726174 
 194      75726500 
 195              		.align	2
 196              	.LC29:
 197 0178 566F6C75 		.ascii	"Volume\000"
 197      6D6500
 198 017f 00       		.align	2
 199              	.LC30:
 200 0180 44494520 		.ascii	"DIE Temp\000"
 200      54656D70 
 200      00
 201 0189 000000   		.align	2
 202              	.LC31:
 203 018c 46455420 		.ascii	"FET Temp\000"
 203      54656D70 
 203      00
 204 0195 000000   		.align	2
 205              	.LC32:
 206 0198 494E5420 		.ascii	"INT Temp   N/C\000"
 206      54656D70 
 206      2020204E 
 206      2F4300
 207              		.global	__aeabi_fcmplt
 208 01a7 00       		.align	2
 209              	.LC33:
 210 01a8 4F686D00 		.ascii	"Ohm\000"
 211              		.align	2
 212              	.LC34:
ARM GAS  C:\Users\KJA\AppData\Local\Temp\ccbnGHAr.s 			page 6


 213 01ac 325700   		.ascii	"2W\000"
 214 01af 00       		.align	2
 215              	.LC35:
 216 01b0 345700   		.ascii	"4W\000"
 217 01b3 00       		.align	2
 218              	.LC36:
 219 01b4 6000     		.ascii	"`\000"
 220 01b6 0000     		.section	.text.LCD_Draw,"ax",%progbits
 221              		.align	2
 222              		.global	LCD_Draw
 223              		.thumb
 224              		.thumb_func
 225              		.type	LCD_Draw, %function
 226              	LCD_Draw:
 227              	.LFB63:
 228              		.file 1 "LCD_Menu.c"
   1:LCD_Menu.c    **** #include "LCD_Menu.h"
   2:LCD_Menu.c    **** #include "global_variables.h"
   3:LCD_Menu.c    **** #include "u8g_arm.h"
   4:LCD_Menu.c    **** #include "temp_manage.h"
   5:LCD_Menu.c    **** 
   6:LCD_Menu.c    **** void LCD_Draw(uint8 PageName, uint8 Current_Menu_Position){
 229              		.loc 1 6 0
 230              		.cfi_startproc
 231              		@ args = 0, pretend = 0, frame = 24
 232              		@ frame_needed = 1, uses_anonymous_args = 0
 233 0000 90B5     		push	{r4, r7, lr}
 234              		.cfi_def_cfa_offset 12
 235              		.cfi_offset 4, -12
 236              		.cfi_offset 7, -8
 237              		.cfi_offset 14, -4
 238 0002 8BB0     		sub	sp, sp, #44
 239              		.cfi_def_cfa_offset 56
 240 0004 04AF     		add	r7, sp, #16
 241              		.cfi_def_cfa 7, 40
 242 0006 0346     		mov	r3, r0
 243 0008 0A46     		mov	r2, r1
 244 000a FB71     		strb	r3, [r7, #7]
 245 000c 1346     		mov	r3, r2
 246 000e BB71     		strb	r3, [r7, #6]
   7:LCD_Menu.c    **** 
   8:LCD_Menu.c    ****     enum State PageNamee;
   9:LCD_Menu.c    ****     PageNamee = PageName;
 247              		.loc 1 9 0
 248 0010 FB79     		ldrb	r3, [r7, #7]
 249 0012 BB73     		strb	r3, [r7, #14]
  10:LCD_Menu.c    ****     
  11:LCD_Menu.c    ****     switch(PageNamee){
 250              		.loc 1 11 0
 251 0014 BB7B     		ldrb	r3, [r7, #14]	@ zero_extendqisi2
 252 0016 122B     		cmp	r3, #18
 253 0018 01F2F085 		bhi	.L221
 254 001c 01A2     		adr	r2, .L4
 255 001e 52F823F0 		ldr	pc, [r2, r3, lsl #2]
 256 0022 00BF     		.p2align 2
 257              	.L4:
 258 0024 3D020000 		.word	.L3+1
ARM GAS  C:\Users\KJA\AppData\Local\Temp\ccbnGHAr.s 			page 7


 259 0028 E1020000 		.word	.L5+1
 260 002c CF030000 		.word	.L6+1
 261 0030 BD040000 		.word	.L7+1
 262 0034 CD180000 		.word	.L8+1
 263 0038 E50C0000 		.word	.L9+1
 264 003c 290C0000 		.word	.L10+1
 265 0040 6D0B0000 		.word	.L11+1
 266 0044 210E0000 		.word	.L12+1
 267 0048 A9140000 		.word	.L13+1
 268 004c 390F0000 		.word	.L14+1
 269 0050 C9000000 		.word	.L15+1
 270 0054 71000000 		.word	.L16+1
 271 0058 8D010000 		.word	.L17+1
 272 005c 21010000 		.word	.L18+1
 273 0060 E5010000 		.word	.L19+1
 274 0064 E1050000 		.word	.L20+1
 275 0068 11060000 		.word	.L21+1
 276 006c 0F0B0000 		.word	.L22+1
 277              		.p2align 1
 278              	.L16:
  12:LCD_Menu.c    ****         
  13:LCD_Menu.c    ****     case Error_OV:
  14:LCD_Menu.c    ****         u8g_FirstPage(&u8g);
 279              		.loc 1 14 0
 280 0070 8D48     		ldr	r0, .L222
 281 0072 FFF7FEFF 		bl	u8g_FirstPage
 282              	.L23:
  15:LCD_Menu.c    ****             do{
  16:LCD_Menu.c    ****                 u8g_SetDefaultForegroundColor(&u8g);         
 283              		.loc 1 16 0 discriminator 1
 284 0076 8C48     		ldr	r0, .L222
 285 0078 FFF7FEFF 		bl	u8g_SetDefaultForegroundColor
  17:LCD_Menu.c    ****                 u8g_SetFont(&u8g, u8g_font_unifont);                
 286              		.loc 1 17 0 discriminator 1
 287 007c 8A48     		ldr	r0, .L222
 288 007e 8B49     		ldr	r1, .L222+4
 289 0080 FFF7FEFF 		bl	u8g_SetFont
  18:LCD_Menu.c    ****                 u8g_DrawStr(&u8g,  40, 12, "Error!");
 290              		.loc 1 18 0 discriminator 1
 291 0084 8848     		ldr	r0, .L222
 292 0086 2821     		movs	r1, #40
 293 0088 0C22     		movs	r2, #12
 294 008a 894B     		ldr	r3, .L222+8
 295 008c FFF7FEFF 		bl	u8g_DrawStr
  19:LCD_Menu.c    ****                 u8g_SetFont(&u8g, u8g_font_unifont);                
 296              		.loc 1 19 0 discriminator 1
 297 0090 8548     		ldr	r0, .L222
 298 0092 8649     		ldr	r1, .L222+4
 299 0094 FFF7FEFF 		bl	u8g_SetFont
  20:LCD_Menu.c    ****                 u8g_DrawStr(&u8g,  2, 28, "Over Voltage!");
 300              		.loc 1 20 0 discriminator 1
 301 0098 8348     		ldr	r0, .L222
 302 009a 0221     		movs	r1, #2
 303 009c 1C22     		movs	r2, #28
 304 009e 854B     		ldr	r3, .L222+12
 305 00a0 FFF7FEFF 		bl	u8g_DrawStr
  21:LCD_Menu.c    ****                 
ARM GAS  C:\Users\KJA\AppData\Local\Temp\ccbnGHAr.s 			page 8


  22:LCD_Menu.c    ****                 u8g_SetFont(&u8g, u8g_font_unifont);                
 306              		.loc 1 22 0 discriminator 1
 307 00a4 8048     		ldr	r0, .L222
 308 00a6 8149     		ldr	r1, .L222+4
 309 00a8 FFF7FEFF 		bl	u8g_SetFont
  23:LCD_Menu.c    ****                 u8g_DrawStr(&u8g,  4, 60, ">Press any key<");                
 310              		.loc 1 23 0 discriminator 1
 311 00ac 7E48     		ldr	r0, .L222
 312 00ae 0421     		movs	r1, #4
 313 00b0 3C22     		movs	r2, #60
 314 00b2 814B     		ldr	r3, .L222+16
 315 00b4 FFF7FEFF 		bl	u8g_DrawStr
  24:LCD_Menu.c    **** 
  25:LCD_Menu.c    ****             } while ( u8g_NextPage(&u8g) );
 316              		.loc 1 25 0 discriminator 1
 317 00b8 7B48     		ldr	r0, .L222
 318 00ba FFF7FEFF 		bl	u8g_NextPage
 319 00be 0346     		mov	r3, r0
 320 00c0 002B     		cmp	r3, #0
 321 00c2 D8D1     		bne	.L23
  26:LCD_Menu.c    ****       break;
 322              		.loc 1 26 0
 323 00c4 01F09BBD 		b	.L1
 324              	.L15:
  27:LCD_Menu.c    ****         
  28:LCD_Menu.c    ****         case Error_RP:
  29:LCD_Menu.c    ****         u8g_FirstPage(&u8g);
 325              		.loc 1 29 0
 326 00c8 7748     		ldr	r0, .L222
 327 00ca FFF7FEFF 		bl	u8g_FirstPage
 328              	.L25:
  30:LCD_Menu.c    ****             do{
  31:LCD_Menu.c    ****                 u8g_SetDefaultForegroundColor(&u8g);         
 329              		.loc 1 31 0 discriminator 1
 330 00ce 7648     		ldr	r0, .L222
 331 00d0 FFF7FEFF 		bl	u8g_SetDefaultForegroundColor
  32:LCD_Menu.c    ****                 u8g_SetFont(&u8g, u8g_font_unifont);                
 332              		.loc 1 32 0 discriminator 1
 333 00d4 7448     		ldr	r0, .L222
 334 00d6 7549     		ldr	r1, .L222+4
 335 00d8 FFF7FEFF 		bl	u8g_SetFont
  33:LCD_Menu.c    ****                 u8g_DrawStr(&u8g,  40, 12, "Error!");
 336              		.loc 1 33 0 discriminator 1
 337 00dc 7248     		ldr	r0, .L222
 338 00de 2821     		movs	r1, #40
 339 00e0 0C22     		movs	r2, #12
 340 00e2 734B     		ldr	r3, .L222+8
 341 00e4 FFF7FEFF 		bl	u8g_DrawStr
  34:LCD_Menu.c    ****                 u8g_SetFont(&u8g, u8g_font_unifont);                
 342              		.loc 1 34 0 discriminator 1
 343 00e8 6F48     		ldr	r0, .L222
 344 00ea 7049     		ldr	r1, .L222+4
 345 00ec FFF7FEFF 		bl	u8g_SetFont
  35:LCD_Menu.c    ****                 u8g_DrawStr(&u8g,  2, 28, "Rev Polarity!");
 346              		.loc 1 35 0 discriminator 1
 347 00f0 6D48     		ldr	r0, .L222
 348 00f2 0221     		movs	r1, #2
ARM GAS  C:\Users\KJA\AppData\Local\Temp\ccbnGHAr.s 			page 9


 349 00f4 1C22     		movs	r2, #28
 350 00f6 714B     		ldr	r3, .L222+20
 351 00f8 FFF7FEFF 		bl	u8g_DrawStr
  36:LCD_Menu.c    ****                 
  37:LCD_Menu.c    ****                 u8g_SetFont(&u8g, u8g_font_unifont);                
 352              		.loc 1 37 0 discriminator 1
 353 00fc 6A48     		ldr	r0, .L222
 354 00fe 6B49     		ldr	r1, .L222+4
 355 0100 FFF7FEFF 		bl	u8g_SetFont
  38:LCD_Menu.c    ****                 u8g_DrawStr(&u8g,  4, 60, ">Press any key<");                
 356              		.loc 1 38 0 discriminator 1
 357 0104 6848     		ldr	r0, .L222
 358 0106 0421     		movs	r1, #4
 359 0108 3C22     		movs	r2, #60
 360 010a 6B4B     		ldr	r3, .L222+16
 361 010c FFF7FEFF 		bl	u8g_DrawStr
  39:LCD_Menu.c    **** 
  40:LCD_Menu.c    ****             } while ( u8g_NextPage(&u8g) );
 362              		.loc 1 40 0 discriminator 1
 363 0110 6548     		ldr	r0, .L222
 364 0112 FFF7FEFF 		bl	u8g_NextPage
 365 0116 0346     		mov	r3, r0
 366 0118 002B     		cmp	r3, #0
 367 011a D8D1     		bne	.L25
  41:LCD_Menu.c    ****       break;        
 368              		.loc 1 41 0
 369 011c 01F06FBD 		b	.L1
 370              	.L18:
  42:LCD_Menu.c    ****         
  43:LCD_Menu.c    ****         case Error_OT:
  44:LCD_Menu.c    ****         u8g_FirstPage(&u8g);
 371              		.loc 1 44 0
 372 0120 6148     		ldr	r0, .L222
 373 0122 FFF7FEFF 		bl	u8g_FirstPage
 374              	.L26:
  45:LCD_Menu.c    ****             do{
  46:LCD_Menu.c    ****                 u8g_SetDefaultForegroundColor(&u8g);         
 375              		.loc 1 46 0 discriminator 1
 376 0126 6048     		ldr	r0, .L222
 377 0128 FFF7FEFF 		bl	u8g_SetDefaultForegroundColor
  47:LCD_Menu.c    ****                 u8g_SetFont(&u8g, u8g_font_unifont);                
 378              		.loc 1 47 0 discriminator 1
 379 012c 5E48     		ldr	r0, .L222
 380 012e 5F49     		ldr	r1, .L222+4
 381 0130 FFF7FEFF 		bl	u8g_SetFont
  48:LCD_Menu.c    ****                 u8g_DrawStr(&u8g,  40, 12, "Error!");
 382              		.loc 1 48 0 discriminator 1
 383 0134 5C48     		ldr	r0, .L222
 384 0136 2821     		movs	r1, #40
 385 0138 0C22     		movs	r2, #12
 386 013a 5D4B     		ldr	r3, .L222+8
 387 013c FFF7FEFF 		bl	u8g_DrawStr
  49:LCD_Menu.c    ****                 u8g_SetFont(&u8g, u8g_font_unifont);                
 388              		.loc 1 49 0 discriminator 1
 389 0140 5948     		ldr	r0, .L222
 390 0142 5A49     		ldr	r1, .L222+4
 391 0144 FFF7FEFF 		bl	u8g_SetFont
ARM GAS  C:\Users\KJA\AppData\Local\Temp\ccbnGHAr.s 			page 10


  50:LCD_Menu.c    ****                 u8g_DrawStr(&u8g,  2, 28, "Over Heat!");
 392              		.loc 1 50 0 discriminator 1
 393 0148 5748     		ldr	r0, .L222
 394 014a 0221     		movs	r1, #2
 395 014c 1C22     		movs	r2, #28
 396 014e 5C4B     		ldr	r3, .L222+24
 397 0150 FFF7FEFF 		bl	u8g_DrawStr
  51:LCD_Menu.c    ****                 u8g_SetFont(&u8g, u8g_font_unifont);                
 398              		.loc 1 51 0 discriminator 1
 399 0154 5448     		ldr	r0, .L222
 400 0156 5549     		ldr	r1, .L222+4
 401 0158 FFF7FEFF 		bl	u8g_SetFont
  52:LCD_Menu.c    ****                 u8g_DrawStr(&u8g,  2, 43, Current_DIE_TempString);
 402              		.loc 1 52 0 discriminator 1
 403 015c 5248     		ldr	r0, .L222
 404 015e 0221     		movs	r1, #2
 405 0160 2B22     		movs	r2, #43
 406 0162 584B     		ldr	r3, .L222+28
 407 0164 FFF7FEFF 		bl	u8g_DrawStr
  53:LCD_Menu.c    ****                 
  54:LCD_Menu.c    ****                 u8g_SetFont(&u8g, u8g_font_unifont);                
 408              		.loc 1 54 0 discriminator 1
 409 0168 4F48     		ldr	r0, .L222
 410 016a 5049     		ldr	r1, .L222+4
 411 016c FFF7FEFF 		bl	u8g_SetFont
  55:LCD_Menu.c    ****                 u8g_DrawStr(&u8g,  4, 60, ">Press any key<");                
 412              		.loc 1 55 0 discriminator 1
 413 0170 4D48     		ldr	r0, .L222
 414 0172 0421     		movs	r1, #4
 415 0174 3C22     		movs	r2, #60
 416 0176 504B     		ldr	r3, .L222+16
 417 0178 FFF7FEFF 		bl	u8g_DrawStr
  56:LCD_Menu.c    **** 
  57:LCD_Menu.c    ****             } while ( u8g_NextPage(&u8g) );
 418              		.loc 1 57 0 discriminator 1
 419 017c 4A48     		ldr	r0, .L222
 420 017e FFF7FEFF 		bl	u8g_NextPage
 421 0182 0346     		mov	r3, r0
 422 0184 002B     		cmp	r3, #0
 423 0186 CED1     		bne	.L26
  58:LCD_Menu.c    ****       break;
 424              		.loc 1 58 0
 425 0188 01F039BD 		b	.L1
 426              	.L17:
  59:LCD_Menu.c    ****         
  60:LCD_Menu.c    ****         case Error_NC:
  61:LCD_Menu.c    ****             u8g_FirstPage(&u8g);
 427              		.loc 1 61 0
 428 018c 4648     		ldr	r0, .L222
 429 018e FFF7FEFF 		bl	u8g_FirstPage
 430              	.L27:
  62:LCD_Menu.c    ****             do{
  63:LCD_Menu.c    ****                 u8g_SetDefaultForegroundColor(&u8g);         
 431              		.loc 1 63 0 discriminator 1
 432 0192 4548     		ldr	r0, .L222
 433 0194 FFF7FEFF 		bl	u8g_SetDefaultForegroundColor
  64:LCD_Menu.c    ****                 u8g_SetFont(&u8g, u8g_font_unifont);                
ARM GAS  C:\Users\KJA\AppData\Local\Temp\ccbnGHAr.s 			page 11


 434              		.loc 1 64 0 discriminator 1
 435 0198 4348     		ldr	r0, .L222
 436 019a 4449     		ldr	r1, .L222+4
 437 019c FFF7FEFF 		bl	u8g_SetFont
  65:LCD_Menu.c    ****                 u8g_DrawStr(&u8g,  40, 12, "Error!");
 438              		.loc 1 65 0 discriminator 1
 439 01a0 4148     		ldr	r0, .L222
 440 01a2 2821     		movs	r1, #40
 441 01a4 0C22     		movs	r2, #12
 442 01a6 424B     		ldr	r3, .L222+8
 443 01a8 FFF7FEFF 		bl	u8g_DrawStr
  66:LCD_Menu.c    ****                 u8g_SetFont(&u8g, u8g_font_unifont);                
 444              		.loc 1 66 0 discriminator 1
 445 01ac 3E48     		ldr	r0, .L222
 446 01ae 3F49     		ldr	r1, .L222+4
 447 01b0 FFF7FEFF 		bl	u8g_SetFont
  67:LCD_Menu.c    ****                 u8g_DrawStr(&u8g,  2, 28, "No Supply!");
 448              		.loc 1 67 0 discriminator 1
 449 01b4 3C48     		ldr	r0, .L222
 450 01b6 0221     		movs	r1, #2
 451 01b8 1C22     		movs	r2, #28
 452 01ba 434B     		ldr	r3, .L222+32
 453 01bc FFF7FEFF 		bl	u8g_DrawStr
  68:LCD_Menu.c    ****                 
  69:LCD_Menu.c    ****                 u8g_SetFont(&u8g, u8g_font_unifont);                
 454              		.loc 1 69 0 discriminator 1
 455 01c0 3948     		ldr	r0, .L222
 456 01c2 3A49     		ldr	r1, .L222+4
 457 01c4 FFF7FEFF 		bl	u8g_SetFont
  70:LCD_Menu.c    ****                 u8g_DrawStr(&u8g,  4, 60, ">Press any key<");                
 458              		.loc 1 70 0 discriminator 1
 459 01c8 3748     		ldr	r0, .L222
 460 01ca 0421     		movs	r1, #4
 461 01cc 3C22     		movs	r2, #60
 462 01ce 3A4B     		ldr	r3, .L222+16
 463 01d0 FFF7FEFF 		bl	u8g_DrawStr
  71:LCD_Menu.c    **** 
  72:LCD_Menu.c    ****             } while ( u8g_NextPage(&u8g) );
 464              		.loc 1 72 0 discriminator 1
 465 01d4 3448     		ldr	r0, .L222
 466 01d6 FFF7FEFF 		bl	u8g_NextPage
 467 01da 0346     		mov	r3, r0
 468 01dc 002B     		cmp	r3, #0
 469 01de D8D1     		bne	.L27
  73:LCD_Menu.c    ****       break;
 470              		.loc 1 73 0
 471 01e0 01F00DBD 		b	.L1
 472              	.L19:
  74:LCD_Menu.c    ****             
  75:LCD_Menu.c    ****        case Error_OC:
  76:LCD_Menu.c    ****         u8g_FirstPage(&u8g);
 473              		.loc 1 76 0
 474 01e4 3048     		ldr	r0, .L222
 475 01e6 FFF7FEFF 		bl	u8g_FirstPage
 476              	.L28:
  77:LCD_Menu.c    ****             do{
  78:LCD_Menu.c    ****                 u8g_SetDefaultForegroundColor(&u8g);         
ARM GAS  C:\Users\KJA\AppData\Local\Temp\ccbnGHAr.s 			page 12


 477              		.loc 1 78 0 discriminator 1
 478 01ea 2F48     		ldr	r0, .L222
 479 01ec FFF7FEFF 		bl	u8g_SetDefaultForegroundColor
  79:LCD_Menu.c    ****                 u8g_SetFont(&u8g, u8g_font_unifont);                
 480              		.loc 1 79 0 discriminator 1
 481 01f0 2D48     		ldr	r0, .L222
 482 01f2 2E49     		ldr	r1, .L222+4
 483 01f4 FFF7FEFF 		bl	u8g_SetFont
  80:LCD_Menu.c    ****                 u8g_DrawStr(&u8g,  40, 12, "Error!");
 484              		.loc 1 80 0 discriminator 1
 485 01f8 2B48     		ldr	r0, .L222
 486 01fa 2821     		movs	r1, #40
 487 01fc 0C22     		movs	r2, #12
 488 01fe 2C4B     		ldr	r3, .L222+8
 489 0200 FFF7FEFF 		bl	u8g_DrawStr
  81:LCD_Menu.c    ****                 u8g_SetFont(&u8g, u8g_font_unifont);                
 490              		.loc 1 81 0 discriminator 1
 491 0204 2848     		ldr	r0, .L222
 492 0206 2949     		ldr	r1, .L222+4
 493 0208 FFF7FEFF 		bl	u8g_SetFont
  82:LCD_Menu.c    ****                 u8g_DrawStr(&u8g,  2, 28, "Over Current!");
 494              		.loc 1 82 0 discriminator 1
 495 020c 2648     		ldr	r0, .L222
 496 020e 0221     		movs	r1, #2
 497 0210 1C22     		movs	r2, #28
 498 0212 2E4B     		ldr	r3, .L222+36
 499 0214 FFF7FEFF 		bl	u8g_DrawStr
  83:LCD_Menu.c    ****                 
  84:LCD_Menu.c    ****                 u8g_SetFont(&u8g, u8g_font_unifont);                
 500              		.loc 1 84 0 discriminator 1
 501 0218 2348     		ldr	r0, .L222
 502 021a 2449     		ldr	r1, .L222+4
 503 021c FFF7FEFF 		bl	u8g_SetFont
  85:LCD_Menu.c    ****                 u8g_DrawStr(&u8g,  4, 60, ">Press any key<");                
 504              		.loc 1 85 0 discriminator 1
 505 0220 2148     		ldr	r0, .L222
 506 0222 0421     		movs	r1, #4
 507 0224 3C22     		movs	r2, #60
 508 0226 244B     		ldr	r3, .L222+16
 509 0228 FFF7FEFF 		bl	u8g_DrawStr
  86:LCD_Menu.c    **** 
  87:LCD_Menu.c    ****             } while ( u8g_NextPage(&u8g) );
 510              		.loc 1 87 0 discriminator 1
 511 022c 1E48     		ldr	r0, .L222
 512 022e FFF7FEFF 		bl	u8g_NextPage
 513 0232 0346     		mov	r3, r0
 514 0234 002B     		cmp	r3, #0
 515 0236 D8D1     		bne	.L28
  88:LCD_Menu.c    ****       break;
 516              		.loc 1 88 0
 517 0238 01F0E1BC 		b	.L1
 518              	.L3:
  89:LCD_Menu.c    ****         
  90:LCD_Menu.c    ****       case Develop:
  91:LCD_Menu.c    ****         u8g_FirstPage(&u8g);
 519              		.loc 1 91 0
 520 023c 1A48     		ldr	r0, .L222
ARM GAS  C:\Users\KJA\AppData\Local\Temp\ccbnGHAr.s 			page 13


 521 023e FFF7FEFF 		bl	u8g_FirstPage
 522              	.L29:
  92:LCD_Menu.c    ****         do{
  93:LCD_Menu.c    ****             u8g_SetDefaultForegroundColor(&u8g);         
 523              		.loc 1 93 0 discriminator 1
 524 0242 1948     		ldr	r0, .L222
 525 0244 FFF7FEFF 		bl	u8g_SetDefaultForegroundColor
  94:LCD_Menu.c    ****             
  95:LCD_Menu.c    ****             u8g_SetFont(&u8g, u8g_font_unifont);   
 526              		.loc 1 95 0 discriminator 1
 527 0248 1748     		ldr	r0, .L222
 528 024a 1849     		ldr	r1, .L222+4
 529 024c FFF7FEFF 		bl	u8g_SetFont
  96:LCD_Menu.c    ****             u8g_DrawStr(&u8g,  2, 13, cCounter);
 530              		.loc 1 96 0 discriminator 1
 531 0250 1548     		ldr	r0, .L222
 532 0252 0221     		movs	r1, #2
 533 0254 0D22     		movs	r2, #13
 534 0256 1E4B     		ldr	r3, .L222+40
 535 0258 FFF7FEFF 		bl	u8g_DrawStr
  97:LCD_Menu.c    ****                        
  98:LCD_Menu.c    ****             u8g_SetFont(&u8g, u8g_font_unifont);              
 536              		.loc 1 98 0 discriminator 1
 537 025c 1248     		ldr	r0, .L222
 538 025e 1349     		ldr	r1, .L222+4
 539 0260 FFF7FEFF 		bl	u8g_SetFont
  99:LCD_Menu.c    ****             u8g_DrawStr(&u8g,  2, 29, "Arbitrary Mode");
 540              		.loc 1 99 0 discriminator 1
 541 0264 1048     		ldr	r0, .L222
 542 0266 0221     		movs	r1, #2
 543 0268 1D22     		movs	r2, #29
 544 026a 1A4B     		ldr	r3, .L222+44
 545 026c FFF7FEFF 		bl	u8g_DrawStr
 100:LCD_Menu.c    ****             
 101:LCD_Menu.c    ****             u8g_SetFont(&u8g, u8g_font_unifont);              
 546              		.loc 1 101 0 discriminator 1
 547 0270 0D48     		ldr	r0, .L222
 548 0272 0E49     		ldr	r1, .L222+4
 549 0274 FFF7FEFF 		bl	u8g_SetFont
 102:LCD_Menu.c    ****             u8g_DrawStr(&u8g,  2, 45, "Bat Discharge");
 550              		.loc 1 102 0 discriminator 1
 551 0278 0B48     		ldr	r0, .L222
 552 027a 0221     		movs	r1, #2
 553 027c 2D22     		movs	r2, #45
 554 027e 164B     		ldr	r3, .L222+48
 555 0280 FFF7FEFF 		bl	u8g_DrawStr
 103:LCD_Menu.c    ****             
 104:LCD_Menu.c    ****             u8g_SetFont(&u8g, u8g_font_unifont);              
 556              		.loc 1 104 0 discriminator 1
 557 0284 0848     		ldr	r0, .L222
 558 0286 0949     		ldr	r1, .L222+4
 559 0288 FFF7FEFF 		bl	u8g_SetFont
 105:LCD_Menu.c    ****             u8g_DrawStr(&u8g,  2, 60, "Settings");
 560              		.loc 1 105 0 discriminator 1
 561 028c 0648     		ldr	r0, .L222
 562 028e 0221     		movs	r1, #2
 563 0290 3C22     		movs	r2, #60
ARM GAS  C:\Users\KJA\AppData\Local\Temp\ccbnGHAr.s 			page 14


 564 0292 124B     		ldr	r3, .L222+52
 565 0294 FFF7FEFF 		bl	u8g_DrawStr
 106:LCD_Menu.c    ****             
 107:LCD_Menu.c    ****         } while ( u8g_NextPage(&u8g) );
 566              		.loc 1 107 0 discriminator 1
 567 0298 0348     		ldr	r0, .L222
 568 029a FFF7FEFF 		bl	u8g_NextPage
 569 029e 0346     		mov	r3, r0
 570 02a0 002B     		cmp	r3, #0
 571 02a2 CED1     		bne	.L29
 108:LCD_Menu.c    ****       break;
 572              		.loc 1 108 0
 573 02a4 01F0ABBC 		b	.L1
 574              	.L223:
 575              		.align	2
 576              	.L222:
 577 02a8 00000000 		.word	u8g
 578 02ac 00000000 		.word	u8g_font_unifont
 579 02b0 00000000 		.word	.LC0
 580 02b4 08000000 		.word	.LC1
 581 02b8 18000000 		.word	.LC2
 582 02bc 28000000 		.word	.LC3
 583 02c0 38000000 		.word	.LC4
 584 02c4 00000000 		.word	Current_DIE_TempString
 585 02c8 44000000 		.word	.LC5
 586 02cc 50000000 		.word	.LC6
 587 02d0 00000000 		.word	cCounter
 588 02d4 60000000 		.word	.LC7
 589 02d8 70000000 		.word	.LC8
 590 02dc 80000000 		.word	.LC9
 591              	.L5:
 109:LCD_Menu.c    ****    
 110:LCD_Menu.c    ****       case Home: 
 111:LCD_Menu.c    ****             u8g_FirstPage(&u8g);
 592              		.loc 1 111 0
 593 02e0 B248     		ldr	r0, .L224
 594 02e2 FFF7FEFF 		bl	u8g_FirstPage
 595              	.L34:
 112:LCD_Menu.c    ****             do{
 113:LCD_Menu.c    ****                 u8g_SetDefaultForegroundColor(&u8g);
 596              		.loc 1 113 0
 597 02e6 B148     		ldr	r0, .L224
 598 02e8 FFF7FEFF 		bl	u8g_SetDefaultForegroundColor
 114:LCD_Menu.c    ****                 if(Current_Menu_Position == 3){
 599              		.loc 1 114 0
 600 02ec BB79     		ldrb	r3, [r7, #6]	@ zero_extendqisi2
 601 02ee 032B     		cmp	r3, #3
 602 02f0 0AD1     		bne	.L30
 115:LCD_Menu.c    ****                     u8g_DrawBox(&u8g, 0,0,128,16);
 603              		.loc 1 115 0
 604 02f2 1023     		movs	r3, #16
 605 02f4 0093     		str	r3, [sp]
 606 02f6 AD48     		ldr	r0, .L224
 607 02f8 0021     		movs	r1, #0
 608 02fa 0022     		movs	r2, #0
 609 02fc 8023     		movs	r3, #128
 610 02fe FFF7FEFF 		bl	u8g_DrawBox
ARM GAS  C:\Users\KJA\AppData\Local\Temp\ccbnGHAr.s 			page 15


 116:LCD_Menu.c    ****                     u8g_SetDefaultBackgroundColor(&u8g);
 611              		.loc 1 116 0
 612 0302 AA48     		ldr	r0, .L224
 613 0304 FFF7FEFF 		bl	u8g_SetDefaultBackgroundColor
 614              	.L30:
 117:LCD_Menu.c    ****                 }             
 118:LCD_Menu.c    ****                 
 119:LCD_Menu.c    ****                 u8g_SetFont(&u8g, u8g_font_unifont);   
 615              		.loc 1 119 0
 616 0308 A848     		ldr	r0, .L224
 617 030a A949     		ldr	r1, .L224+4
 618 030c FFF7FEFF 		bl	u8g_SetFont
 120:LCD_Menu.c    ****                 u8g_DrawStr(&u8g,  2, 13, "Constant Mode");
 619              		.loc 1 120 0
 620 0310 A648     		ldr	r0, .L224
 621 0312 0221     		movs	r1, #2
 622 0314 0D22     		movs	r2, #13
 623 0316 A74B     		ldr	r3, .L224+8
 624 0318 FFF7FEFF 		bl	u8g_DrawStr
 121:LCD_Menu.c    ****                 
 122:LCD_Menu.c    ****                 u8g_SetDefaultForegroundColor(&u8g);                
 625              		.loc 1 122 0
 626 031c A348     		ldr	r0, .L224
 627 031e FFF7FEFF 		bl	u8g_SetDefaultForegroundColor
 123:LCD_Menu.c    ****                 if(Current_Menu_Position == 2){
 628              		.loc 1 123 0
 629 0322 BB79     		ldrb	r3, [r7, #6]	@ zero_extendqisi2
 630 0324 022B     		cmp	r3, #2
 631 0326 0AD1     		bne	.L31
 124:LCD_Menu.c    ****                     u8g_DrawBox(&u8g, 0,16,128,16);
 632              		.loc 1 124 0
 633 0328 1023     		movs	r3, #16
 634 032a 0093     		str	r3, [sp]
 635 032c 9F48     		ldr	r0, .L224
 636 032e 0021     		movs	r1, #0
 637 0330 1022     		movs	r2, #16
 638 0332 8023     		movs	r3, #128
 639 0334 FFF7FEFF 		bl	u8g_DrawBox
 125:LCD_Menu.c    ****                     u8g_SetDefaultBackgroundColor(&u8g);
 640              		.loc 1 125 0
 641 0338 9C48     		ldr	r0, .L224
 642 033a FFF7FEFF 		bl	u8g_SetDefaultBackgroundColor
 643              	.L31:
 126:LCD_Menu.c    ****                 }
 127:LCD_Menu.c    ****                 
 128:LCD_Menu.c    ****                 u8g_SetFont(&u8g, u8g_font_unifont);              
 644              		.loc 1 128 0
 645 033e 9B48     		ldr	r0, .L224
 646 0340 9B49     		ldr	r1, .L224+4
 647 0342 FFF7FEFF 		bl	u8g_SetFont
 129:LCD_Menu.c    ****                 u8g_DrawStr(&u8g,  2, 29, "Function Mode");
 648              		.loc 1 129 0
 649 0346 9948     		ldr	r0, .L224
 650 0348 0221     		movs	r1, #2
 651 034a 1D22     		movs	r2, #29
 652 034c 9A4B     		ldr	r3, .L224+12
 653 034e FFF7FEFF 		bl	u8g_DrawStr
ARM GAS  C:\Users\KJA\AppData\Local\Temp\ccbnGHAr.s 			page 16


 130:LCD_Menu.c    ****                 
 131:LCD_Menu.c    ****                 u8g_SetDefaultForegroundColor(&u8g);
 654              		.loc 1 131 0
 655 0352 9648     		ldr	r0, .L224
 656 0354 FFF7FEFF 		bl	u8g_SetDefaultForegroundColor
 132:LCD_Menu.c    ****                 if(Current_Menu_Position == 1){
 657              		.loc 1 132 0
 658 0358 BB79     		ldrb	r3, [r7, #6]	@ zero_extendqisi2
 659 035a 012B     		cmp	r3, #1
 660 035c 0AD1     		bne	.L32
 133:LCD_Menu.c    ****                     u8g_DrawBox(&u8g, 0,32,128,16);
 661              		.loc 1 133 0
 662 035e 1023     		movs	r3, #16
 663 0360 0093     		str	r3, [sp]
 664 0362 9248     		ldr	r0, .L224
 665 0364 0021     		movs	r1, #0
 666 0366 2022     		movs	r2, #32
 667 0368 8023     		movs	r3, #128
 668 036a FFF7FEFF 		bl	u8g_DrawBox
 134:LCD_Menu.c    ****                     u8g_SetDefaultBackgroundColor(&u8g);
 669              		.loc 1 134 0
 670 036e 8F48     		ldr	r0, .L224
 671 0370 FFF7FEFF 		bl	u8g_SetDefaultBackgroundColor
 672              	.L32:
 135:LCD_Menu.c    ****                 }
 136:LCD_Menu.c    ****                 
 137:LCD_Menu.c    ****                 u8g_SetFont(&u8g, u8g_font_unifont);              
 673              		.loc 1 137 0
 674 0374 8D48     		ldr	r0, .L224
 675 0376 8E49     		ldr	r1, .L224+4
 676 0378 FFF7FEFF 		bl	u8g_SetFont
 138:LCD_Menu.c    ****                 u8g_DrawStr(&u8g,  2, 45, "Bat Discharge");
 677              		.loc 1 138 0
 678 037c 8B48     		ldr	r0, .L224
 679 037e 0221     		movs	r1, #2
 680 0380 2D22     		movs	r2, #45
 681 0382 8E4B     		ldr	r3, .L224+16
 682 0384 FFF7FEFF 		bl	u8g_DrawStr
 139:LCD_Menu.c    ****                 
 140:LCD_Menu.c    ****                 u8g_SetDefaultForegroundColor(&u8g);
 683              		.loc 1 140 0
 684 0388 8848     		ldr	r0, .L224
 685 038a FFF7FEFF 		bl	u8g_SetDefaultForegroundColor
 141:LCD_Menu.c    ****                 if(Current_Menu_Position == 0){
 686              		.loc 1 141 0
 687 038e BB79     		ldrb	r3, [r7, #6]	@ zero_extendqisi2
 688 0390 002B     		cmp	r3, #0
 689 0392 0AD1     		bne	.L33
 142:LCD_Menu.c    ****                     u8g_DrawBox(&u8g, 0,48,128,16);
 690              		.loc 1 142 0
 691 0394 1023     		movs	r3, #16
 692 0396 0093     		str	r3, [sp]
 693 0398 8448     		ldr	r0, .L224
 694 039a 0021     		movs	r1, #0
 695 039c 3022     		movs	r2, #48
 696 039e 8023     		movs	r3, #128
 697 03a0 FFF7FEFF 		bl	u8g_DrawBox
ARM GAS  C:\Users\KJA\AppData\Local\Temp\ccbnGHAr.s 			page 17


 143:LCD_Menu.c    ****                     u8g_SetDefaultBackgroundColor(&u8g);
 698              		.loc 1 143 0
 699 03a4 8148     		ldr	r0, .L224
 700 03a6 FFF7FEFF 		bl	u8g_SetDefaultBackgroundColor
 701              	.L33:
 144:LCD_Menu.c    ****                 }
 145:LCD_Menu.c    ****                 
 146:LCD_Menu.c    ****                 u8g_SetFont(&u8g, u8g_font_unifont);              
 702              		.loc 1 146 0
 703 03aa 8048     		ldr	r0, .L224
 704 03ac 8049     		ldr	r1, .L224+4
 705 03ae FFF7FEFF 		bl	u8g_SetFont
 147:LCD_Menu.c    ****                 u8g_DrawStr(&u8g,  2, 60, "Settings");
 706              		.loc 1 147 0
 707 03b2 7E48     		ldr	r0, .L224
 708 03b4 0221     		movs	r1, #2
 709 03b6 3C22     		movs	r2, #60
 710 03b8 814B     		ldr	r3, .L224+20
 711 03ba FFF7FEFF 		bl	u8g_DrawStr
 148:LCD_Menu.c    ****                 
 149:LCD_Menu.c    ****             } while ( u8g_NextPage(&u8g) );
 712              		.loc 1 149 0
 713 03be 7B48     		ldr	r0, .L224
 714 03c0 FFF7FEFF 		bl	u8g_NextPage
 715 03c4 0346     		mov	r3, r0
 716 03c6 002B     		cmp	r3, #0
 717 03c8 8DD1     		bne	.L34
 150:LCD_Menu.c    ****       break;
 718              		.loc 1 150 0
 719 03ca 01F018BC 		b	.L1
 720              	.L6:
 151:LCD_Menu.c    ****      
 152:LCD_Menu.c    ****       case ConstantMode: 
 153:LCD_Menu.c    ****             u8g_FirstPage(&u8g);
 721              		.loc 1 153 0
 722 03ce 7748     		ldr	r0, .L224
 723 03d0 FFF7FEFF 		bl	u8g_FirstPage
 724              	.L39:
 154:LCD_Menu.c    ****             do{
 155:LCD_Menu.c    ****                 u8g_SetDefaultForegroundColor(&u8g);
 725              		.loc 1 155 0
 726 03d4 7548     		ldr	r0, .L224
 727 03d6 FFF7FEFF 		bl	u8g_SetDefaultForegroundColor
 156:LCD_Menu.c    ****                 if(Current_Menu_Position == 3){
 728              		.loc 1 156 0
 729 03da BB79     		ldrb	r3, [r7, #6]	@ zero_extendqisi2
 730 03dc 032B     		cmp	r3, #3
 731 03de 0AD1     		bne	.L35
 157:LCD_Menu.c    ****                     u8g_DrawBox(&u8g, 0,0,128,16);
 732              		.loc 1 157 0
 733 03e0 1023     		movs	r3, #16
 734 03e2 0093     		str	r3, [sp]
 735 03e4 7148     		ldr	r0, .L224
 736 03e6 0021     		movs	r1, #0
 737 03e8 0022     		movs	r2, #0
 738 03ea 8023     		movs	r3, #128
 739 03ec FFF7FEFF 		bl	u8g_DrawBox
ARM GAS  C:\Users\KJA\AppData\Local\Temp\ccbnGHAr.s 			page 18


 158:LCD_Menu.c    ****                     u8g_SetDefaultBackgroundColor(&u8g);
 740              		.loc 1 158 0
 741 03f0 6E48     		ldr	r0, .L224
 742 03f2 FFF7FEFF 		bl	u8g_SetDefaultBackgroundColor
 743              	.L35:
 159:LCD_Menu.c    ****                 }             
 160:LCD_Menu.c    ****                 
 161:LCD_Menu.c    ****                 u8g_SetFont(&u8g, u8g_font_unifont);   
 744              		.loc 1 161 0
 745 03f6 6D48     		ldr	r0, .L224
 746 03f8 6D49     		ldr	r1, .L224+4
 747 03fa FFF7FEFF 		bl	u8g_SetFont
 162:LCD_Menu.c    ****                 u8g_DrawStr(&u8g,  2, 13, "Const Current");
 748              		.loc 1 162 0
 749 03fe 6B48     		ldr	r0, .L224
 750 0400 0221     		movs	r1, #2
 751 0402 0D22     		movs	r2, #13
 752 0404 6F4B     		ldr	r3, .L224+24
 753 0406 FFF7FEFF 		bl	u8g_DrawStr
 163:LCD_Menu.c    ****                 
 164:LCD_Menu.c    ****                 u8g_SetDefaultForegroundColor(&u8g);                
 754              		.loc 1 164 0
 755 040a 6848     		ldr	r0, .L224
 756 040c FFF7FEFF 		bl	u8g_SetDefaultForegroundColor
 165:LCD_Menu.c    ****                 if(Current_Menu_Position == 2){
 757              		.loc 1 165 0
 758 0410 BB79     		ldrb	r3, [r7, #6]	@ zero_extendqisi2
 759 0412 022B     		cmp	r3, #2
 760 0414 0AD1     		bne	.L36
 166:LCD_Menu.c    ****                     u8g_DrawBox(&u8g, 0,16,128,16);
 761              		.loc 1 166 0
 762 0416 1023     		movs	r3, #16
 763 0418 0093     		str	r3, [sp]
 764 041a 6448     		ldr	r0, .L224
 765 041c 0021     		movs	r1, #0
 766 041e 1022     		movs	r2, #16
 767 0420 8023     		movs	r3, #128
 768 0422 FFF7FEFF 		bl	u8g_DrawBox
 167:LCD_Menu.c    ****                     u8g_SetDefaultBackgroundColor(&u8g);
 769              		.loc 1 167 0
 770 0426 6148     		ldr	r0, .L224
 771 0428 FFF7FEFF 		bl	u8g_SetDefaultBackgroundColor
 772              	.L36:
 168:LCD_Menu.c    ****                 }
 169:LCD_Menu.c    ****                 
 170:LCD_Menu.c    ****                 u8g_SetFont(&u8g, u8g_font_unifont);              
 773              		.loc 1 170 0
 774 042c 5F48     		ldr	r0, .L224
 775 042e 6049     		ldr	r1, .L224+4
 776 0430 FFF7FEFF 		bl	u8g_SetFont
 171:LCD_Menu.c    ****                 u8g_DrawStr(&u8g,  2, 29, "Const Power");
 777              		.loc 1 171 0
 778 0434 5D48     		ldr	r0, .L224
 779 0436 0221     		movs	r1, #2
 780 0438 1D22     		movs	r2, #29
 781 043a 634B     		ldr	r3, .L224+28
 782 043c FFF7FEFF 		bl	u8g_DrawStr
ARM GAS  C:\Users\KJA\AppData\Local\Temp\ccbnGHAr.s 			page 19


 172:LCD_Menu.c    ****                 
 173:LCD_Menu.c    ****                 u8g_SetDefaultForegroundColor(&u8g);
 783              		.loc 1 173 0
 784 0440 5A48     		ldr	r0, .L224
 785 0442 FFF7FEFF 		bl	u8g_SetDefaultForegroundColor
 174:LCD_Menu.c    ****                 if(Current_Menu_Position == 1){
 786              		.loc 1 174 0
 787 0446 BB79     		ldrb	r3, [r7, #6]	@ zero_extendqisi2
 788 0448 012B     		cmp	r3, #1
 789 044a 0AD1     		bne	.L37
 175:LCD_Menu.c    ****                     u8g_DrawBox(&u8g, 0,32,128,16);
 790              		.loc 1 175 0
 791 044c 1023     		movs	r3, #16
 792 044e 0093     		str	r3, [sp]
 793 0450 5648     		ldr	r0, .L224
 794 0452 0021     		movs	r1, #0
 795 0454 2022     		movs	r2, #32
 796 0456 8023     		movs	r3, #128
 797 0458 FFF7FEFF 		bl	u8g_DrawBox
 176:LCD_Menu.c    ****                     u8g_SetDefaultBackgroundColor(&u8g);
 798              		.loc 1 176 0
 799 045c 5348     		ldr	r0, .L224
 800 045e FFF7FEFF 		bl	u8g_SetDefaultBackgroundColor
 801              	.L37:
 177:LCD_Menu.c    ****                 }
 178:LCD_Menu.c    ****                 
 179:LCD_Menu.c    ****                 u8g_SetFont(&u8g, u8g_font_unifont);              
 802              		.loc 1 179 0
 803 0462 5248     		ldr	r0, .L224
 804 0464 5249     		ldr	r1, .L224+4
 805 0466 FFF7FEFF 		bl	u8g_SetFont
 180:LCD_Menu.c    ****                 u8g_DrawStr(&u8g,  2, 45, "Const Resist");
 806              		.loc 1 180 0
 807 046a 5048     		ldr	r0, .L224
 808 046c 0221     		movs	r1, #2
 809 046e 2D22     		movs	r2, #45
 810 0470 564B     		ldr	r3, .L224+32
 811 0472 FFF7FEFF 		bl	u8g_DrawStr
 181:LCD_Menu.c    ****                 
 182:LCD_Menu.c    ****                 u8g_SetDefaultForegroundColor(&u8g);
 812              		.loc 1 182 0
 813 0476 4D48     		ldr	r0, .L224
 814 0478 FFF7FEFF 		bl	u8g_SetDefaultForegroundColor
 183:LCD_Menu.c    ****                 if(Current_Menu_Position == 0){
 815              		.loc 1 183 0
 816 047c BB79     		ldrb	r3, [r7, #6]	@ zero_extendqisi2
 817 047e 002B     		cmp	r3, #0
 818 0480 0AD1     		bne	.L38
 184:LCD_Menu.c    ****                     u8g_DrawBox(&u8g, 0,48,128,16);
 819              		.loc 1 184 0
 820 0482 1023     		movs	r3, #16
 821 0484 0093     		str	r3, [sp]
 822 0486 4948     		ldr	r0, .L224
 823 0488 0021     		movs	r1, #0
 824 048a 3022     		movs	r2, #48
 825 048c 8023     		movs	r3, #128
 826 048e FFF7FEFF 		bl	u8g_DrawBox
ARM GAS  C:\Users\KJA\AppData\Local\Temp\ccbnGHAr.s 			page 20


 185:LCD_Menu.c    ****                     u8g_SetDefaultBackgroundColor(&u8g);
 827              		.loc 1 185 0
 828 0492 4648     		ldr	r0, .L224
 829 0494 FFF7FEFF 		bl	u8g_SetDefaultBackgroundColor
 830              	.L38:
 186:LCD_Menu.c    ****                 }
 187:LCD_Menu.c    ****                 
 188:LCD_Menu.c    ****                 u8g_SetFont(&u8g, u8g_font_unifont);              
 831              		.loc 1 188 0
 832 0498 4448     		ldr	r0, .L224
 833 049a 4549     		ldr	r1, .L224+4
 834 049c FFF7FEFF 		bl	u8g_SetFont
 189:LCD_Menu.c    ****                 u8g_DrawStr(&u8g,  2, 60, "          <-Back");
 835              		.loc 1 189 0
 836 04a0 4248     		ldr	r0, .L224
 837 04a2 0221     		movs	r1, #2
 838 04a4 3C22     		movs	r2, #60
 839 04a6 4A4B     		ldr	r3, .L224+36
 840 04a8 FFF7FEFF 		bl	u8g_DrawStr
 190:LCD_Menu.c    ****                 
 191:LCD_Menu.c    ****                 
 192:LCD_Menu.c    ****                 
 193:LCD_Menu.c    ****             } while ( u8g_NextPage(&u8g) );
 841              		.loc 1 193 0
 842 04ac 3F48     		ldr	r0, .L224
 843 04ae FFF7FEFF 		bl	u8g_NextPage
 844 04b2 0346     		mov	r3, r0
 845 04b4 002B     		cmp	r3, #0
 846 04b6 8DD1     		bne	.L39
 194:LCD_Menu.c    ****         
 195:LCD_Menu.c    ****       break;
 847              		.loc 1 195 0
 848 04b8 01F0A1BB 		b	.L1
 849              	.L7:
 196:LCD_Menu.c    **** 
 197:LCD_Menu.c    ****       case ArbitraryMode: 
 198:LCD_Menu.c    ****             u8g_FirstPage(&u8g);
 850              		.loc 1 198 0
 851 04bc 3B48     		ldr	r0, .L224
 852 04be FFF7FEFF 		bl	u8g_FirstPage
 853              	.L44:
 199:LCD_Menu.c    ****             do{
 200:LCD_Menu.c    ****                 u8g_SetDefaultForegroundColor(&u8g);
 854              		.loc 1 200 0
 855 04c2 3A48     		ldr	r0, .L224
 856 04c4 FFF7FEFF 		bl	u8g_SetDefaultForegroundColor
 201:LCD_Menu.c    ****                 if(Current_Menu_Position == 3){
 857              		.loc 1 201 0
 858 04c8 BB79     		ldrb	r3, [r7, #6]	@ zero_extendqisi2
 859 04ca 032B     		cmp	r3, #3
 860 04cc 0AD1     		bne	.L40
 202:LCD_Menu.c    ****                     u8g_DrawBox(&u8g, 0,0,128,16);
 861              		.loc 1 202 0
 862 04ce 1023     		movs	r3, #16
 863 04d0 0093     		str	r3, [sp]
 864 04d2 3648     		ldr	r0, .L224
 865 04d4 0021     		movs	r1, #0
ARM GAS  C:\Users\KJA\AppData\Local\Temp\ccbnGHAr.s 			page 21


 866 04d6 0022     		movs	r2, #0
 867 04d8 8023     		movs	r3, #128
 868 04da FFF7FEFF 		bl	u8g_DrawBox
 203:LCD_Menu.c    ****                     u8g_SetDefaultBackgroundColor(&u8g);
 869              		.loc 1 203 0
 870 04de 3348     		ldr	r0, .L224
 871 04e0 FFF7FEFF 		bl	u8g_SetDefaultBackgroundColor
 872              	.L40:
 204:LCD_Menu.c    ****                 }             
 205:LCD_Menu.c    ****                 
 206:LCD_Menu.c    ****                 u8g_SetFont(&u8g, u8g_font_unifont);   
 873              		.loc 1 206 0
 874 04e4 3148     		ldr	r0, .L224
 875 04e6 3249     		ldr	r1, .L224+4
 876 04e8 FFF7FEFF 		bl	u8g_SetFont
 207:LCD_Menu.c    ****                 u8g_DrawStr(&u8g,  2, 13, "Waveform Mode");
 877              		.loc 1 207 0
 878 04ec 2F48     		ldr	r0, .L224
 879 04ee 0221     		movs	r1, #2
 880 04f0 0D22     		movs	r2, #13
 881 04f2 384B     		ldr	r3, .L224+40
 882 04f4 FFF7FEFF 		bl	u8g_DrawStr
 208:LCD_Menu.c    ****                 
 209:LCD_Menu.c    ****                 u8g_SetDefaultForegroundColor(&u8g);                
 883              		.loc 1 209 0
 884 04f8 2C48     		ldr	r0, .L224
 885 04fa FFF7FEFF 		bl	u8g_SetDefaultForegroundColor
 210:LCD_Menu.c    ****                 if(Current_Menu_Position == 2){
 886              		.loc 1 210 0
 887 04fe BB79     		ldrb	r3, [r7, #6]	@ zero_extendqisi2
 888 0500 022B     		cmp	r3, #2
 889 0502 0AD1     		bne	.L41
 211:LCD_Menu.c    ****                     u8g_DrawBox(&u8g, 0,16,128,16);
 890              		.loc 1 211 0
 891 0504 1023     		movs	r3, #16
 892 0506 0093     		str	r3, [sp]
 893 0508 2848     		ldr	r0, .L224
 894 050a 0021     		movs	r1, #0
 895 050c 1022     		movs	r2, #16
 896 050e 8023     		movs	r3, #128
 897 0510 FFF7FEFF 		bl	u8g_DrawBox
 212:LCD_Menu.c    ****                     u8g_SetDefaultBackgroundColor(&u8g);
 898              		.loc 1 212 0
 899 0514 2548     		ldr	r0, .L224
 900 0516 FFF7FEFF 		bl	u8g_SetDefaultBackgroundColor
 901              	.L41:
 213:LCD_Menu.c    ****                 }
 214:LCD_Menu.c    ****                 
 215:LCD_Menu.c    ****                 u8g_SetFont(&u8g, u8g_font_unifont);              
 902              		.loc 1 215 0
 903 051a 2448     		ldr	r0, .L224
 904 051c 2449     		ldr	r1, .L224+4
 905 051e FFF7FEFF 		bl	u8g_SetFont
 216:LCD_Menu.c    ****                 u8g_DrawStr(&u8g,  2, 29, "PWM Mode");
 906              		.loc 1 216 0
 907 0522 2248     		ldr	r0, .L224
 908 0524 0221     		movs	r1, #2
ARM GAS  C:\Users\KJA\AppData\Local\Temp\ccbnGHAr.s 			page 22


 909 0526 1D22     		movs	r2, #29
 910 0528 2B4B     		ldr	r3, .L224+44
 911 052a FFF7FEFF 		bl	u8g_DrawStr
 217:LCD_Menu.c    ****                 
 218:LCD_Menu.c    ****                 u8g_SetDefaultForegroundColor(&u8g);
 912              		.loc 1 218 0
 913 052e 1F48     		ldr	r0, .L224
 914 0530 FFF7FEFF 		bl	u8g_SetDefaultForegroundColor
 219:LCD_Menu.c    ****                 if(Current_Menu_Position == 1){
 915              		.loc 1 219 0
 916 0534 BB79     		ldrb	r3, [r7, #6]	@ zero_extendqisi2
 917 0536 012B     		cmp	r3, #1
 918 0538 0AD1     		bne	.L42
 220:LCD_Menu.c    ****                     u8g_DrawBox(&u8g, 0,32,128,16);
 919              		.loc 1 220 0
 920 053a 1023     		movs	r3, #16
 921 053c 0093     		str	r3, [sp]
 922 053e 1B48     		ldr	r0, .L224
 923 0540 0021     		movs	r1, #0
 924 0542 2022     		movs	r2, #32
 925 0544 8023     		movs	r3, #128
 926 0546 FFF7FEFF 		bl	u8g_DrawBox
 221:LCD_Menu.c    ****                     u8g_SetDefaultBackgroundColor(&u8g);
 927              		.loc 1 221 0
 928 054a 1848     		ldr	r0, .L224
 929 054c FFF7FEFF 		bl	u8g_SetDefaultBackgroundColor
 930              	.L42:
 222:LCD_Menu.c    ****                 }
 223:LCD_Menu.c    ****                 
 224:LCD_Menu.c    ****                 u8g_SetFont(&u8g, u8g_font_unifont);              
 931              		.loc 1 224 0
 932 0550 1648     		ldr	r0, .L224
 933 0552 1749     		ldr	r1, .L224+4
 934 0554 FFF7FEFF 		bl	u8g_SetFont
 225:LCD_Menu.c    ****                 u8g_DrawStr(&u8g,  2, 45, "External Drive");
 935              		.loc 1 225 0
 936 0558 1448     		ldr	r0, .L224
 937 055a 0221     		movs	r1, #2
 938 055c 2D22     		movs	r2, #45
 939 055e 1F4B     		ldr	r3, .L224+48
 940 0560 FFF7FEFF 		bl	u8g_DrawStr
 226:LCD_Menu.c    ****                 
 227:LCD_Menu.c    ****                 u8g_SetDefaultForegroundColor(&u8g);
 941              		.loc 1 227 0
 942 0564 1148     		ldr	r0, .L224
 943 0566 FFF7FEFF 		bl	u8g_SetDefaultForegroundColor
 228:LCD_Menu.c    ****                 if(Current_Menu_Position == 0){
 944              		.loc 1 228 0
 945 056a BB79     		ldrb	r3, [r7, #6]	@ zero_extendqisi2
 946 056c 002B     		cmp	r3, #0
 947 056e 0AD1     		bne	.L43
 229:LCD_Menu.c    ****                     u8g_DrawBox(&u8g, 0,48,128,16);
 948              		.loc 1 229 0
 949 0570 1023     		movs	r3, #16
 950 0572 0093     		str	r3, [sp]
 951 0574 0D48     		ldr	r0, .L224
 952 0576 0021     		movs	r1, #0
ARM GAS  C:\Users\KJA\AppData\Local\Temp\ccbnGHAr.s 			page 23


 953 0578 3022     		movs	r2, #48
 954 057a 8023     		movs	r3, #128
 955 057c FFF7FEFF 		bl	u8g_DrawBox
 230:LCD_Menu.c    ****                     u8g_SetDefaultBackgroundColor(&u8g);
 956              		.loc 1 230 0
 957 0580 0A48     		ldr	r0, .L224
 958 0582 FFF7FEFF 		bl	u8g_SetDefaultBackgroundColor
 959              	.L43:
 231:LCD_Menu.c    ****                 }
 232:LCD_Menu.c    ****                 
 233:LCD_Menu.c    ****                 u8g_SetFont(&u8g, u8g_font_unifont);              
 960              		.loc 1 233 0
 961 0586 0948     		ldr	r0, .L224
 962 0588 0949     		ldr	r1, .L224+4
 963 058a FFF7FEFF 		bl	u8g_SetFont
 234:LCD_Menu.c    ****                 u8g_DrawStr(&u8g,  2, 60, "          <-Back");
 964              		.loc 1 234 0
 965 058e 0748     		ldr	r0, .L224
 966 0590 0221     		movs	r1, #2
 967 0592 3C22     		movs	r2, #60
 968 0594 0E4B     		ldr	r3, .L224+36
 969 0596 FFF7FEFF 		bl	u8g_DrawStr
 235:LCD_Menu.c    ****                 
 236:LCD_Menu.c    ****             } while ( u8g_NextPage(&u8g) );
 970              		.loc 1 236 0
 971 059a 0448     		ldr	r0, .L224
 972 059c FFF7FEFF 		bl	u8g_NextPage
 973 05a0 0346     		mov	r3, r0
 974 05a2 002B     		cmp	r3, #0
 975 05a4 8DD1     		bne	.L44
 237:LCD_Menu.c    ****         
 238:LCD_Menu.c    ****       break;
 976              		.loc 1 238 0
 977 05a6 01F02ABB 		b	.L1
 978              	.L225:
 979 05aa 00BF     		.align	2
 980              	.L224:
 981 05ac 00000000 		.word	u8g
 982 05b0 00000000 		.word	u8g_font_unifont
 983 05b4 8C000000 		.word	.LC10
 984 05b8 9C000000 		.word	.LC11
 985 05bc 70000000 		.word	.LC8
 986 05c0 80000000 		.word	.LC9
 987 05c4 AC000000 		.word	.LC12
 988 05c8 BC000000 		.word	.LC13
 989 05cc C8000000 		.word	.LC14
 990 05d0 D8000000 		.word	.LC15
 991 05d4 EC000000 		.word	.LC16
 992 05d8 FC000000 		.word	.LC17
 993 05dc 08010000 		.word	.LC18
 994              	.L20:
 239:LCD_Menu.c    ****             
 240:LCD_Menu.c    ****       case WaveForm_Mode: 
 241:LCD_Menu.c    ****             u8g_FirstPage(&u8g);
 995              		.loc 1 241 0
 996 05e0 A648     		ldr	r0, .L226
 997 05e2 FFF7FEFF 		bl	u8g_FirstPage
ARM GAS  C:\Users\KJA\AppData\Local\Temp\ccbnGHAr.s 			page 24


 998              	.L45:
 242:LCD_Menu.c    ****             do{
 243:LCD_Menu.c    ****                 u8g_SetDefaultForegroundColor(&u8g);         
 999              		.loc 1 243 0 discriminator 1
 1000 05e6 A548     		ldr	r0, .L226
 1001 05e8 FFF7FEFF 		bl	u8g_SetDefaultForegroundColor
 244:LCD_Menu.c    ****                 u8g_SetFont(&u8g, u8g_font_unifont);                
 1002              		.loc 1 244 0 discriminator 1
 1003 05ec A348     		ldr	r0, .L226
 1004 05ee A449     		ldr	r1, .L226+4
 1005 05f0 FFF7FEFF 		bl	u8g_SetFont
 245:LCD_Menu.c    ****                 u8g_DrawStr(&u8g,  30, 12, "WaveForm_Mode");
 1006              		.loc 1 245 0 discriminator 1
 1007 05f4 A148     		ldr	r0, .L226
 1008 05f6 1E21     		movs	r1, #30
 1009 05f8 0C22     		movs	r2, #12
 1010 05fa A24B     		ldr	r3, .L226+8
 1011 05fc FFF7FEFF 		bl	u8g_DrawStr
 246:LCD_Menu.c    **** 
 247:LCD_Menu.c    ****             } while ( u8g_NextPage(&u8g) ); 
 1012              		.loc 1 247 0 discriminator 1
 1013 0600 9E48     		ldr	r0, .L226
 1014 0602 FFF7FEFF 		bl	u8g_NextPage
 1015 0606 0346     		mov	r3, r0
 1016 0608 002B     		cmp	r3, #0
 1017 060a ECD1     		bne	.L45
 248:LCD_Menu.c    ****       break;
 1018              		.loc 1 248 0
 1019 060c 01F0F7BA 		b	.L1
 1020              	.L21:
 249:LCD_Menu.c    ****             
 250:LCD_Menu.c    ****             
 251:LCD_Menu.c    ****       case PWM_Mode: 
 252:LCD_Menu.c    ****             u8g_FirstPage(&u8g);
 1021              		.loc 1 252 0
 1022 0610 9A48     		ldr	r0, .L226
 1023 0612 FFF7FEFF 		bl	u8g_FirstPage
 1024              	.L91:
 253:LCD_Menu.c    ****             do{
 254:LCD_Menu.c    ****                 u8g_SetDefaultForegroundColor(&u8g);
 1025              		.loc 1 254 0
 1026 0616 9948     		ldr	r0, .L226
 1027 0618 FFF7FEFF 		bl	u8g_SetDefaultForegroundColor
 255:LCD_Menu.c    ****                 if(Current_Menu_Position == 2){
 1028              		.loc 1 255 0
 1029 061c BB79     		ldrb	r3, [r7, #6]	@ zero_extendqisi2
 1030 061e 022B     		cmp	r3, #2
 1031 0620 1AD1     		bne	.L46
 256:LCD_Menu.c    ****                     if(Edit_Value_Mode == 0){
 1032              		.loc 1 256 0
 1033 0622 994B     		ldr	r3, .L226+12
 1034 0624 1B78     		ldrb	r3, [r3]	@ zero_extendqisi2
 1035 0626 002B     		cmp	r3, #0
 1036 0628 07D1     		bne	.L47
 257:LCD_Menu.c    ****                         u8g_DrawBox(&u8g, 0,0,128,16);
 1037              		.loc 1 257 0
 1038 062a 1023     		movs	r3, #16
ARM GAS  C:\Users\KJA\AppData\Local\Temp\ccbnGHAr.s 			page 25


 1039 062c 0093     		str	r3, [sp]
 1040 062e 9348     		ldr	r0, .L226
 1041 0630 0021     		movs	r1, #0
 1042 0632 0022     		movs	r2, #0
 1043 0634 8023     		movs	r3, #128
 1044 0636 FFF7FEFF 		bl	u8g_DrawBox
 1045              	.L47:
 258:LCD_Menu.c    ****                     }
 259:LCD_Menu.c    ****                     if(Edit_Value_Mode == 1){
 1046              		.loc 1 259 0
 1047 063a 934B     		ldr	r3, .L226+12
 1048 063c 1B78     		ldrb	r3, [r3]	@ zero_extendqisi2
 1049 063e 012B     		cmp	r3, #1
 1050 0640 07D1     		bne	.L48
 260:LCD_Menu.c    ****                         u8g_DrawBox(&u8g, 43,0,128,16);
 1051              		.loc 1 260 0
 1052 0642 1023     		movs	r3, #16
 1053 0644 0093     		str	r3, [sp]
 1054 0646 8D48     		ldr	r0, .L226
 1055 0648 2B21     		movs	r1, #43
 1056 064a 0022     		movs	r2, #0
 1057 064c 8023     		movs	r3, #128
 1058 064e FFF7FEFF 		bl	u8g_DrawBox
 1059              	.L48:
 261:LCD_Menu.c    ****                     }
 262:LCD_Menu.c    ****                     u8g_SetDefaultBackgroundColor(&u8g);
 1060              		.loc 1 262 0
 1061 0652 8A48     		ldr	r0, .L226
 1062 0654 FFF7FEFF 		bl	u8g_SetDefaultBackgroundColor
 1063              	.L46:
 263:LCD_Menu.c    ****                 }             
 264:LCD_Menu.c    ****                 u8g_SetFont(&u8g, u8g_font_unifont);
 1064              		.loc 1 264 0
 1065 0658 8848     		ldr	r0, .L226
 1066 065a 8949     		ldr	r1, .L226+4
 1067 065c FFF7FEFF 		bl	u8g_SetFont
 265:LCD_Menu.c    ****                 
 266:LCD_Menu.c    ****                 if(Set_Ampl <10)                u8g_DrawStr(&u8g,  82, 13, cSet_Ampl);
 1068              		.loc 1 266 0
 1069 0660 8A4B     		ldr	r3, .L226+16
 1070 0662 1B88     		ldrh	r3, [r3]
 1071 0664 1BB2     		sxth	r3, r3
 1072 0666 092B     		cmp	r3, #9
 1073 0668 06DC     		bgt	.L49
 1074              		.loc 1 266 0 is_stmt 0 discriminator 1
 1075 066a 8448     		ldr	r0, .L226
 1076 066c 5221     		movs	r1, #82
 1077 066e 0D22     		movs	r2, #13
 1078 0670 874B     		ldr	r3, .L226+20
 1079 0672 FFF7FEFF 		bl	u8g_DrawStr
 1080 0676 1EE0     		b	.L50
 1081              	.L49:
 267:LCD_Menu.c    ****                 else if(Set_Ampl <100)          u8g_DrawStr(&u8g,  74, 13, cSet_Ampl);
 1082              		.loc 1 267 0 is_stmt 1
 1083 0678 844B     		ldr	r3, .L226+16
 1084 067a 1B88     		ldrh	r3, [r3]
 1085 067c 1BB2     		sxth	r3, r3
ARM GAS  C:\Users\KJA\AppData\Local\Temp\ccbnGHAr.s 			page 26


 1086 067e 632B     		cmp	r3, #99
 1087 0680 06DC     		bgt	.L51
 1088              		.loc 1 267 0 is_stmt 0 discriminator 1
 1089 0682 7E48     		ldr	r0, .L226
 1090 0684 4A21     		movs	r1, #74
 1091 0686 0D22     		movs	r2, #13
 1092 0688 814B     		ldr	r3, .L226+20
 1093 068a FFF7FEFF 		bl	u8g_DrawStr
 1094 068e 12E0     		b	.L50
 1095              	.L51:
 268:LCD_Menu.c    ****                 else if(Set_Ampl <1000)         u8g_DrawStr(&u8g,  66, 13, cSet_Ampl);
 1096              		.loc 1 268 0 is_stmt 1
 1097 0690 7E4B     		ldr	r3, .L226+16
 1098 0692 1B88     		ldrh	r3, [r3]
 1099 0694 1BB2     		sxth	r3, r3
 1100 0696 B3F57A7F 		cmp	r3, #1000
 1101 069a 06DA     		bge	.L52
 1102              		.loc 1 268 0 is_stmt 0 discriminator 1
 1103 069c 7748     		ldr	r0, .L226
 1104 069e 4221     		movs	r1, #66
 1105 06a0 0D22     		movs	r2, #13
 1106 06a2 7B4B     		ldr	r3, .L226+20
 1107 06a4 FFF7FEFF 		bl	u8g_DrawStr
 1108 06a8 05E0     		b	.L50
 1109              	.L52:
 269:LCD_Menu.c    ****                 else                            u8g_DrawStr(&u8g,  58, 13, cSet_Ampl);
 1110              		.loc 1 269 0 is_stmt 1
 1111 06aa 7448     		ldr	r0, .L226
 1112 06ac 3A21     		movs	r1, #58
 1113 06ae 0D22     		movs	r2, #13
 1114 06b0 774B     		ldr	r3, .L226+20
 1115 06b2 FFF7FEFF 		bl	u8g_DrawStr
 1116              	.L50:
 270:LCD_Menu.c    ****                 
 271:LCD_Menu.c    ****                 
 272:LCD_Menu.c    ****                 if(Current_Menu_Position == 2 && Edit_Value_Mode == 1){
 1117              		.loc 1 272 0
 1118 06b6 BB79     		ldrb	r3, [r7, #6]	@ zero_extendqisi2
 1119 06b8 022B     		cmp	r3, #2
 1120 06ba 06D1     		bne	.L53
 1121              		.loc 1 272 0 is_stmt 0 discriminator 1
 1122 06bc 724B     		ldr	r3, .L226+12
 1123 06be 1B78     		ldrb	r3, [r3]	@ zero_extendqisi2
 1124 06c0 012B     		cmp	r3, #1
 1125 06c2 02D1     		bne	.L53
 273:LCD_Menu.c    ****                     u8g_SetDefaultForegroundColor(&u8g);
 1126              		.loc 1 273 0 is_stmt 1
 1127 06c4 6D48     		ldr	r0, .L226
 1128 06c6 FFF7FEFF 		bl	u8g_SetDefaultForegroundColor
 1129              	.L53:
 274:LCD_Menu.c    ****                 }
 275:LCD_Menu.c    ****                 u8g_SetFont(&u8g, u8g_font_unifont);
 1130              		.loc 1 275 0
 1131 06ca 6C48     		ldr	r0, .L226
 1132 06cc 6C49     		ldr	r1, .L226+4
 1133 06ce FFF7FEFF 		bl	u8g_SetFont
 276:LCD_Menu.c    ****                 u8g_DrawStr(&u8g,  2, 13, "Ampl:");
ARM GAS  C:\Users\KJA\AppData\Local\Temp\ccbnGHAr.s 			page 27


 1134              		.loc 1 276 0
 1135 06d2 6A48     		ldr	r0, .L226
 1136 06d4 0221     		movs	r1, #2
 1137 06d6 0D22     		movs	r2, #13
 1138 06d8 6E4B     		ldr	r3, .L226+24
 1139 06da FFF7FEFF 		bl	u8g_DrawStr
 277:LCD_Menu.c    ****                 
 278:LCD_Menu.c    ****                 if(Current_Menu_Position == 2 && Edit_Value_Mode == 1){ 
 1140              		.loc 1 278 0
 1141 06de BB79     		ldrb	r3, [r7, #6]	@ zero_extendqisi2
 1142 06e0 022B     		cmp	r3, #2
 1143 06e2 33D1     		bne	.L54
 1144              		.loc 1 278 0 is_stmt 0 discriminator 1
 1145 06e4 684B     		ldr	r3, .L226+12
 1146 06e6 1B78     		ldrb	r3, [r3]	@ zero_extendqisi2
 1147 06e8 012B     		cmp	r3, #1
 1148 06ea 2FD1     		bne	.L54
 1149              	.LBB2:
 279:LCD_Menu.c    ****                         
 280:LCD_Menu.c    ****                         uint8 Underline;
 281:LCD_Menu.c    ****                     
 282:LCD_Menu.c    ****                         u8g_SetDefaultBackgroundColor(&u8g);
 1150              		.loc 1 282 0 is_stmt 1
 1151 06ec 6348     		ldr	r0, .L226
 1152 06ee FFF7FEFF 		bl	u8g_SetDefaultBackgroundColor
 283:LCD_Menu.c    ****                         
 284:LCD_Menu.c    ****                         if(Position_Number == 0) Underline = 59;
 1153              		.loc 1 284 0
 1154 06f2 694B     		ldr	r3, .L226+28
 1155 06f4 1B78     		ldrb	r3, [r3]	@ zero_extendqisi2
 1156 06f6 002B     		cmp	r3, #0
 1157 06f8 02D1     		bne	.L55
 1158              		.loc 1 284 0 is_stmt 0 discriminator 1
 1159 06fa 3B23     		movs	r3, #59
 1160 06fc FB75     		strb	r3, [r7, #23]
 1161 06fe 19E0     		b	.L56
 1162              	.L55:
 285:LCD_Menu.c    ****                         else if(Position_Number == 1) Underline = 67;
 1163              		.loc 1 285 0 is_stmt 1
 1164 0700 654B     		ldr	r3, .L226+28
 1165 0702 1B78     		ldrb	r3, [r3]	@ zero_extendqisi2
 1166 0704 5BB2     		sxtb	r3, r3
 1167 0706 012B     		cmp	r3, #1
 1168 0708 02D1     		bne	.L57
 1169              		.loc 1 285 0 is_stmt 0 discriminator 1
 1170 070a 4323     		movs	r3, #67
 1171 070c FB75     		strb	r3, [r7, #23]
 1172 070e 11E0     		b	.L56
 1173              	.L57:
 286:LCD_Menu.c    ****                         else if(Position_Number == 2) Underline = 75;
 1174              		.loc 1 286 0 is_stmt 1
 1175 0710 614B     		ldr	r3, .L226+28
 1176 0712 1B78     		ldrb	r3, [r3]	@ zero_extendqisi2
 1177 0714 5BB2     		sxtb	r3, r3
 1178 0716 022B     		cmp	r3, #2
 1179 0718 02D1     		bne	.L58
 1180              		.loc 1 286 0 is_stmt 0 discriminator 1
ARM GAS  C:\Users\KJA\AppData\Local\Temp\ccbnGHAr.s 			page 28


 1181 071a 4B23     		movs	r3, #75
 1182 071c FB75     		strb	r3, [r7, #23]
 1183 071e 09E0     		b	.L56
 1184              	.L58:
 287:LCD_Menu.c    ****                         else if(Position_Number == 3) Underline = 83;
 1185              		.loc 1 287 0 is_stmt 1
 1186 0720 5D4B     		ldr	r3, .L226+28
 1187 0722 1B78     		ldrb	r3, [r3]	@ zero_extendqisi2
 1188 0724 5BB2     		sxtb	r3, r3
 1189 0726 032B     		cmp	r3, #3
 1190 0728 02D1     		bne	.L59
 1191              		.loc 1 287 0 is_stmt 0 discriminator 1
 1192 072a 5323     		movs	r3, #83
 1193 072c FB75     		strb	r3, [r7, #23]
 1194 072e 01E0     		b	.L56
 1195              	.L59:
 288:LCD_Menu.c    ****                         else Underline = 59;
 1196              		.loc 1 288 0 is_stmt 1
 1197 0730 3B23     		movs	r3, #59
 1198 0732 FB75     		strb	r3, [r7, #23]
 1199              	.L56:
 289:LCD_Menu.c    ****                         
 290:LCD_Menu.c    ****                         u8g_DrawLine(&u8g,Underline,14,Underline+5,14);
 1200              		.loc 1 290 0
 1201 0734 FB7D     		ldrb	r3, [r7, #23]
 1202 0736 0533     		adds	r3, r3, #5
 1203 0738 DCB2     		uxtb	r4, r3
 1204 073a FA7D     		ldrb	r2, [r7, #23]	@ zero_extendqisi2
 1205 073c 0E23     		movs	r3, #14
 1206 073e 0093     		str	r3, [sp]
 1207 0740 4E48     		ldr	r0, .L226
 1208 0742 1146     		mov	r1, r2
 1209 0744 0E22     		movs	r2, #14
 1210 0746 2346     		mov	r3, r4
 1211 0748 FFF7FEFF 		bl	u8g_DrawLine
 1212              	.L54:
 1213              	.LBE2:
 291:LCD_Menu.c    ****                 }
 292:LCD_Menu.c    ****                 
 293:LCD_Menu.c    ****                 
 294:LCD_Menu.c    ****                 
 295:LCD_Menu.c    ****                 
 296:LCD_Menu.c    ****                 
 297:LCD_Menu.c    ****                 u8g_SetDefaultForegroundColor(&u8g);
 1214              		.loc 1 297 0
 1215 074c 4B48     		ldr	r0, .L226
 1216 074e FFF7FEFF 		bl	u8g_SetDefaultForegroundColor
 298:LCD_Menu.c    ****                 if(Current_Menu_Position == 1){
 1217              		.loc 1 298 0
 1218 0752 BB79     		ldrb	r3, [r7, #6]	@ zero_extendqisi2
 1219 0754 012B     		cmp	r3, #1
 1220 0756 1AD1     		bne	.L60
 299:LCD_Menu.c    ****                     if(Edit_Value_Mode == 0){
 1221              		.loc 1 299 0
 1222 0758 4B4B     		ldr	r3, .L226+12
 1223 075a 1B78     		ldrb	r3, [r3]	@ zero_extendqisi2
 1224 075c 002B     		cmp	r3, #0
ARM GAS  C:\Users\KJA\AppData\Local\Temp\ccbnGHAr.s 			page 29


 1225 075e 07D1     		bne	.L61
 300:LCD_Menu.c    ****                         u8g_DrawBox(&u8g, 0,16,128,16);
 1226              		.loc 1 300 0
 1227 0760 1023     		movs	r3, #16
 1228 0762 0093     		str	r3, [sp]
 1229 0764 4548     		ldr	r0, .L226
 1230 0766 0021     		movs	r1, #0
 1231 0768 1022     		movs	r2, #16
 1232 076a 8023     		movs	r3, #128
 1233 076c FFF7FEFF 		bl	u8g_DrawBox
 1234              	.L61:
 301:LCD_Menu.c    ****                     }
 302:LCD_Menu.c    ****                     if(Edit_Value_Mode == 1){
 1235              		.loc 1 302 0
 1236 0770 454B     		ldr	r3, .L226+12
 1237 0772 1B78     		ldrb	r3, [r3]	@ zero_extendqisi2
 1238 0774 012B     		cmp	r3, #1
 1239 0776 07D1     		bne	.L62
 303:LCD_Menu.c    ****                         u8g_DrawBox(&u8g, 43,16,128,16);
 1240              		.loc 1 303 0
 1241 0778 1023     		movs	r3, #16
 1242 077a 0093     		str	r3, [sp]
 1243 077c 3F48     		ldr	r0, .L226
 1244 077e 2B21     		movs	r1, #43
 1245 0780 1022     		movs	r2, #16
 1246 0782 8023     		movs	r3, #128
 1247 0784 FFF7FEFF 		bl	u8g_DrawBox
 1248              	.L62:
 304:LCD_Menu.c    ****                     }
 305:LCD_Menu.c    ****                     u8g_SetDefaultBackgroundColor(&u8g);     
 1249              		.loc 1 305 0
 1250 0788 3C48     		ldr	r0, .L226
 1251 078a FFF7FEFF 		bl	u8g_SetDefaultBackgroundColor
 1252              	.L60:
 306:LCD_Menu.c    ****                 }
 307:LCD_Menu.c    **** 
 308:LCD_Menu.c    ****                 u8g_SetFont(&u8g, u8g_font_unifont);
 1253              		.loc 1 308 0
 1254 078e 3B48     		ldr	r0, .L226
 1255 0790 3B49     		ldr	r1, .L226+4
 1256 0792 FFF7FEFF 		bl	u8g_SetFont
 309:LCD_Menu.c    ****                 if(Set_Freq <10)                u8g_DrawStr(&u8g,  82, 29, cSet_Freq);
 1257              		.loc 1 309 0
 1258 0796 414B     		ldr	r3, .L226+32
 1259 0798 1B88     		ldrh	r3, [r3]
 1260 079a 092B     		cmp	r3, #9
 1261 079c 06D8     		bhi	.L63
 1262              		.loc 1 309 0 is_stmt 0 discriminator 1
 1263 079e 3748     		ldr	r0, .L226
 1264 07a0 5221     		movs	r1, #82
 1265 07a2 1D22     		movs	r2, #29
 1266 07a4 3E4B     		ldr	r3, .L226+36
 1267 07a6 FFF7FEFF 		bl	u8g_DrawStr
 1268 07aa 29E0     		b	.L64
 1269              	.L63:
 310:LCD_Menu.c    ****                 else if(Set_Freq <100)          u8g_DrawStr(&u8g,  74, 29, cSet_Freq);
 1270              		.loc 1 310 0 is_stmt 1
ARM GAS  C:\Users\KJA\AppData\Local\Temp\ccbnGHAr.s 			page 30


 1271 07ac 3B4B     		ldr	r3, .L226+32
 1272 07ae 1B88     		ldrh	r3, [r3]
 1273 07b0 632B     		cmp	r3, #99
 1274 07b2 06D8     		bhi	.L65
 1275              		.loc 1 310 0 is_stmt 0 discriminator 1
 1276 07b4 3148     		ldr	r0, .L226
 1277 07b6 4A21     		movs	r1, #74
 1278 07b8 1D22     		movs	r2, #29
 1279 07ba 394B     		ldr	r3, .L226+36
 1280 07bc FFF7FEFF 		bl	u8g_DrawStr
 1281 07c0 1EE0     		b	.L64
 1282              	.L65:
 311:LCD_Menu.c    ****                 else if(Set_Freq <1000)         u8g_DrawStr(&u8g,  66, 29, cSet_Freq);
 1283              		.loc 1 311 0 is_stmt 1
 1284 07c2 364B     		ldr	r3, .L226+32
 1285 07c4 1B88     		ldrh	r3, [r3]
 1286 07c6 B3F57A7F 		cmp	r3, #1000
 1287 07ca 06D2     		bcs	.L66
 1288              		.loc 1 311 0 is_stmt 0 discriminator 1
 1289 07cc 2B48     		ldr	r0, .L226
 1290 07ce 4221     		movs	r1, #66
 1291 07d0 1D22     		movs	r2, #29
 1292 07d2 334B     		ldr	r3, .L226+36
 1293 07d4 FFF7FEFF 		bl	u8g_DrawStr
 1294 07d8 12E0     		b	.L64
 1295              	.L66:
 312:LCD_Menu.c    ****                 else if(Set_Freq <10000)        u8g_DrawStr(&u8g,  58, 29, cSet_Freq);             
 1296              		.loc 1 312 0 is_stmt 1
 1297 07da 304B     		ldr	r3, .L226+32
 1298 07dc 1B88     		ldrh	r3, [r3]
 1299 07de 42F20F72 		movw	r2, #9999
 1300 07e2 9342     		cmp	r3, r2
 1301 07e4 06D8     		bhi	.L67
 1302              		.loc 1 312 0 is_stmt 0 discriminator 1
 1303 07e6 2548     		ldr	r0, .L226
 1304 07e8 3A21     		movs	r1, #58
 1305 07ea 1D22     		movs	r2, #29
 1306 07ec 2C4B     		ldr	r3, .L226+36
 1307 07ee FFF7FEFF 		bl	u8g_DrawStr
 1308 07f2 05E0     		b	.L64
 1309              	.L67:
 313:LCD_Menu.c    ****                 else                            u8g_DrawStr(&u8g,  50, 29, cSet_Freq);
 1310              		.loc 1 313 0 is_stmt 1
 1311 07f4 2148     		ldr	r0, .L226
 1312 07f6 3221     		movs	r1, #50
 1313 07f8 1D22     		movs	r2, #29
 1314 07fa 294B     		ldr	r3, .L226+36
 1315 07fc FFF7FEFF 		bl	u8g_DrawStr
 1316              	.L64:
 314:LCD_Menu.c    ****                 if(Current_Menu_Position == 1 && Edit_Value_Mode == 1){
 1317              		.loc 1 314 0
 1318 0800 BB79     		ldrb	r3, [r7, #6]	@ zero_extendqisi2
 1319 0802 012B     		cmp	r3, #1
 1320 0804 06D1     		bne	.L68
 1321              		.loc 1 314 0 is_stmt 0 discriminator 1
 1322 0806 204B     		ldr	r3, .L226+12
 1323 0808 1B78     		ldrb	r3, [r3]	@ zero_extendqisi2
ARM GAS  C:\Users\KJA\AppData\Local\Temp\ccbnGHAr.s 			page 31


 1324 080a 012B     		cmp	r3, #1
 1325 080c 02D1     		bne	.L68
 315:LCD_Menu.c    ****                     u8g_SetDefaultForegroundColor(&u8g);
 1326              		.loc 1 315 0 is_stmt 1
 1327 080e 1B48     		ldr	r0, .L226
 1328 0810 FFF7FEFF 		bl	u8g_SetDefaultForegroundColor
 1329              	.L68:
 316:LCD_Menu.c    ****                 }
 317:LCD_Menu.c    ****                 u8g_SetFont(&u8g, u8g_font_unifont);              
 1330              		.loc 1 317 0
 1331 0814 1948     		ldr	r0, .L226
 1332 0816 1A49     		ldr	r1, .L226+4
 1333 0818 FFF7FEFF 		bl	u8g_SetFont
 318:LCD_Menu.c    ****                 u8g_DrawStr(&u8g,  2, 29, "Freq:");
 1334              		.loc 1 318 0
 1335 081c 1748     		ldr	r0, .L226
 1336 081e 0221     		movs	r1, #2
 1337 0820 1D22     		movs	r2, #29
 1338 0822 204B     		ldr	r3, .L226+40
 1339 0824 FFF7FEFF 		bl	u8g_DrawStr
 319:LCD_Menu.c    ****                 
 320:LCD_Menu.c    ****                 
 321:LCD_Menu.c    ****                 if(Current_Menu_Position == 1 && Edit_Value_Mode == 1){ 
 1340              		.loc 1 321 0
 1341 0828 BB79     		ldrb	r3, [r7, #6]	@ zero_extendqisi2
 1342 082a 012B     		cmp	r3, #1
 1343 082c 52D1     		bne	.L69
 1344              		.loc 1 321 0 is_stmt 0 discriminator 1
 1345 082e 164B     		ldr	r3, .L226+12
 1346 0830 1B78     		ldrb	r3, [r3]	@ zero_extendqisi2
 1347 0832 012B     		cmp	r3, #1
 1348 0834 4ED1     		bne	.L69
 1349              	.LBB3:
 322:LCD_Menu.c    ****                         
 323:LCD_Menu.c    ****                     uint8 Underline;
 324:LCD_Menu.c    ****                 
 325:LCD_Menu.c    ****                     u8g_SetDefaultBackgroundColor(&u8g);
 1350              		.loc 1 325 0 is_stmt 1
 1351 0836 1148     		ldr	r0, .L226
 1352 0838 FFF7FEFF 		bl	u8g_SetDefaultBackgroundColor
 326:LCD_Menu.c    ****                     
 327:LCD_Menu.c    ****                     if(Position_Number == 0) Underline = 51;
 1353              		.loc 1 327 0
 1354 083c 164B     		ldr	r3, .L226+28
 1355 083e 1B78     		ldrb	r3, [r3]	@ zero_extendqisi2
 1356 0840 002B     		cmp	r3, #0
 1357 0842 02D1     		bne	.L70
 1358              		.loc 1 327 0 is_stmt 0 discriminator 1
 1359 0844 3323     		movs	r3, #51
 1360 0846 BB75     		strb	r3, [r7, #22]
 1361 0848 38E0     		b	.L71
 1362              	.L70:
 328:LCD_Menu.c    ****                     else if(Position_Number == 1) Underline = 59;
 1363              		.loc 1 328 0 is_stmt 1
 1364 084a 134B     		ldr	r3, .L226+28
 1365 084c 1B78     		ldrb	r3, [r3]	@ zero_extendqisi2
 1366 084e 5BB2     		sxtb	r3, r3
ARM GAS  C:\Users\KJA\AppData\Local\Temp\ccbnGHAr.s 			page 32


 1367 0850 012B     		cmp	r3, #1
 1368 0852 02D1     		bne	.L72
 1369              		.loc 1 328 0 is_stmt 0 discriminator 1
 1370 0854 3B23     		movs	r3, #59
 1371 0856 BB75     		strb	r3, [r7, #22]
 1372 0858 30E0     		b	.L71
 1373              	.L72:
 329:LCD_Menu.c    ****                     else if(Position_Number == 2) Underline = 67;
 1374              		.loc 1 329 0 is_stmt 1
 1375 085a 0F4B     		ldr	r3, .L226+28
 1376 085c 1B78     		ldrb	r3, [r3]	@ zero_extendqisi2
 1377 085e 5BB2     		sxtb	r3, r3
 1378 0860 022B     		cmp	r3, #2
 1379 0862 02D1     		bne	.L73
 1380              		.loc 1 329 0 is_stmt 0 discriminator 1
 1381 0864 4323     		movs	r3, #67
 1382 0866 BB75     		strb	r3, [r7, #22]
 1383 0868 28E0     		b	.L71
 1384              	.L73:
 330:LCD_Menu.c    ****                     else if(Position_Number == 3) Underline = 75;
 1385              		.loc 1 330 0 is_stmt 1
 1386 086a 0B4B     		ldr	r3, .L226+28
 1387 086c 1B78     		ldrb	r3, [r3]	@ zero_extendqisi2
 1388 086e 5BB2     		sxtb	r3, r3
 1389 0870 032B     		cmp	r3, #3
 1390 0872 19D1     		bne	.L74
 1391              		.loc 1 330 0 is_stmt 0 discriminator 1
 1392 0874 4B23     		movs	r3, #75
 1393 0876 BB75     		strb	r3, [r7, #22]
 1394 0878 20E0     		b	.L71
 1395              	.L227:
 1396 087a 00BF     		.align	2
 1397              	.L226:
 1398 087c 00000000 		.word	u8g
 1399 0880 00000000 		.word	u8g_font_unifont
 1400 0884 18010000 		.word	.LC19
 1401 0888 00000000 		.word	Edit_Value_Mode
 1402 088c 00000000 		.word	Set_Ampl
 1403 0890 00000000 		.word	cSet_Ampl
 1404 0894 28010000 		.word	.LC20
 1405 0898 00000000 		.word	Position_Number
 1406 089c 00000000 		.word	Set_Freq
 1407 08a0 00000000 		.word	cSet_Freq
 1408 08a4 30010000 		.word	.LC21
 1409              	.L74:
 331:LCD_Menu.c    ****                     else if(Position_Number == 4) Underline = 83;
 1410              		.loc 1 331 0 is_stmt 1
 1411 08a8 A54B     		ldr	r3, .L228
 1412 08aa 1B78     		ldrb	r3, [r3]	@ zero_extendqisi2
 1413 08ac 5BB2     		sxtb	r3, r3
 1414 08ae 042B     		cmp	r3, #4
 1415 08b0 02D1     		bne	.L75
 1416              		.loc 1 331 0 is_stmt 0 discriminator 1
 1417 08b2 5323     		movs	r3, #83
 1418 08b4 BB75     		strb	r3, [r7, #22]
 1419 08b6 01E0     		b	.L71
 1420              	.L75:
ARM GAS  C:\Users\KJA\AppData\Local\Temp\ccbnGHAr.s 			page 33


 332:LCD_Menu.c    ****                     else Underline = 51;
 1421              		.loc 1 332 0 is_stmt 1
 1422 08b8 3323     		movs	r3, #51
 1423 08ba BB75     		strb	r3, [r7, #22]
 1424              	.L71:
 333:LCD_Menu.c    ****                     
 334:LCD_Menu.c    ****                     u8g_DrawLine(&u8g,Underline,30,Underline+5,30);
 1425              		.loc 1 334 0
 1426 08bc BB7D     		ldrb	r3, [r7, #22]
 1427 08be 0533     		adds	r3, r3, #5
 1428 08c0 DCB2     		uxtb	r4, r3
 1429 08c2 BA7D     		ldrb	r2, [r7, #22]	@ zero_extendqisi2
 1430 08c4 1E23     		movs	r3, #30
 1431 08c6 0093     		str	r3, [sp]
 1432 08c8 9E48     		ldr	r0, .L228+4
 1433 08ca 1146     		mov	r1, r2
 1434 08cc 1E22     		movs	r2, #30
 1435 08ce 2346     		mov	r3, r4
 1436 08d0 FFF7FEFF 		bl	u8g_DrawLine
 1437              	.L69:
 1438              	.LBE3:
 335:LCD_Menu.c    ****                 }
 336:LCD_Menu.c    ****                 
 337:LCD_Menu.c    ****                 u8g_SetDefaultForegroundColor(&u8g);
 1439              		.loc 1 337 0
 1440 08d4 9B48     		ldr	r0, .L228+4
 1441 08d6 FFF7FEFF 		bl	u8g_SetDefaultForegroundColor
 338:LCD_Menu.c    ****                 if(Current_Menu_Position == 0){                    
 1442              		.loc 1 338 0
 1443 08da BB79     		ldrb	r3, [r7, #6]	@ zero_extendqisi2
 1444 08dc 002B     		cmp	r3, #0
 1445 08de 1AD1     		bne	.L76
 339:LCD_Menu.c    ****                     if(Edit_Value_Mode == 0){
 1446              		.loc 1 339 0
 1447 08e0 994B     		ldr	r3, .L228+8
 1448 08e2 1B78     		ldrb	r3, [r3]	@ zero_extendqisi2
 1449 08e4 002B     		cmp	r3, #0
 1450 08e6 07D1     		bne	.L77
 340:LCD_Menu.c    ****                         u8g_DrawBox(&u8g, 0,32,128,16);
 1451              		.loc 1 340 0
 1452 08e8 1023     		movs	r3, #16
 1453 08ea 0093     		str	r3, [sp]
 1454 08ec 9548     		ldr	r0, .L228+4
 1455 08ee 0021     		movs	r1, #0
 1456 08f0 2022     		movs	r2, #32
 1457 08f2 8023     		movs	r3, #128
 1458 08f4 FFF7FEFF 		bl	u8g_DrawBox
 1459              	.L77:
 341:LCD_Menu.c    ****                     }
 342:LCD_Menu.c    ****                     if(Edit_Value_Mode == 1){
 1460              		.loc 1 342 0
 1461 08f8 934B     		ldr	r3, .L228+8
 1462 08fa 1B78     		ldrb	r3, [r3]	@ zero_extendqisi2
 1463 08fc 012B     		cmp	r3, #1
 1464 08fe 07D1     		bne	.L78
 343:LCD_Menu.c    ****                         u8g_DrawBox(&u8g, 43,32,128,16);
 1465              		.loc 1 343 0
ARM GAS  C:\Users\KJA\AppData\Local\Temp\ccbnGHAr.s 			page 34


 1466 0900 1023     		movs	r3, #16
 1467 0902 0093     		str	r3, [sp]
 1468 0904 8F48     		ldr	r0, .L228+4
 1469 0906 2B21     		movs	r1, #43
 1470 0908 2022     		movs	r2, #32
 1471 090a 8023     		movs	r3, #128
 1472 090c FFF7FEFF 		bl	u8g_DrawBox
 1473              	.L78:
 344:LCD_Menu.c    ****                                                
 345:LCD_Menu.c    ****                     }
 346:LCD_Menu.c    ****                     
 347:LCD_Menu.c    ****                     u8g_SetDefaultBackgroundColor(&u8g);
 1474              		.loc 1 347 0
 1475 0910 8C48     		ldr	r0, .L228+4
 1476 0912 FFF7FEFF 		bl	u8g_SetDefaultBackgroundColor
 1477              	.L76:
 348:LCD_Menu.c    ****                 }
 349:LCD_Menu.c    ****                 u8g_SetFont(&u8g, u8g_font_unifont);
 1478              		.loc 1 349 0
 1479 0916 8B48     		ldr	r0, .L228+4
 1480 0918 8C49     		ldr	r1, .L228+12
 1481 091a FFF7FEFF 		bl	u8g_SetFont
 350:LCD_Menu.c    ****                 if(Set_Duty <10)        u8g_DrawStr(&u8g,  82, 45, cSet_Duty);
 1482              		.loc 1 350 0
 1483 091e 8C4B     		ldr	r3, .L228+16
 1484 0920 1B78     		ldrb	r3, [r3]	@ zero_extendqisi2
 1485 0922 5BB2     		sxtb	r3, r3
 1486 0924 092B     		cmp	r3, #9
 1487 0926 05DC     		bgt	.L79
 1488              		.loc 1 350 0 is_stmt 0 discriminator 1
 1489 0928 8648     		ldr	r0, .L228+4
 1490 092a 5221     		movs	r1, #82
 1491 092c 2D22     		movs	r2, #45
 1492 092e 894B     		ldr	r3, .L228+20
 1493 0930 FFF7FEFF 		bl	u8g_DrawStr
 1494              	.L79:
 351:LCD_Menu.c    ****                 if(Set_Duty <100)       u8g_DrawStr(&u8g,  74, 45, cSet_Duty);
 1495              		.loc 1 351 0 is_stmt 1
 1496 0934 864B     		ldr	r3, .L228+16
 1497 0936 1B78     		ldrb	r3, [r3]	@ zero_extendqisi2
 1498 0938 5BB2     		sxtb	r3, r3
 1499 093a 632B     		cmp	r3, #99
 1500 093c 06DC     		bgt	.L80
 1501              		.loc 1 351 0 is_stmt 0 discriminator 1
 1502 093e 8148     		ldr	r0, .L228+4
 1503 0940 4A21     		movs	r1, #74
 1504 0942 2D22     		movs	r2, #45
 1505 0944 834B     		ldr	r3, .L228+20
 1506 0946 FFF7FEFF 		bl	u8g_DrawStr
 1507 094a 05E0     		b	.L81
 1508              	.L80:
 352:LCD_Menu.c    ****                 else                    u8g_DrawStr(&u8g,  66, 45, cSet_Duty);
 1509              		.loc 1 352 0 is_stmt 1
 1510 094c 7D48     		ldr	r0, .L228+4
 1511 094e 4221     		movs	r1, #66
 1512 0950 2D22     		movs	r2, #45
 1513 0952 804B     		ldr	r3, .L228+20
ARM GAS  C:\Users\KJA\AppData\Local\Temp\ccbnGHAr.s 			page 35


 1514 0954 FFF7FEFF 		bl	u8g_DrawStr
 1515              	.L81:
 353:LCD_Menu.c    ****                 
 354:LCD_Menu.c    ****                 if(Current_Menu_Position == 0 && Edit_Value_Mode == 1){
 1516              		.loc 1 354 0
 1517 0958 BB79     		ldrb	r3, [r7, #6]	@ zero_extendqisi2
 1518 095a 002B     		cmp	r3, #0
 1519 095c 06D1     		bne	.L82
 1520              		.loc 1 354 0 is_stmt 0 discriminator 1
 1521 095e 7A4B     		ldr	r3, .L228+8
 1522 0960 1B78     		ldrb	r3, [r3]	@ zero_extendqisi2
 1523 0962 012B     		cmp	r3, #1
 1524 0964 02D1     		bne	.L82
 355:LCD_Menu.c    ****                     u8g_SetDefaultForegroundColor(&u8g);
 1525              		.loc 1 355 0 is_stmt 1
 1526 0966 7748     		ldr	r0, .L228+4
 1527 0968 FFF7FEFF 		bl	u8g_SetDefaultForegroundColor
 1528              	.L82:
 356:LCD_Menu.c    ****                 }
 357:LCD_Menu.c    ****                 u8g_SetFont(&u8g, u8g_font_unifont);              
 1529              		.loc 1 357 0
 1530 096c 7548     		ldr	r0, .L228+4
 1531 096e 7749     		ldr	r1, .L228+12
 1532 0970 FFF7FEFF 		bl	u8g_SetFont
 358:LCD_Menu.c    ****                 u8g_DrawStr(&u8g,  2, 45, "Duty:");
 1533              		.loc 1 358 0
 1534 0974 7348     		ldr	r0, .L228+4
 1535 0976 0221     		movs	r1, #2
 1536 0978 2D22     		movs	r2, #45
 1537 097a 774B     		ldr	r3, .L228+24
 1538 097c FFF7FEFF 		bl	u8g_DrawStr
 359:LCD_Menu.c    ****                 
 360:LCD_Menu.c    ****                 if(Current_Menu_Position == 0 && Edit_Value_Mode == 1){ 
 1539              		.loc 1 360 0
 1540 0980 BB79     		ldrb	r3, [r7, #6]	@ zero_extendqisi2
 1541 0982 002B     		cmp	r3, #0
 1542 0984 23D1     		bne	.L83
 1543              		.loc 1 360 0 is_stmt 0 discriminator 1
 1544 0986 704B     		ldr	r3, .L228+8
 1545 0988 1B78     		ldrb	r3, [r3]	@ zero_extendqisi2
 1546 098a 012B     		cmp	r3, #1
 1547 098c 1FD1     		bne	.L83
 1548              	.LBB4:
 361:LCD_Menu.c    ****                         
 362:LCD_Menu.c    ****                     uint8 Underline;
 363:LCD_Menu.c    ****                 
 364:LCD_Menu.c    ****                     u8g_SetDefaultBackgroundColor(&u8g);
 1549              		.loc 1 364 0 is_stmt 1
 1550 098e 6D48     		ldr	r0, .L228+4
 1551 0990 FFF7FEFF 		bl	u8g_SetDefaultBackgroundColor
 365:LCD_Menu.c    ****                     
 366:LCD_Menu.c    ****                     if(Position_Number == 0) Underline = 75;
 1552              		.loc 1 366 0
 1553 0994 6A4B     		ldr	r3, .L228
 1554 0996 1B78     		ldrb	r3, [r3]	@ zero_extendqisi2
 1555 0998 002B     		cmp	r3, #0
 1556 099a 02D1     		bne	.L84
ARM GAS  C:\Users\KJA\AppData\Local\Temp\ccbnGHAr.s 			page 36


 1557              		.loc 1 366 0 is_stmt 0 discriminator 1
 1558 099c 4B23     		movs	r3, #75
 1559 099e 7B75     		strb	r3, [r7, #21]
 1560 09a0 09E0     		b	.L85
 1561              	.L84:
 367:LCD_Menu.c    ****                     else if(Position_Number == 1) Underline = 83;
 1562              		.loc 1 367 0 is_stmt 1
 1563 09a2 674B     		ldr	r3, .L228
 1564 09a4 1B78     		ldrb	r3, [r3]	@ zero_extendqisi2
 1565 09a6 5BB2     		sxtb	r3, r3
 1566 09a8 012B     		cmp	r3, #1
 1567 09aa 02D1     		bne	.L86
 1568              		.loc 1 367 0 is_stmt 0 discriminator 1
 1569 09ac 5323     		movs	r3, #83
 1570 09ae 7B75     		strb	r3, [r7, #21]
 1571 09b0 01E0     		b	.L85
 1572              	.L86:
 368:LCD_Menu.c    ****                     else Underline = 59;
 1573              		.loc 1 368 0 is_stmt 1
 1574 09b2 3B23     		movs	r3, #59
 1575 09b4 7B75     		strb	r3, [r7, #21]
 1576              	.L85:
 369:LCD_Menu.c    ****                     
 370:LCD_Menu.c    ****                     u8g_DrawLine(&u8g,Underline,46,Underline+5,46);
 1577              		.loc 1 370 0
 1578 09b6 7B7D     		ldrb	r3, [r7, #21]
 1579 09b8 0533     		adds	r3, r3, #5
 1580 09ba DCB2     		uxtb	r4, r3
 1581 09bc 7A7D     		ldrb	r2, [r7, #21]	@ zero_extendqisi2
 1582 09be 2E23     		movs	r3, #46
 1583 09c0 0093     		str	r3, [sp]
 1584 09c2 6048     		ldr	r0, .L228+4
 1585 09c4 1146     		mov	r1, r2
 1586 09c6 2E22     		movs	r2, #46
 1587 09c8 2346     		mov	r3, r4
 1588 09ca FFF7FEFF 		bl	u8g_DrawLine
 1589              	.L83:
 1590              	.LBE4:
 371:LCD_Menu.c    ****                 }
 372:LCD_Menu.c    ****                
 373:LCD_Menu.c    ****                 
 374:LCD_Menu.c    ****                 u8g_SetDefaultForegroundColor(&u8g);   
 1591              		.loc 1 374 0
 1592 09ce 5D48     		ldr	r0, .L228+4
 1593 09d0 FFF7FEFF 		bl	u8g_SetDefaultForegroundColor
 375:LCD_Menu.c    ****                 
 376:LCD_Menu.c    ****                 u8g_DrawBox(&u8g, 0,51,128,16);
 1594              		.loc 1 376 0
 1595 09d4 1023     		movs	r3, #16
 1596 09d6 0093     		str	r3, [sp]
 1597 09d8 5A48     		ldr	r0, .L228+4
 1598 09da 0021     		movs	r1, #0
 1599 09dc 3322     		movs	r2, #51
 1600 09de 8023     		movs	r3, #128
 1601 09e0 FFF7FEFF 		bl	u8g_DrawBox
 377:LCD_Menu.c    ****                 u8g_SetDefaultBackgroundColor(&u8g);
 1602              		.loc 1 377 0
ARM GAS  C:\Users\KJA\AppData\Local\Temp\ccbnGHAr.s 			page 37


 1603 09e4 5748     		ldr	r0, .L228+4
 1604 09e6 FFF7FEFF 		bl	u8g_SetDefaultBackgroundColor
 378:LCD_Menu.c    ****                 u8g_SetFont(&u8g, u8g_font_unifont);              
 1605              		.loc 1 378 0
 1606 09ea 5648     		ldr	r0, .L228+4
 1607 09ec 5749     		ldr	r1, .L228+12
 1608 09ee FFF7FEFF 		bl	u8g_SetFont
 379:LCD_Menu.c    ****                 u8g_DrawLine(&u8g,32,52,32,62); 
 1609              		.loc 1 379 0
 1610 09f2 3E23     		movs	r3, #62
 1611 09f4 0093     		str	r3, [sp]
 1612 09f6 5348     		ldr	r0, .L228+4
 1613 09f8 2021     		movs	r1, #32
 1614 09fa 3422     		movs	r2, #52
 1615 09fc 2023     		movs	r3, #32
 1616 09fe FFF7FEFF 		bl	u8g_DrawLine
 380:LCD_Menu.c    ****                 u8g_DrawLine(&u8g,64,52,64,62);   
 1617              		.loc 1 380 0
 1618 0a02 3E23     		movs	r3, #62
 1619 0a04 0093     		str	r3, [sp]
 1620 0a06 4F48     		ldr	r0, .L228+4
 1621 0a08 4021     		movs	r1, #64
 1622 0a0a 3422     		movs	r2, #52
 1623 0a0c 4023     		movs	r3, #64
 1624 0a0e FFF7FEFF 		bl	u8g_DrawLine
 381:LCD_Menu.c    ****                 u8g_DrawLine(&u8g,96,52,96,62);
 1625              		.loc 1 381 0
 1626 0a12 3E23     		movs	r3, #62
 1627 0a14 0093     		str	r3, [sp]
 1628 0a16 4B48     		ldr	r0, .L228+4
 1629 0a18 6021     		movs	r1, #96
 1630 0a1a 3422     		movs	r2, #52
 1631 0a1c 6023     		movs	r3, #96
 1632 0a1e FFF7FEFF 		bl	u8g_DrawLine
 382:LCD_Menu.c    ****                 
 383:LCD_Menu.c    ****                 if(OutputEnable == 0){
 1633              		.loc 1 383 0
 1634 0a22 4E4B     		ldr	r3, .L228+28
 1635 0a24 1B78     		ldrb	r3, [r3]	@ zero_extendqisi2
 1636 0a26 002B     		cmp	r3, #0
 1637 0a28 0BD1     		bne	.L87
 384:LCD_Menu.c    ****                     u8g_DrawTriangle(&u8g, 11+3,51, 17+3,57, 11+3,63);
 1638              		.loc 1 384 0
 1639 0a2a 3923     		movs	r3, #57
 1640 0a2c 0093     		str	r3, [sp]
 1641 0a2e 0E23     		movs	r3, #14
 1642 0a30 0193     		str	r3, [sp, #4]
 1643 0a32 3F23     		movs	r3, #63
 1644 0a34 0293     		str	r3, [sp, #8]
 1645 0a36 4348     		ldr	r0, .L228+4
 1646 0a38 0E21     		movs	r1, #14
 1647 0a3a 3322     		movs	r2, #51
 1648 0a3c 1423     		movs	r3, #20
 1649 0a3e FFF7FEFF 		bl	u8g_DrawTriangle
 1650              	.L87:
 385:LCD_Menu.c    ****                 }
 386:LCD_Menu.c    ****                 if(OutputEnable == 1){
ARM GAS  C:\Users\KJA\AppData\Local\Temp\ccbnGHAr.s 			page 38


 1651              		.loc 1 386 0
 1652 0a42 464B     		ldr	r3, .L228+28
 1653 0a44 1B78     		ldrb	r3, [r3]	@ zero_extendqisi2
 1654 0a46 012B     		cmp	r3, #1
 1655 0a48 1FD1     		bne	.L88
 387:LCD_Menu.c    ****                     u8g_DrawLine(&u8g,14,53,14,61);
 1656              		.loc 1 387 0
 1657 0a4a 3D23     		movs	r3, #61
 1658 0a4c 0093     		str	r3, [sp]
 1659 0a4e 3D48     		ldr	r0, .L228+4
 1660 0a50 0E21     		movs	r1, #14
 1661 0a52 3522     		movs	r2, #53
 1662 0a54 0E23     		movs	r3, #14
 1663 0a56 FFF7FEFF 		bl	u8g_DrawLine
 388:LCD_Menu.c    ****                     u8g_DrawLine(&u8g,15,53,15,61); 
 1664              		.loc 1 388 0
 1665 0a5a 3D23     		movs	r3, #61
 1666 0a5c 0093     		str	r3, [sp]
 1667 0a5e 3948     		ldr	r0, .L228+4
 1668 0a60 0F21     		movs	r1, #15
 1669 0a62 3522     		movs	r2, #53
 1670 0a64 0F23     		movs	r3, #15
 1671 0a66 FFF7FEFF 		bl	u8g_DrawLine
 389:LCD_Menu.c    ****                     
 390:LCD_Menu.c    ****                     u8g_DrawLine(&u8g,17,53,17,61); 
 1672              		.loc 1 390 0
 1673 0a6a 3D23     		movs	r3, #61
 1674 0a6c 0093     		str	r3, [sp]
 1675 0a6e 3548     		ldr	r0, .L228+4
 1676 0a70 1121     		movs	r1, #17
 1677 0a72 3522     		movs	r2, #53
 1678 0a74 1123     		movs	r3, #17
 1679 0a76 FFF7FEFF 		bl	u8g_DrawLine
 391:LCD_Menu.c    ****                     u8g_DrawLine(&u8g,18,53,18,61);   
 1680              		.loc 1 391 0
 1681 0a7a 3D23     		movs	r3, #61
 1682 0a7c 0093     		str	r3, [sp]
 1683 0a7e 3148     		ldr	r0, .L228+4
 1684 0a80 1221     		movs	r1, #18
 1685 0a82 3522     		movs	r2, #53
 1686 0a84 1223     		movs	r3, #18
 1687 0a86 FFF7FEFF 		bl	u8g_DrawLine
 1688              	.L88:
 392:LCD_Menu.c    ****                 }
 393:LCD_Menu.c    ****                 
 394:LCD_Menu.c    ****                 if(Edit_Value_Mode == 0){  
 1689              		.loc 1 394 0
 1690 0a8a 2F4B     		ldr	r3, .L228+8
 1691 0a8c 1B78     		ldrb	r3, [r3]	@ zero_extendqisi2
 1692 0a8e 002B     		cmp	r3, #0
 1693 0a90 0AD1     		bne	.L89
 395:LCD_Menu.c    ****                 u8g_SetFont(&u8g, u8g_font_unifont);              
 1694              		.loc 1 395 0
 1695 0a92 2C48     		ldr	r0, .L228+4
 1696 0a94 2D49     		ldr	r1, .L228+12
 1697 0a96 FFF7FEFF 		bl	u8g_SetFont
 396:LCD_Menu.c    ****                 u8g_DrawStr(&u8g,  37, 62, "set");
ARM GAS  C:\Users\KJA\AppData\Local\Temp\ccbnGHAr.s 			page 39


 1698              		.loc 1 396 0
 1699 0a9a 2A48     		ldr	r0, .L228+4
 1700 0a9c 2521     		movs	r1, #37
 1701 0a9e 3E22     		movs	r2, #62
 1702 0aa0 2F4B     		ldr	r3, .L228+32
 1703 0aa2 FFF7FEFF 		bl	u8g_DrawStr
 1704 0aa6 0DE0     		b	.L90
 1705              	.L89:
 397:LCD_Menu.c    ****                 }
 398:LCD_Menu.c    ****                 else if(Edit_Value_Mode == 1){  
 1706              		.loc 1 398 0
 1707 0aa8 274B     		ldr	r3, .L228+8
 1708 0aaa 1B78     		ldrb	r3, [r3]	@ zero_extendqisi2
 1709 0aac 012B     		cmp	r3, #1
 1710 0aae 09D1     		bne	.L90
 399:LCD_Menu.c    ****                 u8g_SetFont(&u8g, u8g_font_unifont);              
 1711              		.loc 1 399 0
 1712 0ab0 2448     		ldr	r0, .L228+4
 1713 0ab2 2649     		ldr	r1, .L228+12
 1714 0ab4 FFF7FEFF 		bl	u8g_SetFont
 400:LCD_Menu.c    ****                 u8g_DrawStr(&u8g,  41, 62, "ok");
 1715              		.loc 1 400 0
 1716 0ab8 2248     		ldr	r0, .L228+4
 1717 0aba 2921     		movs	r1, #41
 1718 0abc 3E22     		movs	r2, #62
 1719 0abe 294B     		ldr	r3, .L228+36
 1720 0ac0 FFF7FEFF 		bl	u8g_DrawStr
 1721              	.L90:
 401:LCD_Menu.c    ****                 }
 402:LCD_Menu.c    ****                 
 403:LCD_Menu.c    ****                 u8g_DrawLine(&u8g,117,54,117,60-1);
 1722              		.loc 1 403 0
 1723 0ac4 3B23     		movs	r3, #59
 1724 0ac6 0093     		str	r3, [sp]
 1725 0ac8 1E48     		ldr	r0, .L228+4
 1726 0aca 7521     		movs	r1, #117
 1727 0acc 3622     		movs	r2, #54
 1728 0ace 7523     		movs	r3, #117
 1729 0ad0 FFF7FEFF 		bl	u8g_DrawLine
 404:LCD_Menu.c    ****                 u8g_DrawLine(&u8g,109,60-1,117,60-1);
 1730              		.loc 1 404 0
 1731 0ad4 3B23     		movs	r3, #59
 1732 0ad6 0093     		str	r3, [sp]
 1733 0ad8 1A48     		ldr	r0, .L228+4
 1734 0ada 6D21     		movs	r1, #109
 1735 0adc 3B22     		movs	r2, #59
 1736 0ade 7523     		movs	r3, #117
 1737 0ae0 FFF7FEFF 		bl	u8g_DrawLine
 405:LCD_Menu.c    ****                 u8g_DrawTriangle(&u8g, 112,57-1, 107,60-1, 112,63-1);
 1738              		.loc 1 405 0
 1739 0ae4 3B23     		movs	r3, #59
 1740 0ae6 0093     		str	r3, [sp]
 1741 0ae8 7023     		movs	r3, #112
 1742 0aea 0193     		str	r3, [sp, #4]
 1743 0aec 3E23     		movs	r3, #62
 1744 0aee 0293     		str	r3, [sp, #8]
 1745 0af0 1448     		ldr	r0, .L228+4
ARM GAS  C:\Users\KJA\AppData\Local\Temp\ccbnGHAr.s 			page 40


 1746 0af2 7021     		movs	r1, #112
 1747 0af4 3822     		movs	r2, #56
 1748 0af6 6B23     		movs	r3, #107
 1749 0af8 FFF7FEFF 		bl	u8g_DrawTriangle
 406:LCD_Menu.c    ****                 
 407:LCD_Menu.c    ****             } while ( u8g_NextPage(&u8g) );
 1750              		.loc 1 407 0
 1751 0afc 1148     		ldr	r0, .L228+4
 1752 0afe FFF7FEFF 		bl	u8g_NextPage
 1753 0b02 0346     		mov	r3, r0
 1754 0b04 002B     		cmp	r3, #0
 1755 0b06 7FF486AD 		bne	.L91
 408:LCD_Menu.c    ****       break;
 1756              		.loc 1 408 0
 1757 0b0a 01F078B8 		b	.L1
 1758              	.L22:
 409:LCD_Menu.c    ****             
 410:LCD_Menu.c    ****       case External_Drive: 
 411:LCD_Menu.c    ****             u8g_FirstPage(&u8g);
 1759              		.loc 1 411 0
 1760 0b0e 0D48     		ldr	r0, .L228+4
 1761 0b10 FFF7FEFF 		bl	u8g_FirstPage
 1762              	.L92:
 412:LCD_Menu.c    ****             do{
 413:LCD_Menu.c    ****                 u8g_SetDefaultForegroundColor(&u8g);         
 1763              		.loc 1 413 0 discriminator 1
 1764 0b14 0B48     		ldr	r0, .L228+4
 1765 0b16 FFF7FEFF 		bl	u8g_SetDefaultForegroundColor
 414:LCD_Menu.c    ****                 u8g_SetFont(&u8g, u8g_font_unifont);                
 1766              		.loc 1 414 0 discriminator 1
 1767 0b1a 0A48     		ldr	r0, .L228+4
 1768 0b1c 0B49     		ldr	r1, .L228+12
 1769 0b1e FFF7FEFF 		bl	u8g_SetFont
 415:LCD_Menu.c    ****                 u8g_DrawStr(&u8g,  30, 12, "External_Drive");
 1770              		.loc 1 415 0 discriminator 1
 1771 0b22 0848     		ldr	r0, .L228+4
 1772 0b24 1E21     		movs	r1, #30
 1773 0b26 0C22     		movs	r2, #12
 1774 0b28 0F4B     		ldr	r3, .L228+40
 1775 0b2a FFF7FEFF 		bl	u8g_DrawStr
 416:LCD_Menu.c    **** 
 417:LCD_Menu.c    ****             } while ( u8g_NextPage(&u8g) ); 
 1776              		.loc 1 417 0 discriminator 1
 1777 0b2e 0548     		ldr	r0, .L228+4
 1778 0b30 FFF7FEFF 		bl	u8g_NextPage
 1779 0b34 0346     		mov	r3, r0
 1780 0b36 002B     		cmp	r3, #0
 1781 0b38 ECD1     		bne	.L92
 418:LCD_Menu.c    ****       break;            
 1782              		.loc 1 418 0
 1783 0b3a 01F060B8 		b	.L1
 1784              	.L229:
 1785 0b3e 00BF     		.align	2
 1786              	.L228:
 1787 0b40 00000000 		.word	Position_Number
 1788 0b44 00000000 		.word	u8g
 1789 0b48 00000000 		.word	Edit_Value_Mode
ARM GAS  C:\Users\KJA\AppData\Local\Temp\ccbnGHAr.s 			page 41


 1790 0b4c 00000000 		.word	u8g_font_unifont
 1791 0b50 00000000 		.word	Set_Duty
 1792 0b54 00000000 		.word	cSet_Duty
 1793 0b58 38010000 		.word	.LC22
 1794 0b5c 00000000 		.word	OutputEnable
 1795 0b60 40010000 		.word	.LC23
 1796 0b64 44010000 		.word	.LC24
 1797 0b68 48010000 		.word	.LC25
 1798              	.L11:
 419:LCD_Menu.c    ****             
 420:LCD_Menu.c    ****             
 421:LCD_Menu.c    **** 
 422:LCD_Menu.c    ****         case VolumeSetting: 
 423:LCD_Menu.c    ****             u8g_FirstPage(&u8g);
 1799              		.loc 1 423 0
 1800 0b6c A348     		ldr	r0, .L230
 1801 0b6e FFF7FEFF 		bl	u8g_FirstPage
 1802              	.L93:
 424:LCD_Menu.c    ****             do{
 425:LCD_Menu.c    ****                                 
 426:LCD_Menu.c    ****                 u8g_SetDefaultForegroundColor(&u8g);       
 1803              		.loc 1 426 0 discriminator 1
 1804 0b72 A248     		ldr	r0, .L230
 1805 0b74 FFF7FEFF 		bl	u8g_SetDefaultForegroundColor
 427:LCD_Menu.c    ****                 
 428:LCD_Menu.c    ****                 u8g_SetFont(&u8g, u8g_font_unifont);
 1806              		.loc 1 428 0 discriminator 1
 1807 0b78 A048     		ldr	r0, .L230
 1808 0b7a A149     		ldr	r1, .L230+4
 1809 0b7c FFF7FEFF 		bl	u8g_SetFont
 429:LCD_Menu.c    ****                 u8g_DrawStr(&u8g,  2, 13, "Backlight");
 1810              		.loc 1 429 0 discriminator 1
 1811 0b80 9E48     		ldr	r0, .L230
 1812 0b82 0221     		movs	r1, #2
 1813 0b84 0D22     		movs	r2, #13
 1814 0b86 9F4B     		ldr	r3, .L230+8
 1815 0b88 FFF7FEFF 		bl	u8g_DrawStr
 430:LCD_Menu.c    ****                 u8g_SetFont(&u8g, u8g_font_unifont);
 1816              		.loc 1 430 0 discriminator 1
 1817 0b8c 9B48     		ldr	r0, .L230
 1818 0b8e 9C49     		ldr	r1, .L230+4
 1819 0b90 FFF7FEFF 		bl	u8g_SetFont
 431:LCD_Menu.c    ****                 u8g_DrawStr(&u8g,  96, 13, CurrentBacklightValueString);
 1820              		.loc 1 431 0 discriminator 1
 1821 0b94 9948     		ldr	r0, .L230
 1822 0b96 6021     		movs	r1, #96
 1823 0b98 0D22     		movs	r2, #13
 1824 0b9a 9B4B     		ldr	r3, .L230+12
 1825 0b9c FFF7FEFF 		bl	u8g_DrawStr
 432:LCD_Menu.c    ****                 
 433:LCD_Menu.c    ****                 
 434:LCD_Menu.c    ****                 u8g_SetDefaultForegroundColor(&u8g);   
 1826              		.loc 1 434 0 discriminator 1
 1827 0ba0 9648     		ldr	r0, .L230
 1828 0ba2 FFF7FEFF 		bl	u8g_SetDefaultForegroundColor
 435:LCD_Menu.c    **** 
 436:LCD_Menu.c    ****                 u8g_SetFont(&u8g, u8g_font_unifont);              
ARM GAS  C:\Users\KJA\AppData\Local\Temp\ccbnGHAr.s 			page 42


 1829              		.loc 1 436 0 discriminator 1
 1830 0ba6 9548     		ldr	r0, .L230
 1831 0ba8 9549     		ldr	r1, .L230+4
 1832 0baa FFF7FEFF 		bl	u8g_SetFont
 437:LCD_Menu.c    ****                 u8g_DrawStr(&u8g,  2, 29, "Volume:");
 1833              		.loc 1 437 0 discriminator 1
 1834 0bae 9348     		ldr	r0, .L230
 1835 0bb0 0221     		movs	r1, #2
 1836 0bb2 1D22     		movs	r2, #29
 1837 0bb4 954B     		ldr	r3, .L230+16
 1838 0bb6 FFF7FEFF 		bl	u8g_DrawStr
 438:LCD_Menu.c    ****                 
 439:LCD_Menu.c    ****                 u8g_DrawBox(&u8g, 88,16,44,16);
 1839              		.loc 1 439 0 discriminator 1
 1840 0bba 1023     		movs	r3, #16
 1841 0bbc 0093     		str	r3, [sp]
 1842 0bbe 8F48     		ldr	r0, .L230
 1843 0bc0 5821     		movs	r1, #88
 1844 0bc2 1022     		movs	r2, #16
 1845 0bc4 2C23     		movs	r3, #44
 1846 0bc6 FFF7FEFF 		bl	u8g_DrawBox
 440:LCD_Menu.c    ****                 u8g_SetDefaultBackgroundColor(&u8g);
 1847              		.loc 1 440 0 discriminator 1
 1848 0bca 8C48     		ldr	r0, .L230
 1849 0bcc FFF7FEFF 		bl	u8g_SetDefaultBackgroundColor
 441:LCD_Menu.c    ****                 
 442:LCD_Menu.c    ****                 u8g_SetFont(&u8g, u8g_font_unifont);
 1850              		.loc 1 442 0 discriminator 1
 1851 0bd0 8A48     		ldr	r0, .L230
 1852 0bd2 8B49     		ldr	r1, .L230+4
 1853 0bd4 FFF7FEFF 		bl	u8g_SetFont
 443:LCD_Menu.c    ****                 u8g_DrawStr(&u8g,  96, 29, CurrentVolumeValueString);
 1854              		.loc 1 443 0 discriminator 1
 1855 0bd8 8848     		ldr	r0, .L230
 1856 0bda 6021     		movs	r1, #96
 1857 0bdc 1D22     		movs	r2, #29
 1858 0bde 8C4B     		ldr	r3, .L230+20
 1859 0be0 FFF7FEFF 		bl	u8g_DrawStr
 444:LCD_Menu.c    ****                 
 445:LCD_Menu.c    ****                 u8g_SetDefaultForegroundColor(&u8g);   
 1860              		.loc 1 445 0 discriminator 1
 1861 0be4 8548     		ldr	r0, .L230
 1862 0be6 FFF7FEFF 		bl	u8g_SetDefaultForegroundColor
 446:LCD_Menu.c    ****                 
 447:LCD_Menu.c    ****                 u8g_SetFont(&u8g, u8g_font_unifont);              
 1863              		.loc 1 447 0 discriminator 1
 1864 0bea 8448     		ldr	r0, .L230
 1865 0bec 8449     		ldr	r1, .L230+4
 1866 0bee FFF7FEFF 		bl	u8g_SetFont
 448:LCD_Menu.c    ****                 u8g_DrawStr(&u8g,  2, 45, "Temperature");
 1867              		.loc 1 448 0 discriminator 1
 1868 0bf2 8248     		ldr	r0, .L230
 1869 0bf4 0221     		movs	r1, #2
 1870 0bf6 2D22     		movs	r2, #45
 1871 0bf8 864B     		ldr	r3, .L230+24
 1872 0bfa FFF7FEFF 		bl	u8g_DrawStr
 449:LCD_Menu.c    ****                 
ARM GAS  C:\Users\KJA\AppData\Local\Temp\ccbnGHAr.s 			page 43


 450:LCD_Menu.c    ****                 u8g_SetDefaultForegroundColor(&u8g);   
 1873              		.loc 1 450 0 discriminator 1
 1874 0bfe 7F48     		ldr	r0, .L230
 1875 0c00 FFF7FEFF 		bl	u8g_SetDefaultForegroundColor
 451:LCD_Menu.c    ****                 
 452:LCD_Menu.c    ****                 u8g_SetFont(&u8g, u8g_font_unifont);              
 1876              		.loc 1 452 0 discriminator 1
 1877 0c04 7D48     		ldr	r0, .L230
 1878 0c06 7E49     		ldr	r1, .L230+4
 1879 0c08 FFF7FEFF 		bl	u8g_SetFont
 453:LCD_Menu.c    ****                 u8g_DrawStr(&u8g,  2, 60, "          <-Back");
 1880              		.loc 1 453 0 discriminator 1
 1881 0c0c 7B48     		ldr	r0, .L230
 1882 0c0e 0221     		movs	r1, #2
 1883 0c10 3C22     		movs	r2, #60
 1884 0c12 814B     		ldr	r3, .L230+28
 1885 0c14 FFF7FEFF 		bl	u8g_DrawStr
 454:LCD_Menu.c    ****                 
 455:LCD_Menu.c    ****             } while ( u8g_NextPage(&u8g) );
 1886              		.loc 1 455 0 discriminator 1
 1887 0c18 7848     		ldr	r0, .L230
 1888 0c1a FFF7FEFF 		bl	u8g_NextPage
 1889 0c1e 0346     		mov	r3, r0
 1890 0c20 002B     		cmp	r3, #0
 1891 0c22 A6D1     		bne	.L93
 456:LCD_Menu.c    ****       break; 
 1892              		.loc 1 456 0
 1893 0c24 00F0EBBF 		b	.L1
 1894              	.L10:
 457:LCD_Menu.c    ****             
 458:LCD_Menu.c    ****             
 459:LCD_Menu.c    ****       case BacklightSetting: 
 460:LCD_Menu.c    ****             u8g_FirstPage(&u8g);
 1895              		.loc 1 460 0
 1896 0c28 7448     		ldr	r0, .L230
 1897 0c2a FFF7FEFF 		bl	u8g_FirstPage
 1898              	.L94:
 461:LCD_Menu.c    ****             do{
 462:LCD_Menu.c    ****                                 
 463:LCD_Menu.c    ****                 u8g_SetDefaultForegroundColor(&u8g);       
 1899              		.loc 1 463 0 discriminator 1
 1900 0c2e 7348     		ldr	r0, .L230
 1901 0c30 FFF7FEFF 		bl	u8g_SetDefaultForegroundColor
 464:LCD_Menu.c    ****                 
 465:LCD_Menu.c    ****                 u8g_SetFont(&u8g, u8g_font_unifont);
 1902              		.loc 1 465 0 discriminator 1
 1903 0c34 7148     		ldr	r0, .L230
 1904 0c36 7249     		ldr	r1, .L230+4
 1905 0c38 FFF7FEFF 		bl	u8g_SetFont
 466:LCD_Menu.c    ****                 u8g_DrawStr(&u8g,  2, 13, "Backlight");
 1906              		.loc 1 466 0 discriminator 1
 1907 0c3c 6F48     		ldr	r0, .L230
 1908 0c3e 0221     		movs	r1, #2
 1909 0c40 0D22     		movs	r2, #13
 1910 0c42 704B     		ldr	r3, .L230+8
 1911 0c44 FFF7FEFF 		bl	u8g_DrawStr
 467:LCD_Menu.c    ****                 
ARM GAS  C:\Users\KJA\AppData\Local\Temp\ccbnGHAr.s 			page 44


 468:LCD_Menu.c    ****                 u8g_DrawBox(&u8g, 88,0,44,16);
 1912              		.loc 1 468 0 discriminator 1
 1913 0c48 1023     		movs	r3, #16
 1914 0c4a 0093     		str	r3, [sp]
 1915 0c4c 6B48     		ldr	r0, .L230
 1916 0c4e 5821     		movs	r1, #88
 1917 0c50 0022     		movs	r2, #0
 1918 0c52 2C23     		movs	r3, #44
 1919 0c54 FFF7FEFF 		bl	u8g_DrawBox
 469:LCD_Menu.c    ****                 u8g_SetDefaultBackgroundColor(&u8g);
 1920              		.loc 1 469 0 discriminator 1
 1921 0c58 6848     		ldr	r0, .L230
 1922 0c5a FFF7FEFF 		bl	u8g_SetDefaultBackgroundColor
 470:LCD_Menu.c    ****                 
 471:LCD_Menu.c    ****                 u8g_SetFont(&u8g, u8g_font_unifont);
 1923              		.loc 1 471 0 discriminator 1
 1924 0c5e 6748     		ldr	r0, .L230
 1925 0c60 6749     		ldr	r1, .L230+4
 1926 0c62 FFF7FEFF 		bl	u8g_SetFont
 472:LCD_Menu.c    ****                 u8g_DrawStr(&u8g,  96, 13, CurrentBacklightValueString);
 1927              		.loc 1 472 0 discriminator 1
 1928 0c66 6548     		ldr	r0, .L230
 1929 0c68 6021     		movs	r1, #96
 1930 0c6a 0D22     		movs	r2, #13
 1931 0c6c 664B     		ldr	r3, .L230+12
 1932 0c6e FFF7FEFF 		bl	u8g_DrawStr
 473:LCD_Menu.c    ****                 
 474:LCD_Menu.c    ****                 u8g_SetDefaultForegroundColor(&u8g);   
 1933              		.loc 1 474 0 discriminator 1
 1934 0c72 6248     		ldr	r0, .L230
 1935 0c74 FFF7FEFF 		bl	u8g_SetDefaultForegroundColor
 475:LCD_Menu.c    **** 
 476:LCD_Menu.c    ****                 u8g_SetFont(&u8g, u8g_font_unifont);              
 1936              		.loc 1 476 0 discriminator 1
 1937 0c78 6048     		ldr	r0, .L230
 1938 0c7a 6149     		ldr	r1, .L230+4
 1939 0c7c FFF7FEFF 		bl	u8g_SetFont
 477:LCD_Menu.c    ****                 u8g_DrawStr(&u8g,  2, 29, "Volume:");
 1940              		.loc 1 477 0 discriminator 1
 1941 0c80 5E48     		ldr	r0, .L230
 1942 0c82 0221     		movs	r1, #2
 1943 0c84 1D22     		movs	r2, #29
 1944 0c86 614B     		ldr	r3, .L230+16
 1945 0c88 FFF7FEFF 		bl	u8g_DrawStr
 478:LCD_Menu.c    ****                 u8g_SetFont(&u8g, u8g_font_unifont);
 1946              		.loc 1 478 0 discriminator 1
 1947 0c8c 5B48     		ldr	r0, .L230
 1948 0c8e 5C49     		ldr	r1, .L230+4
 1949 0c90 FFF7FEFF 		bl	u8g_SetFont
 479:LCD_Menu.c    ****                 u8g_DrawStr(&u8g,  96, 29, CurrentVolumeValueString);
 1950              		.loc 1 479 0 discriminator 1
 1951 0c94 5948     		ldr	r0, .L230
 1952 0c96 6021     		movs	r1, #96
 1953 0c98 1D22     		movs	r2, #29
 1954 0c9a 5D4B     		ldr	r3, .L230+20
 1955 0c9c FFF7FEFF 		bl	u8g_DrawStr
 480:LCD_Menu.c    ****                 
ARM GAS  C:\Users\KJA\AppData\Local\Temp\ccbnGHAr.s 			page 45


 481:LCD_Menu.c    ****                 u8g_SetDefaultForegroundColor(&u8g);   
 1956              		.loc 1 481 0 discriminator 1
 1957 0ca0 5648     		ldr	r0, .L230
 1958 0ca2 FFF7FEFF 		bl	u8g_SetDefaultForegroundColor
 482:LCD_Menu.c    ****                 
 483:LCD_Menu.c    ****                 u8g_SetFont(&u8g, u8g_font_unifont);              
 1959              		.loc 1 483 0 discriminator 1
 1960 0ca6 5548     		ldr	r0, .L230
 1961 0ca8 5549     		ldr	r1, .L230+4
 1962 0caa FFF7FEFF 		bl	u8g_SetFont
 484:LCD_Menu.c    ****                 u8g_DrawStr(&u8g,  2, 45, "Temperature");
 1963              		.loc 1 484 0 discriminator 1
 1964 0cae 5348     		ldr	r0, .L230
 1965 0cb0 0221     		movs	r1, #2
 1966 0cb2 2D22     		movs	r2, #45
 1967 0cb4 574B     		ldr	r3, .L230+24
 1968 0cb6 FFF7FEFF 		bl	u8g_DrawStr
 485:LCD_Menu.c    ****                 
 486:LCD_Menu.c    ****                 u8g_SetDefaultForegroundColor(&u8g);   
 1969              		.loc 1 486 0 discriminator 1
 1970 0cba 5048     		ldr	r0, .L230
 1971 0cbc FFF7FEFF 		bl	u8g_SetDefaultForegroundColor
 487:LCD_Menu.c    ****                 
 488:LCD_Menu.c    ****                 u8g_SetFont(&u8g, u8g_font_unifont);              
 1972              		.loc 1 488 0 discriminator 1
 1973 0cc0 4E48     		ldr	r0, .L230
 1974 0cc2 4F49     		ldr	r1, .L230+4
 1975 0cc4 FFF7FEFF 		bl	u8g_SetFont
 489:LCD_Menu.c    ****                 u8g_DrawStr(&u8g,  2, 60, "          <-Back");
 1976              		.loc 1 489 0 discriminator 1
 1977 0cc8 4C48     		ldr	r0, .L230
 1978 0cca 0221     		movs	r1, #2
 1979 0ccc 3C22     		movs	r2, #60
 1980 0cce 524B     		ldr	r3, .L230+28
 1981 0cd0 FFF7FEFF 		bl	u8g_DrawStr
 490:LCD_Menu.c    ****                 
 491:LCD_Menu.c    ****             } while ( u8g_NextPage(&u8g) );
 1982              		.loc 1 491 0 discriminator 1
 1983 0cd4 4948     		ldr	r0, .L230
 1984 0cd6 FFF7FEFF 		bl	u8g_NextPage
 1985 0cda 0346     		mov	r3, r0
 1986 0cdc 002B     		cmp	r3, #0
 1987 0cde A6D1     		bne	.L94
 492:LCD_Menu.c    ****       break;           
 1988              		.loc 1 492 0
 1989 0ce0 00F08DBF 		b	.L1
 1990              	.L9:
 493:LCD_Menu.c    ****             
 494:LCD_Menu.c    ****       case Settings: 
 495:LCD_Menu.c    ****             u8g_FirstPage(&u8g);
 1991              		.loc 1 495 0
 1992 0ce4 4548     		ldr	r0, .L230
 1993 0ce6 FFF7FEFF 		bl	u8g_FirstPage
 1994              	.L99:
 496:LCD_Menu.c    ****             do{
 497:LCD_Menu.c    ****                                 
 498:LCD_Menu.c    ****                 u8g_SetDefaultForegroundColor(&u8g);
ARM GAS  C:\Users\KJA\AppData\Local\Temp\ccbnGHAr.s 			page 46


 1995              		.loc 1 498 0
 1996 0cea 4448     		ldr	r0, .L230
 1997 0cec FFF7FEFF 		bl	u8g_SetDefaultForegroundColor
 499:LCD_Menu.c    ****                 if(Current_Menu_Position == 3){
 1998              		.loc 1 499 0
 1999 0cf0 BB79     		ldrb	r3, [r7, #6]	@ zero_extendqisi2
 2000 0cf2 032B     		cmp	r3, #3
 2001 0cf4 0AD1     		bne	.L95
 500:LCD_Menu.c    ****                     u8g_DrawBox(&u8g, 0,0,128,16);
 2002              		.loc 1 500 0
 2003 0cf6 1023     		movs	r3, #16
 2004 0cf8 0093     		str	r3, [sp]
 2005 0cfa 4048     		ldr	r0, .L230
 2006 0cfc 0021     		movs	r1, #0
 2007 0cfe 0022     		movs	r2, #0
 2008 0d00 8023     		movs	r3, #128
 2009 0d02 FFF7FEFF 		bl	u8g_DrawBox
 501:LCD_Menu.c    ****                     u8g_SetDefaultBackgroundColor(&u8g);
 2010              		.loc 1 501 0
 2011 0d06 3D48     		ldr	r0, .L230
 2012 0d08 FFF7FEFF 		bl	u8g_SetDefaultBackgroundColor
 2013              	.L95:
 502:LCD_Menu.c    ****                 }             
 503:LCD_Menu.c    ****                 
 504:LCD_Menu.c    ****                 u8g_SetFont(&u8g, u8g_font_unifont);
 2014              		.loc 1 504 0
 2015 0d0c 3B48     		ldr	r0, .L230
 2016 0d0e 3C49     		ldr	r1, .L230+4
 2017 0d10 FFF7FEFF 		bl	u8g_SetFont
 505:LCD_Menu.c    ****                 u8g_DrawStr(&u8g,  2, 13, "Backlight");
 2018              		.loc 1 505 0
 2019 0d14 3948     		ldr	r0, .L230
 2020 0d16 0221     		movs	r1, #2
 2021 0d18 0D22     		movs	r2, #13
 2022 0d1a 3A4B     		ldr	r3, .L230+8
 2023 0d1c FFF7FEFF 		bl	u8g_DrawStr
 506:LCD_Menu.c    ****                 u8g_SetFont(&u8g, u8g_font_unifont);
 2024              		.loc 1 506 0
 2025 0d20 3648     		ldr	r0, .L230
 2026 0d22 3749     		ldr	r1, .L230+4
 2027 0d24 FFF7FEFF 		bl	u8g_SetFont
 507:LCD_Menu.c    ****                 u8g_DrawStr(&u8g,  96, 13, CurrentBacklightValueString);
 2028              		.loc 1 507 0
 2029 0d28 3448     		ldr	r0, .L230
 2030 0d2a 6021     		movs	r1, #96
 2031 0d2c 0D22     		movs	r2, #13
 2032 0d2e 364B     		ldr	r3, .L230+12
 2033 0d30 FFF7FEFF 		bl	u8g_DrawStr
 508:LCD_Menu.c    ****                 
 509:LCD_Menu.c    ****                 
 510:LCD_Menu.c    ****                 u8g_SetDefaultForegroundColor(&u8g);                
 2034              		.loc 1 510 0
 2035 0d34 3148     		ldr	r0, .L230
 2036 0d36 FFF7FEFF 		bl	u8g_SetDefaultForegroundColor
 511:LCD_Menu.c    ****                 if(Current_Menu_Position == 2){
 2037              		.loc 1 511 0
 2038 0d3a BB79     		ldrb	r3, [r7, #6]	@ zero_extendqisi2
ARM GAS  C:\Users\KJA\AppData\Local\Temp\ccbnGHAr.s 			page 47


 2039 0d3c 022B     		cmp	r3, #2
 2040 0d3e 0AD1     		bne	.L96
 512:LCD_Menu.c    ****                     u8g_DrawBox(&u8g, 0,16,128,16);
 2041              		.loc 1 512 0
 2042 0d40 1023     		movs	r3, #16
 2043 0d42 0093     		str	r3, [sp]
 2044 0d44 2D48     		ldr	r0, .L230
 2045 0d46 0021     		movs	r1, #0
 2046 0d48 1022     		movs	r2, #16
 2047 0d4a 8023     		movs	r3, #128
 2048 0d4c FFF7FEFF 		bl	u8g_DrawBox
 513:LCD_Menu.c    ****                     u8g_SetDefaultBackgroundColor(&u8g);
 2049              		.loc 1 513 0
 2050 0d50 2A48     		ldr	r0, .L230
 2051 0d52 FFF7FEFF 		bl	u8g_SetDefaultBackgroundColor
 2052              	.L96:
 514:LCD_Menu.c    ****                 }
 515:LCD_Menu.c    ****                 
 516:LCD_Menu.c    ****                 u8g_SetFont(&u8g, u8g_font_unifont);              
 2053              		.loc 1 516 0
 2054 0d56 2948     		ldr	r0, .L230
 2055 0d58 2949     		ldr	r1, .L230+4
 2056 0d5a FFF7FEFF 		bl	u8g_SetFont
 517:LCD_Menu.c    ****                 u8g_DrawStr(&u8g,  2, 29, "Volume");
 2057              		.loc 1 517 0
 2058 0d5e 2748     		ldr	r0, .L230
 2059 0d60 0221     		movs	r1, #2
 2060 0d62 1D22     		movs	r2, #29
 2061 0d64 2D4B     		ldr	r3, .L230+32
 2062 0d66 FFF7FEFF 		bl	u8g_DrawStr
 518:LCD_Menu.c    ****                 u8g_SetFont(&u8g, u8g_font_unifont);
 2063              		.loc 1 518 0
 2064 0d6a 2448     		ldr	r0, .L230
 2065 0d6c 2449     		ldr	r1, .L230+4
 2066 0d6e FFF7FEFF 		bl	u8g_SetFont
 519:LCD_Menu.c    ****                 u8g_DrawStr(&u8g,  96, 29, CurrentVolumeValueString);
 2067              		.loc 1 519 0
 2068 0d72 2248     		ldr	r0, .L230
 2069 0d74 6021     		movs	r1, #96
 2070 0d76 1D22     		movs	r2, #29
 2071 0d78 254B     		ldr	r3, .L230+20
 2072 0d7a FFF7FEFF 		bl	u8g_DrawStr
 520:LCD_Menu.c    ****                 
 521:LCD_Menu.c    ****                 u8g_SetDefaultForegroundColor(&u8g);
 2073              		.loc 1 521 0
 2074 0d7e 1F48     		ldr	r0, .L230
 2075 0d80 FFF7FEFF 		bl	u8g_SetDefaultForegroundColor
 522:LCD_Menu.c    ****                 if(Current_Menu_Position == 1){
 2076              		.loc 1 522 0
 2077 0d84 BB79     		ldrb	r3, [r7, #6]	@ zero_extendqisi2
 2078 0d86 012B     		cmp	r3, #1
 2079 0d88 0AD1     		bne	.L97
 523:LCD_Menu.c    ****                     u8g_DrawBox(&u8g, 0,32,128,16);
 2080              		.loc 1 523 0
 2081 0d8a 1023     		movs	r3, #16
 2082 0d8c 0093     		str	r3, [sp]
 2083 0d8e 1B48     		ldr	r0, .L230
ARM GAS  C:\Users\KJA\AppData\Local\Temp\ccbnGHAr.s 			page 48


 2084 0d90 0021     		movs	r1, #0
 2085 0d92 2022     		movs	r2, #32
 2086 0d94 8023     		movs	r3, #128
 2087 0d96 FFF7FEFF 		bl	u8g_DrawBox
 524:LCD_Menu.c    ****                     u8g_SetDefaultBackgroundColor(&u8g);
 2088              		.loc 1 524 0
 2089 0d9a 1848     		ldr	r0, .L230
 2090 0d9c FFF7FEFF 		bl	u8g_SetDefaultBackgroundColor
 2091              	.L97:
 525:LCD_Menu.c    ****                 }
 526:LCD_Menu.c    ****                 
 527:LCD_Menu.c    ****                 u8g_SetFont(&u8g, u8g_font_unifont);              
 2092              		.loc 1 527 0
 2093 0da0 1648     		ldr	r0, .L230
 2094 0da2 1749     		ldr	r1, .L230+4
 2095 0da4 FFF7FEFF 		bl	u8g_SetFont
 528:LCD_Menu.c    ****                 u8g_DrawStr(&u8g,  2, 45, "Temperature");
 2096              		.loc 1 528 0
 2097 0da8 1448     		ldr	r0, .L230
 2098 0daa 0221     		movs	r1, #2
 2099 0dac 2D22     		movs	r2, #45
 2100 0dae 194B     		ldr	r3, .L230+24
 2101 0db0 FFF7FEFF 		bl	u8g_DrawStr
 529:LCD_Menu.c    ****                 
 530:LCD_Menu.c    ****                 u8g_SetDefaultForegroundColor(&u8g);
 2102              		.loc 1 530 0
 2103 0db4 1148     		ldr	r0, .L230
 2104 0db6 FFF7FEFF 		bl	u8g_SetDefaultForegroundColor
 531:LCD_Menu.c    ****                 if(Current_Menu_Position == 0){
 2105              		.loc 1 531 0
 2106 0dba BB79     		ldrb	r3, [r7, #6]	@ zero_extendqisi2
 2107 0dbc 002B     		cmp	r3, #0
 2108 0dbe 0AD1     		bne	.L98
 532:LCD_Menu.c    ****                     u8g_DrawBox(&u8g, 0,48,128,16);
 2109              		.loc 1 532 0
 2110 0dc0 1023     		movs	r3, #16
 2111 0dc2 0093     		str	r3, [sp]
 2112 0dc4 0D48     		ldr	r0, .L230
 2113 0dc6 0021     		movs	r1, #0
 2114 0dc8 3022     		movs	r2, #48
 2115 0dca 8023     		movs	r3, #128
 2116 0dcc FFF7FEFF 		bl	u8g_DrawBox
 533:LCD_Menu.c    ****                     u8g_SetDefaultBackgroundColor(&u8g);
 2117              		.loc 1 533 0
 2118 0dd0 0A48     		ldr	r0, .L230
 2119 0dd2 FFF7FEFF 		bl	u8g_SetDefaultBackgroundColor
 2120              	.L98:
 534:LCD_Menu.c    ****                 }
 535:LCD_Menu.c    ****                 
 536:LCD_Menu.c    ****                 u8g_SetFont(&u8g, u8g_font_unifont);              
 2121              		.loc 1 536 0
 2122 0dd6 0948     		ldr	r0, .L230
 2123 0dd8 0949     		ldr	r1, .L230+4
 2124 0dda FFF7FEFF 		bl	u8g_SetFont
 537:LCD_Menu.c    ****                 u8g_DrawStr(&u8g,  2, 60, "          <-Back");
 2125              		.loc 1 537 0
 2126 0dde 0748     		ldr	r0, .L230
ARM GAS  C:\Users\KJA\AppData\Local\Temp\ccbnGHAr.s 			page 49


 2127 0de0 0221     		movs	r1, #2
 2128 0de2 3C22     		movs	r2, #60
 2129 0de4 0C4B     		ldr	r3, .L230+28
 2130 0de6 FFF7FEFF 		bl	u8g_DrawStr
 538:LCD_Menu.c    ****                 
 539:LCD_Menu.c    ****             } while ( u8g_NextPage(&u8g) );
 2131              		.loc 1 539 0
 2132 0dea 0448     		ldr	r0, .L230
 2133 0dec FFF7FEFF 		bl	u8g_NextPage
 2134 0df0 0346     		mov	r3, r0
 2135 0df2 002B     		cmp	r3, #0
 2136 0df4 7FF479AF 		bne	.L99
 540:LCD_Menu.c    ****       break;    
 2137              		.loc 1 540 0
 2138 0df8 00F001BF 		b	.L1
 2139              	.L231:
 2140              		.align	2
 2141              	.L230:
 2142 0dfc 00000000 		.word	u8g
 2143 0e00 00000000 		.word	u8g_font_unifont
 2144 0e04 58010000 		.word	.LC26
 2145 0e08 00000000 		.word	CurrentBacklightValueString
 2146 0e0c 64010000 		.word	.LC27
 2147 0e10 00000000 		.word	CurrentVolumeValueString
 2148 0e14 6C010000 		.word	.LC28
 2149 0e18 D8000000 		.word	.LC15
 2150 0e1c 78010000 		.word	.LC29
 2151              	.L12:
 541:LCD_Menu.c    ****             
 542:LCD_Menu.c    ****       case Information: 
 543:LCD_Menu.c    ****             u8g_FirstPage(&u8g);
 2152              		.loc 1 543 0
 2153 0e20 AB48     		ldr	r0, .L232
 2154 0e22 FFF7FEFF 		bl	u8g_FirstPage
 2155              	.L104:
 544:LCD_Menu.c    ****             do{
 545:LCD_Menu.c    ****                 u8g_SetDefaultForegroundColor(&u8g);
 2156              		.loc 1 545 0
 2157 0e26 AA48     		ldr	r0, .L232
 2158 0e28 FFF7FEFF 		bl	u8g_SetDefaultForegroundColor
 546:LCD_Menu.c    ****                 if(Current_Menu_Position == 0){
 2159              		.loc 1 546 0
 2160 0e2c BB79     		ldrb	r3, [r7, #6]	@ zero_extendqisi2
 2161 0e2e 002B     		cmp	r3, #0
 2162 0e30 0AD1     		bne	.L100
 547:LCD_Menu.c    ****                     u8g_DrawBox(&u8g, 0,0,128,16);
 2163              		.loc 1 547 0
 2164 0e32 1023     		movs	r3, #16
 2165 0e34 0093     		str	r3, [sp]
 2166 0e36 A648     		ldr	r0, .L232
 2167 0e38 0021     		movs	r1, #0
 2168 0e3a 0022     		movs	r2, #0
 2169 0e3c 8023     		movs	r3, #128
 2170 0e3e FFF7FEFF 		bl	u8g_DrawBox
 548:LCD_Menu.c    ****                     u8g_SetDefaultBackgroundColor(&u8g);
 2171              		.loc 1 548 0
 2172 0e42 A348     		ldr	r0, .L232
ARM GAS  C:\Users\KJA\AppData\Local\Temp\ccbnGHAr.s 			page 50


 2173 0e44 FFF7FEFF 		bl	u8g_SetDefaultBackgroundColor
 2174              	.L100:
 549:LCD_Menu.c    ****                 }             
 550:LCD_Menu.c    ****                 
 551:LCD_Menu.c    ****                 u8g_SetFont(&u8g, u8g_font_unifont);   
 2175              		.loc 1 551 0
 2176 0e48 A148     		ldr	r0, .L232
 2177 0e4a A249     		ldr	r1, .L232+4
 2178 0e4c FFF7FEFF 		bl	u8g_SetFont
 552:LCD_Menu.c    ****                 u8g_DrawStr(&u8g,  2, 13, "DIE Temp");
 2179              		.loc 1 552 0
 2180 0e50 9F48     		ldr	r0, .L232
 2181 0e52 0221     		movs	r1, #2
 2182 0e54 0D22     		movs	r2, #13
 2183 0e56 A04B     		ldr	r3, .L232+8
 2184 0e58 FFF7FEFF 		bl	u8g_DrawStr
 553:LCD_Menu.c    ****                 u8g_SetFont(&u8g, u8g_font_unifont);
 2185              		.loc 1 553 0
 2186 0e5c 9C48     		ldr	r0, .L232
 2187 0e5e 9D49     		ldr	r1, .L232+4
 2188 0e60 FFF7FEFF 		bl	u8g_SetFont
 554:LCD_Menu.c    ****                 u8g_DrawStr(&u8g,  90, 13, Current_DIE_TempString);
 2189              		.loc 1 554 0
 2190 0e64 9A48     		ldr	r0, .L232
 2191 0e66 5A21     		movs	r1, #90
 2192 0e68 0D22     		movs	r2, #13
 2193 0e6a 9C4B     		ldr	r3, .L232+12
 2194 0e6c FFF7FEFF 		bl	u8g_DrawStr
 555:LCD_Menu.c    ****                 
 556:LCD_Menu.c    ****                 u8g_SetDefaultForegroundColor(&u8g);                
 2195              		.loc 1 556 0
 2196 0e70 9748     		ldr	r0, .L232
 2197 0e72 FFF7FEFF 		bl	u8g_SetDefaultForegroundColor
 557:LCD_Menu.c    ****                 if(Current_Menu_Position == 2){
 2198              		.loc 1 557 0
 2199 0e76 BB79     		ldrb	r3, [r7, #6]	@ zero_extendqisi2
 2200 0e78 022B     		cmp	r3, #2
 2201 0e7a 0AD1     		bne	.L101
 558:LCD_Menu.c    ****                     u8g_DrawBox(&u8g, 0,16,128,16);
 2202              		.loc 1 558 0
 2203 0e7c 1023     		movs	r3, #16
 2204 0e7e 0093     		str	r3, [sp]
 2205 0e80 9348     		ldr	r0, .L232
 2206 0e82 0021     		movs	r1, #0
 2207 0e84 1022     		movs	r2, #16
 2208 0e86 8023     		movs	r3, #128
 2209 0e88 FFF7FEFF 		bl	u8g_DrawBox
 559:LCD_Menu.c    ****                     u8g_SetDefaultBackgroundColor(&u8g);
 2210              		.loc 1 559 0
 2211 0e8c 9048     		ldr	r0, .L232
 2212 0e8e FFF7FEFF 		bl	u8g_SetDefaultBackgroundColor
 2213              	.L101:
 560:LCD_Menu.c    ****                 }
 561:LCD_Menu.c    ****                 
 562:LCD_Menu.c    ****                 u8g_SetFont(&u8g, u8g_font_unifont);              
 2214              		.loc 1 562 0
 2215 0e92 8F48     		ldr	r0, .L232
ARM GAS  C:\Users\KJA\AppData\Local\Temp\ccbnGHAr.s 			page 51


 2216 0e94 8F49     		ldr	r1, .L232+4
 2217 0e96 FFF7FEFF 		bl	u8g_SetFont
 563:LCD_Menu.c    ****                 u8g_DrawStr(&u8g,  2, 29, "FET Temp");
 2218              		.loc 1 563 0
 2219 0e9a 8D48     		ldr	r0, .L232
 2220 0e9c 0221     		movs	r1, #2
 2221 0e9e 1D22     		movs	r2, #29
 2222 0ea0 8F4B     		ldr	r3, .L232+16
 2223 0ea2 FFF7FEFF 		bl	u8g_DrawStr
 564:LCD_Menu.c    ****                 u8g_SetFont(&u8g, u8g_font_unifont);
 2224              		.loc 1 564 0
 2225 0ea6 8A48     		ldr	r0, .L232
 2226 0ea8 8A49     		ldr	r1, .L232+4
 2227 0eaa FFF7FEFF 		bl	u8g_SetFont
 565:LCD_Menu.c    ****                 u8g_DrawStr(&u8g,  90, 29, Current_FET_TempString);
 2228              		.loc 1 565 0
 2229 0eae 8848     		ldr	r0, .L232
 2230 0eb0 5A21     		movs	r1, #90
 2231 0eb2 1D22     		movs	r2, #29
 2232 0eb4 8B4B     		ldr	r3, .L232+20
 2233 0eb6 FFF7FEFF 		bl	u8g_DrawStr
 566:LCD_Menu.c    ****                 
 567:LCD_Menu.c    ****                 u8g_SetDefaultForegroundColor(&u8g);
 2234              		.loc 1 567 0
 2235 0eba 8548     		ldr	r0, .L232
 2236 0ebc FFF7FEFF 		bl	u8g_SetDefaultForegroundColor
 568:LCD_Menu.c    ****                 if(Current_Menu_Position == 0){
 2237              		.loc 1 568 0
 2238 0ec0 BB79     		ldrb	r3, [r7, #6]	@ zero_extendqisi2
 2239 0ec2 002B     		cmp	r3, #0
 2240 0ec4 0AD1     		bne	.L102
 569:LCD_Menu.c    ****                     u8g_DrawBox(&u8g, 0,32,128,16);
 2241              		.loc 1 569 0
 2242 0ec6 1023     		movs	r3, #16
 2243 0ec8 0093     		str	r3, [sp]
 2244 0eca 8148     		ldr	r0, .L232
 2245 0ecc 0021     		movs	r1, #0
 2246 0ece 2022     		movs	r2, #32
 2247 0ed0 8023     		movs	r3, #128
 2248 0ed2 FFF7FEFF 		bl	u8g_DrawBox
 570:LCD_Menu.c    ****                     u8g_SetDefaultBackgroundColor(&u8g);
 2249              		.loc 1 570 0
 2250 0ed6 7E48     		ldr	r0, .L232
 2251 0ed8 FFF7FEFF 		bl	u8g_SetDefaultBackgroundColor
 2252              	.L102:
 571:LCD_Menu.c    ****                 }
 572:LCD_Menu.c    ****                 
 573:LCD_Menu.c    ****                 u8g_SetFont(&u8g, u8g_font_unifont);              
 2253              		.loc 1 573 0
 2254 0edc 7C48     		ldr	r0, .L232
 2255 0ede 7D49     		ldr	r1, .L232+4
 2256 0ee0 FFF7FEFF 		bl	u8g_SetFont
 574:LCD_Menu.c    ****                 u8g_DrawStr(&u8g,  2, 45, "INT Temp   N/C");
 2257              		.loc 1 574 0
 2258 0ee4 7A48     		ldr	r0, .L232
 2259 0ee6 0221     		movs	r1, #2
 2260 0ee8 2D22     		movs	r2, #45
ARM GAS  C:\Users\KJA\AppData\Local\Temp\ccbnGHAr.s 			page 52


 2261 0eea 7F4B     		ldr	r3, .L232+24
 2262 0eec FFF7FEFF 		bl	u8g_DrawStr
 575:LCD_Menu.c    ****                 
 576:LCD_Menu.c    ****                 u8g_SetDefaultForegroundColor(&u8g);
 2263              		.loc 1 576 0
 2264 0ef0 7748     		ldr	r0, .L232
 2265 0ef2 FFF7FEFF 		bl	u8g_SetDefaultForegroundColor
 577:LCD_Menu.c    ****                 if(Current_Menu_Position == 3){
 2266              		.loc 1 577 0
 2267 0ef6 BB79     		ldrb	r3, [r7, #6]	@ zero_extendqisi2
 2268 0ef8 032B     		cmp	r3, #3
 2269 0efa 0AD1     		bne	.L103
 578:LCD_Menu.c    ****                     u8g_DrawBox(&u8g, 0,48,128,16);
 2270              		.loc 1 578 0
 2271 0efc 1023     		movs	r3, #16
 2272 0efe 0093     		str	r3, [sp]
 2273 0f00 7348     		ldr	r0, .L232
 2274 0f02 0021     		movs	r1, #0
 2275 0f04 3022     		movs	r2, #48
 2276 0f06 8023     		movs	r3, #128
 2277 0f08 FFF7FEFF 		bl	u8g_DrawBox
 579:LCD_Menu.c    ****                     u8g_SetDefaultBackgroundColor(&u8g);
 2278              		.loc 1 579 0
 2279 0f0c 7048     		ldr	r0, .L232
 2280 0f0e FFF7FEFF 		bl	u8g_SetDefaultBackgroundColor
 2281              	.L103:
 580:LCD_Menu.c    ****                 }
 581:LCD_Menu.c    ****                 
 582:LCD_Menu.c    ****                 u8g_SetFont(&u8g, u8g_font_unifont);              
 2282              		.loc 1 582 0
 2283 0f12 6F48     		ldr	r0, .L232
 2284 0f14 6F49     		ldr	r1, .L232+4
 2285 0f16 FFF7FEFF 		bl	u8g_SetFont
 583:LCD_Menu.c    ****                 u8g_DrawStr(&u8g,  2, 60, "          <-Back");
 2286              		.loc 1 583 0
 2287 0f1a 6D48     		ldr	r0, .L232
 2288 0f1c 0221     		movs	r1, #2
 2289 0f1e 3C22     		movs	r2, #60
 2290 0f20 724B     		ldr	r3, .L232+28
 2291 0f22 FFF7FEFF 		bl	u8g_DrawStr
 584:LCD_Menu.c    ****                 
 585:LCD_Menu.c    ****             } while ( u8g_NextPage(&u8g) );
 2292              		.loc 1 585 0
 2293 0f26 6A48     		ldr	r0, .L232
 2294 0f28 FFF7FEFF 		bl	u8g_NextPage
 2295 0f2c 0346     		mov	r3, r0
 2296 0f2e 002B     		cmp	r3, #0
 2297 0f30 7FF479AF 		bne	.L104
 586:LCD_Menu.c    ****       break;
 2298              		.loc 1 586 0
 2299 0f34 00F063BE 		b	.L1
 2300              	.L14:
 587:LCD_Menu.c    **** 
 588:LCD_Menu.c    ****         case ConstantResistance:
 589:LCD_Menu.c    ****             
 590:LCD_Menu.c    ****             u8g_FirstPage(&u8g);
 2301              		.loc 1 590 0
ARM GAS  C:\Users\KJA\AppData\Local\Temp\ccbnGHAr.s 			page 53


 2302 0f38 6548     		ldr	r0, .L232
 2303 0f3a FFF7FEFF 		bl	u8g_FirstPage
 2304              	.L146:
 2305              	.LBB5:
 591:LCD_Menu.c    ****             do{    
 592:LCD_Menu.c    ****                 
 593:LCD_Menu.c    ****                 int8 LocalMove = 22;
 2306              		.loc 1 593 0
 2307 0f3e 1623     		movs	r3, #22
 2308 0f40 7B73     		strb	r3, [r7, #13]
 594:LCD_Menu.c    ****                 
 595:LCD_Menu.c    ****                 u8g_SetDefaultForegroundColor(&u8g);    
 2309              		.loc 1 595 0
 2310 0f42 6348     		ldr	r0, .L232
 2311 0f44 FFF7FEFF 		bl	u8g_SetDefaultForegroundColor
 596:LCD_Menu.c    ****                                 
 597:LCD_Menu.c    ****                 if(OutputEnable == 0){
 2312              		.loc 1 597 0
 2313 0f48 694B     		ldr	r3, .L232+32
 2314 0f4a 1B78     		ldrb	r3, [r3]	@ zero_extendqisi2
 2315 0f4c 002B     		cmp	r3, #0
 2316 0f4e 40F00581 		bne	.L105
 598:LCD_Menu.c    ****                     if(Set_Resist < 1){                       
 2317              		.loc 1 598 0
 2318 0f52 684B     		ldr	r3, .L232+36
 2319 0f54 1B68     		ldr	r3, [r3]	@ float
 2320 0f56 1846     		mov	r0, r3
 2321 0f58 4FF07E51 		mov	r1, #1065353216
 2322 0f5c FFF7FEFF 		bl	__aeabi_fcmplt
 2323 0f60 0346     		mov	r3, r0
 2324 0f62 002B     		cmp	r3, #0
 2325 0f64 0DD0     		beq	.L209
 599:LCD_Menu.c    ****                         u8g_SetFont(&u8g, u8g_font_fub20);   
 2326              		.loc 1 599 0
 2327 0f66 5A48     		ldr	r0, .L232
 2328 0f68 6349     		ldr	r1, .L232+40
 2329 0f6a FFF7FEFF 		bl	u8g_SetFont
 600:LCD_Menu.c    ****                         u8g_DrawStr(&u8g,  31+LocalMove, 26, cResist_Set);
 2330              		.loc 1 600 0
 2331 0f6e 7B7B     		ldrb	r3, [r7, #13]	@ zero_extendqisi2
 2332 0f70 1F33     		adds	r3, r3, #31
 2333 0f72 DBB2     		uxtb	r3, r3
 2334 0f74 5648     		ldr	r0, .L232
 2335 0f76 1946     		mov	r1, r3
 2336 0f78 1A22     		movs	r2, #26
 2337 0f7a 604B     		ldr	r3, .L232+44
 2338 0f7c FFF7FEFF 		bl	u8g_DrawStr
 2339 0f80 51E0     		b	.L108
 2340              	.L209:
 601:LCD_Menu.c    ****                     }
 602:LCD_Menu.c    ****                     else if(Set_Resist < 10){
 2341              		.loc 1 602 0
 2342 0f82 5C4B     		ldr	r3, .L232+36
 2343 0f84 1B68     		ldr	r3, [r3]	@ float
 2344 0f86 1846     		mov	r0, r3
 2345 0f88 5D49     		ldr	r1, .L232+48
 2346 0f8a FFF7FEFF 		bl	__aeabi_fcmplt
ARM GAS  C:\Users\KJA\AppData\Local\Temp\ccbnGHAr.s 			page 54


 2347 0f8e 0346     		mov	r3, r0
 2348 0f90 002B     		cmp	r3, #0
 2349 0f92 0DD0     		beq	.L210
 603:LCD_Menu.c    ****                         u8g_SetFont(&u8g, u8g_font_fub20);   
 2350              		.loc 1 603 0
 2351 0f94 4E48     		ldr	r0, .L232
 2352 0f96 5849     		ldr	r1, .L232+40
 2353 0f98 FFF7FEFF 		bl	u8g_SetFont
 604:LCD_Menu.c    ****                         u8g_DrawStr(&u8g,  24+LocalMove, 26, cResist_Set); 
 2354              		.loc 1 604 0
 2355 0f9c 7B7B     		ldrb	r3, [r7, #13]	@ zero_extendqisi2
 2356 0f9e 1833     		adds	r3, r3, #24
 2357 0fa0 DBB2     		uxtb	r3, r3
 2358 0fa2 4B48     		ldr	r0, .L232
 2359 0fa4 1946     		mov	r1, r3
 2360 0fa6 1A22     		movs	r2, #26
 2361 0fa8 544B     		ldr	r3, .L232+44
 2362 0faa FFF7FEFF 		bl	u8g_DrawStr
 2363 0fae 3AE0     		b	.L108
 2364              	.L210:
 605:LCD_Menu.c    ****                     }
 606:LCD_Menu.c    ****                     else if(Set_Resist < 100){
 2365              		.loc 1 606 0
 2366 0fb0 504B     		ldr	r3, .L232+36
 2367 0fb2 1B68     		ldr	r3, [r3]	@ float
 2368 0fb4 1846     		mov	r0, r3
 2369 0fb6 5349     		ldr	r1, .L232+52
 2370 0fb8 FFF7FEFF 		bl	__aeabi_fcmplt
 2371 0fbc 0346     		mov	r3, r0
 2372 0fbe 002B     		cmp	r3, #0
 2373 0fc0 0DD0     		beq	.L211
 607:LCD_Menu.c    ****                         u8g_SetFont(&u8g, u8g_font_fub20);   
 2374              		.loc 1 607 0
 2375 0fc2 4348     		ldr	r0, .L232
 2376 0fc4 4C49     		ldr	r1, .L232+40
 2377 0fc6 FFF7FEFF 		bl	u8g_SetFont
 608:LCD_Menu.c    ****                         u8g_DrawStr(&u8g,  17+LocalMove, 26, cResist_Set); 
 2378              		.loc 1 608 0
 2379 0fca 7B7B     		ldrb	r3, [r7, #13]	@ zero_extendqisi2
 2380 0fcc 1133     		adds	r3, r3, #17
 2381 0fce DBB2     		uxtb	r3, r3
 2382 0fd0 3F48     		ldr	r0, .L232
 2383 0fd2 1946     		mov	r1, r3
 2384 0fd4 1A22     		movs	r2, #26
 2385 0fd6 494B     		ldr	r3, .L232+44
 2386 0fd8 FFF7FEFF 		bl	u8g_DrawStr
 2387 0fdc 23E0     		b	.L108
 2388              	.L211:
 609:LCD_Menu.c    ****                     }
 610:LCD_Menu.c    ****                     else if(Set_Resist < 1000){
 2389              		.loc 1 610 0
 2390 0fde 454B     		ldr	r3, .L232+36
 2391 0fe0 1B68     		ldr	r3, [r3]	@ float
 2392 0fe2 1846     		mov	r0, r3
 2393 0fe4 4849     		ldr	r1, .L232+56
 2394 0fe6 FFF7FEFF 		bl	__aeabi_fcmplt
 2395 0fea 0346     		mov	r3, r0
ARM GAS  C:\Users\KJA\AppData\Local\Temp\ccbnGHAr.s 			page 55


 2396 0fec 002B     		cmp	r3, #0
 2397 0fee 0DD0     		beq	.L212
 611:LCD_Menu.c    ****                         u8g_SetFont(&u8g, u8g_font_fub20);   
 2398              		.loc 1 611 0
 2399 0ff0 3748     		ldr	r0, .L232
 2400 0ff2 4149     		ldr	r1, .L232+40
 2401 0ff4 FFF7FEFF 		bl	u8g_SetFont
 612:LCD_Menu.c    ****                         u8g_DrawStr(&u8g,  2+LocalMove, 26, cResist_Set); 
 2402              		.loc 1 612 0
 2403 0ff8 7B7B     		ldrb	r3, [r7, #13]	@ zero_extendqisi2
 2404 0ffa 0233     		adds	r3, r3, #2
 2405 0ffc DBB2     		uxtb	r3, r3
 2406 0ffe 3448     		ldr	r0, .L232
 2407 1000 1946     		mov	r1, r3
 2408 1002 1A22     		movs	r2, #26
 2409 1004 3D4B     		ldr	r3, .L232+44
 2410 1006 FFF7FEFF 		bl	u8g_DrawStr
 2411 100a 0CE0     		b	.L108
 2412              	.L212:
 613:LCD_Menu.c    ****                     }
 614:LCD_Menu.c    ****                     else{
 615:LCD_Menu.c    ****                         u8g_SetFont(&u8g, u8g_font_fub20);   
 2413              		.loc 1 615 0
 2414 100c 3048     		ldr	r0, .L232
 2415 100e 3A49     		ldr	r1, .L232+40
 2416 1010 FFF7FEFF 		bl	u8g_SetFont
 616:LCD_Menu.c    ****                         u8g_DrawStr(&u8g,  -13+LocalMove, 26, cResist_Set); 
 2417              		.loc 1 616 0
 2418 1014 7B7B     		ldrb	r3, [r7, #13]	@ zero_extendqisi2
 2419 1016 0D3B     		subs	r3, r3, #13
 2420 1018 DBB2     		uxtb	r3, r3
 2421 101a 2D48     		ldr	r0, .L232
 2422 101c 1946     		mov	r1, r3
 2423 101e 1A22     		movs	r2, #26
 2424 1020 364B     		ldr	r3, .L232+44
 2425 1022 FFF7FEFF 		bl	u8g_DrawStr
 2426              	.L108:
 617:LCD_Menu.c    ****                     }
 618:LCD_Menu.c    ****                             
 619:LCD_Menu.c    ****                     
 620:LCD_Menu.c    ****                     u8g_SetFont(&u8g, u8g_font_unifont);              
 2427              		.loc 1 620 0
 2428 1026 2A48     		ldr	r0, .L232
 2429 1028 2A49     		ldr	r1, .L232+4
 2430 102a FFF7FEFF 		bl	u8g_SetFont
 621:LCD_Menu.c    ****                     u8g_DrawStr(&u8g,  97, 26, "Ohm");
 2431              		.loc 1 621 0
 2432 102e 2848     		ldr	r0, .L232
 2433 1030 6121     		movs	r1, #97
 2434 1032 1A22     		movs	r2, #26
 2435 1034 354B     		ldr	r3, .L232+60
 2436 1036 FFF7FEFF 		bl	u8g_DrawStr
 622:LCD_Menu.c    ****                     
 623:LCD_Menu.c    ****                     u8g_SetFont(&u8g, u8g_font_unifont);              
 2437              		.loc 1 623 0
 2438 103a 2548     		ldr	r0, .L232
 2439 103c 2549     		ldr	r1, .L232+4
ARM GAS  C:\Users\KJA\AppData\Local\Temp\ccbnGHAr.s 			page 56


 2440 103e FFF7FEFF 		bl	u8g_SetFont
 624:LCD_Menu.c    ****                     u8g_DrawStr(&u8g,  4, 43, cVoltage_Actual);
 2441              		.loc 1 624 0
 2442 1042 2348     		ldr	r0, .L232
 2443 1044 0421     		movs	r1, #4
 2444 1046 2B22     		movs	r2, #43
 2445 1048 314B     		ldr	r3, .L232+64
 2446 104a FFF7FEFF 		bl	u8g_DrawStr
 625:LCD_Menu.c    ****                     
 626:LCD_Menu.c    ****                     if(View_Mode == 0){
 2447              		.loc 1 626 0
 2448 104e 314B     		ldr	r3, .L232+68
 2449 1050 1B78     		ldrb	r3, [r3]	@ zero_extendqisi2
 2450 1052 002B     		cmp	r3, #0
 2451 1054 0AD1     		bne	.L115
 627:LCD_Menu.c    ****                         u8g_SetFont(&u8g, u8g_font_unifont);              
 2452              		.loc 1 627 0
 2453 1056 1E48     		ldr	r0, .L232
 2454 1058 1E49     		ldr	r1, .L232+4
 2455 105a FFF7FEFF 		bl	u8g_SetFont
 628:LCD_Menu.c    ****                         u8g_DrawStr(&u8g,  64, 43, cCurrent_Set); 
 2456              		.loc 1 628 0
 2457 105e 1C48     		ldr	r0, .L232
 2458 1060 4021     		movs	r1, #64
 2459 1062 2B22     		movs	r2, #43
 2460 1064 2C4B     		ldr	r3, .L232+72
 2461 1066 FFF7FEFF 		bl	u8g_DrawStr
 2462 106a 09E0     		b	.L116
 2463              	.L115:
 629:LCD_Menu.c    ****                     }
 630:LCD_Menu.c    ****                     else{
 631:LCD_Menu.c    ****                         u8g_SetFont(&u8g, u8g_font_unifont);              
 2464              		.loc 1 631 0
 2465 106c 1848     		ldr	r0, .L232
 2466 106e 1949     		ldr	r1, .L232+4
 2467 1070 FFF7FEFF 		bl	u8g_SetFont
 632:LCD_Menu.c    ****                         u8g_DrawStr(&u8g,  64, 43, cPower_Set);
 2468              		.loc 1 632 0
 2469 1074 1648     		ldr	r0, .L232
 2470 1076 4021     		movs	r1, #64
 2471 1078 2B22     		movs	r2, #43
 2472 107a 284B     		ldr	r3, .L232+76
 2473 107c FFF7FEFF 		bl	u8g_DrawStr
 2474              	.L116:
 633:LCD_Menu.c    ****                     }
 634:LCD_Menu.c    ****                     
 635:LCD_Menu.c    ****                     if(Edit_Value_Mode == 1){                        
 2475              		.loc 1 635 0
 2476 1080 274B     		ldr	r3, .L232+80
 2477 1082 1B78     		ldrb	r3, [r3]	@ zero_extendqisi2
 2478 1084 012B     		cmp	r3, #1
 2479 1086 40F04781 		bne	.L124
 2480              	.LBB6:
 636:LCD_Menu.c    ****                         uint8 Underline;
 637:LCD_Menu.c    ****                         if(Current_Menu_Position == 0) Underline = -12+LocalMove;
 2481              		.loc 1 637 0
 2482 108a BB79     		ldrb	r3, [r7, #6]	@ zero_extendqisi2
ARM GAS  C:\Users\KJA\AppData\Local\Temp\ccbnGHAr.s 			page 57


 2483 108c 002B     		cmp	r3, #0
 2484 108e 03D1     		bne	.L118
 2485              		.loc 1 637 0 is_stmt 0 discriminator 1
 2486 1090 7B7B     		ldrb	r3, [r7, #13]	@ zero_extendqisi2
 2487 1092 0C3B     		subs	r3, r3, #12
 2488 1094 3B75     		strb	r3, [r7, #20]
 2489 1096 48E0     		b	.L119
 2490              	.L118:
 638:LCD_Menu.c    ****                         else if(Current_Menu_Position == 1) Underline = 3+LocalMove;
 2491              		.loc 1 638 0 is_stmt 1
 2492 1098 BB79     		ldrb	r3, [r7, #6]	@ zero_extendqisi2
 2493 109a 012B     		cmp	r3, #1
 2494 109c 03D1     		bne	.L120
 2495              		.loc 1 638 0 is_stmt 0 discriminator 1
 2496 109e 7B7B     		ldrb	r3, [r7, #13]	@ zero_extendqisi2
 2497 10a0 0333     		adds	r3, r3, #3
 2498 10a2 3B75     		strb	r3, [r7, #20]
 2499 10a4 41E0     		b	.L119
 2500              	.L120:
 639:LCD_Menu.c    ****                         else if(Current_Menu_Position == 2) Underline = 18+LocalMove;
 2501              		.loc 1 639 0 is_stmt 1
 2502 10a6 BB79     		ldrb	r3, [r7, #6]	@ zero_extendqisi2
 2503 10a8 022B     		cmp	r3, #2
 2504 10aa 03D1     		bne	.L121
 2505              		.loc 1 639 0 is_stmt 0 discriminator 1
 2506 10ac 7B7B     		ldrb	r3, [r7, #13]	@ zero_extendqisi2
 2507 10ae 1233     		adds	r3, r3, #18
 2508 10b0 3B75     		strb	r3, [r7, #20]
 2509 10b2 3AE0     		b	.L119
 2510              	.L121:
 640:LCD_Menu.c    ****                         else if(Current_Menu_Position == 3) Underline = 35+LocalMove;
 2511              		.loc 1 640 0 is_stmt 1
 2512 10b4 BB79     		ldrb	r3, [r7, #6]	@ zero_extendqisi2
 2513 10b6 032B     		cmp	r3, #3
 2514 10b8 03D1     		bne	.L122
 2515              		.loc 1 640 0 is_stmt 0 discriminator 1
 2516 10ba 7B7B     		ldrb	r3, [r7, #13]	@ zero_extendqisi2
 2517 10bc 2333     		adds	r3, r3, #35
 2518 10be 3B75     		strb	r3, [r7, #20]
 2519 10c0 33E0     		b	.L119
 2520              	.L122:
 641:LCD_Menu.c    ****                         else if(Current_Menu_Position == 4) Underline = 58+LocalMove;
 2521              		.loc 1 641 0 is_stmt 1
 2522 10c2 BB79     		ldrb	r3, [r7, #6]	@ zero_extendqisi2
 2523 10c4 042B     		cmp	r3, #4
 2524 10c6 2DD1     		bne	.L123
 2525              		.loc 1 641 0 is_stmt 0 discriminator 1
 2526 10c8 7B7B     		ldrb	r3, [r7, #13]	@ zero_extendqisi2
 2527 10ca 3A33     		adds	r3, r3, #58
 2528 10cc 3B75     		strb	r3, [r7, #20]
 2529 10ce 2CE0     		b	.L119
 2530              	.L233:
 2531              		.align	2
 2532              	.L232:
 2533 10d0 00000000 		.word	u8g
 2534 10d4 00000000 		.word	u8g_font_unifont
 2535 10d8 80010000 		.word	.LC30
ARM GAS  C:\Users\KJA\AppData\Local\Temp\ccbnGHAr.s 			page 58


 2536 10dc 00000000 		.word	Current_DIE_TempString
 2537 10e0 8C010000 		.word	.LC31
 2538 10e4 00000000 		.word	Current_FET_TempString
 2539 10e8 98010000 		.word	.LC32
 2540 10ec D8000000 		.word	.LC15
 2541 10f0 00000000 		.word	OutputEnable
 2542 10f4 00000000 		.word	Set_Resist
 2543 10f8 00000000 		.word	u8g_font_fub20
 2544 10fc 00000000 		.word	cResist_Set
 2545 1100 00002041 		.word	1092616192
 2546 1104 0000C842 		.word	1120403456
 2547 1108 00007A44 		.word	1148846080
 2548 110c A8010000 		.word	.LC33
 2549 1110 00000000 		.word	cVoltage_Actual
 2550 1114 00000000 		.word	View_Mode
 2551 1118 00000000 		.word	cCurrent_Set
 2552 111c 00000000 		.word	cPower_Set
 2553 1120 00000000 		.word	Edit_Value_Mode
 2554              	.L123:
 642:LCD_Menu.c    ****                         else Underline = 50+LocalMove;
 2555              		.loc 1 642 0 is_stmt 1
 2556 1124 7B7B     		ldrb	r3, [r7, #13]	@ zero_extendqisi2
 2557 1126 3233     		adds	r3, r3, #50
 2558 1128 3B75     		strb	r3, [r7, #20]
 2559              	.L119:
 643:LCD_Menu.c    ****                         u8g_DrawLine(&u8g,Underline,27,Underline+12,27);
 2560              		.loc 1 643 0
 2561 112a 3B7D     		ldrb	r3, [r7, #20]
 2562 112c 0C33     		adds	r3, r3, #12
 2563 112e DCB2     		uxtb	r4, r3
 2564 1130 3A7D     		ldrb	r2, [r7, #20]	@ zero_extendqisi2
 2565 1132 1B23     		movs	r3, #27
 2566 1134 0093     		str	r3, [sp]
 2567 1136 AD48     		ldr	r0, .L234
 2568 1138 1146     		mov	r1, r2
 2569 113a 1B22     		movs	r2, #27
 2570 113c 2346     		mov	r3, r4
 2571 113e FFF7FEFF 		bl	u8g_DrawLine
 644:LCD_Menu.c    ****                         u8g_DrawLine(&u8g,Underline,28,Underline+12,28);
 2572              		.loc 1 644 0
 2573 1142 3B7D     		ldrb	r3, [r7, #20]
 2574 1144 0C33     		adds	r3, r3, #12
 2575 1146 DCB2     		uxtb	r4, r3
 2576 1148 3A7D     		ldrb	r2, [r7, #20]	@ zero_extendqisi2
 2577 114a 1C23     		movs	r3, #28
 2578 114c 0093     		str	r3, [sp]
 2579 114e A748     		ldr	r0, .L234
 2580 1150 1146     		mov	r1, r2
 2581 1152 1C22     		movs	r2, #28
 2582 1154 2346     		mov	r3, r4
 2583 1156 FFF7FEFF 		bl	u8g_DrawLine
 2584 115a DDE0     		b	.L124
 2585              	.L105:
 2586              	.LBE6:
 645:LCD_Menu.c    ****                     }
 646:LCD_Menu.c    ****                 }
 647:LCD_Menu.c    ****                 
ARM GAS  C:\Users\KJA\AppData\Local\Temp\ccbnGHAr.s 			page 59


 648:LCD_Menu.c    ****                 else if(OutputEnable == 1){
 2587              		.loc 1 648 0
 2588 115c A44B     		ldr	r3, .L234+4
 2589 115e 1B78     		ldrb	r3, [r3]	@ zero_extendqisi2
 2590 1160 012B     		cmp	r3, #1
 2591 1162 40F0D980 		bne	.L124
 649:LCD_Menu.c    ****                     if(fResist < 1){                       
 2592              		.loc 1 649 0
 2593 1166 A34B     		ldr	r3, .L234+8
 2594 1168 1B68     		ldr	r3, [r3]	@ float
 2595 116a 1846     		mov	r0, r3
 2596 116c 4FF07E51 		mov	r1, #1065353216
 2597 1170 FFF7FEFF 		bl	__aeabi_fcmplt
 2598 1174 0346     		mov	r3, r0
 2599 1176 002B     		cmp	r3, #0
 2600 1178 0DD0     		beq	.L213
 650:LCD_Menu.c    ****                         u8g_SetFont(&u8g, u8g_font_fub20);   
 2601              		.loc 1 650 0
 2602 117a 9C48     		ldr	r0, .L234
 2603 117c 9E49     		ldr	r1, .L234+12
 2604 117e FFF7FEFF 		bl	u8g_SetFont
 651:LCD_Menu.c    ****                         u8g_DrawStr(&u8g,  31+LocalMove, 26, cResist_Actual);
 2605              		.loc 1 651 0
 2606 1182 7B7B     		ldrb	r3, [r7, #13]	@ zero_extendqisi2
 2607 1184 1F33     		adds	r3, r3, #31
 2608 1186 DBB2     		uxtb	r3, r3
 2609 1188 9848     		ldr	r0, .L234
 2610 118a 1946     		mov	r1, r3
 2611 118c 1A22     		movs	r2, #26
 2612 118e 9B4B     		ldr	r3, .L234+16
 2613 1190 FFF7FEFF 		bl	u8g_DrawStr
 2614 1194 51E0     		b	.L127
 2615              	.L213:
 652:LCD_Menu.c    ****                     }
 653:LCD_Menu.c    ****                     else if(fResist < 10){
 2616              		.loc 1 653 0
 2617 1196 974B     		ldr	r3, .L234+8
 2618 1198 1B68     		ldr	r3, [r3]	@ float
 2619 119a 1846     		mov	r0, r3
 2620 119c 9849     		ldr	r1, .L234+20
 2621 119e FFF7FEFF 		bl	__aeabi_fcmplt
 2622 11a2 0346     		mov	r3, r0
 2623 11a4 002B     		cmp	r3, #0
 2624 11a6 0DD0     		beq	.L214
 654:LCD_Menu.c    ****                         u8g_SetFont(&u8g, u8g_font_fub20);   
 2625              		.loc 1 654 0
 2626 11a8 9048     		ldr	r0, .L234
 2627 11aa 9349     		ldr	r1, .L234+12
 2628 11ac FFF7FEFF 		bl	u8g_SetFont
 655:LCD_Menu.c    ****                         u8g_DrawStr(&u8g,  24+LocalMove, 26, cResist_Actual); 
 2629              		.loc 1 655 0
 2630 11b0 7B7B     		ldrb	r3, [r7, #13]	@ zero_extendqisi2
 2631 11b2 1833     		adds	r3, r3, #24
 2632 11b4 DBB2     		uxtb	r3, r3
 2633 11b6 8D48     		ldr	r0, .L234
 2634 11b8 1946     		mov	r1, r3
 2635 11ba 1A22     		movs	r2, #26
ARM GAS  C:\Users\KJA\AppData\Local\Temp\ccbnGHAr.s 			page 60


 2636 11bc 8F4B     		ldr	r3, .L234+16
 2637 11be FFF7FEFF 		bl	u8g_DrawStr
 2638 11c2 3AE0     		b	.L127
 2639              	.L214:
 656:LCD_Menu.c    ****                     }
 657:LCD_Menu.c    ****                     else if(fResist < 100){
 2640              		.loc 1 657 0
 2641 11c4 8B4B     		ldr	r3, .L234+8
 2642 11c6 1B68     		ldr	r3, [r3]	@ float
 2643 11c8 1846     		mov	r0, r3
 2644 11ca 8E49     		ldr	r1, .L234+24
 2645 11cc FFF7FEFF 		bl	__aeabi_fcmplt
 2646 11d0 0346     		mov	r3, r0
 2647 11d2 002B     		cmp	r3, #0
 2648 11d4 0DD0     		beq	.L215
 658:LCD_Menu.c    ****                         u8g_SetFont(&u8g, u8g_font_fub20);   
 2649              		.loc 1 658 0
 2650 11d6 8548     		ldr	r0, .L234
 2651 11d8 8749     		ldr	r1, .L234+12
 2652 11da FFF7FEFF 		bl	u8g_SetFont
 659:LCD_Menu.c    ****                         u8g_DrawStr(&u8g,  17+LocalMove, 26, cResist_Actual); 
 2653              		.loc 1 659 0
 2654 11de 7B7B     		ldrb	r3, [r7, #13]	@ zero_extendqisi2
 2655 11e0 1133     		adds	r3, r3, #17
 2656 11e2 DBB2     		uxtb	r3, r3
 2657 11e4 8148     		ldr	r0, .L234
 2658 11e6 1946     		mov	r1, r3
 2659 11e8 1A22     		movs	r2, #26
 2660 11ea 844B     		ldr	r3, .L234+16
 2661 11ec FFF7FEFF 		bl	u8g_DrawStr
 2662 11f0 23E0     		b	.L127
 2663              	.L215:
 660:LCD_Menu.c    ****                     }
 661:LCD_Menu.c    ****                     else if(fResist < 1000){
 2664              		.loc 1 661 0
 2665 11f2 804B     		ldr	r3, .L234+8
 2666 11f4 1B68     		ldr	r3, [r3]	@ float
 2667 11f6 1846     		mov	r0, r3
 2668 11f8 8349     		ldr	r1, .L234+28
 2669 11fa FFF7FEFF 		bl	__aeabi_fcmplt
 2670 11fe 0346     		mov	r3, r0
 2671 1200 002B     		cmp	r3, #0
 2672 1202 0DD0     		beq	.L216
 662:LCD_Menu.c    ****                         u8g_SetFont(&u8g, u8g_font_fub20);   
 2673              		.loc 1 662 0
 2674 1204 7948     		ldr	r0, .L234
 2675 1206 7C49     		ldr	r1, .L234+12
 2676 1208 FFF7FEFF 		bl	u8g_SetFont
 663:LCD_Menu.c    ****                         u8g_DrawStr(&u8g,  2+LocalMove, 26, cResist_Actual); 
 2677              		.loc 1 663 0
 2678 120c 7B7B     		ldrb	r3, [r7, #13]	@ zero_extendqisi2
 2679 120e 0233     		adds	r3, r3, #2
 2680 1210 DBB2     		uxtb	r3, r3
 2681 1212 7648     		ldr	r0, .L234
 2682 1214 1946     		mov	r1, r3
 2683 1216 1A22     		movs	r2, #26
 2684 1218 784B     		ldr	r3, .L234+16
ARM GAS  C:\Users\KJA\AppData\Local\Temp\ccbnGHAr.s 			page 61


 2685 121a FFF7FEFF 		bl	u8g_DrawStr
 2686 121e 0CE0     		b	.L127
 2687              	.L216:
 664:LCD_Menu.c    ****                     }
 665:LCD_Menu.c    ****                     else{
 666:LCD_Menu.c    ****                         u8g_SetFont(&u8g, u8g_font_fub20);   
 2688              		.loc 1 666 0
 2689 1220 7248     		ldr	r0, .L234
 2690 1222 7549     		ldr	r1, .L234+12
 2691 1224 FFF7FEFF 		bl	u8g_SetFont
 667:LCD_Menu.c    ****                         u8g_DrawStr(&u8g,  -13+LocalMove, 26, cResist_Actual); 
 2692              		.loc 1 667 0
 2693 1228 7B7B     		ldrb	r3, [r7, #13]	@ zero_extendqisi2
 2694 122a 0D3B     		subs	r3, r3, #13
 2695 122c DBB2     		uxtb	r3, r3
 2696 122e 6F48     		ldr	r0, .L234
 2697 1230 1946     		mov	r1, r3
 2698 1232 1A22     		movs	r2, #26
 2699 1234 714B     		ldr	r3, .L234+16
 2700 1236 FFF7FEFF 		bl	u8g_DrawStr
 2701              	.L127:
 668:LCD_Menu.c    ****                     }
 669:LCD_Menu.c    ****                     
 670:LCD_Menu.c    ****                    
 671:LCD_Menu.c    ****                     u8g_SetFont(&u8g, u8g_font_unifont);              
 2702              		.loc 1 671 0
 2703 123a 6C48     		ldr	r0, .L234
 2704 123c 7349     		ldr	r1, .L234+32
 2705 123e FFF7FEFF 		bl	u8g_SetFont
 672:LCD_Menu.c    ****                     u8g_DrawStr(&u8g,  96, 26, "Ohm");
 2706              		.loc 1 672 0
 2707 1242 6A48     		ldr	r0, .L234
 2708 1244 6021     		movs	r1, #96
 2709 1246 1A22     		movs	r2, #26
 2710 1248 714B     		ldr	r3, .L234+36
 2711 124a FFF7FEFF 		bl	u8g_DrawStr
 673:LCD_Menu.c    ****                                    
 674:LCD_Menu.c    ****                     u8g_SetFont(&u8g, u8g_font_unifont);              
 2712              		.loc 1 674 0
 2713 124e 6748     		ldr	r0, .L234
 2714 1250 6E49     		ldr	r1, .L234+32
 2715 1252 FFF7FEFF 		bl	u8g_SetFont
 675:LCD_Menu.c    ****                     u8g_DrawStr(&u8g,  4, 43, cVoltage_Actual);
 2716              		.loc 1 675 0
 2717 1256 6548     		ldr	r0, .L234
 2718 1258 0421     		movs	r1, #4
 2719 125a 2B22     		movs	r2, #43
 2720 125c 6D4B     		ldr	r3, .L234+40
 2721 125e FFF7FEFF 		bl	u8g_DrawStr
 676:LCD_Menu.c    ****                     
 677:LCD_Menu.c    ****                     if(View_Mode == 0){                        
 2722              		.loc 1 677 0
 2723 1262 6D4B     		ldr	r3, .L234+44
 2724 1264 1B78     		ldrb	r3, [r3]	@ zero_extendqisi2
 2725 1266 002B     		cmp	r3, #0
 2726 1268 0AD1     		bne	.L134
 678:LCD_Menu.c    ****                         u8g_SetFont(&u8g, u8g_font_unifont);              
ARM GAS  C:\Users\KJA\AppData\Local\Temp\ccbnGHAr.s 			page 62


 2727              		.loc 1 678 0
 2728 126a 6048     		ldr	r0, .L234
 2729 126c 6749     		ldr	r1, .L234+32
 2730 126e FFF7FEFF 		bl	u8g_SetFont
 679:LCD_Menu.c    ****                         u8g_DrawStr(&u8g,  64, 43, cCurrent_Actual);
 2731              		.loc 1 679 0
 2732 1272 5E48     		ldr	r0, .L234
 2733 1274 4021     		movs	r1, #64
 2734 1276 2B22     		movs	r2, #43
 2735 1278 684B     		ldr	r3, .L234+48
 2736 127a FFF7FEFF 		bl	u8g_DrawStr
 2737 127e 09E0     		b	.L135
 2738              	.L134:
 680:LCD_Menu.c    ****                     }
 681:LCD_Menu.c    ****                     else{
 682:LCD_Menu.c    ****                         u8g_SetFont(&u8g, u8g_font_unifont);              
 2739              		.loc 1 682 0
 2740 1280 5A48     		ldr	r0, .L234
 2741 1282 6249     		ldr	r1, .L234+32
 2742 1284 FFF7FEFF 		bl	u8g_SetFont
 683:LCD_Menu.c    ****                         u8g_DrawStr(&u8g,  64, 43, cPower_Actual);
 2743              		.loc 1 683 0
 2744 1288 5848     		ldr	r0, .L234
 2745 128a 4021     		movs	r1, #64
 2746 128c 2B22     		movs	r2, #43
 2747 128e 644B     		ldr	r3, .L234+52
 2748 1290 FFF7FEFF 		bl	u8g_DrawStr
 2749              	.L135:
 684:LCD_Menu.c    ****                     }
 685:LCD_Menu.c    ****                     
 686:LCD_Menu.c    ****                     if(Edit_Value_Mode == 1){                        
 2750              		.loc 1 686 0
 2751 1294 634B     		ldr	r3, .L234+56
 2752 1296 1B78     		ldrb	r3, [r3]	@ zero_extendqisi2
 2753 1298 012B     		cmp	r3, #1
 2754 129a 3DD1     		bne	.L124
 2755              	.LBB7:
 687:LCD_Menu.c    ****                         uint8 Underline;
 688:LCD_Menu.c    ****                         if(Current_Menu_Position == 0) Underline = -12+LocalMove;
 2756              		.loc 1 688 0
 2757 129c BB79     		ldrb	r3, [r7, #6]	@ zero_extendqisi2
 2758 129e 002B     		cmp	r3, #0
 2759 12a0 03D1     		bne	.L136
 2760              		.loc 1 688 0 is_stmt 0 discriminator 1
 2761 12a2 7B7B     		ldrb	r3, [r7, #13]	@ zero_extendqisi2
 2762 12a4 0C3B     		subs	r3, r3, #12
 2763 12a6 FB74     		strb	r3, [r7, #19]
 2764 12a8 1EE0     		b	.L137
 2765              	.L136:
 689:LCD_Menu.c    ****                         else if(Current_Menu_Position == 1) Underline = 3+LocalMove;
 2766              		.loc 1 689 0 is_stmt 1
 2767 12aa BB79     		ldrb	r3, [r7, #6]	@ zero_extendqisi2
 2768 12ac 012B     		cmp	r3, #1
 2769 12ae 03D1     		bne	.L138
 2770              		.loc 1 689 0 is_stmt 0 discriminator 1
 2771 12b0 7B7B     		ldrb	r3, [r7, #13]	@ zero_extendqisi2
 2772 12b2 0333     		adds	r3, r3, #3
ARM GAS  C:\Users\KJA\AppData\Local\Temp\ccbnGHAr.s 			page 63


 2773 12b4 FB74     		strb	r3, [r7, #19]
 2774 12b6 17E0     		b	.L137
 2775              	.L138:
 690:LCD_Menu.c    ****                         else if(Current_Menu_Position == 2) Underline = 18+LocalMove;
 2776              		.loc 1 690 0 is_stmt 1
 2777 12b8 BB79     		ldrb	r3, [r7, #6]	@ zero_extendqisi2
 2778 12ba 022B     		cmp	r3, #2
 2779 12bc 03D1     		bne	.L139
 2780              		.loc 1 690 0 is_stmt 0 discriminator 1
 2781 12be 7B7B     		ldrb	r3, [r7, #13]	@ zero_extendqisi2
 2782 12c0 1233     		adds	r3, r3, #18
 2783 12c2 FB74     		strb	r3, [r7, #19]
 2784 12c4 10E0     		b	.L137
 2785              	.L139:
 691:LCD_Menu.c    ****                         else if(Current_Menu_Position == 3) Underline = 35+LocalMove;
 2786              		.loc 1 691 0 is_stmt 1
 2787 12c6 BB79     		ldrb	r3, [r7, #6]	@ zero_extendqisi2
 2788 12c8 032B     		cmp	r3, #3
 2789 12ca 03D1     		bne	.L140
 2790              		.loc 1 691 0 is_stmt 0 discriminator 1
 2791 12cc 7B7B     		ldrb	r3, [r7, #13]	@ zero_extendqisi2
 2792 12ce 2333     		adds	r3, r3, #35
 2793 12d0 FB74     		strb	r3, [r7, #19]
 2794 12d2 09E0     		b	.L137
 2795              	.L140:
 692:LCD_Menu.c    ****                         else if(Current_Menu_Position == 4) Underline = 58+LocalMove;
 2796              		.loc 1 692 0 is_stmt 1
 2797 12d4 BB79     		ldrb	r3, [r7, #6]	@ zero_extendqisi2
 2798 12d6 042B     		cmp	r3, #4
 2799 12d8 03D1     		bne	.L141
 2800              		.loc 1 692 0 is_stmt 0 discriminator 1
 2801 12da 7B7B     		ldrb	r3, [r7, #13]	@ zero_extendqisi2
 2802 12dc 3A33     		adds	r3, r3, #58
 2803 12de FB74     		strb	r3, [r7, #19]
 2804 12e0 02E0     		b	.L137
 2805              	.L141:
 693:LCD_Menu.c    ****                         else Underline = 50+LocalMove;
 2806              		.loc 1 693 0 is_stmt 1
 2807 12e2 7B7B     		ldrb	r3, [r7, #13]	@ zero_extendqisi2
 2808 12e4 3233     		adds	r3, r3, #50
 2809 12e6 FB74     		strb	r3, [r7, #19]
 2810              	.L137:
 694:LCD_Menu.c    ****                         u8g_DrawLine(&u8g,Underline,27,Underline+12,27);
 2811              		.loc 1 694 0
 2812 12e8 FB7C     		ldrb	r3, [r7, #19]
 2813 12ea 0C33     		adds	r3, r3, #12
 2814 12ec DCB2     		uxtb	r4, r3
 2815 12ee FA7C     		ldrb	r2, [r7, #19]	@ zero_extendqisi2
 2816 12f0 1B23     		movs	r3, #27
 2817 12f2 0093     		str	r3, [sp]
 2818 12f4 3D48     		ldr	r0, .L234
 2819 12f6 1146     		mov	r1, r2
 2820 12f8 1B22     		movs	r2, #27
 2821 12fa 2346     		mov	r3, r4
 2822 12fc FFF7FEFF 		bl	u8g_DrawLine
 695:LCD_Menu.c    ****                         u8g_DrawLine(&u8g,Underline,28,Underline+12,28);                    
 2823              		.loc 1 695 0
ARM GAS  C:\Users\KJA\AppData\Local\Temp\ccbnGHAr.s 			page 64


 2824 1300 FB7C     		ldrb	r3, [r7, #19]
 2825 1302 0C33     		adds	r3, r3, #12
 2826 1304 DCB2     		uxtb	r4, r3
 2827 1306 FA7C     		ldrb	r2, [r7, #19]	@ zero_extendqisi2
 2828 1308 1C23     		movs	r3, #28
 2829 130a 0093     		str	r3, [sp]
 2830 130c 3748     		ldr	r0, .L234
 2831 130e 1146     		mov	r1, r2
 2832 1310 1C22     		movs	r2, #28
 2833 1312 2346     		mov	r3, r4
 2834 1314 FFF7FEFF 		bl	u8g_DrawLine
 2835              	.L124:
 2836              	.LBE7:
 696:LCD_Menu.c    ****                     }
 697:LCD_Menu.c    ****                 }
 698:LCD_Menu.c    **** 
 699:LCD_Menu.c    ****                 
 700:LCD_Menu.c    ****                 
 701:LCD_Menu.c    ****                 
 702:LCD_Menu.c    ****                 u8g_DrawBox(&u8g, 0,51,128,16);
 2837              		.loc 1 702 0
 2838 1318 1023     		movs	r3, #16
 2839 131a 0093     		str	r3, [sp]
 2840 131c 3348     		ldr	r0, .L234
 2841 131e 0021     		movs	r1, #0
 2842 1320 3322     		movs	r2, #51
 2843 1322 8023     		movs	r3, #128
 2844 1324 FFF7FEFF 		bl	u8g_DrawBox
 703:LCD_Menu.c    ****                 u8g_SetDefaultBackgroundColor(&u8g);
 2845              		.loc 1 703 0
 2846 1328 3048     		ldr	r0, .L234
 2847 132a FFF7FEFF 		bl	u8g_SetDefaultBackgroundColor
 704:LCD_Menu.c    ****                 u8g_SetFont(&u8g, u8g_font_unifont);              
 2848              		.loc 1 704 0
 2849 132e 2F48     		ldr	r0, .L234
 2850 1330 3649     		ldr	r1, .L234+32
 2851 1332 FFF7FEFF 		bl	u8g_SetFont
 705:LCD_Menu.c    ****                 u8g_DrawLine(&u8g,32,52,32,62); 
 2852              		.loc 1 705 0
 2853 1336 3E23     		movs	r3, #62
 2854 1338 0093     		str	r3, [sp]
 2855 133a 2C48     		ldr	r0, .L234
 2856 133c 2021     		movs	r1, #32
 2857 133e 3422     		movs	r2, #52
 2858 1340 2023     		movs	r3, #32
 2859 1342 FFF7FEFF 		bl	u8g_DrawLine
 706:LCD_Menu.c    ****                 u8g_DrawLine(&u8g,64,52,64,62);   
 2860              		.loc 1 706 0
 2861 1346 3E23     		movs	r3, #62
 2862 1348 0093     		str	r3, [sp]
 2863 134a 2848     		ldr	r0, .L234
 2864 134c 4021     		movs	r1, #64
 2865 134e 3422     		movs	r2, #52
 2866 1350 4023     		movs	r3, #64
 2867 1352 FFF7FEFF 		bl	u8g_DrawLine
 707:LCD_Menu.c    ****                 u8g_DrawLine(&u8g,96,52,96,62);
 2868              		.loc 1 707 0
ARM GAS  C:\Users\KJA\AppData\Local\Temp\ccbnGHAr.s 			page 65


 2869 1356 3E23     		movs	r3, #62
 2870 1358 0093     		str	r3, [sp]
 2871 135a 2448     		ldr	r0, .L234
 2872 135c 6021     		movs	r1, #96
 2873 135e 3422     		movs	r2, #52
 2874 1360 6023     		movs	r3, #96
 2875 1362 FFF7FEFF 		bl	u8g_DrawLine
 708:LCD_Menu.c    ****                 
 709:LCD_Menu.c    ****                 if(OutputEnable == 0){
 2876              		.loc 1 709 0
 2877 1366 224B     		ldr	r3, .L234+4
 2878 1368 1B78     		ldrb	r3, [r3]	@ zero_extendqisi2
 2879 136a 002B     		cmp	r3, #0
 2880 136c 0BD1     		bne	.L142
 710:LCD_Menu.c    ****                     u8g_DrawTriangle(&u8g, 11+3,51, 17+3,57, 11+3,63);
 2881              		.loc 1 710 0
 2882 136e 3923     		movs	r3, #57
 2883 1370 0093     		str	r3, [sp]
 2884 1372 0E23     		movs	r3, #14
 2885 1374 0193     		str	r3, [sp, #4]
 2886 1376 3F23     		movs	r3, #63
 2887 1378 0293     		str	r3, [sp, #8]
 2888 137a 1C48     		ldr	r0, .L234
 2889 137c 0E21     		movs	r1, #14
 2890 137e 3322     		movs	r2, #51
 2891 1380 1423     		movs	r3, #20
 2892 1382 FFF7FEFF 		bl	u8g_DrawTriangle
 2893              	.L142:
 711:LCD_Menu.c    ****                 }
 712:LCD_Menu.c    ****                 if(OutputEnable == 1){
 2894              		.loc 1 712 0
 2895 1386 1A4B     		ldr	r3, .L234+4
 2896 1388 1B78     		ldrb	r3, [r3]	@ zero_extendqisi2
 2897 138a 012B     		cmp	r3, #1
 2898 138c 1FD1     		bne	.L143
 713:LCD_Menu.c    ****                     u8g_DrawLine(&u8g,14,53,14,61);
 2899              		.loc 1 713 0
 2900 138e 3D23     		movs	r3, #61
 2901 1390 0093     		str	r3, [sp]
 2902 1392 1648     		ldr	r0, .L234
 2903 1394 0E21     		movs	r1, #14
 2904 1396 3522     		movs	r2, #53
 2905 1398 0E23     		movs	r3, #14
 2906 139a FFF7FEFF 		bl	u8g_DrawLine
 714:LCD_Menu.c    ****                     u8g_DrawLine(&u8g,15,53,15,61); 
 2907              		.loc 1 714 0
 2908 139e 3D23     		movs	r3, #61
 2909 13a0 0093     		str	r3, [sp]
 2910 13a2 1248     		ldr	r0, .L234
 2911 13a4 0F21     		movs	r1, #15
 2912 13a6 3522     		movs	r2, #53
 2913 13a8 0F23     		movs	r3, #15
 2914 13aa FFF7FEFF 		bl	u8g_DrawLine
 715:LCD_Menu.c    ****                     
 716:LCD_Menu.c    ****                     u8g_DrawLine(&u8g,17,53,17,61); 
 2915              		.loc 1 716 0
 2916 13ae 3D23     		movs	r3, #61
ARM GAS  C:\Users\KJA\AppData\Local\Temp\ccbnGHAr.s 			page 66


 2917 13b0 0093     		str	r3, [sp]
 2918 13b2 0E48     		ldr	r0, .L234
 2919 13b4 1121     		movs	r1, #17
 2920 13b6 3522     		movs	r2, #53
 2921 13b8 1123     		movs	r3, #17
 2922 13ba FFF7FEFF 		bl	u8g_DrawLine
 717:LCD_Menu.c    ****                     u8g_DrawLine(&u8g,18,53,18,61);   
 2923              		.loc 1 717 0
 2924 13be 3D23     		movs	r3, #61
 2925 13c0 0093     		str	r3, [sp]
 2926 13c2 0A48     		ldr	r0, .L234
 2927 13c4 1221     		movs	r1, #18
 2928 13c6 3522     		movs	r2, #53
 2929 13c8 1223     		movs	r3, #18
 2930 13ca FFF7FEFF 		bl	u8g_DrawLine
 2931              	.L143:
 718:LCD_Menu.c    ****                 }
 719:LCD_Menu.c    ****                 
 720:LCD_Menu.c    ****                 if(Four_Wire_Method == 0){  
 2932              		.loc 1 720 0
 2933 13ce 164B     		ldr	r3, .L234+60
 2934 13d0 1B78     		ldrb	r3, [r3]	@ zero_extendqisi2
 2935 13d2 002B     		cmp	r3, #0
 2936 13d4 2CD1     		bne	.L144
 721:LCD_Menu.c    ****                 u8g_SetFont(&u8g, u8g_font_unifont);      
 2937              		.loc 1 721 0
 2938 13d6 0548     		ldr	r0, .L234
 2939 13d8 0C49     		ldr	r1, .L234+32
 2940 13da FFF7FEFF 		bl	u8g_SetFont
 722:LCD_Menu.c    **** 
 723:LCD_Menu.c    ****                 u8g_DrawStr(&u8g,  41, 62, "2W");
 2941              		.loc 1 723 0
 2942 13de 0348     		ldr	r0, .L234
 2943 13e0 2921     		movs	r1, #41
 2944 13e2 3E22     		movs	r2, #62
 2945 13e4 114B     		ldr	r3, .L234+64
 2946 13e6 FFF7FEFF 		bl	u8g_DrawStr
 2947 13ea 2FE0     		b	.L145
 2948              	.L235:
 2949              		.align	2
 2950              	.L234:
 2951 13ec 00000000 		.word	u8g
 2952 13f0 00000000 		.word	OutputEnable
 2953 13f4 00000000 		.word	fResist
 2954 13f8 00000000 		.word	u8g_font_fub20
 2955 13fc 00000000 		.word	cResist_Actual
 2956 1400 00002041 		.word	1092616192
 2957 1404 0000C842 		.word	1120403456
 2958 1408 00007A44 		.word	1148846080
 2959 140c 00000000 		.word	u8g_font_unifont
 2960 1410 A8010000 		.word	.LC33
 2961 1414 00000000 		.word	cVoltage_Actual
 2962 1418 00000000 		.word	View_Mode
 2963 141c 00000000 		.word	cCurrent_Actual
 2964 1420 00000000 		.word	cPower_Actual
 2965 1424 00000000 		.word	Edit_Value_Mode
 2966 1428 00000000 		.word	Four_Wire_Method
ARM GAS  C:\Users\KJA\AppData\Local\Temp\ccbnGHAr.s 			page 67


 2967 142c AC010000 		.word	.LC34
 2968              	.L144:
 724:LCD_Menu.c    ****                 }
 725:LCD_Menu.c    ****                 else if(Four_Wire_Method == 1){  
 2969              		.loc 1 725 0
 2970 1430 A84B     		ldr	r3, .L236
 2971 1432 1B78     		ldrb	r3, [r3]	@ zero_extendqisi2
 2972 1434 012B     		cmp	r3, #1
 2973 1436 09D1     		bne	.L145
 726:LCD_Menu.c    ****                 u8g_SetFont(&u8g, u8g_font_unifont);              
 2974              		.loc 1 726 0
 2975 1438 A748     		ldr	r0, .L236+4
 2976 143a A849     		ldr	r1, .L236+8
 2977 143c FFF7FEFF 		bl	u8g_SetFont
 727:LCD_Menu.c    ****                 u8g_DrawStr(&u8g,  41, 62, "4W");
 2978              		.loc 1 727 0
 2979 1440 A548     		ldr	r0, .L236+4
 2980 1442 2921     		movs	r1, #41
 2981 1444 3E22     		movs	r2, #62
 2982 1446 A64B     		ldr	r3, .L236+12
 2983 1448 FFF7FEFF 		bl	u8g_DrawStr
 2984              	.L145:
 728:LCD_Menu.c    ****                 }
 729:LCD_Menu.c    ****                 
 730:LCD_Menu.c    ****                 u8g_DrawLine(&u8g,117,54,117,60-1);
 2985              		.loc 1 730 0
 2986 144c 3B23     		movs	r3, #59
 2987 144e 0093     		str	r3, [sp]
 2988 1450 A148     		ldr	r0, .L236+4
 2989 1452 7521     		movs	r1, #117
 2990 1454 3622     		movs	r2, #54
 2991 1456 7523     		movs	r3, #117
 2992 1458 FFF7FEFF 		bl	u8g_DrawLine
 731:LCD_Menu.c    ****                 u8g_DrawLine(&u8g,109,60-1,117,60-1);
 2993              		.loc 1 731 0
 2994 145c 3B23     		movs	r3, #59
 2995 145e 0093     		str	r3, [sp]
 2996 1460 9D48     		ldr	r0, .L236+4
 2997 1462 6D21     		movs	r1, #109
 2998 1464 3B22     		movs	r2, #59
 2999 1466 7523     		movs	r3, #117
 3000 1468 FFF7FEFF 		bl	u8g_DrawLine
 732:LCD_Menu.c    ****                 u8g_DrawTriangle(&u8g, 112,57-1, 107,60-1, 112,63-1);
 3001              		.loc 1 732 0
 3002 146c 3B23     		movs	r3, #59
 3003 146e 0093     		str	r3, [sp]
 3004 1470 7023     		movs	r3, #112
 3005 1472 0193     		str	r3, [sp, #4]
 3006 1474 3E23     		movs	r3, #62
 3007 1476 0293     		str	r3, [sp, #8]
 3008 1478 9748     		ldr	r0, .L236+4
 3009 147a 7021     		movs	r1, #112
 3010 147c 3822     		movs	r2, #56
 3011 147e 6B23     		movs	r3, #107
 3012 1480 FFF7FEFF 		bl	u8g_DrawTriangle
 733:LCD_Menu.c    ****                 
 734:LCD_Menu.c    ****                 u8g_SetFont(&u8g, u8g_font_unifont_77);              
ARM GAS  C:\Users\KJA\AppData\Local\Temp\ccbnGHAr.s 			page 68


 3013              		.loc 1 734 0
 3014 1484 9448     		ldr	r0, .L236+4
 3015 1486 9749     		ldr	r1, .L236+16
 3016 1488 FFF7FEFF 		bl	u8g_SetFont
 735:LCD_Menu.c    ****                 u8g_DrawStr(&u8g,  73, 62, "`");
 3017              		.loc 1 735 0
 3018 148c 9248     		ldr	r0, .L236+4
 3019 148e 4921     		movs	r1, #73
 3020 1490 3E22     		movs	r2, #62
 3021 1492 954B     		ldr	r3, .L236+20
 3022 1494 FFF7FEFF 		bl	u8g_DrawStr
 3023              	.LBE5:
 736:LCD_Menu.c    ****                 
 737:LCD_Menu.c    ****             } while ( u8g_NextPage(&u8g) );
 3024              		.loc 1 737 0
 3025 1498 8F48     		ldr	r0, .L236+4
 3026 149a FFF7FEFF 		bl	u8g_NextPage
 3027 149e 0346     		mov	r3, r0
 3028 14a0 002B     		cmp	r3, #0
 3029 14a2 7FF44CAD 		bne	.L146
 738:LCD_Menu.c    ****         break;                           
 3030              		.loc 1 738 0
 3031 14a6 AAE3     		b	.L1
 3032              	.L13:
 739:LCD_Menu.c    ****             
 740:LCD_Menu.c    ****             
 741:LCD_Menu.c    ****         case ConstantPower:            
 742:LCD_Menu.c    ****             
 743:LCD_Menu.c    ****             u8g_FirstPage(&u8g);
 3033              		.loc 1 743 0
 3034 14a8 8B48     		ldr	r0, .L236+4
 3035 14aa FFF7FEFF 		bl	u8g_FirstPage
 3036              	.L176:
 3037              	.LBB8:
 744:LCD_Menu.c    ****             do{    
 745:LCD_Menu.c    ****                 
 746:LCD_Menu.c    ****                 int8 LocalMove = 14;
 3038              		.loc 1 746 0
 3039 14ae 0E23     		movs	r3, #14
 3040 14b0 3B73     		strb	r3, [r7, #12]
 747:LCD_Menu.c    ****                 
 748:LCD_Menu.c    ****                 u8g_SetDefaultForegroundColor(&u8g);    
 3041              		.loc 1 748 0
 3042 14b2 8948     		ldr	r0, .L236+4
 3043 14b4 FFF7FEFF 		bl	u8g_SetDefaultForegroundColor
 749:LCD_Menu.c    ****                                 
 750:LCD_Menu.c    ****                 if(OutputEnable == 0){
 3044              		.loc 1 750 0
 3045 14b8 8C4B     		ldr	r3, .L236+24
 3046 14ba 1B78     		ldrb	r3, [r3]	@ zero_extendqisi2
 3047 14bc 002B     		cmp	r3, #0
 3048 14be 40F09480 		bne	.L147
 751:LCD_Menu.c    ****                     if(Set_Power < 10.00){                       
 3049              		.loc 1 751 0
 3050 14c2 8B4B     		ldr	r3, .L236+28
 3051 14c4 1B68     		ldr	r3, [r3]	@ float
 3052 14c6 1846     		mov	r0, r3
ARM GAS  C:\Users\KJA\AppData\Local\Temp\ccbnGHAr.s 			page 69


 3053 14c8 8A49     		ldr	r1, .L236+32
 3054 14ca FFF7FEFF 		bl	__aeabi_fcmplt
 3055 14ce 0346     		mov	r3, r0
 3056 14d0 002B     		cmp	r3, #0
 3057 14d2 0DD0     		beq	.L217
 752:LCD_Menu.c    ****                         u8g_SetFont(&u8g, u8g_font_fub20);   
 3058              		.loc 1 752 0
 3059 14d4 8048     		ldr	r0, .L236+4
 3060 14d6 8849     		ldr	r1, .L236+36
 3061 14d8 FFF7FEFF 		bl	u8g_SetFont
 753:LCD_Menu.c    ****                         u8g_DrawStr(&u8g,  28+LocalMove, 26, cPower_Set);
 3062              		.loc 1 753 0
 3063 14dc 3B7B     		ldrb	r3, [r7, #12]	@ zero_extendqisi2
 3064 14de 1C33     		adds	r3, r3, #28
 3065 14e0 DBB2     		uxtb	r3, r3
 3066 14e2 7D48     		ldr	r0, .L236+4
 3067 14e4 1946     		mov	r1, r3
 3068 14e6 1A22     		movs	r2, #26
 3069 14e8 844B     		ldr	r3, .L236+40
 3070 14ea FFF7FEFF 		bl	u8g_DrawStr
 3071 14ee 23E0     		b	.L150
 3072              	.L217:
 754:LCD_Menu.c    ****                     }
 755:LCD_Menu.c    ****                     else if(Set_Power < 100.00){
 3073              		.loc 1 755 0
 3074 14f0 7F4B     		ldr	r3, .L236+28
 3075 14f2 1B68     		ldr	r3, [r3]	@ float
 3076 14f4 1846     		mov	r0, r3
 3077 14f6 8249     		ldr	r1, .L236+44
 3078 14f8 FFF7FEFF 		bl	__aeabi_fcmplt
 3079 14fc 0346     		mov	r3, r0
 3080 14fe 002B     		cmp	r3, #0
 3081 1500 0DD0     		beq	.L218
 756:LCD_Menu.c    ****                         u8g_SetFont(&u8g, u8g_font_fub20);   
 3082              		.loc 1 756 0
 3083 1502 7548     		ldr	r0, .L236+4
 3084 1504 7C49     		ldr	r1, .L236+36
 3085 1506 FFF7FEFF 		bl	u8g_SetFont
 757:LCD_Menu.c    ****                         u8g_DrawStr(&u8g,  9+LocalMove, 26, cPower_Set); 
 3086              		.loc 1 757 0
 3087 150a 3B7B     		ldrb	r3, [r7, #12]	@ zero_extendqisi2
 3088 150c 0933     		adds	r3, r3, #9
 3089 150e DBB2     		uxtb	r3, r3
 3090 1510 7148     		ldr	r0, .L236+4
 3091 1512 1946     		mov	r1, r3
 3092 1514 1A22     		movs	r2, #26
 3093 1516 794B     		ldr	r3, .L236+40
 3094 1518 FFF7FEFF 		bl	u8g_DrawStr
 3095 151c 0CE0     		b	.L150
 3096              	.L218:
 758:LCD_Menu.c    ****                     }
 759:LCD_Menu.c    ****                     else{
 760:LCD_Menu.c    ****                         u8g_SetFont(&u8g, u8g_font_fub20);   
 3097              		.loc 1 760 0
 3098 151e 6E48     		ldr	r0, .L236+4
 3099 1520 7549     		ldr	r1, .L236+36
 3100 1522 FFF7FEFF 		bl	u8g_SetFont
ARM GAS  C:\Users\KJA\AppData\Local\Temp\ccbnGHAr.s 			page 70


 761:LCD_Menu.c    ****                         u8g_DrawStr(&u8g,  -6+LocalMove, 26, cPower_Set); 
 3101              		.loc 1 761 0
 3102 1526 3B7B     		ldrb	r3, [r7, #12]	@ zero_extendqisi2
 3103 1528 063B     		subs	r3, r3, #6
 3104 152a DBB2     		uxtb	r3, r3
 3105 152c 6A48     		ldr	r0, .L236+4
 3106 152e 1946     		mov	r1, r3
 3107 1530 1A22     		movs	r2, #26
 3108 1532 724B     		ldr	r3, .L236+40
 3109 1534 FFF7FEFF 		bl	u8g_DrawStr
 3110              	.L150:
 762:LCD_Menu.c    ****                     }
 763:LCD_Menu.c    ****                                  
 764:LCD_Menu.c    ****                     u8g_SetFont(&u8g, u8g_font_unifont);              
 3111              		.loc 1 764 0
 3112 1538 6748     		ldr	r0, .L236+4
 3113 153a 6849     		ldr	r1, .L236+8
 3114 153c FFF7FEFF 		bl	u8g_SetFont
 765:LCD_Menu.c    ****                     u8g_DrawStr(&u8g,  4, 43, cVoltage_Set);
 3115              		.loc 1 765 0
 3116 1540 6548     		ldr	r0, .L236+4
 3117 1542 0421     		movs	r1, #4
 3118 1544 2B22     		movs	r2, #43
 3119 1546 6F4B     		ldr	r3, .L236+48
 3120 1548 FFF7FEFF 		bl	u8g_DrawStr
 766:LCD_Menu.c    ****                     
 767:LCD_Menu.c    ****                     if(View_Mode == 0){
 3121              		.loc 1 767 0
 3122 154c 6E4B     		ldr	r3, .L236+52
 3123 154e 1B78     		ldrb	r3, [r3]	@ zero_extendqisi2
 3124 1550 002B     		cmp	r3, #0
 3125 1552 0AD1     		bne	.L153
 768:LCD_Menu.c    ****                         u8g_SetFont(&u8g, u8g_font_unifont);              
 3126              		.loc 1 768 0
 3127 1554 6048     		ldr	r0, .L236+4
 3128 1556 6149     		ldr	r1, .L236+8
 3129 1558 FFF7FEFF 		bl	u8g_SetFont
 769:LCD_Menu.c    ****                         u8g_DrawStr(&u8g,  64, 43, cCurrent_Set); 
 3130              		.loc 1 769 0
 3131 155c 5E48     		ldr	r0, .L236+4
 3132 155e 4021     		movs	r1, #64
 3133 1560 2B22     		movs	r2, #43
 3134 1562 6A4B     		ldr	r3, .L236+56
 3135 1564 FFF7FEFF 		bl	u8g_DrawStr
 3136 1568 09E0     		b	.L154
 3137              	.L153:
 770:LCD_Menu.c    ****                     }
 771:LCD_Menu.c    ****                     else{
 772:LCD_Menu.c    ****                         u8g_SetFont(&u8g, u8g_font_unifont);              
 3138              		.loc 1 772 0
 3139 156a 5B48     		ldr	r0, .L236+4
 3140 156c 5B49     		ldr	r1, .L236+8
 3141 156e FFF7FEFF 		bl	u8g_SetFont
 773:LCD_Menu.c    ****                         u8g_DrawStr(&u8g,  64, 43, cResist_Set);
 3142              		.loc 1 773 0
 3143 1572 5948     		ldr	r0, .L236+4
 3144 1574 4021     		movs	r1, #64
ARM GAS  C:\Users\KJA\AppData\Local\Temp\ccbnGHAr.s 			page 71


 3145 1576 2B22     		movs	r2, #43
 3146 1578 654B     		ldr	r3, .L236+60
 3147 157a FFF7FEFF 		bl	u8g_DrawStr
 3148              	.L154:
 774:LCD_Menu.c    ****                     }
 775:LCD_Menu.c    ****                     
 776:LCD_Menu.c    ****                     if(Edit_Value_Mode == 1){                        
 3149              		.loc 1 776 0
 3150 157e 654B     		ldr	r3, .L236+64
 3151 1580 1B78     		ldrb	r3, [r3]	@ zero_extendqisi2
 3152 1582 012B     		cmp	r3, #1
 3153 1584 40F0FC80 		bne	.L160
 3154              	.LBB9:
 777:LCD_Menu.c    ****                         uint8 Underline;
 778:LCD_Menu.c    ****                         if(Current_Menu_Position == 0) Underline = 10+LocalMove;
 3155              		.loc 1 778 0
 3156 1588 BB79     		ldrb	r3, [r7, #6]	@ zero_extendqisi2
 3157 158a 002B     		cmp	r3, #0
 3158 158c 03D1     		bne	.L156
 3159              		.loc 1 778 0 is_stmt 0 discriminator 1
 3160 158e 3B7B     		ldrb	r3, [r7, #12]	@ zero_extendqisi2
 3161 1590 0A33     		adds	r3, r3, #10
 3162 1592 BB74     		strb	r3, [r7, #18]
 3163 1594 10E0     		b	.L157
 3164              	.L156:
 779:LCD_Menu.c    ****                         else if(Current_Menu_Position == 1) Underline = 26+LocalMove;
 3165              		.loc 1 779 0 is_stmt 1
 3166 1596 BB79     		ldrb	r3, [r7, #6]	@ zero_extendqisi2
 3167 1598 012B     		cmp	r3, #1
 3168 159a 03D1     		bne	.L158
 3169              		.loc 1 779 0 is_stmt 0 discriminator 1
 3170 159c 3B7B     		ldrb	r3, [r7, #12]	@ zero_extendqisi2
 3171 159e 1A33     		adds	r3, r3, #26
 3172 15a0 BB74     		strb	r3, [r7, #18]
 3173 15a2 09E0     		b	.L157
 3174              	.L158:
 780:LCD_Menu.c    ****                         else if(Current_Menu_Position == 2) Underline = 50+LocalMove;
 3175              		.loc 1 780 0 is_stmt 1
 3176 15a4 BB79     		ldrb	r3, [r7, #6]	@ zero_extendqisi2
 3177 15a6 022B     		cmp	r3, #2
 3178 15a8 03D1     		bne	.L159
 3179              		.loc 1 780 0 is_stmt 0 discriminator 1
 3180 15aa 3B7B     		ldrb	r3, [r7, #12]	@ zero_extendqisi2
 3181 15ac 3233     		adds	r3, r3, #50
 3182 15ae BB74     		strb	r3, [r7, #18]
 3183 15b0 02E0     		b	.L157
 3184              	.L159:
 781:LCD_Menu.c    ****                         else Underline = 50+LocalMove;
 3185              		.loc 1 781 0 is_stmt 1
 3186 15b2 3B7B     		ldrb	r3, [r7, #12]	@ zero_extendqisi2
 3187 15b4 3233     		adds	r3, r3, #50
 3188 15b6 BB74     		strb	r3, [r7, #18]
 3189              	.L157:
 782:LCD_Menu.c    ****                         u8g_DrawLine(&u8g,Underline,27,Underline+12,27);
 3190              		.loc 1 782 0
 3191 15b8 BB7C     		ldrb	r3, [r7, #18]
 3192 15ba 0C33     		adds	r3, r3, #12
ARM GAS  C:\Users\KJA\AppData\Local\Temp\ccbnGHAr.s 			page 72


 3193 15bc DCB2     		uxtb	r4, r3
 3194 15be BA7C     		ldrb	r2, [r7, #18]	@ zero_extendqisi2
 3195 15c0 1B23     		movs	r3, #27
 3196 15c2 0093     		str	r3, [sp]
 3197 15c4 4448     		ldr	r0, .L236+4
 3198 15c6 1146     		mov	r1, r2
 3199 15c8 1B22     		movs	r2, #27
 3200 15ca 2346     		mov	r3, r4
 3201 15cc FFF7FEFF 		bl	u8g_DrawLine
 783:LCD_Menu.c    ****                         u8g_DrawLine(&u8g,Underline,28,Underline+12,28);
 3202              		.loc 1 783 0
 3203 15d0 BB7C     		ldrb	r3, [r7, #18]
 3204 15d2 0C33     		adds	r3, r3, #12
 3205 15d4 DCB2     		uxtb	r4, r3
 3206 15d6 BA7C     		ldrb	r2, [r7, #18]	@ zero_extendqisi2
 3207 15d8 1C23     		movs	r3, #28
 3208 15da 0093     		str	r3, [sp]
 3209 15dc 3E48     		ldr	r0, .L236+4
 3210 15de 1146     		mov	r1, r2
 3211 15e0 1C22     		movs	r2, #28
 3212 15e2 2346     		mov	r3, r4
 3213 15e4 FFF7FEFF 		bl	u8g_DrawLine
 3214 15e8 CAE0     		b	.L160
 3215              	.L147:
 3216              	.LBE9:
 784:LCD_Menu.c    ****                     }
 785:LCD_Menu.c    ****                 }
 786:LCD_Menu.c    ****                 
 787:LCD_Menu.c    ****                 else if(OutputEnable == 1){
 3217              		.loc 1 787 0
 3218 15ea 404B     		ldr	r3, .L236+24
 3219 15ec 1B78     		ldrb	r3, [r3]	@ zero_extendqisi2
 3220 15ee 012B     		cmp	r3, #1
 3221 15f0 40F0C680 		bne	.L160
 788:LCD_Menu.c    ****                     if(fPower < 10.00){
 3222              		.loc 1 788 0
 3223 15f4 484B     		ldr	r3, .L236+68
 3224 15f6 1B68     		ldr	r3, [r3]	@ float
 3225 15f8 1846     		mov	r0, r3
 3226 15fa 3E49     		ldr	r1, .L236+32
 3227 15fc FFF7FEFF 		bl	__aeabi_fcmplt
 3228 1600 0346     		mov	r3, r0
 3229 1602 002B     		cmp	r3, #0
 3230 1604 0DD0     		beq	.L219
 789:LCD_Menu.c    ****                         u8g_SetFont(&u8g, u8g_font_fub20);   
 3231              		.loc 1 789 0
 3232 1606 3448     		ldr	r0, .L236+4
 3233 1608 3B49     		ldr	r1, .L236+36
 3234 160a FFF7FEFF 		bl	u8g_SetFont
 790:LCD_Menu.c    ****                         u8g_DrawStr(&u8g,  28+LocalMove, 26, cPower_Actual);
 3235              		.loc 1 790 0
 3236 160e 3B7B     		ldrb	r3, [r7, #12]	@ zero_extendqisi2
 3237 1610 1C33     		adds	r3, r3, #28
 3238 1612 DBB2     		uxtb	r3, r3
 3239 1614 3048     		ldr	r0, .L236+4
 3240 1616 1946     		mov	r1, r3
 3241 1618 1A22     		movs	r2, #26
ARM GAS  C:\Users\KJA\AppData\Local\Temp\ccbnGHAr.s 			page 73


 3242 161a 404B     		ldr	r3, .L236+72
 3243 161c FFF7FEFF 		bl	u8g_DrawStr
 3244 1620 23E0     		b	.L163
 3245              	.L219:
 791:LCD_Menu.c    ****                     }
 792:LCD_Menu.c    ****                     else if (fPower < 100.00){
 3246              		.loc 1 792 0
 3247 1622 3D4B     		ldr	r3, .L236+68
 3248 1624 1B68     		ldr	r3, [r3]	@ float
 3249 1626 1846     		mov	r0, r3
 3250 1628 3549     		ldr	r1, .L236+44
 3251 162a FFF7FEFF 		bl	__aeabi_fcmplt
 3252 162e 0346     		mov	r3, r0
 3253 1630 002B     		cmp	r3, #0
 3254 1632 0DD0     		beq	.L220
 793:LCD_Menu.c    ****                         u8g_SetFont(&u8g, u8g_font_fub20);   
 3255              		.loc 1 793 0
 3256 1634 2848     		ldr	r0, .L236+4
 3257 1636 3049     		ldr	r1, .L236+36
 3258 1638 FFF7FEFF 		bl	u8g_SetFont
 794:LCD_Menu.c    ****                         u8g_DrawStr(&u8g,  9+LocalMove, 26, cPower_Actual); 
 3259              		.loc 1 794 0
 3260 163c 3B7B     		ldrb	r3, [r7, #12]	@ zero_extendqisi2
 3261 163e 0933     		adds	r3, r3, #9
 3262 1640 DBB2     		uxtb	r3, r3
 3263 1642 2548     		ldr	r0, .L236+4
 3264 1644 1946     		mov	r1, r3
 3265 1646 1A22     		movs	r2, #26
 3266 1648 344B     		ldr	r3, .L236+72
 3267 164a FFF7FEFF 		bl	u8g_DrawStr
 3268 164e 0CE0     		b	.L163
 3269              	.L220:
 795:LCD_Menu.c    ****                     }
 796:LCD_Menu.c    ****                     else{
 797:LCD_Menu.c    ****                         u8g_SetFont(&u8g, u8g_font_fub20);   
 3270              		.loc 1 797 0
 3271 1650 2148     		ldr	r0, .L236+4
 3272 1652 2949     		ldr	r1, .L236+36
 3273 1654 FFF7FEFF 		bl	u8g_SetFont
 798:LCD_Menu.c    ****                         u8g_DrawStr(&u8g,  -6+LocalMove, 26, cPower_Actual); 
 3274              		.loc 1 798 0
 3275 1658 3B7B     		ldrb	r3, [r7, #12]	@ zero_extendqisi2
 3276 165a 063B     		subs	r3, r3, #6
 3277 165c DBB2     		uxtb	r3, r3
 3278 165e 1E48     		ldr	r0, .L236+4
 3279 1660 1946     		mov	r1, r3
 3280 1662 1A22     		movs	r2, #26
 3281 1664 2D4B     		ldr	r3, .L236+72
 3282 1666 FFF7FEFF 		bl	u8g_DrawStr
 3283              	.L163:
 799:LCD_Menu.c    ****                     }
 800:LCD_Menu.c    ****                     
 801:LCD_Menu.c    ****                                    
 802:LCD_Menu.c    ****                     u8g_SetFont(&u8g, u8g_font_unifont);              
 3284              		.loc 1 802 0
 3285 166a 1B48     		ldr	r0, .L236+4
 3286 166c 1B49     		ldr	r1, .L236+8
ARM GAS  C:\Users\KJA\AppData\Local\Temp\ccbnGHAr.s 			page 74


 3287 166e FFF7FEFF 		bl	u8g_SetFont
 803:LCD_Menu.c    ****                     u8g_DrawStr(&u8g,  4, 43, cVoltage_Actual);
 3288              		.loc 1 803 0
 3289 1672 1948     		ldr	r0, .L236+4
 3290 1674 0421     		movs	r1, #4
 3291 1676 2B22     		movs	r2, #43
 3292 1678 294B     		ldr	r3, .L236+76
 3293 167a FFF7FEFF 		bl	u8g_DrawStr
 804:LCD_Menu.c    ****                     
 805:LCD_Menu.c    ****                     if(View_Mode == 0){                        
 3294              		.loc 1 805 0
 3295 167e 224B     		ldr	r3, .L236+52
 3296 1680 1B78     		ldrb	r3, [r3]	@ zero_extendqisi2
 3297 1682 002B     		cmp	r3, #0
 3298 1684 0AD1     		bne	.L166
 806:LCD_Menu.c    ****                         u8g_SetFont(&u8g, u8g_font_unifont);              
 3299              		.loc 1 806 0
 3300 1686 1448     		ldr	r0, .L236+4
 3301 1688 1449     		ldr	r1, .L236+8
 3302 168a FFF7FEFF 		bl	u8g_SetFont
 807:LCD_Menu.c    ****                         u8g_DrawStr(&u8g,  64, 43, cCurrent_Actual);
 3303              		.loc 1 807 0
 3304 168e 1248     		ldr	r0, .L236+4
 3305 1690 4021     		movs	r1, #64
 3306 1692 2B22     		movs	r2, #43
 3307 1694 234B     		ldr	r3, .L236+80
 3308 1696 FFF7FEFF 		bl	u8g_DrawStr
 3309 169a 09E0     		b	.L167
 3310              	.L166:
 808:LCD_Menu.c    ****                     }
 809:LCD_Menu.c    ****                     else{
 810:LCD_Menu.c    ****                         u8g_SetFont(&u8g, u8g_font_unifont);              
 3311              		.loc 1 810 0
 3312 169c 0E48     		ldr	r0, .L236+4
 3313 169e 0F49     		ldr	r1, .L236+8
 3314 16a0 FFF7FEFF 		bl	u8g_SetFont
 811:LCD_Menu.c    ****                         u8g_DrawStr(&u8g,  64, 43, cResist_Actual);
 3315              		.loc 1 811 0
 3316 16a4 0C48     		ldr	r0, .L236+4
 3317 16a6 4021     		movs	r1, #64
 3318 16a8 2B22     		movs	r2, #43
 3319 16aa 1F4B     		ldr	r3, .L236+84
 3320 16ac FFF7FEFF 		bl	u8g_DrawStr
 3321              	.L167:
 812:LCD_Menu.c    ****                     }
 813:LCD_Menu.c    ****                     
 814:LCD_Menu.c    ****                     if(Edit_Value_Mode == 1){                        
 3322              		.loc 1 814 0
 3323 16b0 184B     		ldr	r3, .L236+64
 3324 16b2 1B78     		ldrb	r3, [r3]	@ zero_extendqisi2
 3325 16b4 012B     		cmp	r3, #1
 3326 16b6 63D1     		bne	.L160
 3327              	.LBB10:
 815:LCD_Menu.c    ****                         uint8 Underline;
 816:LCD_Menu.c    ****                         if(Current_Menu_Position == 0) Underline = 10+LocalMove;
 3328              		.loc 1 816 0
 3329 16b8 BB79     		ldrb	r3, [r7, #6]	@ zero_extendqisi2
ARM GAS  C:\Users\KJA\AppData\Local\Temp\ccbnGHAr.s 			page 75


 3330 16ba 002B     		cmp	r3, #0
 3331 16bc 03D1     		bne	.L168
 3332              		.loc 1 816 0 is_stmt 0 discriminator 1
 3333 16be 3B7B     		ldrb	r3, [r7, #12]	@ zero_extendqisi2
 3334 16c0 0A33     		adds	r3, r3, #10
 3335 16c2 7B74     		strb	r3, [r7, #17]
 3336 16c4 44E0     		b	.L169
 3337              	.L168:
 817:LCD_Menu.c    ****                         else if(Current_Menu_Position == 1) Underline = 26+LocalMove;
 3338              		.loc 1 817 0 is_stmt 1
 3339 16c6 BB79     		ldrb	r3, [r7, #6]	@ zero_extendqisi2
 3340 16c8 012B     		cmp	r3, #1
 3341 16ca 2FD1     		bne	.L170
 3342              		.loc 1 817 0 is_stmt 0 discriminator 1
 3343 16cc 3B7B     		ldrb	r3, [r7, #12]	@ zero_extendqisi2
 3344 16ce 1A33     		adds	r3, r3, #26
 3345 16d0 7B74     		strb	r3, [r7, #17]
 3346 16d2 3DE0     		b	.L169
 3347              	.L237:
 3348              		.align	2
 3349              	.L236:
 3350 16d4 00000000 		.word	Four_Wire_Method
 3351 16d8 00000000 		.word	u8g
 3352 16dc 00000000 		.word	u8g_font_unifont
 3353 16e0 B0010000 		.word	.LC35
 3354 16e4 00000000 		.word	u8g_font_unifont_77
 3355 16e8 B4010000 		.word	.LC36
 3356 16ec 00000000 		.word	OutputEnable
 3357 16f0 00000000 		.word	Set_Power
 3358 16f4 00002041 		.word	1092616192
 3359 16f8 00000000 		.word	u8g_font_fub20
 3360 16fc 00000000 		.word	cPower_Set
 3361 1700 0000C842 		.word	1120403456
 3362 1704 00000000 		.word	cVoltage_Set
 3363 1708 00000000 		.word	View_Mode
 3364 170c 00000000 		.word	cCurrent_Set
 3365 1710 00000000 		.word	cResist_Set
 3366 1714 00000000 		.word	Edit_Value_Mode
 3367 1718 00000000 		.word	fPower
 3368 171c 00000000 		.word	cPower_Actual
 3369 1720 00000000 		.word	cVoltage_Actual
 3370 1724 00000000 		.word	cCurrent_Actual
 3371 1728 00000000 		.word	cResist_Actual
 3372              	.L170:
 818:LCD_Menu.c    ****                         else if(Current_Menu_Position == 2) Underline = 50*LocalMove;
 3373              		.loc 1 818 0 is_stmt 1
 3374 172c BB79     		ldrb	r3, [r7, #6]	@ zero_extendqisi2
 3375 172e 022B     		cmp	r3, #2
 3376 1730 0BD1     		bne	.L171
 3377              		.loc 1 818 0 is_stmt 0 discriminator 1
 3378 1732 3B7B     		ldrb	r3, [r7, #12]	@ zero_extendqisi2
 3379 1734 1A46     		mov	r2, r3
 3380 1736 9200     		lsls	r2, r2, #2
 3381 1738 1344     		add	r3, r3, r2
 3382 173a 1A46     		mov	r2, r3
 3383 173c 9100     		lsls	r1, r2, #2
 3384 173e 1A46     		mov	r2, r3
ARM GAS  C:\Users\KJA\AppData\Local\Temp\ccbnGHAr.s 			page 76


 3385 1740 0B46     		mov	r3, r1
 3386 1742 1344     		add	r3, r3, r2
 3387 1744 5B00     		lsls	r3, r3, #1
 3388 1746 7B74     		strb	r3, [r7, #17]
 3389 1748 02E0     		b	.L169
 3390              	.L171:
 819:LCD_Menu.c    ****                         else Underline = 50+LocalMove;
 3391              		.loc 1 819 0 is_stmt 1
 3392 174a 3B7B     		ldrb	r3, [r7, #12]	@ zero_extendqisi2
 3393 174c 3233     		adds	r3, r3, #50
 3394 174e 7B74     		strb	r3, [r7, #17]
 3395              	.L169:
 820:LCD_Menu.c    ****                         u8g_DrawLine(&u8g,Underline,27,Underline+12,27);
 3396              		.loc 1 820 0
 3397 1750 7B7C     		ldrb	r3, [r7, #17]
 3398 1752 0C33     		adds	r3, r3, #12
 3399 1754 DCB2     		uxtb	r4, r3
 3400 1756 7A7C     		ldrb	r2, [r7, #17]	@ zero_extendqisi2
 3401 1758 1B23     		movs	r3, #27
 3402 175a 0093     		str	r3, [sp]
 3403 175c B448     		ldr	r0, .L238
 3404 175e 1146     		mov	r1, r2
 3405 1760 1B22     		movs	r2, #27
 3406 1762 2346     		mov	r3, r4
 3407 1764 FFF7FEFF 		bl	u8g_DrawLine
 821:LCD_Menu.c    ****                         u8g_DrawLine(&u8g,Underline,28,Underline+12,28);
 3408              		.loc 1 821 0
 3409 1768 7B7C     		ldrb	r3, [r7, #17]
 3410 176a 0C33     		adds	r3, r3, #12
 3411 176c DCB2     		uxtb	r4, r3
 3412 176e 7A7C     		ldrb	r2, [r7, #17]	@ zero_extendqisi2
 3413 1770 1C23     		movs	r3, #28
 3414 1772 0093     		str	r3, [sp]
 3415 1774 AE48     		ldr	r0, .L238
 3416 1776 1146     		mov	r1, r2
 3417 1778 1C22     		movs	r2, #28
 3418 177a 2346     		mov	r3, r4
 3419 177c FFF7FEFF 		bl	u8g_DrawLine
 3420              	.L160:
 3421              	.LBE10:
 822:LCD_Menu.c    ****                     }
 823:LCD_Menu.c    ****                 }
 824:LCD_Menu.c    **** 
 825:LCD_Menu.c    ****                 
 826:LCD_Menu.c    ****                 
 827:LCD_Menu.c    ****                 
 828:LCD_Menu.c    ****                 u8g_DrawBox(&u8g, 0,51,128,16);
 3422              		.loc 1 828 0
 3423 1780 1023     		movs	r3, #16
 3424 1782 0093     		str	r3, [sp]
 3425 1784 AA48     		ldr	r0, .L238
 3426 1786 0021     		movs	r1, #0
 3427 1788 3322     		movs	r2, #51
 3428 178a 8023     		movs	r3, #128
 3429 178c FFF7FEFF 		bl	u8g_DrawBox
 829:LCD_Menu.c    ****                 u8g_SetDefaultBackgroundColor(&u8g);
 3430              		.loc 1 829 0
ARM GAS  C:\Users\KJA\AppData\Local\Temp\ccbnGHAr.s 			page 77


 3431 1790 A748     		ldr	r0, .L238
 3432 1792 FFF7FEFF 		bl	u8g_SetDefaultBackgroundColor
 830:LCD_Menu.c    ****                 u8g_SetFont(&u8g, u8g_font_unifont);              
 3433              		.loc 1 830 0
 3434 1796 A648     		ldr	r0, .L238
 3435 1798 A649     		ldr	r1, .L238+4
 3436 179a FFF7FEFF 		bl	u8g_SetFont
 831:LCD_Menu.c    ****                 u8g_DrawLine(&u8g,32,52,32,62); 
 3437              		.loc 1 831 0
 3438 179e 3E23     		movs	r3, #62
 3439 17a0 0093     		str	r3, [sp]
 3440 17a2 A348     		ldr	r0, .L238
 3441 17a4 2021     		movs	r1, #32
 3442 17a6 3422     		movs	r2, #52
 3443 17a8 2023     		movs	r3, #32
 3444 17aa FFF7FEFF 		bl	u8g_DrawLine
 832:LCD_Menu.c    ****                 u8g_DrawLine(&u8g,64,52,64,62);   
 3445              		.loc 1 832 0
 3446 17ae 3E23     		movs	r3, #62
 3447 17b0 0093     		str	r3, [sp]
 3448 17b2 9F48     		ldr	r0, .L238
 3449 17b4 4021     		movs	r1, #64
 3450 17b6 3422     		movs	r2, #52
 3451 17b8 4023     		movs	r3, #64
 3452 17ba FFF7FEFF 		bl	u8g_DrawLine
 833:LCD_Menu.c    ****                 u8g_DrawLine(&u8g,96,52,96,62);
 3453              		.loc 1 833 0
 3454 17be 3E23     		movs	r3, #62
 3455 17c0 0093     		str	r3, [sp]
 3456 17c2 9B48     		ldr	r0, .L238
 3457 17c4 6021     		movs	r1, #96
 3458 17c6 3422     		movs	r2, #52
 3459 17c8 6023     		movs	r3, #96
 3460 17ca FFF7FEFF 		bl	u8g_DrawLine
 834:LCD_Menu.c    ****                 
 835:LCD_Menu.c    ****                 if(OutputEnable == 0){
 3461              		.loc 1 835 0
 3462 17ce 9A4B     		ldr	r3, .L238+8
 3463 17d0 1B78     		ldrb	r3, [r3]	@ zero_extendqisi2
 3464 17d2 002B     		cmp	r3, #0
 3465 17d4 0BD1     		bne	.L172
 836:LCD_Menu.c    ****                     u8g_DrawTriangle(&u8g, 11+3,51, 17+3,57, 11+3,63);
 3466              		.loc 1 836 0
 3467 17d6 3923     		movs	r3, #57
 3468 17d8 0093     		str	r3, [sp]
 3469 17da 0E23     		movs	r3, #14
 3470 17dc 0193     		str	r3, [sp, #4]
 3471 17de 3F23     		movs	r3, #63
 3472 17e0 0293     		str	r3, [sp, #8]
 3473 17e2 9348     		ldr	r0, .L238
 3474 17e4 0E21     		movs	r1, #14
 3475 17e6 3322     		movs	r2, #51
 3476 17e8 1423     		movs	r3, #20
 3477 17ea FFF7FEFF 		bl	u8g_DrawTriangle
 3478              	.L172:
 837:LCD_Menu.c    ****                 }
 838:LCD_Menu.c    ****                 if(OutputEnable == 1){
ARM GAS  C:\Users\KJA\AppData\Local\Temp\ccbnGHAr.s 			page 78


 3479              		.loc 1 838 0
 3480 17ee 924B     		ldr	r3, .L238+8
 3481 17f0 1B78     		ldrb	r3, [r3]	@ zero_extendqisi2
 3482 17f2 012B     		cmp	r3, #1
 3483 17f4 1FD1     		bne	.L173
 839:LCD_Menu.c    ****                     u8g_DrawLine(&u8g,14,53,14,61);
 3484              		.loc 1 839 0
 3485 17f6 3D23     		movs	r3, #61
 3486 17f8 0093     		str	r3, [sp]
 3487 17fa 8D48     		ldr	r0, .L238
 3488 17fc 0E21     		movs	r1, #14
 3489 17fe 3522     		movs	r2, #53
 3490 1800 0E23     		movs	r3, #14
 3491 1802 FFF7FEFF 		bl	u8g_DrawLine
 840:LCD_Menu.c    ****                     u8g_DrawLine(&u8g,15,53,15,61); 
 3492              		.loc 1 840 0
 3493 1806 3D23     		movs	r3, #61
 3494 1808 0093     		str	r3, [sp]
 3495 180a 8948     		ldr	r0, .L238
 3496 180c 0F21     		movs	r1, #15
 3497 180e 3522     		movs	r2, #53
 3498 1810 0F23     		movs	r3, #15
 3499 1812 FFF7FEFF 		bl	u8g_DrawLine
 841:LCD_Menu.c    ****                     
 842:LCD_Menu.c    ****                     u8g_DrawLine(&u8g,17,53,17,61); 
 3500              		.loc 1 842 0
 3501 1816 3D23     		movs	r3, #61
 3502 1818 0093     		str	r3, [sp]
 3503 181a 8548     		ldr	r0, .L238
 3504 181c 1121     		movs	r1, #17
 3505 181e 3522     		movs	r2, #53
 3506 1820 1123     		movs	r3, #17
 3507 1822 FFF7FEFF 		bl	u8g_DrawLine
 843:LCD_Menu.c    ****                     u8g_DrawLine(&u8g,18,53,18,61);   
 3508              		.loc 1 843 0
 3509 1826 3D23     		movs	r3, #61
 3510 1828 0093     		str	r3, [sp]
 3511 182a 8148     		ldr	r0, .L238
 3512 182c 1221     		movs	r1, #18
 3513 182e 3522     		movs	r2, #53
 3514 1830 1223     		movs	r3, #18
 3515 1832 FFF7FEFF 		bl	u8g_DrawLine
 3516              	.L173:
 844:LCD_Menu.c    ****                 }
 845:LCD_Menu.c    ****                 
 846:LCD_Menu.c    ****                 if(Four_Wire_Method == 0){  
 3517              		.loc 1 846 0
 3518 1836 814B     		ldr	r3, .L238+12
 3519 1838 1B78     		ldrb	r3, [r3]	@ zero_extendqisi2
 3520 183a 002B     		cmp	r3, #0
 3521 183c 0AD1     		bne	.L174
 847:LCD_Menu.c    ****                 u8g_SetFont(&u8g, u8g_font_unifont);      
 3522              		.loc 1 847 0
 3523 183e 7C48     		ldr	r0, .L238
 3524 1840 7C49     		ldr	r1, .L238+4
 3525 1842 FFF7FEFF 		bl	u8g_SetFont
 848:LCD_Menu.c    **** 
ARM GAS  C:\Users\KJA\AppData\Local\Temp\ccbnGHAr.s 			page 79


 849:LCD_Menu.c    ****                 u8g_DrawStr(&u8g,  41, 62, "2W");
 3526              		.loc 1 849 0
 3527 1846 7A48     		ldr	r0, .L238
 3528 1848 2921     		movs	r1, #41
 3529 184a 3E22     		movs	r2, #62
 3530 184c 7C4B     		ldr	r3, .L238+16
 3531 184e FFF7FEFF 		bl	u8g_DrawStr
 3532 1852 0DE0     		b	.L175
 3533              	.L174:
 850:LCD_Menu.c    ****                 }
 851:LCD_Menu.c    ****                 else if(Four_Wire_Method == 1){  
 3534              		.loc 1 851 0
 3535 1854 794B     		ldr	r3, .L238+12
 3536 1856 1B78     		ldrb	r3, [r3]	@ zero_extendqisi2
 3537 1858 012B     		cmp	r3, #1
 3538 185a 09D1     		bne	.L175
 852:LCD_Menu.c    ****                 u8g_SetFont(&u8g, u8g_font_unifont);              
 3539              		.loc 1 852 0
 3540 185c 7448     		ldr	r0, .L238
 3541 185e 7549     		ldr	r1, .L238+4
 3542 1860 FFF7FEFF 		bl	u8g_SetFont
 853:LCD_Menu.c    ****                 u8g_DrawStr(&u8g,  41, 62, "4W");
 3543              		.loc 1 853 0
 3544 1864 7248     		ldr	r0, .L238
 3545 1866 2921     		movs	r1, #41
 3546 1868 3E22     		movs	r2, #62
 3547 186a 764B     		ldr	r3, .L238+20
 3548 186c FFF7FEFF 		bl	u8g_DrawStr
 3549              	.L175:
 854:LCD_Menu.c    ****                 }
 855:LCD_Menu.c    ****                 
 856:LCD_Menu.c    ****                 u8g_DrawLine(&u8g,117,54,117,60-1);
 3550              		.loc 1 856 0
 3551 1870 3B23     		movs	r3, #59
 3552 1872 0093     		str	r3, [sp]
 3553 1874 6E48     		ldr	r0, .L238
 3554 1876 7521     		movs	r1, #117
 3555 1878 3622     		movs	r2, #54
 3556 187a 7523     		movs	r3, #117
 3557 187c FFF7FEFF 		bl	u8g_DrawLine
 857:LCD_Menu.c    ****                 u8g_DrawLine(&u8g,109,60-1,117,60-1);
 3558              		.loc 1 857 0
 3559 1880 3B23     		movs	r3, #59
 3560 1882 0093     		str	r3, [sp]
 3561 1884 6A48     		ldr	r0, .L238
 3562 1886 6D21     		movs	r1, #109
 3563 1888 3B22     		movs	r2, #59
 3564 188a 7523     		movs	r3, #117
 3565 188c FFF7FEFF 		bl	u8g_DrawLine
 858:LCD_Menu.c    ****                 u8g_DrawTriangle(&u8g, 112,57-1, 107,60-1, 112,63-1);
 3566              		.loc 1 858 0
 3567 1890 3B23     		movs	r3, #59
 3568 1892 0093     		str	r3, [sp]
 3569 1894 7023     		movs	r3, #112
 3570 1896 0193     		str	r3, [sp, #4]
 3571 1898 3E23     		movs	r3, #62
 3572 189a 0293     		str	r3, [sp, #8]
ARM GAS  C:\Users\KJA\AppData\Local\Temp\ccbnGHAr.s 			page 80


 3573 189c 6448     		ldr	r0, .L238
 3574 189e 7021     		movs	r1, #112
 3575 18a0 3822     		movs	r2, #56
 3576 18a2 6B23     		movs	r3, #107
 3577 18a4 FFF7FEFF 		bl	u8g_DrawTriangle
 859:LCD_Menu.c    ****                 
 860:LCD_Menu.c    ****                 u8g_SetFont(&u8g, u8g_font_unifont_77);              
 3578              		.loc 1 860 0
 3579 18a8 6148     		ldr	r0, .L238
 3580 18aa 6749     		ldr	r1, .L238+24
 3581 18ac FFF7FEFF 		bl	u8g_SetFont
 861:LCD_Menu.c    ****                 u8g_DrawStr(&u8g,  73, 62, "`");
 3582              		.loc 1 861 0
 3583 18b0 5F48     		ldr	r0, .L238
 3584 18b2 4921     		movs	r1, #73
 3585 18b4 3E22     		movs	r2, #62
 3586 18b6 654B     		ldr	r3, .L238+28
 3587 18b8 FFF7FEFF 		bl	u8g_DrawStr
 3588              	.LBE8:
 862:LCD_Menu.c    ****                 
 863:LCD_Menu.c    ****             } while ( u8g_NextPage(&u8g) );
 3589              		.loc 1 863 0
 3590 18bc 5C48     		ldr	r0, .L238
 3591 18be FFF7FEFF 		bl	u8g_NextPage
 3592 18c2 0346     		mov	r3, r0
 3593 18c4 002B     		cmp	r3, #0
 3594 18c6 7FF4F2AD 		bne	.L176
 864:LCD_Menu.c    ****         break;      
 3595              		.loc 1 864 0
 3596 18ca 98E1     		b	.L1
 3597              	.L8:
 865:LCD_Menu.c    ****             
 866:LCD_Menu.c    ****                        
 867:LCD_Menu.c    ****             
 868:LCD_Menu.c    ****         case ConstantCurrent: 
 869:LCD_Menu.c    ****             u8g_FirstPage(&u8g);
 3598              		.loc 1 869 0
 3599 18cc 5848     		ldr	r0, .L238
 3600 18ce FFF7FEFF 		bl	u8g_FirstPage
 3601              	.L196:
 870:LCD_Menu.c    ****             do{    
 871:LCD_Menu.c    ****                 
 872:LCD_Menu.c    ****                 u8g_SetDefaultForegroundColor(&u8g);    
 3602              		.loc 1 872 0
 3603 18d2 5748     		ldr	r0, .L238
 3604 18d4 FFF7FEFF 		bl	u8g_SetDefaultForegroundColor
 873:LCD_Menu.c    ****                                
 874:LCD_Menu.c    ****                 if(OutputEnable == 0){
 3605              		.loc 1 874 0
 3606 18d8 574B     		ldr	r3, .L238+8
 3607 18da 1B78     		ldrb	r3, [r3]	@ zero_extendqisi2
 3608 18dc 002B     		cmp	r3, #0
 3609 18de 5ED1     		bne	.L177
 875:LCD_Menu.c    ****                     u8g_SetFont(&u8g, u8g_font_fub20);   
 3610              		.loc 1 875 0
 3611 18e0 5348     		ldr	r0, .L238
 3612 18e2 5B49     		ldr	r1, .L238+32
ARM GAS  C:\Users\KJA\AppData\Local\Temp\ccbnGHAr.s 			page 81


 3613 18e4 FFF7FEFF 		bl	u8g_SetFont
 876:LCD_Menu.c    ****                     u8g_DrawStr(&u8g,  24, 26, cCurrent_Set);
 3614              		.loc 1 876 0
 3615 18e8 5148     		ldr	r0, .L238
 3616 18ea 1821     		movs	r1, #24
 3617 18ec 1A22     		movs	r2, #26
 3618 18ee 594B     		ldr	r3, .L238+36
 3619 18f0 FFF7FEFF 		bl	u8g_DrawStr
 877:LCD_Menu.c    ****                                    
 878:LCD_Menu.c    ****                     u8g_SetFont(&u8g, u8g_font_unifont);              
 3620              		.loc 1 878 0
 3621 18f4 4E48     		ldr	r0, .L238
 3622 18f6 4F49     		ldr	r1, .L238+4
 3623 18f8 FFF7FEFF 		bl	u8g_SetFont
 879:LCD_Menu.c    ****                     u8g_DrawStr(&u8g,  4, 43, cVoltage_Set);
 3624              		.loc 1 879 0
 3625 18fc 4C48     		ldr	r0, .L238
 3626 18fe 0421     		movs	r1, #4
 3627 1900 2B22     		movs	r2, #43
 3628 1902 554B     		ldr	r3, .L238+40
 3629 1904 FFF7FEFF 		bl	u8g_DrawStr
 880:LCD_Menu.c    ****                     
 881:LCD_Menu.c    ****                     if(View_Mode == 0){                        
 3630              		.loc 1 881 0
 3631 1908 544B     		ldr	r3, .L238+44
 3632 190a 1B78     		ldrb	r3, [r3]	@ zero_extendqisi2
 3633 190c 002B     		cmp	r3, #0
 3634 190e 0AD1     		bne	.L178
 882:LCD_Menu.c    ****                         u8g_SetFont(&u8g, u8g_font_unifont);              
 3635              		.loc 1 882 0
 3636 1910 4748     		ldr	r0, .L238
 3637 1912 4849     		ldr	r1, .L238+4
 3638 1914 FFF7FEFF 		bl	u8g_SetFont
 883:LCD_Menu.c    ****                         u8g_DrawStr(&u8g,  64, 43, cPower_Set); 
 3639              		.loc 1 883 0
 3640 1918 4548     		ldr	r0, .L238
 3641 191a 4021     		movs	r1, #64
 3642 191c 2B22     		movs	r2, #43
 3643 191e 504B     		ldr	r3, .L238+48
 3644 1920 FFF7FEFF 		bl	u8g_DrawStr
 3645 1924 09E0     		b	.L179
 3646              	.L178:
 884:LCD_Menu.c    ****                     }
 885:LCD_Menu.c    ****                     else{
 886:LCD_Menu.c    ****                         u8g_SetFont(&u8g, u8g_font_unifont);              
 3647              		.loc 1 886 0
 3648 1926 4248     		ldr	r0, .L238
 3649 1928 4249     		ldr	r1, .L238+4
 3650 192a FFF7FEFF 		bl	u8g_SetFont
 887:LCD_Menu.c    ****                         u8g_DrawStr(&u8g,  64, 43, cResist_Set); 
 3651              		.loc 1 887 0
 3652 192e 4048     		ldr	r0, .L238
 3653 1930 4021     		movs	r1, #64
 3654 1932 2B22     		movs	r2, #43
 3655 1934 4B4B     		ldr	r3, .L238+52
 3656 1936 FFF7FEFF 		bl	u8g_DrawStr
 3657              	.L179:
ARM GAS  C:\Users\KJA\AppData\Local\Temp\ccbnGHAr.s 			page 82


 888:LCD_Menu.c    ****                     }
 889:LCD_Menu.c    ****                     
 890:LCD_Menu.c    ****                     if(Edit_Value_Mode == 1){                        
 3658              		.loc 1 890 0
 3659 193a 4B4B     		ldr	r3, .L238+56
 3660 193c 1B78     		ldrb	r3, [r3]	@ zero_extendqisi2
 3661 193e 012B     		cmp	r3, #1
 3662 1940 40F0B680 		bne	.L185
 3663              	.LBB11:
 891:LCD_Menu.c    ****                         uint8 Underline;
 892:LCD_Menu.c    ****                         if(Current_Menu_Position == 0) Underline = 26;
 3664              		.loc 1 892 0
 3665 1944 BB79     		ldrb	r3, [r7, #6]	@ zero_extendqisi2
 3666 1946 002B     		cmp	r3, #0
 3667 1948 02D1     		bne	.L181
 3668              		.loc 1 892 0 is_stmt 0 discriminator 1
 3669 194a 1A23     		movs	r3, #26
 3670 194c 3B74     		strb	r3, [r7, #16]
 3671 194e 0DE0     		b	.L182
 3672              	.L181:
 893:LCD_Menu.c    ****                         else if(Current_Menu_Position == 1) Underline = 50;
 3673              		.loc 1 893 0 is_stmt 1
 3674 1950 BB79     		ldrb	r3, [r7, #6]	@ zero_extendqisi2
 3675 1952 012B     		cmp	r3, #1
 3676 1954 02D1     		bne	.L183
 3677              		.loc 1 893 0 is_stmt 0 discriminator 1
 3678 1956 3223     		movs	r3, #50
 3679 1958 3B74     		strb	r3, [r7, #16]
 3680 195a 07E0     		b	.L182
 3681              	.L183:
 894:LCD_Menu.c    ****                         else if(Current_Menu_Position == 2) Underline = 64;
 3682              		.loc 1 894 0 is_stmt 1
 3683 195c BB79     		ldrb	r3, [r7, #6]	@ zero_extendqisi2
 3684 195e 022B     		cmp	r3, #2
 3685 1960 02D1     		bne	.L184
 3686              		.loc 1 894 0 is_stmt 0 discriminator 1
 3687 1962 4023     		movs	r3, #64
 3688 1964 3B74     		strb	r3, [r7, #16]
 3689 1966 01E0     		b	.L182
 3690              	.L184:
 895:LCD_Menu.c    ****                         else Underline = 50;
 3691              		.loc 1 895 0 is_stmt 1
 3692 1968 3223     		movs	r3, #50
 3693 196a 3B74     		strb	r3, [r7, #16]
 3694              	.L182:
 896:LCD_Menu.c    ****                         u8g_DrawLine(&u8g,Underline,27,Underline+12,27);
 3695              		.loc 1 896 0
 3696 196c 3B7C     		ldrb	r3, [r7, #16]
 3697 196e 0C33     		adds	r3, r3, #12
 3698 1970 DCB2     		uxtb	r4, r3
 3699 1972 3A7C     		ldrb	r2, [r7, #16]	@ zero_extendqisi2
 3700 1974 1B23     		movs	r3, #27
 3701 1976 0093     		str	r3, [sp]
 3702 1978 2D48     		ldr	r0, .L238
 3703 197a 1146     		mov	r1, r2
 3704 197c 1B22     		movs	r2, #27
 3705 197e 2346     		mov	r3, r4
ARM GAS  C:\Users\KJA\AppData\Local\Temp\ccbnGHAr.s 			page 83


 3706 1980 FFF7FEFF 		bl	u8g_DrawLine
 897:LCD_Menu.c    ****                         u8g_DrawLine(&u8g,Underline,28,Underline+12,28);
 3707              		.loc 1 897 0
 3708 1984 3B7C     		ldrb	r3, [r7, #16]
 3709 1986 0C33     		adds	r3, r3, #12
 3710 1988 DCB2     		uxtb	r4, r3
 3711 198a 3A7C     		ldrb	r2, [r7, #16]	@ zero_extendqisi2
 3712 198c 1C23     		movs	r3, #28
 3713 198e 0093     		str	r3, [sp]
 3714 1990 2748     		ldr	r0, .L238
 3715 1992 1146     		mov	r1, r2
 3716 1994 1C22     		movs	r2, #28
 3717 1996 2346     		mov	r3, r4
 3718 1998 FFF7FEFF 		bl	u8g_DrawLine
 3719 199c 88E0     		b	.L185
 3720              	.L177:
 3721              	.LBE11:
 898:LCD_Menu.c    ****                     }
 899:LCD_Menu.c    ****                 }
 900:LCD_Menu.c    ****                 
 901:LCD_Menu.c    ****                 else if(OutputEnable == 1){
 3722              		.loc 1 901 0
 3723 199e 264B     		ldr	r3, .L238+8
 3724 19a0 1B78     		ldrb	r3, [r3]	@ zero_extendqisi2
 3725 19a2 012B     		cmp	r3, #1
 3726 19a4 40F08480 		bne	.L185
 902:LCD_Menu.c    ****                     u8g_SetFont(&u8g, u8g_font_fub20);   
 3727              		.loc 1 902 0
 3728 19a8 2148     		ldr	r0, .L238
 3729 19aa 2949     		ldr	r1, .L238+32
 3730 19ac FFF7FEFF 		bl	u8g_SetFont
 903:LCD_Menu.c    ****                     u8g_DrawStr(&u8g,  24, 26, cCurrent_Actual);
 3731              		.loc 1 903 0
 3732 19b0 1F48     		ldr	r0, .L238
 3733 19b2 1821     		movs	r1, #24
 3734 19b4 1A22     		movs	r2, #26
 3735 19b6 2D4B     		ldr	r3, .L238+60
 3736 19b8 FFF7FEFF 		bl	u8g_DrawStr
 904:LCD_Menu.c    ****                                    
 905:LCD_Menu.c    ****                     u8g_SetFont(&u8g, u8g_font_unifont);              
 3737              		.loc 1 905 0
 3738 19bc 1C48     		ldr	r0, .L238
 3739 19be 1D49     		ldr	r1, .L238+4
 3740 19c0 FFF7FEFF 		bl	u8g_SetFont
 906:LCD_Menu.c    ****                     u8g_DrawStr(&u8g,  4, 43, cVoltage_Actual);
 3741              		.loc 1 906 0
 3742 19c4 1A48     		ldr	r0, .L238
 3743 19c6 0421     		movs	r1, #4
 3744 19c8 2B22     		movs	r2, #43
 3745 19ca 294B     		ldr	r3, .L238+64
 3746 19cc FFF7FEFF 		bl	u8g_DrawStr
 907:LCD_Menu.c    ****                     
 908:LCD_Menu.c    ****                     if(View_Mode == 0){
 3747              		.loc 1 908 0
 3748 19d0 224B     		ldr	r3, .L238+44
 3749 19d2 1B78     		ldrb	r3, [r3]	@ zero_extendqisi2
 3750 19d4 002B     		cmp	r3, #0
ARM GAS  C:\Users\KJA\AppData\Local\Temp\ccbnGHAr.s 			page 84


 3751 19d6 0AD1     		bne	.L186
 909:LCD_Menu.c    ****                         u8g_SetFont(&u8g, u8g_font_unifont);              
 3752              		.loc 1 909 0
 3753 19d8 1548     		ldr	r0, .L238
 3754 19da 1649     		ldr	r1, .L238+4
 3755 19dc FFF7FEFF 		bl	u8g_SetFont
 910:LCD_Menu.c    ****                         u8g_DrawStr(&u8g,  64, 43, cPower_Actual);
 3756              		.loc 1 910 0
 3757 19e0 1348     		ldr	r0, .L238
 3758 19e2 4021     		movs	r1, #64
 3759 19e4 2B22     		movs	r2, #43
 3760 19e6 234B     		ldr	r3, .L238+68
 3761 19e8 FFF7FEFF 		bl	u8g_DrawStr
 3762 19ec 09E0     		b	.L187
 3763              	.L186:
 911:LCD_Menu.c    ****                     }
 912:LCD_Menu.c    ****                     else{
 913:LCD_Menu.c    ****                         u8g_SetFont(&u8g, u8g_font_unifont);              
 3764              		.loc 1 913 0
 3765 19ee 1048     		ldr	r0, .L238
 3766 19f0 1049     		ldr	r1, .L238+4
 3767 19f2 FFF7FEFF 		bl	u8g_SetFont
 914:LCD_Menu.c    ****                         u8g_DrawStr(&u8g,  64, 43, cResist_Actual);                       
 3768              		.loc 1 914 0
 3769 19f6 0E48     		ldr	r0, .L238
 3770 19f8 4021     		movs	r1, #64
 3771 19fa 2B22     		movs	r2, #43
 3772 19fc 1E4B     		ldr	r3, .L238+72
 3773 19fe FFF7FEFF 		bl	u8g_DrawStr
 3774              	.L187:
 915:LCD_Menu.c    ****                     }
 916:LCD_Menu.c    ****                     
 917:LCD_Menu.c    ****                     if(Edit_Value_Mode == 1){                        
 3775              		.loc 1 917 0
 3776 1a02 194B     		ldr	r3, .L238+56
 3777 1a04 1B78     		ldrb	r3, [r3]	@ zero_extendqisi2
 3778 1a06 012B     		cmp	r3, #1
 3779 1a08 52D1     		bne	.L185
 3780              	.LBB12:
 918:LCD_Menu.c    ****                         uint8 Underline;
 919:LCD_Menu.c    ****                         if(Current_Menu_Position == 0) Underline = 26;
 3781              		.loc 1 919 0
 3782 1a0a BB79     		ldrb	r3, [r7, #6]	@ zero_extendqisi2
 3783 1a0c 002B     		cmp	r3, #0
 3784 1a0e 02D1     		bne	.L188
 3785              		.loc 1 919 0 is_stmt 0 discriminator 1
 3786 1a10 1A23     		movs	r3, #26
 3787 1a12 FB73     		strb	r3, [r7, #15]
 3788 1a14 34E0     		b	.L189
 3789              	.L188:
 920:LCD_Menu.c    ****                         else if(Current_Menu_Position == 1) Underline = 50;
 3790              		.loc 1 920 0 is_stmt 1
 3791 1a16 BB79     		ldrb	r3, [r7, #6]	@ zero_extendqisi2
 3792 1a18 012B     		cmp	r3, #1
 3793 1a1a 02D1     		bne	.L190
 3794              		.loc 1 920 0 is_stmt 0 discriminator 1
 3795 1a1c 3223     		movs	r3, #50
ARM GAS  C:\Users\KJA\AppData\Local\Temp\ccbnGHAr.s 			page 85


 3796 1a1e FB73     		strb	r3, [r7, #15]
 3797 1a20 2EE0     		b	.L189
 3798              	.L190:
 921:LCD_Menu.c    ****                         else if(Current_Menu_Position == 2) Underline = 64;
 3799              		.loc 1 921 0 is_stmt 1
 3800 1a22 BB79     		ldrb	r3, [r7, #6]	@ zero_extendqisi2
 3801 1a24 022B     		cmp	r3, #2
 3802 1a26 29D1     		bne	.L191
 3803              		.loc 1 921 0 is_stmt 0 discriminator 1
 3804 1a28 4023     		movs	r3, #64
 3805 1a2a FB73     		strb	r3, [r7, #15]
 3806 1a2c 28E0     		b	.L189
 3807              	.L239:
 3808 1a2e 00BF     		.align	2
 3809              	.L238:
 3810 1a30 00000000 		.word	u8g
 3811 1a34 00000000 		.word	u8g_font_unifont
 3812 1a38 00000000 		.word	OutputEnable
 3813 1a3c 00000000 		.word	Four_Wire_Method
 3814 1a40 AC010000 		.word	.LC34
 3815 1a44 B0010000 		.word	.LC35
 3816 1a48 00000000 		.word	u8g_font_unifont_77
 3817 1a4c B4010000 		.word	.LC36
 3818 1a50 00000000 		.word	u8g_font_fub20
 3819 1a54 00000000 		.word	cCurrent_Set
 3820 1a58 00000000 		.word	cVoltage_Set
 3821 1a5c 00000000 		.word	View_Mode
 3822 1a60 00000000 		.word	cPower_Set
 3823 1a64 00000000 		.word	cResist_Set
 3824 1a68 00000000 		.word	Edit_Value_Mode
 3825 1a6c 00000000 		.word	cCurrent_Actual
 3826 1a70 00000000 		.word	cVoltage_Actual
 3827 1a74 00000000 		.word	cPower_Actual
 3828 1a78 00000000 		.word	cResist_Actual
 3829              	.L191:
 922:LCD_Menu.c    ****                         else Underline = 50;
 3830              		.loc 1 922 0 is_stmt 1
 3831 1a7c 3223     		movs	r3, #50
 3832 1a7e FB73     		strb	r3, [r7, #15]
 3833              	.L189:
 923:LCD_Menu.c    ****                         u8g_DrawLine(&u8g,Underline,27,Underline+12,27);
 3834              		.loc 1 923 0
 3835 1a80 FB7B     		ldrb	r3, [r7, #15]
 3836 1a82 0C33     		adds	r3, r3, #12
 3837 1a84 DCB2     		uxtb	r4, r3
 3838 1a86 FA7B     		ldrb	r2, [r7, #15]	@ zero_extendqisi2
 3839 1a88 1B23     		movs	r3, #27
 3840 1a8a 0093     		str	r3, [sp]
 3841 1a8c 5D48     		ldr	r0, .L240
 3842 1a8e 1146     		mov	r1, r2
 3843 1a90 1B22     		movs	r2, #27
 3844 1a92 2346     		mov	r3, r4
 3845 1a94 FFF7FEFF 		bl	u8g_DrawLine
 924:LCD_Menu.c    ****                         u8g_DrawLine(&u8g,Underline,28,Underline+12,28);
 3846              		.loc 1 924 0
 3847 1a98 FB7B     		ldrb	r3, [r7, #15]
 3848 1a9a 0C33     		adds	r3, r3, #12
ARM GAS  C:\Users\KJA\AppData\Local\Temp\ccbnGHAr.s 			page 86


 3849 1a9c DCB2     		uxtb	r4, r3
 3850 1a9e FA7B     		ldrb	r2, [r7, #15]	@ zero_extendqisi2
 3851 1aa0 1C23     		movs	r3, #28
 3852 1aa2 0093     		str	r3, [sp]
 3853 1aa4 5748     		ldr	r0, .L240
 3854 1aa6 1146     		mov	r1, r2
 3855 1aa8 1C22     		movs	r2, #28
 3856 1aaa 2346     		mov	r3, r4
 3857 1aac FFF7FEFF 		bl	u8g_DrawLine
 3858              	.L185:
 3859              	.LBE12:
 925:LCD_Menu.c    ****                     }
 926:LCD_Menu.c    ****                 }
 927:LCD_Menu.c    **** 
 928:LCD_Menu.c    ****                 
 929:LCD_Menu.c    ****                 
 930:LCD_Menu.c    ****                 
 931:LCD_Menu.c    ****                 u8g_DrawBox(&u8g, 0,51,128,16);
 3860              		.loc 1 931 0
 3861 1ab0 1023     		movs	r3, #16
 3862 1ab2 0093     		str	r3, [sp]
 3863 1ab4 5348     		ldr	r0, .L240
 3864 1ab6 0021     		movs	r1, #0
 3865 1ab8 3322     		movs	r2, #51
 3866 1aba 8023     		movs	r3, #128
 3867 1abc FFF7FEFF 		bl	u8g_DrawBox
 932:LCD_Menu.c    ****                 u8g_SetDefaultBackgroundColor(&u8g);
 3868              		.loc 1 932 0
 3869 1ac0 5048     		ldr	r0, .L240
 3870 1ac2 FFF7FEFF 		bl	u8g_SetDefaultBackgroundColor
 933:LCD_Menu.c    ****                 u8g_SetFont(&u8g, u8g_font_unifont);              
 3871              		.loc 1 933 0
 3872 1ac6 4F48     		ldr	r0, .L240
 3873 1ac8 4F49     		ldr	r1, .L240+4
 3874 1aca FFF7FEFF 		bl	u8g_SetFont
 934:LCD_Menu.c    ****                 u8g_DrawLine(&u8g,32,52,32,62); 
 3875              		.loc 1 934 0
 3876 1ace 3E23     		movs	r3, #62
 3877 1ad0 0093     		str	r3, [sp]
 3878 1ad2 4C48     		ldr	r0, .L240
 3879 1ad4 2021     		movs	r1, #32
 3880 1ad6 3422     		movs	r2, #52
 3881 1ad8 2023     		movs	r3, #32
 3882 1ada FFF7FEFF 		bl	u8g_DrawLine
 935:LCD_Menu.c    ****                 u8g_DrawLine(&u8g,64,52,64,62);   
 3883              		.loc 1 935 0
 3884 1ade 3E23     		movs	r3, #62
 3885 1ae0 0093     		str	r3, [sp]
 3886 1ae2 4848     		ldr	r0, .L240
 3887 1ae4 4021     		movs	r1, #64
 3888 1ae6 3422     		movs	r2, #52
 3889 1ae8 4023     		movs	r3, #64
 3890 1aea FFF7FEFF 		bl	u8g_DrawLine
 936:LCD_Menu.c    ****                 u8g_DrawLine(&u8g,96,52,96,62);
 3891              		.loc 1 936 0
 3892 1aee 3E23     		movs	r3, #62
 3893 1af0 0093     		str	r3, [sp]
ARM GAS  C:\Users\KJA\AppData\Local\Temp\ccbnGHAr.s 			page 87


 3894 1af2 4448     		ldr	r0, .L240
 3895 1af4 6021     		movs	r1, #96
 3896 1af6 3422     		movs	r2, #52
 3897 1af8 6023     		movs	r3, #96
 3898 1afa FFF7FEFF 		bl	u8g_DrawLine
 937:LCD_Menu.c    ****                 
 938:LCD_Menu.c    ****                 if(OutputEnable == 0){
 3899              		.loc 1 938 0
 3900 1afe 434B     		ldr	r3, .L240+8
 3901 1b00 1B78     		ldrb	r3, [r3]	@ zero_extendqisi2
 3902 1b02 002B     		cmp	r3, #0
 3903 1b04 0BD1     		bne	.L192
 939:LCD_Menu.c    ****                     u8g_DrawTriangle(&u8g, 11+3,51, 17+3,57, 11+3,63);
 3904              		.loc 1 939 0
 3905 1b06 3923     		movs	r3, #57
 3906 1b08 0093     		str	r3, [sp]
 3907 1b0a 0E23     		movs	r3, #14
 3908 1b0c 0193     		str	r3, [sp, #4]
 3909 1b0e 3F23     		movs	r3, #63
 3910 1b10 0293     		str	r3, [sp, #8]
 3911 1b12 3C48     		ldr	r0, .L240
 3912 1b14 0E21     		movs	r1, #14
 3913 1b16 3322     		movs	r2, #51
 3914 1b18 1423     		movs	r3, #20
 3915 1b1a FFF7FEFF 		bl	u8g_DrawTriangle
 3916              	.L192:
 940:LCD_Menu.c    ****                 }
 941:LCD_Menu.c    ****                 if(OutputEnable == 1){
 3917              		.loc 1 941 0
 3918 1b1e 3B4B     		ldr	r3, .L240+8
 3919 1b20 1B78     		ldrb	r3, [r3]	@ zero_extendqisi2
 3920 1b22 012B     		cmp	r3, #1
 3921 1b24 1FD1     		bne	.L193
 942:LCD_Menu.c    ****                     u8g_DrawLine(&u8g,14,53,14,61);
 3922              		.loc 1 942 0
 3923 1b26 3D23     		movs	r3, #61
 3924 1b28 0093     		str	r3, [sp]
 3925 1b2a 3648     		ldr	r0, .L240
 3926 1b2c 0E21     		movs	r1, #14
 3927 1b2e 3522     		movs	r2, #53
 3928 1b30 0E23     		movs	r3, #14
 3929 1b32 FFF7FEFF 		bl	u8g_DrawLine
 943:LCD_Menu.c    ****                     u8g_DrawLine(&u8g,15,53,15,61); 
 3930              		.loc 1 943 0
 3931 1b36 3D23     		movs	r3, #61
 3932 1b38 0093     		str	r3, [sp]
 3933 1b3a 3248     		ldr	r0, .L240
 3934 1b3c 0F21     		movs	r1, #15
 3935 1b3e 3522     		movs	r2, #53
 3936 1b40 0F23     		movs	r3, #15
 3937 1b42 FFF7FEFF 		bl	u8g_DrawLine
 944:LCD_Menu.c    ****                     
 945:LCD_Menu.c    ****                     u8g_DrawLine(&u8g,17,53,17,61); 
 3938              		.loc 1 945 0
 3939 1b46 3D23     		movs	r3, #61
 3940 1b48 0093     		str	r3, [sp]
 3941 1b4a 2E48     		ldr	r0, .L240
ARM GAS  C:\Users\KJA\AppData\Local\Temp\ccbnGHAr.s 			page 88


 3942 1b4c 1121     		movs	r1, #17
 3943 1b4e 3522     		movs	r2, #53
 3944 1b50 1123     		movs	r3, #17
 3945 1b52 FFF7FEFF 		bl	u8g_DrawLine
 946:LCD_Menu.c    ****                     u8g_DrawLine(&u8g,18,53,18,61);   
 3946              		.loc 1 946 0
 3947 1b56 3D23     		movs	r3, #61
 3948 1b58 0093     		str	r3, [sp]
 3949 1b5a 2A48     		ldr	r0, .L240
 3950 1b5c 1221     		movs	r1, #18
 3951 1b5e 3522     		movs	r2, #53
 3952 1b60 1223     		movs	r3, #18
 3953 1b62 FFF7FEFF 		bl	u8g_DrawLine
 3954              	.L193:
 947:LCD_Menu.c    ****                 }
 948:LCD_Menu.c    ****                 
 949:LCD_Menu.c    ****                 if(Four_Wire_Method == 0){  
 3955              		.loc 1 949 0
 3956 1b66 2A4B     		ldr	r3, .L240+12
 3957 1b68 1B78     		ldrb	r3, [r3]	@ zero_extendqisi2
 3958 1b6a 002B     		cmp	r3, #0
 3959 1b6c 0AD1     		bne	.L194
 950:LCD_Menu.c    ****                 u8g_SetFont(&u8g, u8g_font_unifont);      
 3960              		.loc 1 950 0
 3961 1b6e 2548     		ldr	r0, .L240
 3962 1b70 2549     		ldr	r1, .L240+4
 3963 1b72 FFF7FEFF 		bl	u8g_SetFont
 951:LCD_Menu.c    **** 
 952:LCD_Menu.c    ****                 u8g_DrawStr(&u8g,  41, 62, "2W");
 3964              		.loc 1 952 0
 3965 1b76 2348     		ldr	r0, .L240
 3966 1b78 2921     		movs	r1, #41
 3967 1b7a 3E22     		movs	r2, #62
 3968 1b7c 254B     		ldr	r3, .L240+16
 3969 1b7e FFF7FEFF 		bl	u8g_DrawStr
 3970 1b82 0DE0     		b	.L195
 3971              	.L194:
 953:LCD_Menu.c    ****                 }
 954:LCD_Menu.c    ****                 else if(Four_Wire_Method == 1){  
 3972              		.loc 1 954 0
 3973 1b84 224B     		ldr	r3, .L240+12
 3974 1b86 1B78     		ldrb	r3, [r3]	@ zero_extendqisi2
 3975 1b88 012B     		cmp	r3, #1
 3976 1b8a 09D1     		bne	.L195
 955:LCD_Menu.c    ****                 u8g_SetFont(&u8g, u8g_font_unifont);              
 3977              		.loc 1 955 0
 3978 1b8c 1D48     		ldr	r0, .L240
 3979 1b8e 1E49     		ldr	r1, .L240+4
 3980 1b90 FFF7FEFF 		bl	u8g_SetFont
 956:LCD_Menu.c    ****                 u8g_DrawStr(&u8g,  41, 62, "4W");
 3981              		.loc 1 956 0
 3982 1b94 1B48     		ldr	r0, .L240
 3983 1b96 2921     		movs	r1, #41
 3984 1b98 3E22     		movs	r2, #62
 3985 1b9a 1F4B     		ldr	r3, .L240+20
 3986 1b9c FFF7FEFF 		bl	u8g_DrawStr
 3987              	.L195:
ARM GAS  C:\Users\KJA\AppData\Local\Temp\ccbnGHAr.s 			page 89


 957:LCD_Menu.c    ****                 }
 958:LCD_Menu.c    ****                 
 959:LCD_Menu.c    ****                 u8g_DrawLine(&u8g,117,54,117,60-1);
 3988              		.loc 1 959 0
 3989 1ba0 3B23     		movs	r3, #59
 3990 1ba2 0093     		str	r3, [sp]
 3991 1ba4 1748     		ldr	r0, .L240
 3992 1ba6 7521     		movs	r1, #117
 3993 1ba8 3622     		movs	r2, #54
 3994 1baa 7523     		movs	r3, #117
 3995 1bac FFF7FEFF 		bl	u8g_DrawLine
 960:LCD_Menu.c    ****                 u8g_DrawLine(&u8g,109,60-1,117,60-1);
 3996              		.loc 1 960 0
 3997 1bb0 3B23     		movs	r3, #59
 3998 1bb2 0093     		str	r3, [sp]
 3999 1bb4 1348     		ldr	r0, .L240
 4000 1bb6 6D21     		movs	r1, #109
 4001 1bb8 3B22     		movs	r2, #59
 4002 1bba 7523     		movs	r3, #117
 4003 1bbc FFF7FEFF 		bl	u8g_DrawLine
 961:LCD_Menu.c    ****                 u8g_DrawTriangle(&u8g, 112,57-1, 107,60-1, 112,63-1);
 4004              		.loc 1 961 0
 4005 1bc0 3B23     		movs	r3, #59
 4006 1bc2 0093     		str	r3, [sp]
 4007 1bc4 7023     		movs	r3, #112
 4008 1bc6 0193     		str	r3, [sp, #4]
 4009 1bc8 3E23     		movs	r3, #62
 4010 1bca 0293     		str	r3, [sp, #8]
 4011 1bcc 0D48     		ldr	r0, .L240
 4012 1bce 7021     		movs	r1, #112
 4013 1bd0 3822     		movs	r2, #56
 4014 1bd2 6B23     		movs	r3, #107
 4015 1bd4 FFF7FEFF 		bl	u8g_DrawTriangle
 962:LCD_Menu.c    ****                 
 963:LCD_Menu.c    ****                 u8g_SetFont(&u8g, u8g_font_unifont_77);              
 4016              		.loc 1 963 0
 4017 1bd8 0A48     		ldr	r0, .L240
 4018 1bda 1049     		ldr	r1, .L240+24
 4019 1bdc FFF7FEFF 		bl	u8g_SetFont
 964:LCD_Menu.c    ****                 u8g_DrawStr(&u8g,  73, 62, "`");
 4020              		.loc 1 964 0
 4021 1be0 0848     		ldr	r0, .L240
 4022 1be2 4921     		movs	r1, #73
 4023 1be4 3E22     		movs	r2, #62
 4024 1be6 0E4B     		ldr	r3, .L240+28
 4025 1be8 FFF7FEFF 		bl	u8g_DrawStr
 965:LCD_Menu.c    ****                 
 966:LCD_Menu.c    ****             } while ( u8g_NextPage(&u8g) );
 4026              		.loc 1 966 0
 4027 1bec 0548     		ldr	r0, .L240
 4028 1bee FFF7FEFF 		bl	u8g_NextPage
 4029 1bf2 0346     		mov	r3, r0
 4030 1bf4 002B     		cmp	r3, #0
 4031 1bf6 7FF46CAE 		bne	.L196
 967:LCD_Menu.c    ****         
 968:LCD_Menu.c    ****       break;            
 4032              		.loc 1 968 0
ARM GAS  C:\Users\KJA\AppData\Local\Temp\ccbnGHAr.s 			page 90


 4033 1bfa 00E0     		b	.L1
 4034              	.L221:
 969:LCD_Menu.c    **** 
 970:LCD_Menu.c    ****             
 971:LCD_Menu.c    ****       // ...
 972:LCD_Menu.c    ****      
 973:LCD_Menu.c    ****       default:
 974:LCD_Menu.c    ****         break;
 4035              		.loc 1 974 0
 4036 1bfc 00BF     		nop
 4037              	.L1:
 975:LCD_Menu.c    ****     }   
 976:LCD_Menu.c    **** }...
 4038              		.loc 1 976 0
 4039 1bfe 1C37     		adds	r7, r7, #28
 4040              		.cfi_def_cfa_offset 12
 4041 1c00 BD46     		mov	sp, r7
 4042              		.cfi_def_cfa_register 13
 4043              		@ sp needed
 4044 1c02 90BD     		pop	{r4, r7, pc}
 4045              	.L241:
 4046              		.align	2
 4047              	.L240:
 4048 1c04 00000000 		.word	u8g
 4049 1c08 00000000 		.word	u8g_font_unifont
 4050 1c0c 00000000 		.word	OutputEnable
 4051 1c10 00000000 		.word	Four_Wire_Method
 4052 1c14 AC010000 		.word	.LC34
 4053 1c18 B0010000 		.word	.LC35
 4054 1c1c 00000000 		.word	u8g_font_unifont_77
 4055 1c20 B4010000 		.word	.LC36
 4056              		.cfi_endproc
 4057              	.LFE63:
 4058              		.size	LCD_Draw, .-LCD_Draw
 4059              		.text
 4060              	.Letext0:
 4061              		.file 2 "c:\\program files (x86)\\cypress\\psoc creator\\4.0\\psoc creator\\import\\gnu\\arm\\4.9.
 4062              		.file 3 "c:\\program files (x86)\\cypress\\psoc creator\\4.0\\psoc creator\\import\\gnu\\arm\\4.9.
 4063              		.file 4 "Generated_Source\\PSoC5/cytypes.h"
 4064              		.file 5 "u8g.h"
 4065              		.file 6 "Generated_Source\\PSoC5/core_cm3.h"
 4066              		.file 7 "global_variables.h"
 4067              		.file 8 "temp_manage.h"