ARM GAS  C:\Users\KJA\AppData\Local\Temp\ccbnGHAr.s 			page 1


   1              		.syntax unified
   2              		.cpu cortex-m3
   3              		.fpu softvfp
   4              		.eabi_attribute 20, 1
   5              		.eabi_attribute 21, 1
   6              		.eabi_attribute 23, 3
   7              		.eabi_attribute 24, 1
   8              		.eabi_attribute 25, 1
   9              		.eabi_attribute 26, 1
  10              		.eabi_attribute 30, 6
  11              		.eabi_attribute 34, 1
  12              		.eabi_attribute 18, 4
  13              		.thumb
  14              		.file	"LCD_Menu.c"
  15              		.text
  16              	.Ltext0:
  17              		.cfi_sections	.debug_frame
  18              		.comm	Current_State,1,1
  19              		.comm	Previous_State,1,1
  20              		.comm	Sound_Enable,1,1
  21              		.comm	Current_Menu_Position,1,1
  22              		.comm	CurrentBacklightValue,1,1
  23              		.comm	CurrentBacklightValueString,8,4
  24              		.comm	CurrentVolumeValue,1,1
  25              		.comm	CurrentVolumeValueString,8,4
  26              		.comm	Current_Calibration_Range1,4,4
  27              		.comm	Current_Calibration_Range2,4,4
  28              		.comm	Current_Calibration_Range3,4,4
  29              		.comm	LEM_Offset_Value,1,1
  30              		.comm	Two_Wire_Range,4,4
  31              		.comm	Four_Wire_Range,4,4
  32              		.comm	Four_Wire_Method,1,1
  33              		.comm	Actual_Range,1,1
  34              		.comm	View_Mode,1,1
  35              		.comm	qdCount,2,2
  36              		.comm	Last_qdCount,2,2
  37              		.comm	button1,1,1
  38              		.comm	button2,1,1
  39              		.comm	button3,1,1
  40              		.comm	button4,1,1
  41              		.comm	button5,1,1
  42              		.comm	button6,1,1
  43              		.comm	push,1,1
  44              		.comm	OutputEnable,1,1
  45              		.comm	u8g,60,4
  46              		.comm	Push_Buzzer__Default_Lenght,4,4
  47              		.comm	Rotate_Buzzer__Default_Lenght,4,4
  48              		.comm	Edit_Value_Mode,1,1
  49              		.comm	cVoltage_Actual,16,4
  50              		.comm	cCurrent_Actual,16,4
  51              		.comm	cPower_Actual,16,4
  52              		.comm	cResist_Actual,16,4
  53              		.comm	cVoltage_Set,16,4
  54              		.comm	cCurrent_Set,16,4
  55              		.comm	cPower_Set,16,4
  56              		.comm	cResist_Set,16,4
  57              		.comm	TestChar,16,4
ARM GAS  C:\Users\KJA\AppData\Local\Temp\ccbnGHAr.s 			page 2


  58              		.comm	XPosition,2,2
  59              		.comm	cXPosition,16,4
  60              		.comm	YPosition,2,2
  61              		.comm	cYPosition,16,4
  62              		.comm	Touched,1,1
  63              		.comm	MeasuredVoltage,2,2
  64              		.comm	fVoltage,4,4
  65              		.comm	MeasuredCurrent,2,2
  66              		.comm	fCurrent,4,4
  67              		.comm	Power,2,2
  68              		.comm	fPower,4,4
  69              		.comm	Resist,2,2
  70              		.comm	fResist,4,4
  71              		.comm	Set_Voltage,4,4
  72              		.comm	Set_Current,4,4
  73              		.comm	Set_Current_Temporary_Value,4,4
  74              		.comm	Set_Power,4,4
  75              		.comm	Set_Power_Temporary_Value,4,4
  76              		.comm	Set_Resist,4,4
  77              		.comm	Set_Resist_Temporary_Value,4,4
  78              		.comm	Position_Number,1,1
  79              		.comm	MaxPower,4,4
  80              		.comm	MaxVoltage,4,4
  81              		.comm	MaxCurrent,4,4
  82              		.comm	MinResistance,4,4
  83              		.comm	MaxResistance,4,4
  84              		.comm	C_Kp,4,4
  85              		.comm	C_Ki,4,4
  86              		.comm	C_Kd,4,4
  87              		.comm	Max_FET_Temp,1,1
  88              		.comm	OverTemperature,1,1
  89              		.comm	Set_Ampl,2,2
  90              		.comm	Set_Ampl_Temporary_Value,2,2
  91              		.comm	Set_Freq,2,2
  92              		.comm	Set_Freq_Temporary_Value,4,4
  93              		.comm	Set_Duty,1,1
  94              		.comm	Set_Duty_Temporary_Value,1,1
  95              		.comm	cSet_Ampl,16,4
  96              		.comm	cSet_Freq,16,4
  97              		.comm	cSet_Duty,16,4
  98              		.comm	Current_Edit_Value,1,1
  99              		.comm	Actual_Multiplier_Value,1,1
 100              		.comm	cCounter,32,4
 101              		.comm	deltaT,1,1
 102              		.comm	Avarage_FET_Temp,4,4
 103              		.comm	Current_DIE_Temp,2,2
 104              		.comm	Current_DIE_TempString,8,4
 105              		.comm	Current_FET_Temp,1,1
 106              		.comm	Current_FET_TempString,8,4
 107              		.section	.rodata
 108              		.align	2
 109              	.LC0:
 110 0000 4572726F 		.ascii	"Error!\000"
 110      722100
 111 0007 00       		.align	2
 112              	.LC1:
 113 0008 4F766572 		.ascii	"Over Voltage!\000"
ARM GAS  C:\Users\KJA\AppData\Local\Temp\ccbnGHAr.s 			page 3


 113      20566F6C 
 113      74616765 
 113      2100
 114 0016 0000     		.align	2
 115              	.LC2:
 116 0018 3E507265 		.ascii	">Press any key<\000"
 116      73732061 
 116      6E79206B 
 116      65793C00 
 117              		.align	2
 118              	.LC3:
 119 0028 52657620 		.ascii	"Rev Polarity!\000"
 119      506F6C61 
 119      72697479 
 119      2100
 120 0036 0000     		.align	2
 121              	.LC4:
 122 0038 4F766572 		.ascii	"Over Heat!\000"
 122      20486561 
 122      742100
 123 0043 00       		.align	2
 124              	.LC5:
 125 0044 4E6F2053 		.ascii	"No Supply!\000"
 125      7570706C 
 125      792100
 126 004f 00       		.align	2
 127              	.LC6:
 128 0050 4F766572 		.ascii	"Over Current!\000"
 128      20437572 
 128      72656E74 
 128      2100
 129 005e 0000     		.align	2
 130              	.LC7:
 131 0060 41726269 		.ascii	"Arbitrary Mode\000"
 131      74726172 
 131      79204D6F 
 131      646500
 132 006f 00       		.align	2
 133              	.LC8:
 134 0070 42617420 		.ascii	"Bat Discharge\000"
 134      44697363 
 134      68617267 
 134      6500
 135 007e 0000     		.align	2
 136              	.LC9:
 137 0080 53657474 		.ascii	"Settings\000"
 137      696E6773 
 137      00
 138 0089 000000   		.align	2
 139              	.LC10:
 140 008c 436F6E73 		.ascii	"Constant Mode\000"
 140      74616E74 
 140      204D6F64 
 140      6500
 141 009a 0000     		.align	2
 142              	.LC11:
 143 009c 46756E63 		.ascii	"Function Mode\000"
ARM GAS  C:\Users\KJA\AppData\Local\Temp\ccbnGHAr.s 			page 4


 143      74696F6E 
 143      204D6F64 
 143      6500
 144 00aa 0000     		.align	2
 145              	.LC12:
 146 00ac 436F6E73 		.ascii	"Const Current\000"
 146      74204375 
 146      7272656E 
 146      7400
 147 00ba 0000     		.align	2
 148              	.LC13:
 149 00bc 436F6E73 		.ascii	"Const Power\000"
 149      7420506F 
 149      77657200 
 150              		.align	2
 151              	.LC14:
 152 00c8 436F6E73 		.ascii	"Const Resist\000"
 152      74205265 
 152      73697374 
 152      00
 153 00d5 000000   		.align	2
 154              	.LC15:
 155 00d8 20202020 		.ascii	"          <-Back\000"
 155      20202020 
 155      20203C2D 
 155      4261636B 
 155      00
 156 00e9 000000   		.align	2
 157              	.LC16:
 158 00ec 57617665 		.ascii	"Waveform Mode\000"
 158      666F726D 
 158      204D6F64 
 158      6500
 159 00fa 0000     		.align	2
 160              	.LC17:
 161 00fc 50574D20 		.ascii	"PWM Mode\000"
 161      4D6F6465 
 161      00
 162 0105 000000   		.align	2
 163              	.LC18:
 164 0108 45787465 		.ascii	"External Drive\000"
 164      726E616C 
 164      20447269 
 164      766500
 165 0117 00       		.align	2
 166              	.LC19:
 167 0118 57617665 		.ascii	"WaveForm_Mode\000"
 167      466F726D 
 167      5F4D6F64 
 167      6500
 168 0126 0000     		.align	2
 169              	.LC20:
 170 0128 416D706C 		.ascii	"Ampl:\000"
 170      3A00
 171 012e 0000     		.align	2
 172              	.LC21:
 173 0130 46726571 		.ascii	"Freq:\000"
ARM GAS  C:\Users\KJA\AppData\Local\Temp\ccbnGHAr.s 			page 5


 173      3A00
 174 0136 0000     		.align	2
 175              	.LC22:
 176 0138 44757479 		.ascii	"Duty:\000"
 176      3A00
 177 013e 0000     		.align	2
 178              	.LC23:
 179 0140 73657400 		.ascii	"set\000"
 180              		.align	2
 181              	.LC24:
 182 0144 6F6B00   		.ascii	"ok\000"
 183 0147 00       		.align	2
 184              	.LC25:
 185 0148 45787465 		.ascii	"External_Drive\000"
 185      726E616C 
 185      5F447269 
 185      766500
 186 0157 00       		.align	2
 187              	.LC26:
 188 0158 4261636B 		.ascii	"Backlight\000"
 188      6C696768 
 188      7400
 189 0162 0000     		.align	2
 190              	.LC27:
 191 0164 566F6C75 		.ascii	"Volume:\000"
 191      6D653A00 
 192              		.align	2
 193              	.LC28:
 194 016c 54656D70 		.ascii	"Temperature\000"
 194      65726174 
 194      75726500 
 195              		.align	2
 196              	.LC29:
 197 0178 566F6C75 		.ascii	"Volume\000"
 197      6D6500
 198 017f 00       		.align	2
 199              	.LC30:
 200 0180 44494520 		.ascii	"DIE Temp\000"
 200      54656D70 
 200      00
 201 0189 000000   		.align	2
 202              	.LC31:
 203 018c 46455420 		.ascii	"FET Temp\000"
 203      54656D70 
 203      00
 204 0195 000000   		.align	2
 205              	.LC32:
 206 0198 494E5420 		.ascii	"INT Temp   N/C\000"
 206      54656D70 
 206      2020204E 
 206      2F4300
 207              		.global	__aeabi_fcmplt
 208 01a7 00       		.align	2
 209              	.LC33:
 210 01a8 4F686D00 		.ascii	"Ohm\000"
 211              		.align	2
 212              	.LC34:
ARM GAS  C:\Users\KJA\AppData\Local\Temp\ccbnGHAr.s 			page 6


 213 01ac 325700   		.ascii	"2W\000"
 214 01af 00       		.align	2
 215              	.LC35:
 216 01b0 345700   		.ascii	"4W\000"
 217 01b3 00       		.align	2
 218              	.LC36:
 219 01b4 6000     		.ascii	"`\000"
 220 01b6 0000     		.section	.text.LCD_Draw,"ax",%progbits
 221              		.align	2
 222              		.global	LCD_Draw
 223              		.thumb
 224              		.thumb_func
 225              		.type	LCD_Draw, %function
 226              	LCD_Draw:
 227              	.LFB63:
 228              		.file 1 "LCD_Menu.c"
   1:LCD_Menu.c    **** #include "LCD_Menu.h"
   2:LCD_Menu.c    **** #include "global_variables.h"
   3:LCD_Menu.c    **** #include "u8g_arm.h"
   4:LCD_Menu.c    **** #include "temp_manage.h"
   5:LCD_Menu.c    **** 
   6:LCD_Menu.c    **** void LCD_Draw(uint8 PageName, uint8 Current_Menu_Position){
 229              		.loc 1 6 0
 230              		.cfi_startproc
 231              		@ args = 0, pretend = 0, frame = 24
 232              		@ frame_needed = 1, uses_anonymous_args = 0
 233 0000 90B5     		push	{r4, r7, lr}
 234              		.cfi_def_cfa_offset 12
 235              		.cfi_offset 4, -12
 236              		.cfi_offset 7, -8
 237              		.cfi_offset 14, -4
 238 0002 8BB0     		sub	sp, sp, #44
 239              		.cfi_def_cfa_offset 56
 240 0004 04AF     		add	r7, sp, #16
 241              		.cfi_def_cfa 7, 40
 242 0006 0346     		mov	r3, r0
 243 0008 0A46     		mov	r2, r1
 244 000a FB71     		strb	r3, [r7, #7]
 245 000c 1346     		mov	r3, r2
 246 000e BB71     		strb	r3, [r7, #6]
   7:LCD_Menu.c    **** 
   8:LCD_Menu.c    ****     enum State PageNamee;
   9:LCD_Menu.c    ****     PageNamee = PageName;
 247              		.loc 1 9 0
 248 0010 FB79     		ldrb	r3, [r7, #7]
 249 0012 BB73     		strb	r3, [r7, #14]
  10:LCD_Menu.c    ****     
  11:LCD_Menu.c    ****     switch(PageNamee){
 250              		.loc 1 11 0
 251 0014 BB7B     		ldrb	r3, [r7, #14]	@ zero_extendqisi2
 252 0016 122B     		cmp	r3, #18
 253 0018 01F2F085 		bhi	.L221
 254 001c 01A2     		adr	r2, .L4
 255 001e 52F823F0 		ldr	pc, [r2, r3, lsl #2]
 256 0022 00BF     		.p2align 2
 257              	.L4:
 258 0024 3D020000 		.word	.L3+1
ARM GAS  C:\Users\KJA\AppData\Local\Temp\ccbnGHAr.s 			page 7


 259 0028 E1020000 		.word	.L5+1
 260 002c CF030000 		.word	.L6+1
 261 0030 BD040000 		.word	.L7+1
 262 0034 CD180000 		.word	.L8+1
 263 0038 E50C0000 		.word	.L9+1
 264 003c 290C0000 		.word	.L10+1
 265 0040 6D0B0000 		.word	.L11+1
 266 0044 210E0000 		.word	.L12+1
 267 0048 A9140000 		.word	.L13+1
 268 004c 390F0000 		.word	.L14+1
 269 0050 C9000000 		.word	.L15+1
 270 0054 71000000 		.word	.L16+1
 271 0058 8D010000 		.word	.L17+1
 272 005c 21010000 		.word	.L18+1
 273 0060 E5010000 		.word	.L19+1
 274 0064 E1050000 		.word	.L20+1
 275 0068 11060000 		.word	.L21+1
 276 006c 0F0B0000 		.word	.L22+1
 277              		.p2align 1
 278              	.L16:
  12:LCD_Menu.c    ****         
  13:LCD_Menu.c    ****     case Error_OV:
  14:LCD_Menu.c    ****         u8g_FirstPage(&u8g);
 279              		.loc 1 14 0
 280 0070 8D48     		ldr	r0, .L222
 281 0072 FFF7FEFF 		bl	u8g_FirstPage
 282              	.L23:
  15:LCD_Menu.c    ****             do{
  16:LCD_Menu.c    ****                 u8g_SetDefaultForegroundColor(&u8g);         
 283              		.loc 1 16 0 discriminator 1
 284 0076 8C48     		ldr	r0, .L222
 285 0078 FFF7FEFF 		bl	u8g_SetDefaultForegroundColor
  17:LCD_Menu.c    ****                 u8g_SetFont(&u8g, u8g_font_unifont);                
 286              		.loc 1 17 0 discriminator 1
 287 007c 8A48     		ldr	r0, .L222
 288 007e 8B49     		ldr	r1, .L222+4
 289 0080 FFF7FEFF 		bl	u8g_SetFont
  18:LCD_Menu.c    ****                 u8g_DrawStr(&u8g,  40, 12, "Error!");
 290              		.loc 1 18 0 discriminator 1
 291 0084 8848     		ldr	r0, .L222
 292 0086 2821     		movs	r1, #40
 293 0088 0C22     		movs	r2, #12
 294 008a 894B     		ldr	r3, .L222+8
 295 008c FFF7FEFF 		bl	u8g_DrawStr
  19:LCD_Menu.c    ****                 u8g_SetFont(&u8g, u8g_font_unifont);                
 296              		.loc 1 19 0 discriminator 1
 297 0090 8548     		ldr	r0, .L222
 298 0092 8649     		ldr	r1, .L222+4
 299 0094 FFF7FEFF 		bl	u8g_SetFont
  20:LCD_Menu.c    ****                 u8g_DrawStr(&u8g,  2, 28, "Over Voltage!");
 300              		.loc 1 20 0 discriminator 1
 301 0098 8348     		ldr	r0, .L222
 302 009a 0221     		movs	r1, #2
 303 009c 1C22     		movs	r2, #28
 304 009e 854B     		ldr	r3, .L222+12
 305 00a0 FFF7FEFF 		bl	u8g_DrawStr
  21:LCD_Menu.c    ****                 
ARM GAS  C:\Users\KJA\AppData\Local\Temp\ccbnGHAr.s 			page 8


  22:LCD_Menu.c    ****                 u8g_SetFont(&u8g, u8g_font_unifont);                
 306              		.loc 1 22 0 discriminator 1
 307 00a4 8048     		ldr	r0, .L222
 308 00a6 8149     		ldr	r1, .L222+4
 309 00a8 FFF7FEFF 		bl	u8g_SetFont
  23:LCD_Menu.c    ****                 u8g_DrawStr(&u8g,  4, 60, ">Press any key<");                
 310              		.loc 1 23 0 discriminator 1
 311 00ac 7E48     		ldr	r0, .L222
 312 00ae 0421     		movs	r1, #4
 313 00b0 3C22     		movs	r2, #60
 314 00b2 814B     		ldr	r3, .L222+16
 315 00b4 FFF7FEFF 		bl	u8g_DrawStr
  24:LCD_Menu.c    **** 
  25:LCD_Menu.c    ****             } while ( u8g_NextPage(&u8g) );
 316              		.loc 1 25 0 discriminator 1
 317 00b8 7B48     		ldr	r0, .L222
 318 00ba FFF7FEFF 		bl	u8g_NextPage
 319 00be 0346     		mov	r3, r0
 320 00c0 002B     		cmp	r3, #0
 321 00c2 D8D1     		bne	.L23
  26:LCD_Menu.c    ****       break;
 322              		.loc 1 26 0
 323 00c4 01F09BBD 		b	.L1
 324              	.L15:
  27:LCD_Menu.c    ****         
  28:LCD_Menu.c    ****         case Error_RP:
  29:LCD_Menu.c    ****         u8g_FirstPage(&u8g);
 325              		.loc 1 29 0
 326 00c8 7748     		ldr	r0, .L222
 327 00ca FFF7FEFF 		bl	u8g_FirstPage
 328              	.L25:
  30:LCD_Menu.c    ****             do{
  31:LCD_Menu.c    ****                 u8g_SetDefaultForegroundColor(&u8g);         
 329              		.loc 1 31 0 discriminator 1
 330 00ce 7648     		ldr	r0, .L222
 331 00d0 FFF7FEFF 		bl	u8g_SetDefaultForegroundColor
  32:LCD_Menu.c    ****                 u8g_SetFont(&u8g, u8g_font_unifont);                
 332              		.loc 1 32 0 discriminator 1
 333 00d4 7448     		ldr	r0, .L222
 334 00d6 7549     		ldr	r1, .L222+4
 335 00d8 FFF7FEFF 		bl	u8g_SetFont
  33:LCD_Menu.c    ****                 u8g_DrawStr(&u8g,  40, 12, "Error!");
 336              		.loc 1 33 0 discriminator 1
 337 00dc 7248     		ldr	r0, .L222
 338 00de 2821     		movs	r1, #40
 339 00e0 0C22     		movs	r2, #12
 340 00e2 734B     		ldr	r3, .L222+8
 341 00e4 FFF7FEFF 		bl	u8g_DrawStr
  34:LCD_Menu.c    ****                 u8g_SetFont(&u8g, u8g_font_unifont);                
 342              		.loc 1 34 0 discriminator 1
 343 00e8 6F48     		ldr	r0, .L222
 344 00ea 7049     		ldr	r1, .L222+4
 345 00ec FFF7FEFF 		bl	u8g_SetFont
  35:LCD_Menu.c    ****                 u8g_DrawStr(&u8g,  2, 28, "Rev Polarity!");
 346              		.loc 1 35 0 discriminator 1
 347 00f0 6D48     		ldr	r0, .L222
 348 00f2 0221     		movs	r1, #2
ARM GAS  C:\Users\KJA\AppData\Local\Temp\ccbnGHAr.s 			page 9


 349 00f4 1C22     		movs	r2, #28
 350 00f6 714B     		ldr	r3, .L222+20
 351 00f8 FFF7FEFF 		bl	u8g_DrawStr
  36:LCD_Menu.c    ****                 
  37:LCD_Menu.c    ****                 u8g_SetFont(&u8g, u8g_font_unifont);                
 352              		.loc 1 37 0 discriminator 1
 353 00fc 6A48     		ldr	r0, .L222
 354 00fe 6B49     		ldr	r1, .L222+4
 355 0100 FFF7FEFF 		bl	u8g_SetFont
  38:LCD_Menu.c    ****                 u8g_DrawStr(&u8g,  4, 60, ">Press any key<");                
 356              		.loc 1 38 0 discriminator 1
 357 0104 6848     		ldr	r0, .L222
 358 0106 0421     		movs	r1, #4
 359 0108 3C22     		movs	r2, #60
 360 010a 6B4B     		ldr	r3, .L222+16
 361 010c FFF7FEFF 		bl	u8g_DrawStr
  39:LCD_Menu.c    **** 
  40:LCD_Menu.c    ****             } while ( u8g_NextPage(&u8g) );
 362              		.loc 1 40 0 discriminator 1
 363 0110 6548     		ldr	r0, .L222
 364 0112 FFF7FEFF 		bl	u8g_NextPage
 365 0116 0346     		mov	r3, r0
 366 0118 002B     		cmp	r3, #0
 367 011a D8D1     		bne	.L25
  41:LCD_Menu.c    ****       break;        
 368              		.loc 1 41 0
 369 011c 01F06FBD 		b	.L1
 370              	.L18:
  42:LCD_Menu.c    ****         
  43:LCD_Menu.c    ****         case Error_OT:
  44:LCD_Menu.c    ****         u8g_FirstPage(&u8g);
 371              		.loc 1 44 0
 372 0120 6148     		ldr	r0, .L222
 373 0122 FFF7FEFF 		bl	u8g_FirstPage
 374              	.L26:
  45:LCD_Menu.c    ****             do{
  46:LCD_Menu.c    ****                 u8g_SetDefaultForegroundColor(&u8g);         
 375              		.loc 1 46 0 discriminator 1
 376 0126 6048     		ldr	r0, .L222
 377 0128 FFF7FEFF 		bl	u8g_SetDefaultForegroundColor
  47:LCD_Menu.c    ****                 u8g_SetFont(&u8g, u8g_font_unifont);                
 378              		.loc 1 47 0 discriminator 1
 379 012c 5E48     		ldr	r0, .L222
 380 012e 5F49     		ldr	r1, .L222+4
 381 0130 FFF7FEFF 		bl	u8g_SetFont
  48:LCD_Menu.c    ****                 u8g_DrawStr(&u8g,  40, 12, "Error!");
 382              		.loc 1 48 0 discriminator 1
 383 0134 5C48     		ldr	r0, .L222
 384 0136 2821     		movs	r1, #40
 385 0138 0C22     		movs	r2, #12
 386 013a 5D4B     		ldr	r3, .L222+8
 387 013c FFF7FEFF 		bl	u8g_DrawStr
  49:LCD_Menu.c    ****                 u8g_SetFont(&u8g, u8g_font_unifont);                
 388              		.loc 1 49 0 discriminator 1
 389 0140 5948     		ldr	r0, .L222
 390 0142 5A49     		ldr	r1, .L222+4
 391 0144 FFF7FEFF 		bl	u8g_SetFont
ARM GAS  C:\Users\KJA\AppData\Local\Temp\ccbnGHAr.s 			page 10


  50:LCD_Menu.c    ****                 u8g_DrawStr(&u8g,  2, 28, "Over Heat!");
 392              		.loc 1 50 0 discriminator 1
 393 0148 5748     		ldr	r0, .L222
 394 014a 0221     		movs	r1, #2
 395 014c 1C22     		movs	r2, #28
 396 014e 5C4B     		ldr	r3, .L222+24
 397 0150 FFF7FEFF 		bl	u8g_DrawStr
  51:LCD_Menu.c    ****                 u8g_SetFont(&u8g, u8g_font_unifont);                
 398              		.loc 1 51 0 discriminator 1
 399 0154 5448     		ldr	r0, .L222
 400 0156 5549     		ldr	r1, .L222+4
 401 0158 FFF7FEFF 		bl	u8g_SetFont
  52:LCD_Menu.c    ****                 u8g_DrawStr(&u8g,  2, 43, Current_DIE_TempString);
 402              		.loc 1 52 0 discriminator 1
 403 015c 5248     		ldr	r0, .L222
 404 015e 0221     		movs	r1, #2
 405 0160 2B22     		movs	r2, #43
 406 0162 584B     		ldr	r3, .L222+28
 407 0164 FFF7FEFF 		bl	u8g_DrawStr
  53:LCD_Menu.c    ****                 
  54:LCD_Menu.c    ****                 u8g_SetFont(&u8g, u8g_font_unifont);                
 408              		.loc 1 54 0 discriminator 1
 409 0168 4F48     		ldr	r0, .L222
 410 016a 5049     		ldr	r1, .L222+4
 411 016c FFF7FEFF 		bl	u8g_SetFont
  55:LCD_Menu.c    ****                 u8g_DrawStr(&u8g,  4, 60, ">Press any key<");                
 412              		.loc 1 55 0 discriminator 1
 413 0170 4D48     		ldr	r0, .L222
 414 0172 0421     		movs	r1, #4
 415 0174 3C22     		movs	r2, #60
 416 0176 504B     		ldr	r3, .L222+16
 417 0178 FFF7FEFF 		bl	u8g_DrawStr
  56:LCD_Menu.c    **** 
  57:LCD_Menu.c    ****             } while ( u8g_NextPage(&u8g) );
 418              		.loc 1 57 0 discriminator 1
 419 017c 4A48     		ldr	r0, .L222
 420 017e FFF7FEFF 		bl	u8g_NextPage
 421 0182 0346     		mov	r3, r0
 422 0184 002B     		cmp	r3, #0
 423 0186 CED1     		bne	.L26
  58:LCD_Menu.c    ****       break;
 424              		.loc 1 58 0
 425 0188 01F039BD 		b	.L1
 426              	.L17:
  59:LCD_Menu.c    ****         
  60:LCD_Menu.c    ****         case Error_NC:
  61:LCD_Menu.c    ****             u8g_FirstPage(&u8g);
 427              		.loc 1 61 0
 428 018c 4648     		ldr	r0, .L222
 429 018e FFF7FEFF 		bl	u8g_FirstPage
 430              	.L27:
  62:LCD_Menu.c    ****             do{
  63:LCD_Menu.c    ****                 u8g_SetDefaultForegroundColor(&u8g);         
 431              		.loc 1 63 0 discriminator 1
 432 0192 4548     		ldr	r0, .L222
 433 0194 FFF7FEFF 		bl	u8g_SetDefaultForegroundColor
  64:LCD_Menu.c    ****                 u8g_SetFont(&u8g, u8g_font_unifont);                
ARM GAS  C:\Users\KJA\AppData\Local\Temp\ccbnGHAr.s 			page 11


 434              		.loc 1 64 0 discriminator 1
 435 0198 4348     		ldr	r0, .L222
 436 019a 4449     		ldr	r1, .L222+4
 437 019c FFF7FEFF 		bl	u8g_SetFont
  65:LCD_Menu.c    ****                 u8g_DrawStr(&u8g,  40, 12, "Error!");
 438              		.loc 1 65 0 discriminator 1
 439 01a0 4148     		ldr	r0, .L222
 440 01a2 2821     		movs	r1, #40
 441 01a4 0C22     		movs	r2, #12
 442 01a6 424B     		ldr	r3, .L222+8
 443 01a8 FFF7FEFF 		bl	u8g_DrawStr
  66:LCD_Menu.c    ****                 u8g_SetFont(&u8g, u8g_font_unifont);                
 444              		.loc 1 66 0 discriminator 1
 445 01ac 3E48     		ldr	r0, .L222
 446 01ae 3F49     		ldr	r1, .L222+4
 447 01b0 FFF7FEFF 		bl	u8g_SetFont
  67:LCD_Menu.c    ****                 u8g_DrawStr(&u8g,  2, 28, "No Supply!");
 448              		.loc 1 67 0 discriminator 1
 449 01b4 3C48     		ldr	r0, .L222
 450 01b6 0221     		movs	r1, #2
 451 01b8 1C22     		movs	r2, #28
 452 01ba 434B     		ldr	r3, .L222+32
 453 01bc FFF7FEFF 		bl	u8g_DrawStr
  68:LCD_Menu.c    ****                 
  69:LCD_Menu.c    ****                 u8g_SetFont(&u8g, u8g_font_unifont);                
 454              		.loc 1 69 0 discriminator 1
 455 01c0 3948     		ldr	r0, .L222
 456 01c2 3A49     		ldr	r1, .L222+4
 457 01c4 FFF7FEFF 		bl	u8g_SetFont
  70:LCD_Menu.c    ****                 u8g_DrawStr(&u8g,  4, 60, ">Press any key<");                
 458              		.loc 1 70 0 discriminator 1
 459 01c8 3748     		ldr	r0, .L222
 460 01ca 0421     		movs	r1, #4
 461 01cc 3C22     		movs	r2, #60
 462 01ce 3A4B     		ldr	r3, .L222+16
 463 01d0 FFF7FEFF 		bl	u8g_DrawStr
  71:LCD_Menu.c    **** 
  72:LCD_Menu.c    ****             } while ( u8g_NextPage(&u8g) );
 464              		.loc 1 72 0 discriminator 1
 465 01d4 3448     		ldr	r0, .L222
 466 01d6 FFF7FEFF 		bl	u8g_NextPage
 467 01da 0346     		mov	r3, r0
 468 01dc 002B     		cmp	r3, #0
 469 01de D8D1     		bne	.L27
  73:LCD_Menu.c    ****       break;
 470              		.loc 1 73 0
 471 01e0 01F00DBD 		b	.L1
 472              	.L19:
  74:LCD_Menu.c    ****             
  75:LCD_Menu.c    ****        case Error_OC:
  76:LCD_Menu.c    ****         u8g_FirstPage(&u8g);
 473              		.loc 1 76 0
 474 01e4 3048     		ldr	r0, .L222
 475 01e6 FFF7FEFF 		bl	u8g_FirstPage
 476              	.L28:
  77:LCD_Menu.c    ****             do{
  78:LCD_Menu.c    ****                 u8g_SetDefaultForegroundColor(&u8g);         
ARM GAS  C:\Users\KJA\AppData\Local\Temp\ccbnGHAr.s 			page 12


 477              		.loc 1 78 0 discriminator 1
 478 01ea 2F48     		ldr	r0, .L222
 479 01ec FFF7FEFF 		bl	u8g_SetDefaultForegroundColor
  79:LCD_Menu.c    ****                 u8g_SetFont(&u8g, u8g_font_unifont);                
 480              		.loc 1 79 0 discriminator 1
 481 01f0 2D48     		ldr	r0, .L222
 482 01f2 2E49     		ldr	r1, .L222+4
 483 01f4 FFF7FEFF 		bl	u8g_SetFont
  80:LCD_Menu.c    ****                 u8g_DrawStr(&u8g,  40, 12, "Error!");
 484              		.loc 1 80 0 discriminator 1
 485 01f8 2B48     		ldr	r0, .L222
 486 01fa 2821     		movs	r1, #40
 487 01fc 0C22     		movs	r2, #12
 488 01fe 2C4B     		ldr	r3, .L222+8
 489 0200 FFF7FEFF 		bl	u8g_DrawStr
  81:LCD_Menu.c    ****                 u8g_SetFont(&u8g, u8g_font_unifont);                
 490              		.loc 1 81 0 discriminator 1
 491 0204 2848     		ldr	r0, .L222
 492 0206 2949     		ldr	r1, .L222+4
 493 0208 FFF7FEFF 		bl	u8g_SetFont
  82:LCD_Menu.c    ****                 u8g_DrawStr(&u8g,  2, 28, "Over Current!");
 494              		.loc 1 82 0 discriminator 1
 495 020c 2648     		ldr	r0, .L222
 496 020e 0221     		movs	r1, #2
 497 0210 1C22     		movs	r2, #28
 498 0212 2E4B     		ldr	r3, .L222+36
 499 0214 FFF7FEFF 		bl	u8g_DrawStr
  83:LCD_Menu.c    ****                 
  84:LCD_Menu.c    ****                 u8g_SetFont(&u8g, u8g_font_unifont);                
 500              		.loc 1 84 0 discriminator 1
 501 0218 2348     		ldr	r0, .L222
 502 021a 2449     		ldr	r1, .L222+4
 503 021c FFF7FEFF 		bl	u8g_SetFont
  85:LCD_Menu.c    ****                 u8g_DrawStr(&u8g,  4, 60, ">Press any key<");                
 504              		.loc 1 85 0 discriminator 1
 505 0220 2148     		ldr	r0, .L222
 506 0222 0421     		movs	r1, #4
 507 0224 3C22     		movs	r2, #60
 508 0226 244B     		ldr	r3, .L222+16
 509 0228 FFF7FEFF 		bl	u8g_DrawStr
  86:LCD_Menu.c    **** 
  87:LCD_Menu.c    ****             } while ( u8g_NextPage(&u8g) );
 510              		.loc 1 87 0 discriminator 1
 511 022c 1E48     		ldr	r0, .L222
 512 022e FFF7FEFF 		bl	u8g_NextPage
 513 0232 0346     		mov	r3, r0
 514 0234 002B     		cmp	r3, #0
 515 0236 D8D1     		bne	.L28
  88:LCD_Menu.c    ****       break;
 516              		.loc 1 88 0
 517 0238 01F0E1BC 		b	.L1
 518              	.L3:
  89:LCD_Menu.c    ****         
  90:LCD_Menu.c    ****       case Develop:
  91:LCD_Menu.c    ****         u8g_FirstPage(&u8g);
 519              		.loc 1 91 0
 520 023c 1A48     		ldr	r0, .L222
ARM GAS  C:\Users\KJA\AppData\Local\Temp\ccbnGHAr.s 			page 13


 521 023e FFF7FEFF 		bl	u8g_FirstPage
 522              	.L29:
  92:LCD_Menu.c    ****         do{
  93:LCD_Menu.c    ****             u8g_SetDefaultForegroundColor(&u8g);         
 523              		.loc 1 93 0 discriminator 1
 524 0242 1948     		ldr	r0, .L222
 525 0244 FFF7FEFF 		bl	u8g_SetDefaultForegroundColor
  94:LCD_Menu.c    ****             
  95:LCD_Menu.c    ****             u8g_SetFont(&u8g, u8g_font_unifont);   
 526              		.loc 1 95 0 discriminator 1
 527 0248 1748     		ldr	r0, .L222
 528 024a 1849     		ldr	r1, .L222+4
 529 024c FFF7FEFF 		bl	u8g_SetFont
  96:LCD_Menu.c    ****             u8g_DrawStr(&u8g,  2, 13, cCounter);
 530              		.loc 1 96 0 discriminator 1
 531 0250 1548     		ldr	r0, .L222
 532 0252 0221     		movs	r1, #2
 533 0254 0D22     		movs	r2, #13
 534 0256 1E4B     		ldr	r3, .L222+40
 535 0258 FFF7FEFF 		bl	u8g_DrawStr
  97:LCD_Menu.c    ****                        
  98:LCD_Menu.c    ****             u8g_SetFont(&u8g, u8g_font_unifont);              
 536              		.loc 1 98 0 discriminator 1
 537 025c 1248     		ldr	r0, .L222
 538 025e 1349     		ldr	r1, .L222+4
 539 0260 FFF7FEFF 		bl	u8g_SetFont
  99:LCD_Menu.c    ****             u8g_DrawStr(&u8g,  2, 29, "Arbitrary Mode");
 540              		.loc 1 99 0 discriminator 1
 541 0264 1048     		ldr	r0, .L222
 542 0266 0221     		movs	r1, #2
 543 0268 1D22     		movs	r2, #29
 544 026a 1A4B     		ldr	r3, .L222+44
 545 026c FFF7FEFF 		bl	u8g_DrawStr
 100:LCD_Menu.c    ****             
 101:LCD_Menu.c    ****             u8g_SetFont(&u8g, u8g_font_unifont);              
 546              		.loc 1 101 0 discriminator 1
 547 0270 0D48     		ldr	r0, .L222
 548 0272 0E49     		ldr	r1, .L222+4
 549 0274 FFF7FEFF 		bl	u8g_SetFont
 102:LCD_Menu.c    ****             u8g_DrawStr(&u8g,  2, 45, "Bat Discharge");
 550              		.loc 1 102 0 discriminator 1
 551 0278 0B48     		ldr	r0, .L222
 552 027a 0221     		movs	r1, #2
 553 027c 2D22     		movs	r2, #45
 554 027e 164B     		ldr	r3, .L222+48
 555 0280 FFF7FEFF 		bl	u8g_DrawStr
 103:LCD_Menu.c    ****             
 104:LCD_Menu.c    ****             u8g_SetFont(&u8g, u8g_font_unifont);              
 556              		.loc 1 104 0 discriminator 1
 557 0284 0848     		ldr	r0, .L222
 558 0286 0949     		ldr	r1, .L222+4
 559 0288 FFF7FEFF 		bl	u8g_SetFont
 105:LCD_Menu.c    ****             u8g_DrawStr(&u8g,  2, 60, "Settings");
 560              		.loc 1 105 0 discriminator 1
 561 028c 0648     		ldr	r0, .L222
 562 028e 0221     		movs	r1, #2
 563 0290 3C22     		movs	r2, #60
ARM GAS  C:\Users\KJA\AppData\Local\Temp\ccbnGHAr.s 			page 14


 564 0292 124B     		ldr	r3, .L222+52
 565 0294 FFF7FEFF 		bl	u8g_DrawStr
 106:LCD_Menu.c    ****             
 107:LCD_Menu.c    ****         } while ( u8g_NextPage(&u8g) );
 566              		.loc 1 107 0 discriminator 1
 567 0298 0348     		ldr	r0, .L222
 568 029a FFF7FEFF 		bl	u8g_NextPage
 569 029e 0346     		mov	r3, r0
 570 02a0 002B     		cmp	r3, #0
 571 02a2 CED1     		bne	.L29
 108:LCD_Menu.c    ****       break;
 572              		.loc 1 108 0
 573 02a4 01F0ABBC 		b	.L1
 574              	.L223:
 575              		.align	2
 576              	.L222:
 577 02a8 00000000 		.word	u8g
 578 02ac 00000000 		.word	u8g_font_unifont
 579 02b0 00000000 		.word	.LC0
 580 02b4 08000000 		.word	.LC1
 581 02b8 18000000 		.word	.LC2
 582 02bc 28000000 		.word	.LC3
 583 02c0 38000000 		.word	.LC4
 584 02c4 00000000 		.word	Current_DIE_TempString
 585 02c8 44000000 		.word	.LC5
 586 02cc 50000000 		.word	.LC6
 587 02d0 00000000 		.word	cCounter
 588 02d4 60000000 		.word	.LC7
 589 02d8 70000000 		.word	.LC8
 590 02dc 80000000 		.word	.LC9
 591              	.L5:
 109:LCD_Menu.c    ****    
 110:LCD_Menu.c    ****       case Home: 
 111:LCD_Menu.c    ****             u8g_FirstPage(&u8g);
 592              		.loc 1 111 0
 593 02e0 B248     		ldr	r0, .L224
 594 02e2 FFF7FEFF 		bl	u8g_FirstPage
 595              	.L34:
 112:LCD_Menu.c    ****             do{
 113:LCD_Menu.c    ****                 u8g_SetDefaultForegroundColor(&u8g);
 596              		.loc 1 113 0
 597 02e6 B148     		ldr	r0, .L224
 598 02e8 FFF7FEFF 		bl	u8g_SetDefaultForegroundColor
 114:LCD_Menu.c    ****                 if(Current_Menu_Position == 3){
 599              		.loc 1 114 0
 600 02ec BB79     		ldrb	r3, [r7, #6]	@ zero_extendqisi2
 601 02ee 032B     		cmp	r3, #3
 602 02f0 0AD1     		bne	.L30
 115:LCD_Menu.c    ****                     u8g_DrawBox(&u8g, 0,0,128,16);
 603              		.loc 1 115 0
 604 02f2 1023     		movs	r3, #16
 605 02f4 0093     		str	r3, [sp]
 606 02f6 AD48     		ldr	r0, .L224
 607 02f8 0021     		movs	r1, #0
 608 02fa 0022     		movs	r2, #0
 609 02fc 8023     		movs	r3, #128
 610 02fe FFF7FEFF 		bl	u8g_DrawBox
ARM GAS  C:\Users\KJA\AppData\Local\Temp\ccbnGHAr.s 			page 15


 116:LCD_Menu.c    ****                     u8g_SetDefaultBackgroundColor(&u8g);
 611              		.loc 1 116 0
 612 0302 AA48     		ldr	r0, .L224
 613 0304 FFF7FEFF 		bl	u8g_SetDefaultBackgroundColor
 614              	.L30:
 117:LCD_Menu.c    ****                 }             
 118:LCD_Menu.c    ****                 
 119:LCD_Menu.c    ****                 u8g_SetFont(&u8g, u8g_font_unifont);   
 615              		.loc 1 119 0
 616 0308 A848     		ldr	r0, .L224
 617 030a A949     		ldr	r1, .L224+4
 618 030c FFF7FEFF 		bl	u8g_SetFont
 120:LCD_Menu.c    ****                 u8g_DrawStr(&u8g,  2, 13, "Constant Mode");
 619              		.loc 1 120 0
 620 0310 A648     		ldr	r0, .L224
 621 0312 0221     		movs	r1, #2
 622 0314 0D22     		movs	r2, #13
 623 0316 A74B     		ldr	r3, .L224+8
 624 0318 FFF7FEFF 		bl	u8g_DrawStr
 121:LCD_Menu.c    ****                 
 122:LCD_Menu.c    ****                 u8g_SetDefaultForegroundColor(&u8g);                
 625              		.loc 1 122 0
 626 031c A348     		ldr	r0, .L224
 627 031e FFF7FEFF 		bl	u8g_SetDefaultForegroundColor
 123:LCD_Menu.c    ****                 if(Current_Menu_Position == 2){
 628              		.loc 1 123 0
 629 0322 BB79     		ldrb	r3, [r7, #6]	@ zero_extendqisi2
 630 0324 022B     		cmp	r3, #2
 631 0326 0AD1     		bne	.L31
 124:LCD_Menu.c    ****                     u8g_DrawBox(&u8g, 0,16,128,16);
 632              		.loc 1 124 0
 633 0328 1023     		movs	r3, #16
 634 032a 0093     		str	r3, [sp]
 635 032c 9F48     		ldr	r0, .L224
 636 032e 0021     		movs	r1, #0
 637 0330 1022     		movs	r2, #16
 638 0332 8023     		movs	r3, #128
 639 0334 FFF7FEFF 		bl	u8g_DrawBox
 125:LCD_Menu.c    ****                     u8g_SetDefaultBackgroundColor(&u8g);
 640              		.loc 1 125 0
 641 0338 9C48     		ldr	r0, .L224
 642 033a FFF7FEFF 		bl	u8g_SetDefaultBackgroundColor
 643              	.L31:
 126:LCD_Menu.c    ****                 }
 127:LCD_Menu.c    ****                 
 128:LCD_Menu.c    ****                 u8g_SetFont(&u8g, u8g_font_unifont);              
 644              		.loc 1 128 0
 645 033e 9B48     		ldr	r0, .L224
 646 0340 9B49     		ldr	r1, .L224+4
 647 0342 FFF7FEFF 		bl	u8g_SetFont
 129:LCD_Menu.c    ****                 u8g_DrawStr(&u8g,  2, 29, "Function Mode");
 648              		.loc 1 129 0
 649 0346 9948     		ldr	r0, .L224
 650 0348 0221     		movs	r1, #2
 651 034a 1D22     		movs	r2, #29
 652 034c 9A4B     		ldr	r3, .L224+12
 653 034e FFF7FEFF 		bl	u8g_DrawStr
ARM GAS  C:\Users\KJA\AppData\Local\Temp\ccbnGHAr.s 			page 16


 130:LCD_Menu.c    ****                 
 131:LCD_Menu.c    ****                 u8g_SetDefaultForegroundColor(&u8g);
 654              		.loc 1 131 0
 655 0352 9648     		ldr	r0, .L224
 656 0354 FFF7FEFF 		bl	u8g_SetDefaultForegroundColor
 132:LCD_Menu.c    ****                 if(Current_Menu_Position == 1){
 657              		.loc 1 132 0
 658 0358 BB79     		ldrb	r3, [r7, #6]	@ zero_extendqisi2
 659 035a 012B     		cmp	r3, #1
 660 035c 0AD1     		bne	.L32
 133:LCD_Menu.c    ****                     u8g_DrawBox(&u8g, 0,32,128,16);
 661              		.loc 1 133 0
 662 035e 1023     		movs	r3, #16
 663 0360 0093     		str	r3, [sp]
 664 0362 9248     		ldr	r0, .L224
 665 0364 0021     		movs	r1, #0
 666 0366 2022     		movs	r2, #32
 667 0368 8023     		movs	r3, #128
 668 036a FFF7FEFF 		bl	u8g_DrawBox
 134:LCD_Menu.c    ****                     u8g_SetDefaultBackgroundColor(&u8g);
 669              		.loc 1 134 0
 670 036e 8F48     		ldr	r0, .L224
 671 0370 FFF7FEFF 		bl	u8g_SetDefaultBackgroundColor
 672              	.L32:
 135:LCD_Menu.c    ****                 }
 136:LCD_Menu.c    ****                 
 137:LCD_Menu.c    ****                 u8g_SetFont(&u8g, u8g_font_unifont);              
 673              		.loc 1 137 0
 674 0374 8D48     		ldr	r0, .L224
 675 0376 8E49     		ldr	r1, .L224+4
 676 0378 FFF7FEFF 		bl	u8g_SetFont
 138:LCD_Menu.c    ****                 u8g_DrawStr(&u8g,  2, 45, "Bat Discharge");
 677              		.loc 1 138 0
 678 037c 8B48     		ldr	r0, .L224
 679 037e 0221     		movs	r1, #2
 680 0380 2D22     		movs	r2, #45
 681 0382 8E4B     		ldr	r3, .L224+16
 682 0384 FFF7FEFF 		bl	u8g_DrawStr
 139:LCD_Menu.c    ****                 
 140:LCD_Menu.c    ****                 u8g_SetDefaultForegroundColor(&u8g);
 683              		.loc 1 140 0
 684 0388 8848     		ldr	r0, .L224
 685 038a FFF7FEFF 		bl	u8g_SetDefaultForegroundColor
 141:LCD_Menu.c    ****                 if(Current_Menu_Position == 0){
 686              		.loc 1 141 0
 687 038e BB79     		ldrb	r3, [r7, #6]	@ zero_extendqisi2
 688 0390 002B     		cmp	r3, #0
 689 0392 0AD1     		bne	.L33
 142:LCD_Menu.c    ****                     u8g_DrawBox(&u8g, 0,48,128,16);
 690              		.loc 1 142 0
 691 0394 1023     		movs	r3, #16
 692 0396 0093     		str	r3, [sp]
 693 0398 8448     		ldr	r0, .L224
 694 039a 0021     		movs	r1, #0
 695 039c 3022     		movs	r2, #48
 696 039e 8023     		movs	r3, #128
 697 03a0 FFF7FEFF 		bl	u8g_DrawBox
ARM GAS  C:\Users\KJA\AppData\Local\Temp\ccbnGHAr.s 			page 17


 143:LCD_Menu.c    ****                     u8g_SetDefaultBackgroundColor(&u8g);
 698              		.loc 1 143 0
 699 03a4 8148     		ldr	r0, .L224
 700 03a6 FFF7FEFF 		bl	u8g_SetDefaultBackgroundColor
 701              	.L33:
 144:LCD_Menu.c    ****                 }
 145:LCD_Menu.c    ****                 
 146:LCD_Menu.c    ****                 u8g_SetFont(&u8g, u8g_font_unifont);              
 702              		.loc 1 146 0
 703 03aa 8048     		ldr	r0, .L224
 704 03ac 8049     		ldr	r1, .L224+4
 705 03ae FFF7FEFF 		bl	u8g_SetFont
 147:LCD_Menu.c    ****                 u8g_DrawStr(&u8g,  2, 60, "Settings");
 706              		.loc 1 147 0
 707 03b2 7E48     		ldr	r0, .L224
 708 03b4 0221     		movs	r1, #2
 709 03b6 3C22     		movs	r2, #60
 710 03b8 814B     		ldr	r3, .L224+20
 711 03ba FFF7FEFF 		bl	u8g_DrawStr
 148:LCD_Menu.c    ****                 
 149:LCD_Menu.c    ****             } while ( u8g_NextPage(&u8g) );
 712              		.loc 1 149 0
 713 03be 7B48     		ldr	r0, .L224
 714 03c0 FFF7FEFF 		bl	u8g_NextPage
 715 03c4 0346     		mov	r3, r0
 716 03c6 002B     		cmp	r3, #0
 717 03c8 8DD1     		bne	.L34
 150:LCD_Menu.c    ****       break;
 718              		.loc 1 150 0
 719 03ca 01F018BC 		b	.L1
 720              	.L6:
 151:LCD_Menu.c    ****      
 152:LCD_Menu.c    ****       case ConstantMode: 
 153:LCD_Menu.c    ****             u8g_FirstPage(&u8g);
 721              		.loc 1 153 0
 722 03ce 7748     		ldr	r0, .L224
 723 03d0 FFF7FEFF 		bl	u8g_FirstPage
 724              	.L39:
 154:LCD_Menu.c    ****             do{
 155:LCD_Menu.c    ****                 u8g_SetDefaultForegroundColor(&u8g);
 725              		.loc 1 155 0
 726 03d4 7548     		ldr	r0, .L224
 727 03d6 FFF7FEFF 		bl	u8g_SetDefaultForegroundColor
 156:LCD_Menu.c    ****                 if(Current_Menu_Position == 3){
 728              		.loc 1 156 0
 729 03da BB79     		ldrb	r3, [r7, #6]	@ zero_extendqisi2
 730 03dc 032B     		cmp	r3, #3
 731 03de 0AD1     		bne	.L35
 157:LCD_Menu.c    ****                     u8g_DrawBox(&u8g, 0,0,128,16);
 732              		.loc 1 157 0
 733 03e0 1023     		movs	r3, #16
 734 03e2 0093     		str	r3, [sp]
 735 03e4 7148     		ldr	r0, .L224
 736 03e6 0021     		movs	r1, #0
 737 03e8 0022     		movs	r2, #0
 738 03ea 8023     		movs	r3, #128
 739 03ec FFF7FEFF 		bl	u8g_DrawBox
ARM GAS  C:\Users\KJA\AppData\Local\Temp\ccbnGHAr.s 			page 18


 158:LCD_Menu.c    ****                     u8g_SetDefaultBackgroundColor(&u8g);
 740              		.loc 1 158 0
 741 03f0 6E48     		ldr	r0, .L224
 742 03f2 FFF7FEFF 		bl	u8g_SetDefaultBackgroundColor
 743              	.L35:
 159:LCD_Menu.c    ****                 }             
 160:LCD_Menu.c    ****                 
 161:LCD_Menu.c    ****                 u8g_SetFont(&u8g, u8g_font_unifont);   
 744              		.loc 1 161 0
 745 03f6 6D48     		ldr	r0, .L224
 746 03f8 6D49     		ldr	r1, .L224+4
 747 03fa FFF7FEFF 		bl	u8g_SetFont
 162:LCD_Menu.c    ****                 u8g_DrawStr(&u8g,  2, 13, "Const Current");
 748              		.loc 1 162 0
 749 03fe 6B48     		ldr	r0, .L224
 750 0400 0221     		movs	r1, #2
 751 0402 0D22     		movs	r2, #13
 752 0404 6F4B     		ldr	r3, .L224+24
 753 0406 FFF7FEFF 		bl	u8g_DrawStr
 163:LCD_Menu.c    ****                 
 164:LCD_Menu.c    ****                 u8g_SetDefaultForegroundColor(&u8g);                
 754              		.loc 1 164 0
 755 040a 6848     		ldr	r0, .L224
 756 040c FFF7FEFF 		bl	u8g_SetDefaultForegroundColor
 165:LCD_Menu.c    ****                 if(Current_Menu_Position == 2){
 757              		.loc 1 165 0
 758 0410 BB79     		ldrb	r3, [r7, #6]	@ zero_extendqisi2
 759 0412 022B     		cmp	r3, #2
 760 0414 0AD1     		bne	.L36
 166:LCD_Menu.c    ****                     u8g_DrawBox(&u8g, 0,16,128,16);
 761              		.loc 1 166 0
 762 0416 1023     		movs	r3, #16
 763 0418 0093     		str	r3, [sp]
 764 041a 6448     		ldr	r0, .L224
 765 041c 0021     		movs	r1, #0
 766 041e 1022     		movs	r2, #16
 767 0420 8023     		movs	r3, #128
 768 0422 FFF7FEFF 		bl	u8g_DrawBox
 167:LCD_Menu.c    ****                     u8g_SetDefaultBackgroundColor(&u8g);
 769              		.loc 1 167 0
 770 0426 6148     		ldr	r0, .L224
 771 0428 FFF7FEFF 		bl	u8g_SetDefaultBackgroundColor
 772              	.L36:
 168:LCD_Menu.c    ****                 }
 169:LCD_Menu.c    ****                 
 170:LCD_Menu.c    ****                 u8g_SetFont(&u8g, u8g_font_unifont);              
 773              		.loc 1 170 0
 774 042c 5F48     		ldr	r0, .L224
 775 042e 6049     		ldr	r1, .L224+4
 776 0430 FFF7FEFF 		bl	u8g_SetFont
 171:LCD_Menu.c    ****                 u8g_DrawStr(&u8g,  2, 29, "Const Power");
 777              		.loc 1 171 0
 778 0434 5D48     		ldr	r0, .L224
 779 0436 0221     		movs	r1, #2
 780 0438 1D22     		movs	r2, #29
 781 043a 634B     		ldr	r3, .L224+28
 782 043c FFF7FEFF 		bl	u8g_DrawStr
ARM GAS  C:\Users\KJA\AppData\Local\Temp\ccbnGHAr.s 			page 19


 172:LCD_Menu.c    ****                 
 173:LCD_Menu.c    ****                 u8g_SetDefaultForegroundColor(&u8g);
 783              		.loc 1 173 0
 784 0440 5A48     		ldr	r0, .L224
 785 0442 FFF7FEFF 		bl	u8g_SetDefaultForegroundColor
 174:LCD_Menu.c    ****                 if(Current_Menu_Position == 1){
 786              		.loc 1 174 0
 787 0446 BB79     		ldrb	r3, [r7, #6]	@ zero_extendqisi2
 788 0448 012B     		cmp	r3, #1
 789 044a 0AD1     		bne	.L37
 175:LCD_Menu.c    ****                     u8g_DrawBox(&u8g, 0,32,128,16);
 790              		.loc 1 175 0
 791 044c 1023     		movs	r3, #16
 792 044e 0093     		str	r3, [sp]
 793 0450 5648     		ldr	r0, .L224
 794 0452 0021     		movs	r1, #0
 795 0454 2022     		movs	r2, #32
 796 0456 8023     		movs	r3, #128
 797 0458 FFF7FEFF 		bl	u8g_DrawBox
 176:LCD_Menu.c    ****                     u8g_SetDefaultBackgroundColor(&u8g);
 798              		.loc 1 176 0
 799 045c 5348     		ldr	r0, .L224
 800 045e FFF7FEFF 		bl	u8g_SetDefaultBackgroundColor
 801              	.L37:
 177:LCD_Menu.c    ****                 }
 178:LCD_Menu.c    ****                 
 179:LCD_Menu.c    ****                 u8g_SetFont(&u8g, u8g_font_unifont);              
 802              		.loc 1 179 0
 803 0462 5248     		ldr	r0, .L224
 804 0464 5249     		ldr	r1, .L224+4
 805 0466 FFF7FEFF 		bl	u8g_SetFont
 180:LCD_Menu.c    ****                 u8g_DrawStr(&u8g,  2, 45, "Const Resist");
 806              		.loc 1 180 0
 807 046a 5048     		ldr	r0, .L224
 808 046c 0221     		movs	r1, #2
 809 046e 2D22     		movs	r2, #45
 810 0470 564B     		ldr	r3, .L224+32
 811 0472 FFF7FEFF 		bl	u8g_DrawStr
 181:LCD_Menu.c    ****                 
 182:LCD_Menu.c    ****                 u8g_SetDefaultForegroundColor(&u8g);
 812              		.loc 1 182 0
 813 0476 4D48     		ldr	r0, .L224
 814 0478 FFF7FEFF 		bl	u8g_SetDefaultForegroundColor
 183:LCD_Menu.c    ****                 if(Current_Menu_Position == 0){
 815              		.loc 1 183 0
 816 047c BB79     		ldrb	r3, [r7, #6]	@ zero_extendqisi2
 817 047e 002B     		cmp	r3, #0
 818 0480 0AD1     		bne	.L38
 184:LCD_Menu.c    ****                     u8g_DrawBox(&u8g, 0,48,128,16);
 819              		.loc 1 184 0
 820 0482 1023     		movs	r3, #16
 821 0484 0093     		str	r3, [sp]
 822 0486 4948     		ldr	r0, .L224
 823 0488 0021     		movs	r1, #0
 824 048a 3022     		movs	r2, #48
 825 048c 8023     		movs	r3, #128
 826 048e FFF7FEFF 		bl	u8g_DrawBox
ARM GAS  C:\Users\KJA\AppData\Local\Temp\ccbnGHAr.s 			page 20


 185:LCD_Menu.c    ****                     u8g_SetDefaultBackgroundColor(&u8g);
 827              		.loc 1 185 0
 828 0492 4648     		ldr	r0, .L224
 829 0494 FFF7FEFF 		bl	u8g_SetDefaultBackgroundColor
 830              	.L38:
 186:LCD_Menu.c    ****                 }
 187:LCD_Menu.c    ****                 
 188:LCD_Menu.c    ****                 u8g_SetFont(&u8g, u8g_font_unifont);              
 831              		.loc 1 188 0
 832 0498 4448     		ldr	r0, .L224
 833 049a 4549     		ldr	r1, .L224+4
 834 049c FFF7FEFF 		bl	u8g_SetFont
 189:LCD_Menu.c    ****                 u8g_DrawStr(&u8g,  2, 60, "          <-Back");
 835              		.loc 1 189 0
 836 04a0 4248     		ldr	r0, .L224
 837 04a2 0221     		movs	r1, #2
 838 04a4 3C22     		movs	r2, #60
 839 04a6 4A4B     		ldr	r3, .L224+36
 840 04a8 FFF7FEFF 		bl	u8g_DrawStr
 190:LCD_Menu.c    ****                 
 191:LCD_Menu.c    ****                 
 192:LCD_Menu.c    ****                 
 193:LCD_Menu.c    ****             } while ( u8g_NextPage(&u8g) );
 841              		.loc 1 193 0
 842 04ac 3F48     		ldr	r0, .L224
 843 04ae FFF7FEFF 		bl	u8g_NextPage
 844 04b2 0346     		mov	r3, r0
 845 04b4 002B     		cmp	r3, #0
 846 04b6 8DD1     		bne	.L39
 194:LCD_Menu.c    ****         
 195:LCD_Menu.c    ****       break;
 847              		.loc 1 195 0
 848 04b8 01F0A1BB 		b	.L1
 849              	.L7:
 196:LCD_Menu.c    **** 
 197:LCD_Menu.c    ****       case ArbitraryMode: 
 198:LCD_Menu.c    ****             u8g_FirstPage(&u8g);
 850              		.loc 1 198 0
 851 04bc 3B48     		ldr	r0, .L224
 852 04be FFF7FEFF 		bl	u8g_FirstPage
 853              	.L44:
 199:LCD_Menu.c    ****             do{
 200:LCD_Menu.c    ****                 u8g_SetDefaultForegroundColor(&u8g);
 854              		.loc 1 200 0
 855 04c2 3A48     		ldr	r0, .L224
 856 04c4 FFF7FEFF 		bl	u8g_SetDefaultForegroundColor
 201:LCD_Menu.c    ****                 if(Current_Menu_Position == 3){
 857              		.loc 1 201 0
 858 04c8 BB79     		ldrb	r3, [r7, #6]	@ zero_extendqisi2
 859 04ca 032B     		cmp	r3, #3
 860 04cc 0AD1     		bne	.L40
 202:LCD_Menu.c    ****                     u8g_DrawBox(&u8g, 0,0,128,16);
 861              		.loc 1 202 0
 862 04ce 1023     		movs	r3, #16
 863 04d0 0093     		str	r3, [sp]
 864 04d2 3648     		ldr	r0, .L224
 865 04d4 0021     		movs	r1, #0
ARM GAS  C:\Users\KJA\AppData\Local\Temp\ccbnGHAr.s 			page 21


 866 04d6 0022     		movs	r2, #0
 867 04d8 8023     		movs	r3, #128
 868 04da FFF7FEFF 		bl	u8g_DrawBox
 203:LCD_Menu.c    ****                     u8g_SetDefaultBackgroundColor(&u8g);
 869              		.loc 1 203 0
 870 04de 3348     		ldr	r0, .L224
 871 04e0 FFF7FEFF 		bl	u8g_SetDefaultBackgroundColor
 872              	.L40:
 204:LCD_Menu.c    ****                 }             
 205:LCD_Menu.c    ****                 
 206:LCD_Menu.c    ****                 u8g_SetFont(&u8g, u8g_font_unifont);   
 873              		.loc 1 206 0
 874 04e4 3148     		ldr	r0, .L224
 875 04e6 3249     		ldr	r1, .L224+4
 876 04e8 FFF7FEFF 		bl	u8g_SetFont
 207:LCD_Menu.c    ****                 u8g_DrawStr(&u8g,  2, 13, "Waveform Mode");
 877              		.loc 1 207 0
 878 04ec 2F48     		ldr	r0, .L224
 879 04ee 0221     		movs	r1, #2
 880 04f0 0D22     		movs	r2, #13
 881 04f2 384B     		ldr	r3, .L224+40
 882 04f4 FFF7FEFF 		bl	u8g_DrawStr
 208:LCD_Menu.c    ****                 
 209:LCD_Menu.c    ****                 u8g_SetDefaultForegroundColor(&u8g);                
 883              		.loc 1 209 0
 884 04f8 2C48     		ldr	r0, .L224
 885 04fa FFF7FEFF 		bl	u8g_SetDefaultForegroundColor
 210:LCD_Menu.c    ****                 if(Current_Menu_Position == 2){
 886              		.loc 1 210 0
 887 04fe BB79     		ldrb	r3, [r7, #6]	@ zero_extendqisi2
 888 0500 022B     		cmp	r3, #2
 889 0502 0AD1     		bne	.L41
 211:LCD_Menu.c    ****                     u8g_DrawBox(&u8g, 0,16,128,16);
 890              		.loc 1 211 0
 891 0504 1023     		movs	r3, #16
 892 0506 0093     		str	r3, [sp]
 893 0508 2848     		ldr	r0, .L224
 894 050a 0021     		movs	r1, #0
 895 050c 1022     		movs	r2, #16
 896 050e 8023     		movs	r3, #128
 897 0510 FFF7FEFF 		bl	u8g_DrawBox
 212:LCD_Menu.c    ****                     u8g_SetDefaultBackgroundColor(&u8g);
 898              		.loc 1 212 0
 899 0514 2548     		ldr	r0, .L224
 900 0516 FFF7FEFF 		bl	u8g_SetDefaultBackgroundColor
 901              	.L41:
 213:LCD_Menu.c    ****                 }
 214:LCD_Menu.c    ****                 
 215:LCD_Menu.c    ****                 u8g_SetFont(&u8g, u8g_font_unifont);              
 902              		.loc 1 215 0
 903 051a 2448     		ldr	r0, .L224
 904 051c 2449     		ldr	r1, .L224+4
 905 051e FFF7FEFF 		bl	u8g_SetFont
 216:LCD_Menu.c    ****                 u8g_DrawStr(&u8g,  2, 29, "PWM Mode");
 906              		.loc 1 216 0
 907 0522 2248     		ldr	r0, .L224
 908 0524 0221     		movs	r1, #2
ARM GAS  C:\Users\KJA\AppData\Local\Temp\ccbnGHAr.s 			page 22


 909 0526 1D22     		movs	r2, #29
 910 0528 2B4B     		ldr	r3, .L224+44
 911 052a FFF7FEFF 		bl	u8g_DrawStr
 217:LCD_Menu.c    ****                 
 218:LCD_Menu.c    ****                 u8g_SetDefaultForegroundColor(&u8g);
 912              		.loc 1 218 0
 913 052e 1F48     		ldr	r0, .L224
 914 0530 FFF7FEFF 		bl	u8g_SetDefaultForegroundColor
 219:LCD_Menu.c    ****                 if(Current_Menu_Position == 1){
 915              		.loc 1 219 0
 916 0534 BB79     		ldrb	r3, [r7, #6]	@ zero_extendqisi2
 917 0536 012B     		cmp	r3, #1
 918 0538 0AD1     		bne	.L42
 220:LCD_Menu.c    ****                     u8g_DrawBox(&u8g, 0,32,128,16);
 919              		.loc 1 220 0
 920 053a 1023     		movs	r3, #16
 921 053c 0093     		str	r3, [sp]
 922 053e 1B48     		ldr	r0, .L224
 923 0540 0021     		movs	r1, #0
 924 0542 2022     		movs	r2, #32
 925 0544 8023     		movs	r3, #128
 926 0546 FFF7FEFF 		bl	u8g_DrawBox
 221:LCD_Menu.c    ****                     u8g_SetDefaultBackgroundColor(&u8g);
 927              		.loc 1 221 0
 928 054a 1848     		ldr	r0, .L224
 929 054c FFF7FEFF 		bl	u8g_SetDefaultBackgroundColor
 930              	.L42:
 222:LCD_Menu.c    ****                 }
 223:LCD_Menu.c    ****                 
 224:LCD_Menu.c    ****                 u8g_SetFont(&u8g, u8g_font_unifont);              
 931              		.loc 1 224 0
 932 0550 1648     		ldr	r0, .L224
 933 0552 1749     		ldr	r1, .L224+4
 934 0554 FFF7FEFF 		bl	u8g_SetFont
 225:LCD_Menu.c    ****                 u8g_DrawStr(&u8g,  2, 45, "External Drive");
 935              		.loc 1 225 0
 936 0558 1448     		ldr	r0, .L224
 937 055a 0221     		movs	r1, #2
 938 055c 2D22     		movs	r2, #45
 939 055e 1F4B     		ldr	r3, .L224+48
 940 0560 FFF7FEFF 		bl	u8g_DrawStr
 226:LCD_Menu.c    ****                 
 227:LCD_Menu.c    ****                 u8g_SetDefaultForegroundColor(&u8g);
 941              		.loc 1 227 0
 942 0564 1148     		ldr	r0, .L224
 943 0566 FFF7FEFF 		bl	u8g_SetDefaultForegroundColor
 228:LCD_Menu.c    ****                 if(Current_Menu_Position == 0){
 944              		.loc 1 228 0
 945 056a BB79     		ldrb	r3, [r7, #6]	@ zero_extendqisi2
 946 056c 002B     		cmp	r3, #0
 947 056e 0AD1     		bne	.L43
 229:LCD_Menu.c    ****                     u8g_DrawBox(&u8g, 0,48,128,16);
 948              		.loc 1 229 0
 949 0570 1023     		movs	r3, #16
 950 0572 0093     		str	r3, [sp]
 951 0574 0D48     		ldr	r0, .L224
 952 0576 0021     		movs	r1, #0
ARM GAS  C:\Users\KJA\AppData\Local\Temp\ccbnGHAr.s 			page 23


 953 0578 3022     		movs	r2, #48
 954 057a 8023     		movs	r3, #128
 955 057c FFF7FEFF 		bl	u8g_DrawBox
 230:LCD_Menu.c    ****                     u8g_SetDefaultBackgroundColor(&u8g);
 956              		.loc 1 230 0
 957 0580 0A48     		ldr	r0, .L224
 958 0582 FFF7FEFF 		bl	u8g_SetDefaultBackgroundColor
 959              	.L43:
 231:LCD_Menu.c    ****                 }
 232:LCD_Menu.c    ****                 
 233:LCD_Menu.c    ****                 u8g_SetFont(&u8g, u8g_font_unifont);              
 960              		.loc 1 233 0
 961 0586 0948     		ldr	r0, .L224
 962 0588 0949     		ldr	r1, .L224+4
 963 058a FFF7FEFF 		bl	u8g_SetFont
 234:LCD_Menu.c    ****                 u8g_DrawStr(&u8g,  2, 60, "          <-Back");
 964              		.loc 1 234 0
 965 058e 0748     		ldr	r0, .L224
 966 0590 0221     		movs	r1, #2
 967 0592 3C22     		movs	r2, #60
 968 0594 0E4B     		ldr	r3, .L224+36
 969 0596 FFF7FEFF 		bl	u8g_DrawStr
 235:LCD_Menu.c    ****                 
 236:LCD_Menu.c    ****             } while ( u8g_NextPage(&u8g) );
 970              		.loc 1 236 0
 971 059a 0448     		ldr	r0, .L224
 972 059c FFF7FEFF 		bl	u8g_NextPage
 973 05a0 0346     		mov	r3, r0
 974 05a2 002B     		cmp	r3, #0
 975 05a4 8DD1     		bne	.L44
 237:LCD_Menu.c    ****         
 238:LCD_Menu.c    ****       break;
 976              		.loc 1 238 0
 977 05a6 01F02ABB 		b	.L1
 978              	.L225:
 979 05aa 00BF     		.align	2
 980              	.L224:
 981 05ac 00000000 		.word	u8g
 982 05b0 00000000 		.word	u8g_font_unifont
 983 05b4 8C000000 		.word	.LC10
 984 05b8 9C000000 		.word	.LC11
 985 05bc 70000000 		.word	.LC8
 986 05c0 80000000 		.word	.LC9
 987 05c4 AC000000 		.word	.LC12
 988 05c8 BC000000 		.word	.LC13
 989 05cc C8000000 		.word	.LC14
 990 05d0 D8000000 		.word	.LC15
 991 05d4 EC000000 		.word	.LC16
 992 05d8 FC000000 		.word	.LC17
 993 05dc 08010000 		.word	.LC18
 994              	.L20:
 239:LCD_Menu.c    ****             
 240:LCD_Menu.c    ****       case WaveForm_Mode: 
 241:LCD_Menu.c    ****             u8g_FirstPage(&u8g);
 995              		.loc 1 241 0
 996 05e0 A648     		ldr	r0, .L226
 997 05e2 FFF7FEFF 		bl	u8g_FirstPage
ARM GAS  C:\Users\KJA\AppData\Local\Temp\ccbnGHAr.s 			page 24


 998              	.L45:
 242:LCD_Menu.c    ****             do{
 243:LCD_Menu.c    ****                 u8g_SetDefaultForegroundColor(&u8g);         
 999              		.loc 1 243 0 discriminator 1
 1000 05e6 A548     		ldr	r0, .L226
 1001 05e8 FFF7FEFF 		bl	u8g_SetDefaultForegroundColor
 244:LCD_Menu.c    ****                 u8g_SetFont(&u8g, u8g_font_unifont);                
 1002              		.loc 1 244 0 discriminator 1
 1003 05ec A348     		ldr	r0, .L226
 1004 05ee A449     		ldr	r1, .L226+4
 1005 05f0 FFF7FEFF 		bl	u8g_SetFont
 245:LCD_Menu.c    ****                 u8g_DrawStr(&u8g,  30, 12, "WaveForm_Mode");
 1006              		.loc 1 245 0 discriminator 1
 1007 05f4 A148     		ldr	r0, .L226
 1008 05f6 1E21     		movs	r1, #30
 1009 05f8 0C22     		movs	r2, #12
 1010 05fa A24B     		ldr	r3, .L226+8
 1011 05fc FFF7FEFF 		bl	u8g_DrawStr
 246:LCD_Menu.c    **** 
 247:LCD_Menu.c    ****             } while ( u8g_NextPage(&u8g) ); 
 1012              		.loc 1 247 0 discriminator 1
 1013 0600 9E48     		ldr	r0, .L226
 1014 0602 FFF7FEFF 		bl	u8g_NextPage
 1015 0606 0346     		mov	r3, r0
 1016 0608 002B     		cmp	r3, #0
 1017 060a ECD1     		bne	.L45
 248:LCD_Menu.c    ****       break;
 1018              		.loc 1 248 0
 1019 060c 01F0F7BA 		b	.L1
 1020              	.L21:
 249:LCD_Menu.c    ****             
 250:LCD_Menu.c    ****             
 251:LCD_Menu.c    ****       case PWM_Mode: 
 252:LCD_Menu.c    ****             u8g_FirstPage(&u8g);
 1021              		.loc 1 252 0
 1022 0610 9A48     		ldr	r0, .L226
 1023 0612 FFF7FEFF 		bl	u8g_FirstPage
 1024              	.L91:
 253:LCD_Menu.c    ****             do{
 254:LCD_Menu.c    ****                 u8g_SetDefaultForegroundColor(&u8g);
 1025              		.loc 1 254 0
 1026 0616 9948     		ldr	r0, .L226
 1027 0618 FFF7FEFF 		bl	u8g_SetDefaultForegroundColor
 255:LCD_Menu.c    ****                 if(Current_Menu_Position == 2){
 1028              		.loc 1 255 0
 1029 061c BB79     		ldrb	r3, [r7, #6]	@ zero_extendqisi2
 1030 061e 022B     		cmp	r3, #2
 1031 0620 1AD1     		bne	.L46
 256:LCD_Menu.c    ****                     if(Edit_Value_Mode == 0){
 1032              		.loc 1 256 0
 1033 0622 994B     		ldr	r3, .L226+12
 1034 0624 1B78     		ldrb	r3, [r3]	@ zero_extendqisi2
 1035 0626 002B     		cmp	r3, #0
 1036 0628 07D1     		bne	.L47
 257:LCD_Menu.c    ****                         u8g_DrawBox(&u8g, 0,0,128,16);
 1037              		.loc 1 257 0
 1038 062a 1023     		movs	r3, #16
ARM GAS  C:\Users\KJA\AppData\Local\Temp\ccbnGHAr.s 			page 25


 1039 062c 0093     		str	r3, [sp]
 1040 062e 9348     		ldr	r0, .L226
 1041 0630 0021     		movs	r1, #0
 1042 0632 0022     		movs	r2, #0
 1043 0634 8023     		movs	r3, #128
 1044 0636 FFF7FEFF 		bl	u8g_DrawBox
 1045              	.L47:
 258:LCD_Menu.c    ****                     }
 259:LCD_Menu.c    ****                     if(Edit_Value_Mode == 1){
 1046              		.loc 1 259 0
 1047 063a 934B     		ldr	r3, .L226+12
 1048 063c 1B78     		ldrb	r3, [r3]	@ zero_extendqisi2
 1049 063e 012B     		cmp	r3, #1
 1050 0640 07D1     		bne	.L48
 260:LCD_Menu.c    ****                         u8g_DrawBox(&u8g, 43,0,128,16);
 1051              		.loc 1 260 0
 1052 0642 1023     		movs	r3, #16
 1053 0644 0093     		str	r3, [sp]
 1054 0646 8D48     		ldr	r0, .L226
 1055 0648 2B21     		movs	r1, #43
 1056 064a 0022     		movs	r2, #0
 1057 064c 8023     		movs	r3, #128
 1058 064e FFF7FEFF 		bl	u8g_DrawBox
 1059              	.L48:
 261:LCD_Menu.c    ****                     }
 262:LCD_Menu.c    ****                     u8g_SetDefaultBackgroundColor(&u8g);
 1060              		.loc 1 262 0
 1061 0652 8A48     		ldr	r0, .L226
 1062 0654 FFF7FEFF 		bl	u8g_SetDefaultBackgroundColor
 1063              	.L46:
 263:LCD_Menu.c    ****                 }             
 264:LCD_Menu.c    ****                 u8g_SetFont(&u8g, u8g_font_unifont);
 1064              		.loc 1 264 0
 1065 0658 8848     		ldr	r0, .L226
 1066 065a 8949     		ldr	r1, .L226+4
 1067 065c FFF7FEFF 		bl	u8g_SetFont
 265:LCD_Menu.c    ****                 
 266:LCD_Menu.c    ****                 if(Set_Ampl <10)                u8g_DrawStr(&u8g,  82, 13, cSet_Ampl);
 1068              		.loc 1 266 0
 1069 0660 8A4B     		ldr	r3, .L226+16
 1070 0662 1B88     		ldrh	r3, [r3]
 1071 0664 1BB2     		sxth	r3, r3
 1072 0666 092B     		cmp	r3, #9
 1073 0668 06DC     		bgt	.L49
 1074              		.loc 1 266 0 is_stmt 0 discriminator 1
 1075 066a 8448     		ldr	r0, .L226
 1076 066c 5221     		movs	r1, #82
 1077 066e 0D22     		movs	r2, #13
 1078 0670 874B     		ldr	r3, .L226+20
 1079 0672 FFF7FEFF 		bl	u8g_DrawStr
 1080 0676 1EE0     		b	.L50
 1081              	.L49:
 267:LCD_Menu.c    ****                 else if(Set_Ampl <100)          u8g_DrawStr(&u8g,  74, 13, cSet_Ampl);
 1082              		.loc 1 267 0 is_stmt 1
 1083 0678 844B     		ldr	r3, .L226+16
 1084 067a 1B88     		ldrh	r3, [r3]
 1085 067c 1BB2     		sxth	r3, r3
ARM GAS  C:\Users\KJA\AppData\Local\Temp\ccbnGHAr.s 			page 26


 1086 067e 632B     		cmp	r3, #99
 1087 0680 06DC     		bgt	.L51
 1088              		.loc 1 267 0 is_stmt 0 discriminator 1
 1089 0682 7E48     		ldr	r0, .L226
 1090 0684 4A21     		movs	r1, #74
 1091 0686 0D22     		movs	r2, #13
 1092 0688 814B     		ldr	r3, .L226+20
 1093 068a FFF7FEFF 		bl	u8g_DrawStr
 1094 068e 12E0     		b	.L50
 1095              	.L51:
 268:LCD_Menu.c    ****                 else if(Set_Ampl <1000)         u8g_DrawStr(&u8g,  66, 13, cSet_Ampl);
 1096              		.loc 1 268 0 is_stmt 1
 1097 0690 7E4B     		ldr	r3, .L226+16
 1098 0692 1B88     		ldrh	r3, [r3]
 1099 0694 1BB2     		sxth	r3, r3
 1100 0696 B3F57A7F 		cmp	r3, #1000
 1101 069a 06DA     		bge	.L52
 1102              		.loc 1 268 0 is_stmt 0 discriminator 1
 1103 069c 7748     		ldr	r0, .L226
 1104 069e 4221     		movs	r1, #66
 1105 06a0 0D22     		movs	r2, #13
 1106 06a2 7B4B     		ldr	r3, .L226+20
 1107 06a4 FFF7FEFF 		bl	u8g_DrawStr
 1108 06a8 05E0     		b	.L50
 1109              	.L52:
 269:LCD_Menu.c    ****                 else                            u8g_DrawStr(&u8g,  58, 13, cSet_Ampl);
 1110              		.loc 1 269 0 is_stmt 1
 1111 06aa 7448     		ldr	r0, .L226
 1112 06ac 3A21     		movs	r1, #58
 1113 06ae 0D22     		movs	r2, #13
 1114 06b0 774B     		ldr	r3, .L226+20
 1115 06b2 FFF7FEFF 		bl	u8g_DrawStr
 1116              	.L50:
 270:LCD_Menu.c    ****                 
 271:LCD_Menu.c    ****                 
 272:LCD_Menu.c    ****                 if(Current_Menu_Position == 2 && Edit_Value_Mode == 1){
 1117              		.loc 1 272 0
 1118 06b6 BB79     		ldrb	r3, [r7, #6]	@ zero_extendqisi2
 1119 06b8 022B     		cmp	r3, #2
 1120 06ba 06D1     		bne	.L53
 1121              		.loc 1 272 0 is_stmt 0 discriminator 1
 1122 06bc 724B     		ldr	r3, .L226+12
 1123 06be 1B78     		ldrb	r3, [r3]	@ zero_extendqisi2
 1124 06c0 012B     		cmp	r3, #1
 1125 06c2 02D1     		bne	.L53
 273:LCD_Menu.c    ****                     u8g_SetDefaultForegroundColor(&u8g);
 1126              		.loc 1 273 0 is_stmt 1
 1127 06c4 6D48     		ldr	r0, .L226
 1128 06c6 FFF7FEFF 		bl	u8g_SetDefaultForegroundColor
 1129              	.L53:
 274:LCD_Menu.c    ****                 }
 275:LCD_Menu.c    ****                 u8g_SetFont(&u8g, u8g_font_unifont);
 1130              		.loc 1 275 0
 1131 06ca 6C48     		ldr	r0, .L226
 1132 06cc 6C49     		ldr	r1, .L226+4
 1133 06ce FFF7FEFF 		bl	u8g_SetFont
 276:LCD_Menu.c    ****                 u8g_DrawStr(&u8g,  2, 13, "Ampl:");
ARM GAS  C:\Users\KJA\AppData\Local\Temp\ccbnGHAr.s 			page 27


 1134              		.loc 1 276 0
 1135 06d2 6A48     		ldr	r0, .L226
 1136 06d4 0221     		movs	r1, #2
 1137 06d6 0D22     		movs	r2, #13
 1138 06d8 6E4B     		ldr	r3, .L226+24
 1139 06da FFF7FEFF 		bl	u8g_DrawStr
 277:LCD_Menu.c    ****                 
 278:LCD_Menu.c    ****                 if(Current_Menu_Position == 2 && Edit_Value_Mode == 1){ 
 1140              		.loc 1 278 0
 1141 06de BB79     		ldrb	r3, [r7, #6]	@ zero_extendqisi2
 1142 06e0 022B     		cmp	r3, #2
 1143 06e2 33D1     		bne	.L54
 1144              		.loc 1 278 0 is_stmt 0 discriminator 1
 1145 06e4 684B     		ldr	r3, .L226+12
 1146 06e6 1B78     		ldrb	r3, [r3]	@ zero_extendqisi2
 1147 06e8 012B     		cmp	r3, #1
 1148 06ea 2FD1     		bne	.L54
 1149              	.LBB2:
 279:LCD_Menu.c    ****                         
 280:LCD_Menu.c    ****                         uint8 Underline;
 281:LCD_Menu.c    ****                     
 282:LCD_Menu.c    ****                         u8g_SetDefaultBackgroundColor(&u8g);
 1150              		.loc 1 282 0 is_stmt 1
 1151 06ec 6348     		ldr	r0, .L226
 1152 06ee FFF7FEFF 		bl	u8g_SetDefaultBackgroundColor
 283:LCD_Menu.c    ****                         
 284:LCD_Menu.c    ****                         if(Position_Number == 0) Underline = 59;
 1153              		.loc 1 284 0
 1154 06f2 694B     		ldr	r3, .L226+28
 1155 06f4 1B78     		ldrb	r3, [r3]	@ zero_extendqisi2
 1156 06f6 002B     		cmp	r3, #0
 1157 06f8 02D1     		bne	.L55
 1158              		.loc 1 284 0 is_stmt 0 discriminator 1
 1159 06fa 3B23     		movs	r3, #59
 1160 06fc FB75     		strb	r3, [r7, #23]
 1161 06fe 19E0     		b	.L56
 1162              	.L55:
 285:LCD_Menu.c    ****                         else if(Position_Number == 1) Underline = 67;
 1163              		.loc 1 285 0 is_stmt 1
 1164 0700 654B     		ldr	r3, .L226+28
 1165 0702 1B78     		ldrb	r3, [r3]	@ zero_extendqisi2
 1166 0704 5BB2     		sxtb	r3, r3
 1167 0706 012B     		cmp	r3, #1
 1168 0708 02D1     		bne	.L57
 1169              		.loc 1 285 0 is_stmt 0 discriminator 1
 1170 070a 4323     		movs	r3, #67
 1171 070c FB75     		strb	r3, [r7, #23]
 1172 070e 11E0     		b	.L56
 1173              	.L57:
 286:LCD_Menu.c    ****                         else if(Position_Number == 2) Underline = 75;
 1174              		.loc 1 286 0 is_stmt 1
 1175 0710 614B     		ldr	r3, .L226+28
 1176 0712 1B78     		ldrb	r3, [r3]	@ zero_extendqisi2
 1177 0714 5BB2     		sxtb	r3, r3
 1178 0716 022B     		cmp	r3, #2
 1179 0718 02D1     		bne	.L58
 1180              		.loc 1 286 0 is_stmt 0 discriminator 1
ARM GAS  C:\Users\KJA\AppData\Local\Temp\ccbnGHAr.s 			page 28


 1181 071a 4B23     		movs	r3, #75
 1182 071c FB75     		strb	r3, [r7, #23]
 1183 071e 09E0     		b	.L56
 1184              	.L58:
 287:LCD_Menu.c    ****                         else if(Position_Number == 3) Underline = 83;
 1185              		.loc 1 287 0 is_stmt 1
 1186 0720 5D4B     		ldr	r3, .L226+28
 1187 0722 1B78     		ldrb	r3, [r3]	@ zero_extendqisi2
 1188 0724 5BB2     		sxtb	r3, r3
 1189 0726 032B     		cmp	r3, #3
 1190 0728 02D1     		bne	.L59
 1191              		.loc 1 287 0 is_stmt 0 discriminator 1
 1192 072a 5323     		movs	r3, #83
 1193 072c FB75     		strb	r3, [r7, #23]
 1194 072e 01E0     		b	.L56
 1195              	.L59:
 288:LCD_Menu.c    ****                         else Underline = 59;
 1196              		.loc 1 288 0 is_stmt 1
 1197 0730 3B23     		movs	r3, #59
 1198 0732 FB75     		strb	r3, [r7, #23]
 1199              	.L56:
 289:LCD_Menu.c    ****                         
 290:LCD_Menu.c    ****                         u8g_DrawLine(&u8g,Underline,14,Underline+5,14);
 1200              		.loc 1 290 0
 1201 0734 FB7D     		ldrb	r3, [r7, #23]
 1202 0736 0533     		adds	r3, r3, #5
 1203 0738 DCB2     		uxtb	r4, r3
 1204 073a FA7D     		ldrb	r2, [r7, #23]	@ zero_extendqisi2
 1205 073c 0E23     		movs	r3, #14
 1206 073e 0093     		str	r3, [sp]
 1207 0740 4E48     		ldr	r0, .L226
 1208 0742 1146     		mov	r1, r2
 1209 0744 0E22     		movs	r2, #14
 1210 0746 2346     		mov	r3, r4
 1211 0748 FFF7FEFF 		bl	u8g_DrawLine
 1212              	.L54:
 1213              	.LBE2:
 291:LCD_Menu.c    ****                 }
 292:LCD_Menu.c    ****                 
 293:LCD_Menu.c    ****                 
 294:LCD_Menu.c    ****                 
 295:LCD_Menu.c    ****                 
 296:LCD_Menu.c    ****                 
 297:LCD_Menu.c    ****                 u8g_SetDefaultForegroundColor(&u8g);
 1214              		.loc 1 297 0
 1215 074c 4B48     		ldr	r0, .L226
 1216 074e FFF7FEFF 		bl	u8g_SetDefaultForegroundColor
 298:LCD_Menu.c    ****                 if(Current_Menu_Position == 1){
 1217              		.loc 1 298 0
 1218 0752 BB79     		ldrb	r3, [r7, #6]	@ zero_extendqisi2
 1219 0754 012B     		cmp	r3, #1
 1220 0756 1AD1     		bne	.L60
 299:LCD_Menu.c    ****                     if(Edit_Value_Mode == 0){
 1221              		.loc 1 299 0
 1222 0758 4B4B     		ldr	r3, .L226+12
 1223 075a 1B78     		ldrb	r3, [r3]	@ zero_extendqisi2
 1224 075c 002B     		cmp	r3, #0
ARM GAS  C:\Users\KJA\AppData\Local\Temp\ccbnGHAr.s 			page 29


 1225 075e 07D1     		bne	.L61
 300:LCD_Menu.c    ****                         u8g_DrawBox(&u8g, 0,16,128,16);
 1226              		.loc 1 300 0
 1227 0760 1023     		movs	r3, #16
 1228 0762 0093     		str	r3, [sp]
 1229 0764 4548     		ldr	r0, .L226
 1230 0766 0021     		movs	r1, #0
 1231 0768 1022     		movs	r2, #16
 1232 076a 8023     		movs	r3, #128
 1233 076c FFF7FEFF 		bl	u8g_DrawBox
 1234              	.L61:
 301:LCD_Menu.c    ****                     }
 302:LCD_Menu.c    ****                     if(Edit_Value_Mode == 1){
 1235              		.loc 1 302 0
 1236 0770 454B     		ldr	r3, .L226+12
 1237 0772 1B78     		ldrb	r3, [r3]	@ zero_extendqisi2
 1238 0774 012B     		cmp	r3, #1
 1239 0776 07D1     		bne	.L62
 303:LCD_Menu.c    ****                         u8g_DrawBox(&u8g, 43,16,128,16);
 1240              		.loc 1 303 0
 1241 0778 1023     		movs	r3, #16
 1242 077a 0093     		str	r3, [sp]
 1243 077c 3F48     		ldr	r0, .L226
 1244 077e 2B21     		movs	r1, #43
 1245 0780 1022     		movs	r2, #16
 1246 0782 8023     		movs	r3, #128
 1247 0784 FFF7FEFF 		bl	u8g_DrawBox
 1248              	.L62:
 304:LCD_Menu.c    ****                     }
 305:LCD_Menu.c    ****                     u8g_SetDefaultBackgroundColor(&u8g);     
 1249              		.loc 1 305 0
 1250 0788 3C48     		ldr	r0, .L226
 1251 078a FFF7FEFF 		bl	u8g_SetDefaultBackgroundColor
 1252              	.L60:
 306:LCD_Menu.c    ****                 }
 307:LCD_Menu.c    **** 
 308:LCD_Menu.c    ****                 u8g_SetFont(&u8g, u8g_font_unifont);
 1253              		.loc 1 308 0
 1254 078e 3B48     		ldr	r0, .L226
 1255 0790 3B49     		ldr	r1, .L226+4
 1256 0792 FFF7FEFF 		bl	u8g_SetFont
 309:LCD_Menu.c    ****                 if(Set_Freq <10)                u8g_DrawStr(&u8g,  82, 29, cSet_Freq);
 1257              		.loc 1 309 0
 1258 0796 414B     		ldr	r3, .L226+32
 1259 0798 1B88     		ldrh	r3, [r3]
 1260 079a 092B     		cmp	r3, #9
 1261 079c 06D8     		bhi	.L63
 1262              		.loc 1 309 0 is_stmt 0 discriminator 1
 1263 079e 3748     		ldr	r0, .L226
 1264 07a0 5221     		movs	r1, #82
 1265 07a2 1D22     		movs	r2, #29
 1266 07a4 3E4B     		ldr	r3, .L226+36
 1267 07a6 FFF7FEFF 		bl	u8g_DrawStr
 1268 07aa 29E0     		b	.L64
 1269              	.L63:
 310:LCD_Menu.c    ****                 else if(Set_Freq <100)          u8g_DrawStr(&u8g,  74, 29, cSet_Freq);
 1270              		.loc 1 310 0 is_stmt 1
ARM GAS  C:\Users\KJA\AppData\Local\Temp\ccbnGHAr.s 			page 30


 1271 07ac 3B4B     		ldr	r3, .L226+32
 1272 07ae 1B88     		ldrh	r3, [r3]
 1273 07b0 632B     		cmp	r3, #99
 1274 07b2 06D8     		bhi	.L65
 1275              		.loc 1 310 0 is_stmt 0 discriminator 1
 1276 07b4 3148     		ldr	r0, .L226
 1277 07b6 4A21     		movs	r1, #74
 1278 07b8 1D22     		movs	r2, #29
 1279 07ba 394B     		ldr	r3, .L226+36
 1280 07bc FFF7FEFF 		bl	u8g_DrawStr
 1281 07c0 1EE0     		b	.L64
 1282              	.L65:
 311:LCD_Menu.c    ****                 else if(Set_Freq <1000)         u8g_DrawStr(&u8g,  66, 29, cSet_Freq);
 1283              		.loc 1 311 0 is_stmt 1
 1284 07c2 364B     		ldr	r3, .L226+32
 1285 07c4 1B88     		ldrh	r3, [r3]
 1286 07c6 B3F57A7F 		cmp	r3, #1000
 1287 07ca 06D2     		bcs	.L66
 1288              		.loc 1 311 0 is_stmt 0 discriminator 1
 1289 07cc 2B48     		ldr	r0, .L226
 1290 07ce 4221     		movs	r1, #66
 1291 07d0 1D22     		movs	r2, #29
 1292 07d2 334B     		ldr	r3, .L226+36
 1293 07d4 FFF7FEFF 		bl	u8g_DrawStr
 1294 07d8 12E0     		b	.L64
 1295              	.L66:
 312:LCD_Menu.c    ****                 else if(Set_Freq <10000)        u8g_DrawStr(&u8g,  58, 29, cSet_Freq);             
 1296              		.loc 1 312 0 is_stmt 1
 1297 07da 304B     		ldr	r3, .L226+32
 1298 07dc 1B88     		ldrh	r3, [r3]
 1299 07de 42F20F72 		movw	r2, #9999
 1300 07e2 9342     		cmp	r3, r2
 1301 07e4 06D8     		bhi	.L67
 1302              		.loc 1 312 0 is_stmt 0 discriminator 1
 1303 07e6 2548     		ldr	r0, .L226
 1304 07e8 3A21     		movs	r1, #58
 1305 07ea 1D22     		movs	r2, #29
 1306 07ec 2C4B     		ldr	r3, .L226+36
 1307 07ee FFF7FEFF 		bl	u8g_DrawStr
 1308 07f2 05E0     		b	.L64
 1309              	.L67:
 313:LCD_Menu.c    ****                 else                            u8g_DrawStr(&u8g,  50, 29, cSet_Freq);
 1310              		.loc 1 313 0 is_stmt 1
 1311 07f4 2148     		ldr	r0, .L226
 1312 07f6 3221     		movs	r1, #50
 1313 07f8 1D22     		movs	r2, #29
 1314 07fa 294B     		ldr	r3, .L226+36
 1315 07fc FFF7FEFF 		bl	u8g_DrawStr
 1316              	.L64:
 314:LCD_Menu.c    ****                 if(Current_Menu_Position == 1 && Edit_Value_Mode == 1){
 1317              		.loc 1 314 0
 1318 0800 BB79     		ldrb	r3, [r7, #6]	@ zero_extendqisi2
 1319 0802 012B     		cmp	r3, #1
 1320 0804 06D1     		bne	.L68
 1321              		.loc 1 314 0 is_stmt 0 discriminator 1
 1322 0806 204B     		ldr	r3, .L226+12
 1323 0808 1B78     		ldrb	r3, [r3]	@ zero_extendqisi2
ARM GAS  C:\Users\KJA\AppData\Local\Temp\ccbnGHAr.s 			page 31


 1324 080a 012B     		cmp	r3, #1
 1325 080c 02D1     		bne	.L68
 315:LCD_Menu.c    ****                     u8g_SetDefaultForegroundColor(&u8g);
 1326              		.loc 1 315 0 is_stmt 1
 1327 080e 1B48     		ldr	r0, .L226
 1328 0810 FFF7FEFF 		bl	u8g_SetDefaultForegroundColor
 1329              	.L68:
 316:LCD_Menu.c    ****                 }
 317:LCD_Menu.c    ****                 u8g_SetFont(&u8g, u8g_font_unifont);              
 1330              		.loc 1 317 0
 1331 0814 1948     		ldr	r0, .L226
 1332 0816 1A49     		ldr	r1, .L226+4
 1333 0818 FFF7FEFF 		bl	u8g_SetFont
 318:LCD_Menu.c    ****                 u8g_DrawStr(&u8g,  2, 29, "Freq:");
 1334              		.loc 1 318 0
 1335 081c 1748     		ldr	r0, .L226
 1336 081e 0221     		movs	r1, #2
 1337 0820 1D22     		movs	r2, #29
 1338 0822 204B     		ldr	r3, .L226+40
 1339 0824 FFF7FEFF 		bl	u8g_DrawStr
 319:LCD_Menu.c    ****                 
 320:LCD_Menu.c    ****                 
 321:LCD_Menu.c    ****                 if(Current_Menu_Position == 1 && Edit_Value_Mode == 1){ 
 1340              		.loc 1 321 0
 1341 0828 BB79     		ldrb	r3, [r7, #6]	@ zero_extendqisi2
 1342 082a 012B     		cmp	r3, #1
 1343 082c 52D1     		bne	.L69
 1344              		.loc 1 321 0 is_stmt 0 discriminator 1
 1345 082e 164B     		ldr	r3, .L226+12
 1346 0830 1B78     		ldrb	r3, [r3]	@ zero_extendqisi2
 1347 0832 012B     		cmp	r3, #1
 1348 0834 4ED1     		bne	.L69
 1349              	.LBB3:
 322:LCD_Menu.c    ****                         
 323:LCD_Menu.c    ****                     uint8 Underline;
 324:LCD_Menu.c    ****                 
 325:LCD_Menu.c    ****                     u8g_SetDefaultBackgroundColor(&u8g);
 1350              		.loc 1 325 0 is_stmt 1
 1351 0836 1148     		ldr	r0, .L226
 1352 0838 FFF7FEFF 		bl	u8g_SetDefaultBackgroundColor
 326:LCD_Menu.c    ****                     
 327:LCD_Menu.c    ****                     if(Position_Number == 0) Underline = 51;
 1353              		.loc 1 327 0
 1354 083c 164B     		ldr	r3, .L226+28
 1355 083e 1B78     		ldrb	r3, [r3]	@ zero_extendqisi2
 1356 0840 002B     		cmp	r3, #0
 1357 0842 02D1     		bne	.L70
 1358              		.loc 1 327 0 is_stmt 0 discriminator 1
 1359 0844 3323     		movs	r3, #51
 1360 0846 BB75     		strb	r3, [r7, #22]
 1361 0848 38E0     		b	.L71
 1362              	.L70:
 328:LCD_Menu.c    ****                     else if(Position_Number == 1) Underline = 59;
 1363              		.loc 1 328 0 is_stmt 1
 1364 084a 134B     		ldr	r3, .L226+28
 1365 084c 1B78     		ldrb	r3, [r3]	@ zero_extendqisi2
 1366 084e 5BB2     		sxtb	r3, r3
ARM GAS  C:\Users\KJA\AppData\Local\Temp\ccbnGHAr.s 			page 32


 1367 0850 012B     		cmp	r3, #1
 1368 0852 02D1     		bne	.L72
 1369              		.loc 1 328 0 is_stmt 0 discriminator 1
 1370 0854 3B23     		movs	r3, #59
 1371 0856 BB75     		strb	r3, [r7, #22]
 1372 0858 30E0     		b	.L71
 1373              	.L72:
 329:LCD_Menu.c    ****                     else if(Position_Number == 2) Underline = 67;
 1374              		.loc 1 329 0 is_stmt 1
 1375 085a 0F4B     		ldr	r3, .L226+28
 1376 085c 1B78     		ldrb	r3, [r3]	@ zero_extendqisi2
 1377 085e 5BB2     		sxtb	r3, r3
 1378 0860 022B     		cmp	r3, #2
 1379 0862 02D1     		bne	.L73
 1380              		.loc 1 329 0 is_stmt 0 discriminator 1
 1381 0864 4323     		movs	r3, #67
 1382 0866 BB75     		strb	r3, [r7, #22]
 1383 0868 28E0     		b	.L71
 1384              	.L73:
 330:LCD_Menu.c    ****                     else if(Position_Number == 3) Underline = 75;
 1385              		.loc 1 330 0 is_stmt 1
 1386 086a 0B4B     		ldr	r3, .L226+28
 1387 086c 1B78     		ldrb	r3, [r3]	@ zero_extendqisi2
 1388 086e 5BB2     		sxtb	r3, r3
 1389 0870 032B     		cmp	r3, #3
 1390 0872 19D1     		bne	.L74
 1391              		.loc 1 330 0 is_stmt 0 discriminator 1
 1392 0874 4B23     		movs	r3, #75
 1393 0876 BB75     		strb	r3, [r7, #22]
 1394 0878 20E0     		b	.L71
 1395              	.L227:
 1396 087a 00BF     		.align	2
 1397              	.L226:
 1398 087c 00000000 		.word	u8g
 1399 0880 00000000 		.word	u8g_font_unifont
 1400 0884 18010000 		.word	.LC19
 1401 0888 00000000 		.word	Edit_Value_Mode
 1402 088c 00000000 		.word	Set_Ampl
 1403 0890 00000000 		.word	cSet_Ampl
 1404 0894 28010000 		.word	.LC20
 1405 0898 00000000 		.word	Position_Number
 1406 089c 00000000 		.word	Set_Freq
 1407 08a0 00000000 		.word	cSet_Freq
 1408 08a4 30010000 		.word	.LC21
 1409              	.L74:
 331:LCD_Menu.c    ****                     else if(Position_Number == 4) Underline = 83;
 1410              		.loc 1 331 0 is_stmt 1
 1411 08a8 A54B     		ldr	r3, .L228
 1412 08aa 1B78     		ldrb	r3, [r3]	@ zero_extendqisi2
 1413 08ac 5BB2     		sxtb	r3, r3
 1414 08ae 042B     		cmp	r3, #4
 1415 08b0 02D1     		bne	.L75
 1416              		.loc 1 331 0 is_stmt 0 discriminator 1
 1417 08b2 5323     		movs	r3, #83
 1418 08b4 BB75     		strb	r3, [r7, #22]
 1419 08b6 01E0     		b	.L71
 1420              	.L75:
ARM GAS  C:\Users\KJA\AppData\Local\Temp\ccbnGHAr.s 			page 33


 332:LCD_Menu.c    ****                     else Underline = 51;
 1421              		.loc 1 332 0 is_stmt 1
 1422 08b8 3323     		movs	r3, #51
 1423 08ba BB75     		strb	r3, [r7, #22]
 1424              	.L71:
 333:LCD_Menu.c    ****                     
 334:LCD_Menu.c    ****                     u8g_DrawLine(&u8g,Underline,30,Underline+5,30);
 1425              		.loc 1 334 0
 1426 08bc BB7D     		ldrb	r3, [r7, #22]
 1427 08be 0533     		adds	r3, r3, #5
 1428 08c0 DCB2     		uxtb	r4, r3
 1429 08c2 BA7D     		ldrb	r2, [r7, #22]	@ zero_extendqisi2
 1430 08c4 1E23     		movs	r3, #30
 1431 08c6 0093     		str	r3, [sp]
 1432 08c8 9E48     		ldr	r0, .L228+4
 1433 08ca 1146     		mov	r1, r2
 1434 08cc 1E22     		movs	r2, #30
 1435 08ce 2346     		mov	r3, r4
 1436 08d0 FFF7FEFF 		bl	u8g_DrawLine
 1437              	.L69:
 1438              	.LBE3:
 335:LCD_Menu.c    ****                 }
 336:LCD_Menu.c    ****                 
 337:LCD_Menu.c    ****                 u8g_SetDefaultForegroundColor(&u8g);
 1439              		.loc 1 337 0
 1440 08d4 9B48     		ldr	r0, .L228+4
 1441 08d6 FFF7FEFF 		bl	u8g_SetDefaultForegroundColor
 338:LCD_Menu.c    ****                 if(Current_Menu_Position == 0){                    
 1442              		.loc 1 338 0
 1443 08da BB79     		ldrb	r3, [r7, #6]	@ zero_extendqisi2
 1444 08dc 002B     		cmp	r3, #0
 1445 08de 1AD1     		bne	.L76
 339:LCD_Menu.c    ****                     if(Edit_Value_Mode == 0){
 1446              		.loc 1 339 0
 1447 08e0 994B     		ldr	r3, .L228+8
 1448 08e2 1B78     		ldrb	r3, [r3]	@ zero_extendqisi2
 1449 08e4 002B     		cmp	r3, #0
 1450 08e6 07D1     		bne	.L77
 340:LCD_Menu.c    ****                         u8g_DrawBox(&u8g, 0,32,128,16);
 1451              		.loc 1 340 0
 1452 08e8 1023     		movs	r3, #16
 1453 08ea 0093     		str	r3, [sp]
 1454 08ec 9548     		ldr	r0, .L228+4
 1455 08ee 0021     		movs	r1, #0
 1456 08f0 2022     		movs	r2, #32
 1457 08f2 8023     		movs	r3, #128
 1458 08f4 FFF7FEFF 		bl	u8g_DrawBox
 1459              	.L77:
 341:LCD_Menu.c    ****                     }
 342:LCD_Menu.c    ****                     if(Edit_Value_Mode == 1){
 1460              		.loc 1 342 0
 1461 08f8 934B     		ldr	r3, .L228+8
 1462 08fa 1B78     		ldrb	r3, [r3]	@ zero_extendqisi2
 1463 08fc 012B     		cmp	r3, #1
 1464 08fe 07D1     		bne	.L78
 343:LCD_Menu.c    ****                         u8g_DrawBox(&u8g, 43,32,128,16);
 1465              		.loc 1 343 0
ARM GAS  C:\Users\KJA\AppData\Local\Temp\ccbnGHAr.s 			page 34


 1466 0900 1023     		movs	r3, #16
 1467 0902 0093     		str	r3, [sp]
 1468 0904 8F48     		ldr	r0, .L228+4
 1469 0906 2B21     		movs	r1, #43
 1470 0908 2022     		movs	r2, #32
 1471 090a 8023     		movs	r3, #128
 1472 090c FFF7FEFF 		bl	u8g_DrawBox
 1473              	.L78:
 344:LCD_Menu.c    ****                                                
 345:LCD_Menu.c    ****                     }
 346:LCD_Menu.c    ****                     
 347:LCD_Menu.c    ****                     u8g_SetDefaultBackgroundColor(&u8g);
 1474              		.loc 1 347 0
 1475 0910 8C48     		ldr	r0, .L228+4
 1476 0912 FFF7FEFF 		bl	u8g_SetDefaultBackgroundColor
 1477              	.L76:
 348:LCD_Menu.c    ****                 }
 349:LCD_Menu.c    ****                 u8g_SetFont(&u8g, u8g_font_unifont);
 1478              		.loc 1 349 0
 1479 0916 8B48     		ldr	r0, .L228+4
 1480 0918 8C49     		ldr	r1, .L228+12
 1481 091a FFF7FEFF 		bl	u8g_SetFont
 350:LCD_Menu.c    ****                 if(Set_Duty <10)        u8g_DrawStr(&u8g,  82, 45, cSet_Duty);
 1482              		.loc 1 350 0
 1483 091e 8C4B     		ldr	r3, .L228+16
 1484 0920 1B78     		ldrb	r3, [r3]	@ zero_extendqisi2
 1485 0922 5BB2     		sxtb	r3, r3
 1486 0924 092B     		cmp	r3, #9
 1487 0926 05DC     		bgt	.L79
 1488              		.loc 1 350 0 is_stmt 0 discriminator 1
 1489 0928 8648     		ldr	r0, .L228+4
 1490 092a 5221     		movs	r1, #82
 1491 092c 2D22     		movs	r2, #45
 1492 092e 894B     		ldr	r3, .L228+20
 1493 0930 FFF7FEFF 		bl	u8g_DrawStr
 1494              	.L79:
 351:LCD_Menu.c    ****                 if(Set_Duty <100)       u8g_DrawStr(&u8g,  74, 45, cSet_Duty);
 1495              		.loc 1 351 0 is_stmt 1
 1496 0934 864B     		ldr	r3, .L228+16
 1497 0936 1B78     		ldrb	r3, [r3]	@ zero_extendqisi2
 1498 0938 5BB2     		sxtb	r3, r3
 1499 093a 632B     		cmp	r3, #99
 1500 093c 06DC     		bgt	.L80
 1501              		.loc 1 351 0 is_stmt 0 discriminator 1
 1502 093e 8148     		ldr	r0, .L228+4
 1503 0940 4A21     		movs	r1, #74
 1504 0942 2D22     		movs	r2, #45
 1505 0944 834B     		ldr	r3, .L228+20
 1506 0946 FFF7FEFF 		bl	u8g_DrawStr
 1507 094a 05E0     		b	.L81
 1508              	.L80:
 352:LCD_Menu.c    ****                 else                    u8g_DrawStr(&u8g,  66, 45, cSet_Duty);
 1509              		.loc 1 352 0 is_stmt 1
 1510 094c 7D48     		ldr	r0, .L228+4
 1511 094e 4221     		movs	r1, #66
 1512 0950 2D22     		movs	r2, #45
 1513 0952 804B     		ldr	r3, .L228+20
ARM GAS  C:\Users\KJA\AppData\Local\Temp\ccbnGHAr.s 			page 35


 1514 0954 FFF7FEFF 		bl	u8g_DrawStr
 1515              	.L81:
 353:LCD_Menu.c    ****                 
 354:LCD_Menu.c    ****                 if(Current_Menu_Position == 0 && Edit_Value_Mode == 1){
 1516              		.loc 1 354 0
 1517 0958 BB79     		ldrb	r3, [r7, #6]	@ zero_extendqisi2
 1518 095a 002B     		cmp	r3, #0
 1519 095c 06D1     		bne	.L82
 1520              		.loc 1 354 0 is_stmt 0 discriminator 1
 1521 095e 7A4B     		ldr	r3, .L228+8
 1522 0960 1B78     		ldrb	r3, [r3]	@ zero_extendqisi2
 1523 0962 012B     		cmp	r3, #1
 1524 0964 02D1     		bne	.L82
 355:LCD_Menu.c    ****                     u8g_SetDefaultForegroundColor(&u8g);
 1525              		.loc 1 355 0 is_stmt 1
 1526 0966 7748     		ldr	r0, .L228+4
 1527 0968 FFF7FEFF 		bl	u8g_SetDefaultForegroundColor
 1528              	.L82:
 356:LCD_Menu.c    ****                 }
 357:LCD_Menu.c    ****                 u8g_SetFont(&u8g, u8g_font_unifont);              
 1529              		.loc 1 357 0
 1530 096c 7548     		ldr	r0, .L228+4
 1531 096e 7749     		ldr	r1, .L228+12
 1532 0970 FFF7FEFF 		bl	u8g_SetFont
 358:LCD_Menu.c    ****                 u8g_DrawStr(&u8g,  2, 45, "Duty:");
 1533              		.loc 1 358 0
 1534 0974 7348     		ldr	r0, .L228+4
 1535 0976 0221     		movs	r1, #2
 1536 0978 2D22     		movs	r2, #45
 1537 097a 774B     		ldr	r3, .L228+24
 1538 097c FFF7FEFF 		bl	u8g_DrawStr
 359:LCD_Menu.c    ****                 
 360:LCD_Menu.c    ****                 if(Current_Menu_Position == 0 && Edit_Value_Mode == 1){ 
 1539              		.loc 1 360 0
 1540 0980 BB79     		ldrb	r3, [r7, #6]	@ zero_extendqisi2
 1541 0982 002B     		cmp	r3, #0
 1542 0984 23D1     		bne	.L83
 1543              		.loc 1 360 0 is_stmt 0 discriminator 1
 1544 0986 704B     		ldr	r3, .L228+8
 1545 0988 1B78     		ldrb	r3, [r3]	@ zero_extendqisi2
 1546 098a 012B     		cmp	r3, #1
 1547 098c 1FD1     		bne	.L83
 1548              	.LBB4:
 361:LCD_Menu.c    ****                         
 362:LCD_Menu.c    ****                     uint8 Underline;
 363:LCD_Menu.c    ****                 
 364:LCD_Menu.c    ****                     u8g_SetDefaultBackgroundColor(&u8g);
 1549              		.loc 1 364 0 is_stmt 1
 1550 098e 6D48     		ldr	r0, .L228+4
 1551 0990 FFF7FEFF 		bl	u8g_SetDefaultBackgroundColor
 365:LCD_Menu.c    ****                     
 366:LCD_Menu.c    ****                     if(Position_Number == 0) Underline = 75;
 1552              		.loc 1 366 0
 1553 0994 6A4B     		ldr	r3, .L228
 1554 0996 1B78     		ldrb	r3, [r3]	@ zero_extendqisi2
 1555 0998 002B     		cmp	r3, #0
 1556 099a 02D1     		bne	.L84
ARM GAS  C:\Users\KJA\AppData\Local\Temp\ccbnGHAr.s 			page 36


 1557              		.loc 1 366 0 is_stmt 0 discriminator 1
 1558 099c 4B23     		movs	r3, #75
 1559 099e 7B75     		strb	r3, [r7, #21]
 1560 09a0 09E0     		b	.L85
 1561              	.L84:
 367:LCD_Menu.c    ****                     else if(Position_Number == 1) Underline = 83;
 1562              		.loc 1 367 0 is_stmt 1
 1563 09a2 674B     		ldr	r3, .L228
 1564 09a4 1B78     		ldrb	r3, [r3]	@ zero_extendqisi2
 1565 09a6 5BB2     		sxtb	r3, r3
 1566 09a8 012B     		cmp	r3, #1
 1567 09aa 02D1     		bne	.L86
 1568              		.loc 1 367 0 is_stmt 0 discriminator 1
 1569 09ac 5323     		movs	r3, #83
 1570 09ae 7B75     		strb	r3, [r7, #21]
 1571 09b0 01E0     		b	.L85
 1572              	.L86:
 368:LCD_Menu.c    ****                     else Underline = 59;
 1573              		.loc 1 368 0 is_stmt 1
 1574 09b2 3B23     		movs	r3, #59
 1575 09b4 7B75     		strb	r3, [r7, #21]
 1576              	.L85:
 369:LCD_Menu.c    ****                     
 370:LCD_Menu.c    ****                     u8g_DrawLine(&u8g,Underline,46,Underline+5,46);
 1577              		.loc 1 370 0
 1578 09b6 7B7D     		ldrb	r3, [r7, #21]
 1579 09b8 0533     		adds	r3, r3, #5
 1580 09ba DCB2     		uxtb	r4, r3
 1581 09bc 7A7D     		ldrb	r2, [r7, #21]	@ zero_extendqisi2
 1582 09be 2E23     		movs	r3, #46
 1583 09c0 0093     		str	r3, [sp]
 1584 09c2 6048     		ldr	r0, .L228+4
 1585 09c4 1146     		mov	r1, r2
 1586 09c6 2E22     		movs	r2, #46
 1587 09c8 2346     		mov	r3, r4
 1588 09ca FFF7FEFF 		bl	u8g_DrawLine
 1589              	.L83:
 1590              	.LBE4:
 371:LCD_Menu.c    ****                 }
 372:LCD_Menu.c    ****                
 373:LCD_Menu.c    ****                 
 374:LCD_Menu.c    ****                 u8g_SetDefaultForegroundColor(&u8g);   
 1591              		.loc 1 374 0
 1592 09ce 5D48     		ldr	r0, .L228+4
 1593 09d0 FFF7FEFF 		bl	u8g_SetDefaultForegroundColor
 375:LCD_Menu.c    ****                 
 376:LCD_Menu.c    ****                 u8g_DrawBox(&u8g, 0,51,128,16);
 1594              		.loc 1 376 0
 1595 09d4 1023     		movs	r3, #16
 1596 09d6 0093     		str	r3, [sp]
 1597 09d8 5A48     		ldr	r0, .L228+4
 1598 09da 0021     		movs	r1, #0
 1599 09dc 3322     		movs	r2, #51
 1600 09de 8023     		movs	r3, #128
 1601 09e0 FFF7FEFF 		bl	u8g_DrawBox
 377:LCD_Menu.c    ****                 u8g_SetDefaultBackgroundColor(&u8g);
 1602              		.loc 1 377 0
ARM GAS  C:\Users\KJA\AppData\Local\Temp\ccbnGHAr.s 			page 37


 1603 09e4 5748     		ldr	r0, .L228+4
 1604 09e6 FFF7FEFF 		bl	u8g_SetDefaultBackgroundColor
 378:LCD_Menu.c    ****                 u8g_SetFont(&u8g, u8g_font_unifont);              
 1605              		.loc 1 378 0
 1606 09ea 5648     		ldr	r0, .L228+4
 1607 09ec 5749     		ldr	r1, .L228+12
 1608 09ee FFF7FEFF 		bl	u8g_SetFont
 379:LCD_Menu.c    ****                 u8g_DrawLine(&u8g,32,52,32,62); 
 1609              		.loc 1 379 0
 1610 09f2 3E23     		movs	r3, #62
 1611 09f4 0093     		str	r3, [sp]
 1612 09f6 5348     		ldr	r0, .L228+4
 1613 09f8 2021     		movs	r1, #32
 1614 09fa 3422     		movs	r2, #52
 1615 09fc 2023     		movs	r3, #32
 1616 09fe FFF7FEFF 		bl	u8g_DrawLine
 380:LCD_Menu.c    ****                 u8g_DrawLine(&u8g,64,52,64,62);   
 1617              		.loc 1 380 0
 1618 0a02 3E23     		movs	r3, #62
 1619 0a04 0093     		str	r3, [sp]
 1620 0a06 4F48     		ldr	r0, .L228+4
 1621 0a08 4021     		movs	r1, #64
 1622 0a0a 3422     		movs	r2, #52
 1623 0a0c 4023     		movs	r3, #64
 1624 0a0e FFF7FEFF 		bl	u8g_DrawLine
 381:LCD_Menu.c    ****                 u8g_DrawLine(&u8g,96,52,96,62);
 1625              		.loc 1 381 0
 1626 0a12 3E23     		movs	r3, #62
 1627 0a14 0093     		str	r3, [sp]
 1628 0a16 4B48     		ldr	r0, .L228+4
 1629 0a18 6021     		movs	r1, #96
 1630 0a1a 3422     		movs	r2, #52
 1631 0a1c 6023     		movs	r3, #96
 1632 0a1e FFF7FEFF 		bl	u8g_DrawLine
 382:LCD_Menu.c    ****                 
 383:LCD_Menu.c    ****                 if(OutputEnable == 0){
 1633              		.loc 1 383 0
 1634 0a22 4E4B     		ldr	r3, .L228+28
 1635 0a24 1B78     		ldrb	r3, [r3]	@ zero_extendqisi2
 1636 0a26 002B     		cmp	r3, #0
 1637 0a28 0BD1     		bne	.L87
 384:LCD_Menu.c    ****                     u8g_DrawTriangle(&u8g, 11+3,51, 17+3,57, 11+3,63);
 1638              		.loc 1 384 0
 1639 0a2a 3923     		movs	r3, #57
 1640 0a2c 0093     		str	r3, [sp]
 1641 0a2e 0E23     		movs	r3, #14
 1642 0a30 0193     		str	r3, [sp, #4]
 1643 0a32 3F23     		movs	r3, #63
 1644 0a34 0293     		str	r3, [sp, #8]
 1645 0a36 4348     		ldr	r0, .L228+4
 1646 0a38 0E21     		movs	r1, #14
 1647 0a3a 3322     		movs	r2, #51
 1648 0a3c 1423     		movs	r3, #20
 1649 0a3e FFF7FEFF 		bl	u8g_DrawTriangle
 1650              	.L87:
 385:LCD_Menu.c    ****                 }
 386:LCD_Menu.c    ****                 if(OutputEnable == 1){
ARM GAS  C:\Users\KJA\AppData\Local\Temp\ccbnGHAr.s 			page 38


 1651              		.loc 1 386 0
 1652 0a42 464B     		ldr	r3, .L228+28
 1653 0a44 1B78     		ldrb	r3, [r3]	@ zero_extendqisi2
 1654 0a46 012B     		cmp	r3, #1
 1655 0a48 1FD1     		bne	.L88
 387:LCD_Menu.c    ****                     u8g_DrawLine(&u8g,14,53,14,61);
 1656              		.loc 1 387 0
 1657 0a4a 3D23     		movs	r3, #61
 1658 0a4c 0093     		str	r3, [sp]
 1659 0a4e 3D48     		ldr	r0, .L228+4
 1660 0a50 0E21     		movs	r1, #14
 1661 0a52 3522     		movs	r2, #53
 1662 0a54 0E23     		movs	r3, #14
 1663 0a56 FFF7FEFF 		bl	u8g_DrawLine
 388:LCD_Menu.c    ****                     u8g_DrawLine(&u8g,15,53,15,61); 
 1664              		.loc 1 388 0
 1665 0a5a 3D23     		movs	r3, #61
 1666 0a5c 0093     		str	r3, [sp]
 1667 0a5e 3948     		ldr	r0, .L228+4
 1668 0a60 0F21     		movs	r1, #15
 1669 0a62 3522     		movs	r2, #53
 1670 0a64 0F23     		movs	r3, #15
 1671 0a66 FFF7FEFF 		bl	u8g_DrawLine
 389:LCD_Menu.c    ****                     
 390:LCD_Menu.c    ****                     u8g_DrawLine(&u8g,17,53,17,61); 
 1672              		.loc 1 390 0
 1673 0a6a 3D23     		movs	r3, #61
 1674 0a6c 0093     		str	r3, [sp]
 1675 0a6e 3548     		ldr	r0, .L228+4
 1676 0a70 1121     		movs	r1, #17
 1677 0a72 3522     		movs	r2, #53
 1678 0a74 1123     		movs	r3, #17
 1679 0a76 FFF7FEFF 		bl	u8g_DrawLine
 391:LCD_Menu.c    ****                     u8g_DrawLine(&u8g,18,53,18,61);   
 1680              		.loc 1 391 0
 1681 0a7a 3D23     		movs	r3, #61
 1682 0a7c 0093     		str	r3, [sp]
 1683 0a7e 3148     		ldr	r0, .L228+4
 1684 0a80 1221     		movs	r1, #18
 1685 0a82 3522     		movs	r2, #53
 1686 0a84 1223     		movs	r3, #18
 1687 0a86 FFF7FEFF 		bl	u8g_DrawLine
 1688              	.L88:
 392:LCD_Menu.c    ****                 }
 393:LCD_Menu.c    ****                 
 394:LCD_Menu.c    ****                 if(Edit_Value_Mode == 0){  
 1689              		.loc 1 394 0
 1690 0a8a 2F4B     		ldr	r3, .L228+8
 1691 0a8c 1B78     		ldrb	r3, [r3]	@ zero_extendqisi2
 1692 0a8e 002B     		cmp	r3, #0
 1693 0a90 0AD1     		bne	.L89
 395:LCD_Menu.c    ****                 u8g_SetFont(&u8g, u8g_font_unifont);              
 1694              		.loc 1 395 0
 1695 0a92 2C48     		ldr	r0, .L228+4
 1696 0a94 2D49     		ldr	r1, .L228+12
 1697 0a96 FFF7FEFF 		bl	u8g_SetFont
 396:LCD_Menu.c    ****                 u8g_DrawStr(&u8g,  37, 62, "set");
ARM GAS  C:\Users\KJA\AppData\Local\Temp\ccbnGHAr.s 			page 39


 1698              		.loc 1 396 0
 1699 0a9a 2A48     		ldr	r0, .L228+4
 1700 0a9c 2521     		movs	r1, #37
 1701 0a9e 3E22     		movs	r2, #62
 1702 0aa0 2F4B     		ldr	r3, .L228+32
 1703 0aa2 FFF7FEFF 		bl	u8g_DrawStr
 1704 0aa6 0DE0     		b	.L90
 1705              	.L89:
 397:LCD_Menu.c    ****                 }
 398:LCD_Menu.c    ****                 else if(Edit_Value_Mode == 1){  
 1706              		.loc 1 398 0
 1707 0aa8 274B     		ldr	r3, .L228+8
 1708 0aaa 1B78     		ldrb	r3, [r3]	@ zero_extendqisi2
 1709 0aac 012B     		cmp	r3, #1
 1710 0aae 09D1     		bne	.L90
 399:LCD_Menu.c    ****                 u8g_SetFont(&u8g, u8g_font_unifont);              
 1711              		.loc 1 399 0
 1712 0ab0 2448     		ldr	r0, .L228+4
 1713 0ab2 2649     		ldr	r1, .L228+12
 1714 0ab4 FFF7FEFF 		bl	u8g_SetFont
 400:LCD_Menu.c    ****                 u8g_DrawStr(&u8g,  41, 62, "ok");
 1715              		.loc 1 400 0
 1716 0ab8 2248     		ldr	r0, .L228+4
 1717 0aba 2921     		movs	r1, #41
 1718 0abc 3E22     		movs	r2, #62
 1719 0abe 294B     		ldr	r3, .L228+36
 1720 0ac0 FFF7FEFF 		bl	u8g_DrawStr
 1721              	.L90:
 401:LCD_Menu.c    ****                 }
 402:LCD_Menu.c    ****                 
 403:LCD_Menu.c    ****                 u8g_DrawLine(&u8g,117,54,117,60-1);
 1722              		.loc 1 403 0
 1723 0ac4 3B23     		movs	r3, #59
 1724 0ac6 0093     		str	r3, [sp]
 1725 0ac8 1E48     		ldr	r0, .L228+4
 1726 0aca 7521     		movs	r1, #117
 1727 0acc 3622     		movs	r2, #54
 1728 0ace 7523     		movs	r3, #117
 1729 0ad0 FFF7FEFF 		bl	u8g_DrawLine
 404:LCD_Menu.c    ****                 u8g_DrawLine(&u8g,109,60-1,117,60-1);
 1730              		.loc 1 404 0
 1731 0ad4 3B23     		movs	r3, #59
 1732 0ad6 0093     		str	r3, [sp]
 1733 0ad8 1A48     		ldr	r0, .L228+4
 1734 0ada 6D21     		movs	r1, #109
 1735 0adc 3B22     		movs	r2, #59
 1736 0ade 7523     		movs	r3, #117
 1737 0ae0 FFF7FEFF 		bl	u8g_DrawLine
 405:LCD_Menu.c    ****                 u8g_DrawTriangle(&u8g, 112,57-1, 107,60-1, 112,63-1);
 1738              		.loc 1 405 0
 1739 0ae4 3B23     		movs	r3, #59
 1740 0ae6 0093     		str	r3, [sp]
 1741 0ae8 7023     		movs	r3, #112
 1742 0aea 0193     		str	r3, [sp, #4]
 1743 0aec 3E23     		movs	r3, #62
 1744 0aee 0293     		str	r3, [sp, #8]
 1745 0af0 1448     		ldr	r0, .L228+4
ARM GAS  C:\Users\KJA\AppData\Local\Temp\ccbnGHAr.s 			page 40


 1746 0af2 7021     		movs	r1, #112
 1747 0af4 3822     		movs	r2, #56
 1748 0af6 6B23     		movs	r3, #107
 1749 0af8 FFF7FEFF 		bl	u8g_DrawTriangle
 406:LCD_Menu.c    ****                 
 407:LCD_Menu.c    ****             } while ( u8g_NextPage(&u8g) );
 1750              		.loc 1 407 0
 1751 0afc 1148     		ldr	r0, .L228+4
 1752 0afe FFF7FEFF 		bl	u8g_NextPage
 1753 0b02 0346     		mov	r3, r0
 1754 0b04 002B     		cmp	r3, #0
 1755 0b06 7FF486AD 		bne	.L91
 408:LCD_Menu.c    ****       break;
 1756              		.loc 1 408 0
 1757 0b0a 01F078B8 		b	.L1
 1758              	.L22:
 409:LCD_Menu.c    ****             
 410:LCD_Menu.c    ****       case External_Drive: 
 411:LCD_Menu.c    ****             u8g_FirstPage(&u8g);
 1759              		.loc 1 411 0
 1760 0b0e 0D48     		ldr	r0, .L228+4
 1761 0b10 FFF7FEFF 		bl	u8g_FirstPage
 1762              	.L92:
 412:LCD_Menu.c    ****             do{
 413:LCD_Menu.c    ****                 u8g_SetDefaultForegroundColor(&u8g);         
 1763              		.loc 1 413 0 discriminator 1
 1764 0b14 0B48     		ldr	r0, .L228+4
 1765 0b16 FFF7FEFF 		bl	u8g_SetDefaultForegroundColor
 414:LCD_Menu.c    ****                 u8g_SetFont(&u8g, u8g_font_unifont);                
 1766              		.loc 1 414 0 discriminator 1
 1767 0b1a 0A48     		ldr	r0, .L228+4
 1768 0b1c 0B49     		ldr	r1, .L228+12
 1769 0b1e FFF7FEFF 		bl	u8g_SetFont
 415:LCD_Menu.c    ****                 u8g_DrawStr(&u8g,  30, 12, "External_Drive");
 1770              		.loc 1 415 0 discriminator 1
 1771 0b22 0848     		ldr	r0, .L228+4
 1772 0b24 1E21     		movs	r1, #30
 1773 0b26 0C22     		movs	r2, #12
 1774 0b28 0F4B     		ldr	r3, .L228+40
 1775 0b2a FFF7FEFF 		bl	u8g_DrawStr
 416:LCD_Menu.c    **** 
 417:LCD_Menu.c    ****             } while ( u8g_NextPage(&u8g) ); 
 1776              		.loc 1 417 0 discriminator 1
 1777 0b2e 0548     		ldr	r0, .L228+4
 1778 0b30 FFF7FEFF 		bl	u8g_NextPage
 1779 0b34 0346     		mov	r3, r0
 1780 0b36 002B     		cmp	r3, #0
 1781 0b38 ECD1     		bne	.L92
 418:LCD_Menu.c    ****       break;            
 1782              		.loc 1 418 0
 1783 0b3a 01F060B8 		b	.L1
 1784              	.L229:
 1785 0b3e 00BF     		.align	2
 1786              	.L228:
 1787 0b40 00000000 		.word	Position_Number
 1788 0b44 00000000 		.word	u8g
 1789 0b48 00000000 		.word	Edit_Value_Mode
ARM GAS  C:\Users\KJA\AppData\Local\Temp\ccbnGHAr.s 			page 41


 1790 0b4c 00000000 		.word	u8g_font_unifont
 1791 0b50 00000000 		.word	Set_Duty
 1792 0b54 00000000 		.word	cSet_Duty
 1793 0b58 38010000 		.word	.LC22
 1794 0b5c 00000000 		.word	OutputEnable
 1795 0b60 40010000 		.word	.LC23
 1796 0b64 44010000 		.word	.LC24
 1797 0b68 48010000 		.word	.LC25
 1798              	.L11:
 419:LCD_Menu.c    ****             
 420:LCD_Menu.c    ****             
 421:LCD_Menu.c    **** 
 422:LCD_Menu.c    ****         case VolumeSetting: 
 423:LCD_Menu.c    ****             u8g_FirstPage(&u8g);
 1799              		.loc 1 423 0
 1800 0b6c A348     		ldr	r0, .L230
 1801 0b6e FFF7FEFF 		bl	u8g_FirstPage
 1802              	.L93:
 424:LCD_Menu.c    ****             do{
 425:LCD_Menu.c    ****                                 
 426:LCD_Menu.c    ****                 u8g_SetDefaultForegroundColor(&u8g);       
 1803              		.loc 1 426 0 discriminator 1
 1804 0b72 A248     		ldr	r0, .L230
 1805 0b74 FFF7FEFF 		bl	u8g_SetDefaultForegroundColor
 427:LCD_Menu.c    ****                 
 428:LCD_Menu.c    ****                 u8g_SetFont(&u8g, u8g_font_unifont);
 1806              		.loc 1 428 0 discriminator 1
 1807 0b78 A048     		ldr	r0, .L230
 1808 0b7a A149     		ldr	r1, .L230+4
 1809 0b7c FFF7FEFF 		bl	u8g_SetFont
 429:LCD_Menu.c    ****                 u8g_DrawStr(&u8g,  2, 13, "Backlight");
 1810              		.loc 1 429 0 discriminator 1
 1811 0b80 9E48     		ldr	r0, .L230
 1812 0b82 0221     		movs	r1, #2
 1813 0b84 0D22     		movs	r2, #13
 1814 0b86 9F4B     		ldr	r3, .L230+8
 1815 0b88 FFF7FEFF 		bl	u8g_DrawStr
 430:LCD_Menu.c    ****                 u8g_SetFont(&u8g, u8g_font_unifont);
 1816              		.loc 1 430 0 discriminator 1
 1817 0b8c 9B48     		ldr	r0, .L230
 1818 0b8e 9C49     		ldr	r1, .L230+4
 1819 0b90 FFF7FEFF 		bl	u8g_SetFont
 431:LCD_Menu.c    ****                 u8g_DrawStr(&u8g,  96, 13, CurrentBacklightValueString);
 1820              		.loc 1 431 0 discriminator 1
 1821 0b94 9948     		ldr	r0, .L230
 1822 0b96 6021     		movs	r1, #96
 1823 0b98 0D22     		movs	r2, #13
 1824 0b9a 9B4B     		ldr	r3, .L230+12
 1825 0b9c FFF7FEFF 		bl	u8g_DrawStr
 432:LCD_Menu.c    ****                 
 433:LCD_Menu.c    ****                 
 434:LCD_Menu.c    ****                 u8g_SetDefaultForegroundColor(&u8g);   
 1826              		.loc 1 434 0 discriminator 1
 1827 0ba0 9648     		ldr	r0, .L230
 1828 0ba2 FFF7FEFF 		bl	u8g_SetDefaultForegroundColor
 435:LCD_Menu.c    **** 
 436:LCD_Menu.c    ****                 u8g_SetFont(&u8g, u8g_font_unifont);              
ARM GAS  C:\Users\KJA\AppData\Local\Temp\ccbnGHAr.s 			page 42


 1829              		.loc 1 436 0 discriminator 1
 1830 0ba6 9548     		ldr	r0, .L230
 1831 0ba8 9549     		ldr	r1, .L230+4
 1832 0baa FFF7FEFF 		bl	u8g_SetFont
 437:LCD_Menu.c    ****                 u8g_DrawStr(&u8g,  2, 29, "Volume:");
 1833              		.loc 1 437 0 discriminator 1
 1834 0bae 9348     		ldr	r0, .L230
 1835 0bb0 0221     		movs	r1, #2
 1836 0bb2 1D22     		movs	r2, #29
 1837 0bb4 954B     		ldr	r3, .L230+16
 1838 0bb6 FFF7FEFF 		bl	u8g_DrawStr
 438:LCD_Menu.c    ****                 
 439:LCD_Menu.c    ****                 u8g_DrawBox(&u8g, 88,16,44,16);
 1839              		.loc 1 439 0 discriminator 1
 1840 0bba 1023     		movs	r3, #16
 1841 0bbc 0093     		str	r3, [sp]
 1842 0bbe 8F48     		ldr	r0, .L230
 1843 0bc0 5821     		movs	r1, #88
 1844 0bc2 1022     		movs	r2, #16
 1845 0bc4 2C23     		movs	r3, #44
 1846 0bc6 FFF7FEFF 		bl	u8g_DrawBox
 440:LCD_Menu.c    ****                 u8g_SetDefaultBackgroundColor(&u8g);
 1847              		.loc 1 440 0 discriminator 1
 1848 0bca 8C48     		ldr	r0, .L230
 1849 0bcc FFF7FEFF 		bl	u8g_SetDefaultBackgroundColor
 441:LCD_Menu.c    ****                 
 442:LCD_Menu.c    ****                 u8g_SetFont(&u8g, u8g_font_unifont);
 1850              		.loc 1 442 0 discriminator 1
 1851 0bd0 8A48     		ldr	r0, .L230
 1852 0bd2 8B49     		ldr	r1, .L230+4
 1853 0bd4 FFF7FEFF 		bl	u8g_SetFont
 443:LCD_Menu.c    ****                 u8g_DrawStr(&u8g,  96, 29, CurrentVolumeValueString);
 1854              		.loc 1 443 0 discriminator 1
 1855 0bd8 8848     		ldr	r0, .L230
 1856 0bda 6021     		movs	r1, #96
 1857 0bdc 1D22     		movs	r2, #29
 1858 0bde 8C4B     		ldr	r3, .L230+20
 1859 0be0 FFF7FEFF 		bl	u8g_DrawStr
 444:LCD_Menu.c    ****                 
 445:LCD_Menu.c    ****                 u8g_SetDefaultForegroundColor(&u8g);   
 1860              		.loc 1 445 0 discriminator 1
 1861 0be4 8548     		ldr	r0, .L230
 1862 0be6 FFF7FEFF 		bl	u8g_SetDefaultForegroundColor
 446:LCD_Menu.c    ****                 
 447:LCD_Menu.c    ****                 u8g_SetFont(&u8g, u8g_font_unifont);              
 1863              		.loc 1 447 0 discriminator 1
 1864 0bea 8448     		ldr	r0, .L230
 1865 0bec 8449     		ldr	r1, .L230+4
 1866 0bee FFF7FEFF 		bl	u8g_SetFont
 448:LCD_Menu.c    ****                 u8g_DrawStr(&u8g,  2, 45, "Temperature");
 1867              		.loc 1 448 0 discriminator 1
 1868 0bf2 8248     		ldr	r0, .L230
 1869 0bf4 0221     		movs	r1, #2
 1870 0bf6 2D22     		movs	r2, #45
 1871 0bf8 864B     		ldr	r3, .L230+24
 1872 0bfa FFF7FEFF 		bl	u8g_DrawStr
 449:LCD_Menu.c    ****                 
ARM GAS  C:\Users\KJA\AppData\Local\Temp\ccbnGHAr.s 			page 43


 450:LCD_Menu.c    ****                 u8g_SetDefaultForegroundColor(&u8g);   
 1873              		.loc 1 450 0 discriminator 1
 1874 0bfe 7F48     		ldr	r0, .L230
 1875 0c00 FFF7FEFF 		bl	u8g_SetDefaultForegroundColor
 451:LCD_Menu.c    ****                 
 452:LCD_Menu.c    ****                 u8g_SetFont(&u8g, u8g_font_unifont);              
 1876              		.loc 1 452 0 discriminator 1
 1877 0c04 7D48     		ldr	r0, .L230
 1878 0c06 7E49     		ldr	r1, .L230+4
 1879 0c08 FFF7FEFF 		bl	u8g_SetFont
 453:LCD_Menu.c    ****                 u8g_DrawStr(&u8g,  2, 60, "          <-Back");
 1880              		.loc 1 453 0 discriminator 1
 1881 0c0c 7B48     		ldr	r0, .L230
 1882 0c0e 0221     		movs	r1, #2
 1883 0c10 3C22     		movs	r2, #60
 1884 0c12 814B     		ldr	r3, .L230+28
 1885 0c14 FFF7FEFF 		bl	u8g_DrawStr
 454:LCD_Menu.c    ****                 
 455:LCD_Menu.c    ****             } while ( u8g_NextPage(&u8g) );
 1886              		.loc 1 455 0 discriminator 1
 1887 0c18 7848     		ldr	r0, .L230
 1888 0c1a FFF7FEFF 		bl	u8g_NextPage
 1889 0c1e 0346     		mov	r3, r0
 1890 0c20 002B     		cmp	r3, #0
 1891 0c22 A6D1     		bne	.L93
 456:LCD_Menu.c    ****       break; 
 1892              		.loc 1 456 0
 1893 0c24 00F0EBBF 		b	.L1
 1894              	.L10:
 457:LCD_Menu.c    ****             
 458:LCD_Menu.c    ****             
 459:LCD_Menu.c    ****       case BacklightSetting: 
 460:LCD_Menu.c    ****             u8g_FirstPage(&u8g);
 1895              		.loc 1 460 0
 1896 0c28 7448     		ldr	r0, .L230
 1897 0c2a FFF7FEFF 		bl	u8g_FirstPage
 1898              	.L94:
 461:LCD_Menu.c    ****             do{
 462:LCD_Menu.c    ****                                 
 463:LCD_Menu.c    ****                 u8g_SetDefaultForegroundColor(&u8g);       
 1899              		.loc 1 463 0 discriminator 1
 1900 0c2e 7348     		ldr	r0, .L230
 1901 0c30 FFF7FEFF 		bl	u8g_SetDefaultForegroundColor
 464:LCD_Menu.c    ****                 
 465:LCD_Menu.c    ****                 u8g_SetFont(&u8g, u8g_font_unifont);
 1902              		.loc 1 465 0 discriminator 1
 1903 0c34 7148     		ldr	r0, .L230
 1904 0c36 7249     		ldr	r1, .L230+4
 1905 0c38 FFF7FEFF 		bl	u8g_SetFont
 466:LCD_Menu.c    ****                 u8g_DrawStr(&u8g,  2, 13, "Backlight");
 1906              		.loc 1 466 0 discriminator 1
 1907 0c3c 6F48     		ldr	r0, .L230
 1908 0c3e 0221     		movs	r1, #2
 1909 0c40 0D22     		movs	r2, #13
 1910 0c42 704B     		ldr	r3, .L230+8
 1911 0c44 FFF7FEFF 		bl	u8g_DrawStr
 467:LCD_Menu.c    ****                 
ARM GAS  C:\Users\KJA\AppData\Local\Temp\ccbnGHAr.s 			page 44


 468:LCD_Menu.c    ****                 u8g_DrawBox(&u8g, 88,0,44,16);
 1912              		.loc 1 468 0 discriminator 1
 1913 0c48 1023     		movs	r3, #16
 1914 0c4a 0093     		str	r3, [sp]
 1915 0c4c 6B48     		ldr	r0, .L230
 1916 0c4e 5821     		movs	r1, #88
 1917 0c50 0022     		movs	r2, #0
 1918 0c52 2C23     		movs	r3, #44
 1919 0c54 FFF7FEFF 		bl	u8g_DrawBox
 469:LCD_Menu.c    ****                 u8g_SetDefaultBackgroundColor(&u8g);
 1920              		.loc 1 469 0 discriminator 1
 1921 0c58 6848     		ldr	r0, .L230
 1922 0c5a FFF7FEFF 		bl	u8g_SetDefaultBackgroundColor
 470:LCD_Menu.c    ****                 
 471:LCD_Menu.c    ****                 u8g_SetFont(&u8g, u8g_font_unifont);
 1923              		.loc 1 471 0 discriminator 1
 1924 0c5e 6748     		ldr	r0, .L230
 1925 0c60 6749     		ldr	r1, .L230+4
 1926 0c62 FFF7FEFF 		bl	u8g_SetFont
 472:LCD_Menu.c    ****                 u8g_DrawStr(&u8g,  96, 13, CurrentBacklightValueString);
 1927              		.loc 1 472 0 discriminator 1
 1928 0c66 6548     		ldr	r0, .L230
 1929 0c68 6021     		movs	r1, #96
 1930 0c6a 0D22     		movs	r2, #13
 1931 0c6c 664B     		ldr	r3, .L230+12
 1932 0c6e FFF7FEFF 		bl	u8g_DrawStr
 473:LCD_Menu.c    ****                 
 474:LCD_Menu.c    ****                 u8g_SetDefaultForegroundColor(&u8g);   
 1933              		.loc 1 474 0 discriminator 1
 1934 0c72 6248     		ldr	r0, .L230
 1935 0c74 FFF7FEFF 		bl	u8g_SetDefaultForegroundColor
 475:LCD_Menu.c    **** 
 476:LCD_Menu.c    ****                 u8g_SetFont(&u8g, u8g_font_unifont);              
 1936              		.loc 1 476 0 discriminator 1
 1937 0c78 6048     		ldr	r0, .L230
 1938 0c7a 6149     		ldr	r1, .L230+4
 1939 0c7c FFF7FEFF 		bl	u8g_SetFont
 477:LCD_Menu.c    ****                 u8g_DrawStr(&u8g,  2, 29, "Volume:");
 1940              		.loc 1 477 0 discriminator 1
 1941 0c80 5E48     		ldr	r0, .L230
 1942 0c82 0221     		movs	r1, #2
 1943 0c84 1D22     		movs	r2, #29
 1944 0c86 614B     		ldr	r3, .L230+16
 1945 0c88 FFF7FEFF 		bl	u8g_DrawStr
 478:LCD_Menu.c    ****                 u8g_SetFont(&u8g, u8g_font_unifont);
 1946              		.loc 1 478 0 discriminator 1
 1947 0c8c 5B48     		ldr	r0, .L230
 1948 0c8e 5C49     		ldr	r1, .L230+4
 1949 0c90 FFF7FEFF 		bl	u8g_SetFont
 479:LCD_Menu.c    ****                 u8g_DrawStr(&u8g,  96, 29, CurrentVolumeValueString);
 1950              		.loc 1 479 0 discriminator 1
 1951 0c94 5948     		ldr	r0, .L230
 1952 0c96 6021     		movs	r1, #96
 1953 0c98 1D22     		movs	r2, #29
 1954 0c9a 5D4B     		ldr	r3, .L230+20
 1955 0c9c FFF7FEFF 		bl	u8g_DrawStr
 480:LCD_Menu.c    ****                 
ARM GAS  C:\Users\KJA\AppData\Local\Temp\ccbnGHAr.s 			page 45


 481:LCD_Menu.c    ****                 u8g_SetDefaultForegroundColor(&u8g);   
 1956              		.loc 1 481 0 discriminator 1
 1957 0ca0 5648     		ldr	r0, .L230
 1958 0ca2 FFF7FEFF 		bl	u8g_SetDefaultForegroundColor
 482:LCD_Menu.c    ****                 
 483:LCD_Menu.c    ****                 u8g_SetFont(&u8g, u8g_font_unifont);              
 1959              		.loc 1 483 0 discriminator 1
 1960 0ca6 5548     		ldr	r0, .L230
 1961 0ca8 5549     		ldr	r1, .L230+4
 1962 0caa FFF7FEFF 		bl	u8g_SetFont
 484:LCD_Menu.c    ****                 u8g_DrawStr(&u8g,  2, 45, "Temperature");
 1963              		.loc 1 484 0 discriminator 1
 1964 0cae 5348     		ldr	r0, .L230
 1965 0cb0 0221     		movs	r1, #2
 1966 0cb2 2D22     		movs	r2, #45
 1967 0cb4 574B     		ldr	r3, .L230+24
 1968 0cb6 FFF7FEFF 		bl	u8g_DrawStr
 485:LCD_Menu.c    ****                 
 486:LCD_Menu.c    ****                 u8g_SetDefaultForegroundColor(&u8g);   
 1969              		.loc 1 486 0 discriminator 1
 1970 0cba 5048     		ldr	r0, .L230
 1971 0cbc FFF7FEFF 		bl	u8g_SetDefaultForegroundColor
 487:LCD_Menu.c    ****                 
 488:LCD_Menu.c    ****                 u8g_SetFont(&u8g, u8g_font_unifont);              
 1972              		.loc 1 488 0 discriminator 1
 1973 0cc0 4E48     		ldr	r0, .L230
 1974 0cc2 4F49     		ldr	r1, .L230+4
 1975 0cc4 FFF7FEFF 		bl	u8g_SetFont
 489:LCD_Menu.c    ****                 u8g_DrawStr(&u8g,  2, 60, "          <-Back");
 1976              		.loc 1 489 0 discriminator 1
 1977 0cc8 4C48     		ldr	r0, .L230
 1978 0cca 0221     		movs	r1, #2
 1979 0ccc 3C22     		movs	r2, #60
 1980 0cce 524B     		ldr	r3, .L230+28
 1981 0cd0 FFF7FEFF 		bl	u8g_DrawStr
 490:LCD_Menu.c    ****                 
 491:LCD_Menu.c    ****             } while ( u8g_NextPage(&u8g) );
 1982              		.loc 1 491 0 discriminator 1
 1983 0cd4 4948     		ldr	r0, .L230
 1984 0cd6 FFF7FEFF 		bl	u8g_NextPage
 1985 0cda 0346     		mov	r3, r0
 1986 0cdc 002B     		cmp	r3, #0
 1987 0cde A6D1     		bne	.L94
 492:LCD_Menu.c    ****       break;           
 1988              		.loc 1 492 0
 1989 0ce0 00F08DBF 		b	.L1
 1990              	.L9:
 493:LCD_Menu.c    ****             
 494:LCD_Menu.c    ****       case Settings: 
 495:LCD_Menu.c    ****             u8g_FirstPage(&u8g);
 1991              		.loc 1 495 0
 1992 0ce4 4548     		ldr	r0, .L230
 1993 0ce6 FFF7FEFF 		bl	u8g_FirstPage
 1994              	.L99:
 496:LCD_Menu.c    ****             do{
 497:LCD_Menu.c    ****                                 
 498:LCD_Menu.c    ****                 u8g_SetDefaultForegroundColor(&u8g);
ARM GAS  C:\Users\KJA\AppData\Local\Temp\ccbnGHAr.s 			page 46


 1995              		.loc 1 498 0
 1996 0cea 4448     		ldr	r0, .L230
 1997 0cec FFF7FEFF 		bl	u8g_SetDefaultForegroundColor
 499:LCD_Menu.c    ****                 if(Current_Menu_Position == 3){
 1998              		.loc 1 499 0
 1999 0cf0 BB79     		ldrb	r3, [r7, #6]	@ zero_extendqisi2
 2000 0cf2 032B     		cmp	r3, #3
 2001 0cf4 0AD1     		bne	.L95
 500:LCD_Menu.c    ****                     u8g_DrawBox(&u8g, 0,0,128,16);
 2002              		.loc 1 500 0
 2003 0cf6 1023     		movs	r3, #16
 2004 0cf8 0093     		str	r3, [sp]
 2005 0cfa 4048     		ldr	r0, .L230
 2006 0cfc 0021     		movs	r1, #0
 2007 0cfe 0022     		movs	r2, #0
 2008 0d00 8023     		movs	r3, #128
 2009 0d02 FFF7FEFF 		bl	u8g_DrawBox
 501:LCD_Menu.c    ****                     u8g_SetDefaultBackgroundColor(&u8g);
 2010              		.loc 1 501 0
 2011 0d06 3D48     		ldr	r0, .L230
 2012 0d08 FFF7FEFF 		bl	u8g_SetDefaultBackgroundColor
 2013              	.L95:
 502:LCD_Menu.c    ****                 }             
 503:LCD_Menu.c    ****                 
 504:LCD_Menu.c    ****                 u8g_SetFont(&u8g, u8g_font_unifont);
 2014              		.loc 1 504 0
 2015 0d0c 3B48     		ldr	r0, .L230
 2016 0d0e 3C49     		ldr	r1, .L230+4
 2017 0d10 FFF7FEFF 		bl	u8g_SetFont
 505:LCD_Menu.c    ****                 u8g_DrawStr(&u8g,  2, 13, "Backlight");
 2018              		.loc 1 505 0
 2019 0d14 3948     		ldr	r0, .L230
 2020 0d16 0221     		movs	r1, #2
 2021 0d18 0D22     		movs	r2, #13
 2022 0d1a 3A4B     		ldr	r3, .L230+8
 2023 0d1c FFF7FEFF 		bl	u8g_DrawStr
 506:LCD_Menu.c    ****                 u8g_SetFont(&u8g, u8g_font_unifont);
 2024              		.loc 1 506 0
 2025 0d20 3648     		ldr	r0, .L230
 2026 0d22 3749     		ldr	r1, .L230+4
 2027 0d24 FFF7FEFF 		bl	u8g_SetFont
 507:LCD_Menu.c    ****                 u8g_DrawStr(&u8g,  96, 13, CurrentBacklightValueString);
 2028              		.loc 1 507 0
 2029 0d28 3448     		ldr	r0, .L230
 2030 0d2a 6021     		movs	r1, #96
 2031 0d2c 0D22     		movs	r2, #13
 2032 0d2e 364B     		ldr	r3, .L230+12
 2033 0d30 FFF7FEFF 		bl	u8g_DrawStr
 508:LCD_Menu.c    ****                 
 509:LCD_Menu.c    ****                 
 510:LCD_Menu.c    ****                 u8g_SetDefaultForegroundColor(&u8g);                
 2034              		.loc 1 510 0
 2035 0d34 3148     		ldr	r0, .L230
 2036 0d36 FFF7FEFF 		bl	u8g_SetDefaultForegroundColor
 511:LCD_Menu.c    ****                 if(Current_Menu_Position == 2){
 2037              		.loc 1 511 0
 2038 0d3a BB79     		ldrb	r3, [r7, #6]	@ zero_extendqisi2
ARM GAS  C:\Users\KJA\AppData\Local\Temp\ccbnGHAr.s 			page 47


 2039 0d3c 022B     		cmp	r3, #2
 2040 0d3e 0AD1     		bne	.L96
 512:LCD_Menu.c    ****                     u8g_DrawBox(&u8g, 0,16,128,16);
 2041              		.loc 1 512 0
 2042 0d40 1023     		movs	r3, #16
 2043 0d42 0093     		str	r3, [sp]
 2044 0d44 2D48     		ldr	r0, .L230
 2045 0d46 0021     		movs	r1, #0
 2046 0d48 1022     		movs	r2, #16
 2047 0d4a 8023     		movs	r3, #128
 2048 0d4c FFF7FEFF 		bl	u8g_DrawBox
 513:LCD_Menu.c    ****                     u8g_SetDefaultBackgroundColor(&u8g);
 2049              		.loc 1 513 0
 2050 0d50 2A48     		ldr	r0, .L230
 2051 0d52 FFF7FEFF 		bl	u8g_SetDefaultBackgroundColor
 2052              	.L96:
 514:LCD_Menu.c    ****                 }
 515:LCD_Menu.c    ****                 
 516:LCD_Menu.c    ****                 u8g_SetFont(&u8g, u8g_font_unifont);              
 2053              		.loc 1 516 0
 2054 0d56 2948     		ldr	r0, .L230
 2055 0d58 2949     		ldr	r1, .L230+4
 2056 0d5a FFF7FEFF 		bl	u8g_SetFont
 517:LCD_Menu.c    ****                 u8g_DrawStr(&u8g,  2, 29, "Volume");
 2057              		.loc 1 517 0
 2058 0d5e 2748     		ldr	r0, .L230
 2059 0d60 0221     		movs	r1, #2
 2060 0d62 1D22     		movs	r2, #29
 2061 0d64 2D4B     		ldr	r3, .L230+32
 2062 0d66 FFF7FEFF 		bl	u8g_DrawStr
 518:LCD_Menu.c    ****                 u8g_SetFont(&u8g, u8g_font_unifont);
 2063              		.loc 1 518 0
 2064 0d6a 2448     		ldr	r0, .L230
 2065 0d6c 2449     		ldr	r1, .L230+4
 2066 0d6e FFF7FEFF 		bl	u8g_SetFont
 519:LCD_Menu.c    ****                 u8g_DrawStr(&u8g,  96, 29, CurrentVolumeValueString);
 2067              		.loc 1 519 0
 2068 0d72 2248     		ldr	r0, .L230
 2069 0d74 6021     		movs	r1, #96
 2070 0d76 1D22     		movs	r2, #29
 2071 0d78 254B     		ldr	r3, .L230+20
 2072 0d7a FFF7FEFF 		bl	u8g_DrawStr
 520:LCD_Menu.c    ****                 
 521:LCD_Menu.c    ****                 u8g_SetDefaultForegroundColor(&u8g);
 2073              		.loc 1 521 0
 2074 0d7e 1F48     		ldr	r0, .L230
 2075 0d80 FFF7FEFF 		bl	u8g_SetDefaultForegroundColor
 522:LCD_Menu.c    ****                 if(Current_Menu_Position == 1){
 2076              		.loc 1 522 0
 2077 0d84 BB79     		ldrb	r3, [r7, #6]	@ zero_extendqisi2
 2078 0d86 012B     		cmp	r3, #1
 2079 0d88 0AD1     		bne	.L97
 523:LCD_Menu.c    ****                     u8g_DrawBox(&u8g, 0,32,128,16);
 2080              		.loc 1 523 0
 2081 0d8a 1023     		movs	r3, #16
 2082 0d8c 0093     		str	r3, [sp]
 2083 0d8e 1B48     		ldr	r0, .L230
ARM GAS  C:\Users\KJA\AppData\Local\Temp\ccbnGHAr.s 			page 48


 2084 0d90 0021     		movs	r1, #0
 2085 0d92 2022     		movs	r2, #32
 2086 0d94 8023     		movs	r3, #128
 2087 0d96 FFF7FEFF 		bl	u8g_DrawBox
 524:LCD_Menu.c    ****                     u8g_SetDefaultBackgroundColor(&u8g);
 2088              		.loc 1 524 0
 2089 0d9a 1848     		ldr	r0, .L230
 2090 0d9c FFF7FEFF 		bl	u8g_SetDefaultBackgroundColor
 2091              	.L97:
 525:LCD_Menu.c    ****                 }
 526:LCD_Menu.c    ****                 
 527:LCD_Menu.c    ****                 u8g_SetFont(&u8g, u8g_font_unifont);              
 2092              		.loc 1 527 0
 2093 0da0 1648     		ldr	r0, .L230
 2094 0da2 1749     		ldr	r1, .L230+4
 2095 0da4 FFF7FEFF 		bl	u8g_SetFont
 528:LCD_Menu.c    ****                 u8g_DrawStr(&u8g,  2, 45, "Temperature");
 2096              		.loc 1 528 0
 2097 0da8 1448     		ldr	r0, .L230
 2098 0daa 0221     		movs	r1, #2
 2099 0dac 2D22     		movs	r2, #45
 2100 0dae 194B     		ldr	r3, .L230+24
 2101 0db0 FFF7FEFF 		bl	u8g_DrawStr
 529:LCD_Menu.c    ****                 
 530:LCD_Menu.c    ****                 u8g_SetDefaultForegroundColor(&u8g);
 2102              		.loc 1 530 0
 2103 0db4 1148     		ldr	r0, .L230
 2104 0db6 FFF7FEFF 		bl	u8g_SetDefaultForegroundColor
 531:LCD_Menu.c    ****                 if(Current_Menu_Position == 0){
 2105              		.loc 1 531 0
 2106 0dba BB79     		ldrb	r3, [r7, #6]	@ zero_extendqisi2
 2107 0dbc 002B     		cmp	r3, #0
 2108 0dbe 0AD1     		bne	.L98
 532:LCD_Menu.c    ****                     u8g_DrawBox(&u8g, 0,48,128,16);
 2109              		.loc 1 532 0
 2110 0dc0 1023     		movs	r3, #16
 2111 0dc2 0093     		str	r3, [sp]
 2112 0dc4 0D48     		ldr	r0, .L230
 2113 0dc6 0021     		movs	r1, #0
 2114 0dc8 3022     		movs	r2, #48
 2115 0dca 8023     		movs	r3, #128
 2116 0dcc FFF7FEFF 		bl	u8g_DrawBox
 533:LCD_Menu.c    ****                     u8g_SetDefaultBackgroundColor(&u8g);
 2117              		.loc 1 533 0
 2118 0dd0 0A48     		ldr	r0, .L230
 2119 0dd2 FFF7FEFF 		bl	u8g_SetDefaultBackgroundColor
 2120              	.L98:
 534:LCD_Menu.c    ****                 }
 535:LCD_Menu.c    ****                 
 536:LCD_Menu.c    ****                 u8g_SetFont(&u8g, u8g_font_unifont);              
 2121              		.loc 1 536 0
 2122 0dd6 0948     		ldr	r0, .L230
 2123 0dd8 0949     		ldr	r1, .L230+4
 2124 0dda FFF7FEFF 		bl	u8g_SetFont
 537:LCD_Menu.c    ****                 u8g_DrawStr(&u8g,  2, 60, "          <-Back");
 2125              		.loc 1 537 0
 2126 0dde 0748     		ldr	r0, .L230
ARM GAS  C:\Users\KJA\AppData\Local\Temp\ccbnGHAr.s 			page 49


 2127 0de0 0221     		movs	r1, #2
 2128 0de2 3C22     		movs	r2, #60
 2129 0de4 0C4B     		ldr	r3, .L230+28
 2130 0de6 FFF7FEFF 		bl	u8g_DrawStr
 538:LCD_Menu.c    ****                 
 539:LCD_Menu.c    ****             } while ( u8g_NextPage(&u8g) );
 2131              		.loc 1 539 0
 2132 0dea 0448     		ldr	r0, .L230
 2133 0dec FFF7FEFF 		bl	u8g_NextPage
 2134 0df0 0346     		mov	r3, r0
 2135 0df2 002B     		cmp	r3, #0
 2136 0df4 7FF479AF 		bne	.L99
 540:LCD_Menu.c    ****       break;    
 2137              		.loc 1 540 0
 2138 0df8 00F001BF 		b	.L1
 2139              	.L231:
 2140              		.align	2
 2141              	.L230:
 2142 0dfc 00000000 		.word	u8g
 2143 0e00 00000000 		.word	u8g_font_unifont
 2144 0e04 58010000 		.word	.LC26
 2145 0e08 00000000 		.word	CurrentBacklightValueString
 2146 0e0c 64010000 		.word	.LC27
 2147 0e10 00000000 		.word	CurrentVolumeValueString
 2148 0e14 6C010000 		.word	.LC28
 2149 0e18 D8000000 		.word	.LC15
 2150 0e1c 78010000 		.word	.LC29
 2151              	.L12:
 541:LCD_Menu.c    ****             
 542:LCD_Menu.c    ****       case Information: 
 543:LCD_Menu.c    ****             u8g_FirstPage(&u8g);
 2152              		.loc 1 543 0
 2153 0e20 AB48     		ldr	r0, .L232
 2154 0e22 FFF7FEFF 		bl	u8g_FirstPage
 2155              	.L104:
 544:LCD_Menu.c    ****             do{
 545:LCD_Menu.c    ****                 u8g_SetDefaultForegroundColor(&u8g);
 2156              		.loc 1 545 0
 2157 0e26 AA48     		ldr	r0, .L232
 2158 0e28 FFF7FEFF 		bl	u8g_SetDefaultForegroundColor
 546:LCD_Menu.c    ****                 if(Current_Menu_Position == 0){
 2159              		.loc 1 546 0
 2160 0e2c BB79     		ldrb	r3, [r7, #6]	@ zero_extendqisi2
 2161 0e2e 002B     		cmp	r3, #0
 2162 0e30 0AD1     		bne	.L100
 547:LCD_Menu.c    ****                     u8g_DrawBox(&u8g, 0,0,128,16);
 2163              		.loc 1 547 0
 2164 0e32 1023     		movs	r3, #16
 2165 0e34 0093     		str	r3, [sp]
 2166 0e36 A648     		ldr	r0, .L232
 2167 0e38 0021     		movs	r1, #0
 2168 0e3a 0022     		movs	r2, #0
 2169 0e3c 8023     		movs	r3, #128
 2170 0e3e FFF7FEFF 		bl	u8g_DrawBox
 548:LCD_Menu.c    ****                     u8g_SetDefaultBackgroundColor(&u8g);
 2171              		.loc 1 548 0
 2172 0e42 A348     		ldr	r0, .L232
ARM GAS  C:\Users\KJA\AppData\Local\Temp\ccbnGHAr.s 			page 50


 2173 0e44 FFF7FEFF 		bl	u8g_SetDefaultBackgroundColor
 2174              	.L100:
 549:LCD_Menu.c    ****                 }             
 550:LCD_Menu.c    ****                 
 551:LCD_Menu.c    ****                 u8g_SetFont(&u8g, u8g_font_unifont);   
 2175              		.loc 1 551 0
 2176 0e48 A148     		ldr	r0, .L232
 2177 0e4a A249     		ldr	r1, .L232+4
 2178 0e4c FFF7FEFF 		bl	u8g_SetFont
 552:LCD_Menu.c    ****                 u8g_DrawStr(&u8g,  2, 13, "DIE Temp");
 2179              		.loc 1 552 0
 2180 0e50 9F48     		ldr	r0, .L232
 2181 0e52 0221     		movs	r1, #2
 2182 0e54 0D22     		movs	r2, #13
 2183 0e56 A04B     		ldr	r3, .L232+8
 2184 0e58 FFF7FEFF 		bl	u8g_DrawStr
 553:LCD_Menu.c    ****                 u8g_SetFont(&u8g, u8g_font_unifont);
 2185              		.loc 1 553 0
 2186 0e5c 9C48     		ldr	r0, .L232
 2187 0e5e 9D49     		ldr	r1, .L232+4
 2188 0e60 FFF7FEFF 		bl	u8g_SetFont
 554:LCD_Menu.c    ****                 u8g_DrawStr(&u8g,  90, 13, Current_DIE_TempString);
 2189              		.loc 1 554 0
 2190 0e64 9A48     		ldr	r0, .L232
 2191 0e66 5A21     		movs	r1, #90
 2192 0e68 0D22     		movs	r2, #13
 2193 0e6a 9C4B     		ldr	r3, .L232+12
 2194 0e6c FFF7FEFF 		bl	u8g_DrawStr
 555:LCD_Menu.c    ****                 
 556:LCD_Menu.c    ****                 u8g_SetDefaultForegroundColor(&u8g);                
 2195              		.loc 1 556 0
 2196 0e70 9748     		ldr	r0, .L232
 2197 0e72 FFF7FEFF 		bl	u8g_SetDefaultForegroundColor
 557:LCD_Menu.c    ****                 if(Current_Menu_Position == 2){
 2198              		.loc 1 557 0
 2199 0e76 BB79     		ldrb	r3, [r7, #6]	@ zero_extendqisi2
 2200 0e78 022B     		cmp	r3, #2
 2201 0e7a 0AD1     		bne	.L101
 558:LCD_Menu.c    ****                     u8g_DrawBox(&u8g, 0,16,128,16);
 2202              		.loc 1 558 0
 2203 0e7c 1023     		movs	r3, #16
 2204 0e7e 0093     		str	r3, [sp]
 2205 0e80 9348     		ldr	r0, .L232
 2206 0e82 0021     		movs	r1, #0
 2207 0e84 1022     		movs	r2, #16
 2208 0e86 8023     		movs	r3, #128
 2209 0e88 FFF7FEFF 		bl	u8g_DrawBox
 559:LCD_Menu.c    ****                     u8g_SetDefaultBackgroundColor(&u8g);
 2210              		.loc 1 559 0
 2211 0e8c 9048     		ldr	r0, .L232
 2212 0e8e FFF7FEFF 		bl	u8g_SetDefaultBackgroundColor
 2213              	.L101:
 560:LCD_Menu.c    ****                 }
 561:LCD_Menu.c    ****                 
 562:LCD_Menu.c    ****                 u8g_SetFont(&u8g, u8g_font_unifont);              
 2214              		.loc 1 562 0
 2215 0e92 8F48     		ldr	r0, .L232
ARM GAS  C:\Users\KJA\AppData\Local\Temp\ccbnGHAr.s 			page 51


 2216 0e94 8F49     		ldr	r1, .L232+4
 2217 0e96 FFF7FEFF 		bl	u8g_SetFont
 563:LCD_Menu.c    ****                 u8g_DrawStr(&u8g,  2, 29, "FET Temp");
 2218              		.loc 1 563 0
 2219 0e9a 8D48     		ldr	r0, .L232
 2220 0e9c 0221     		movs	r1, #2
 2221 0e9e 1D22     		movs	r2, #29
 2222 0ea0 8F4B     		ldr	r3, .L232+16
 2223 0ea2 FFF7FEFF 		bl	u8g_DrawStr
 564:LCD_Menu.c    ****                 u8g_SetFont(&u8g, u8g_font_unifont);
 2224              		.loc 1 564 0
 2225 0ea6 8A48     		ldr	r0, .L232
 2226 0ea8 8A49     		ldr	r1, .L232+4
 2227 0eaa FFF7FEFF 		bl	u8g_SetFont
 565:LCD_Menu.c    ****                 u8g_DrawStr(&u8g,  90, 29, Current_FET_TempString);
 2228              		.loc 1 565 0
 2229 0eae 8848     		ldr	r0, .L232
 2230 0eb0 5A21     		movs	r1, #90
 2231 0eb2 1D22     		movs	r2, #29
 2232 0eb4 8B4B     		ldr	r3, .L232+20
 2233 0eb6 FFF7FEFF 		bl	u8g_DrawStr
 566:LCD_Menu.c    ****                 
 567:LCD_Menu.c    ****                 u8g_SetDefaultForegroundColor(&u8g);
 2234              		.loc 1 567 0
 2235 0eba 8548     		ldr	r0, .L232
 2236 0ebc FFF7FEFF 		bl	u8g_SetDefaultForegroundColor
 568:LCD_Menu.c    ****                 if(Current_Menu_Position == 0){
 2237              		.loc 1 568 0
 2238 0ec0 BB79     		ldrb	r3, [r7, #6]	@ zero_extendqisi2
 2239 0ec2 002B     		cmp	r3, #0
 2240 0ec4 0AD1     		bne	.L102
 569:LCD_Menu.c    ****                     u8g_DrawBox(&u8g, 0,32,128,16);
 2241              		.loc 1 569 0
 2242 0ec6 1023     		movs	r3, #16
 2243 0ec8 0093     		str	r3, [sp]
 2244 0eca 8148     		ldr	r0, .L232
 2245 0ecc 0021     		movs	r1, #0
 2246 0ece 2022     		movs	r2, #32
 2247 0ed0 8023     		movs	r3, #128
 2248 0ed2 FFF7FEFF 		bl	u8g_DrawBox
 570:LCD_Menu.c    ****                     u8g_SetDefaultBackgroundColor(&u8g);
 2249              		.loc 1 570 0
 2250 0ed6 7E48     		ldr	r0, .L232
 2251 0ed8 FFF7FEFF 		bl	u8g_SetDefaultBackgroundColor
 2252              	.L102:
 571:LCD_Menu.c    ****                 }
 572:LCD_Menu.c    ****                 
 573:LCD_Menu.c    ****                 u8g_SetFont(&u8g, u8g_font_unifont);              
 2253              		.loc 1 573 0
 2254 0edc 7C48     		ldr	r0, .L232
 2255 0ede 7D49     		ldr	r1, .L232+4
 2256 0ee0 FFF7FEFF 		bl	u8g_SetFont
 574:LCD_Menu.c    ****                 u8g_DrawStr(&u8g,  2, 45, "INT Temp   N/C");
 2257              		.loc 1 574 0
 2258 0ee4 7A48     		ldr	r0, .L232
 2259 0ee6 0221     		movs	r1, #2
 2260 0ee8 2D22     		movs	r2, #45
ARM GAS  C:\Users\KJA\AppData\Local\Temp\ccbnGHAr.s 			page 52


 2261 0eea 7F4B     		ldr	r3, .L232+24
 2262 0eec FFF7FEFF 		bl	u8g_DrawStr
 575:LCD_Menu.c    ****                 
 576:LCD_Menu.c    ****                 u8g_SetDefaultForegroundColor(&u8g);
 2263              		.loc 1 576 0
 2264 0ef0 7748     		ldr	r0, .L232
 2265 0ef2 FFF7FEFF 		bl	u8g_SetDefaultForegroundColor
 577:LCD_Menu.c    ****                 if(Current_Menu_Position == 3){
 2266              		.loc 1 577 0
 2267 0ef6 BB79     		ldrb	r3, [r7, #6]	@ zero_extendqisi2
 2268 0ef8 032B     		cmp	r3, #3
 2269 0efa 0AD1     		bne	.L103
 578:LCD_Menu.c    ****                     u8g_DrawBox(&u8g, 0,48,128,16);
 2270              		.loc 1 578 0
 2271 0efc 1023     		movs	r3, #16
 2272 0efe 0093     		str	r3, [sp]
 2273 0f00 7348     		ldr	r0, .L232
 2274 0f02 0021     		movs	r1, #0
 2275 0f04 3022     		movs	r2, #48
 2276 0f06 8023     		movs	r3, #128
 2277 0f08 FFF7FEFF 		bl	u8g_DrawBox
 579:LCD_Menu.c    ****                     u8g_SetDefaultBackgroundColor(&u8g);
 2278              		.loc 1 579 0
 2279 0f0c 7048     		ldr	r0, .L232
 2280 0f0e FFF7FEFF 		bl	u8g_SetDefaultBackgroundColor
 2281              	.L103:
 580:LCD_Menu.c    ****                 }
 581:LCD_Menu.c    ****                 
 582:LCD_Menu.c    ****                 u8g_SetFont(&u8g, u8g_font_unifont);              
 2282              		.loc 1 582 0
 2283 0f12 6F48     		ldr	r0, .L232
 2284 0f14 6F49     		ldr	r1, .L232+4
 2285 0f16 FFF7FEFF 		bl	u8g_SetFont
 583:LCD_Menu.c    ****                 u8g_DrawStr(&u8g,  2, 60, "          <-Back");
 2286              		.loc 1 583 0
 2287 0f1a 6D48     		ldr	r0, .L232
 2288 0f1c 0221     		movs	r1, #2
 2289 0f1e 3C22     		movs	r2, #60
 2290 0f20 724B     		ldr	r3, .L232+28
 2291 0f22 FFF7FEFF 		bl	u8g_DrawStr
 584:LCD_Menu.c    ****                 
 585:LCD_Menu.c    ****             } while ( u8g_NextPage(&u8g) );
 2292              		.loc 1 585 0
 2293 0f26 6A48     		ldr	r0, .L232
 2294 0f28 FFF7FEFF 		bl	u8g_NextPage
 2295 0f2c 0346     		mov	r3, r0
 2296 0f2e 002B     		cmp	r3, #0
 2297 0f30 7FF479AF 		bne	.L104
 586:LCD_Menu.c    ****       break;
 2298              		.loc 1 586 0
 2299 0f34 00F063BE 		b	.L1
 2300              	.L14:
 587:LCD_Menu.c    **** 
 588:LCD_Menu.c    ****         case ConstantResistance:
 589:LCD_Menu.c    ****             
 590:LCD_Menu.c    ****             u8g_FirstPage(&u8g);
 2301              		.loc 1 590 0
ARM GAS  C:\Users\KJA\AppData\Local\Temp\ccbnGHAr.s 			page 53


 2302 0f38 6548     		ldr	r0, .L232
 2303 0f3a FFF7FEFF 		bl	u8g_FirstPage
 2304              	.L146:
 2305              	.LBB5:
 591:LCD_Menu.c    ****             do{    
 592:LCD_Menu.c    ****                 
 593:LCD_Menu.c    ****                 int8 LocalMove = 22;
 2306              		.loc 1 593 0
 2307 0f3e 1623     		movs	r3, #22
 2308 0f40 7B73     		strb	r3, [r7, #13]
 594:LCD_Menu.c    ****                 
 595:LCD_Menu.c    ****                 u8g_SetDefaultForegroundColor(&u8g);    
 2309              		.loc 1 595 0
 2310 0f42 6348     		ldr	r0, .L232
 2311 0f44 FFF7FEFF 		bl	u8g_SetDefaultForegroundColor
 596:LCD_Menu.c    ****                                 
 597:LCD_Menu.c    ****                 if(OutputEnable == 0){
 2312              		.loc 1 597 0
 2313 0f48 694B     		ldr	r3, .L232+32
 2314 0f4a 1B78     		ldrb	r3, [r3]	@ zero_extendqisi2
 2315 0f4c 002B     		cmp	r3, #0
 2316 0f4e 40F00581 		bne	.L105
 598:LCD_Menu.c    ****                     if(Set_Resist < 1){                       
 2317              		.loc 1 598 0
 2318 0f52 684B     		ldr	r3, .L232+36
 2319 0f54 1B68     		ldr	r3, [r3]	@ float
 2320 0f56 1846     		mov	r0, r3
 2321 0f58 4FF07E51 		mov	r1, #1065353216
 2322 0f5c FFF7FEFF 		bl	__aeabi_fcmplt
 2323 0f60 0346     		mov	r3, r0
 2324 0f62 002B     		cmp	r3, #0
 2325 0f64 0DD0     		beq	.L209
 599:LCD_Menu.c    ****                         u8g_SetFont(&u8g, u8g_font_fub20);   
 2326              		.loc 1 599 0
 2327 0f66 5A48     		ldr	r0, .L232
 2328 0f68 6349     		ldr	r1, .L232+40
 2329 0f6a FFF7FEFF 		bl	u8g_SetFont
 600:LCD_Menu.c    ****                         u8g_DrawStr(&u8g,  31+LocalMove, 26, cResist_Set);
 2330              		.loc 1 600 0
 2331 0f6e 7B7B     		ldrb	r3, [r7, #13]	@ zero_extendqisi2
 2332 0f70 1F33     		adds	r3, r3, #31
 2333 0f72 DBB2     		uxtb	r3, r3
 2334 0f74 5648     		ldr	r0, .L232
 2335 0f76 1946     		mov	r1, r3
 2336 0f78 1A22     		movs	r2, #26
 2337 0f7a 604B     		ldr	r3, .L232+44
 2338 0f7c FFF7FEFF 		bl	u8g_DrawStr
 2339 0f80 51E0     		b	.L108
 2340              	.L209:
 601:LCD_Menu.c    ****                     }
 602:LCD_Menu.c    ****                     else if(Set_Resist < 10){
 2341              		.loc 1 602 0
 2342 0f82 5C4B     		ldr	r3, .L232+36
 2343 0f84 1B68     		ldr	r3, [r3]	@ float
 2344 0f86 1846     		mov	r0, r3
 2345 0f88 5D49     		ldr	r1, .L232+48
 2346 0f8a FFF7FEFF 		bl	__aeabi_fcmplt
ARM GAS  C:\Users\KJA\AppData\Local\Temp\ccbnGHAr.s 			page 54


 2347 0f8e 0346     		mov	r3, r0
 2348 0f90 002B     		cmp	r3, #0
 2349 0f92 0DD0     		beq	.L210
 603:LCD_Menu.c    ****                         u8g_SetFont(&u8g, u8g_font_fub20);   
 2350              		.loc 1 603 0
 2351 0f94 4E48     		ldr	r0, .L232
 2352 0f96 5849     		ldr	r1, .L232+40
 2353 0f98 FFF7FEFF 		bl	u8g_SetFont
 604:LCD_Menu.c    ****                         u8g_DrawStr(&u8g,  24+LocalMove, 26, cResist_Set); 
 2354              		.loc 1 604 0
 2355 0f9c 7B7B     		ldrb	r3, [r7, #13]	@ zero_extendqisi2
 2356 0f9e 1833     		adds	r3, r3, #24
 2357 0fa0 DBB2     		uxtb	r3, r3
 2358 0fa2 4B48     		ldr	r0, .L232
 2359 0fa4 1946     		mov	r1, r3
 2360 0fa6 1A22     		movs	r2, #26
 2361 0fa8 544B     		ldr	r3, .L232+44
 2362 0faa FFF7FEFF 		bl	u8g_DrawStr
 2363 0fae 3AE0     		b	.L108
 2364              	.L210:
 605:LCD_Menu.c    ****                     }
 606:LCD_Menu.c    ****                     else if(Set_Resist < 100){
 2365              		.loc 1 606 0
 2366 0fb0 504B     		ldr	r3, .L232+36
 2367 0fb2 1B68     		ldr	r3, [r3]	@ float
 2368 0fb4 1846     		mov	r0, r3
 2369 0fb6 5349     		ldr	r1, .L232+52
 2370 0fb8 FFF7FEFF 		bl	__aeabi_fcmplt
 2371 0fbc 0346     		mov	r3, r0
 2372 0fbe 002B     		cmp	r3, #0
 2373 0fc0 0DD0     		beq	.L211
 607:LCD_Menu.c    ****                         u8g_SetFont(&u8g, u8g_font_fub20);   
 2374              		.loc 1 607 0
 2375 0fc2 4348     		ldr	r0, .L232
 2376 0fc4 4C49     		ldr	r1, .L232+40
 2377 0fc6 FFF7FEFF 		bl	u8g_SetFont
 608:LCD_Menu.c    ****                         u8g_DrawStr(&u8g,  17+LocalMove, 26, cResist_Set); 
 2378              		.loc 1 608 0
 2379 0fca 7B7B     		ldrb	r3, [r7, #13]	@ zero_extendqisi2
 2380 0fcc 1133     		adds	r3, r3, #17
 2381 0fce DBB2     		uxtb	r3, r3
 2382 0fd0 3F48     		ldr	r0, .L232
 2383 0fd2 1946     		mov	r1, r3
 2384 0fd4 1A22     		movs	r2, #26
 2385 0fd6 494B     		ldr	r3, .L232+44
 2386 0fd8 FFF7FEFF 		bl	u8g_DrawStr
 2387 0fdc 23E0     		b	.L108
 2388              	.L211:
 609:LCD_Menu.c    ****                     }
 610:LCD_Menu.c    ****                     else if(Set_Resist < 1000){
 2389              		.loc 1 610 0
 2390 0fde 454B     		ldr	r3, .L232+36
 2391 0fe0 1B68     		ldr	r3, [r3]	@ float
 2392 0fe2 1846     		mov	r0, r3
 2393 0fe4 4849     		ldr	r1, .L232+56
 2394 0fe6 FFF7FEFF 		bl	__aeabi_fcmplt
 2395 0fea 0346     		mov	r3, r0
ARM GAS  C:\Users\KJA\AppData\Local\Temp\ccbnGHAr.s 			page 55


 2396 0fec 002B     		cmp	r3, #0
 2397 0fee 0DD0     		beq	.L212
 611:LCD_Menu.c    ****                         u8g_SetFont(&u8g, u8g_font_fub20);   
 2398              		.loc 1 611 0
 2399 0ff0 3748     		ldr	r0, .L232
 2400 0ff2 4149     		ldr	r1, .L232+40
 2401 0ff4 FFF7FEFF 		bl	u8g_SetFont
 612:LCD_Menu.c    ****                         u8g_DrawStr(&u8g,  2+LocalMove, 26, cResist_Set); 
 2402              		.loc 1 612 0
 2403 0ff8 7B7B     		ldrb	r3, [r7, #13]	@ zero_extendqisi2
 2404 0ffa 0233     		adds	r3, r3, #2
 2405 0ffc DBB2     		uxtb	r3, r3
 2406 0ffe 3448     		ldr	r0, .L232
 2407 1000 1946     		mov	r1, r3
 2408 1002 1A22     		movs	r2, #26
 2409 1004 3D4B     		ldr	r3, .L232+44
 2410 1006 FFF7FEFF 		bl	u8g_DrawStr
 2411 100a 0CE0     		b	.L108
 2412              	.L212:
 613:LCD_Menu.c    ****                     }
 614:LCD_Menu.c    ****                     else{
 615:LCD_Menu.c    ****                         u8g_SetFont(&u8g, u8g_font_fub20);   
 2413              		.loc 1 615 0
 2414 100c 3048     		ldr	r0, .L232
 2415 100e 3A49     		ldr	r1, .L232+40
 2416 1010 FFF7FEFF 		bl	u8g_SetFont
 616:LCD_Menu.c    ****                         u8g_DrawStr(&u8g,  -13+LocalMove, 26, cResist_Set); 
 2417              		.loc 1 616 0
 2418 1014 7B7B     		ldrb	r3, [r7, #13]	@ zero_extendqisi2
 2419 1016 0D3B     		subs	r3, r3, #13
 2420 1018 DBB2     		uxtb	r3, r3
 2421 101a 2D48     		ldr	r0, .L232
 2422 101c 1946     		mov	r1, r3
 2423 101e 1A22     		movs	r2, #26
 2424 1020 364B     		ldr	r3, .L232+44
 2425 1022 FFF7FEFF 		bl	u8g_DrawStr
 2426              	.L108:
 617:LCD_Menu.c    ****                     }
 618:LCD_Menu.c    ****                             
 619:LCD_Menu.c    ****                     
 620:LCD_Menu.c    ****                     u8g_SetFont(&u8g, u8g_font_unifont);              
 2427              		.loc 1 620 0
 2428 1026 2A48     		ldr	r0, .L232
 2429 1028 2A49     		ldr	r1, .L232+4
 2430 102a FFF7FEFF 		bl	u8g_SetFont
 621:LCD_Menu.c    ****                     u8g_DrawStr(&u8g,  97, 26, "Ohm");
 2431              		.loc 1 621 0
 2432 102e 2848     		ldr	r0, .L232
 2433 1030 6121     		movs	r1, #97
 2434 1032 1A22     		movs	r2, #26
 2435 1034 354B     		ldr	r3, .L232+60
 2436 1036 FFF7FEFF 		bl	u8g_DrawStr
 622:LCD_Menu.c    ****                     
 623:LCD_Menu.c    ****                     u8g_SetFont(&u8g, u8g_font_unifont);              
 2437              		.loc 1 623 0
 2438 103a 2548     		ldr	r0, .L232
 2439 103c 2549     		ldr	r1, .L232+4
ARM GAS  C:\Users\KJA\AppData\Local\Temp\ccbnGHAr.s 			page 56


 2440 103e FFF7FEFF 		bl	u8g_SetFont
 624:LCD_Menu.c    ****                     u8g_DrawStr(&u8g,  4, 43, cVoltage_Actual);
 2441              		.loc 1 624 0
 2442 1042 2348     		ldr	r0, .L232
 2443 1044 0421     		movs	r1, #4
 2444 1046 2B22     		movs	r2, #43
 2445 1048 314B     		ldr	r3, .L232+64
 2446 104a FFF7FEFF 		bl	u8g_DrawStr
 625:LCD_Menu.c    ****                     
 626:LCD_Menu.c    ****                     if(View_Mode == 0){
 2447              		.loc 1 626 0
 2448 104e 314B     		ldr	r3, .L232+68
 2449 1050 1B78     		ldrb	r3, [r3]	@ zero_extendqisi2
 2450 1052 002B     		cmp	r3, #0
 2451 1054 0AD1     		bne	.L115
 627:LCD_Menu.c    ****                         u8g_SetFont(&u8g, u8g_font_unifont);              
 2452              		.loc 1 627 0
 2453 1056 1E48     		ldr	r0, .L232
 2454 1058 1E49     		ldr	r1, .L232+4
 2455 105a FFF7FEFF 		bl	u8g_SetFont
 628:LCD_Menu.c    ****                         u8g_DrawStr(&u8g,  64, 43, cCurrent_Set); 
 2456              		.loc 1 628 0
 2457 105e 1C48     		ldr	r0, .L232
 2458 1060 4021     		movs	r1, #64
 2459 1062 2B22     		movs	r2, #43
 2460 1064 2C4B     		ldr	r3, .L232+72
 2461 1066 FFF7FEFF 		bl	u8g_DrawStr
 2462 106a 09E0     		b	.L116
 2463              	.L115:
 629:LCD_Menu.c    ****                     }
 630:LCD_Menu.c    ****                     else{
 631:LCD_Menu.c    ****                         u8g_SetFont(&u8g, u8g_font_unifont);              
 2464              		.loc 1 631 0
 2465 106c 1848     		ldr	r0, .L232
 2466 106e 1949     		ldr	r1, .L232+4
 2467 1070 FFF7FEFF 		bl	u8g_SetFont
 632:LCD_Menu.c    ****                         u8g_DrawStr(&u8g,  64, 43, cPower_Set);
 2468              		.loc 1 632 0
 2469 1074 1648     		ldr	r0, .L232
 2470 1076 4021     		movs	r1, #64
 2471 1078 2B22     		movs	r2, #43
 2472 107a 284B     		ldr	r3, .L232+76
 2473 107c FFF7FEFF 		bl	u8g_DrawStr
 2474              	.L116:
 633:LCD_Menu.c    ****                     }
 634:LCD_Menu.c    ****                     
 635:LCD_Menu.c    ****                     if(Edit_Value_Mode == 1){                        
 2475              		.loc 1 635 0
 2476 1080 274B     		ldr	r3, .L232+80
 2477 1082 1B78     		ldrb	r3, [r3]	@ zero_extendqisi2
 2478 1084 012B     		cmp	r3, #1
 2479 1086 40F04781 		bne	.L124
 2480              	.LBB6:
 636:LCD_Menu.c    ****                         uint8 Underline;
 637:LCD_Menu.c    ****                         if(Current_Menu_Position == 0) Underline = -12+LocalMove;
 2481              		.loc 1 637 0
 2482 108a BB79     		ldrb	r3, [r7, #6]	@ zero_extendqisi2
ARM GAS  C:\Users\KJA\AppData\Local\Temp\ccbnGHAr.s 			page 57


 2483 108c 002B     		cmp	r3, #0
 2484 108e 03D1     		bne	.L118
 2485              		.loc 1 637 0 is_stmt 0 discriminator 1
 2486 1090 7B7B     		ldrb	r3, [r7, #13]	@ zero_extendqisi2
 2487 1092 0C3B     		subs	r3, r3, #12
 2488 1094 3B75     		strb	r3, [r7, #20]
 2489 1096 48E0     		b	.L119
 2490              	.L118:
 638:LCD_Menu.c    ****                         else if(Current_Menu_Position == 1) Underline = 3+LocalMove;
 2491              		.loc 1 638 0 is_stmt 1
 2492 1098 BB79     		ldrb	r3, [r7, #6]	@ zero_extendqisi2
 2493 109a 012B     		cmp	r3, #1
 2494 109c 03D1     		bne	.L120
 2495              		.loc 1 638 0 is_stmt 0 discriminator 1
 2496 109e 7B7B     		ldrb	r3, [r7, #13]	@ zero_extendqisi2
 2497 10a0 0333     		adds	r3, r3, #3
 2498 10a2 3B75     		strb	r3, [r7, #20]
 2499 10a4 41E0     		b	.L119
 2500              	.L120:
 639:LCD_Menu.c    ****                         else if(Current_Menu_Position == 2) Underline = 18+LocalMove;
 2501              		.loc 1 639 0 is_stmt 1
 2502 10a6 BB79     		ldrb	r3, [r7, #6]	@ zero_extendqisi2
 2503 10a8 022B     		cmp	r3, #2
 2504 10aa 03D1     		bne	.L121
 2505              		.loc 1 639 0 is_stmt 0 discriminator 1
 2506 10ac 7B7B     		ldrb	r3, [r7, #13]	@ zero_extendqisi2
 2507 10ae 1233     		adds	r3, r3, #18
 2508 10b0 3B75     		strb	r3, [r7, #20]
 2509 10b2 3AE0     		b	.L119
 2510              	.L121:
 640:LCD_Menu.c    ****                         else if(Current_Menu_Position == 3) Underline = 35+LocalMove;
 2511              		.loc 1 640 0 is_stmt 1
 2512 10b4 BB79     		ldrb	r3, [r7, #6]	@ zero_extendqisi2
 2513 10b6 032B     		cmp	r3, #3
 2514 10b8 03D1     		bne	.L122
 2515              		.loc 1 640 0 is_stmt 0 discriminator 1
 2516 10ba 7B7B     		ldrb	r3, [r7, #13]	@ zero_extendqisi2
 2517 10bc 2333     		adds	r3, r3, #35
 2518 10be 3B75     		strb	r3, [r7, #20]
 2519 10c0 33E0     		b	.L119
 2520              	.L122:
 641:LCD_Menu.c    ****                         else if(Current_Menu_Position == 4) Underline = 58+LocalMove;
 2521              		.loc 1 641 0 is_stmt 1
 2522 10c2 BB79     		ldrb	r3, [r7, #6]	@ zero_extendqisi2
 2523 10c4 042B     		cmp	r3, #4
 2524 10c6 2DD1     		bne	.L123
 2525              		.loc 1 641 0 is_stmt 0 discriminator 1
 2526 10c8 7B7B     		ldrb	r3, [r7, #13]	@ zero_extendqisi2
 2527 10ca 3A33     		adds	r3, r3, #58
 2528 10cc 3B75     		strb	r3, [r7, #20]
 2529 10ce 2CE0     		b	.L119
 2530              	.L233:
 2531              		.align	2
 2532              	.L232:
 2533 10d0 00000000 		.word	u8g
 2534 10d4 00000000 		.word	u8g_font_unifont
 2535 10d8 80010000 		.word	.LC30
ARM GAS  C:\Users\KJA\AppData\Local\Temp\ccbnGHAr.s 			page 58


 2536 10dc 00000000 		.word	Current_DIE_TempString
 2537 10e0 8C010000 		.word	.LC31
 2538 10e4 00000000 		.word	Current_FET_TempString
 2539 10e8 98010000 		.word	.LC32
 2540 10ec D8000000 		.word	.LC15
 2541 10f0 00000000 		.word	OutputEnable
 2542 10f4 00000000 		.word	Set_Resist
 2543 10f8 00000000 		.word	u8g_font_fub20
 2544 10fc 00000000 		.word	cResist_Set
 2545 1100 00002041 		.word	1092616192
 2546 1104 0000C842 		.word	1120403456
 2547 1108 00007A44 		.word	1148846080
 2548 110c A8010000 		.word	.LC33
 2549 1110 00000000 		.word	cVoltage_Actual
 2550 1114 00000000 		.word	View_Mode
 2551 1118 00000000 		.word	cCurrent_Set
 2552 111c 00000000 		.word	cPower_Set
 2553 1120 00000000 		.word	Edit_Value_Mode
 2554              	.L123:
 642:LCD_Menu.c    ****                         else Underline = 50+LocalMove;
 2555              		.loc 1 642 0 is_stmt 1
 2556 1124 7B7B     		ldrb	r3, [r7, #13]	@ zero_extendqisi2
 2557 1126 3233     		adds	r3, r3, #50
 2558 1128 3B75     		strb	r3, [r7, #20]
 2559              	.L119:
 643:LCD_Menu.c    ****                         u8g_DrawLine(&u8g,Underline,27,Underline+12,27);
 2560              		.loc 1 643 0
 2561 112a 3B7D     		ldrb	r3, [r7, #20]
 2562 112c 0C33     		adds	r3, r3, #12
 2563 112e DCB2     		uxtb	r4, r3
 2564 1130 3A7D     		ldrb	r2, [r7, #20]	@ zero_extendqisi2
 2565 1132 1B23     		movs	r3, #27
 2566 1134 0093     		str	r3, [sp]
 2567 1136 AD48     		ldr	r0, .L234
 2568 1138 1146     		mov	r1, r2
 2569 113a 1B22     		movs	r2, #27
 2570 113c 2346     		mov	r3, r4
 2571 113e FFF7FEFF 		bl	u8g_DrawLine
 644:LCD_Menu.c    ****                         u8g_DrawLine(&u8g,Underline,28,Underline+12,28);
 2572              		.loc 1 644 0
 2573 1142 3B7D     		ldrb	r3, [r7, #20]
 2574 1144 0C33     		adds	r3, r3, #12
 2575 1146 DCB2     		uxtb	r4, r3
 2576 1148 3A7D     		ldrb	r2, [r7, #20]	@ zero_extendqisi2
 2577 114a 1C23     		movs	r3, #28
 2578 114c 0093     		str	r3, [sp]
 2579 114e A748     		ldr	r0, .L234
 2580 1150 1146     		mov	r1, r2
 2581 1152 1C22     		movs	r2, #28
 2582 1154 2346     		mov	r3, r4
 2583 1156 FFF7FEFF 		bl	u8g_DrawLine
 2584 115a DDE0     		b	.L124
 2585              	.L105:
 2586              	.LBE6:
 645:LCD_Menu.c    ****                     }
 646:LCD_Menu.c    ****                 }
 647:LCD_Menu.c    ****                 
ARM GAS  C:\Users\KJA\AppData\Local\Temp\ccbnGHAr.s 			page 59


 648:LCD_Menu.c    ****                 else if(OutputEnable == 1){
 2587              		.loc 1 648 0
 2588 115c A44B     		ldr	r3, .L234+4
 2589 115e 1B78     		ldrb	r3, [r3]	@ zero_extendqisi2
 2590 1160 012B     		cmp	r3, #1
 2591 1162 40F0D980 		bne	.L124
 649:LCD_Menu.c    ****                     if(fResist < 1){                       
 2592              		.loc 1 649 0
 2593 1166 A34B     		ldr	r3, .L234+8
 2594 1168 1B68     		ldr	r3, [r3]	@ float
 2595 116a 1846     		mov	r0, r3
 2596 116c 4FF07E51 		mov	r1, #1065353216
 2597 1170 FFF7FEFF 		bl	__aeabi_fcmplt
 2598 1174 0346     		mov	r3, r0
 2599 1176 002B     		cmp	r3, #0
 2600 1178 0DD0     		beq	.L213
 650:LCD_Menu.c    ****                         u8g_SetFont(&u8g, u8g_font_fub20);   
 2601              		.loc 1 650 0
 2602 117a 9C48     		ldr	r0, .L234
 2603 117c 9E49     		ldr	r1, .L234+12
 2604 117e FFF7FEFF 		bl	u8g_SetFont
 651:LCD_Menu.c    ****                         u8g_DrawStr(&u8g,  31+LocalMove, 26, cResist_Actual);
 2605              		.loc 1 651 0
 2606 1182 7B7B     		ldrb	r3, [r7, #13]	@ zero_extendqisi2
 2607 1184 1F33     		adds	r3, r3, #31
 2608 1186 DBB2     		uxtb	r3, r3
 2609 1188 9848     		ldr	r0, .L234
 2610 118a 1946     		mov	r1, r3
 2611 118c 1A22     		movs	r2, #26
 2612 118e 9B4B     		ldr	r3, .L234+16
 2613 1190 FFF7FEFF 		bl	u8g_DrawStr
 2614 1194 51E0     		b	.L127
 2615              	.L213:
 652:LCD_Menu.c    ****                     }
 653:LCD_Menu.c    ****                     else if(fResist < 10){
 2616              		.loc 1 653 0
 2617 1196 974B     		ldr	r3, .L234+8
 2618 1198 1B68     		ldr	r3, [r3]	@ float
 2619 119a 1846     		mov	r0, r3
 2620 119c 9849     		ldr	r1, .L234+20
 2621 119e FFF7FEFF 		bl	__aeabi_fcmplt
 2622 11a2 0346     		mov	r3, r0
 2623 11a4 002B     		cmp	r3, #0
 2624 11a6 0DD0     		beq	.L214
 654:LCD_Menu.c    ****                         u8g_SetFont(&u8g, u8g_font_fub20);   
 2625              		.loc 1 654 0
 2626 11a8 9048     		ldr	r0, .L234
 2627 11aa 9349     		ldr	r1, .L234+12
 2628 11ac FFF7FEFF 		bl	u8g_SetFont
 655:LCD_Menu.c    ****                         u8g_DrawStr(&u8g,  24+LocalMove, 26, cResist_Actual); 
 2629              		.loc 1 655 0
 2630 11b0 7B7B     		ldrb	r3, [r7, #13]	@ zero_extendqisi2
 2631 11b2 1833     		adds	r3, r3, #24
 2632 11b4 DBB2     		uxtb	r3, r3
 2633 11b6 8D48     		ldr	r0, .L234
 2634 11b8 1946     		mov	r1, r3
 2635 11ba 1A22     		movs	r2, #26
ARM GAS  C:\Users\KJA\AppData\Local\Temp\ccbnGHAr.s 			page 60


 2636 11bc 8F4B     		ldr	r3, .L234+16
 2637 11be FFF7FEFF 		bl	u8g_DrawStr
 2638 11c2 3AE0     		b	.L127
 2639              	.L214:
 656:LCD_Menu.c    ****                     }
 657:LCD_Menu.c    ****                     else if(fResist < 100){
 2640              		.loc 1 657 0
 2641 11c4 8B4B     		ldr	r3, .L234+8
 2642 11c6 1B68     		ldr	r3, [r3]	@ float
 2643 11c8 1846     		mov	r0, r3
 2644 11ca 8E49     		ldr	r1, .L234+24
 2645 11cc FFF7FEFF 		bl	__aeabi_fcmplt
 2646 11d0 0346     		mov	r3, r0
 2647 11d2 002B     		cmp	r3, #0
 2648 11d4 0DD0     		beq	.L215
 658:LCD_Menu.c    ****                         u8g_SetFont(&u8g, u8g_font_fub20);   
 2649              		.loc 1 658 0
 2650 11d6 8548     		ldr	r0, .L234
 2651 11d8 8749     		ldr	r1, .L234+12
 2652 11da FFF7FEFF 		bl	u8g_SetFont
 659:LCD_Menu.c    ****                         u8g_DrawStr(&u8g,  17+LocalMove, 26, cResist_Actual); 
 2653              		.loc 1 659 0
 2654 11de 7B7B     		ldrb	r3, [r7, #13]	@ zero_extendqisi2
 2655 11e0 1133     		adds	r3, r3, #17
 2656 11e2 DBB2     		uxtb	r3, r3
 2657 11e4 8148     		ldr	r0, .L234
 2658 11e6 1946     		mov	r1, r3
 2659 11e8 1A22     		movs	r2, #26
 2660 11ea 844B     		ldr	r3, .L234+16
 2661 11ec FFF7FEFF 		bl	u8g_DrawStr
 2662 11f0 23E0     		b	.L127
 2663              	.L215:
 660:LCD_Menu.c    ****                     }
 661:LCD_Menu.c    ****                     else if(fResist < 1000){
 2664              		.loc 1 661 0
 2665 11f2 804B     		ldr	r3, .L234+8
 2666 11f4 1B68     		ldr	r3, [r3]	@ float
 2667 11f6 1846     		mov	r0, r3
 2668 11f8 8349     		ldr	r1, .L234+28
 2669 11fa FFF7FEFF 		bl	__aeabi_fcmplt
 2670 11fe 0346     		mov	r3, r0
 2671 1200 002B     		cmp	r3, #0
 2672 1202 0DD0     		beq	.L216
 662:LCD_Menu.c    ****                         u8g_SetFont(&u8g, u8g_font_fub20);   
 2673              		.loc 1 662 0
 2674 1204 7948     		ldr	r0, .L234
 2675 1206 7C49     		ldr	r1, .L234+12
 2676 1208 FFF7FEFF 		bl	u8g_SetFont
 663:LCD_Menu.c    ****                         u8g_DrawStr(&u8g,  2+LocalMove, 26, cResist_Actual); 
 2677              		.loc 1 663 0
 2678 120c 7B7B     		ldrb	r3, [r7, #13]	@ zero_extendqisi2
 2679 120e 0233     		adds	r3, r3, #2
 2680 1210 DBB2     		uxtb	r3, r3
 2681 1212 7648     		ldr	r0, .L234
 2682 1214 1946     		mov	r1, r3
 2683 1216 1A22     		movs	r2, #26
 2684 1218 784B     		ldr	r3, .L234+16
ARM GAS  C:\Users\KJA\AppData\Local\Temp\ccbnGHAr.s 			page 61


 2685 121a FFF7FEFF 		bl	u8g_DrawStr
 2686 121e 0CE0     		b	.L127
 2687              	.L216:
 664:LCD_Menu.c    ****                     }
 665:LCD_Menu.c    ****                     else{
 666:LCD_Menu.c    ****                         u8g_SetFont(&u8g, u8g_font_fub20);   
 2688              		.loc 1 666 0
 2689 1220 7248     		ldr	r0, .L234
 2690 1222 7549     		ldr	r1, .L234+12
 2691 1224 FFF7FEFF 		bl	u8g_SetFont
 667:LCD_Menu.c    ****                         u8g_DrawStr(&u8g,  -13+LocalMove, 26, cResist_Actual); 
 2692              		.loc 1 667 0
 2693 1228 7B7B     		ldrb	r3, [r7, #13]	@ zero_extendqisi2
 2694 122a 0D3B     		subs	r3, r3, #13
 2695 122c DBB2     		uxtb	r3, r3
 2696 122e 6F48     		ldr	r0, .L234
 2697 1230 1946     		mov	r1, r3
 2698 1232 1A22     		movs	r2, #26
 2699 1234 714B     		ldr	r3, .L234+16
 2700 1236 FFF7FEFF 		bl	u8g_DrawStr
 2701              	.L127:
 668:LCD_Menu.c    ****                     }
 669:LCD_Menu.c    ****                     
 670:LCD_Menu.c    ****                    
 671:LCD_Menu.c    ****                     u8g_SetFont(&u8g, u8g_font_unifont);              
 2702              		.loc 1 671 0
 2703 123a 6C48     		ldr	r0, .L234
 2704 123c 7349     		ldr	r1, .L234+32
 2705 123e FFF7FEFF 		bl	u8g_SetFont
 672:LCD_Menu.c    ****                     u8g_DrawStr(&u8g,  96, 26, "Ohm");
 2706              		.loc 1 672 0
 2707 1242 6A48     		ldr	r0, .L234
 2708 1244 6021     		movs	r1, #96
 2709 1246 1A22     		movs	r2, #26
 2710 1248 714B     		ldr	r3, .L234+36
 2711 124a FFF7FEFF 		bl	u8g_DrawStr
 673:LCD_Menu.c    ****                                    
 674:LCD_Menu.c    ****                     u8g_SetFont(&u8g, u8g_font_unifont);              
 2712              		.loc 1 674 0
 2713 124e 6748     		ldr	r0, .L234
 2714 1250 6E49     		ldr	r1, .L234+32
 2715 1252 FFF7FEFF 		bl	u8g_SetFont
 675:LCD_Menu.c    ****                     u8g_DrawStr(&u8g,  4, 43, cVoltage_Actual);
 2716              		.loc 1 675 0
 2717 1256 6548     		ldr	r0, .L234
 2718 1258 0421     		movs	r1, #4
 2719 125a 2B22     		movs	r2, #43
 2720 125c 6D4B     		ldr	r3, .L234+40
 2721 125e FFF7FEFF 		bl	u8g_DrawStr
 676:LCD_Menu.c    ****                     
 677:LCD_Menu.c    ****                     if(View_Mode == 0){                        
 2722              		.loc 1 677 0
 2723 1262 6D4B     		ldr	r3, .L234+44
 2724 1264 1B78     		ldrb	r3, [r3]	@ zero_extendqisi2
 2725 1266 002B     		cmp	r3, #0
 2726 1268 0AD1     		bne	.L134
 678:LCD_Menu.c    ****                         u8g_SetFont(&u8g, u8g_font_unifont);              
ARM GAS  C:\Users\KJA\AppData\Local\Temp\ccbnGHAr.s 			page 62


 2727              		.loc 1 678 0
 2728 126a 6048     		ldr	r0, .L234
 2729 126c 6749     		ldr	r1, .L234+32
 2730 126e FFF7FEFF 		bl	u8g_SetFont
 679:LCD_Menu.c    ****                         u8g_DrawStr(&u8g,  64, 43, cCurrent_Actual);
 2731              		.loc 1 679 0
 2732 1272 5E48     		ldr	r0, .L234
 2733 1274 4021     		movs	r1, #64
 2734 1276 2B22     		movs	r2, #43
 2735 1278 684B     		ldr	r3, .L234+48
 2736 127a FFF7FEFF 		bl	u8g_DrawStr
 2737 127e 09E0     		b	.L135
 2738              	.L134:
 680:LCD_Menu.c    ****                     }
 681:LCD_Menu.c    ****                     else{
 682:LCD_Menu.c    ****                         u8g_SetFont(&u8g, u8g_font_unifont);              
 2739              		.loc 1 682 0
 2740 1280 5A48     		ldr	r0, .L234
 2741 1282 6249     		ldr	r1, .L234+32
 2742 1284 FFF7FEFF 		bl	u8g_SetFont
 683:LCD_Menu.c    ****                         u8g_DrawStr(&u8g,  64, 43, cPower_Actual);
 2743              		.loc 1 683 0
 2744 1288 5848     		ldr	r0, .L234
 2745 128a 4021     		movs	r1, #64
 2746 128c 2B22     		movs	r2, #43
 2747 128e 644B     		ldr	r3, .L234+52
 2748 1290 FFF7FEFF 		bl	u8g_DrawStr
 2749              	.L135:
 684:LCD_Menu.c    ****                     }
 685:LCD_Menu.c    ****                     
 686:LCD_Menu.c    ****                     if(Edit_Value_Mode == 1){                        
 2750              		.loc 1 686 0
 2751 1294 634B     		ldr	r3, .L234+56
 2752 1296 1B78     		ldrb	r3, [r3]	@ zero_extendqisi2
 2753 1298 012B     		cmp	r3, #1
 2754 129a 3DD1     		bne	.L124
 2755              	.LBB7:
 687:LCD_Menu.c    ****                         uint8 Underline;
 688:LCD_Menu.c    ****                         if(Current_Menu_Position == 0) Underline = -12+LocalMove;
 2756              		.loc 1 688 0
 2757 129c BB79     		ldrb	r3, [r7, #6]	@ zero_extendqisi2
 2758 129e 002B     		cmp	r3, #0
 2759 12a0 03D1     		bne	.L136
 2760              		.loc 1 688 0 is_stmt 0 discriminator 1
 2761 12a2 7B7B     		ldrb	r3, [r7, #13]	@ zero_extendqisi2
 2762 12a4 0C3B     		subs	r3, r3, #12
 2763 12a6 FB74     		strb	r3, [r7, #19]
 2764 12a8 1EE0     		b	.L137
 2765              	.L136:
 689:LCD_Menu.c    ****                         else if(Current_Menu_Position == 1) Underline = 3+LocalMove;
 2766              		.loc 1 689 0 is_stmt 1
 2767 12aa BB79     		ldrb	r3, [r7, #6]	@ zero_extendqisi2
 2768 12ac 012B     		cmp	r3, #1
 2769 12ae 03D1     		bne	.L138
 2770              		.loc 1 689 0 is_stmt 0 discriminator 1
 2771 12b0 7B7B     		ldrb	r3, [r7, #13]	@ zero_extendqisi2
 2772 12b2 0333     		adds	r3, r3, #3
ARM GAS  C:\Users\KJA\AppData\Local\Temp\ccbnGHAr.s 			page 63


 2773 12b4 FB74     		strb	r3, [r7, #19]
 2774 12b6 17E0     		b	.L137
 2775              	.L138:
 690:LCD_Menu.c    ****                         else if(Current_Menu_Position == 2) Underline = 18+LocalMove;
 2776              		.loc 1 690 0 is_stmt 1
 2777 12b8 BB79     		ldrb	r3, [r7, #6]	@ zero_extendqisi2
 2778 12ba 022B     		cmp	r3, #2
 2779 12bc 03D1     		bne	.L139
 2780              		.loc 1 690 0 is_stmt 0 discriminator 1
 2781 12be 7B7B     		ldrb	r3, [r7, #13]	@ zero_extendqisi2
 2782 12c0 1233     		adds	r3, r3, #18
 2783 12c2 FB74     		strb	r3, [r7, #19]
 2784 12c4 10E0     		b	.L137
 2785              	.L139:
 691:LCD_Menu.c    ****                         else if(Current_Menu_Position == 3) Underline = 35+LocalMove;
 2786              		.loc 1 691 0 is_stmt 1
 2787 12c6 BB79     		ldrb	r3, [r7, #6]	@ zero_extendqisi2
 2788 12c8 032B     		cmp	r3, #3
 2789 12ca 03D1     		bne	.L140
 2790              		.loc 1 691 0 is_stmt 0 discriminator 1
 2791 12cc 7B7B     		ldrb	r3, [r7, #13]	@ zero_extendqisi2
 2792 12ce 2333     		adds	r3, r3, #35
 2793 12d0 FB74     		strb	r3, [r7, #19]
 2794 12d2 09E0     		b	.L137
 2795              	.L140:
 692:LCD_Menu.c    ****                         else if(Current_Menu_Position == 4) Underline = 58+LocalMove;
 2796              		.loc 1 692 0 is_stmt 1
 2797 12d4 BB79     		ldrb	r3, [r7, #6]	@ zero_extendqisi2
 2798 12d6 042B     		cmp	r3, #4
 2799 12d8 03D1     		bne	.L141
 2800              		.loc 1 692 0 is_stmt 0 discriminator 1
 2801 12da 7B7B     		ldrb	r3, [r7, #13]	@ zero_extendqisi2
 2802 12dc 3A33     		adds	r3, r3, #58
 2803 12de FB74     		strb	r3, [r7, #19]
 2804 12e0 02E0     		b	.L137
 2805              	.L141:
 693:LCD_Menu.c    ****                         else Underline = 50+LocalMove;
 2806              		.loc 1 693 0 is_stmt 1
 2807 12e2 7B7B     		ldrb	r3, [r7, #13]	@ zero_extendqisi2
 2808 12e4 3233     		adds	r3, r3, #50
 2809 12e6 FB74     		strb	r3, [r7, #19]
 2810              	.L137:
 694:LCD_Menu.c    ****                         u8g_DrawLine(&u8g,Underline,27,Underline+12,27);
 2811              		.loc 1 694 0
 2812 12e8 FB7C     		ldrb	r3, [r7, #19]
 2813 12ea 0C33     		adds	r3, r3, #12
 2814 12ec DCB2     		uxtb	r4, r3
 2815 12ee FA7C     		ldrb	r2, [r7, #19]	@ zero_extendqisi2
 2816 12f0 1B23     		movs	r3, #27
 2817 12f2 0093     		str	r3, [sp]
 2818 12f4 3D48     		ldr	r0, .L234
 2819 12f6 1146     		mov	r1, r2
 2820 12f8 1B22     		movs	r2, #27
 2821 12fa 2346     		mov	r3, r4
 2822 12fc FFF7FEFF 		bl	u8g_DrawLine
 695:LCD_Menu.c    ****                         u8g_DrawLine(&u8g,Underline,28,Underline+12,28);                    
 2823              		.loc 1 695 0
ARM GAS  C:\Users\KJA\AppData\Local\Temp\ccbnGHAr.s 			page 64


 2824 1300 FB7C     		ldrb	r3, [r7, #19]
 2825 1302 0C33     		adds	r3, r3, #12
 2826 1304 DCB2     		uxtb	r4, r3
 2827 1306 FA7C     		ldrb	r2, [r7, #19]	@ zero_extendqisi2
 2828 1308 1C23     		movs	r3, #28
 2829 130a 0093     		str	r3, [sp]
 2830 130c 3748     		ldr	r0, .L234
 2831 130e 1146     		mov	r1, r2
 2832 1310 1C22     		movs	r2, #28
 2833 1312 2346     		mov	r3, r4
 2834 1314 FFF7FEFF 		bl	u8g_DrawLine
 2835              	.L124:
 2836              	.LBE7:
 696:LCD_Menu.c    ****                     }
 697:LCD_Menu.c    ****                 }
 698:LCD_Menu.c    **** 
 699:LCD_Menu.c    ****                 
 700:LCD_Menu.c    ****                 
 701:LCD_Menu.c    ****                 
 702:LCD_Menu.c    ****                 u8g_DrawBox(&u8g, 0,51,128,16);
 2837              		.loc 1 702 0
 2838 1318 1023     		movs	r3, #16
 2839 131a 0093     		str	r3, [sp]
 2840 131c 3348     		ldr	r0, .L234
 2841 131e 0021     		movs	r1, #0
 2842 1320 3322     		movs	r2, #51
 2843 1322 8023     		movs	r3, #128
 2844 1324 FFF7FEFF 		bl	u8g_DrawBox
 703:LCD_Menu.c    ****                 u8g_SetDefaultBackgroundColor(&u8g);
 2845              		.loc 1 703 0
 2846 1328 3048     		ldr	r0, .L234
 2847 132a FFF7FEFF 		bl	u8g_SetDefaultBackgroundColor
 704:LCD_Menu.c    ****                 u8g_SetFont(&u8g, u8g_font_unifont);              
 2848              		.loc 1 704 0
 2849 132e 2F48     		ldr	r0, .L234
 2850 1330 3649     		ldr	r1, .L234+32
 2851 1332 FFF7FEFF 		bl	u8g_SetFont
 705:LCD_Menu.c    ****                 u8g_DrawLine(&u8g,32,52,32,62); 
 2852              		.loc 1 705 0
 2853 1336 3E23     		movs	r3, #62
 2854 1338 0093     		str	r3, [sp]
 2855 133a 2C48     		ldr	r0, .L234
 2856 133c 2021     		movs	r1, #32
 2857 133e 3422     		movs	r2, #52
 2858 1340 2023     		movs	r3, #32
 2859 1342 FFF7FEFF 		bl	u8g_DrawLine
 706:LCD_Menu.c    ****                 u8g_DrawLine(&u8g,64,52,64,62);   
 2860              		.loc 1 706 0
 2861 1346 3E23     		movs	r3, #62
 2862 1348 0093     		str	r3, [sp]
 2863 134a 2848     		ldr	r0, .L234
 2864 134c 4021     		movs	r1, #64
 2865 134e 3422     		movs	r2, #52
 2866 1350 4023     		movs	r3, #64
 2867 1352 FFF7FEFF 		bl	u8g_DrawLine
 707:LCD_Menu.c    ****                 u8g_DrawLine(&u8g,96,52,96,62);
 2868              		.loc 1 707 0
ARM GAS  C:\Users\KJA\AppData\Local\Temp\ccbnGHAr.s 			page 65


 2869 1356 3E23     		movs	r3, #62
 2870 1358 0093     		str	r3, [sp]
 2871 135a 2448     		ldr	r0, .L234
 2872 135c 6021     		movs	r1, #96
 2873 135e 3422     		movs	r2, #52
 2874 1360 6023     		movs	r3, #96
 2875 1362 FFF7FEFF 		bl	u8g_DrawLine
 708:LCD_Menu.c    ****                 
 709:LCD_Menu.c    ****                 if(OutputEnable == 0){
 2876              		.loc 1 709 0
 2877 1366 224B     		ldr	r3, .L234+4
 2878 1368 1B78     		ldrb	r3, [r3]	@ zero_extendqisi2
 2879 136a 002B     		cmp	r3, #0
 2880 136c 0BD1     		bne	.L142
 710:LCD_Menu.c    ****                     u8g_DrawTriangle(&u8g, 11+3,51, 17+3,57, 11+3,63);
 2881              		.loc 1 710 0
 2882 136e 3923     		movs	r3, #57
 2883 1370 0093     		str	r3, [sp]
 2884 1372 0E23     		movs	r3, #14
 2885 1374 0193     		str	r3, [sp, #4]
 2886 1376 3F23     		movs	r3, #63
 2887 1378 0293     		str	r3, [sp, #8]
 2888 137a 1C48     		ldr	r0, .L234
 2889 137c 0E21     		movs	r1, #14
 2890 137e 3322     		movs	r2, #51
 2891 1380 1423     		movs	r3, #20
 2892 1382 FFF7FEFF 		bl	u8g_DrawTriangle
 2893              	.L142:
 711:LCD_Menu.c    ****                 }
 712:LCD_Menu.c    ****                 if(OutputEnable == 1){
 2894              		.loc 1 712 0
 2895 1386 1A4B     		ldr	r3, .L234+4
 2896 1388 1B78     		ldrb	r3, [r3]	@ zero_extendqisi2
 2897 138a 012B     		cmp	r3, #1
 2898 138c 1FD1     		bne	.L143
 713:LCD_Menu.c    ****                     u8g_DrawLine(&u8g,14,53,14,61);
 2899              		.loc 1 713 0
 2900 138e 3D23     		movs	r3, #61
 2901 1390 0093     		str	r3, [sp]
 2902 1392 1648     		ldr	r0, .L234
 2903 1394 0E21     		movs	r1, #14
 2904 1396 3522     		movs	r2, #53
 2905 1398 0E23     		movs	r3, #14
 2906 139a FFF7FEFF 		bl	u8g_DrawLine
 714:LCD_Menu.c    ****                     u8g_DrawLine(&u8g,15,53,15,61); 
 2907              		.loc 1 714 0
 2908 139e 3D23     		movs	r3, #61
 2909 13a0 0093     		str	r3, [sp]
 2910 13a2 1248     		ldr	r0, .L234
 2911 13a4 0F21     		movs	r1, #15
 2912 13a6 3522     		movs	r2, #53
 2913 13a8 0F23     		movs	r3, #15
 2914 13aa FFF7FEFF 		bl	u8g_DrawLine
 715:LCD_Menu.c    ****                     
 716:LCD_Menu.c    ****                     u8g_DrawLine(&u8g,17,53,17,61); 
 2915              		.loc 1 716 0
 2916 13ae 3D23     		movs	r3, #61
ARM GAS  C:\Users\KJA\AppData\Local\Temp\ccbnGHAr.s 			page 66


 2917 13b0 0093     		str	r3, [sp]
 2918 13b2 0E48     		ldr	r0, .L234
 2919 13b4 1121     		movs	r1, #17
 2920 13b6 3522     		movs	r2, #53
 2921 13b8 1123     		movs	r3, #17
 2922 13ba FFF7FEFF 		bl	u8g_DrawLine
 717:LCD_Menu.c    ****                     u8g_DrawLine(&u8g,18,53,18,61);   
 2923              		.loc 1 717 0
 2924 13be 3D23     		movs	r3, #61
 2925 13c0 0093     		str	r3, [sp]
 2926 13c2 0A48     		ldr	r0, .L234
 2927 13c4 1221     		movs	r1, #18
 2928 13c6 3522     		movs	r2, #53
 2929 13c8 1223     		movs	r3, #18
 2930 13ca FFF7FEFF 		bl	u8g_DrawLine
 2931              	.L143:
 718:LCD_Menu.c    ****                 }
 719:LCD_Menu.c    ****                 
 720:LCD_Menu.c    ****                 if(Four_Wire_Method == 0){  
 2932              		.loc 1 720 0
 2933 13ce 164B     		ldr	r3, .L234+60
 2934 13d0 1B78     		ldrb	r3, [r3]	@ zero_extendqisi2
 2935 13d2 002B     		cmp	r3, #0
 2936 13d4 2CD1     		bne	.L144
 721:LCD_Menu.c    ****                 u8g_SetFont(&u8g, u8g_font_unifont);      
 2937              		.loc 1 721 0
 2938 13d6 0548     		ldr	r0, .L234
 2939 13d8 0C49     		ldr	r1, .L234+32
 2940 13da FFF7FEFF 		bl	u8g_SetFont
 722:LCD_Menu.c    **** 
 723:LCD_Menu.c    ****                 u8g_DrawStr(&u8g,  41, 62, "2W");
 2941              		.loc 1 723 0
 2942 13de 0348     		ldr	r0, .L234
 2943 13e0 2921     		movs	r1, #41
 2944 13e2 3E22     		movs	r2, #62
 2945 13e4 114B     		ldr	r3, .L234+64
 2946 13e6 FFF7FEFF 		bl	u8g_DrawStr
 2947 13ea 2FE0     		b	.L145
 2948              	.L235:
 2949              		.align	2
 2950              	.L234:
 2951 13ec 00000000 		.word	u8g
 2952 13f0 00000000 		.word	OutputEnable
 2953 13f4 00000000 		.word	fResist
 2954 13f8 00000000 		.word	u8g_font_fub20
 2955 13fc 00000000 		.word	cResist_Actual
 2956 1400 00002041 		.word	1092616192
 2957 1404 0000C842 		.word	1120403456
 2958 1408 00007A44 		.word	1148846080
 2959 140c 00000000 		.word	u8g_font_unifont
 2960 1410 A8010000 		.word	.LC33
 2961 1414 00000000 		.word	cVoltage_Actual
 2962 1418 00000000 		.word	View_Mode
 2963 141c 00000000 		.word	cCurrent_Actual
 2964 1420 00000000 		.word	cPower_Actual
 2965 1424 00000000 		.word	Edit_Value_Mode
 2966 1428 00000000 		.word	Four_Wire_Method
ARM GAS  C:\Users\KJA\AppData\Local\Temp\ccbnGHAr.s 			page 67


 2967 142c AC010000 		.word	.LC34
 2968              	.L144:
 724:LCD_Menu.c    ****                 }
 725:LCD_Menu.c    ****                 else if(Four_Wire_Method == 1){  
 2969              		.loc 1 725 0
 2970 1430 A84B     		ldr	r3, .L236
 2971 1432 1B78     		ldrb	r3, [r3]	@ zero_extendqisi2
 2972 1434 012B     		cmp	r3, #1
 2973 1436 09D1     		bne	.L145
 726:LCD_Menu.c    ****                 u8g_SetFont(&u8g, u8g_font_unifont);              
 2974              		.loc 1 726 0
 2975 1438 A748     		ldr	r0, .L236+4
 2976 143a A849     		ldr	r1, .L236+8
 2977 143c FFF7FEFF 		bl	u8g_SetFont
 727:LCD_Menu.c    ****                 u8g_DrawStr(&u8g,  41, 62, "4W");
 2978              		.loc 1 727 0
 2979 1440 A548     		ldr	r0, .L236+4
 2980 1442 2921     		movs	r1, #41
 2981 1444 3E22     		movs	r2, #62
 2982 1446 A64B     		ldr	r3, .L236+12
 2983 1448 FFF7FEFF 		bl	u8g_DrawStr
 2984              	.L145:
 728:LCD_Menu.c    ****                 }
 729:LCD_Menu.c    ****                 
 730:LCD_Menu.c    ****                 u8g_DrawLine(&u8g,117,54,117,60-1);
 2985              		.loc 1 730 0
 2986 144c 3B23     		movs	r3, #59
 2987 144e 0093     		str	r3, [sp]
 2988 1450 A148     		ldr	r0, .L236+4
 2989 1452 7521     		movs	r1, #117
 2990 1454 3622     		movs	r2, #54
 2991 1456 7523     		movs	r3, #117
 2992 1458 FFF7FEFF 		bl	u8g_DrawLine
 731:LCD_Menu.c    ****                 u8g_DrawLine(&u8g,109,60-1,117,60-1);
 2993              		.loc 1 731 0
 2994 145c 3B23     		movs	r3, #59
 2995 145e 0093     		str	r3, [sp]
 2996 1460 9D48     		ldr	r0, .L236+4
 2997 1462 6D21     		movs	r1, #109
 2998 1464 3B22     		movs	r2, #59
 2999 1466 7523     		movs	r3, #117
 3000 1468 FFF7FEFF 		bl	u8g_DrawLine
 732:LCD_Menu.c    ****                 u8g_DrawTriangle(&u8g, 112,57-1, 107,60-1, 112,63-1);
 3001              		.loc 1 732 0
 3002 146c 3B23     		movs	r3, #59
 3003 146e 0093     		str	r3, [sp]
 3004 1470 7023     		movs	r3, #112
 3005 1472 0193     		str	r3, [sp, #4]
 3006 1474 3E23     		movs	r3, #62
 3007 1476 0293     		str	r3, [sp, #8]
 3008 1478 9748     		ldr	r0, .L236+4
 3009 147a 7021     		movs	r1, #112
 3010 147c 3822     		movs	r2, #56
 3011 147e 6B23     		movs	r3, #107
 3012 1480 FFF7FEFF 		bl	u8g_DrawTriangle
 733:LCD_Menu.c    ****                 
 734:LCD_Menu.c    ****                 u8g_SetFont(&u8g, u8g_font_unifont_77);              
ARM GAS  C:\Users\KJA\AppData\Local\Temp\ccbnGHAr.s 			page 68


 3013              		.loc 1 734 0
 3014 1484 9448     		ldr	r0, .L236+4
 3015 1486 9749     		ldr	r1, .L236+16
 3016 1488 FFF7FEFF 		bl	u8g_SetFont
 735:LCD_Menu.c    ****                 u8g_DrawStr(&u8g,  73, 62, "`");
 3017              		.loc 1 735 0
 3018 148c 9248     		ldr	r0, .L236+4
 3019 148e 4921     		movs	r1, #73
 3020 1490 3E22     		movs	r2, #62
 3021 1492 954B     		ldr	r3, .L236+20
 3022 1494 FFF7FEFF 		bl	u8g_DrawStr
 3023              	.LBE5:
 736:LCD_Menu.c    ****                 
 737:LCD_Menu.c    ****             } while ( u8g_NextPage(&u8g) );
 3024              		.loc 1 737 0
 3025 1498 8F48     		ldr	r0, .L236+4
 3026 149a FFF7FEFF 		bl	u8g_NextPage
 3027 149e 0346     		mov	r3, r0
 3028 14a0 002B     		cmp	r3, #0
 3029 14a2 7FF44CAD 		bne	.L146
 738:LCD_Menu.c    ****         break;                           
 3030              		.loc 1 738 0
 3031 14a6 AAE3     		b	.L1
 3032              	.L13:
 739:LCD_Menu.c    ****             
 740:LCD_Menu.c    ****             
 741:LCD_Menu.c    ****         case ConstantPower:            
 742:LCD_Menu.c    ****             
 743:LCD_Menu.c    ****             u8g_FirstPage(&u8g);
 3033              		.loc 1 743 0
 3034 14a8 8B48     		ldr	r0, .L236+4
 3035 14aa FFF7FEFF 		bl	u8g_FirstPage
 3036              	.L176:
 3037              	.LBB8:
 744:LCD_Menu.c    ****             do{    
 745:LCD_Menu.c    ****                 
 746:LCD_Menu.c    ****                 int8 LocalMove = 14;
 3038              		.loc 1 746 0
 3039 14ae 0E23     		movs	r3, #14
 3040 14b0 3B73     		strb	r3, [r7, #12]
 747:LCD_Menu.c    ****                 
 748:LCD_Menu.c    ****                 u8g_SetDefaultForegroundColor(&u8g);    
 3041              		.loc 1 748 0
 3042 14b2 8948     		ldr	r0, .L236+4
 3043 14b4 FFF7FEFF 		bl	u8g_SetDefaultForegroundColor
 749:LCD_Menu.c    ****                                 
 750:LCD_Menu.c    ****                 if(OutputEnable == 0){
 3044              		.loc 1 750 0
 3045 14b8 8C4B     		ldr	r3, .L236+24
 3046 14ba 1B78     		ldrb	r3, [r3]	@ zero_extendqisi2
 3047 14bc 002B     		cmp	r3, #0
 3048 14be 40F09480 		bne	.L147
 751:LCD_Menu.c    ****                     if(Set_Power < 10.00){                       
 3049              		.loc 1 751 0
 3050 14c2 8B4B     		ldr	r3, .L236+28
 3051 14c4 1B68     		ldr	r3, [r3]	@ float
 3052 14c6 1846     		mov	r0, r3
ARM GAS  C:\Users\KJA\AppData\Local\Temp\ccbnGHAr.s 			page 69


 3053 14c8 8A49     		ldr	r1, .L236+32
 3054 14ca FFF7FEFF 		bl	__aeabi_fcmplt
 3055 14ce 0346     		mov	r3, r0
 3056 14d0 002B     		cmp	r3, #0
 3057 14d2 0DD0     		beq	.L217
 752:LCD_Menu.c    ****                         u8g_SetFont(&u8g, u8g_font_fub20);   
 3058              		.loc 1 752 0
 3059 14d4 8048     		ldr	r0, .L236+4
 3060 14d6 8849     		ldr	r1, .L236+36
 3061 14d8 FFF7FEFF 		bl	u8g_SetFont
 753:LCD_Menu.c    ****                         u8g_DrawStr(&u8g,  28+LocalMove, 26, cPower_Set);
 3062              		.loc 1 753 0
 3063 14dc 3B7B     		ldrb	r3, [r7, #12]	@ zero_extendqisi2
 3064 14de 1C33     		adds	r3, r3, #28
 3065 14e0 DBB2     		uxtb	r3, r3
 3066 14e2 7D48     		ldr	r0, .L236+4
 3067 14e4 1946     		mov	r1, r3
 3068 14e6 1A22     		movs	r2, #26
 3069 14e8 844B     		ldr	r3, .L236+40
 3070 14ea FFF7FEFF 		bl	u8g_DrawStr
 3071 14ee 23E0     		b	.L150
 3072              	.L217:
 754:LCD_Menu.c    ****                     }
 755:LCD_Menu.c    ****                     else if(Set_Power < 100.00){
 3073              		.loc 1 755 0
 3074 14f0 7F4B     		ldr	r3, .L236+28
 3075 14f2 1B68     		ldr	r3, [r3]	@ float
 3076 14f4 1846     		mov	r0, r3
 3077 14f6 8249     		ldr	r1, .L236+44
 3078 14f8 FFF7FEFF 		bl	__aeabi_fcmplt
 3079 14fc 0346     		mov	r3, r0
 3080 14fe 002B     		cmp	r3, #0
 3081 1500 0DD0     		beq	.L218
 756:LCD_Menu.c    ****                         u8g_SetFont(&u8g, u8g_font_fub20);   
 3082              		.loc 1 756 0
 3083 1502 7548     		ldr	r0, .L236+4
 3084 1504 7C49     		ldr	r1, .L236+36
 3085 1506 FFF7FEFF 		bl	u8g_SetFont
 757:LCD_Menu.c    ****                         u8g_DrawStr(&u8g,  9+LocalMove, 26, cPower_Set); 
 3086              		.loc 1 757 0
 3087 150a 3B7B     		ldrb	r3, [r7, #12]	@ zero_extendqisi2
 3088 150c 0933     		adds	r3, r3, #9
 3089 150e DBB2     		uxtb	r3, r3
 3090 1510 7148     		ldr	r0, .L236+4
 3091 1512 1946     		mov	r1, r3
 3092 1514 1A22     		movs	r2, #26
 3093 1516 794B     		ldr	r3, .L236+40
 3094 1518 FFF7FEFF 		bl	u8g_DrawStr
 3095 151c 0CE0     		b	.L150
 3096              	.L218:
 758:LCD_Menu.c    ****                     }
 759:LCD_Menu.c    ****                     else{
 760:LCD_Menu.c    ****                         u8g_SetFont(&u8g, u8g_font_fub20);   
 3097              		.loc 1 760 0
 3098 151e 6E48     		ldr	r0, .L236+4
 3099 1520 7549     		ldr	r1, .L236+36
 3100 1522 FFF7FEFF 		bl	u8g_SetFont
ARM GAS  C:\Users\KJA\AppData\Local\Temp\ccbnGHAr.s 			page 70


 761:LCD_Menu.c    ****                         u8g_DrawStr(&u8g,  -6+LocalMove, 26, cPower_Set); 
 3101              		.loc 1 761 0
 3102 1526 3B7B     		ldrb	r3, [r7, #12]	@ zero_extendqisi2
 3103 1528 063B     		subs	r3, r3, #6
 3104 152a DBB2     		uxtb	r3, r3
 3105 152c 6A48     		ldr	r0, .L236+4
 3106 152e 1946     		mov	r1, r3
 3107 1530 1A22     		movs	r2, #26
 3108 1532 724B     		ldr	r3, .L236+40
 3109 1534 FFF7FEFF 		bl	u8g_DrawStr
 3110              	.L150:
 762:LCD_Menu.c    ****                     }
 763:LCD_Menu.c    ****                                  
 764:LCD_Menu.c    ****                     u8g_SetFont(&u8g, u8g_font_unifont);              
 3111              		.loc 1 764 0
 3112 1538 6748     		ldr	r0, .L236+4
 3113 153a 6849     		ldr	r1, .L236+8
 3114 153c FFF7FEFF 		bl	u8g_SetFont
 765:LCD_Menu.c    ****                     u8g_DrawStr(&u8g,  4, 43, cVoltage_Set);
 3115              		.loc 1 765 0
 3116 1540 6548     		ldr	r0, .L236+4
 3117 1542 0421     		movs	r1, #4
 3118 1544 2B22     		movs	r2, #43
 3119 1546 6F4B     		ldr	r3, .L236+48
 3120 1548 FFF7FEFF 		bl	u8g_DrawStr
 766:LCD_Menu.c    ****                     
 767:LCD_Menu.c    ****                     if(View_Mode == 0){
 3121              		.loc 1 767 0
 3122 154c 6E4B     		ldr	r3, .L236+52
 3123 154e 1B78     		ldrb	r3, [r3]	@ zero_extendqisi2
 3124 1550 002B     		cmp	r3, #0
 3125 1552 0AD1     		bne	.L153
 768:LCD_Menu.c    ****                         u8g_SetFont(&u8g, u8g_font_unifont);              
 3126              		.loc 1 768 0
 3127 1554 6048     		ldr	r0, .L236+4
 3128 1556 6149     		ldr	r1, .L236+8
 3129 1558 FFF7FEFF 		bl	u8g_SetFont
 769:LCD_Menu.c    ****                         u8g_DrawStr(&u8g,  64, 43, cCurrent_Set); 
 3130              		.loc 1 769 0
 3131 155c 5E48     		ldr	r0, .L236+4
 3132 155e 4021     		movs	r1, #64
 3133 1560 2B22     		movs	r2, #43
 3134 1562 6A4B     		ldr	r3, .L236+56
 3135 1564 FFF7FEFF 		bl	u8g_DrawStr
 3136 1568 09E0     		b	.L154
 3137              	.L153:
 770:LCD_Menu.c    ****                     }
 771:LCD_Menu.c    ****                     else{
 772:LCD_Menu.c    ****                         u8g_SetFont(&u8g, u8g_font_unifont);              
 3138              		.loc 1 772 0
 3139 156a 5B48     		ldr	r0, .L236+4
 3140 156c 5B49     		ldr	r1, .L236+8
 3141 156e FFF7FEFF 		bl	u8g_SetFont
 773:LCD_Menu.c    ****                         u8g_DrawStr(&u8g,  64, 43, cResist_Set);
 3142              		.loc 1 773 0
 3143 1572 5948     		ldr	r0, .L236+4
 3144 1574 4021     		movs	r1, #64
ARM GAS  C:\Users\KJA\AppData\Local\Temp\ccbnGHAr.s 			page 71


 3145 1576 2B22     		movs	r2, #43
 3146 1578 654B     		ldr	r3, .L236+60
 3147 157a FFF7FEFF 		bl	u8g_DrawStr
 3148              	.L154:
 774:LCD_Menu.c    ****                     }
 775:LCD_Menu.c    ****                     
 776:LCD_Menu.c    ****                     if(Edit_Value_Mode == 1){                        
 3149              		.loc 1 776 0
 3150 157e 654B     		ldr	r3, .L236+64
 3151 1580 1B78     		ldrb	r3, [r3]	@ zero_extendqisi2
 3152 1582 012B     		cmp	r3, #1
 3153 1584 40F0FC80 		bne	.L160
 3154              	.LBB9:
 777:LCD_Menu.c    ****                         uint8 Underline;
 778:LCD_Menu.c    ****                         if(Current_Menu_Position == 0) Underline = 10+LocalMove;
 3155              		.loc 1 778 0
 3156 1588 BB79     		ldrb	r3, [r7, #6]	@ zero_extendqisi2
 3157 158a 002B     		cmp	r3, #0
 3158 158c 03D1     		bne	.L156
 3159              		.loc 1 778 0 is_stmt 0 discriminator 1
 3160 158e 3B7B     		ldrb	r3, [r7, #12]	@ zero_extendqisi2
 3161 1590 0A33     		adds	r3, r3, #10
 3162 1592 BB74     		strb	r3, [r7, #18]
 3163 1594 10E0     		b	.L157
 3164              	.L156:
 779:LCD_Menu.c    ****                         else if(Current_Menu_Position == 1) Underline = 26+LocalMove;
 3165              		.loc 1 779 0 is_stmt 1
 3166 1596 BB79     		ldrb	r3, [r7, #6]	@ zero_extendqisi2
 3167 1598 012B     		cmp	r3, #1
 3168 159a 03D1     		bne	.L158
 3169              		.loc 1 779 0 is_stmt 0 discriminator 1
 3170 159c 3B7B     		ldrb	r3, [r7, #12]	@ zero_extendqisi2
 3171 159e 1A33     		adds	r3, r3, #26
 3172 15a0 BB74     		strb	r3, [r7, #18]
 3173 15a2 09E0     		b	.L157
 3174              	.L158:
 780:LCD_Menu.c    ****                         else if(Current_Menu_Position == 2) Underline = 50+LocalMove;
 3175              		.loc 1 780 0 is_stmt 1
 3176 15a4 BB79     		ldrb	r3, [r7, #6]	@ zero_extendqisi2
 3177 15a6 022B     		cmp	r3, #2
 3178 15a8 03D1     		bne	.L159
 3179              		.loc 1 780 0 is_stmt 0 discriminator 1
 3180 15aa 3B7B     		ldrb	r3, [r7, #12]	@ zero_extendqisi2
 3181 15ac 3233     		adds	r3, r3, #50
 3182 15ae BB74     		strb	r3, [r7, #18]
 3183 15b0 02E0     		b	.L157
 3184              	.L159:
 781:LCD_Menu.c    ****                         else Underline = 50+LocalMove;
 3185              		.loc 1 781 0 is_stmt 1
 3186 15b2 3B7B     		ldrb	r3, [r7, #12]	@ zero_extendqisi2
 3187 15b4 3233     		adds	r3, r3, #50
 3188 15b6 BB74     		strb	r3, [r7, #18]
 3189              	.L157:
 782:LCD_Menu.c    ****                         u8g_DrawLine(&u8g,Underline,27,Underline+12,27);
 3190              		.loc 1 782 0
 3191 15b8 BB7C     		ldrb	r3, [r7, #18]
 3192 15ba 0C33     		adds	r3, r3, #12
ARM GAS  C:\Users\KJA\AppData\Local\Temp\ccbnGHAr.s 			page 72


 3193 15bc DCB2     		uxtb	r4, r3
 3194 15be BA7C     		ldrb	r2, [r7, #18]	@ zero_extendqisi2
 3195 15c0 1B23     		movs	r3, #27
 3196 15c2 0093     		str	r3, [sp]
 3197 15c4 4448     		ldr	r0, .L236+4
 3198 15c6 1146     		mov	r1, r2
 3199 15c8 1B22     		movs	r2, #27
 3200 15ca 2346     		mov	r3, r4
 3201 15cc FFF7FEFF 		bl	u8g_DrawLine
 783:LCD_Menu.c    ****                         u8g_DrawLine(&u8g,Underline,28,Underline+12,28);
 3202              		.loc 1 783 0
 3203 15d0 BB7C     		ldrb	r3, [r7, #18]
 3204 15d2 0C33     		adds	r3, r3, #12
 3205 15d4 DCB2     		uxtb	r4, r3
 3206 15d6 BA7C     		ldrb	r2, [r7, #18]	@ zero_extendqisi2
 3207 15d8 1C23     		movs	r3, #28
 3208 15da 0093     		str	r3, [sp]
 3209 15dc 3E48     		ldr	r0, .L236+4
 3210 15de 1146     		mov	r1, r2
 3211 15e0 1C22     		movs	r2, #28
 3212 15e2 2346     		mov	r3, r4
 3213 15e4 FFF7FEFF 		bl	u8g_DrawLine
 3214 15e8 CAE0     		b	.L160
 3215              	.L147:
 3216              	.LBE9:
 784:LCD_Menu.c    ****                     }
 785:LCD_Menu.c    ****                 }
 786:LCD_Menu.c    ****                 
 787:LCD_Menu.c    ****                 else if(OutputEnable == 1){
 3217              		.loc 1 787 0
 3218 15ea 404B     		ldr	r3, .L236+24
 3219 15ec 1B78     		ldrb	r3, [r3]	@ zero_extendqisi2
 3220 15ee 012B     		cmp	r3, #1
 3221 15f0 40F0C680 		bne	.L160
 788:LCD_Menu.c    ****                     if(fPower < 10.00){
 3222              		.loc 1 788 0
 3223 15f4 484B     		ldr	r3, .L236+68
 3224 15f6 1B68     		ldr	r3, [r3]	@ float
 3225 15f8 1846     		mov	r0, r3
 3226 15fa 3E49     		ldr	r1, .L236+32
 3227 15fc FFF7FEFF 		bl	__aeabi_fcmplt
 3228 1600 0346     		mov	r3, r0
 3229 1602 002B     		cmp	r3, #0
 3230 1604 0DD0     		beq	.L219
 789:LCD_Menu.c    ****                         u8g_SetFont(&u8g, u8g_font_fub20);   
 3231              		.loc 1 789 0
 3232 1606 3448     		ldr	r0, .L236+4
 3233 1608 3B49     		ldr	r1, .L236+36
 3234 160a FFF7FEFF 		bl	u8g_SetFont
 790:LCD_Menu.c    ****                         u8g_DrawStr(&u8g,  28+LocalMove, 26, cPower_Actual);
 3235              		.loc 1 790 0
 3236 160e 3B7B     		ldrb	r3, [r7, #12]	@ zero_extendqisi2
 3237 1610 1C33     		adds	r3, r3, #28
 3238 1612 DBB2     		uxtb	r3, r3
 3239 1614 3048     		ldr	r0, .L236+4
 3240 1616 1946     		mov	r1, r3
 3241 1618 1A22     		movs	r2, #26
ARM GAS  C:\Users\KJA\AppData\Local\Temp\ccbnGHAr.s 			page 73


 3242 161a 404B     		ldr	r3, .L236+72
 3243 161c FFF7FEFF 		bl	u8g_DrawStr
 3244 1620 23E0     		b	.L163
 3245              	.L219:
 791:LCD_Menu.c    ****                     }
 792:LCD_Menu.c    ****                     else if (fPower < 100.00){
 3246              		.loc 1 792 0
 3247 1622 3D4B     		ldr	r3, .L236+68
 3248 1624 1B68     		ldr	r3, [r3]	@ float
 3249 1626 1846     		mov	r0, r3
 3250 1628 3549     		ldr	r1, .L236+44
 3251 162a FFF7FEFF 		bl	__aeabi_fcmplt
 3252 162e 0346     		mov	r3, r0
 3253 1630 002B     		cmp	r3, #0
 3254 1632 0DD0     		beq	.L220
 793:LCD_Menu.c    ****                         u8g_SetFont(&u8g, u8g_font_fub20);   
 3255              		.loc 1 793 0
 3256 1634 2848     		ldr	r0, .L236+4
 3257 1636 3049     		ldr	r1, .L236+36
 3258 1638 FFF7FEFF 		bl	u8g_SetFont
 794:LCD_Menu.c    ****                         u8g_DrawStr(&u8g,  9+LocalMove, 26, cPower_Actual); 
 3259              		.loc 1 794 0
 3260 163c 3B7B     		ldrb	r3, [r7, #12]	@ zero_extendqisi2
 3261 163e 0933     		adds	r3, r3, #9
 3262 1640 DBB2     		uxtb	r3, r3
 3263 1642 2548     		ldr	r0, .L236+4
 3264 1644 1946     		mov	r1, r3
 3265 1646 1A22     		movs	r2, #26
 3266 1648 344B     		ldr	r3, .L236+72
 3267 164a FFF7FEFF 		bl	u8g_DrawStr
 3268 164e 0CE0     		b	.L163
 3269              	.L220:
 795:LCD_Menu.c    ****                     }
 796:LCD_Menu.c    ****                     else{
 797:LCD_Menu.c    ****                         u8g_SetFont(&u8g, u8g_font_fub20);   
 3270              		.loc 1 797 0
 3271 1650 2148     		ldr	r0, .L236+4
 3272 1652 2949     		ldr	r1, .L236+36
 3273 1654 FFF7FEFF 		bl	u8g_SetFont
 798:LCD_Menu.c    ****                         u8g_DrawStr(&u8g,  -6+LocalMove, 26, cPower_Actual); 
 3274              		.loc 1 798 0
 3275 1658 3B7B     		ldrb	r3, [r7, #12]	@ zero_extendqisi2
 3276 165a 063B     		subs	r3, r3, #6
 3277 165c DBB2     		uxtb	r3, r3
 3278 165e 1E48     		ldr	r0, .L236+4
 3279 1660 1946     		mov	r1, r3
 3280 1662 1A22     		movs	r2, #26
 3281 1664 2D4B     		ldr	r3, .L236+72
 3282 1666 FFF7FEFF 		bl	u8g_DrawStr
 3283              	.L163:
 799:LCD_Menu.c    ****                     }
 800:LCD_Menu.c    ****                     
 801:LCD_Menu.c    ****                                    
 802:LCD_Menu.c    ****                     u8g_SetFont(&u8g, u8g_font_unifont);              
 3284              		.loc 1 802 0
 3285 166a 1B48     		ldr	r0, .L236+4
 3286 166c 1B49     		ldr	r1, .L236+8
ARM GAS  C:\Users\KJA\AppData\Local\Temp\ccbnGHAr.s 			page 74


 3287 166e FFF7FEFF 		bl	u8g_SetFont
 803:LCD_Menu.c    ****                     u8g_DrawStr(&u8g,  4, 43, cVoltage_Actual);
 3288              		.loc 1 803 0
 3289 1672 1948     		ldr	r0, .L236+4
 3290 1674 0421     		movs	r1, #4
 3291 1676 2B22     		movs	r2, #43
 3292 1678 294B     		ldr	r3, .L236+76
 3293 167a FFF7FEFF 		bl	u8g_DrawStr
 804:LCD_Menu.c    ****                     
 805:LCD_Menu.c    ****                     if(View_Mode == 0){                        
 3294              		.loc 1 805 0
 3295 167e 224B     		ldr	r3, .L236+52
 3296 1680 1B78     		ldrb	r3, [r3]	@ zero_extendqisi2
 3297 1682 002B     		cmp	r3, #0
 3298 1684 0AD1     		bne	.L166
 806:LCD_Menu.c    ****                         u8g_SetFont(&u8g, u8g_font_unifont);              
 3299              		.loc 1 806 0
 3300 1686 1448     		ldr	r0, .L236+4
 3301 1688 1449     		ldr	r1, .L236+8
 3302 168a FFF7FEFF 		bl	u8g_SetFont
 807:LCD_Menu.c    ****                         u8g_DrawStr(&u8g,  64, 43, cCurrent_Actual);
 3303              		.loc 1 807 0
 3304 168e 1248     		ldr	r0, .L236+4
 3305 1690 4021     		movs	r1, #64
 3306 1692 2B22     		movs	r2, #43
 3307 1694 234B     		ldr	r3, .L236+80
 3308 1696 FFF7FEFF 		bl	u8g_DrawStr
 3309 169a 09E0     		b	.L167
 3310              	.L166:
 808:LCD_Menu.c    ****                     }
 809:LCD_Menu.c    ****                     else{
 810:LCD_Menu.c    ****                         u8g_SetFont(&u8g, u8g_font_unifont);              
 3311              		.loc 1 810 0
 3312 169c 0E48     		ldr	r0, .L236+4
 3313 169e 0F49     		ldr	r1, .L236+8
 3314 16a0 FFF7FEFF 		bl	u8g_SetFont
 811:LCD_Menu.c    ****                         u8g_DrawStr(&u8g,  64, 43, cResist_Actual);
 3315              		.loc 1 811 0
 3316 16a4 0C48     		ldr	r0, .L236+4
 3317 16a6 4021     		movs	r1, #64
 3318 16a8 2B22     		movs	r2, #43
 3319 16aa 1F4B     		ldr	r3, .L236+84
 3320 16ac FFF7FEFF 		bl	u8g_DrawStr
 3321              	.L167:
 812:LCD_Menu.c    ****                     }
 813:LCD_Menu.c    ****                     
 814:LCD_Menu.c    ****                     if(Edit_Value_Mode == 1){                        
 3322              		.loc 1 814 0
 3323 16b0 184B     		ldr	r3, .L236+64
 3324 16b2 1B78     		ldrb	r3, [r3]	@ zero_extendqisi2
 3325 16b4 012B     		cmp	r3, #1
 3326 16b6 63D1     		bne	.L160
 3327              	.LBB10:
 815:LCD_Menu.c    ****                         uint8 Underline;
 816:LCD_Menu.c    ****                         if(Current_Menu_Position == 0) Underline = 10+LocalMove;
 3328              		.loc 1 816 0
 3329 16b8 BB79     		ldrb	r3, [r7, #6]	@ zero_extendqisi2
ARM GAS  C:\Users\KJA\AppData\Local\Temp\ccbnGHAr.s 			page 75


 3330 16ba 002B     		cmp	r3, #0
 3331 16bc 03D1     		bne	.L168
 3332              		.loc 1 816 0 is_stmt 0 discriminator 1
 3333 16be 3B7B     		ldrb	r3, [r7, #12]	@ zero_extendqisi2
 3334 16c0 0A33     		adds	r3, r3, #10
 3335 16c2 7B74     		strb	r3, [r7, #17]
 3336 16c4 44E0     		b	.L169
 3337              	.L168:
 817:LCD_Menu.c    ****                         else if(Current_Menu_Position == 1) Underline = 26+LocalMove;
 3338              		.loc 1 817 0 is_stmt 1
 3339 16c6 BB79     		ldrb	r3, [r7, #6]	@ zero_extendqisi2
 3340 16c8 012B     		cmp	r3, #1
 3341 16ca 2FD1     		bne	.L170
 3342              		.loc 1 817 0 is_stmt 0 discriminator 1
 3343 16cc 3B7B     		ldrb	r3, [r7, #12]	@ zero_extendqisi2
 3344 16ce 1A33     		adds	r3, r3, #26
 3345 16d0 7B74     		strb	r3, [r7, #17]
 3346 16d2 3DE0     		b	.L169
 3347              	.L237:
 3348              		.align	2
 3349              	.L236:
 3350 16d4 00000000 		.word	Four_Wire_Method
 3351 16d8 00000000 		.word	u8g
 3352 16dc 00000000 		.word	u8g_font_unifont
 3353 16e0 B0010000 		.word	.LC35
 3354 16e4 00000000 		.word	u8g_font_unifont_77
 3355 16e8 B4010000 		.word	.LC36
 3356 16ec 00000000 		.word	OutputEnable
 3357 16f0 00000000 		.word	Set_Power
 3358 16f4 00002041 		.word	1092616192
 3359 16f8 00000000 		.word	u8g_font_fub20
 3360 16fc 00000000 		.word	cPower_Set
 3361 1700 0000C842 		.word	1120403456
 3362 1704 00000000 		.word	cVoltage_Set
 3363 1708 00000000 		.word	View_Mode
 3364 170c 00000000 		.word	cCurrent_Set
 3365 1710 00000000 		.word	cResist_Set
 3366 1714 00000000 		.word	Edit_Value_Mode
 3367 1718 00000000 		.word	fPower
 3368 171c 00000000 		.word	cPower_Actual
 3369 1720 00000000 		.word	cVoltage_Actual
 3370 1724 00000000 		.word	cCurrent_Actual
 3371 1728 00000000 		.word	cResist_Actual
 3372              	.L170:
 818:LCD_Menu.c    ****                         else if(Current_Menu_Position == 2) Underline = 50*LocalMove;
 3373              		.loc 1 818 0 is_stmt 1
 3374 172c BB79     		ldrb	r3, [r7, #6]	@ zero_extendqisi2
 3375 172e 022B     		cmp	r3, #2
 3376 1730 0BD1     		bne	.L171
 3377              		.loc 1 818 0 is_stmt 0 discriminator 1
 3378 1732 3B7B     		ldrb	r3, [r7, #12]	@ zero_extendqisi2
 3379 1734 1A46     		mov	r2, r3
 3380 1736 9200     		lsls	r2, r2, #2
 3381 1738 1344     		add	r3, r3, r2
 3382 173a 1A46     		mov	r2, r3
 3383 173c 9100     		lsls	r1, r2, #2
 3384 173e 1A46     		mov	r2, r3
ARM GAS  C:\Users\KJA\AppData\Local\Temp\ccbnGHAr.s 			page 76


 3385 1740 0B46     		mov	r3, r1
 3386 1742 1344     		add	r3, r3, r2
 3387 1744 5B00     		lsls	r3, r3, #1
 3388 1746 7B74     		strb	r3, [r7, #17]
 3389 1748 02E0     		b	.L169
 3390              	.L171:
 819:LCD_Menu.c    ****                         else Underline = 50+LocalMove;
 3391              		.loc 1 819 0 is_stmt 1
 3392 174a 3B7B     		ldrb	r3, [r7, #12]	@ zero_extendqisi2
 3393 174c 3233     		adds	r3, r3, #50
 3394 174e 7B74     		strb	r3, [r7, #17]
 3395              	.L169:
 820:LCD_Menu.c    ****                         u8g_DrawLine(&u8g,Underline,27,Underline+12,27);
 3396              		.loc 1 820 0
 3397 1750 7B7C     		ldrb	r3, [r7, #17]
 3398 1752 0C33     		adds	r3, r3, #12
 3399 1754 DCB2     		uxtb	r4, r3
 3400 1756 7A7C     		ldrb	r2, [r7, #17]	@ zero_extendqisi2
 3401 1758 1B23     		movs	r3, #27
 3402 175a 0093     		str	r3, [sp]
 3403 175c B448     		ldr	r0, .L238
 3404 175e 1146     		mov	r1, r2
 3405 1760 1B22     		movs	r2, #27
 3406 1762 2346     		mov	r3, r4
 3407 1764 FFF7FEFF 		bl	u8g_DrawLine
 821:LCD_Menu.c    ****                         u8g_DrawLine(&u8g,Underline,28,Underline+12,28);
 3408              		.loc 1 821 0
 3409 1768 7B7C     		ldrb	r3, [r7, #17]
 3410 176a 0C33     		adds	r3, r3, #12
 3411 176c DCB2     		uxtb	r4, r3
 3412 176e 7A7C     		ldrb	r2, [r7, #17]	@ zero_extendqisi2
 3413 1770 1C23     		movs	r3, #28
 3414 1772 0093     		str	r3, [sp]
 3415 1774 AE48     		ldr	r0, .L238
 3416 1776 1146     		mov	r1, r2
 3417 1778 1C22     		movs	r2, #28
 3418 177a 2346     		mov	r3, r4
 3419 177c FFF7FEFF 		bl	u8g_DrawLine
 3420              	.L160:
 3421              	.LBE10:
 822:LCD_Menu.c    ****                     }
 823:LCD_Menu.c    ****                 }
 824:LCD_Menu.c    **** 
 825:LCD_Menu.c    ****                 
 826:LCD_Menu.c    ****                 
 827:LCD_Menu.c    ****                 
 828:LCD_Menu.c    ****                 u8g_DrawBox(&u8g, 0,51,128,16);
 3422              		.loc 1 828 0
 3423 1780 1023     		movs	r3, #16
 3424 1782 0093     		str	r3, [sp]
 3425 1784 AA48     		ldr	r0, .L238
 3426 1786 0021     		movs	r1, #0
 3427 1788 3322     		movs	r2, #51
 3428 178a 8023     		movs	r3, #128
 3429 178c FFF7FEFF 		bl	u8g_DrawBox
 829:LCD_Menu.c    ****                 u8g_SetDefaultBackgroundColor(&u8g);
 3430              		.loc 1 829 0
ARM GAS  C:\Users\KJA\AppData\Local\Temp\ccbnGHAr.s 			page 77


 3431 1790 A748     		ldr	r0, .L238
 3432 1792 FFF7FEFF 		bl	u8g_SetDefaultBackgroundColor
 830:LCD_Menu.c    ****                 u8g_SetFont(&u8g, u8g_font_unifont);              
 3433              		.loc 1 830 0
 3434 1796 A648     		ldr	r0, .L238
 3435 1798 A649     		ldr	r1, .L238+4
 3436 179a FFF7FEFF 		bl	u8g_SetFont
 831:LCD_Menu.c    ****                 u8g_DrawLine(&u8g,32,52,32,62); 
 3437              		.loc 1 831 0
 3438 179e 3E23     		movs	r3, #62
 3439 17a0 0093     		str	r3, [sp]
 3440 17a2 A348     		ldr	r0, .L238
 3441 17a4 2021     		movs	r1, #32
 3442 17a6 3422     		movs	r2, #52
 3443 17a8 2023     		movs	r3, #32
 3444 17aa FFF7FEFF 		bl	u8g_DrawLine
 832:LCD_Menu.c    ****                 u8g_DrawLine(&u8g,64,52,64,62);   
 3445              		.loc 1 832 0
 3446 17ae 3E23     		movs	r3, #62
 3447 17b0 0093     		str	r3, [sp]
 3448 17b2 9F48     		ldr	r0, .L238
 3449 17b4 4021     		movs	r1, #64
 3450 17b6 3422     		movs	r2, #52
 3451 17b8 4023     		movs	r3, #64
 3452 17ba FFF7FEFF 		bl	u8g_DrawLine
 833:LCD_Menu.c    ****                 u8g_DrawLine(&u8g,96,52,96,62);
 3453              		.loc 1 833 0
 3454 17be 3E23     		movs	r3, #62
 3455 17c0 0093     		str	r3, [sp]
 3456 17c2 9B48     		ldr	r0, .L238
 3457 17c4 6021     		movs	r1, #96
 3458 17c6 3422     		movs	r2, #52
 3459 17c8 6023     		movs	r3, #96
 3460 17ca FFF7FEFF 		bl	u8g_DrawLine
 834:LCD_Menu.c    ****                 
 835:LCD_Menu.c    ****                 if(OutputEnable == 0){
 3461              		.loc 1 835 0
 3462 17ce 9A4B     		ldr	r3, .L238+8
 3463 17d0 1B78     		ldrb	r3, [r3]	@ zero_extendqisi2
 3464 17d2 002B     		cmp	r3, #0
 3465 17d4 0BD1     		bne	.L172
 836:LCD_Menu.c    ****                     u8g_DrawTriangle(&u8g, 11+3,51, 17+3,57, 11+3,63);
 3466              		.loc 1 836 0
 3467 17d6 3923     		movs	r3, #57
 3468 17d8 0093     		str	r3, [sp]
 3469 17da 0E23     		movs	r3, #14
 3470 17dc 0193     		str	r3, [sp, #4]
 3471 17de 3F23     		movs	r3, #63
 3472 17e0 0293     		str	r3, [sp, #8]
 3473 17e2 9348     		ldr	r0, .L238
 3474 17e4 0E21     		movs	r1, #14
 3475 17e6 3322     		movs	r2, #51
 3476 17e8 1423     		movs	r3, #20
 3477 17ea FFF7FEFF 		bl	u8g_DrawTriangle
 3478              	.L172:
 837:LCD_Menu.c    ****                 }
 838:LCD_Menu.c    ****                 if(OutputEnable == 1){
ARM GAS  C:\Users\KJA\AppData\Local\Temp\ccbnGHAr.s 			page 78


 3479              		.loc 1 838 0
 3480 17ee 924B     		ldr	r3, .L238+8
 3481 17f0 1B78     		ldrb	r3, [r3]	@ zero_extendqisi2
 3482 17f2 012B     		cmp	r3, #1
 3483 17f4 1FD1     		bne	.L173
 839:LCD_Menu.c    ****                     u8g_DrawLine(&u8g,14,53,14,61);
 3484              		.loc 1 839 0
 3485 17f6 3D23     		movs	r3, #61
 3486 17f8 0093     		str	r3, [sp]
 3487 17fa 8D48     		ldr	r0, .L238
 3488 17fc 0E21     		movs	r1, #14
 3489 17fe 3522     		movs	r2, #53
 3490 1800 0E23     		movs	r3, #14
 3491 1802 FFF7FEFF 		bl	u8g_DrawLine
 840:LCD_Menu.c    ****                     u8g_DrawLine(&u8g,15,53,15,61); 
 3492              		.loc 1 840 0
 3493 1806 3D23     		movs	r3, #61
 3494 1808 0093     		str	r3, [sp]
 3495 180a 8948     		ldr	r0, .L238
 3496 180c 0F21     		movs	r1, #15
 3497 180e 3522     		movs	r2, #53
 3498 1810 0F23     		movs	r3, #15
 3499 1812 FFF7FEFF 		bl	u8g_DrawLine
 841:LCD_Menu.c    ****                     
 842:LCD_Menu.c    ****                     u8g_DrawLine(&u8g,17,53,17,61); 
 3500              		.loc 1 842 0
 3501 1816 3D23     		movs	r3, #61
 3502 1818 0093     		str	r3, [sp]
 3503 181a 8548     		ldr	r0, .L238
 3504 181c 1121     		movs	r1, #17
 3505 181e 3522     		movs	r2, #53
 3506 1820 1123     		movs	r3, #17
 3507 1822 FFF7FEFF 		bl	u8g_DrawLine
 843:LCD_Menu.c    ****                     u8g_DrawLine(&u8g,18,53,18,61);   
 3508              		.loc 1 843 0
 3509 1826 3D23     		movs	r3, #61
 3510 1828 0093     		str	r3, [sp]
 3511 182a 8148     		ldr	r0, .L238
 3512 182c 1221     		movs	r1, #18
 3513 182e 3522     		movs	r2, #53
 3514 1830 1223     		movs	r3, #18
 3515 1832 FFF7FEFF 		bl	u8g_DrawLine
 3516              	.L173:
 844:LCD_Menu.c    ****                 }
 845:LCD_Menu.c    ****                 
 846:LCD_Menu.c    ****                 if(Four_Wire_Method == 0){  
 3517              		.loc 1 846 0
 3518 1836 814B     		ldr	r3, .L238+12
 3519 1838 1B78     		ldrb	r3, [r3]	@ zero_extendqisi2
 3520 183a 002B     		cmp	r3, #0
 3521 183c 0AD1     		bne	.L174
 847:LCD_Menu.c    ****                 u8g_SetFont(&u8g, u8g_font_unifont);      
 3522              		.loc 1 847 0
 3523 183e 7C48     		ldr	r0, .L238
 3524 1840 7C49     		ldr	r1, .L238+4
 3525 1842 FFF7FEFF 		bl	u8g_SetFont
 848:LCD_Menu.c    **** 
ARM GAS  C:\Users\KJA\AppData\Local\Temp\ccbnGHAr.s 			page 79


 849:LCD_Menu.c    ****                 u8g_DrawStr(&u8g,  41, 62, "2W");
 3526              		.loc 1 849 0
 3527 1846 7A48     		ldr	r0, .L238
 3528 1848 2921     		movs	r1, #41
 3529 184a 3E22     		movs	r2, #62
 3530 184c 7C4B     		ldr	r3, .L238+16
 3531 184e FFF7FEFF 		bl	u8g_DrawStr
 3532 1852 0DE0     		b	.L175
 3533              	.L174:
 850:LCD_Menu.c    ****                 }
 851:LCD_Menu.c    ****                 else if(Four_Wire_Method == 1){  
 3534              		.loc 1 851 0
 3535 1854 794B     		ldr	r3, .L238+12
 3536 1856 1B78     		ldrb	r3, [r3]	@ zero_extendqisi2
 3537 1858 012B     		cmp	r3, #1
 3538 185a 09D1     		bne	.L175
 852:LCD_Menu.c    ****                 u8g_SetFont(&u8g, u8g_font_unifont);              
 3539              		.loc 1 852 0
 3540 185c 7448     		ldr	r0, .L238
 3541 185e 7549     		ldr	r1, .L238+4
 3542 1860 FFF7FEFF 		bl	u8g_SetFont
 853:LCD_Menu.c    ****                 u8g_DrawStr(&u8g,  41, 62, "4W");
 3543              		.loc 1 853 0
 3544 1864 7248     		ldr	r0, .L238
 3545 1866 2921     		movs	r1, #41
 3546 1868 3E22     		movs	r2, #62
 3547 186a 764B     		ldr	r3, .L238+20
 3548 186c FFF7FEFF 		bl	u8g_DrawStr
 3549              	.L175:
 854:LCD_Menu.c    ****                 }
 855:LCD_Menu.c    ****                 
 856:LCD_Menu.c    ****                 u8g_DrawLine(&u8g,117,54,117,60-1);
 3550              		.loc 1 856 0
 3551 1870 3B23     		movs	r3, #59
 3552 1872 0093     		str	r3, [sp]
 3553 1874 6E48     		ldr	r0, .L238
 3554 1876 7521     		movs	r1, #117
 3555 1878 3622     		movs	r2, #54
 3556 187a 7523     		movs	r3, #117
 3557 187c FFF7FEFF 		bl	u8g_DrawLine
 857:LCD_Menu.c    ****                 u8g_DrawLine(&u8g,109,60-1,117,60-1);
 3558              		.loc 1 857 0
 3559 1880 3B23     		movs	r3, #59
 3560 1882 0093     		str	r3, [sp]
 3561 1884 6A48     		ldr	r0, .L238
 3562 1886 6D21     		movs	r1, #109
 3563 1888 3B22     		movs	r2, #59
 3564 188a 7523     		movs	r3, #117
 3565 188c FFF7FEFF 		bl	u8g_DrawLine
 858:LCD_Menu.c    ****                 u8g_DrawTriangle(&u8g, 112,57-1, 107,60-1, 112,63-1);
 3566              		.loc 1 858 0
 3567 1890 3B23     		movs	r3, #59
 3568 1892 0093     		str	r3, [sp]
 3569 1894 7023     		movs	r3, #112
 3570 1896 0193     		str	r3, [sp, #4]
 3571 1898 3E23     		movs	r3, #62
 3572 189a 0293     		str	r3, [sp, #8]
ARM GAS  C:\Users\KJA\AppData\Local\Temp\ccbnGHAr.s 			page 80


 3573 189c 6448     		ldr	r0, .L238
 3574 189e 7021     		movs	r1, #112
 3575 18a0 3822     		movs	r2, #56
 3576 18a2 6B23     		movs	r3, #107
 3577 18a4 FFF7FEFF 		bl	u8g_DrawTriangle
 859:LCD_Menu.c    ****                 
 860:LCD_Menu.c    ****                 u8g_SetFont(&u8g, u8g_font_unifont_77);              
 3578              		.loc 1 860 0
 3579 18a8 6148     		ldr	r0, .L238
 3580 18aa 6749     		ldr	r1, .L238+24
 3581 18ac FFF7FEFF 		bl	u8g_SetFont
 861:LCD_Menu.c    ****                 u8g_DrawStr(&u8g,  73, 62, "`");
 3582              		.loc 1 861 0
 3583 18b0 5F48     		ldr	r0, .L238
 3584 18b2 4921     		movs	r1, #73
 3585 18b4 3E22     		movs	r2, #62
 3586 18b6 654B     		ldr	r3, .L238+28
 3587 18b8 FFF7FEFF 		bl	u8g_DrawStr
 3588              	.LBE8:
 862:LCD_Menu.c    ****                 
 863:LCD_Menu.c    ****             } while ( u8g_NextPage(&u8g) );
 3589              		.loc 1 863 0
 3590 18bc 5C48     		ldr	r0, .L238
 3591 18be FFF7FEFF 		bl	u8g_NextPage
 3592 18c2 0346     		mov	r3, r0
 3593 18c4 002B     		cmp	r3, #0
 3594 18c6 7FF4F2AD 		bne	.L176
 864:LCD_Menu.c    ****         break;      
 3595              		.loc 1 864 0
 3596 18ca 98E1     		b	.L1
 3597              	.L8:
 865:LCD_Menu.c    ****             
 866:LCD_Menu.c    ****                        
 867:LCD_Menu.c    ****             
 868:LCD_Menu.c    ****         case ConstantCurrent: 
 869:LCD_Menu.c    ****             u8g_FirstPage(&u8g);
 3598              		.loc 1 869 0
 3599 18cc 5848     		ldr	r0, .L238
 3600 18ce FFF7FEFF 		bl	u8g_FirstPage
 3601              	.L196:
 870:LCD_Menu.c    ****             do{    
 871:LCD_Menu.c    ****                 
 872:LCD_Menu.c    ****                 u8g_SetDefaultForegroundColor(&u8g);    
 3602              		.loc 1 872 0
 3603 18d2 5748     		ldr	r0, .L238
 3604 18d4 FFF7FEFF 		bl	u8g_SetDefaultForegroundColor
 873:LCD_Menu.c    ****                                
 874:LCD_Menu.c    ****                 if(OutputEnable == 0){
 3605              		.loc 1 874 0
 3606 18d8 574B     		ldr	r3, .L238+8
 3607 18da 1B78     		ldrb	r3, [r3]	@ zero_extendqisi2
 3608 18dc 002B     		cmp	r3, #0
 3609 18de 5ED1     		bne	.L177
 875:LCD_Menu.c    ****                     u8g_SetFont(&u8g, u8g_font_fub20);   
 3610              		.loc 1 875 0
 3611 18e0 5348     		ldr	r0, .L238
 3612 18e2 5B49     		ldr	r1, .L238+32
ARM GAS  C:\Users\KJA\AppData\Local\Temp\ccbnGHAr.s 			page 81


 3613 18e4 FFF7FEFF 		bl	u8g_SetFont
 876:LCD_Menu.c    ****                     u8g_DrawStr(&u8g,  24, 26, cCurrent_Set);
 3614              		.loc 1 876 0
 3615 18e8 5148     		ldr	r0, .L238
 3616 18ea 1821     		movs	r1, #24
 3617 18ec 1A22     		movs	r2, #26
 3618 18ee 594B     		ldr	r3, .L238+36
 3619 18f0 FFF7FEFF 		bl	u8g_DrawStr
 877:LCD_Menu.c    ****                                    
 878:LCD_Menu.c    ****                     u8g_SetFont(&u8g, u8g_font_unifont);              
 3620              		.loc 1 878 0
 3621 18f4 4E48     		ldr	r0, .L238
 3622 18f6 4F49     		ldr	r1, .L238+4
 3623 18f8 FFF7FEFF 		bl	u8g_SetFont
 879:LCD_Menu.c    ****                     u8g_DrawStr(&u8g,  4, 43, cVoltage_Set);
 3624              		.loc 1 879 0
 3625 18fc 4C48     		ldr	r0, .L238
 3626 18fe 0421     		movs	r1, #4
 3627 1900 2B22     		movs	r2, #43
 3628 1902 554B     		ldr	r3, .L238+40
 3629 1904 FFF7FEFF 		bl	u8g_DrawStr
 880:LCD_Menu.c    ****                     
 881:LCD_Menu.c    ****                     if(View_Mode == 0){                        
 3630              		.loc 1 881 0
 3631 1908 544B     		ldr	r3, .L238+44
 3632 190a 1B78     		ldrb	r3, [r3]	@ zero_extendqisi2
 3633 190c 002B     		cmp	r3, #0
 3634 190e 0AD1     		bne	.L178
 882:LCD_Menu.c    ****                         u8g_SetFont(&u8g, u8g_font_unifont);              
 3635              		.loc 1 882 0
 3636 1910 4748     		ldr	r0, .L238
 3637 1912 4849     		ldr	r1, .L238+4
 3638 1914 FFF7FEFF 		bl	u8g_SetFont
 883:LCD_Menu.c    ****                         u8g_DrawStr(&u8g,  64, 43, cPower_Set); 
 3639              		.loc 1 883 0
 3640 1918 4548     		ldr	r0, .L238
 3641 191a 4021     		movs	r1, #64
 3642 191c 2B22     		movs	r2, #43
 3643 191e 504B     		ldr	r3, .L238+48
 3644 1920 FFF7FEFF 		bl	u8g_DrawStr
 3645 1924 09E0     		b	.L179
 3646              	.L178:
 884:LCD_Menu.c    ****                     }
 885:LCD_Menu.c    ****                     else{
 886:LCD_Menu.c    ****                         u8g_SetFont(&u8g, u8g_font_unifont);              
 3647              		.loc 1 886 0
 3648 1926 4248     		ldr	r0, .L238
 3649 1928 4249     		ldr	r1, .L238+4
 3650 192a FFF7FEFF 		bl	u8g_SetFont
 887:LCD_Menu.c    ****                         u8g_DrawStr(&u8g,  64, 43, cResist_Set); 
 3651              		.loc 1 887 0
 3652 192e 4048     		ldr	r0, .L238
 3653 1930 4021     		movs	r1, #64
 3654 1932 2B22     		movs	r2, #43
 3655 1934 4B4B     		ldr	r3, .L238+52
 3656 1936 FFF7FEFF 		bl	u8g_DrawStr
 3657              	.L179:
ARM GAS  C:\Users\KJA\AppData\Local\Temp\ccbnGHAr.s 			page 82


 888:LCD_Menu.c    ****                     }
 889:LCD_Menu.c    ****                     
 890:LCD_Menu.c    ****                     if(Edit_Value_Mode == 1){                        
 3658              		.loc 1 890 0
 3659 193a 4B4B     		ldr	r3, .L238+56
 3660 193c 1B78     		ldrb	r3, [r3]	@ zero_extendqisi2
 3661 193e 012B     		cmp	r3, #1
 3662 1940 40F0B680 		bne	.L185
 3663              	.LBB11:
 891:LCD_Menu.c    ****                         uint8 Underline;
 892:LCD_Menu.c    ****                         if(Current_Menu_Position == 0) Underline = 26;
 3664              		.loc 1 892 0
 3665 1944 BB79     		ldrb	r3, [r7, #6]	@ zero_extendqisi2
 3666 1946 002B     		cmp	r3, #0
 3667 1948 02D1     		bne	.L181
 3668              		.loc 1 892 0 is_stmt 0 discriminator 1
 3669 194a 1A23     		movs	r3, #26
 3670 194c 3B74     		strb	r3, [r7, #16]
 3671 194e 0DE0     		b	.L182
 3672              	.L181:
 893:LCD_Menu.c    ****                         else if(Current_Menu_Position == 1) Underline = 50;
 3673              		.loc 1 893 0 is_stmt 1
 3674 1950 BB79     		ldrb	r3, [r7, #6]	@ zero_extendqisi2
 3675 1952 012B     		cmp	r3, #1
 3676 1954 02D1     		bne	.L183
 3677              		.loc 1 893 0 is_stmt 0 discriminator 1
 3678 1956 3223     		movs	r3, #50
 3679 1958 3B74     		strb	r3, [r7, #16]
 3680 195a 07E0     		b	.L182
 3681              	.L183:
 894:LCD_Menu.c    ****                         else if(Current_Menu_Position == 2) Underline = 64;
 3682              		.loc 1 894 0 is_stmt 1
 3683 195c BB79     		ldrb	r3, [r7, #6]	@ zero_extendqisi2
 3684 195e 022B     		cmp	r3, #2
 3685 1960 02D1     		bne	.L184
 3686              		.loc 1 894 0 is_stmt 0 discriminator 1
 3687 1962 4023     		movs	r3, #64
 3688 1964 3B74     		strb	r3, [r7, #16]
 3689 1966 01E0     		b	.L182
 3690              	.L184:
 895:LCD_Menu.c    ****                         else Underline = 50;
 3691              		.loc 1 895 0 is_stmt 1
 3692 1968 3223     		movs	r3, #50
 3693 196a 3B74     		strb	r3, [r7, #16]
 3694              	.L182:
 896:LCD_Menu.c    ****                         u8g_DrawLine(&u8g,Underline,27,Underline+12,27);
 3695              		.loc 1 896 0
 3696 196c 3B7C     		ldrb	r3, [r7, #16]
 3697 196e 0C33     		adds	r3, r3, #12
 3698 1970 DCB2     		uxtb	r4, r3
 3699 1972 3A7C     		ldrb	r2, [r7, #16]	@ zero_extendqisi2
 3700 1974 1B23     		movs	r3, #27
 3701 1976 0093     		str	r3, [sp]
 3702 1978 2D48     		ldr	r0, .L238
 3703 197a 1146     		mov	r1, r2
 3704 197c 1B22     		movs	r2, #27
 3705 197e 2346     		mov	r3, r4
ARM GAS  C:\Users\KJA\AppData\Local\Temp\ccbnGHAr.s 			page 83


 3706 1980 FFF7FEFF 		bl	u8g_DrawLine
 897:LCD_Menu.c    ****                         u8g_DrawLine(&u8g,Underline,28,Underline+12,28);
 3707              		.loc 1 897 0
 3708 1984 3B7C     		ldrb	r3, [r7, #16]
 3709 1986 0C33     		adds	r3, r3, #12
 3710 1988 DCB2     		uxtb	r4, r3
 3711 198a 3A7C     		ldrb	r2, [r7, #16]	@ zero_extendqisi2
 3712 198c 1C23     		movs	r3, #28
 3713 198e 0093     		str	r3, [sp]
 3714 1990 2748     		ldr	r0, .L238
 3715 1992 1146     		mov	r1, r2
 3716 1994 1C22     		movs	r2, #28
 3717 1996 2346     		mov	r3, r4
 3718 1998 FFF7FEFF 		bl	u8g_DrawLine
 3719 199c 88E0     		b	.L185
 3720              	.L177:
 3721              	.LBE11:
 898:LCD_Menu.c    ****                     }
 899:LCD_Menu.c    ****                 }
 900:LCD_Menu.c    ****                 
 901:LCD_Menu.c    ****                 else if(OutputEnable == 1){
 3722              		.loc 1 901 0
 3723 199e 264B     		ldr	r3, .L238+8
 3724 19a0 1B78     		ldrb	r3, [r3]	@ zero_extendqisi2
 3725 19a2 012B     		cmp	r3, #1
 3726 19a4 40F08480 		bne	.L185
 902:LCD_Menu.c    ****                     u8g_SetFont(&u8g, u8g_font_fub20);   
 3727              		.loc 1 902 0
 3728 19a8 2148     		ldr	r0, .L238
 3729 19aa 2949     		ldr	r1, .L238+32
 3730 19ac FFF7FEFF 		bl	u8g_SetFont
 903:LCD_Menu.c    ****                     u8g_DrawStr(&u8g,  24, 26, cCurrent_Actual);
 3731              		.loc 1 903 0
 3732 19b0 1F48     		ldr	r0, .L238
 3733 19b2 1821     		movs	r1, #24
 3734 19b4 1A22     		movs	r2, #26
 3735 19b6 2D4B     		ldr	r3, .L238+60
 3736 19b8 FFF7FEFF 		bl	u8g_DrawStr
 904:LCD_Menu.c    ****                                    
 905:LCD_Menu.c    ****                     u8g_SetFont(&u8g, u8g_font_unifont);              
 3737              		.loc 1 905 0
 3738 19bc 1C48     		ldr	r0, .L238
 3739 19be 1D49     		ldr	r1, .L238+4
 3740 19c0 FFF7FEFF 		bl	u8g_SetFont
 906:LCD_Menu.c    ****                     u8g_DrawStr(&u8g,  4, 43, cVoltage_Actual);
 3741              		.loc 1 906 0
 3742 19c4 1A48     		ldr	r0, .L238
 3743 19c6 0421     		movs	r1, #4
 3744 19c8 2B22     		movs	r2, #43
 3745 19ca 294B     		ldr	r3, .L238+64
 3746 19cc FFF7FEFF 		bl	u8g_DrawStr
 907:LCD_Menu.c    ****                     
 908:LCD_Menu.c    ****                     if(View_Mode == 0){
 3747              		.loc 1 908 0
 3748 19d0 224B     		ldr	r3, .L238+44
 3749 19d2 1B78     		ldrb	r3, [r3]	@ zero_extendqisi2
 3750 19d4 002B     		cmp	r3, #0
ARM GAS  C:\Users\KJA\AppData\Local\Temp\ccbnGHAr.s 			page 84


 3751 19d6 0AD1     		bne	.L186
 909:LCD_Menu.c    ****                         u8g_SetFont(&u8g, u8g_font_unifont);              
 3752              		.loc 1 909 0
 3753 19d8 1548     		ldr	r0, .L238
 3754 19da 1649     		ldr	r1, .L238+4
 3755 19dc FFF7FEFF 		bl	u8g_SetFont
 910:LCD_Menu.c    ****                         u8g_DrawStr(&u8g,  64, 43, cPower_Actual);
 3756              		.loc 1 910 0
 3757 19e0 1348     		ldr	r0, .L238
 3758 19e2 4021     		movs	r1, #64
 3759 19e4 2B22     		movs	r2, #43
 3760 19e6 234B     		ldr	r3, .L238+68
 3761 19e8 FFF7FEFF 		bl	u8g_DrawStr
 3762 19ec 09E0     		b	.L187
 3763              	.L186:
 911:LCD_Menu.c    ****                     }
 912:LCD_Menu.c    ****                     else{
 913:LCD_Menu.c    ****                         u8g_SetFont(&u8g, u8g_font_unifont);              
 3764              		.loc 1 913 0
 3765 19ee 1048     		ldr	r0, .L238
 3766 19f0 1049     		ldr	r1, .L238+4
 3767 19f2 FFF7FEFF 		bl	u8g_SetFont
 914:LCD_Menu.c    ****                         u8g_DrawStr(&u8g,  64, 43, cResist_Actual);                       
 3768              		.loc 1 914 0
 3769 19f6 0E48     		ldr	r0, .L238
 3770 19f8 4021     		movs	r1, #64
 3771 19fa 2B22     		movs	r2, #43
 3772 19fc 1E4B     		ldr	r3, .L238+72
 3773 19fe FFF7FEFF 		bl	u8g_DrawStr
 3774              	.L187:
 915:LCD_Menu.c    ****                     }
 916:LCD_Menu.c    ****                     
 917:LCD_Menu.c    ****                     if(Edit_Value_Mode == 1){                        
 3775              		.loc 1 917 0
 3776 1a02 194B     		ldr	r3, .L238+56
 3777 1a04 1B78     		ldrb	r3, [r3]	@ zero_extendqisi2
 3778 1a06 012B     		cmp	r3, #1
 3779 1a08 52D1     		bne	.L185
 3780              	.LBB12:
 918:LCD_Menu.c    ****                         uint8 Underline;
 919:LCD_Menu.c    ****                         if(Current_Menu_Position == 0) Underline = 26;
 3781              		.loc 1 919 0
 3782 1a0a BB79     		ldrb	r3, [r7, #6]	@ zero_extendqisi2
 3783 1a0c 002B     		cmp	r3, #0
 3784 1a0e 02D1     		bne	.L188
 3785              		.loc 1 919 0 is_stmt 0 discriminator 1
 3786 1a10 1A23     		movs	r3, #26
 3787 1a12 FB73     		strb	r3, [r7, #15]
 3788 1a14 34E0     		b	.L189
 3789              	.L188:
 920:LCD_Menu.c    ****                         else if(Current_Menu_Position == 1) Underline = 50;
 3790              		.loc 1 920 0 is_stmt 1
 3791 1a16 BB79     		ldrb	r3, [r7, #6]	@ zero_extendqisi2
 3792 1a18 012B     		cmp	r3, #1
 3793 1a1a 02D1     		bne	.L190
 3794              		.loc 1 920 0 is_stmt 0 discriminator 1
 3795 1a1c 3223     		movs	r3, #50
ARM GAS  C:\Users\KJA\AppData\Local\Temp\ccbnGHAr.s 			page 85


 3796 1a1e FB73     		strb	r3, [r7, #15]
 3797 1a20 2EE0     		b	.L189
 3798              	.L190:
 921:LCD_Menu.c    ****                         else if(Current_Menu_Position == 2) Underline = 64;
 3799              		.loc 1 921 0 is_stmt 1
 3800 1a22 BB79     		ldrb	r3, [r7, #6]	@ zero_extendqisi2
 3801 1a24 022B     		cmp	r3, #2
 3802 1a26 29D1     		bne	.L191
 3803              		.loc 1 921 0 is_stmt 0 discriminator 1
 3804 1a28 4023     		movs	r3, #64
 3805 1a2a FB73     		strb	r3, [r7, #15]
 3806 1a2c 28E0     		b	.L189
 3807              	.L239:
 3808 1a2e 00BF     		.align	2
 3809              	.L238:
 3810 1a30 00000000 		.word	u8g
 3811 1a34 00000000 		.word	u8g_font_unifont
 3812 1a38 00000000 		.word	OutputEnable
 3813 1a3c 00000000 		.word	Four_Wire_Method
 3814 1a40 AC010000 		.word	.LC34
 3815 1a44 B0010000 		.word	.LC35
 3816 1a48 00000000 		.word	u8g_font_unifont_77
 3817 1a4c B4010000 		.word	.LC36
 3818 1a50 00000000 		.word	u8g_font_fub20
 3819 1a54 00000000 		.word	cCurrent_Set
 3820 1a58 00000000 		.word	cVoltage_Set
 3821 1a5c 00000000 		.word	View_Mode
 3822 1a60 00000000 		.word	cPower_Set
 3823 1a64 00000000 		.word	cResist_Set
 3824 1a68 00000000 		.word	Edit_Value_Mode
 3825 1a6c 00000000 		.word	cCurrent_Actual
 3826 1a70 00000000 		.word	cVoltage_Actual
 3827 1a74 00000000 		.word	cPower_Actual
 3828 1a78 00000000 		.word	cResist_Actual
 3829              	.L191:
 922:LCD_Menu.c    ****                         else Underline = 50;
 3830              		.loc 1 922 0 is_stmt 1
 3831 1a7c 3223     		movs	r3, #50
 3832 1a7e FB73     		strb	r3, [r7, #15]
 3833              	.L189:
 923:LCD_Menu.c    ****                         u8g_DrawLine(&u8g,Underline,27,Underline+12,27);
 3834              		.loc 1 923 0
 3835 1a80 FB7B     		ldrb	r3, [r7, #15]
 3836 1a82 0C33     		adds	r3, r3, #12
 3837 1a84 DCB2     		uxtb	r4, r3
 3838 1a86 FA7B     		ldrb	r2, [r7, #15]	@ zero_extendqisi2
 3839 1a88 1B23     		movs	r3, #27
 3840 1a8a 0093     		str	r3, [sp]
 3841 1a8c 5D48     		ldr	r0, .L240
 3842 1a8e 1146     		mov	r1, r2
 3843 1a90 1B22     		movs	r2, #27
 3844 1a92 2346     		mov	r3, r4
 3845 1a94 FFF7FEFF 		bl	u8g_DrawLine
 924:LCD_Menu.c    ****                         u8g_DrawLine(&u8g,Underline,28,Underline+12,28);
 3846              		.loc 1 924 0
 3847 1a98 FB7B     		ldrb	r3, [r7, #15]
 3848 1a9a 0C33     		adds	r3, r3, #12
ARM GAS  C:\Users\KJA\AppData\Local\Temp\ccbnGHAr.s 			page 86


 3849 1a9c DCB2     		uxtb	r4, r3
 3850 1a9e FA7B     		ldrb	r2, [r7, #15]	@ zero_extendqisi2
 3851 1aa0 1C23     		movs	r3, #28
 3852 1aa2 0093     		str	r3, [sp]
 3853 1aa4 5748     		ldr	r0, .L240
 3854 1aa6 1146     		mov	r1, r2
 3855 1aa8 1C22     		movs	r2, #28
 3856 1aaa 2346     		mov	r3, r4
 3857 1aac FFF7FEFF 		bl	u8g_DrawLine
 3858              	.L185:
 3859              	.LBE12:
 925:LCD_Menu.c    ****                     }
 926:LCD_Menu.c    ****                 }
 927:LCD_Menu.c    **** 
 928:LCD_Menu.c    ****                 
 929:LCD_Menu.c    ****                 
 930:LCD_Menu.c    ****                 
 931:LCD_Menu.c    ****                 u8g_DrawBox(&u8g, 0,51,128,16);
 3860              		.loc 1 931 0
 3861 1ab0 1023     		movs	r3, #16
 3862 1ab2 0093     		str	r3, [sp]
 3863 1ab4 5348     		ldr	r0, .L240
 3864 1ab6 0021     		movs	r1, #0
 3865 1ab8 3322     		movs	r2, #51
 3866 1aba 8023     		movs	r3, #128
 3867 1abc FFF7FEFF 		bl	u8g_DrawBox
 932:LCD_Menu.c    ****                 u8g_SetDefaultBackgroundColor(&u8g);
 3868              		.loc 1 932 0
 3869 1ac0 5048     		ldr	r0, .L240
 3870 1ac2 FFF7FEFF 		bl	u8g_SetDefaultBackgroundColor
 933:LCD_Menu.c    ****                 u8g_SetFont(&u8g, u8g_font_unifont);              
 3871              		.loc 1 933 0
 3872 1ac6 4F48     		ldr	r0, .L240
 3873 1ac8 4F49     		ldr	r1, .L240+4
 3874 1aca FFF7FEFF 		bl	u8g_SetFont
 934:LCD_Menu.c    ****                 u8g_DrawLine(&u8g,32,52,32,62); 
 3875              		.loc 1 934 0
 3876 1ace 3E23     		movs	r3, #62
 3877 1ad0 0093     		str	r3, [sp]
 3878 1ad2 4C48     		ldr	r0, .L240
 3879 1ad4 2021     		movs	r1, #32
 3880 1ad6 3422     		movs	r2, #52
 3881 1ad8 2023     		movs	r3, #32
 3882 1ada FFF7FEFF 		bl	u8g_DrawLine
 935:LCD_Menu.c    ****                 u8g_DrawLine(&u8g,64,52,64,62);   
 3883              		.loc 1 935 0
 3884 1ade 3E23     		movs	r3, #62
 3885 1ae0 0093     		str	r3, [sp]
 3886 1ae2 4848     		ldr	r0, .L240
 3887 1ae4 4021     		movs	r1, #64
 3888 1ae6 3422     		movs	r2, #52
 3889 1ae8 4023     		movs	r3, #64
 3890 1aea FFF7FEFF 		bl	u8g_DrawLine
 936:LCD_Menu.c    ****                 u8g_DrawLine(&u8g,96,52,96,62);
 3891              		.loc 1 936 0
 3892 1aee 3E23     		movs	r3, #62
 3893 1af0 0093     		str	r3, [sp]
ARM GAS  C:\Users\KJA\AppData\Local\Temp\ccbnGHAr.s 			page 87


 3894 1af2 4448     		ldr	r0, .L240
 3895 1af4 6021     		movs	r1, #96
 3896 1af6 3422     		movs	r2, #52
 3897 1af8 6023     		movs	r3, #96
 3898 1afa FFF7FEFF 		bl	u8g_DrawLine
 937:LCD_Menu.c    ****                 
 938:LCD_Menu.c    ****                 if(OutputEnable == 0){
 3899              		.loc 1 938 0
 3900 1afe 434B     		ldr	r3, .L240+8
 3901 1b00 1B78     		ldrb	r3, [r3]	@ zero_extendqisi2
 3902 1b02 002B     		cmp	r3, #0
 3903 1b04 0BD1     		bne	.L192
 939:LCD_Menu.c    ****                     u8g_DrawTriangle(&u8g, 11+3,51, 17+3,57, 11+3,63);
 3904              		.loc 1 939 0
 3905 1b06 3923     		movs	r3, #57
 3906 1b08 0093     		str	r3, [sp]
 3907 1b0a 0E23     		movs	r3, #14
 3908 1b0c 0193     		str	r3, [sp, #4]
 3909 1b0e 3F23     		movs	r3, #63
 3910 1b10 0293     		str	r3, [sp, #8]
 3911 1b12 3C48     		ldr	r0, .L240
 3912 1b14 0E21     		movs	r1, #14
 3913 1b16 3322     		movs	r2, #51
 3914 1b18 1423     		movs	r3, #20
 3915 1b1a FFF7FEFF 		bl	u8g_DrawTriangle
 3916              	.L192:
 940:LCD_Menu.c    ****                 }
 941:LCD_Menu.c    ****                 if(OutputEnable == 1){
 3917              		.loc 1 941 0
 3918 1b1e 3B4B     		ldr	r3, .L240+8
 3919 1b20 1B78     		ldrb	r3, [r3]	@ zero_extendqisi2
 3920 1b22 012B     		cmp	r3, #1
 3921 1b24 1FD1     		bne	.L193
 942:LCD_Menu.c    ****                     u8g_DrawLine(&u8g,14,53,14,61);
 3922              		.loc 1 942 0
 3923 1b26 3D23     		movs	r3, #61
 3924 1b28 0093     		str	r3, [sp]
 3925 1b2a 3648     		ldr	r0, .L240
 3926 1b2c 0E21     		movs	r1, #14
 3927 1b2e 3522     		movs	r2, #53
 3928 1b30 0E23     		movs	r3, #14
 3929 1b32 FFF7FEFF 		bl	u8g_DrawLine
 943:LCD_Menu.c    ****                     u8g_DrawLine(&u8g,15,53,15,61); 
 3930              		.loc 1 943 0
 3931 1b36 3D23     		movs	r3, #61
 3932 1b38 0093     		str	r3, [sp]
 3933 1b3a 3248     		ldr	r0, .L240
 3934 1b3c 0F21     		movs	r1, #15
 3935 1b3e 3522     		movs	r2, #53
 3936 1b40 0F23     		movs	r3, #15
 3937 1b42 FFF7FEFF 		bl	u8g_DrawLine
 944:LCD_Menu.c    ****                     
 945:LCD_Menu.c    ****                     u8g_DrawLine(&u8g,17,53,17,61); 
 3938              		.loc 1 945 0
 3939 1b46 3D23     		movs	r3, #61
 3940 1b48 0093     		str	r3, [sp]
 3941 1b4a 2E48     		ldr	r0, .L240
ARM GAS  C:\Users\KJA\AppData\Local\Temp\ccbnGHAr.s 			page 88


 3942 1b4c 1121     		movs	r1, #17
 3943 1b4e 3522     		movs	r2, #53
 3944 1b50 1123     		movs	r3, #17
 3945 1b52 FFF7FEFF 		bl	u8g_DrawLine
 946:LCD_Menu.c    ****                     u8g_DrawLine(&u8g,18,53,18,61);   
 3946              		.loc 1 946 0
 3947 1b56 3D23     		movs	r3, #61
 3948 1b58 0093     		str	r3, [sp]
 3949 1b5a 2A48     		ldr	r0, .L240
 3950 1b5c 1221     		movs	r1, #18
 3951 1b5e 3522     		movs	r2, #53
 3952 1b60 1223     		movs	r3, #18
 3953 1b62 FFF7FEFF 		bl	u8g_DrawLine
 3954              	.L193:
 947:LCD_Menu.c    ****                 }
 948:LCD_Menu.c    ****                 
 949:LCD_Menu.c    ****                 if(Four_Wire_Method == 0){  
 3955              		.loc 1 949 0
 3956 1b66 2A4B     		ldr	r3, .L240+12
 3957 1b68 1B78     		ldrb	r3, [r3]	@ zero_extendqisi2
 3958 1b6a 002B     		cmp	r3, #0
 3959 1b6c 0AD1     		bne	.L194
 950:LCD_Menu.c    ****                 u8g_SetFont(&u8g, u8g_font_unifont);      
 3960              		.loc 1 950 0
 3961 1b6e 2548     		ldr	r0, .L240
 3962 1b70 2549     		ldr	r1, .L240+4
 3963 1b72 FFF7FEFF 		bl	u8g_SetFont
 951:LCD_Menu.c    **** 
 952:LCD_Menu.c    ****                 u8g_DrawStr(&u8g,  41, 62, "2W");
 3964              		.loc 1 952 0
 3965 1b76 2348     		ldr	r0, .L240
 3966 1b78 2921     		movs	r1, #41
 3967 1b7a 3E22     		movs	r2, #62
 3968 1b7c 254B     		ldr	r3, .L240+16
 3969 1b7e FFF7FEFF 		bl	u8g_DrawStr
 3970 1b82 0DE0     		b	.L195
 3971              	.L194:
 953:LCD_Menu.c    ****                 }
 954:LCD_Menu.c    ****                 else if(Four_Wire_Method == 1){  
 3972              		.loc 1 954 0
 3973 1b84 224B     		ldr	r3, .L240+12
 3974 1b86 1B78     		ldrb	r3, [r3]	@ zero_extendqisi2
 3975 1b88 012B     		cmp	r3, #1
 3976 1b8a 09D1     		bne	.L195
 955:LCD_Menu.c    ****                 u8g_SetFont(&u8g, u8g_font_unifont);              
 3977              		.loc 1 955 0
 3978 1b8c 1D48     		ldr	r0, .L240
 3979 1b8e 1E49     		ldr	r1, .L240+4
 3980 1b90 FFF7FEFF 		bl	u8g_SetFont
 956:LCD_Menu.c    ****                 u8g_DrawStr(&u8g,  41, 62, "4W");
 3981              		.loc 1 956 0
 3982 1b94 1B48     		ldr	r0, .L240
 3983 1b96 2921     		movs	r1, #41
 3984 1b98 3E22     		movs	r2, #62
 3985 1b9a 1F4B     		ldr	r3, .L240+20
 3986 1b9c FFF7FEFF 		bl	u8g_DrawStr
 3987              	.L195:
ARM GAS  C:\Users\KJA\AppData\Local\Temp\ccbnGHAr.s 			page 89


 957:LCD_Menu.c    ****                 }
 958:LCD_Menu.c    ****                 
 959:LCD_Menu.c    ****                 u8g_DrawLine(&u8g,117,54,117,60-1);
 3988              		.loc 1 959 0
 3989 1ba0 3B23     		movs	r3, #59
 3990 1ba2 0093     		str	r3, [sp]
 3991 1ba4 1748     		ldr	r0, .L240
 3992 1ba6 7521     		movs	r1, #117
 3993 1ba8 3622     		movs	r2, #54
 3994 1baa 7523     		movs	r3, #117
 3995 1bac FFF7FEFF 		bl	u8g_DrawLine
 960:LCD_Menu.c    ****                 u8g_DrawLine(&u8g,109,60-1,117,60-1);
 3996              		.loc 1 960 0
 3997 1bb0 3B23     		movs	r3, #59
 3998 1bb2 0093     		str	r3, [sp]
 3999 1bb4 1348     		ldr	r0, .L240
 4000 1bb6 6D21     		movs	r1, #109
 4001 1bb8 3B22     		movs	r2, #59
 4002 1bba 7523     		movs	r3, #117
 4003 1bbc FFF7FEFF 		bl	u8g_DrawLine
 961:LCD_Menu.c    ****                 u8g_DrawTriangle(&u8g, 112,57-1, 107,60-1, 112,63-1);
 4004              		.loc 1 961 0
 4005 1bc0 3B23     		movs	r3, #59
 4006 1bc2 0093     		str	r3, [sp]
 4007 1bc4 7023     		movs	r3, #112
 4008 1bc6 0193     		str	r3, [sp, #4]
 4009 1bc8 3E23     		movs	r3, #62
 4010 1bca 0293     		str	r3, [sp, #8]
 4011 1bcc 0D48     		ldr	r0, .L240
 4012 1bce 7021     		movs	r1, #112
 4013 1bd0 3822     		movs	r2, #56
 4014 1bd2 6B23     		movs	r3, #107
 4015 1bd4 FFF7FEFF 		bl	u8g_DrawTriangle
 962:LCD_Menu.c    ****                 
 963:LCD_Menu.c    ****                 u8g_SetFont(&u8g, u8g_font_unifont_77);              
 4016              		.loc 1 963 0
 4017 1bd8 0A48     		ldr	r0, .L240
 4018 1bda 1049     		ldr	r1, .L240+24
 4019 1bdc FFF7FEFF 		bl	u8g_SetFont
 964:LCD_Menu.c    ****                 u8g_DrawStr(&u8g,  73, 62, "`");
 4020              		.loc 1 964 0
 4021 1be0 0848     		ldr	r0, .L240
 4022 1be2 4921     		movs	r1, #73
 4023 1be4 3E22     		movs	r2, #62
 4024 1be6 0E4B     		ldr	r3, .L240+28
 4025 1be8 FFF7FEFF 		bl	u8g_DrawStr
 965:LCD_Menu.c    ****                 
 966:LCD_Menu.c    ****             } while ( u8g_NextPage(&u8g) );
 4026              		.loc 1 966 0
 4027 1bec 0548     		ldr	r0, .L240
 4028 1bee FFF7FEFF 		bl	u8g_NextPage
 4029 1bf2 0346     		mov	r3, r0
 4030 1bf4 002B     		cmp	r3, #0
 4031 1bf6 7FF46CAE 		bne	.L196
 967:LCD_Menu.c    ****         
 968:LCD_Menu.c    ****       break;            
 4032              		.loc 1 968 0
ARM GAS  C:\Users\KJA\AppData\Local\Temp\ccbnGHAr.s 			page 90


 4033 1bfa 00E0     		b	.L1
 4034              	.L221:
 969:LCD_Menu.c    **** 
 970:LCD_Menu.c    ****             
 971:LCD_Menu.c    ****       // ...
 972:LCD_Menu.c    ****      
 973:LCD_Menu.c    ****       default:
 974:LCD_Menu.c    ****         break;
 4035              		.loc 1 974 0
 4036 1bfc 00BF     		nop
 4037              	.L1:
 975:LCD_Menu.c    ****     }   
 976:LCD_Menu.c    **** }...
 4038              		.loc 1 976 0
 4039 1bfe 1C37     		adds	r7, r7, #28
 4040              		.cfi_def_cfa_offset 12
 4041 1c00 BD46     		mov	sp, r7
 4042              		.cfi_def_cfa_register 13
 4043              		@ sp needed
 4044 1c02 90BD     		pop	{r4, r7, pc}
 4045              	.L241:
 4046              		.align	2
 4047              	.L240:
 4048 1c04 00000000 		.word	u8g
 4049 1c08 00000000 		.word	u8g_font_unifont
 4050 1c0c 00000000 		.word	OutputEnable
 4051 1c10 00000000 		.word	Four_Wire_Method
 4052 1c14 AC010000 		.word	.LC34
 4053 1c18 B0010000 		.word	.LC35
 4054 1c1c 00000000 		.word	u8g_font_unifont_77
 4055 1c20 B4010000 		.word	.LC36
 4056              		.cfi_endproc
 4057              	.LFE63:
 4058              		.size	LCD_Draw, .-LCD_Draw
 4059              		.text
 4060              	.Letext0:
 4061              		.file 2 "c:\\program files (x86)\\cypress\\psoc creator\\4.0\\psoc creator\\import\\gnu\\arm\\4.9.
 4062              		.file 3 "c:\\program files (x86)\\cypress\\psoc creator\\4.0\\psoc creator\\import\\gnu\\arm\\4.9.
 4063              		.file 4 "Generated_Source\\PSoC5/cytypes.h"
 4064              		.file 5 "u8g.h"
 4065              		.file 6 "Generated_Source\\PSoC5/core_cm3.h"
 4066              		.file 7 "global_variables.h"
 4067              		.file 8 "temp_manage.h"
 4068              		.section	.debug_info,"",%progbits
 4069              	.Ldebug_info0:
 4070 0000 D00C0000 		.4byte	0xcd0
 4071 0004 0400     		.2byte	0x4
 4072 0006 00000000 		.4byte	.Ldebug_abbrev0
 4073 000a 04       		.byte	0x4
 4074 000b 01       		.uleb128 0x1
 4075 000c 60050000 		.4byte	.LASF189
 4076 0010 01       		.byte	0x1
 4077 0011 2B060000 		.4byte	.LASF190
 4078 0015 EF010000 		.4byte	.LASF191
 4079 0019 00000000 		.4byte	.Ldebug_ranges0+0
 4080 001d 00000000 		.4byte	0
 4081 0021 00000000 		.4byte	.Ldebug_line0
ARM GAS  C:\Users\KJA\AppData\Local\Temp\ccbnGHAr.s 			page 91


 4082 0025 02       		.uleb128 0x2
 4083 0026 46060000 		.4byte	.LASF0
 4084 002a 02       		.byte	0x2
 4085 002b 1B       		.byte	0x1b
 4086 002c 30000000 		.4byte	0x30
 4087 0030 03       		.uleb128 0x3
 4088 0031 01       		.byte	0x1
 4089 0032 06       		.byte	0x6
 4090 0033 50090000 		.4byte	.LASF2
 4091 0037 02       		.uleb128 0x2
 4092 0038 B8070000 		.4byte	.LASF1
 4093 003c 02       		.byte	0x2
 4094 003d 1D       		.byte	0x1d
 4095 003e 42000000 		.4byte	0x42
 4096 0042 03       		.uleb128 0x3
 4097 0043 01       		.byte	0x1
 4098 0044 08       		.byte	0x8
 4099 0045 92080000 		.4byte	.LASF3
 4100 0049 03       		.uleb128 0x3
 4101 004a 02       		.byte	0x2
 4102 004b 05       		.byte	0x5
 4103 004c BD060000 		.4byte	.LASF4
 4104 0050 03       		.uleb128 0x3
 4105 0051 02       		.byte	0x2
 4106 0052 07       		.byte	0x7
 4107 0053 5C090000 		.4byte	.LASF5
 4108 0057 02       		.uleb128 0x2
 4109 0058 F4000000 		.4byte	.LASF6
 4110 005c 02       		.byte	0x2
 4111 005d 3F       		.byte	0x3f
 4112 005e 62000000 		.4byte	0x62
 4113 0062 03       		.uleb128 0x3
 4114 0063 04       		.byte	0x4
 4115 0064 05       		.byte	0x5
 4116 0065 C7060000 		.4byte	.LASF7
 4117 0069 03       		.uleb128 0x3
 4118 006a 04       		.byte	0x4
 4119 006b 07       		.byte	0x7
 4120 006c 0D080000 		.4byte	.LASF8
 4121 0070 03       		.uleb128 0x3
 4122 0071 08       		.byte	0x8
 4123 0072 05       		.byte	0x5
 4124 0073 BC040000 		.4byte	.LASF9
 4125 0077 03       		.uleb128 0x3
 4126 0078 08       		.byte	0x8
 4127 0079 07       		.byte	0x7
 4128 007a D7020000 		.4byte	.LASF10
 4129 007e 04       		.uleb128 0x4
 4130 007f 04       		.byte	0x4
 4131 0080 05       		.byte	0x5
 4132 0081 696E7400 		.ascii	"int\000"
 4133 0085 03       		.uleb128 0x3
 4134 0086 04       		.byte	0x4
 4135 0087 07       		.byte	0x7
 4136 0088 AC000000 		.4byte	.LASF11
 4137 008c 02       		.uleb128 0x2
 4138 008d 3D020000 		.4byte	.LASF12
ARM GAS  C:\Users\KJA\AppData\Local\Temp\ccbnGHAr.s 			page 92


 4139 0091 03       		.byte	0x3
 4140 0092 14       		.byte	0x14
 4141 0093 25000000 		.4byte	0x25
 4142 0097 02       		.uleb128 0x2
 4143 0098 66040000 		.4byte	.LASF13
 4144 009c 03       		.byte	0x3
 4145 009d 15       		.byte	0x15
 4146 009e 37000000 		.4byte	0x37
 4147 00a2 02       		.uleb128 0x2
 4148 00a3 30080000 		.4byte	.LASF14
 4149 00a7 03       		.byte	0x3
 4150 00a8 2C       		.byte	0x2c
 4151 00a9 57000000 		.4byte	0x57
 4152 00ad 02       		.uleb128 0x2
 4153 00ae 9B090000 		.4byte	.LASF15
 4154 00b2 04       		.byte	0x4
 4155 00b3 C2       		.byte	0xc2
 4156 00b4 42000000 		.4byte	0x42
 4157 00b8 02       		.uleb128 0x2
 4158 00b9 5A040000 		.4byte	.LASF16
 4159 00bd 04       		.byte	0x4
 4160 00be C3       		.byte	0xc3
 4161 00bf 50000000 		.4byte	0x50
 4162 00c3 02       		.uleb128 0x2
 4163 00c4 1E060000 		.4byte	.LASF17
 4164 00c8 04       		.byte	0x4
 4165 00c9 C4       		.byte	0xc4
 4166 00ca 69000000 		.4byte	0x69
 4167 00ce 02       		.uleb128 0x2
 4168 00cf 61040000 		.4byte	.LASF18
 4169 00d3 04       		.byte	0x4
 4170 00d4 C5       		.byte	0xc5
 4171 00d5 30000000 		.4byte	0x30
 4172 00d9 02       		.uleb128 0x2
 4173 00da FE000000 		.4byte	.LASF19
 4174 00de 04       		.byte	0x4
 4175 00df C6       		.byte	0xc6
 4176 00e0 49000000 		.4byte	0x49
 4177 00e4 02       		.uleb128 0x2
 4178 00e5 8A020000 		.4byte	.LASF20
 4179 00e9 04       		.byte	0x4
 4180 00ea C7       		.byte	0xc7
 4181 00eb 62000000 		.4byte	0x62
 4182 00ef 03       		.uleb128 0x3
 4183 00f0 04       		.byte	0x4
 4184 00f1 04       		.byte	0x4
 4185 00f2 79020000 		.4byte	.LASF21
 4186 00f6 03       		.uleb128 0x3
 4187 00f7 08       		.byte	0x8
 4188 00f8 04       		.byte	0x4
 4189 00f9 A1090000 		.4byte	.LASF22
 4190 00fd 02       		.uleb128 0x2
 4191 00fe 6E040000 		.4byte	.LASF23
 4192 0102 04       		.byte	0x4
 4193 0103 D3       		.byte	0xd3
 4194 0104 08010000 		.4byte	0x108
 4195 0108 03       		.uleb128 0x3
ARM GAS  C:\Users\KJA\AppData\Local\Temp\ccbnGHAr.s 			page 93


 4196 0109 01       		.byte	0x1
 4197 010a 08       		.byte	0x8
 4198 010b 26040000 		.4byte	.LASF24
 4199 010f 03       		.uleb128 0x3
 4200 0110 04       		.byte	0x4
 4201 0111 07       		.byte	0x7
 4202 0112 FA070000 		.4byte	.LASF25
 4203 0116 05       		.uleb128 0x5
 4204 0117 04       		.byte	0x4
 4205 0118 02       		.uleb128 0x2
 4206 0119 00000000 		.4byte	.LASF26
 4207 011d 05       		.byte	0x5
 4208 011e 80       		.byte	0x80
 4209 011f 97000000 		.4byte	0x97
 4210 0123 02       		.uleb128 0x2
 4211 0124 52080000 		.4byte	.LASF27
 4212 0128 05       		.byte	0x5
 4213 0129 81       		.byte	0x81
 4214 012a 97000000 		.4byte	0x97
 4215 012e 02       		.uleb128 0x2
 4216 012f 25060000 		.4byte	.LASF28
 4217 0133 05       		.byte	0x5
 4218 0134 A0       		.byte	0xa0
 4219 0135 39010000 		.4byte	0x139
 4220 0139 06       		.uleb128 0x6
 4221 013a 2E070000 		.4byte	.LASF55
 4222 013e 3C       		.byte	0x3c
 4223 013f 05       		.byte	0x5
 4224 0140 4B04     		.2byte	0x44b
 4225 0142 99020000 		.4byte	0x299
 4226 0146 07       		.uleb128 0x7
 4227 0147 6D030000 		.4byte	.LASF29
 4228 014b 05       		.byte	0x5
 4229 014c 4D04     		.2byte	0x44d
 4230 014e 8E030000 		.4byte	0x38e
 4231 0152 00       		.byte	0
 4232 0153 07       		.uleb128 0x7
 4233 0154 36060000 		.4byte	.LASF30
 4234 0158 05       		.byte	0x5
 4235 0159 4E04     		.2byte	0x44e
 4236 015b 8E030000 		.4byte	0x38e
 4237 015f 01       		.byte	0x1
 4238 0160 08       		.uleb128 0x8
 4239 0161 64657600 		.ascii	"dev\000"
 4240 0165 05       		.byte	0x5
 4241 0166 5104     		.2byte	0x451
 4242 0168 CE030000 		.4byte	0x3ce
 4243 016c 04       		.byte	0x4
 4244 016d 07       		.uleb128 0x7
 4245 016e F5070000 		.4byte	.LASF31
 4246 0172 05       		.byte	0x5
 4247 0173 5204     		.2byte	0x452
 4248 0175 5E040000 		.4byte	0x45e
 4249 0179 08       		.byte	0x8
 4250 017a 07       		.uleb128 0x7
 4251 017b 26090000 		.4byte	.LASF32
 4252 017f 05       		.byte	0x5
ARM GAS  C:\Users\KJA\AppData\Local\Temp\ccbnGHAr.s 			page 94


 4253 0180 5304     		.2byte	0x453
 4254 0182 5E040000 		.4byte	0x45e
 4255 0186 0C       		.byte	0xc
 4256 0187 07       		.uleb128 0x7
 4257 0188 CA040000 		.4byte	.LASF33
 4258 018c 05       		.byte	0x5
 4259 018d 5404     		.2byte	0x454
 4260 018f 97000000 		.4byte	0x97
 4261 0193 10       		.byte	0x10
 4262 0194 07       		.uleb128 0x7
 4263 0195 27010000 		.4byte	.LASF34
 4264 0199 05       		.byte	0x5
 4265 019a 5404     		.2byte	0x454
 4266 019c 97000000 		.4byte	0x97
 4267 01a0 11       		.byte	0x11
 4268 01a1 07       		.uleb128 0x7
 4269 01a2 4B070000 		.4byte	.LASF35
 4270 01a6 05       		.byte	0x5
 4271 01a7 5504     		.2byte	0x455
 4272 01a9 97000000 		.4byte	0x97
 4273 01ad 12       		.byte	0x12
 4274 01ae 07       		.uleb128 0x7
 4275 01af A4010000 		.4byte	.LASF36
 4276 01b3 05       		.byte	0x5
 4277 01b4 5604     		.2byte	0x456
 4278 01b6 97000000 		.4byte	0x97
 4279 01ba 13       		.byte	0x13
 4280 01bb 07       		.uleb128 0x7
 4281 01bc 90020000 		.4byte	.LASF37
 4282 01c0 05       		.byte	0x5
 4283 01c1 5704     		.2byte	0x457
 4284 01c3 8E030000 		.4byte	0x38e
 4285 01c7 14       		.byte	0x14
 4286 01c8 07       		.uleb128 0x7
 4287 01c9 99020000 		.4byte	.LASF38
 4288 01cd 05       		.byte	0x5
 4289 01ce 5804     		.2byte	0x458
 4290 01d0 8E030000 		.4byte	0x38e
 4291 01d4 15       		.byte	0x15
 4292 01d5 07       		.uleb128 0x7
 4293 01d6 58060000 		.4byte	.LASF39
 4294 01da 05       		.byte	0x5
 4295 01db 5904     		.2byte	0x459
 4296 01dd 03040000 		.4byte	0x403
 4297 01e1 18       		.byte	0x18
 4298 01e2 07       		.uleb128 0x7
 4299 01e3 3D060000 		.4byte	.LASF40
 4300 01e7 05       		.byte	0x5
 4301 01e8 5B04     		.2byte	0x45b
 4302 01ea 8C000000 		.4byte	0x8c
 4303 01ee 1C       		.byte	0x1c
 4304 01ef 07       		.uleb128 0x7
 4305 01f0 B2030000 		.4byte	.LASF41
 4306 01f4 05       		.byte	0x5
 4307 01f5 5C04     		.2byte	0x45c
 4308 01f7 8C000000 		.4byte	0x8c
 4309 01fb 1D       		.byte	0x1d
ARM GAS  C:\Users\KJA\AppData\Local\Temp\ccbnGHAr.s 			page 95


 4310 01fc 07       		.uleb128 0x7
 4311 01fd BA030000 		.4byte	.LASF42
 4312 0201 05       		.byte	0x5
 4313 0202 5D04     		.2byte	0x45d
 4314 0204 8C000000 		.4byte	0x8c
 4315 0208 1E       		.byte	0x1e
 4316 0209 07       		.uleb128 0x7
 4317 020a 1A090000 		.4byte	.LASF43
 4318 020e 05       		.byte	0x5
 4319 020f 5E04     		.2byte	0x45e
 4320 0211 97000000 		.4byte	0x97
 4321 0215 1F       		.byte	0x1f
 4322 0216 07       		.uleb128 0x7
 4323 0217 60030000 		.4byte	.LASF44
 4324 021b 05       		.byte	0x5
 4325 021c 5F04     		.2byte	0x45f
 4326 021e 97000000 		.4byte	0x97
 4327 0222 20       		.byte	0x20
 4328 0223 07       		.uleb128 0x7
 4329 0224 A9010000 		.4byte	.LASF45
 4330 0228 05       		.byte	0x5
 4331 0229 6104     		.2byte	0x461
 4332 022b 20040000 		.4byte	0x420
 4333 022f 24       		.byte	0x24
 4334 0230 07       		.uleb128 0x7
 4335 0231 AC060000 		.4byte	.LASF46
 4336 0235 05       		.byte	0x5
 4337 0236 6204     		.2byte	0x462
 4338 0238 97000000 		.4byte	0x97
 4339 023c 28       		.byte	0x28
 4340 023d 07       		.uleb128 0x7
 4341 023e 3D000000 		.4byte	.LASF47
 4342 0242 05       		.byte	0x5
 4343 0243 6304     		.2byte	0x463
 4344 0245 8C000000 		.4byte	0x8c
 4345 0249 29       		.byte	0x29
 4346 024a 07       		.uleb128 0x7
 4347 024b 97070000 		.4byte	.LASF48
 4348 024f 05       		.byte	0x5
 4349 0250 6404     		.2byte	0x464
 4350 0252 8C000000 		.4byte	0x8c
 4351 0256 2A       		.byte	0x2a
 4352 0257 07       		.uleb128 0x7
 4353 0258 65080000 		.4byte	.LASF49
 4354 025c 05       		.byte	0x5
 4355 025d 6504     		.2byte	0x465
 4356 025f 97000000 		.4byte	0x97
 4357 0263 2B       		.byte	0x2b
 4358 0264 07       		.uleb128 0x7
 4359 0265 85060000 		.4byte	.LASF50
 4360 0269 05       		.byte	0x5
 4361 026a 6604     		.2byte	0x466
 4362 026c 97000000 		.4byte	0x97
 4363 0270 2C       		.byte	0x2c
 4364 0271 07       		.uleb128 0x7
 4365 0272 37010000 		.4byte	.LASF51
 4366 0276 05       		.byte	0x5
ARM GAS  C:\Users\KJA\AppData\Local\Temp\ccbnGHAr.s 			page 96


 4367 0277 6804     		.2byte	0x468
 4368 0279 D5020000 		.4byte	0x2d5
 4369 027d 2D       		.byte	0x2d
 4370 027e 07       		.uleb128 0x7
 4371 027f 25070000 		.4byte	.LASF52
 4372 0283 05       		.byte	0x5
 4373 0284 6F04     		.2byte	0x46f
 4374 0286 41040000 		.4byte	0x441
 4375 028a 34       		.byte	0x34
 4376 028b 07       		.uleb128 0x7
 4377 028c 44040000 		.4byte	.LASF53
 4378 0290 05       		.byte	0x5
 4379 0291 7104     		.2byte	0x471
 4380 0293 45030000 		.4byte	0x345
 4381 0297 38       		.byte	0x38
 4382 0298 00       		.byte	0
 4383 0299 02       		.uleb128 0x2
 4384 029a 14050000 		.4byte	.LASF54
 4385 029e 05       		.byte	0x5
 4386 029f A1       		.byte	0xa1
 4387 02a0 A4020000 		.4byte	0x2a4
 4388 02a4 09       		.uleb128 0x9
 4389 02a5 C2070000 		.4byte	.LASF56
 4390 02a9 0C       		.byte	0xc
 4391 02aa 05       		.byte	0x5
 4392 02ab CF       		.byte	0xcf
 4393 02ac D5020000 		.4byte	0x2d5
 4394 02b0 0A       		.uleb128 0xa
 4395 02b1 3D040000 		.4byte	.LASF57
 4396 02b5 05       		.byte	0x5
 4397 02b6 D1       		.byte	0xd1
 4398 02b7 99030000 		.4byte	0x399
 4399 02bb 00       		.byte	0
 4400 02bc 0A       		.uleb128 0xa
 4401 02bd 25000000 		.4byte	.LASF58
 4402 02c1 05       		.byte	0x5
 4403 02c2 D2       		.byte	0xd2
 4404 02c3 16010000 		.4byte	0x116
 4405 02c7 04       		.byte	0x4
 4406 02c8 0A       		.uleb128 0xa
 4407 02c9 5F010000 		.4byte	.LASF59
 4408 02cd 05       		.byte	0x5
 4409 02ce D3       		.byte	0xd3
 4410 02cf D4030000 		.4byte	0x3d4
 4411 02d3 08       		.byte	0x8
 4412 02d4 00       		.byte	0
 4413 02d5 02       		.uleb128 0x2
 4414 02d6 4C050000 		.4byte	.LASF60
 4415 02da 05       		.byte	0x5
 4416 02db A3       		.byte	0xa3
 4417 02dc E0020000 		.4byte	0x2e0
 4418 02e0 06       		.uleb128 0x6
 4419 02e1 51020000 		.4byte	.LASF61
 4420 02e5 07       		.byte	0x7
 4421 02e6 05       		.byte	0x5
 4422 02e7 1D02     		.2byte	0x21d
 4423 02e9 45030000 		.4byte	0x345
ARM GAS  C:\Users\KJA\AppData\Local\Temp\ccbnGHAr.s 			page 97


 4424 02ed 08       		.uleb128 0x8
 4425 02ee 7800     		.ascii	"x\000"
 4426 02f0 05       		.byte	0x5
 4427 02f1 1F02     		.2byte	0x21f
 4428 02f3 8E030000 		.4byte	0x38e
 4429 02f7 00       		.byte	0
 4430 02f8 08       		.uleb128 0x8
 4431 02f9 7900     		.ascii	"y\000"
 4432 02fb 05       		.byte	0x5
 4433 02fc 1F02     		.2byte	0x21f
 4434 02fe 8E030000 		.4byte	0x38e
 4435 0302 01       		.byte	0x1
 4436 0303 07       		.uleb128 0x7
 4437 0304 7E080000 		.4byte	.LASF62
 4438 0308 05       		.byte	0x5
 4439 0309 2002     		.2byte	0x220
 4440 030b 97000000 		.4byte	0x97
 4441 030f 02       		.byte	0x2
 4442 0310 08       		.uleb128 0x8
 4443 0311 64697200 		.ascii	"dir\000"
 4444 0315 05       		.byte	0x5
 4445 0316 2102     		.2byte	0x221
 4446 0318 97000000 		.4byte	0x97
 4447 031c 03       		.byte	0x3
 4448 031d 07       		.uleb128 0x7
 4449 031e 35070000 		.4byte	.LASF63
 4450 0322 05       		.byte	0x5
 4451 0323 2202     		.2byte	0x222
 4452 0325 97000000 		.4byte	0x97
 4453 0329 04       		.byte	0x4
 4454 032a 07       		.uleb128 0x7
 4455 032b B9000000 		.4byte	.LASF64
 4456 032f 05       		.byte	0x5
 4457 0330 2302     		.2byte	0x223
 4458 0332 97000000 		.4byte	0x97
 4459 0336 05       		.byte	0x5
 4460 0337 07       		.uleb128 0x7
 4461 0338 5A010000 		.4byte	.LASF65
 4462 033c 05       		.byte	0x5
 4463 033d 2402     		.2byte	0x224
 4464 033f 97000000 		.4byte	0x97
 4465 0343 06       		.byte	0x6
 4466 0344 00       		.byte	0
 4467 0345 02       		.uleb128 0x2
 4468 0346 03080000 		.4byte	.LASF66
 4469 034a 05       		.byte	0x5
 4470 034b A5       		.byte	0xa5
 4471 034c 50030000 		.4byte	0x350
 4472 0350 06       		.uleb128 0x6
 4473 0351 B1040000 		.4byte	.LASF67
 4474 0355 04       		.byte	0x4
 4475 0356 05       		.byte	0x5
 4476 0357 3102     		.2byte	0x231
 4477 0359 8E030000 		.4byte	0x38e
 4478 035d 08       		.uleb128 0x8
 4479 035e 783000   		.ascii	"x0\000"
 4480 0361 05       		.byte	0x5
ARM GAS  C:\Users\KJA\AppData\Local\Temp\ccbnGHAr.s 			page 98


 4481 0362 3302     		.2byte	0x233
 4482 0364 8E030000 		.4byte	0x38e
 4483 0368 00       		.byte	0
 4484 0369 08       		.uleb128 0x8
 4485 036a 793000   		.ascii	"y0\000"
 4486 036d 05       		.byte	0x5
 4487 036e 3302     		.2byte	0x233
 4488 0370 8E030000 		.4byte	0x38e
 4489 0374 01       		.byte	0x1
 4490 0375 08       		.uleb128 0x8
 4491 0376 783100   		.ascii	"x1\000"
 4492 0379 05       		.byte	0x5
 4493 037a 3302     		.2byte	0x233
 4494 037c 8E030000 		.4byte	0x38e
 4495 0380 02       		.byte	0x2
 4496 0381 08       		.uleb128 0x8
 4497 0382 793100   		.ascii	"y1\000"
 4498 0385 05       		.byte	0x5
 4499 0386 3302     		.2byte	0x233
 4500 0388 8E030000 		.4byte	0x38e
 4501 038c 03       		.byte	0x3
 4502 038d 00       		.byte	0
 4503 038e 02       		.uleb128 0x2
 4504 038f A6040000 		.4byte	.LASF68
 4505 0393 05       		.byte	0x5
 4506 0394 AF       		.byte	0xaf
 4507 0395 97000000 		.4byte	0x97
 4508 0399 02       		.uleb128 0x2
 4509 039a 12030000 		.4byte	.LASF69
 4510 039e 05       		.byte	0x5
 4511 039f C7       		.byte	0xc7
 4512 03a0 A4030000 		.4byte	0x3a4
 4513 03a4 0B       		.uleb128 0xb
 4514 03a5 04       		.byte	0x4
 4515 03a6 AA030000 		.4byte	0x3aa
 4516 03aa 0C       		.uleb128 0xc
 4517 03ab 97000000 		.4byte	0x97
 4518 03af C8030000 		.4byte	0x3c8
 4519 03b3 0D       		.uleb128 0xd
 4520 03b4 C8030000 		.4byte	0x3c8
 4521 03b8 0D       		.uleb128 0xd
 4522 03b9 CE030000 		.4byte	0x3ce
 4523 03bd 0D       		.uleb128 0xd
 4524 03be 97000000 		.4byte	0x97
 4525 03c2 0D       		.uleb128 0xd
 4526 03c3 16010000 		.4byte	0x116
 4527 03c7 00       		.byte	0
 4528 03c8 0B       		.uleb128 0xb
 4529 03c9 04       		.byte	0x4
 4530 03ca 2E010000 		.4byte	0x12e
 4531 03ce 0B       		.uleb128 0xb
 4532 03cf 04       		.byte	0x4
 4533 03d0 99020000 		.4byte	0x299
 4534 03d4 02       		.uleb128 0x2
 4535 03d5 31030000 		.4byte	.LASF70
 4536 03d9 05       		.byte	0x5
 4537 03da CA       		.byte	0xca
ARM GAS  C:\Users\KJA\AppData\Local\Temp\ccbnGHAr.s 			page 99


 4538 03db DF030000 		.4byte	0x3df
 4539 03df 0B       		.uleb128 0xb
 4540 03e0 04       		.byte	0x4
 4541 03e1 E5030000 		.4byte	0x3e5
 4542 03e5 0C       		.uleb128 0xc
 4543 03e6 97000000 		.4byte	0x97
 4544 03ea 03040000 		.4byte	0x403
 4545 03ee 0D       		.uleb128 0xd
 4546 03ef C8030000 		.4byte	0x3c8
 4547 03f3 0D       		.uleb128 0xd
 4548 03f4 97000000 		.4byte	0x97
 4549 03f8 0D       		.uleb128 0xd
 4550 03f9 97000000 		.4byte	0x97
 4551 03fd 0D       		.uleb128 0xd
 4552 03fe 16010000 		.4byte	0x116
 4553 0402 00       		.byte	0
 4554 0403 0E       		.uleb128 0xe
 4555 0404 CA090000 		.4byte	.LASF71
 4556 0408 05       		.byte	0x5
 4557 0409 0D04     		.2byte	0x40d
 4558 040b 0F040000 		.4byte	0x40f
 4559 040f 0B       		.uleb128 0xb
 4560 0410 04       		.byte	0x4
 4561 0411 15040000 		.4byte	0x415
 4562 0415 0F       		.uleb128 0xf
 4563 0416 20040000 		.4byte	0x420
 4564 041a 0D       		.uleb128 0xd
 4565 041b C8030000 		.4byte	0x3c8
 4566 041f 00       		.byte	0
 4567 0420 0E       		.uleb128 0xe
 4568 0421 D5080000 		.4byte	.LASF72
 4569 0425 05       		.byte	0x5
 4570 0426 1004     		.2byte	0x410
 4571 0428 2C040000 		.4byte	0x42c
 4572 042c 0B       		.uleb128 0xb
 4573 042d 04       		.byte	0x4
 4574 042e 32040000 		.4byte	0x432
 4575 0432 0C       		.uleb128 0xc
 4576 0433 8E030000 		.4byte	0x38e
 4577 0437 41040000 		.4byte	0x441
 4578 043b 0D       		.uleb128 0xd
 4579 043c C8030000 		.4byte	0x3c8
 4580 0440 00       		.byte	0
 4581 0441 0E       		.uleb128 0xe
 4582 0442 3F050000 		.4byte	.LASF73
 4583 0446 05       		.byte	0x5
 4584 0447 1304     		.2byte	0x413
 4585 0449 4D040000 		.4byte	0x44d
 4586 044d 0B       		.uleb128 0xb
 4587 044e 04       		.byte	0x4
 4588 044f 53040000 		.4byte	0x453
 4589 0453 0F       		.uleb128 0xf
 4590 0454 5E040000 		.4byte	0x45e
 4591 0458 0D       		.uleb128 0xd
 4592 0459 97000000 		.4byte	0x97
 4593 045d 00       		.byte	0
 4594 045e 0B       		.uleb128 0xb
ARM GAS  C:\Users\KJA\AppData\Local\Temp\ccbnGHAr.s 			page 100


 4595 045f 04       		.byte	0x4
 4596 0460 64040000 		.4byte	0x464
 4597 0464 10       		.uleb128 0x10
 4598 0465 18010000 		.4byte	0x118
 4599 0469 11       		.uleb128 0x11
 4600 046a 9E010000 		.4byte	.LASF192
 4601 046e 01       		.byte	0x1
 4602 046f 07       		.byte	0x7
 4603 0470 05       		.byte	0x5
 4604 0471 E8040000 		.4byte	0x4e8
 4605 0475 12       		.uleb128 0x12
 4606 0476 48090000 		.4byte	.LASF74
 4607 047a 00       		.sleb128 0
 4608 047b 12       		.uleb128 0x12
 4609 047c CC030000 		.4byte	.LASF75
 4610 0480 01       		.sleb128 1
 4611 0481 12       		.uleb128 0x12
 4612 0482 DD090000 		.4byte	.LASF76
 4613 0486 02       		.sleb128 2
 4614 0487 12       		.uleb128 0x12
 4615 0488 E1010000 		.4byte	.LASF77
 4616 048c 03       		.sleb128 3
 4617 048d 12       		.uleb128 0x12
 4618 048e 92060000 		.4byte	.LASF78
 4619 0492 04       		.sleb128 4
 4620 0493 12       		.uleb128 0x12
 4621 0494 49080000 		.4byte	.LASF79
 4622 0498 05       		.sleb128 5
 4623 0499 12       		.uleb128 0x12
 4624 049a 8A090000 		.4byte	.LASF80
 4625 049e 06       		.sleb128 6
 4626 049f 12       		.uleb128 0x12
 4627 04a0 5B070000 		.4byte	.LASF81
 4628 04a4 07       		.sleb128 7
 4629 04a5 12       		.uleb128 0x12
 4630 04a6 EE050000 		.4byte	.LASF82
 4631 04aa 08       		.sleb128 8
 4632 04ab 12       		.uleb128 0x12
 4633 04ac EE080000 		.4byte	.LASF83
 4634 04b0 09       		.sleb128 9
 4635 04b1 12       		.uleb128 0x12
 4636 04b2 FA050000 		.4byte	.LASF84
 4637 04b6 0A       		.sleb128 10
 4638 04b7 12       		.uleb128 0x12
 4639 04b8 3F030000 		.4byte	.LASF85
 4640 04bc 0B       		.sleb128 11
 4641 04bd 12       		.uleb128 0x12
 4642 04be 1E010000 		.4byte	.LASF86
 4643 04c2 0C       		.sleb128 12
 4644 04c3 12       		.uleb128 0x12
 4645 04c4 1C000000 		.4byte	.LASF87
 4646 04c8 0D       		.sleb128 13
 4647 04c9 12       		.uleb128 0x12
 4648 04ca 15010000 		.4byte	.LASF88
 4649 04ce 0E       		.sleb128 14
 4650 04cf 12       		.uleb128 0x12
 4651 04d0 EB000000 		.4byte	.LASF89
ARM GAS  C:\Users\KJA\AppData\Local\Temp\ccbnGHAr.s 			page 101


 4652 04d4 0F       		.sleb128 15
 4653 04d5 12       		.uleb128 0x12
 4654 04d6 84080000 		.4byte	.LASF90
 4655 04da 10       		.sleb128 16
 4656 04db 12       		.uleb128 0x12
 4657 04dc 4F060000 		.4byte	.LASF91
 4658 04e0 11       		.sleb128 17
 4659 04e1 12       		.uleb128 0x12
 4660 04e2 DD060000 		.4byte	.LASF92
 4661 04e6 12       		.sleb128 18
 4662 04e7 00       		.byte	0
 4663 04e8 13       		.uleb128 0x13
 4664 04e9 34040000 		.4byte	.LASF193
 4665 04ed 01       		.byte	0x1
 4666 04ee 06       		.byte	0x6
 4667 04ef 00000000 		.4byte	.LFB63
 4668 04f3 241C0000 		.4byte	.LFE63-.LFB63
 4669 04f7 01       		.uleb128 0x1
 4670 04f8 9C       		.byte	0x9c
 4671 04f9 5B060000 		.4byte	0x65b
 4672 04fd 14       		.uleb128 0x14
 4673 04fe 36050000 		.4byte	.LASF93
 4674 0502 01       		.byte	0x1
 4675 0503 06       		.byte	0x6
 4676 0504 AD000000 		.4byte	0xad
 4677 0508 02       		.uleb128 0x2
 4678 0509 91       		.byte	0x91
 4679 050a 5F       		.sleb128 -33
 4680 050b 14       		.uleb128 0x14
 4681 050c 06040000 		.4byte	.LASF94
 4682 0510 01       		.byte	0x1
 4683 0511 06       		.byte	0x6
 4684 0512 AD000000 		.4byte	0xad
 4685 0516 02       		.uleb128 0x2
 4686 0517 91       		.byte	0x91
 4687 0518 5E       		.sleb128 -34
 4688 0519 15       		.uleb128 0x15
 4689 051a 0D060000 		.4byte	.LASF95
 4690 051e 01       		.byte	0x1
 4691 051f 08       		.byte	0x8
 4692 0520 69040000 		.4byte	0x469
 4693 0524 02       		.uleb128 0x2
 4694 0525 91       		.byte	0x91
 4695 0526 66       		.sleb128 -26
 4696 0527 16       		.uleb128 0x16
 4697 0528 EC060000 		.4byte	.LBB2
 4698 052c 60000000 		.4byte	.LBE2-.LBB2
 4699 0530 44050000 		.4byte	0x544
 4700 0534 17       		.uleb128 0x17
 4701 0535 D7070000 		.4byte	.LASF96
 4702 0539 01       		.byte	0x1
 4703 053a 1801     		.2byte	0x118
 4704 053c AD000000 		.4byte	0xad
 4705 0540 02       		.uleb128 0x2
 4706 0541 91       		.byte	0x91
 4707 0542 6F       		.sleb128 -17
 4708 0543 00       		.byte	0
ARM GAS  C:\Users\KJA\AppData\Local\Temp\ccbnGHAr.s 			page 102


 4709 0544 16       		.uleb128 0x16
 4710 0545 36080000 		.4byte	.LBB3
 4711 0549 9E000000 		.4byte	.LBE3-.LBB3
 4712 054d 61050000 		.4byte	0x561
 4713 0551 17       		.uleb128 0x17
 4714 0552 D7070000 		.4byte	.LASF96
 4715 0556 01       		.byte	0x1
 4716 0557 4301     		.2byte	0x143
 4717 0559 AD000000 		.4byte	0xad
 4718 055d 02       		.uleb128 0x2
 4719 055e 91       		.byte	0x91
 4720 055f 6E       		.sleb128 -18
 4721 0560 00       		.byte	0
 4722 0561 16       		.uleb128 0x16
 4723 0562 8E090000 		.4byte	.LBB4
 4724 0566 40000000 		.4byte	.LBE4-.LBB4
 4725 056a 7E050000 		.4byte	0x57e
 4726 056e 17       		.uleb128 0x17
 4727 056f D7070000 		.4byte	.LASF96
 4728 0573 01       		.byte	0x1
 4729 0574 6A01     		.2byte	0x16a
 4730 0576 AD000000 		.4byte	0xad
 4731 057a 02       		.uleb128 0x2
 4732 057b 91       		.byte	0x91
 4733 057c 6D       		.sleb128 -19
 4734 057d 00       		.byte	0
 4735 057e 16       		.uleb128 0x16
 4736 057f 3E0F0000 		.4byte	.LBB5
 4737 0583 5A050000 		.4byte	.LBE5-.LBB5
 4738 0587 D1050000 		.4byte	0x5d1
 4739 058b 17       		.uleb128 0x17
 4740 058c CD070000 		.4byte	.LASF97
 4741 0590 01       		.byte	0x1
 4742 0591 5102     		.2byte	0x251
 4743 0593 CE000000 		.4byte	0xce
 4744 0597 02       		.uleb128 0x2
 4745 0598 91       		.byte	0x91
 4746 0599 65       		.sleb128 -27
 4747 059a 16       		.uleb128 0x16
 4748 059b 8A100000 		.4byte	.LBB6
 4749 059f D2000000 		.4byte	.LBE6-.LBB6
 4750 05a3 B7050000 		.4byte	0x5b7
 4751 05a7 17       		.uleb128 0x17
 4752 05a8 D7070000 		.4byte	.LASF96
 4753 05ac 01       		.byte	0x1
 4754 05ad 7C02     		.2byte	0x27c
 4755 05af AD000000 		.4byte	0xad
 4756 05b3 02       		.uleb128 0x2
 4757 05b4 91       		.byte	0x91
 4758 05b5 6C       		.sleb128 -20
 4759 05b6 00       		.byte	0
 4760 05b7 18       		.uleb128 0x18
 4761 05b8 9C120000 		.4byte	.LBB7
 4762 05bc 7C000000 		.4byte	.LBE7-.LBB7
 4763 05c0 17       		.uleb128 0x17
 4764 05c1 D7070000 		.4byte	.LASF96
 4765 05c5 01       		.byte	0x1
ARM GAS  C:\Users\KJA\AppData\Local\Temp\ccbnGHAr.s 			page 103


 4766 05c6 AF02     		.2byte	0x2af
 4767 05c8 AD000000 		.4byte	0xad
 4768 05cc 02       		.uleb128 0x2
 4769 05cd 91       		.byte	0x91
 4770 05ce 6B       		.sleb128 -21
 4771 05cf 00       		.byte	0
 4772 05d0 00       		.byte	0
 4773 05d1 16       		.uleb128 0x16
 4774 05d2 AE140000 		.4byte	.LBB8
 4775 05d6 0E040000 		.4byte	.LBE8-.LBB8
 4776 05da 24060000 		.4byte	0x624
 4777 05de 17       		.uleb128 0x17
 4778 05df CD070000 		.4byte	.LASF97
 4779 05e3 01       		.byte	0x1
 4780 05e4 EA02     		.2byte	0x2ea
 4781 05e6 CE000000 		.4byte	0xce
 4782 05ea 02       		.uleb128 0x2
 4783 05eb 91       		.byte	0x91
 4784 05ec 64       		.sleb128 -28
 4785 05ed 16       		.uleb128 0x16
 4786 05ee 88150000 		.4byte	.LBB9
 4787 05f2 62000000 		.4byte	.LBE9-.LBB9
 4788 05f6 0A060000 		.4byte	0x60a
 4789 05fa 17       		.uleb128 0x17
 4790 05fb D7070000 		.4byte	.LASF96
 4791 05ff 01       		.byte	0x1
 4792 0600 0903     		.2byte	0x309
 4793 0602 AD000000 		.4byte	0xad
 4794 0606 02       		.uleb128 0x2
 4795 0607 91       		.byte	0x91
 4796 0608 6A       		.sleb128 -22
 4797 0609 00       		.byte	0
 4798 060a 18       		.uleb128 0x18
 4799 060b B8160000 		.4byte	.LBB10
 4800 060f C8000000 		.4byte	.LBE10-.LBB10
 4801 0613 17       		.uleb128 0x17
 4802 0614 D7070000 		.4byte	.LASF96
 4803 0618 01       		.byte	0x1
 4804 0619 2F03     		.2byte	0x32f
 4805 061b AD000000 		.4byte	0xad
 4806 061f 02       		.uleb128 0x2
 4807 0620 91       		.byte	0x91
 4808 0621 69       		.sleb128 -23
 4809 0622 00       		.byte	0
 4810 0623 00       		.byte	0
 4811 0624 16       		.uleb128 0x16
 4812 0625 44190000 		.4byte	.LBB11
 4813 0629 5A000000 		.4byte	.LBE11-.LBB11
 4814 062d 41060000 		.4byte	0x641
 4815 0631 17       		.uleb128 0x17
 4816 0632 D7070000 		.4byte	.LASF96
 4817 0636 01       		.byte	0x1
 4818 0637 7B03     		.2byte	0x37b
 4819 0639 AD000000 		.4byte	0xad
 4820 063d 02       		.uleb128 0x2
 4821 063e 91       		.byte	0x91
 4822 063f 68       		.sleb128 -24
ARM GAS  C:\Users\KJA\AppData\Local\Temp\ccbnGHAr.s 			page 104


 4823 0640 00       		.byte	0
 4824 0641 18       		.uleb128 0x18
 4825 0642 0A1A0000 		.4byte	.LBB12
 4826 0646 A6000000 		.4byte	.LBE12-.LBB12
 4827 064a 17       		.uleb128 0x17
 4828 064b D7070000 		.4byte	.LASF96
 4829 064f 01       		.byte	0x1
 4830 0650 9603     		.2byte	0x396
 4831 0652 AD000000 		.4byte	0xad
 4832 0656 02       		.uleb128 0x2
 4833 0657 91       		.byte	0x91
 4834 0658 67       		.sleb128 -25
 4835 0659 00       		.byte	0
 4836 065a 00       		.byte	0
 4837 065b 19       		.uleb128 0x19
 4838 065c D0060000 		.4byte	.LASF98
 4839 0660 06       		.byte	0x6
 4840 0661 2A06     		.2byte	0x62a
 4841 0663 67060000 		.4byte	0x667
 4842 0667 1A       		.uleb128 0x1a
 4843 0668 A2000000 		.4byte	0xa2
 4844 066c 1B       		.uleb128 0x1b
 4845 066d 23010000 		.4byte	0x123
 4846 0671 77060000 		.4byte	0x677
 4847 0675 1C       		.uleb128 0x1c
 4848 0676 00       		.byte	0
 4849 0677 19       		.uleb128 0x19
 4850 0678 5E000000 		.4byte	.LASF99
 4851 067c 05       		.byte	0x5
 4852 067d 5606     		.2byte	0x656
 4853 067f 83060000 		.4byte	0x683
 4854 0683 10       		.uleb128 0x10
 4855 0684 6C060000 		.4byte	0x66c
 4856 0688 19       		.uleb128 0x19
 4857 0689 E1070000 		.4byte	.LASF100
 4858 068d 05       		.byte	0x5
 4859 068e FE06     		.2byte	0x6fe
 4860 0690 94060000 		.4byte	0x694
 4861 0694 10       		.uleb128 0x10
 4862 0695 6C060000 		.4byte	0x66c
 4863 0699 19       		.uleb128 0x19
 4864 069a 7C040000 		.4byte	.LASF101
 4865 069e 05       		.byte	0x5
 4866 069f 0107     		.2byte	0x701
 4867 06a1 A5060000 		.4byte	0x6a5
 4868 06a5 10       		.uleb128 0x10
 4869 06a6 6C060000 		.4byte	0x66c
 4870 06aa 1D       		.uleb128 0x1d
 4871 06ab 66010000 		.4byte	.LASF102
 4872 06af 07       		.byte	0x7
 4873 06b0 09       		.byte	0x9
 4874 06b1 69040000 		.4byte	0x469
 4875 06b5 05       		.uleb128 0x5
 4876 06b6 03       		.byte	0x3
 4877 06b7 00000000 		.4byte	Current_State
 4878 06bb 1D       		.uleb128 0x1d
 4879 06bc B1020000 		.4byte	.LASF103
ARM GAS  C:\Users\KJA\AppData\Local\Temp\ccbnGHAr.s 			page 105


 4880 06c0 07       		.byte	0x7
 4881 06c1 0A       		.byte	0xa
 4882 06c2 69040000 		.4byte	0x469
 4883 06c6 05       		.uleb128 0x5
 4884 06c7 03       		.byte	0x3
 4885 06c8 00000000 		.4byte	Previous_State
 4886 06cc 1D       		.uleb128 0x1d
 4887 06cd 74010000 		.4byte	.LASF104
 4888 06d1 07       		.byte	0x7
 4889 06d2 0C       		.byte	0xc
 4890 06d3 AD000000 		.4byte	0xad
 4891 06d7 05       		.uleb128 0x5
 4892 06d8 03       		.byte	0x3
 4893 06d9 00000000 		.4byte	Sound_Enable
 4894 06dd 1D       		.uleb128 0x1d
 4895 06de 06040000 		.4byte	.LASF94
 4896 06e2 07       		.byte	0x7
 4897 06e3 0E       		.byte	0xe
 4898 06e4 AD000000 		.4byte	0xad
 4899 06e8 05       		.uleb128 0x5
 4900 06e9 03       		.byte	0x3
 4901 06ea 00000000 		.4byte	Current_Menu_Position
 4902 06ee 1D       		.uleb128 0x1d
 4903 06ef 32090000 		.4byte	.LASF105
 4904 06f3 07       		.byte	0x7
 4905 06f4 11       		.byte	0x11
 4906 06f5 AD000000 		.4byte	0xad
 4907 06f9 05       		.uleb128 0x5
 4908 06fa 03       		.byte	0x3
 4909 06fb 00000000 		.4byte	CurrentBacklightValue
 4910 06ff 1B       		.uleb128 0x1b
 4911 0700 FD000000 		.4byte	0xfd
 4912 0704 0F070000 		.4byte	0x70f
 4913 0708 1E       		.uleb128 0x1e
 4914 0709 0F010000 		.4byte	0x10f
 4915 070d 07       		.byte	0x7
 4916 070e 00       		.byte	0
 4917 070f 1D       		.uleb128 0x1d
 4918 0710 B8010000 		.4byte	.LASF106
 4919 0714 07       		.byte	0x7
 4920 0715 12       		.byte	0x12
 4921 0716 FF060000 		.4byte	0x6ff
 4922 071a 05       		.uleb128 0x5
 4923 071b 03       		.byte	0x3
 4924 071c 00000000 		.4byte	CurrentBacklightValueString
 4925 0720 1D       		.uleb128 0x1d
 4926 0721 66020000 		.4byte	.LASF107
 4927 0725 07       		.byte	0x7
 4928 0726 14       		.byte	0x14
 4929 0727 AD000000 		.4byte	0xad
 4930 072b 05       		.uleb128 0x5
 4931 072c 03       		.byte	0x3
 4932 072d 00000000 		.4byte	CurrentVolumeValue
 4933 0731 1D       		.uleb128 0x1d
 4934 0732 8D040000 		.4byte	.LASF108
 4935 0736 07       		.byte	0x7
 4936 0737 15       		.byte	0x15
ARM GAS  C:\Users\KJA\AppData\Local\Temp\ccbnGHAr.s 			page 106


 4937 0738 FF060000 		.4byte	0x6ff
 4938 073c 05       		.uleb128 0x5
 4939 073d 03       		.byte	0x3
 4940 073e 00000000 		.4byte	CurrentVolumeValueString
 4941 0742 1D       		.uleb128 0x1d
 4942 0743 EA090000 		.4byte	.LASF109
 4943 0747 07       		.byte	0x7
 4944 0748 17       		.byte	0x17
 4945 0749 EF000000 		.4byte	0xef
 4946 074d 05       		.uleb128 0x5
 4947 074e 03       		.byte	0x3
 4948 074f 00000000 		.4byte	Current_Calibration_Range1
 4949 0753 1D       		.uleb128 0x1d
 4950 0754 6D000000 		.4byte	.LASF110
 4951 0758 07       		.byte	0x7
 4952 0759 18       		.byte	0x18
 4953 075a EF000000 		.4byte	0xef
 4954 075e 05       		.uleb128 0x5
 4955 075f 03       		.byte	0x3
 4956 0760 00000000 		.4byte	Current_Calibration_Range2
 4957 0764 1D       		.uleb128 0x1d
 4958 0765 88000000 		.4byte	.LASF111
 4959 0769 07       		.byte	0x7
 4960 076a 19       		.byte	0x19
 4961 076b EF000000 		.4byte	0xef
 4962 076f 05       		.uleb128 0x5
 4963 0770 03       		.byte	0x3
 4964 0771 00000000 		.4byte	Current_Calibration_Range3
 4965 0775 1D       		.uleb128 0x1d
 4966 0776 04010000 		.4byte	.LASF112
 4967 077a 07       		.byte	0x7
 4968 077b 1B       		.byte	0x1b
 4969 077c AD000000 		.4byte	0xad
 4970 0780 05       		.uleb128 0x5
 4971 0781 03       		.byte	0x3
 4972 0782 00000000 		.4byte	LEM_Offset_Value
 4973 0786 1D       		.uleb128 0x1d
 4974 0787 050A0000 		.4byte	.LASF113
 4975 078b 07       		.byte	0x7
 4976 078c 1D       		.byte	0x1d
 4977 078d EF000000 		.4byte	0xef
 4978 0791 05       		.uleb128 0x5
 4979 0792 03       		.byte	0x3
 4980 0793 00000000 		.4byte	Two_Wire_Range
 4981 0797 1D       		.uleb128 0x1d
 4982 0798 2C0A0000 		.4byte	.LASF114
 4983 079c 07       		.byte	0x7
 4984 079d 1E       		.byte	0x1e
 4985 079e EF000000 		.4byte	0xef
 4986 07a2 05       		.uleb128 0x5
 4987 07a3 03       		.byte	0x3
 4988 07a4 00000000 		.4byte	Four_Wire_Range
 4989 07a8 1D       		.uleb128 0x1d
 4990 07a9 1F080000 		.4byte	.LASF115
 4991 07ad 07       		.byte	0x7
 4992 07ae 1F       		.byte	0x1f
 4993 07af AD000000 		.4byte	0xad
ARM GAS  C:\Users\KJA\AppData\Local\Temp\ccbnGHAr.s 			page 107


 4994 07b3 05       		.uleb128 0x5
 4995 07b4 03       		.byte	0x3
 4996 07b5 00000000 		.4byte	Four_Wire_Method
 4997 07b9 1D       		.uleb128 0x1d
 4998 07ba 71070000 		.4byte	.LASF116
 4999 07be 07       		.byte	0x7
 5000 07bf 21       		.byte	0x21
 5001 07c0 AD000000 		.4byte	0xad
 5002 07c4 05       		.uleb128 0x5
 5003 07c5 03       		.byte	0x3
 5004 07c6 00000000 		.4byte	Actual_Range
 5005 07ca 1D       		.uleb128 0x1d
 5006 07cb 2A020000 		.4byte	.LASF117
 5007 07cf 07       		.byte	0x7
 5008 07d0 22       		.byte	0x22
 5009 07d1 AD000000 		.4byte	0xad
 5010 07d5 05       		.uleb128 0x5
 5011 07d6 03       		.byte	0x3
 5012 07d7 00000000 		.4byte	View_Mode
 5013 07db 1D       		.uleb128 0x1d
 5014 07dc DA040000 		.4byte	.LASF118
 5015 07e0 07       		.byte	0x7
 5016 07e1 25       		.byte	0x25
 5017 07e2 B8000000 		.4byte	0xb8
 5018 07e6 05       		.uleb128 0x5
 5019 07e7 03       		.byte	0x3
 5020 07e8 00000000 		.4byte	qdCount
 5021 07ec 1D       		.uleb128 0x1d
 5022 07ed D4010000 		.4byte	.LASF119
 5023 07f1 07       		.byte	0x7
 5024 07f2 26       		.byte	0x26
 5025 07f3 B8000000 		.4byte	0xb8
 5026 07f7 05       		.uleb128 0x5
 5027 07f8 03       		.byte	0x3
 5028 07f9 00000000 		.4byte	Last_qdCount
 5029 07fd 1D       		.uleb128 0x1d
 5030 07fe 3B070000 		.4byte	.LASF120
 5031 0802 07       		.byte	0x7
 5032 0803 28       		.byte	0x28
 5033 0804 AD000000 		.4byte	0xad
 5034 0808 05       		.uleb128 0x5
 5035 0809 03       		.byte	0x3
 5036 080a 00000000 		.4byte	button1
 5037 080e 1D       		.uleb128 0x1d
 5038 080f 43070000 		.4byte	.LASF121
 5039 0813 07       		.byte	0x7
 5040 0814 28       		.byte	0x28
 5041 0815 AD000000 		.4byte	0xad
 5042 0819 05       		.uleb128 0x5
 5043 081a 03       		.byte	0x3
 5044 081b 00000000 		.4byte	button2
 5045 081f 1D       		.uleb128 0x1d
 5046 0820 04050000 		.4byte	.LASF122
 5047 0824 07       		.byte	0x7
 5048 0825 28       		.byte	0x28
 5049 0826 AD000000 		.4byte	0xad
 5050 082a 05       		.uleb128 0x5
ARM GAS  C:\Users\KJA\AppData\Local\Temp\ccbnGHAr.s 			page 108


 5051 082b 03       		.byte	0x3
 5052 082c 00000000 		.4byte	button3
 5053 0830 1D       		.uleb128 0x1d
 5054 0831 0C050000 		.4byte	.LASF123
 5055 0835 07       		.byte	0x7
 5056 0836 28       		.byte	0x28
 5057 0837 AD000000 		.4byte	0xad
 5058 083b 05       		.uleb128 0x5
 5059 083c 03       		.byte	0x3
 5060 083d 00000000 		.4byte	button4
 5061 0841 1D       		.uleb128 0x1d
 5062 0842 69070000 		.4byte	.LASF124
 5063 0846 07       		.byte	0x7
 5064 0847 28       		.byte	0x28
 5065 0848 AD000000 		.4byte	0xad
 5066 084c 05       		.uleb128 0x5
 5067 084d 03       		.byte	0x3
 5068 084e 00000000 		.4byte	button5
 5069 0852 1D       		.uleb128 0x1d
 5070 0853 2E050000 		.4byte	.LASF125
 5071 0857 07       		.byte	0x7
 5072 0858 28       		.byte	0x28
 5073 0859 AD000000 		.4byte	0xad
 5074 085d 05       		.uleb128 0x5
 5075 085e 03       		.byte	0x3
 5076 085f 00000000 		.4byte	button6
 5077 0863 1D       		.uleb128 0x1d
 5078 0864 AC020000 		.4byte	.LASF126
 5079 0868 07       		.byte	0x7
 5080 0869 28       		.byte	0x28
 5081 086a AD000000 		.4byte	0xad
 5082 086e 05       		.uleb128 0x5
 5083 086f 03       		.byte	0x3
 5084 0870 00000000 		.4byte	push
 5085 0874 1D       		.uleb128 0x1d
 5086 0875 0D090000 		.4byte	.LASF127
 5087 0879 07       		.byte	0x7
 5088 087a 2A       		.byte	0x2a
 5089 087b AD000000 		.4byte	0xad
 5090 087f 05       		.uleb128 0x5
 5091 0880 03       		.byte	0x3
 5092 0881 00000000 		.4byte	OutputEnable
 5093 0885 1F       		.uleb128 0x1f
 5094 0886 75386700 		.ascii	"u8g\000"
 5095 088a 07       		.byte	0x7
 5096 088b 2C       		.byte	0x2c
 5097 088c 2E010000 		.4byte	0x12e
 5098 0890 05       		.uleb128 0x5
 5099 0891 03       		.byte	0x3
 5100 0892 00000000 		.4byte	u8g
 5101 0896 1D       		.uleb128 0x1d
 5102 0897 3C0A0000 		.4byte	.LASF128
 5103 089b 07       		.byte	0x7
 5104 089c 2E       		.byte	0x2e
 5105 089d C3000000 		.4byte	0xc3
 5106 08a1 05       		.uleb128 0x5
 5107 08a2 03       		.byte	0x3
ARM GAS  C:\Users\KJA\AppData\Local\Temp\ccbnGHAr.s 			page 109


 5108 08a3 00000000 		.4byte	Push_Buzzer__Default_Lenght
 5109 08a7 1D       		.uleb128 0x1d
 5110 08a8 F7060000 		.4byte	.LASF129
 5111 08ac 07       		.byte	0x7
 5112 08ad 2F       		.byte	0x2f
 5113 08ae C3000000 		.4byte	0xc3
 5114 08b2 05       		.uleb128 0x5
 5115 08b3 03       		.byte	0x3
 5116 08b4 00000000 		.4byte	Rotate_Buzzer__Default_Lenght
 5117 08b8 1D       		.uleb128 0x1d
 5118 08b9 2D000000 		.4byte	.LASF130
 5119 08bd 07       		.byte	0x7
 5120 08be 3C       		.byte	0x3c
 5121 08bf AD000000 		.4byte	0xad
 5122 08c3 05       		.uleb128 0x5
 5123 08c4 03       		.byte	0x3
 5124 08c5 00000000 		.4byte	Edit_Value_Mode
 5125 08c9 1B       		.uleb128 0x1b
 5126 08ca FD000000 		.4byte	0xfd
 5127 08ce D9080000 		.4byte	0x8d9
 5128 08d2 1E       		.uleb128 0x1e
 5129 08d3 0F010000 		.4byte	0x10f
 5130 08d7 0F       		.byte	0xf
 5131 08d8 00       		.byte	0
 5132 08d9 1D       		.uleb128 0x1d
 5133 08da C2000000 		.4byte	.LASF131
 5134 08de 07       		.byte	0x7
 5135 08df 3E       		.byte	0x3e
 5136 08e0 C9080000 		.4byte	0x8c9
 5137 08e4 05       		.uleb128 0x5
 5138 08e5 03       		.byte	0x3
 5139 08e6 00000000 		.4byte	cVoltage_Actual
 5140 08ea 1D       		.uleb128 0x1d
 5141 08eb 81010000 		.4byte	.LASF132
 5142 08ef 07       		.byte	0x7
 5143 08f0 3F       		.byte	0x3f
 5144 08f1 C9080000 		.4byte	0x8c9
 5145 08f5 05       		.uleb128 0x5
 5146 08f6 03       		.byte	0x3
 5147 08f7 00000000 		.4byte	cCurrent_Actual
 5148 08fb 1D       		.uleb128 0x1d
 5149 08fc 73030000 		.4byte	.LASF133
 5150 0900 07       		.byte	0x7
 5151 0901 40       		.byte	0x40
 5152 0902 C9080000 		.4byte	0x8c9
 5153 0906 05       		.uleb128 0x5
 5154 0907 03       		.byte	0x3
 5155 0908 00000000 		.4byte	cPower_Actual
 5156 090c 1B       		.uleb128 0x1b
 5157 090d 08010000 		.4byte	0x108
 5158 0911 1C090000 		.4byte	0x91c
 5159 0915 1E       		.uleb128 0x1e
 5160 0916 0F010000 		.4byte	0x10f
 5161 091a 0F       		.byte	0xf
 5162 091b 00       		.byte	0
 5163 091c 1D       		.uleb128 0x1d
 5164 091d 48030000 		.4byte	.LASF134
ARM GAS  C:\Users\KJA\AppData\Local\Temp\ccbnGHAr.s 			page 110


 5165 0921 07       		.byte	0x7
 5166 0922 41       		.byte	0x41
 5167 0923 0C090000 		.4byte	0x90c
 5168 0927 05       		.uleb128 0x5
 5169 0928 03       		.byte	0x3
 5170 0929 00000000 		.4byte	cResist_Actual
 5171 092d 1D       		.uleb128 0x1d
 5172 092e 44020000 		.4byte	.LASF135
 5173 0932 07       		.byte	0x7
 5174 0933 43       		.byte	0x43
 5175 0934 C9080000 		.4byte	0x8c9
 5176 0938 05       		.uleb128 0x5
 5177 0939 03       		.byte	0x3
 5178 093a 00000000 		.4byte	cVoltage_Set
 5179 093e 1D       		.uleb128 0x1d
 5180 093f 91010000 		.4byte	.LASF136
 5181 0943 07       		.byte	0x7
 5182 0944 44       		.byte	0x44
 5183 0945 C9080000 		.4byte	0x8c9
 5184 0949 05       		.uleb128 0x5
 5185 094a 03       		.byte	0x3
 5186 094b 00000000 		.4byte	cCurrent_Set
 5187 094f 1D       		.uleb128 0x1d
 5188 0950 7F020000 		.4byte	.LASF137
 5189 0954 07       		.byte	0x7
 5190 0955 45       		.byte	0x45
 5191 0956 C9080000 		.4byte	0x8c9
 5192 095a 05       		.uleb128 0x5
 5193 095b 03       		.byte	0x3
 5194 095c 00000000 		.4byte	cPower_Set
 5195 0960 1D       		.uleb128 0x1d
 5196 0961 10000000 		.4byte	.LASF138
 5197 0965 07       		.byte	0x7
 5198 0966 46       		.byte	0x46
 5199 0967 C9080000 		.4byte	0x8c9
 5200 096b 05       		.uleb128 0x5
 5201 096c 03       		.byte	0x3
 5202 096d 00000000 		.4byte	cResist_Set
 5203 0971 1D       		.uleb128 0x1d
 5204 0972 A8080000 		.4byte	.LASF139
 5205 0976 07       		.byte	0x7
 5206 0977 48       		.byte	0x48
 5207 0978 C9080000 		.4byte	0x8c9
 5208 097c 05       		.uleb128 0x5
 5209 097d 03       		.byte	0x3
 5210 097e 00000000 		.4byte	TestChar
 5211 0982 1D       		.uleb128 0x1d
 5212 0983 A2020000 		.4byte	.LASF140
 5213 0987 07       		.byte	0x7
 5214 0988 4C       		.byte	0x4c
 5215 0989 D9000000 		.4byte	0xd9
 5216 098d 05       		.uleb128 0x5
 5217 098e 03       		.byte	0x3
 5218 098f 00000000 		.4byte	XPosition
 5219 0993 1D       		.uleb128 0x1d
 5220 0994 A8090000 		.4byte	.LASF141
 5221 0998 07       		.byte	0x7
ARM GAS  C:\Users\KJA\AppData\Local\Temp\ccbnGHAr.s 			page 111


 5222 0999 4D       		.byte	0x4d
 5223 099a C9080000 		.4byte	0x8c9
 5224 099e 05       		.uleb128 0x5
 5225 099f 03       		.byte	0x3
 5226 09a0 00000000 		.4byte	cXPosition
 5227 09a4 1D       		.uleb128 0x1d
 5228 09a5 EF040000 		.4byte	.LASF142
 5229 09a9 07       		.byte	0x7
 5230 09aa 4E       		.byte	0x4e
 5231 09ab D9000000 		.4byte	0xd9
 5232 09af 05       		.uleb128 0x5
 5233 09b0 03       		.byte	0x3
 5234 09b1 00000000 		.4byte	YPosition
 5235 09b5 1D       		.uleb128 0x1d
 5236 09b6 DA030000 		.4byte	.LASF143
 5237 09ba 07       		.byte	0x7
 5238 09bb 4F       		.byte	0x4f
 5239 09bc C9080000 		.4byte	0x8c9
 5240 09c0 05       		.uleb128 0x5
 5241 09c1 03       		.byte	0x3
 5242 09c2 00000000 		.4byte	cYPosition
 5243 09c6 1D       		.uleb128 0x1d
 5244 09c7 A0080000 		.4byte	.LASF144
 5245 09cb 07       		.byte	0x7
 5246 09cc 50       		.byte	0x50
 5247 09cd AD000000 		.4byte	0xad
 5248 09d1 05       		.uleb128 0x5
 5249 09d2 03       		.byte	0x3
 5250 09d3 00000000 		.4byte	Touched
 5251 09d7 1D       		.uleb128 0x1d
 5252 09d8 15070000 		.4byte	.LASF145
 5253 09dc 07       		.byte	0x7
 5254 09dd 52       		.byte	0x52
 5255 09de B8000000 		.4byte	0xb8
 5256 09e2 05       		.uleb128 0x5
 5257 09e3 03       		.byte	0x3
 5258 09e4 00000000 		.4byte	MeasuredVoltage
 5259 09e8 1D       		.uleb128 0x1d
 5260 09e9 EE020000 		.4byte	.LASF146
 5261 09ed 07       		.byte	0x7
 5262 09ee 53       		.byte	0x53
 5263 09ef EF000000 		.4byte	0xef
 5264 09f3 05       		.uleb128 0x5
 5265 09f4 03       		.byte	0x3
 5266 09f5 00000000 		.4byte	fVoltage
 5267 09f9 1D       		.uleb128 0x1d
 5268 09fa 1E050000 		.4byte	.LASF147
 5269 09fe 07       		.byte	0x7
 5270 09ff 54       		.byte	0x54
 5271 0a00 D9000000 		.4byte	0xd9
 5272 0a04 05       		.uleb128 0x5
 5273 0a05 03       		.byte	0x3
 5274 0a06 00000000 		.4byte	MeasuredCurrent
 5275 0a0a 1D       		.uleb128 0x1d
 5276 0a0b A3000000 		.4byte	.LASF148
 5277 0a0f 07       		.byte	0x7
 5278 0a10 55       		.byte	0x55
ARM GAS  C:\Users\KJA\AppData\Local\Temp\ccbnGHAr.s 			page 112


 5279 0a11 EF000000 		.4byte	0xef
 5280 0a15 05       		.uleb128 0x5
 5281 0a16 03       		.byte	0x3
 5282 0a17 00000000 		.4byte	fCurrent
 5283 0a1b 1D       		.uleb128 0x1d
 5284 0a1c 4D000000 		.4byte	.LASF149
 5285 0a20 07       		.byte	0x7
 5286 0a21 56       		.byte	0x56
 5287 0a22 D9000000 		.4byte	0xd9
 5288 0a26 05       		.uleb128 0x5
 5289 0a27 03       		.byte	0x3
 5290 0a28 00000000 		.4byte	Power
 5291 0a2c 1D       		.uleb128 0x1d
 5292 0a2d 9B030000 		.4byte	.LASF150
 5293 0a31 07       		.byte	0x7
 5294 0a32 57       		.byte	0x57
 5295 0a33 EF000000 		.4byte	0xef
 5296 0a37 05       		.uleb128 0x5
 5297 0a38 03       		.byte	0x3
 5298 0a39 00000000 		.4byte	fPower
 5299 0a3d 1D       		.uleb128 0x1d
 5300 0a3e 17060000 		.4byte	.LASF151
 5301 0a42 07       		.byte	0x7
 5302 0a43 58       		.byte	0x58
 5303 0a44 D9000000 		.4byte	0xd9
 5304 0a48 05       		.uleb128 0x5
 5305 0a49 03       		.byte	0x3
 5306 0a4a 00000000 		.4byte	Resist
 5307 0a4e 1D       		.uleb128 0x1d
 5308 0a4f 74040000 		.4byte	.LASF152
 5309 0a53 07       		.byte	0x7
 5310 0a54 59       		.byte	0x59
 5311 0a55 EF000000 		.4byte	0xef
 5312 0a59 05       		.uleb128 0x5
 5313 0a5a 03       		.byte	0x3
 5314 0a5b 00000000 		.4byte	fResist
 5315 0a5f 1D       		.uleb128 0x1d
 5316 0a60 7E090000 		.4byte	.LASF153
 5317 0a64 07       		.byte	0x7
 5318 0a65 5C       		.byte	0x5c
 5319 0a66 EF000000 		.4byte	0xef
 5320 0a6a 05       		.uleb128 0x5
 5321 0a6b 03       		.byte	0x3
 5322 0a6c 00000000 		.4byte	Set_Voltage
 5323 0a70 1D       		.uleb128 0x1d
 5324 0a71 B1080000 		.4byte	.LASF154
 5325 0a75 07       		.byte	0x7
 5326 0a76 5D       		.byte	0x5d
 5327 0a77 EF000000 		.4byte	0xef
 5328 0a7b 05       		.uleb128 0x5
 5329 0a7c 03       		.byte	0x3
 5330 0a7d 00000000 		.4byte	Set_Current
 5331 0a81 1D       		.uleb128 0x1d
 5332 0a82 62060000 		.4byte	.LASF155
 5333 0a86 07       		.byte	0x7
 5334 0a87 5E       		.byte	0x5e
 5335 0a88 EF000000 		.4byte	0xef
ARM GAS  C:\Users\KJA\AppData\Local\Temp\ccbnGHAr.s 			page 113


 5336 0a8c 05       		.uleb128 0x5
 5337 0a8d 03       		.byte	0x3
 5338 0a8e 00000000 		.4byte	Set_Current_Temporary_Value
 5339 0a92 1D       		.uleb128 0x1d
 5340 0a93 CB080000 		.4byte	.LASF156
 5341 0a97 07       		.byte	0x7
 5342 0a98 5F       		.byte	0x5f
 5343 0a99 EF000000 		.4byte	0xef
 5344 0a9d 05       		.uleb128 0x5
 5345 0a9e 03       		.byte	0x3
 5346 0a9f 00000000 		.4byte	Set_Power
 5347 0aa3 1D       		.uleb128 0x1d
 5348 0aa4 81030000 		.4byte	.LASF157
 5349 0aa8 07       		.byte	0x7
 5350 0aa9 60       		.byte	0x60
 5351 0aaa EF000000 		.4byte	0xef
 5352 0aae 05       		.uleb128 0x5
 5353 0aaf 03       		.byte	0x3
 5354 0ab0 00000000 		.4byte	Set_Power_Temporary_Value
 5355 0ab4 1D       		.uleb128 0x1d
 5356 0ab5 53000000 		.4byte	.LASF158
 5357 0ab9 07       		.byte	0x7
 5358 0aba 61       		.byte	0x61
 5359 0abb EF000000 		.4byte	0xef
 5360 0abf 05       		.uleb128 0x5
 5361 0ac0 03       		.byte	0x3
 5362 0ac1 00000000 		.4byte	Set_Resist
 5363 0ac5 1D       		.uleb128 0x1d
 5364 0ac6 F7020000 		.4byte	.LASF159
 5365 0aca 07       		.byte	0x7
 5366 0acb 62       		.byte	0x62
 5367 0acc EF000000 		.4byte	0xef
 5368 0ad0 05       		.uleb128 0x5
 5369 0ad1 03       		.byte	0x3
 5370 0ad2 00000000 		.4byte	Set_Resist_Temporary_Value
 5371 0ad6 1D       		.uleb128 0x1d
 5372 0ad7 A2030000 		.4byte	.LASF160
 5373 0adb 07       		.byte	0x7
 5374 0adc 64       		.byte	0x64
 5375 0add CE000000 		.4byte	0xce
 5376 0ae1 05       		.uleb128 0x5
 5377 0ae2 03       		.byte	0x3
 5378 0ae3 00000000 		.4byte	Position_Number
 5379 0ae7 1D       		.uleb128 0x1d
 5380 0ae8 57030000 		.4byte	.LASF161
 5381 0aec 07       		.byte	0x7
 5382 0aed 68       		.byte	0x68
 5383 0aee EF000000 		.4byte	0xef
 5384 0af2 05       		.uleb128 0x5
 5385 0af3 03       		.byte	0x3
 5386 0af4 00000000 		.4byte	MaxPower
 5387 0af8 1D       		.uleb128 0x1d
 5388 0af9 EC060000 		.4byte	.LASF162
 5389 0afd 07       		.byte	0x7
 5390 0afe 69       		.byte	0x69
 5391 0aff EF000000 		.4byte	0xef
 5392 0b03 05       		.uleb128 0x5
ARM GAS  C:\Users\KJA\AppData\Local\Temp\ccbnGHAr.s 			page 114


 5393 0b04 03       		.byte	0x3
 5394 0b05 00000000 		.4byte	MaxVoltage
 5395 0b09 1D       		.uleb128 0x1d
 5396 0b0a F9040000 		.4byte	.LASF163
 5397 0b0e 07       		.byte	0x7
 5398 0b0f 6A       		.byte	0x6a
 5399 0b10 EF000000 		.4byte	0xef
 5400 0b14 05       		.uleb128 0x5
 5401 0b15 03       		.byte	0x3
 5402 0b16 00000000 		.4byte	MaxCurrent
 5403 0b1a 1D       		.uleb128 0x1d
 5404 0b1b F8030000 		.4byte	.LASF164
 5405 0b1f 07       		.byte	0x7
 5406 0b20 6B       		.byte	0x6b
 5407 0b21 EF000000 		.4byte	0xef
 5408 0b25 05       		.uleb128 0x5
 5409 0b26 03       		.byte	0x3
 5410 0b27 00000000 		.4byte	MinResistance
 5411 0b2b 1D       		.uleb128 0x1d
 5412 0b2c BD080000 		.4byte	.LASF165
 5413 0b30 07       		.byte	0x7
 5414 0b31 6C       		.byte	0x6c
 5415 0b32 EF000000 		.4byte	0xef
 5416 0b36 05       		.uleb128 0x5
 5417 0b37 03       		.byte	0x3
 5418 0b38 00000000 		.4byte	MaxResistance
 5419 0b3c 1D       		.uleb128 0x1d
 5420 0b3d 79090000 		.4byte	.LASF166
 5421 0b41 07       		.byte	0x7
 5422 0b42 6D       		.byte	0x6d
 5423 0b43 EF000000 		.4byte	0xef
 5424 0b47 05       		.uleb128 0x5
 5425 0b48 03       		.byte	0x3
 5426 0b49 00000000 		.4byte	C_Kp
 5427 0b4d 1D       		.uleb128 0x1d
 5428 0b4e 74090000 		.4byte	.LASF167
 5429 0b52 07       		.byte	0x7
 5430 0b53 6E       		.byte	0x6e
 5431 0b54 EF000000 		.4byte	0xef
 5432 0b58 05       		.uleb128 0x5
 5433 0b59 03       		.byte	0x3
 5434 0b5a 00000000 		.4byte	C_Ki
 5435 0b5e 1D       		.uleb128 0x1d
 5436 0b5f 6F090000 		.4byte	.LASF168
 5437 0b63 07       		.byte	0x7
 5438 0b64 6F       		.byte	0x6f
 5439 0b65 EF000000 		.4byte	0xef
 5440 0b69 05       		.uleb128 0x5
 5441 0b6a 03       		.byte	0x3
 5442 0b6b 00000000 		.4byte	C_Kd
 5443 0b6f 1D       		.uleb128 0x1d
 5444 0b70 E2040000 		.4byte	.LASF169
 5445 0b74 07       		.byte	0x7
 5446 0b75 70       		.byte	0x70
 5447 0b76 CE000000 		.4byte	0xce
 5448 0b7a 05       		.uleb128 0x5
 5449 0b7b 03       		.byte	0x3
ARM GAS  C:\Users\KJA\AppData\Local\Temp\ccbnGHAr.s 			page 115


 5450 0b7c 00000000 		.4byte	Max_FET_Temp
 5451 0b80 1D       		.uleb128 0x1d
 5452 0b81 A8070000 		.4byte	.LASF170
 5453 0b85 07       		.byte	0x7
 5454 0b86 71       		.byte	0x71
 5455 0b87 AD000000 		.4byte	0xad
 5456 0b8b 05       		.uleb128 0x5
 5457 0b8c 03       		.byte	0x3
 5458 0b8d 00000000 		.4byte	OverTemperature
 5459 0b91 1D       		.uleb128 0x1d
 5460 0b92 34020000 		.4byte	.LASF171
 5461 0b96 07       		.byte	0x7
 5462 0b97 74       		.byte	0x74
 5463 0b98 D9000000 		.4byte	0xd9
 5464 0b9c 05       		.uleb128 0x5
 5465 0b9d 03       		.byte	0x3
 5466 0b9e 00000000 		.4byte	Set_Ampl
 5467 0ba2 1D       		.uleb128 0x1d
 5468 0ba3 7E070000 		.4byte	.LASF172
 5469 0ba7 07       		.byte	0x7
 5470 0ba8 75       		.byte	0x75
 5471 0ba9 D9000000 		.4byte	0xd9
 5472 0bad 05       		.uleb128 0x5
 5473 0bae 03       		.byte	0x3
 5474 0baf 00000000 		.4byte	Set_Ampl_Temporary_Value
 5475 0bb3 1D       		.uleb128 0x1d
 5476 0bb4 D1030000 		.4byte	.LASF173
 5477 0bb8 07       		.byte	0x7
 5478 0bb9 76       		.byte	0x76
 5479 0bba B8000000 		.4byte	0xb8
 5480 0bbe 05       		.uleb128 0x5
 5481 0bbf 03       		.byte	0x3
 5482 0bc0 00000000 		.4byte	Set_Freq
 5483 0bc4 1D       		.uleb128 0x1d
 5484 0bc5 41010000 		.4byte	.LASF174
 5485 0bc9 07       		.byte	0x7
 5486 0bca 77       		.byte	0x77
 5487 0bcb E4000000 		.4byte	0xe4
 5488 0bcf 05       		.uleb128 0x5
 5489 0bd0 03       		.byte	0x3
 5490 0bd1 00000000 		.4byte	Set_Freq_Temporary_Value
 5491 0bd5 1D       		.uleb128 0x1d
 5492 0bd6 2B040000 		.4byte	.LASF175
 5493 0bda 07       		.byte	0x7
 5494 0bdb 78       		.byte	0x78
 5495 0bdc CE000000 		.4byte	0xce
 5496 0be0 05       		.uleb128 0x5
 5497 0be1 03       		.byte	0x3
 5498 0be2 00000000 		.4byte	Set_Duty
 5499 0be6 1D       		.uleb128 0x1d
 5500 0be7 D2000000 		.4byte	.LASF176
 5501 0beb 07       		.byte	0x7
 5502 0bec 79       		.byte	0x79
 5503 0bed CE000000 		.4byte	0xce
 5504 0bf1 05       		.uleb128 0x5
 5505 0bf2 03       		.byte	0x3
 5506 0bf3 00000000 		.4byte	Set_Duty_Temporary_Value
ARM GAS  C:\Users\KJA\AppData\Local\Temp\ccbnGHAr.s 			page 116


 5507 0bf7 1D       		.uleb128 0x1d
 5508 0bf8 A2060000 		.4byte	.LASF177
 5509 0bfc 07       		.byte	0x7
 5510 0bfd 7A       		.byte	0x7a
 5511 0bfe C9080000 		.4byte	0x8c9
 5512 0c02 05       		.uleb128 0x5
 5513 0c03 03       		.byte	0x3
 5514 0c04 00000000 		.4byte	cSet_Ampl
 5515 0c08 1D       		.uleb128 0x1d
 5516 0c09 C2030000 		.4byte	.LASF178
 5517 0c0d 07       		.byte	0x7
 5518 0c0e 7B       		.byte	0x7b
 5519 0c0f C9080000 		.4byte	0x8c9
 5520 0c13 05       		.uleb128 0x5
 5521 0c14 03       		.byte	0x3
 5522 0c15 00000000 		.4byte	cSet_Freq
 5523 0c19 1D       		.uleb128 0x1d
 5524 0c1a 1C040000 		.4byte	.LASF179
 5525 0c1e 07       		.byte	0x7
 5526 0c1f 7C       		.byte	0x7c
 5527 0c20 C9080000 		.4byte	0x8c9
 5528 0c24 05       		.uleb128 0x5
 5529 0c25 03       		.byte	0x3
 5530 0c26 00000000 		.4byte	cSet_Duty
 5531 0c2a 1D       		.uleb128 0x1d
 5532 0c2b E5030000 		.4byte	.LASF180
 5533 0c2f 07       		.byte	0x7
 5534 0c30 7E       		.byte	0x7e
 5535 0c31 AD000000 		.4byte	0xad
 5536 0c35 05       		.uleb128 0x5
 5537 0c36 03       		.byte	0x3
 5538 0c37 00000000 		.4byte	Current_Edit_Value
 5539 0c3b 1D       		.uleb128 0x1d
 5540 0c3c 140A0000 		.4byte	.LASF181
 5541 0c40 07       		.byte	0x7
 5542 0c41 7F       		.byte	0x7f
 5543 0c42 AD000000 		.4byte	0xad
 5544 0c46 05       		.uleb128 0x5
 5545 0c47 03       		.byte	0x3
 5546 0c48 00000000 		.4byte	Actual_Multiplier_Value
 5547 0c4c 1B       		.uleb128 0x1b
 5548 0c4d FD000000 		.4byte	0xfd
 5549 0c51 5C0C0000 		.4byte	0xc5c
 5550 0c55 1E       		.uleb128 0x1e
 5551 0c56 0F010000 		.4byte	0x10f
 5552 0c5a 1F       		.byte	0x1f
 5553 0c5b 00       		.byte	0
 5554 0c5c 1D       		.uleb128 0x1d
 5555 0c5d 51040000 		.4byte	.LASF182
 5556 0c61 07       		.byte	0x7
 5557 0c62 83       		.byte	0x83
 5558 0c63 4C0C0000 		.4byte	0xc4c
 5559 0c67 05       		.uleb128 0x5
 5560 0c68 03       		.byte	0x3
 5561 0c69 00000000 		.4byte	cCounter
 5562 0c6d 1D       		.uleb128 0x1d
 5563 0c6e 7E060000 		.4byte	.LASF183
ARM GAS  C:\Users\KJA\AppData\Local\Temp\ccbnGHAr.s 			page 117


 5564 0c72 08       		.byte	0x8
 5565 0c73 0D       		.byte	0xd
 5566 0c74 AD000000 		.4byte	0xad
 5567 0c78 05       		.uleb128 0x5
 5568 0c79 03       		.byte	0x3
 5569 0c7a 00000000 		.4byte	deltaT
 5570 0c7e 1D       		.uleb128 0x1d
 5571 0c7f FC080000 		.4byte	.LASF184
 5572 0c83 08       		.byte	0x8
 5573 0c84 0E       		.byte	0xe
 5574 0c85 C3000000 		.4byte	0xc3
 5575 0c89 05       		.uleb128 0x5
 5576 0c8a 03       		.byte	0x3
 5577 0c8b 00000000 		.4byte	Avarage_FET_Temp
 5578 0c8f 1D       		.uleb128 0x1d
 5579 0c90 20030000 		.4byte	.LASF185
 5580 0c94 08       		.byte	0x8
 5581 0c95 0F       		.byte	0xf
 5582 0c96 D9000000 		.4byte	0xd9
 5583 0c9a 05       		.uleb128 0x5
 5584 0c9b 03       		.byte	0x3
 5585 0c9c 00000000 		.4byte	Current_DIE_Temp
 5586 0ca0 1D       		.uleb128 0x1d
 5587 0ca1 B3090000 		.4byte	.LASF186
 5588 0ca5 08       		.byte	0x8
 5589 0ca6 10       		.byte	0x10
 5590 0ca7 FF060000 		.4byte	0x6ff
 5591 0cab 05       		.uleb128 0x5
 5592 0cac 03       		.byte	0x3
 5593 0cad 00000000 		.4byte	Current_DIE_TempString
 5594 0cb1 1D       		.uleb128 0x1d
 5595 0cb2 38080000 		.4byte	.LASF187
 5596 0cb6 08       		.byte	0x8
 5597 0cb7 11       		.byte	0x11
 5598 0cb8 CE000000 		.4byte	0xce
 5599 0cbc 05       		.uleb128 0x5
 5600 0cbd 03       		.byte	0x3
 5601 0cbe 00000000 		.4byte	Current_FET_Temp
 5602 0cc2 1D       		.uleb128 0x1d
 5603 0cc3 C0020000 		.4byte	.LASF188
 5604 0cc7 08       		.byte	0x8
 5605 0cc8 12       		.byte	0x12
 5606 0cc9 FF060000 		.4byte	0x6ff
 5607 0ccd 05       		.uleb128 0x5
 5608 0cce 03       		.byte	0x3
 5609 0ccf 00000000 		.4byte	Current_FET_TempString
 5610 0cd3 00       		.byte	0
 5611              		.section	.debug_abbrev,"",%progbits
 5612              	.Ldebug_abbrev0:
 5613 0000 01       		.uleb128 0x1
 5614 0001 11       		.uleb128 0x11
 5615 0002 01       		.byte	0x1
 5616 0003 25       		.uleb128 0x25
 5617 0004 0E       		.uleb128 0xe
 5618 0005 13       		.uleb128 0x13
 5619 0006 0B       		.uleb128 0xb
 5620 0007 03       		.uleb128 0x3
ARM GAS  C:\Users\KJA\AppData\Local\Temp\ccbnGHAr.s 			page 118


 5621 0008 0E       		.uleb128 0xe
 5622 0009 1B       		.uleb128 0x1b
 5623 000a 0E       		.uleb128 0xe
 5624 000b 55       		.uleb128 0x55
 5625 000c 17       		.uleb128 0x17
 5626 000d 11       		.uleb128 0x11
 5627 000e 01       		.uleb128 0x1
 5628 000f 10       		.uleb128 0x10
 5629 0010 17       		.uleb128 0x17
 5630 0011 00       		.byte	0
 5631 0012 00       		.byte	0
 5632 0013 02       		.uleb128 0x2
 5633 0014 16       		.uleb128 0x16
 5634 0015 00       		.byte	0
 5635 0016 03       		.uleb128 0x3
 5636 0017 0E       		.uleb128 0xe
 5637 0018 3A       		.uleb128 0x3a
 5638 0019 0B       		.uleb128 0xb
 5639 001a 3B       		.uleb128 0x3b
 5640 001b 0B       		.uleb128 0xb
 5641 001c 49       		.uleb128 0x49
 5642 001d 13       		.uleb128 0x13
 5643 001e 00       		.byte	0
 5644 001f 00       		.byte	0
 5645 0020 03       		.uleb128 0x3
 5646 0021 24       		.uleb128 0x24
 5647 0022 00       		.byte	0
 5648 0023 0B       		.uleb128 0xb
 5649 0024 0B       		.uleb128 0xb
 5650 0025 3E       		.uleb128 0x3e
 5651 0026 0B       		.uleb128 0xb
 5652 0027 03       		.uleb128 0x3
 5653 0028 0E       		.uleb128 0xe
 5654 0029 00       		.byte	0
 5655 002a 00       		.byte	0
 5656 002b 04       		.uleb128 0x4
 5657 002c 24       		.uleb128 0x24
 5658 002d 00       		.byte	0
 5659 002e 0B       		.uleb128 0xb
 5660 002f 0B       		.uleb128 0xb
 5661 0030 3E       		.uleb128 0x3e
 5662 0031 0B       		.uleb128 0xb
 5663 0032 03       		.uleb128 0x3
 5664 0033 08       		.uleb128 0x8
 5665 0034 00       		.byte	0
 5666 0035 00       		.byte	0
 5667 0036 05       		.uleb128 0x5
 5668 0037 0F       		.uleb128 0xf
 5669 0038 00       		.byte	0
 5670 0039 0B       		.uleb128 0xb
 5671 003a 0B       		.uleb128 0xb
 5672 003b 00       		.byte	0
 5673 003c 00       		.byte	0
 5674 003d 06       		.uleb128 0x6
 5675 003e 13       		.uleb128 0x13
 5676 003f 01       		.byte	0x1
 5677 0040 03       		.uleb128 0x3
ARM GAS  C:\Users\KJA\AppData\Local\Temp\ccbnGHAr.s 			page 119


 5678 0041 0E       		.uleb128 0xe
 5679 0042 0B       		.uleb128 0xb
 5680 0043 0B       		.uleb128 0xb
 5681 0044 3A       		.uleb128 0x3a
 5682 0045 0B       		.uleb128 0xb
 5683 0046 3B       		.uleb128 0x3b
 5684 0047 05       		.uleb128 0x5
 5685 0048 01       		.uleb128 0x1
 5686 0049 13       		.uleb128 0x13
 5687 004a 00       		.byte	0
 5688 004b 00       		.byte	0
 5689 004c 07       		.uleb128 0x7
 5690 004d 0D       		.uleb128 0xd
 5691 004e 00       		.byte	0
 5692 004f 03       		.uleb128 0x3
 5693 0050 0E       		.uleb128 0xe
 5694 0051 3A       		.uleb128 0x3a
 5695 0052 0B       		.uleb128 0xb
 5696 0053 3B       		.uleb128 0x3b
 5697 0054 05       		.uleb128 0x5
 5698 0055 49       		.uleb128 0x49
 5699 0056 13       		.uleb128 0x13
 5700 0057 38       		.uleb128 0x38
 5701 0058 0B       		.uleb128 0xb
 5702 0059 00       		.byte	0
 5703 005a 00       		.byte	0
 5704 005b 08       		.uleb128 0x8
 5705 005c 0D       		.uleb128 0xd
 5706 005d 00       		.byte	0
 5707 005e 03       		.uleb128 0x3
 5708 005f 08       		.uleb128 0x8
 5709 0060 3A       		.uleb128 0x3a
 5710 0061 0B       		.uleb128 0xb
 5711 0062 3B       		.uleb128 0x3b
 5712 0063 05       		.uleb128 0x5
 5713 0064 49       		.uleb128 0x49
 5714 0065 13       		.uleb128 0x13
 5715 0066 38       		.uleb128 0x38
 5716 0067 0B       		.uleb128 0xb
 5717 0068 00       		.byte	0
 5718 0069 00       		.byte	0
 5719 006a 09       		.uleb128 0x9
 5720 006b 13       		.uleb128 0x13
 5721 006c 01       		.byte	0x1
 5722 006d 03       		.uleb128 0x3
 5723 006e 0E       		.uleb128 0xe
 5724 006f 0B       		.uleb128 0xb
 5725 0070 0B       		.uleb128 0xb
 5726 0071 3A       		.uleb128 0x3a
 5727 0072 0B       		.uleb128 0xb
 5728 0073 3B       		.uleb128 0x3b
 5729 0074 0B       		.uleb128 0xb
 5730 0075 01       		.uleb128 0x1
 5731 0076 13       		.uleb128 0x13
 5732 0077 00       		.byte	0
 5733 0078 00       		.byte	0
 5734 0079 0A       		.uleb128 0xa
ARM GAS  C:\Users\KJA\AppData\Local\Temp\ccbnGHAr.s 			page 120


 5735 007a 0D       		.uleb128 0xd
 5736 007b 00       		.byte	0
 5737 007c 03       		.uleb128 0x3
 5738 007d 0E       		.uleb128 0xe
 5739 007e 3A       		.uleb128 0x3a
 5740 007f 0B       		.uleb128 0xb
 5741 0080 3B       		.uleb128 0x3b
 5742 0081 0B       		.uleb128 0xb
 5743 0082 49       		.uleb128 0x49
 5744 0083 13       		.uleb128 0x13
 5745 0084 38       		.uleb128 0x38
 5746 0085 0B       		.uleb128 0xb
 5747 0086 00       		.byte	0
 5748 0087 00       		.byte	0
 5749 0088 0B       		.uleb128 0xb
 5750 0089 0F       		.uleb128 0xf
 5751 008a 00       		.byte	0
 5752 008b 0B       		.uleb128 0xb
 5753 008c 0B       		.uleb128 0xb
 5754 008d 49       		.uleb128 0x49
 5755 008e 13       		.uleb128 0x13
 5756 008f 00       		.byte	0
 5757 0090 00       		.byte	0
 5758 0091 0C       		.uleb128 0xc
 5759 0092 15       		.uleb128 0x15
 5760 0093 01       		.byte	0x1
 5761 0094 27       		.uleb128 0x27
 5762 0095 19       		.uleb128 0x19
 5763 0096 49       		.uleb128 0x49
 5764 0097 13       		.uleb128 0x13
 5765 0098 01       		.uleb128 0x1
 5766 0099 13       		.uleb128 0x13
 5767 009a 00       		.byte	0
 5768 009b 00       		.byte	0
 5769 009c 0D       		.uleb128 0xd
 5770 009d 05       		.uleb128 0x5
 5771 009e 00       		.byte	0
 5772 009f 49       		.uleb128 0x49
 5773 00a0 13       		.uleb128 0x13
 5774 00a1 00       		.byte	0
 5775 00a2 00       		.byte	0
 5776 00a3 0E       		.uleb128 0xe
 5777 00a4 16       		.uleb128 0x16
 5778 00a5 00       		.byte	0
 5779 00a6 03       		.uleb128 0x3
 5780 00a7 0E       		.uleb128 0xe
 5781 00a8 3A       		.uleb128 0x3a
 5782 00a9 0B       		.uleb128 0xb
 5783 00aa 3B       		.uleb128 0x3b
 5784 00ab 05       		.uleb128 0x5
 5785 00ac 49       		.uleb128 0x49
 5786 00ad 13       		.uleb128 0x13
 5787 00ae 00       		.byte	0
 5788 00af 00       		.byte	0
 5789 00b0 0F       		.uleb128 0xf
 5790 00b1 15       		.uleb128 0x15
 5791 00b2 01       		.byte	0x1
ARM GAS  C:\Users\KJA\AppData\Local\Temp\ccbnGHAr.s 			page 121


 5792 00b3 27       		.uleb128 0x27
 5793 00b4 19       		.uleb128 0x19
 5794 00b5 01       		.uleb128 0x1
 5795 00b6 13       		.uleb128 0x13
 5796 00b7 00       		.byte	0
 5797 00b8 00       		.byte	0
 5798 00b9 10       		.uleb128 0x10
 5799 00ba 26       		.uleb128 0x26
 5800 00bb 00       		.byte	0
 5801 00bc 49       		.uleb128 0x49
 5802 00bd 13       		.uleb128 0x13
 5803 00be 00       		.byte	0
 5804 00bf 00       		.byte	0
 5805 00c0 11       		.uleb128 0x11
 5806 00c1 04       		.uleb128 0x4
 5807 00c2 01       		.byte	0x1
 5808 00c3 03       		.uleb128 0x3
 5809 00c4 0E       		.uleb128 0xe
 5810 00c5 0B       		.uleb128 0xb
 5811 00c6 0B       		.uleb128 0xb
 5812 00c7 3A       		.uleb128 0x3a
 5813 00c8 0B       		.uleb128 0xb
 5814 00c9 3B       		.uleb128 0x3b
 5815 00ca 0B       		.uleb128 0xb
 5816 00cb 01       		.uleb128 0x1
 5817 00cc 13       		.uleb128 0x13
 5818 00cd 00       		.byte	0
 5819 00ce 00       		.byte	0
 5820 00cf 12       		.uleb128 0x12
 5821 00d0 28       		.uleb128 0x28
 5822 00d1 00       		.byte	0
 5823 00d2 03       		.uleb128 0x3
 5824 00d3 0E       		.uleb128 0xe
 5825 00d4 1C       		.uleb128 0x1c
 5826 00d5 0D       		.uleb128 0xd
 5827 00d6 00       		.byte	0
 5828 00d7 00       		.byte	0
 5829 00d8 13       		.uleb128 0x13
 5830 00d9 2E       		.uleb128 0x2e
 5831 00da 01       		.byte	0x1
 5832 00db 3F       		.uleb128 0x3f
 5833 00dc 19       		.uleb128 0x19
 5834 00dd 03       		.uleb128 0x3
 5835 00de 0E       		.uleb128 0xe
 5836 00df 3A       		.uleb128 0x3a
 5837 00e0 0B       		.uleb128 0xb
 5838 00e1 3B       		.uleb128 0x3b
 5839 00e2 0B       		.uleb128 0xb
 5840 00e3 27       		.uleb128 0x27
 5841 00e4 19       		.uleb128 0x19
 5842 00e5 11       		.uleb128 0x11
 5843 00e6 01       		.uleb128 0x1
 5844 00e7 12       		.uleb128 0x12
 5845 00e8 06       		.uleb128 0x6
 5846 00e9 40       		.uleb128 0x40
 5847 00ea 18       		.uleb128 0x18
 5848 00eb 9642     		.uleb128 0x2116
ARM GAS  C:\Users\KJA\AppData\Local\Temp\ccbnGHAr.s 			page 122


 5849 00ed 19       		.uleb128 0x19
 5850 00ee 01       		.uleb128 0x1
 5851 00ef 13       		.uleb128 0x13
 5852 00f0 00       		.byte	0
 5853 00f1 00       		.byte	0
 5854 00f2 14       		.uleb128 0x14
 5855 00f3 05       		.uleb128 0x5
 5856 00f4 00       		.byte	0
 5857 00f5 03       		.uleb128 0x3
 5858 00f6 0E       		.uleb128 0xe
 5859 00f7 3A       		.uleb128 0x3a
 5860 00f8 0B       		.uleb128 0xb
 5861 00f9 3B       		.uleb128 0x3b
 5862 00fa 0B       		.uleb128 0xb
 5863 00fb 49       		.uleb128 0x49
 5864 00fc 13       		.uleb128 0x13
 5865 00fd 02       		.uleb128 0x2
 5866 00fe 18       		.uleb128 0x18
 5867 00ff 00       		.byte	0
 5868 0100 00       		.byte	0
 5869 0101 15       		.uleb128 0x15
 5870 0102 34       		.uleb128 0x34
 5871 0103 00       		.byte	0
 5872 0104 03       		.uleb128 0x3
 5873 0105 0E       		.uleb128 0xe
 5874 0106 3A       		.uleb128 0x3a
 5875 0107 0B       		.uleb128 0xb
 5876 0108 3B       		.uleb128 0x3b
 5877 0109 0B       		.uleb128 0xb
 5878 010a 49       		.uleb128 0x49
 5879 010b 13       		.uleb128 0x13
 5880 010c 02       		.uleb128 0x2
 5881 010d 18       		.uleb128 0x18
 5882 010e 00       		.byte	0
 5883 010f 00       		.byte	0
 5884 0110 16       		.uleb128 0x16
 5885 0111 0B       		.uleb128 0xb
 5886 0112 01       		.byte	0x1
 5887 0113 11       		.uleb128 0x11
 5888 0114 01       		.uleb128 0x1
 5889 0115 12       		.uleb128 0x12
 5890 0116 06       		.uleb128 0x6
 5891 0117 01       		.uleb128 0x1
 5892 0118 13       		.uleb128 0x13
 5893 0119 00       		.byte	0
 5894 011a 00       		.byte	0
 5895 011b 17       		.uleb128 0x17
 5896 011c 34       		.uleb128 0x34
 5897 011d 00       		.byte	0
 5898 011e 03       		.uleb128 0x3
 5899 011f 0E       		.uleb128 0xe
 5900 0120 3A       		.uleb128 0x3a
 5901 0121 0B       		.uleb128 0xb
 5902 0122 3B       		.uleb128 0x3b
 5903 0123 05       		.uleb128 0x5
 5904 0124 49       		.uleb128 0x49
 5905 0125 13       		.uleb128 0x13
ARM GAS  C:\Users\KJA\AppData\Local\Temp\ccbnGHAr.s 			page 123


 5906 0126 02       		.uleb128 0x2
 5907 0127 18       		.uleb128 0x18
 5908 0128 00       		.byte	0
 5909 0129 00       		.byte	0
 5910 012a 18       		.uleb128 0x18
 5911 012b 0B       		.uleb128 0xb
 5912 012c 01       		.byte	0x1
 5913 012d 11       		.uleb128 0x11
 5914 012e 01       		.uleb128 0x1
 5915 012f 12       		.uleb128 0x12
 5916 0130 06       		.uleb128 0x6
 5917 0131 00       		.byte	0
 5918 0132 00       		.byte	0
 5919 0133 19       		.uleb128 0x19
 5920 0134 34       		.uleb128 0x34
 5921 0135 00       		.byte	0
 5922 0136 03       		.uleb128 0x3
 5923 0137 0E       		.uleb128 0xe
 5924 0138 3A       		.uleb128 0x3a
 5925 0139 0B       		.uleb128 0xb
 5926 013a 3B       		.uleb128 0x3b
 5927 013b 05       		.uleb128 0x5
 5928 013c 49       		.uleb128 0x49
 5929 013d 13       		.uleb128 0x13
 5930 013e 3F       		.uleb128 0x3f
 5931 013f 19       		.uleb128 0x19
 5932 0140 3C       		.uleb128 0x3c
 5933 0141 19       		.uleb128 0x19
 5934 0142 00       		.byte	0
 5935 0143 00       		.byte	0
 5936 0144 1A       		.uleb128 0x1a
 5937 0145 35       		.uleb128 0x35
 5938 0146 00       		.byte	0
 5939 0147 49       		.uleb128 0x49
 5940 0148 13       		.uleb128 0x13
 5941 0149 00       		.byte	0
 5942 014a 00       		.byte	0
 5943 014b 1B       		.uleb128 0x1b
 5944 014c 01       		.uleb128 0x1
 5945 014d 01       		.byte	0x1
 5946 014e 49       		.uleb128 0x49
 5947 014f 13       		.uleb128 0x13
 5948 0150 01       		.uleb128 0x1
 5949 0151 13       		.uleb128 0x13
 5950 0152 00       		.byte	0
 5951 0153 00       		.byte	0
 5952 0154 1C       		.uleb128 0x1c
 5953 0155 21       		.uleb128 0x21
 5954 0156 00       		.byte	0
 5955 0157 00       		.byte	0
 5956 0158 00       		.byte	0
 5957 0159 1D       		.uleb128 0x1d
 5958 015a 34       		.uleb128 0x34
 5959 015b 00       		.byte	0
 5960 015c 03       		.uleb128 0x3
 5961 015d 0E       		.uleb128 0xe
 5962 015e 3A       		.uleb128 0x3a
ARM GAS  C:\Users\KJA\AppData\Local\Temp\ccbnGHAr.s 			page 124


 5963 015f 0B       		.uleb128 0xb
 5964 0160 3B       		.uleb128 0x3b
 5965 0161 0B       		.uleb128 0xb
 5966 0162 49       		.uleb128 0x49
 5967 0163 13       		.uleb128 0x13
 5968 0164 3F       		.uleb128 0x3f
 5969 0165 19       		.uleb128 0x19
 5970 0166 02       		.uleb128 0x2
 5971 0167 18       		.uleb128 0x18
 5972 0168 00       		.byte	0
 5973 0169 00       		.byte	0
 5974 016a 1E       		.uleb128 0x1e
 5975 016b 21       		.uleb128 0x21
 5976 016c 00       		.byte	0
 5977 016d 49       		.uleb128 0x49
 5978 016e 13       		.uleb128 0x13
 5979 016f 2F       		.uleb128 0x2f
 5980 0170 0B       		.uleb128 0xb
 5981 0171 00       		.byte	0
 5982 0172 00       		.byte	0
 5983 0173 1F       		.uleb128 0x1f
 5984 0174 34       		.uleb128 0x34
 5985 0175 00       		.byte	0
 5986 0176 03       		.uleb128 0x3
 5987 0177 08       		.uleb128 0x8
 5988 0178 3A       		.uleb128 0x3a
 5989 0179 0B       		.uleb128 0xb
 5990 017a 3B       		.uleb128 0x3b
 5991 017b 0B       		.uleb128 0xb
 5992 017c 49       		.uleb128 0x49
 5993 017d 13       		.uleb128 0x13
 5994 017e 3F       		.uleb128 0x3f
 5995 017f 19       		.uleb128 0x19
 5996 0180 02       		.uleb128 0x2
 5997 0181 18       		.uleb128 0x18
 5998 0182 00       		.byte	0
 5999 0183 00       		.byte	0
 6000 0184 00       		.byte	0
 6001              		.section	.debug_aranges,"",%progbits
 6002 0000 1C000000 		.4byte	0x1c
 6003 0004 0200     		.2byte	0x2
 6004 0006 00000000 		.4byte	.Ldebug_info0
 6005 000a 04       		.byte	0x4
 6006 000b 00       		.byte	0
 6007 000c 0000     		.2byte	0
 6008 000e 0000     		.2byte	0
 6009 0010 00000000 		.4byte	.LFB63
 6010 0014 241C0000 		.4byte	.LFE63-.LFB63
 6011 0018 00000000 		.4byte	0
 6012 001c 00000000 		.4byte	0
 6013              		.section	.debug_ranges,"",%progbits
 6014              	.Ldebug_ranges0:
 6015 0000 00000000 		.4byte	.LFB63
 6016 0004 241C0000 		.4byte	.LFE63
 6017 0008 00000000 		.4byte	0
 6018 000c 00000000 		.4byte	0
 6019              		.section	.debug_line,"",%progbits
ARM GAS  C:\Users\KJA\AppData\Local\Temp\ccbnGHAr.s 			page 125


 6020              	.Ldebug_line0:
 6021 0000 C7060000 		.section	.debug_str,"MS",%progbits,1
 6021      02007B01 
 6021      00000201 
 6021      FB0E0D00 
 6021      01010101 
 6022              	.LASF26:
 6023 0000 7538675F 		.ascii	"u8g_pgm_uint8_t\000"
 6023      70676D5F 
 6023      75696E74 
 6023      385F7400 
 6024              	.LASF138:
 6025 0010 63526573 		.ascii	"cResist_Set\000"
 6025      6973745F 
 6025      53657400 
 6026              	.LASF87:
 6027 001c 4572726F 		.ascii	"Error_NC\000"
 6027      725F4E43 
 6027      00
 6028              	.LASF58:
 6029 0025 6465765F 		.ascii	"dev_mem\000"
 6029      6D656D00 
 6030              	.LASF130:
 6031 002d 45646974 		.ascii	"Edit_Value_Mode\000"
 6031      5F56616C 
 6031      75655F4D 
 6031      6F646500 
 6032              	.LASF47:
 6033 003d 666F6E74 		.ascii	"font_ref_ascent\000"
 6033      5F726566 
 6033      5F617363 
 6033      656E7400 
 6034              	.LASF149:
 6035 004d 506F7765 		.ascii	"Power\000"
 6035      7200
 6036              	.LASF158:
 6037 0053 5365745F 		.ascii	"Set_Resist\000"
 6037      52657369 
 6037      737400
 6038              	.LASF99:
 6039 005e 7538675F 		.ascii	"u8g_font_fub20\000"
 6039      666F6E74 
 6039      5F667562 
 6039      323000
 6040              	.LASF110:
 6041 006d 43757272 		.ascii	"Current_Calibration_Range2\000"
 6041      656E745F 
 6041      43616C69 
 6041      62726174 
 6041      696F6E5F 
 6042              	.LASF111:
 6043 0088 43757272 		.ascii	"Current_Calibration_Range3\000"
 6043      656E745F 
 6043      43616C69 
 6043      62726174 
 6043      696F6E5F 
 6044              	.LASF148:
ARM GAS  C:\Users\KJA\AppData\Local\Temp\ccbnGHAr.s 			page 126


 6045 00a3 66437572 		.ascii	"fCurrent\000"
 6045      72656E74 
 6045      00
 6046              	.LASF11:
 6047 00ac 756E7369 		.ascii	"unsigned int\000"
 6047      676E6564 
 6047      20696E74 
 6047      00
 6048              	.LASF64:
 6049 00b9 68695F63 		.ascii	"hi_color\000"
 6049      6F6C6F72 
 6049      00
 6050              	.LASF131:
 6051 00c2 63566F6C 		.ascii	"cVoltage_Actual\000"
 6051      74616765 
 6051      5F416374 
 6051      75616C00 
 6052              	.LASF176:
 6053 00d2 5365745F 		.ascii	"Set_Duty_Temporary_Value\000"
 6053      44757479 
 6053      5F54656D 
 6053      706F7261 
 6053      72795F56 
 6054              	.LASF89:
 6055 00eb 4572726F 		.ascii	"Error_OC\000"
 6055      725F4F43 
 6055      00
 6056              	.LASF6:
 6057 00f4 5F5F696E 		.ascii	"__int32_t\000"
 6057      7433325F 
 6057      7400
 6058              	.LASF19:
 6059 00fe 696E7431 		.ascii	"int16\000"
 6059      3600
 6060              	.LASF112:
 6061 0104 4C454D5F 		.ascii	"LEM_Offset_Value\000"
 6061      4F666673 
 6061      65745F56 
 6061      616C7565 
 6061      00
 6062              	.LASF88:
 6063 0115 4572726F 		.ascii	"Error_OT\000"
 6063      725F4F54 
 6063      00
 6064              	.LASF86:
 6065 011e 4572726F 		.ascii	"Error_OV\000"
 6065      725F4F56 
 6065      00
 6066              	.LASF34:
 6067 0127 63757273 		.ascii	"cursor_bg_color\000"
 6067      6F725F62 
 6067      675F636F 
 6067      6C6F7200 
 6068              	.LASF51:
 6069 0137 6172675F 		.ascii	"arg_pixel\000"
 6069      70697865 
 6069      6C00
ARM GAS  C:\Users\KJA\AppData\Local\Temp\ccbnGHAr.s 			page 127


 6070              	.LASF174:
 6071 0141 5365745F 		.ascii	"Set_Freq_Temporary_Value\000"
 6071      46726571 
 6071      5F54656D 
 6071      706F7261 
 6071      72795F56 
 6072              	.LASF65:
 6073 015a 626C7565 		.ascii	"blue\000"
 6073      00
 6074              	.LASF59:
 6075 015f 636F6D5F 		.ascii	"com_fn\000"
 6075      666E00
 6076              	.LASF102:
 6077 0166 43757272 		.ascii	"Current_State\000"
 6077      656E745F 
 6077      53746174 
 6077      6500
 6078              	.LASF104:
 6079 0174 536F756E 		.ascii	"Sound_Enable\000"
 6079      645F456E 
 6079      61626C65 
 6079      00
 6080              	.LASF132:
 6081 0181 63437572 		.ascii	"cCurrent_Actual\000"
 6081      72656E74 
 6081      5F416374 
 6081      75616C00 
 6082              	.LASF136:
 6083 0191 63437572 		.ascii	"cCurrent_Set\000"
 6083      72656E74 
 6083      5F536574 
 6083      00
 6084              	.LASF192:
 6085 019e 53746174 		.ascii	"State\000"
 6085      6500
 6086              	.LASF36:
 6087 01a4 6D6F6465 		.ascii	"mode\000"
 6087      00
 6088              	.LASF45:
 6089 01a9 666F6E74 		.ascii	"font_calc_vref\000"
 6089      5F63616C 
 6089      635F7672 
 6089      656600
 6090              	.LASF106:
 6091 01b8 43757272 		.ascii	"CurrentBacklightValueString\000"
 6091      656E7442 
 6091      61636B6C 
 6091      69676874 
 6091      56616C75 
 6092              	.LASF119:
 6093 01d4 4C617374 		.ascii	"Last_qdCount\000"
 6093      5F716443 
 6093      6F756E74 
 6093      00
 6094              	.LASF77:
 6095 01e1 41726269 		.ascii	"ArbitraryMode\000"
 6095      74726172 
ARM GAS  C:\Users\KJA\AppData\Local\Temp\ccbnGHAr.s 			page 128


 6095      794D6F64 
 6095      6500
 6096              	.LASF191:
 6097 01ef 443A5C57 		.ascii	"D:\\Workspace\\PSoC_Creator\\Active_Load\\Active_Lo"
 6097      6F726B73 
 6097      70616365 
 6097      5C50536F 
 6097      435F4372 
 6098 021e 61645F76 		.ascii	"ad_v9.cydsn\000"
 6098      392E6379 
 6098      64736E00 
 6099              	.LASF117:
 6100 022a 56696577 		.ascii	"View_Mode\000"
 6100      5F4D6F64 
 6100      6500
 6101              	.LASF171:
 6102 0234 5365745F 		.ascii	"Set_Ampl\000"
 6102      416D706C 
 6102      00
 6103              	.LASF12:
 6104 023d 696E7438 		.ascii	"int8_t\000"
 6104      5F7400
 6105              	.LASF135:
 6106 0244 63566F6C 		.ascii	"cVoltage_Set\000"
 6106      74616765 
 6106      5F536574 
 6106      00
 6107              	.LASF61:
 6108 0251 5F753867 		.ascii	"_u8g_dev_arg_pixel_t\000"
 6108      5F646576 
 6108      5F617267 
 6108      5F706978 
 6108      656C5F74 
 6109              	.LASF107:
 6110 0266 43757272 		.ascii	"CurrentVolumeValue\000"
 6110      656E7456 
 6110      6F6C756D 
 6110      6556616C 
 6110      756500
 6111              	.LASF21:
 6112 0279 666C6F61 		.ascii	"float\000"
 6112      7400
 6113              	.LASF137:
 6114 027f 63506F77 		.ascii	"cPower_Set\000"
 6114      65725F53 
 6114      657400
 6115              	.LASF20:
 6116 028a 696E7433 		.ascii	"int32\000"
 6116      3200
 6117              	.LASF37:
 6118 0290 63757273 		.ascii	"cursor_x\000"
 6118      6F725F78 
 6118      00
 6119              	.LASF38:
 6120 0299 63757273 		.ascii	"cursor_y\000"
 6120      6F725F79 
 6120      00
ARM GAS  C:\Users\KJA\AppData\Local\Temp\ccbnGHAr.s 			page 129


 6121              	.LASF140:
 6122 02a2 58506F73 		.ascii	"XPosition\000"
 6122      6974696F 
 6122      6E00
 6123              	.LASF126:
 6124 02ac 70757368 		.ascii	"push\000"
 6124      00
 6125              	.LASF103:
 6126 02b1 50726576 		.ascii	"Previous_State\000"
 6126      696F7573 
 6126      5F537461 
 6126      746500
 6127              	.LASF188:
 6128 02c0 43757272 		.ascii	"Current_FET_TempString\000"
 6128      656E745F 
 6128      4645545F 
 6128      54656D70 
 6128      53747269 
 6129              	.LASF10:
 6130 02d7 6C6F6E67 		.ascii	"long long unsigned int\000"
 6130      206C6F6E 
 6130      6720756E 
 6130      7369676E 
 6130      65642069 
 6131              	.LASF146:
 6132 02ee 66566F6C 		.ascii	"fVoltage\000"
 6132      74616765 
 6132      00
 6133              	.LASF159:
 6134 02f7 5365745F 		.ascii	"Set_Resist_Temporary_Value\000"
 6134      52657369 
 6134      73745F54 
 6134      656D706F 
 6134      72617279 
 6135              	.LASF69:
 6136 0312 7538675F 		.ascii	"u8g_dev_fnptr\000"
 6136      6465765F 
 6136      666E7074 
 6136      7200
 6137              	.LASF185:
 6138 0320 43757272 		.ascii	"Current_DIE_Temp\000"
 6138      656E745F 
 6138      4449455F 
 6138      54656D70 
 6138      00
 6139              	.LASF70:
 6140 0331 7538675F 		.ascii	"u8g_com_fnptr\000"
 6140      636F6D5F 
 6140      666E7074 
 6140      7200
 6141              	.LASF85:
 6142 033f 4572726F 		.ascii	"Error_RP\000"
 6142      725F5250 
 6142      00
 6143              	.LASF134:
 6144 0348 63526573 		.ascii	"cResist_Actual\000"
 6144      6973745F 
ARM GAS  C:\Users\KJA\AppData\Local\Temp\ccbnGHAr.s 			page 130


 6144      41637475 
 6144      616C00
 6145              	.LASF161:
 6146 0357 4D617850 		.ascii	"MaxPower\000"
 6146      6F776572 
 6146      00
 6147              	.LASF44:
 6148 0360 676C7970 		.ascii	"glyph_height\000"
 6148      685F6865 
 6148      69676874 
 6148      00
 6149              	.LASF29:
 6150 036d 77696474 		.ascii	"width\000"
 6150      6800
 6151              	.LASF133:
 6152 0373 63506F77 		.ascii	"cPower_Actual\000"
 6152      65725F41 
 6152      63747561 
 6152      6C00
 6153              	.LASF157:
 6154 0381 5365745F 		.ascii	"Set_Power_Temporary_Value\000"
 6154      506F7765 
 6154      725F5465 
 6154      6D706F72 
 6154      6172795F 
 6155              	.LASF150:
 6156 039b 66506F77 		.ascii	"fPower\000"
 6156      657200
 6157              	.LASF160:
 6158 03a2 506F7369 		.ascii	"Position_Number\000"
 6158      74696F6E 
 6158      5F4E756D 
 6158      62657200 
 6159              	.LASF41:
 6160 03b2 676C7970 		.ascii	"glyph_x\000"
 6160      685F7800 
 6161              	.LASF42:
 6162 03ba 676C7970 		.ascii	"glyph_y\000"
 6162      685F7900 
 6163              	.LASF178:
 6164 03c2 63536574 		.ascii	"cSet_Freq\000"
 6164      5F467265 
 6164      7100
 6165              	.LASF75:
 6166 03cc 486F6D65 		.ascii	"Home\000"
 6166      00
 6167              	.LASF173:
 6168 03d1 5365745F 		.ascii	"Set_Freq\000"
 6168      46726571 
 6168      00
 6169              	.LASF143:
 6170 03da 6359506F 		.ascii	"cYPosition\000"
 6170      73697469 
 6170      6F6E00
 6171              	.LASF180:
 6172 03e5 43757272 		.ascii	"Current_Edit_Value\000"
 6172      656E745F 
ARM GAS  C:\Users\KJA\AppData\Local\Temp\ccbnGHAr.s 			page 131


 6172      45646974 
 6172      5F56616C 
 6172      756500
 6173              	.LASF164:
 6174 03f8 4D696E52 		.ascii	"MinResistance\000"
 6174      65736973 
 6174      74616E63 
 6174      6500
 6175              	.LASF94:
 6176 0406 43757272 		.ascii	"Current_Menu_Position\000"
 6176      656E745F 
 6176      4D656E75 
 6176      5F506F73 
 6176      6974696F 
 6177              	.LASF179:
 6178 041c 63536574 		.ascii	"cSet_Duty\000"
 6178      5F447574 
 6178      7900
 6179              	.LASF24:
 6180 0426 63686172 		.ascii	"char\000"
 6180      00
 6181              	.LASF175:
 6182 042b 5365745F 		.ascii	"Set_Duty\000"
 6182      44757479 
 6182      00
 6183              	.LASF193:
 6184 0434 4C43445F 		.ascii	"LCD_Draw\000"
 6184      44726177 
 6184      00
 6185              	.LASF57:
 6186 043d 6465765F 		.ascii	"dev_fn\000"
 6186      666E00
 6187              	.LASF53:
 6188 0444 63757272 		.ascii	"current_page\000"
 6188      656E745F 
 6188      70616765 
 6188      00
 6189              	.LASF182:
 6190 0451 63436F75 		.ascii	"cCounter\000"
 6190      6E746572 
 6190      00
 6191              	.LASF16:
 6192 045a 75696E74 		.ascii	"uint16\000"
 6192      313600
 6193              	.LASF18:
 6194 0461 696E7438 		.ascii	"int8\000"
 6194      00
 6195              	.LASF13:
 6196 0466 75696E74 		.ascii	"uint8_t\000"
 6196      385F7400 
 6197              	.LASF23:
 6198 046e 63686172 		.ascii	"char8\000"
 6198      3800
 6199              	.LASF152:
 6200 0474 66526573 		.ascii	"fResist\000"
 6200      69737400 
 6201              	.LASF101:
ARM GAS  C:\Users\KJA\AppData\Local\Temp\ccbnGHAr.s 			page 132


 6202 047c 7538675F 		.ascii	"u8g_font_unifont\000"
 6202      666F6E74 
 6202      5F756E69 
 6202      666F6E74 
 6202      00
 6203              	.LASF108:
 6204 048d 43757272 		.ascii	"CurrentVolumeValueString\000"
 6204      656E7456 
 6204      6F6C756D 
 6204      6556616C 
 6204      75655374 
 6205              	.LASF68:
 6206 04a6 7538675F 		.ascii	"u8g_uint_t\000"
 6206      75696E74 
 6206      5F7400
 6207              	.LASF67:
 6208 04b1 5F753867 		.ascii	"_u8g_box_t\000"
 6208      5F626F78 
 6208      5F7400
 6209              	.LASF9:
 6210 04bc 6C6F6E67 		.ascii	"long long int\000"
 6210      206C6F6E 
 6210      6720696E 
 6210      7400
 6211              	.LASF33:
 6212 04ca 63757273 		.ascii	"cursor_fg_color\000"
 6212      6F725F66 
 6212      675F636F 
 6212      6C6F7200 
 6213              	.LASF118:
 6214 04da 7164436F 		.ascii	"qdCount\000"
 6214      756E7400 
 6215              	.LASF169:
 6216 04e2 4D61785F 		.ascii	"Max_FET_Temp\000"
 6216      4645545F 
 6216      54656D70 
 6216      00
 6217              	.LASF142:
 6218 04ef 59506F73 		.ascii	"YPosition\000"
 6218      6974696F 
 6218      6E00
 6219              	.LASF163:
 6220 04f9 4D617843 		.ascii	"MaxCurrent\000"
 6220      75727265 
 6220      6E7400
 6221              	.LASF122:
 6222 0504 62757474 		.ascii	"button3\000"
 6222      6F6E3300 
 6223              	.LASF123:
 6224 050c 62757474 		.ascii	"button4\000"
 6224      6F6E3400 
 6225              	.LASF54:
 6226 0514 7538675F 		.ascii	"u8g_dev_t\000"
 6226      6465765F 
 6226      7400
 6227              	.LASF147:
 6228 051e 4D656173 		.ascii	"MeasuredCurrent\000"
ARM GAS  C:\Users\KJA\AppData\Local\Temp\ccbnGHAr.s 			page 133


 6228      75726564 
 6228      43757272 
 6228      656E7400 
 6229              	.LASF125:
 6230 052e 62757474 		.ascii	"button6\000"
 6230      6F6E3600 
 6231              	.LASF93:
 6232 0536 50616765 		.ascii	"PageName\000"
 6232      4E616D65 
 6232      00
 6233              	.LASF73:
 6234 053f 7538675F 		.ascii	"u8g_state_cb\000"
 6234      73746174 
 6234      655F6362 
 6234      00
 6235              	.LASF60:
 6236 054c 7538675F 		.ascii	"u8g_dev_arg_pixel_t\000"
 6236      6465765F 
 6236      6172675F 
 6236      70697865 
 6236      6C5F7400 
 6237              	.LASF189:
 6238 0560 474E5520 		.ascii	"GNU C 4.9.3 20150303 (release) [ARM/embedded-4_9-br"
 6238      4320342E 
 6238      392E3320 
 6238      32303135 
 6238      30333033 
 6239 0593 616E6368 		.ascii	"anch revision 221220] -mcpu=cortex-m3 -mthumb -g -O"
 6239      20726576 
 6239      6973696F 
 6239      6E203232 
 6239      31323230 
 6240 05c6 30202D66 		.ascii	"0 -ffunction-sections -ffat-lto-objects\000"
 6240      66756E63 
 6240      74696F6E 
 6240      2D736563 
 6240      74696F6E 
 6241              	.LASF82:
 6242 05ee 496E666F 		.ascii	"Information\000"
 6242      726D6174 
 6242      696F6E00 
 6243              	.LASF84:
 6244 05fa 436F6E73 		.ascii	"ConstantResistance\000"
 6244      74616E74 
 6244      52657369 
 6244      7374616E 
 6244      636500
 6245              	.LASF95:
 6246 060d 50616765 		.ascii	"PageNamee\000"
 6246      4E616D65 
 6246      6500
 6247              	.LASF151:
 6248 0617 52657369 		.ascii	"Resist\000"
 6248      737400
 6249              	.LASF17:
 6250 061e 75696E74 		.ascii	"uint32\000"
 6250      333200
ARM GAS  C:\Users\KJA\AppData\Local\Temp\ccbnGHAr.s 			page 134


 6251              	.LASF28:
 6252 0625 7538675F 		.ascii	"u8g_t\000"
 6252      7400
 6253              	.LASF190:
 6254 062b 4C43445F 		.ascii	"LCD_Menu.c\000"
 6254      4D656E75 
 6254      2E6300
 6255              	.LASF30:
 6256 0636 68656967 		.ascii	"height\000"
 6256      687400
 6257              	.LASF40:
 6258 063d 676C7970 		.ascii	"glyph_dx\000"
 6258      685F6478 
 6258      00
 6259              	.LASF0:
 6260 0646 5F5F696E 		.ascii	"__int8_t\000"
 6260      74385F74 
 6260      00
 6261              	.LASF91:
 6262 064f 50574D5F 		.ascii	"PWM_Mode\000"
 6262      4D6F6465 
 6262      00
 6263              	.LASF39:
 6264 0658 63757273 		.ascii	"cursor_fn\000"
 6264      6F725F66 
 6264      6E00
 6265              	.LASF155:
 6266 0662 5365745F 		.ascii	"Set_Current_Temporary_Value\000"
 6266      43757272 
 6266      656E745F 
 6266      54656D70 
 6266      6F726172 
 6267              	.LASF183:
 6268 067e 64656C74 		.ascii	"deltaT\000"
 6268      615400
 6269              	.LASF50:
 6270 0685 6C696E65 		.ascii	"line_spacing\000"
 6270      5F737061 
 6270      63696E67 
 6270      00
 6271              	.LASF78:
 6272 0692 436F6E73 		.ascii	"ConstantCurrent\000"
 6272      74616E74 
 6272      43757272 
 6272      656E7400 
 6273              	.LASF177:
 6274 06a2 63536574 		.ascii	"cSet_Ampl\000"
 6274      5F416D70 
 6274      6C00
 6275              	.LASF46:
 6276 06ac 666F6E74 		.ascii	"font_height_mode\000"
 6276      5F686569 
 6276      6768745F 
 6276      6D6F6465 
 6276      00
 6277              	.LASF4:
 6278 06bd 73686F72 		.ascii	"short int\000"
ARM GAS  C:\Users\KJA\AppData\Local\Temp\ccbnGHAr.s 			page 135


 6278      7420696E 
 6278      7400
 6279              	.LASF7:
 6280 06c7 6C6F6E67 		.ascii	"long int\000"
 6280      20696E74 
 6280      00
 6281              	.LASF98:
 6282 06d0 49544D5F 		.ascii	"ITM_RxBuffer\000"
 6282      52784275 
 6282      66666572 
 6282      00
 6283              	.LASF92:
 6284 06dd 45787465 		.ascii	"External_Drive\000"
 6284      726E616C 
 6284      5F447269 
 6284      766500
 6285              	.LASF162:
 6286 06ec 4D617856 		.ascii	"MaxVoltage\000"
 6286      6F6C7461 
 6286      676500
 6287              	.LASF129:
 6288 06f7 526F7461 		.ascii	"Rotate_Buzzer__Default_Lenght\000"
 6288      74655F42 
 6288      757A7A65 
 6288      725F5F44 
 6288      65666175 
 6289              	.LASF145:
 6290 0715 4D656173 		.ascii	"MeasuredVoltage\000"
 6290      75726564 
 6290      566F6C74 
 6290      61676500 
 6291              	.LASF52:
 6292 0725 73746174 		.ascii	"state_cb\000"
 6292      655F6362 
 6292      00
 6293              	.LASF55:
 6294 072e 5F753867 		.ascii	"_u8g_t\000"
 6294      5F7400
 6295              	.LASF63:
 6296 0735 636F6C6F 		.ascii	"color\000"
 6296      7200
 6297              	.LASF120:
 6298 073b 62757474 		.ascii	"button1\000"
 6298      6F6E3100 
 6299              	.LASF121:
 6300 0743 62757474 		.ascii	"button2\000"
 6300      6F6E3200 
 6301              	.LASF35:
 6302 074b 63757273 		.ascii	"cursor_encoding\000"
 6302      6F725F65 
 6302      6E636F64 
 6302      696E6700 
 6303              	.LASF81:
 6304 075b 566F6C75 		.ascii	"VolumeSetting\000"
 6304      6D655365 
 6304      7474696E 
 6304      6700
ARM GAS  C:\Users\KJA\AppData\Local\Temp\ccbnGHAr.s 			page 136


 6305              	.LASF124:
 6306 0769 62757474 		.ascii	"button5\000"
 6306      6F6E3500 
 6307              	.LASF116:
 6308 0771 41637475 		.ascii	"Actual_Range\000"
 6308      616C5F52 
 6308      616E6765 
 6308      00
 6309              	.LASF172:
 6310 077e 5365745F 		.ascii	"Set_Ampl_Temporary_Value\000"
 6310      416D706C 
 6310      5F54656D 
 6310      706F7261 
 6310      72795F56 
 6311              	.LASF48:
 6312 0797 666F6E74 		.ascii	"font_ref_descent\000"
 6312      5F726566 
 6312      5F646573 
 6312      63656E74 
 6312      00
 6313              	.LASF170:
 6314 07a8 4F766572 		.ascii	"OverTemperature\000"
 6314      54656D70 
 6314      65726174 
 6314      75726500 
 6315              	.LASF1:
 6316 07b8 5F5F7569 		.ascii	"__uint8_t\000"
 6316      6E74385F 
 6316      7400
 6317              	.LASF56:
 6318 07c2 5F753867 		.ascii	"_u8g_dev_t\000"
 6318      5F646576 
 6318      5F7400
 6319              	.LASF97:
 6320 07cd 4C6F6361 		.ascii	"LocalMove\000"
 6320      6C4D6F76 
 6320      6500
 6321              	.LASF96:
 6322 07d7 556E6465 		.ascii	"Underline\000"
 6322      726C696E 
 6322      6500
 6323              	.LASF100:
 6324 07e1 7538675F 		.ascii	"u8g_font_unifont_77\000"
 6324      666F6E74 
 6324      5F756E69 
 6324      666F6E74 
 6324      5F373700 
 6325              	.LASF31:
 6326 07f5 666F6E74 		.ascii	"font\000"
 6326      00
 6327              	.LASF25:
 6328 07fa 73697A65 		.ascii	"sizetype\000"
 6328      74797065 
 6328      00
 6329              	.LASF66:
 6330 0803 7538675F 		.ascii	"u8g_box_t\000"
 6330      626F785F 
ARM GAS  C:\Users\KJA\AppData\Local\Temp\ccbnGHAr.s 			page 137


 6330      7400
 6331              	.LASF8:
 6332 080d 6C6F6E67 		.ascii	"long unsigned int\000"
 6332      20756E73 
 6332      69676E65 
 6332      6420696E 
 6332      7400
 6333              	.LASF115:
 6334 081f 466F7572 		.ascii	"Four_Wire_Method\000"
 6334      5F576972 
 6334      655F4D65 
 6334      74686F64 
 6334      00
 6335              	.LASF14:
 6336 0830 696E7433 		.ascii	"int32_t\000"
 6336      325F7400 
 6337              	.LASF187:
 6338 0838 43757272 		.ascii	"Current_FET_Temp\000"
 6338      656E745F 
 6338      4645545F 
 6338      54656D70 
 6338      00
 6339              	.LASF79:
 6340 0849 53657474 		.ascii	"Settings\000"
 6340      696E6773 
 6340      00
 6341              	.LASF27:
 6342 0852 7538675F 		.ascii	"u8g_fntpgm_uint8_t\000"
 6342      666E7470 
 6342      676D5F75 
 6342      696E7438 
 6342      5F7400
 6343              	.LASF49:
 6344 0865 666F6E74 		.ascii	"font_line_spacing_factor\000"
 6344      5F6C696E 
 6344      655F7370 
 6344      6163696E 
 6344      675F6661 
 6345              	.LASF62:
 6346 087e 70697865 		.ascii	"pixel\000"
 6346      6C00
 6347              	.LASF90:
 6348 0884 57617665 		.ascii	"WaveForm_Mode\000"
 6348      466F726D 
 6348      5F4D6F64 
 6348      6500
 6349              	.LASF3:
 6350 0892 756E7369 		.ascii	"unsigned char\000"
 6350      676E6564 
 6350      20636861 
 6350      7200
 6351              	.LASF144:
 6352 08a0 546F7563 		.ascii	"Touched\000"
 6352      68656400 
 6353              	.LASF139:
 6354 08a8 54657374 		.ascii	"TestChar\000"
 6354      43686172 
ARM GAS  C:\Users\KJA\AppData\Local\Temp\ccbnGHAr.s 			page 138


 6354      00
 6355              	.LASF154:
 6356 08b1 5365745F 		.ascii	"Set_Current\000"
 6356      43757272 
 6356      656E7400 
 6357              	.LASF165:
 6358 08bd 4D617852 		.ascii	"MaxResistance\000"
 6358      65736973 
 6358      74616E63 
 6358      6500
 6359              	.LASF156:
 6360 08cb 5365745F 		.ascii	"Set_Power\000"
 6360      506F7765 
 6360      7200
 6361              	.LASF72:
 6362 08d5 7538675F 		.ascii	"u8g_font_calc_vref_fnptr\000"
 6362      666F6E74 
 6362      5F63616C 
 6362      635F7672 
 6362      65665F66 
 6363              	.LASF83:
 6364 08ee 436F6E73 		.ascii	"ConstantPower\000"
 6364      74616E74 
 6364      506F7765 
 6364      7200
 6365              	.LASF184:
 6366 08fc 41766172 		.ascii	"Avarage_FET_Temp\000"
 6366      6167655F 
 6366      4645545F 
 6366      54656D70 
 6366      00
 6367              	.LASF127:
 6368 090d 4F757470 		.ascii	"OutputEnable\000"
 6368      7574456E 
 6368      61626C65 
 6368      00
 6369              	.LASF43:
 6370 091a 676C7970 		.ascii	"glyph_width\000"
 6370      685F7769 
 6370      64746800 
 6371              	.LASF32:
 6372 0926 63757273 		.ascii	"cursor_font\000"
 6372      6F725F66 
 6372      6F6E7400 
 6373              	.LASF105:
 6374 0932 43757272 		.ascii	"CurrentBacklightValue\000"
 6374      656E7442 
 6374      61636B6C 
 6374      69676874 
 6374      56616C75 
 6375              	.LASF74:
 6376 0948 44657665 		.ascii	"Develop\000"
 6376      6C6F7000 
 6377              	.LASF2:
 6378 0950 7369676E 		.ascii	"signed char\000"
 6378      65642063 
 6378      68617200 
ARM GAS  C:\Users\KJA\AppData\Local\Temp\ccbnGHAr.s 			page 139


 6379              	.LASF5:
 6380 095c 73686F72 		.ascii	"short unsigned int\000"
 6380      7420756E 
 6380      7369676E 
 6380      65642069 
 6380      6E7400
 6381              	.LASF168:
 6382 096f 435F4B64 		.ascii	"C_Kd\000"
 6382      00
 6383              	.LASF167:
 6384 0974 435F4B69 		.ascii	"C_Ki\000"
 6384      00
 6385              	.LASF166:
 6386 0979 435F4B70 		.ascii	"C_Kp\000"
 6386      00
 6387              	.LASF153:
 6388 097e 5365745F 		.ascii	"Set_Voltage\000"
 6388      566F6C74 
 6388      61676500 
 6389              	.LASF80:
 6390 098a 4261636B 		.ascii	"BacklightSetting\000"
 6390      6C696768 
 6390      74536574 
 6390      74696E67 
 6390      00
 6391              	.LASF15:
 6392 099b 75696E74 		.ascii	"uint8\000"
 6392      3800
 6393              	.LASF22:
 6394 09a1 646F7562 		.ascii	"double\000"
 6394      6C6500
 6395              	.LASF141:
 6396 09a8 6358506F 		.ascii	"cXPosition\000"
 6396      73697469 
 6396      6F6E00
 6397              	.LASF186:
 6398 09b3 43757272 		.ascii	"Current_DIE_TempString\000"
 6398      656E745F 
 6398      4449455F 
 6398      54656D70 
 6398      53747269 
 6399              	.LASF71:
 6400 09ca 7538675F 		.ascii	"u8g_draw_cursor_fn\000"
 6400      64726177 
 6400      5F637572 
 6400      736F725F 
 6400      666E00
 6401              	.LASF76:
 6402 09dd 436F6E73 		.ascii	"ConstantMode\000"
 6402      74616E74 
 6402      4D6F6465 
 6402      00
 6403              	.LASF109:
 6404 09ea 43757272 		.ascii	"Current_Calibration_Range1\000"
 6404      656E745F 
 6404      43616C69 
 6404      62726174 
ARM GAS  C:\Users\KJA\AppData\Local\Temp\ccbnGHAr.s 			page 140


 6404      696F6E5F 
 6405              	.LASF113:
 6406 0a05 54776F5F 		.ascii	"Two_Wire_Range\000"
 6406      57697265 
 6406      5F52616E 
 6406      676500
 6407              	.LASF181:
 6408 0a14 41637475 		.ascii	"Actual_Multiplier_Value\000"
 6408      616C5F4D 
 6408      756C7469 
 6408      706C6965 
 6408      725F5661 
 6409              	.LASF114:
 6410 0a2c 466F7572 		.ascii	"Four_Wire_Range\000"
 6410      5F576972 
 6410      655F5261 
 6410      6E676500 
 6411              	.LASF128:
 6412 0a3c 50757368 		.ascii	"Push_Buzzer__Default_Lenght\000"
 6412      5F42757A 
 6412      7A65725F 
 6412      5F446566 
 6412      61756C74 
 6413              		.ident	"GCC: (GNU Tools for ARM Embedded Processors) 4.9.3 20150303 (release) [ARM/embedded-4_9-br
