ARM GAS  C:\Users\Shiguruy\AppData\Local\Temp\ccXfZjiw.s 			page 1


   1              		.syntax unified
   2              		.cpu cortex-m3
   3              		.fpu softvfp
   4              		.eabi_attribute 20, 1
   5              		.eabi_attribute 21, 1
   6              		.eabi_attribute 23, 3
   7              		.eabi_attribute 24, 1
   8              		.eabi_attribute 25, 1
   9              		.eabi_attribute 26, 1
  10              		.eabi_attribute 30, 6
  11              		.eabi_attribute 34, 1
  12              		.eabi_attribute 18, 4
  13              		.thumb
  14              		.file	"main.c"
  15              		.text
  16              	.Ltext0:
  17              		.cfi_sections	.debug_frame
  18              		.global _printf_float
  19              		.thumb
  20              		.comm	filtered_count,1,1
  21              		.global	i
  22              		.data
  23              		.type	i, %object
  24              		.size	i, 1
  25              	i:
  26 0000 01       		.byte	1
  27              		.global	j
  28              		.bss
  29              		.type	j, %object
  30              		.size	j, 1
  31              	j:
  32 0000 00       		.space	1
  33              		.comm	k,1,1
  34              		.comm	number,5,4
  35              		.comm	number2,5,4
  36              		.comm	number3,5,4
  37              		.comm	button1,1,1
  38              		.comm	button2,1,1
  39              		.comm	button3,1,1
  40              		.comm	push,1,1
  41              		.global	OutputEnable
  42              		.type	OutputEnable, %object
  43              		.size	OutputEnable, 1
  44              	OutputEnable:
  45 0001 00       		.space	1
  46              		.global	OutputSelect
  47              		.type	OutputSelect, %object
  48              		.size	OutputSelect, 1
  49              	OutputSelect:
  50 0002 00       		.space	1
  51              		.global	WaveSelect
  52              		.type	WaveSelect, %object
  53              		.size	WaveSelect, 1
  54              	WaveSelect:
  55 0003 00       		.space	1
  56              		.global	DutyCycle
  57              		.type	DutyCycle, %object
ARM GAS  C:\Users\Shiguruy\AppData\Local\Temp\ccXfZjiw.s 			page 2


  58              		.size	DutyCycle, 1
  59              	DutyCycle:
  60 0004 00       		.space	1
  61              		.global	Frequency
  62              		.type	Frequency, %object
  63              		.size	Frequency, 1
  64              	Frequency:
  65 0005 00       		.space	1
  66              		.global	CurrentBacklightValue
  67              		.type	CurrentBacklightValue, %object
  68              		.size	CurrentBacklightValue, 1
  69              	CurrentBacklightValue:
  70 0006 00       		.space	1
  71              		.comm	CurrentBacklightValueString,8,4
  72              		.global	Test
  73              		.data
  74 0001 000000   		.align	2
  75              		.type	Test, %object
  76              		.size	Test, 8
  77              	Test:
  78 0004 54455354 		.ascii	"TEST\000"
  78      00
  79 0009 000000   		.space	3
  80              		.global	LCD_Page
  81              		.bss
  82              		.type	LCD_Page, %object
  83              		.size	LCD_Page, 1
  84              	LCD_Page:
  85 0007 00       		.space	1
  86              		.comm	Status,4,4
  87              		.global	DIE_Temp
  88              		.align	1
  89              		.type	DIE_Temp, %object
  90              		.size	DIE_Temp, 2
  91              	DIE_Temp:
  92 0008 0000     		.space	2
  93              		.global	FET_Temp
  94              		.type	FET_Temp, %object
  95              		.size	FET_Temp, 1
  96              	FET_Temp:
  97 000a 00       		.space	1
  98              		.global	Power
  99 000b 00       		.align	1
 100              		.type	Power, %object
 101              		.size	Power, 2
 102              	Power:
 103 000c 0000     		.space	2
 104              		.comm	fPower,4,4
 105              		.comm	cPower,16,4
 106              		.global	Voltage
 107              		.align	1
 108              		.type	Voltage, %object
 109              		.size	Voltage, 2
 110              	Voltage:
 111 000e 0000     		.space	2
 112              		.comm	fVoltage,4,4
 113              		.comm	cVoltage,16,4
ARM GAS  C:\Users\Shiguruy\AppData\Local\Temp\ccXfZjiw.s 			page 3


 114              		.global	Current
 115              		.align	1
 116              		.type	Current, %object
 117              		.size	Current, 2
 118              	Current:
 119 0010 0000     		.space	2
 120              		.comm	fCurrent,4,4
 121              		.comm	cCurrent,16,4
 122              		.global	DACValue
 123              		.type	DACValue, %object
 124              		.size	DACValue, 1
 125              	DACValue:
 126 0012 00       		.space	1
 127              		.global	DACValueOld
 128              		.type	DACValueOld, %object
 129              		.size	DACValueOld, 1
 130              	DACValueOld:
 131 0013 00       		.space	1
 132              		.global	qdCount
 133              		.align	1
 134              		.type	qdCount, %object
 135              		.size	qdCount, 2
 136              	qdCount:
 137 0014 0000     		.space	2
 138              		.global	Last_qdCount
 139              		.align	1
 140              		.type	Last_qdCount, %object
 141              		.size	Last_qdCount, 2
 142              	Last_qdCount:
 143 0016 0000     		.space	2
 144              		.global	Current_Menu_Position
 145              		.type	Current_Menu_Position, %object
 146              		.size	Current_Menu_Position, 1
 147              	Current_Menu_Position:
 148 0018 00       		.space	1
 149              		.global	Current_State
 150              		.type	Current_State, %object
 151              		.size	Current_State, 1
 152              	Current_State:
 153 0019 00       		.space	1
 154              		.comm	u8g,60,4
 155              		.global	__aeabi_fmul
 156              		.global	__aeabi_f2d
 157              		.section	.rodata
 158              		.align	2
 159              	.LC0:
 160 0000 25322E33 		.ascii	"%2.3f\000"
 160      6600
 161 0006 0000     		.align	2
 162              	.LC1:
 163 0008 25332E33 		.ascii	"%3.3f\000"
 163      6600
 164              		.section	.text.main,"ax",%progbits
 165              		.align	2
 166              		.global	main
 167              		.thumb
 168              		.thumb_func
ARM GAS  C:\Users\Shiguruy\AppData\Local\Temp\ccXfZjiw.s 			page 4


 169              		.type	main, %function
 170              	main:
 171              	.LFB63:
 172              		.file 1 ".\\main.c"
   1:.\main.c      **** 
   2:.\main.c      **** // 06/01/2015 18V, 2.7A, 50W, 92C
   3:.\main.c      **** 
   4:.\main.c      **** #include <device.h>
   5:.\main.c      **** #include <stdio.h>
   6:.\main.c      **** #include "u8g_arm.h"
   7:.\main.c      **** 
   8:.\main.c      **** #if defined (__GNUC__)
   9:.\main.c      ****     /* Add an explicit reference to the floating point printf library */
  10:.\main.c      ****     /* to allow the usage of floating point conversion specifiers. */
  11:.\main.c      ****     /* This is not linked in by default with the newlib-nano library. */
  12:.\main.c      ****     asm (".global _printf_float");
  13:.\main.c      **** #endif
  14:.\main.c      **** 
  15:.\main.c      **** #define I2C_SLAVE_ADDRESS    0x48
  16:.\main.c      **** 
  17:.\main.c      **** 
  18:.\main.c      **** extern uint8 const CYCODE LCD_customFonts[];
  19:.\main.c      **** 
  20:.\main.c      **** 
  21:.\main.c      **** uint8 filtered_count; /* # of filtered transitions of input pin 'SW' */
  22:.\main.c      **** 
  23:.\main.c      **** 
  24:.\main.c      **** 
  25:.\main.c      **** 
  26:.\main.c      **** uint8 i = 1u;
  27:.\main.c      **** uint8 j = 0u;
  28:.\main.c      **** uint8 k;
  29:.\main.c      **** char8 number[5u];
  30:.\main.c      **** char8 number2[5u];
  31:.\main.c      **** char8 number3 [5u];
  32:.\main.c      **** 
  33:.\main.c      **** uint8 button1, button2, button3, push;
  34:.\main.c      **** 
  35:.\main.c      **** uint8 OutputEnable = 0;
  36:.\main.c      **** uint8 OutputSelect = 0;
  37:.\main.c      **** uint8 WaveSelect = 0;
  38:.\main.c      **** 
  39:.\main.c      **** uint8 DutyCycle = 0;
  40:.\main.c      **** uint8 Frequency = 0;   
  41:.\main.c      **** 
  42:.\main.c      **** uint8 CurrentBacklightValue = 0;
  43:.\main.c      **** char8 CurrentBacklightValueString[8u];
  44:.\main.c      **** char8 Test[8u] = "TEST";
  45:.\main.c      **** 
  46:.\main.c      **** 
  47:.\main.c      **** uint8 LCD_Page = 0;
  48:.\main.c      **** 
  49:.\main.c      **** cystatus Status;
  50:.\main.c      **** int16 DIE_Temp = 0;
  51:.\main.c      **** int8  FET_Temp = 0;
  52:.\main.c      **** 
  53:.\main.c      **** int16 Power = 0;
ARM GAS  C:\Users\Shiguruy\AppData\Local\Temp\ccXfZjiw.s 			page 5


  54:.\main.c      **** float fPower;
  55:.\main.c      **** char8 cPower[16u];
  56:.\main.c      **** 
  57:.\main.c      **** uint16 Voltage = 0;
  58:.\main.c      **** float fVoltage;
  59:.\main.c      **** char8 cVoltage[16u];
  60:.\main.c      **** 
  61:.\main.c      **** int16 Current = 0;
  62:.\main.c      **** float fCurrent;
  63:.\main.c      **** char8 cCurrent[16u];
  64:.\main.c      **** 
  65:.\main.c      **** uint8 DACValue = 0;
  66:.\main.c      **** uint8 DACValueOld = 0;
  67:.\main.c      **** 
  68:.\main.c      **** void LCD_Update(void);
  69:.\main.c      **** void Check_Buttons(void);
  70:.\main.c      **** void Initialize(void);
  71:.\main.c      **** void TempRead(void);
  72:.\main.c      **** 
  73:.\main.c      **** 
  74:.\main.c      **** uint16 qdCount = 0;    // Current Encoder Value
  75:.\main.c      **** uint16 Last_qdCount = 0;    // Last Encoder Value
  76:.\main.c      **** 
  77:.\main.c      **** 
  78:.\main.c      **** uint8 Current_Menu_Position = 0; // Selected Position in Current Menu
  79:.\main.c      **** 
  80:.\main.c      **** void LCD_Draw(uint8 PageName, uint8 Current_Menu_Position);
  81:.\main.c      **** enum State {Home, ConstantMode, ArbitraryMode, ConstantCurrent, Settings, BacklightSetting};
  82:.\main.c      **** 
  83:.\main.c      **** enum State Current_State = Home;
  84:.\main.c      **** 
  85:.\main.c      **** uint16 Get_Encoder(uint16 maxValue);
  86:.\main.c      **** uint16 Get_Encoder_Menu(uint16 maxValue);
  87:.\main.c      **** 
  88:.\main.c      **** void State_Machine();
  89:.\main.c      **** void State_Machine_Home();
  90:.\main.c      **** void State_Machine_Settings();
  91:.\main.c      **** void State_Machine_BacklightSetting();
  92:.\main.c      **** void State_Machine_ConstantMode();
  93:.\main.c      **** void State_Machine_ArbitraryMode();
  94:.\main.c      **** void State_Machine_ConstantCurrent();  
  95:.\main.c      **** 
  96:.\main.c      **** 
  97:.\main.c      **** 
  98:.\main.c      **** void SetBacklight(uint8 BacklightValue);
  99:.\main.c      **** 
 100:.\main.c      **** 
 101:.\main.c      **** u8g_t u8g;
 102:.\main.c      **** 
 103:.\main.c      **** 
 104:.\main.c      **** 
 105:.\main.c      **** int main()
 106:.\main.c      **** {
 173              		.loc 1 106 0
 174              		.cfi_startproc
 175              		@ args = 0, pretend = 0, frame = 8
 176              		@ frame_needed = 1, uses_anonymous_args = 0
ARM GAS  C:\Users\Shiguruy\AppData\Local\Temp\ccXfZjiw.s 			page 6


 177 0000 80B5     		push	{r7, lr}
 178              		.cfi_def_cfa_offset 8
 179              		.cfi_offset 7, -8
 180              		.cfi_offset 14, -4
 181 0002 82B0     		sub	sp, sp, #8
 182              		.cfi_def_cfa_offset 16
 183 0004 00AF     		add	r7, sp, #0
 184              		.cfi_def_cfa_register 7
 107:.\main.c      ****       uint8_t pos = 0;
 185              		.loc 1 107 0
 186 0006 0023     		movs	r3, #0
 187 0008 FB71     		strb	r3, [r7, #7]
 108:.\main.c      ****   /*
 109:.\main.c      ****     Please uncomment one of the displays below
 110:.\main.c      ****     Notes:
 111:.\main.c      ****       - "2x", "4x": high speed version, which uses more RAM
 112:.\main.c      ****       - "hw_spi": All hardware SPI devices can be used with software SPI also.
 113:.\main.c      **** 	Access type is defined by u8g_com_hw_spi_fn
 114:.\main.c      ****   */
 115:.\main.c      **** 
 116:.\main.c      **** //   u8g_InitComFn(&u8g, &u8g_dev_uc1601_c128032_hw_spi, u8g_com_hw_spi_fn);
 117:.\main.c      ****   // u8g_InitComFn(&u8g, &u8g_dev_uc1601_c128032_2x_hw_spi, u8g_com_hw_spi_fn);
 118:.\main.c      ****   // u8g_InitComFn(&u8g, &u8g_dev_st7565_dogm132_hw_spi, u8g_com_hw_spi_fn);
 119:.\main.c      ****    u8g_InitComFn(&u8g, &u8g_dev_st7565_dogm128_hw_spi, u8g_com_hw_spi_fn);
 188              		.loc 1 119 0
 189 000a 5148     		ldr	r0, .L9
 190 000c 5149     		ldr	r1, .L9+4
 191 000e 524A     		ldr	r2, .L9+8
 192 0010 FFF7FEFF 		bl	u8g_InitComFn
 120:.\main.c      ****   // u8g_InitComFn(&u8g, &u8g_dev_st7565_dogm128_2x_hw_spi, u8g_com_hw_spi_fn);
 121:.\main.c      ****   // u8g_InitComFn(&u8g, &u8g_dev_st7565_lm6059_hw_spi, u8g_com_hw_spi_fn);
 122:.\main.c      ****   // u8g_InitComFn(&u8g, &u8g_dev_st7565_lm6059_2x_hw_spi, u8g_com_hw_spi_fn);
 123:.\main.c      ****   // u8g_InitComFn(&u8g, &u8g_dev_st7565_lm6063_hw_spi, u8g_com_hw_spi_fn);
 124:.\main.c      ****   // u8g_InitComFn(&u8g, &u8g_dev_st7565_lm6063_2x_hw_spi, u8g_com_hw_spi_fn);
 125:.\main.c      ****   // u8g_InitComFn(&u8g, &u8g_dev_st7565_nhd_c12864_hw_spi, u8g_com_hw_spi_fn);
 126:.\main.c      ****   // u8g_InitComFn(&u8g, &u8g_dev_st7565_nhd_c12864_2x_hw_spi, u8g_com_hw_spi_fn);
 127:.\main.c      ****   // u8g_InitComFn(&u8g, &u8g_dev_st7565_nhd_c12832_hw_spi, u8g_com_hw_spi_fn);
 128:.\main.c      **** //   u8g_InitComFn(&u8g, &u8g_dev_st7565_64128n_hw_spi, u8g_com_hw_spi_fn);
 129:.\main.c      ****   // u8g_InitComFn(&u8g, &u8g_dev_st7565_64128n_2x_hw_spi, u8g_com_hw_spi_fn);
 130:.\main.c      ****     
 131:.\main.c      ****     
 132:.\main.c      ****     Initialize();
 193              		.loc 1 132 0
 194 0014 FFF7FEFF 		bl	Initialize
 133:.\main.c      ****     
 134:.\main.c      ****   //  LCD_WriteControl(LCD_CURSOR_BLINK);
 135:.\main.c      ****      Clock_QD_1_Start();
 195              		.loc 1 135 0
 196 0018 FFF7FEFF 		bl	Clock_QD_1_Start
 136:.\main.c      ****      AMux_1_Select(2);
 197              		.loc 1 136 0
 198 001c 0220     		movs	r0, #2
 199 001e FFF7FEFF 		bl	AMux_1_Select
 137:.\main.c      ****     
 138:.\main.c      ****     u8g_SetContrast(&u8g,55); // Ustawienie kontrastu
 200              		.loc 1 138 0
 201 0022 4B48     		ldr	r0, .L9
ARM GAS  C:\Users\Shiguruy\AppData\Local\Temp\ccXfZjiw.s 			page 7


 202 0024 3721     		movs	r1, #55
 203 0026 FFF7FEFF 		bl	u8g_SetContrast
 139:.\main.c      ****     LCD_Draw(Home, 0);
 204              		.loc 1 139 0
 205 002a 0020     		movs	r0, #0
 206 002c 0021     		movs	r1, #0
 207 002e FFF7FEFF 		bl	LCD_Draw
 208              	.L8:
 140:.\main.c      ****     
 141:.\main.c      ****     for(;;)
 142:.\main.c      ****     {
 143:.\main.c      ****         Check_Buttons();
 209              		.loc 1 143 0
 210 0032 FFF7FEFF 		bl	Check_Buttons
 144:.\main.c      ****         State_Machine();
 211              		.loc 1 144 0
 212 0036 FFF7FEFF 		bl	State_Machine
 145:.\main.c      **** //                u8g_DrawLine(&u8g, 64, 32, 128, 0);
 146:.\main.c      **** //                u8g_DrawFrame(&u8g, 55,3,30,15);
 147:.\main.c      ****        
 148:.\main.c      ****         Status = DieTemp_GetTemp(&DIE_Temp);
 213              		.loc 1 148 0
 214 003a 4848     		ldr	r0, .L9+12
 215 003c FFF7FEFF 		bl	DieTemp_GetTemp
 216 0040 0246     		mov	r2, r0
 217 0042 474B     		ldr	r3, .L9+16
 218 0044 1A60     		str	r2, [r3]
 149:.\main.c      **** 
 150:.\main.c      ****                 
 151:.\main.c      ****         DACValue = qdCount;
 219              		.loc 1 151 0
 220 0046 474B     		ldr	r3, .L9+20
 221 0048 1B88     		ldrh	r3, [r3]
 222 004a DAB2     		uxtb	r2, r3
 223 004c 464B     		ldr	r3, .L9+24
 224 004e 1A70     		strb	r2, [r3]
 152:.\main.c      ****         
 153:.\main.c      ****         if(OutputEnable ==1){
 225              		.loc 1 153 0
 226 0050 464B     		ldr	r3, .L9+28
 227 0052 1B78     		ldrb	r3, [r3]	@ zero_extendqisi2
 228 0054 012B     		cmp	r3, #1
 229 0056 1CD1     		bne	.L2
 154:.\main.c      ****             if(OutputSelect == 0){
 230              		.loc 1 154 0
 231 0058 454B     		ldr	r3, .L9+32
 232 005a 1B78     		ldrb	r3, [r3]	@ zero_extendqisi2
 233 005c 002B     		cmp	r3, #0
 234 005e 02D1     		bne	.L3
 155:.\main.c      ****                 AMux_1_Select(2);
 235              		.loc 1 155 0
 236 0060 0220     		movs	r0, #2
 237 0062 FFF7FEFF 		bl	AMux_1_Select
 238              	.L3:
 156:.\main.c      ****             }
 157:.\main.c      ****             if(OutputSelect == 1){
 239              		.loc 1 157 0
ARM GAS  C:\Users\Shiguruy\AppData\Local\Temp\ccXfZjiw.s 			page 8


 240 0066 424B     		ldr	r3, .L9+32
 241 0068 1B78     		ldrb	r3, [r3]	@ zero_extendqisi2
 242 006a 012B     		cmp	r3, #1
 243 006c 14D1     		bne	.L7
 158:.\main.c      ****                 if(WaveSelect == 0){
 244              		.loc 1 158 0
 245 006e 414B     		ldr	r3, .L9+36
 246 0070 1B78     		ldrb	r3, [r3]	@ zero_extendqisi2
 247 0072 002B     		cmp	r3, #0
 248 0074 02D1     		bne	.L5
 159:.\main.c      ****                     Wave_Reg_Write(0);
 249              		.loc 1 159 0
 250 0076 0020     		movs	r0, #0
 251 0078 FFF7FEFF 		bl	Wave_Reg_Write
 252              	.L5:
 160:.\main.c      ****                 }
 161:.\main.c      ****                 if(WaveSelect == 1){
 253              		.loc 1 161 0
 254 007c 3D4B     		ldr	r3, .L9+36
 255 007e 1B78     		ldrb	r3, [r3]	@ zero_extendqisi2
 256 0080 012B     		cmp	r3, #1
 257 0082 02D1     		bne	.L6
 162:.\main.c      ****                     Wave_Reg_Write(1);
 258              		.loc 1 162 0
 259 0084 0120     		movs	r0, #1
 260 0086 FFF7FEFF 		bl	Wave_Reg_Write
 261              	.L6:
 163:.\main.c      ****                 }
 164:.\main.c      ****                 AMux_1_Select(1);
 262              		.loc 1 164 0
 263 008a 0120     		movs	r0, #1
 264 008c FFF7FEFF 		bl	AMux_1_Select
 265 0090 02E0     		b	.L7
 266              	.L2:
 165:.\main.c      ****             }
 166:.\main.c      ****             
 167:.\main.c      ****         }
 168:.\main.c      ****         else{
 169:.\main.c      ****             AMux_1_Select(0);
 267              		.loc 1 169 0
 268 0092 0020     		movs	r0, #0
 269 0094 FFF7FEFF 		bl	AMux_1_Select
 270              	.L7:
 170:.\main.c      ****         }
 171:.\main.c      ****         
 172:.\main.c      ****         Voltage = ADC_SAR_1_GetResult16();   
 271              		.loc 1 172 0
 272 0098 FFF7FEFF 		bl	ADC_SAR_1_GetResult16
 273 009c 0346     		mov	r3, r0
 274 009e 9AB2     		uxth	r2, r3
 275 00a0 354B     		ldr	r3, .L9+40
 276 00a2 1A80     		strh	r2, [r3]	@ movhi
 173:.\main.c      ****         fVoltage = 10*ADC_SAR_1_CountsTo_Volts(Voltage);
 277              		.loc 1 173 0
 278 00a4 344B     		ldr	r3, .L9+40
 279 00a6 1B88     		ldrh	r3, [r3]
 280 00a8 9BB2     		uxth	r3, r3
ARM GAS  C:\Users\Shiguruy\AppData\Local\Temp\ccXfZjiw.s 			page 9


 281 00aa 1BB2     		sxth	r3, r3
 282 00ac 1846     		mov	r0, r3
 283 00ae FFF7FEFF 		bl	ADC_SAR_1_CountsTo_Volts
 284 00b2 0346     		mov	r3, r0
 285 00b4 1846     		mov	r0, r3
 286 00b6 3149     		ldr	r1, .L9+44
 287 00b8 FFF7FEFF 		bl	__aeabi_fmul
 288 00bc 0346     		mov	r3, r0
 289 00be 1A46     		mov	r2, r3
 290 00c0 2F4B     		ldr	r3, .L9+48
 291 00c2 1A60     		str	r2, [r3]	@ float
 174:.\main.c      ****         sprintf((char *)cVoltage,"%2.3f",fVoltage);
 292              		.loc 1 174 0
 293 00c4 2E4B     		ldr	r3, .L9+48
 294 00c6 1B68     		ldr	r3, [r3]	@ float
 295 00c8 1846     		mov	r0, r3
 296 00ca FFF7FEFF 		bl	__aeabi_f2d
 297 00ce 0246     		mov	r2, r0
 298 00d0 0B46     		mov	r3, r1
 299 00d2 2C48     		ldr	r0, .L9+52
 300 00d4 2C49     		ldr	r1, .L9+56
 301 00d6 FFF7FEFF 		bl	sprintf
 175:.\main.c      ****         
 176:.\main.c      ****         Current = ADC_SAR_2_GetResult16();      
 302              		.loc 1 176 0
 303 00da FFF7FEFF 		bl	ADC_SAR_2_GetResult16
 304 00de 0346     		mov	r3, r0
 305 00e0 1A46     		mov	r2, r3
 306 00e2 2A4B     		ldr	r3, .L9+60
 307 00e4 1A80     		strh	r2, [r3]	@ movhi
 177:.\main.c      ****         fCurrent = ADC_SAR_2_CountsTo_Volts(Current);
 308              		.loc 1 177 0
 309 00e6 294B     		ldr	r3, .L9+60
 310 00e8 1B88     		ldrh	r3, [r3]
 311 00ea 1BB2     		sxth	r3, r3
 312 00ec 1846     		mov	r0, r3
 313 00ee FFF7FEFF 		bl	ADC_SAR_2_CountsTo_Volts
 314 00f2 0246     		mov	r2, r0
 315 00f4 264B     		ldr	r3, .L9+64
 316 00f6 1A60     		str	r2, [r3]	@ float
 178:.\main.c      ****         sprintf((char *)cCurrent,"%2.3f",fCurrent);
 317              		.loc 1 178 0
 318 00f8 254B     		ldr	r3, .L9+64
 319 00fa 1B68     		ldr	r3, [r3]	@ float
 320 00fc 1846     		mov	r0, r3
 321 00fe FFF7FEFF 		bl	__aeabi_f2d
 322 0102 0246     		mov	r2, r0
 323 0104 0B46     		mov	r3, r1
 324 0106 2348     		ldr	r0, .L9+68
 325 0108 1F49     		ldr	r1, .L9+56
 326 010a FFF7FEFF 		bl	sprintf
 179:.\main.c      ****         
 180:.\main.c      ****         fPower = fVoltage*fCurrent;
 327              		.loc 1 180 0
 328 010e 1C4B     		ldr	r3, .L9+48
 329 0110 1A68     		ldr	r2, [r3]	@ float
 330 0112 1F4B     		ldr	r3, .L9+64
ARM GAS  C:\Users\Shiguruy\AppData\Local\Temp\ccXfZjiw.s 			page 10


 331 0114 1B68     		ldr	r3, [r3]	@ float
 332 0116 1046     		mov	r0, r2
 333 0118 1946     		mov	r1, r3
 334 011a FFF7FEFF 		bl	__aeabi_fmul
 335 011e 0346     		mov	r3, r0
 336 0120 1A46     		mov	r2, r3
 337 0122 1D4B     		ldr	r3, .L9+72
 338 0124 1A60     		str	r2, [r3]	@ float
 181:.\main.c      ****         sprintf((char *)cPower,"%3.3f",fPower);
 339              		.loc 1 181 0
 340 0126 1C4B     		ldr	r3, .L9+72
 341 0128 1B68     		ldr	r3, [r3]	@ float
 342 012a 1846     		mov	r0, r3
 343 012c FFF7FEFF 		bl	__aeabi_f2d
 344 0130 0246     		mov	r2, r0
 345 0132 0B46     		mov	r3, r1
 346 0134 1948     		ldr	r0, .L9+76
 347 0136 1A49     		ldr	r1, .L9+80
 348 0138 FFF7FEFF 		bl	sprintf
 182:.\main.c      ****        
 183:.\main.c      ****         VDAC8_1_SetValue(122);
 349              		.loc 1 183 0
 350 013c 7A20     		movs	r0, #122
 351 013e FFF7FEFF 		bl	VDAC8_1_SetValue
 184:.\main.c      ****         
 185:.\main.c      ****         TempRead();
 352              		.loc 1 185 0
 353 0142 FFF7FEFF 		bl	TempRead
 186:.\main.c      ****         
 187:.\main.c      ****         CyDelay(50u);
 354              		.loc 1 187 0
 355 0146 3220     		movs	r0, #50
 356 0148 FFF7FEFF 		bl	CyDelay
 188:.\main.c      ****         
 189:.\main.c      ****     }
 357              		.loc 1 189 0
 358 014c 71E7     		b	.L8
 359              	.L10:
 360 014e 00BF     		.align	2
 361              	.L9:
 362 0150 00000000 		.word	u8g
 363 0154 00000000 		.word	u8g_dev_st7565_dogm128_hw_spi
 364 0158 00000000 		.word	u8g_com_hw_spi_fn
 365 015c 00000000 		.word	DIE_Temp
 366 0160 00000000 		.word	Status
 367 0164 00000000 		.word	qdCount
 368 0168 00000000 		.word	DACValue
 369 016c 00000000 		.word	OutputEnable
 370 0170 00000000 		.word	OutputSelect
 371 0174 00000000 		.word	WaveSelect
 372 0178 00000000 		.word	Voltage
 373 017c 00002041 		.word	1092616192
 374 0180 00000000 		.word	fVoltage
 375 0184 00000000 		.word	cVoltage
 376 0188 00000000 		.word	.LC0
 377 018c 00000000 		.word	Current
 378 0190 00000000 		.word	fCurrent
ARM GAS  C:\Users\Shiguruy\AppData\Local\Temp\ccXfZjiw.s 			page 11


 379 0194 00000000 		.word	cCurrent
 380 0198 00000000 		.word	fPower
 381 019c 00000000 		.word	cPower
 382 01a0 08000000 		.word	.LC1
 383              		.cfi_endproc
 384              	.LFE63:
 385              		.size	main, .-main
 386              		.section	.text.State_Machine,"ax",%progbits
 387              		.align	2
 388              		.global	State_Machine
 389              		.thumb
 390              		.thumb_func
 391              		.type	State_Machine, %function
 392              	State_Machine:
 393              	.LFB64:
 190:.\main.c      **** }
 191:.\main.c      **** 
 192:.\main.c      **** void State_Machine(){   
 394              		.loc 1 192 0
 395              		.cfi_startproc
 396              		@ args = 0, pretend = 0, frame = 0
 397              		@ frame_needed = 1, uses_anonymous_args = 0
 398 0000 80B5     		push	{r7, lr}
 399              		.cfi_def_cfa_offset 8
 400              		.cfi_offset 7, -8
 401              		.cfi_offset 14, -4
 402 0002 00AF     		add	r7, sp, #0
 403              		.cfi_def_cfa_register 7
 193:.\main.c      ****     switch(Current_State){
 404              		.loc 1 193 0
 405 0004 134B     		ldr	r3, .L22
 406 0006 1B78     		ldrb	r3, [r3]	@ zero_extendqisi2
 407 0008 052B     		cmp	r3, #5
 408 000a 21D8     		bhi	.L21
 409 000c 01A2     		adr	r2, .L14
 410 000e 52F823F0 		ldr	pc, [r2, r3, lsl #2]
 411 0012 00BF     		.p2align 2
 412              	.L14:
 413 0014 2D000000 		.word	.L13+1
 414 0018 33000000 		.word	.L15+1
 415 001c 39000000 		.word	.L16+1
 416 0020 3F000000 		.word	.L17+1
 417 0024 45000000 		.word	.L18+1
 418 0028 4B000000 		.word	.L19+1
 419              		.p2align 1
 420              	.L13:
 194:.\main.c      ****         case Home:
 195:.\main.c      ****              State_Machine_Home();
 421              		.loc 1 195 0
 422 002c FFF7FEFF 		bl	State_Machine_Home
 196:.\main.c      ****         break;
 423              		.loc 1 196 0
 424 0030 0FE0     		b	.L11
 425              	.L15:
 197:.\main.c      ****     
 198:.\main.c      ****         case ConstantMode:
 199:.\main.c      ****              State_Machine_ConstantMode();  
ARM GAS  C:\Users\Shiguruy\AppData\Local\Temp\ccXfZjiw.s 			page 12


 426              		.loc 1 199 0
 427 0032 FFF7FEFF 		bl	State_Machine_ConstantMode
 200:.\main.c      ****         break;
 428              		.loc 1 200 0
 429 0036 0CE0     		b	.L11
 430              	.L16:
 201:.\main.c      ****             
 202:.\main.c      ****         case ArbitraryMode:
 203:.\main.c      ****              State_Machine_ArbitraryMode();  
 431              		.loc 1 203 0
 432 0038 FFF7FEFF 		bl	State_Machine_ArbitraryMode
 204:.\main.c      ****         break;
 433              		.loc 1 204 0
 434 003c 09E0     		b	.L11
 435              	.L17:
 205:.\main.c      ****             
 206:.\main.c      ****         case ConstantCurrent:
 207:.\main.c      ****              State_Machine_ConstantCurrent();  
 436              		.loc 1 207 0
 437 003e FFF7FEFF 		bl	State_Machine_ConstantCurrent
 208:.\main.c      ****         break;
 438              		.loc 1 208 0
 439 0042 06E0     		b	.L11
 440              	.L18:
 209:.\main.c      ****             
 210:.\main.c      ****         case Settings:
 211:.\main.c      ****              State_Machine_Settings();
 441              		.loc 1 211 0
 442 0044 FFF7FEFF 		bl	State_Machine_Settings
 212:.\main.c      ****         break;
 443              		.loc 1 212 0
 444 0048 03E0     		b	.L11
 445              	.L19:
 213:.\main.c      ****             
 214:.\main.c      ****         case BacklightSetting:
 215:.\main.c      ****             State_Machine_BacklightSetting();
 446              		.loc 1 215 0
 447 004a FFF7FEFF 		bl	State_Machine_BacklightSetting
 216:.\main.c      ****         break;
 448              		.loc 1 216 0
 449 004e 00E0     		b	.L11
 450              	.L21:
 217:.\main.c      ****             
 218:.\main.c      ****             
 219:.\main.c      ****          
 220:.\main.c      ****         
 221:.\main.c      ****             
 222:.\main.c      ****         default:
 223:.\main.c      ****         break;
 451              		.loc 1 223 0
 452 0050 00BF     		nop
 453              	.L11:
 224:.\main.c      ****     }
 225:.\main.c      **** }
 454              		.loc 1 225 0
 455 0052 80BD     		pop	{r7, pc}
 456              	.L23:
ARM GAS  C:\Users\Shiguruy\AppData\Local\Temp\ccXfZjiw.s 			page 13


 457              		.align	2
 458              	.L22:
 459 0054 00000000 		.word	Current_State
 460              		.cfi_endproc
 461              	.LFE64:
 462              		.size	State_Machine, .-State_Machine
 463              		.section	.text.State_Machine_Home,"ax",%progbits
 464              		.align	2
 465              		.global	State_Machine_Home
 466              		.thumb
 467              		.thumb_func
 468              		.type	State_Machine_Home, %function
 469              	State_Machine_Home:
 470              	.LFB65:
 226:.\main.c      **** 
 227:.\main.c      **** void State_Machine_Home(){
 471              		.loc 1 227 0
 472              		.cfi_startproc
 473              		@ args = 0, pretend = 0, frame = 0
 474              		@ frame_needed = 1, uses_anonymous_args = 0
 475 0000 98B5     		push	{r3, r4, r7, lr}
 476              		.cfi_def_cfa_offset 16
 477              		.cfi_offset 3, -16
 478              		.cfi_offset 4, -12
 479              		.cfi_offset 7, -8
 480              		.cfi_offset 14, -4
 481 0002 00AF     		add	r7, sp, #0
 482              		.cfi_def_cfa_register 7
 228:.\main.c      ****     LCD_Draw(Current_State, Get_Encoder_Menu(4));
 483              		.loc 1 228 0
 484 0004 1B4B     		ldr	r3, .L28
 485 0006 1C78     		ldrb	r4, [r3]	@ zero_extendqisi2
 486 0008 0420     		movs	r0, #4
 487 000a FFF7FEFF 		bl	Get_Encoder_Menu
 488 000e 0346     		mov	r3, r0
 489 0010 DBB2     		uxtb	r3, r3
 490 0012 2046     		mov	r0, r4
 491 0014 1946     		mov	r1, r3
 492 0016 FFF7FEFF 		bl	LCD_Draw
 229:.\main.c      ****     if(!(Push_Reg_Read() == 0)){
 493              		.loc 1 229 0
 494 001a FFF7FEFF 		bl	Push_Reg_Read
 495 001e 0346     		mov	r3, r0
 496 0020 002B     		cmp	r3, #0
 497 0022 25D0     		beq	.L24
 230:.\main.c      ****         if(Get_Encoder_Menu(4) == 0){
 498              		.loc 1 230 0
 499 0024 0420     		movs	r0, #4
 500 0026 FFF7FEFF 		bl	Get_Encoder_Menu
 501 002a 0346     		mov	r3, r0
 502 002c 002B     		cmp	r3, #0
 503 002e 06D1     		bne	.L26
 231:.\main.c      ****             QD_SetCounter(0);
 504              		.loc 1 231 0
 505 0030 0020     		movs	r0, #0
 506 0032 FFF7FEFF 		bl	QD_SetCounter
 232:.\main.c      ****             Current_State = ConstantMode;
ARM GAS  C:\Users\Shiguruy\AppData\Local\Temp\ccXfZjiw.s 			page 14


 507              		.loc 1 232 0
 508 0036 0F4B     		ldr	r3, .L28
 509 0038 0122     		movs	r2, #1
 510 003a 1A70     		strb	r2, [r3]
 511 003c 18E0     		b	.L24
 512              	.L26:
 233:.\main.c      ****         }
 234:.\main.c      ****         else if(Get_Encoder_Menu(4) == 1){
 513              		.loc 1 234 0
 514 003e 0420     		movs	r0, #4
 515 0040 FFF7FEFF 		bl	Get_Encoder_Menu
 516 0044 0346     		mov	r3, r0
 517 0046 012B     		cmp	r3, #1
 518 0048 06D1     		bne	.L27
 235:.\main.c      ****             QD_SetCounter(0);
 519              		.loc 1 235 0
 520 004a 0020     		movs	r0, #0
 521 004c FFF7FEFF 		bl	QD_SetCounter
 236:.\main.c      ****             Current_State = ArbitraryMode;
 522              		.loc 1 236 0
 523 0050 084B     		ldr	r3, .L28
 524 0052 0222     		movs	r2, #2
 525 0054 1A70     		strb	r2, [r3]
 526 0056 0BE0     		b	.L24
 527              	.L27:
 237:.\main.c      ****         }
 238:.\main.c      ****         else if(Get_Encoder_Menu(4) == 3){
 528              		.loc 1 238 0
 529 0058 0420     		movs	r0, #4
 530 005a FFF7FEFF 		bl	Get_Encoder_Menu
 531 005e 0346     		mov	r3, r0
 532 0060 032B     		cmp	r3, #3
 533 0062 05D1     		bne	.L24
 239:.\main.c      ****             QD_SetCounter(0);
 534              		.loc 1 239 0
 535 0064 0020     		movs	r0, #0
 536 0066 FFF7FEFF 		bl	QD_SetCounter
 240:.\main.c      ****             Current_State = Settings;
 537              		.loc 1 240 0
 538 006a 024B     		ldr	r3, .L28
 539 006c 0422     		movs	r2, #4
 540 006e 1A70     		strb	r2, [r3]
 541              	.L24:
 241:.\main.c      ****         }  
 242:.\main.c      ****     }
 243:.\main.c      **** }
 542              		.loc 1 243 0
 543 0070 98BD     		pop	{r3, r4, r7, pc}
 544              	.L29:
 545 0072 00BF     		.align	2
 546              	.L28:
 547 0074 00000000 		.word	Current_State
 548              		.cfi_endproc
 549              	.LFE65:
 550              		.size	State_Machine_Home, .-State_Machine_Home
 551              		.section	.text.State_Machine_ConstantMode,"ax",%progbits
 552              		.align	2
ARM GAS  C:\Users\Shiguruy\AppData\Local\Temp\ccXfZjiw.s 			page 15


 553              		.global	State_Machine_ConstantMode
 554              		.thumb
 555              		.thumb_func
 556              		.type	State_Machine_ConstantMode, %function
 557              	State_Machine_ConstantMode:
 558              	.LFB66:
 244:.\main.c      **** 
 245:.\main.c      **** void State_Machine_ConstantMode(){
 559              		.loc 1 245 0
 560              		.cfi_startproc
 561              		@ args = 0, pretend = 0, frame = 0
 562              		@ frame_needed = 1, uses_anonymous_args = 0
 563 0000 98B5     		push	{r3, r4, r7, lr}
 564              		.cfi_def_cfa_offset 16
 565              		.cfi_offset 3, -16
 566              		.cfi_offset 4, -12
 567              		.cfi_offset 7, -8
 568              		.cfi_offset 14, -4
 569 0002 00AF     		add	r7, sp, #0
 570              		.cfi_def_cfa_register 7
 246:.\main.c      ****     LCD_Draw(Current_State, Get_Encoder_Menu(2));
 571              		.loc 1 246 0
 572 0004 134B     		ldr	r3, .L33
 573 0006 1C78     		ldrb	r4, [r3]	@ zero_extendqisi2
 574 0008 0220     		movs	r0, #2
 575 000a FFF7FEFF 		bl	Get_Encoder_Menu
 576 000e 0346     		mov	r3, r0
 577 0010 DBB2     		uxtb	r3, r3
 578 0012 2046     		mov	r0, r4
 579 0014 1946     		mov	r1, r3
 580 0016 FFF7FEFF 		bl	LCD_Draw
 247:.\main.c      ****     if(!(Push_Reg_Read() == 0)){
 581              		.loc 1 247 0
 582 001a FFF7FEFF 		bl	Push_Reg_Read
 583 001e 0346     		mov	r3, r0
 584 0020 002B     		cmp	r3, #0
 585 0022 0BD0     		beq	.L31
 248:.\main.c      ****         if(Get_Encoder_Menu(2) == 0){
 586              		.loc 1 248 0
 587 0024 0220     		movs	r0, #2
 588 0026 FFF7FEFF 		bl	Get_Encoder_Menu
 589 002a 0346     		mov	r3, r0
 590 002c 002B     		cmp	r3, #0
 591 002e 05D1     		bne	.L31
 249:.\main.c      ****             QD_SetCounter(0);
 592              		.loc 1 249 0
 593 0030 0020     		movs	r0, #0
 594 0032 FFF7FEFF 		bl	QD_SetCounter
 250:.\main.c      ****             Current_State = ConstantCurrent;
 595              		.loc 1 250 0
 596 0036 074B     		ldr	r3, .L33
 597 0038 0322     		movs	r2, #3
 598 003a 1A70     		strb	r2, [r3]
 599              	.L31:
 251:.\main.c      ****         }
 252:.\main.c      ****     }
 253:.\main.c      **** 
ARM GAS  C:\Users\Shiguruy\AppData\Local\Temp\ccXfZjiw.s 			page 16


 254:.\main.c      ****     if(!(button1 == 0)){    //Back
 600              		.loc 1 254 0
 601 003c 064B     		ldr	r3, .L33+4
 602 003e 1B78     		ldrb	r3, [r3]	@ zero_extendqisi2
 603 0040 002B     		cmp	r3, #0
 604 0042 05D0     		beq	.L30
 255:.\main.c      ****         QD_SetCounter(0);
 605              		.loc 1 255 0
 606 0044 0020     		movs	r0, #0
 607 0046 FFF7FEFF 		bl	QD_SetCounter
 256:.\main.c      ****         Current_State = Home;
 608              		.loc 1 256 0
 609 004a 024B     		ldr	r3, .L33
 610 004c 0022     		movs	r2, #0
 611 004e 1A70     		strb	r2, [r3]
 612              	.L30:
 257:.\main.c      ****     }
 258:.\main.c      **** }
 613              		.loc 1 258 0
 614 0050 98BD     		pop	{r3, r4, r7, pc}
 615              	.L34:
 616 0052 00BF     		.align	2
 617              	.L33:
 618 0054 00000000 		.word	Current_State
 619 0058 00000000 		.word	button1
 620              		.cfi_endproc
 621              	.LFE66:
 622              		.size	State_Machine_ConstantMode, .-State_Machine_ConstantMode
 623              		.section	.text.State_Machine_ArbitraryMode,"ax",%progbits
 624              		.align	2
 625              		.global	State_Machine_ArbitraryMode
 626              		.thumb
 627              		.thumb_func
 628              		.type	State_Machine_ArbitraryMode, %function
 629              	State_Machine_ArbitraryMode:
 630              	.LFB67:
 259:.\main.c      **** 
 260:.\main.c      **** void State_Machine_ArbitraryMode(){
 631              		.loc 1 260 0
 632              		.cfi_startproc
 633              		@ args = 0, pretend = 0, frame = 0
 634              		@ frame_needed = 1, uses_anonymous_args = 0
 635 0000 98B5     		push	{r3, r4, r7, lr}
 636              		.cfi_def_cfa_offset 16
 637              		.cfi_offset 3, -16
 638              		.cfi_offset 4, -12
 639              		.cfi_offset 7, -8
 640              		.cfi_offset 14, -4
 641 0002 00AF     		add	r7, sp, #0
 642              		.cfi_def_cfa_register 7
 261:.\main.c      ****     LCD_Draw(Current_State, Get_Encoder_Menu(2));    
 643              		.loc 1 261 0
 644 0004 054B     		ldr	r3, .L36
 645 0006 1C78     		ldrb	r4, [r3]	@ zero_extendqisi2
 646 0008 0220     		movs	r0, #2
 647 000a FFF7FEFF 		bl	Get_Encoder_Menu
 648 000e 0346     		mov	r3, r0
ARM GAS  C:\Users\Shiguruy\AppData\Local\Temp\ccXfZjiw.s 			page 17


 649 0010 DBB2     		uxtb	r3, r3
 650 0012 2046     		mov	r0, r4
 651 0014 1946     		mov	r1, r3
 652 0016 FFF7FEFF 		bl	LCD_Draw
 262:.\main.c      **** }
 653              		.loc 1 262 0
 654 001a 98BD     		pop	{r3, r4, r7, pc}
 655              	.L37:
 656              		.align	2
 657              	.L36:
 658 001c 00000000 		.word	Current_State
 659              		.cfi_endproc
 660              	.LFE67:
 661              		.size	State_Machine_ArbitraryMode, .-State_Machine_ArbitraryMode
 662              		.section	.text.State_Machine_ConstantCurrent,"ax",%progbits
 663              		.align	2
 664              		.global	State_Machine_ConstantCurrent
 665              		.thumb
 666              		.thumb_func
 667              		.type	State_Machine_ConstantCurrent, %function
 668              	State_Machine_ConstantCurrent:
 669              	.LFB68:
 263:.\main.c      **** 
 264:.\main.c      **** void State_Machine_ConstantCurrent(){
 670              		.loc 1 264 0
 671              		.cfi_startproc
 672              		@ args = 0, pretend = 0, frame = 0
 673              		@ frame_needed = 1, uses_anonymous_args = 0
 674 0000 98B5     		push	{r3, r4, r7, lr}
 675              		.cfi_def_cfa_offset 16
 676              		.cfi_offset 3, -16
 677              		.cfi_offset 4, -12
 678              		.cfi_offset 7, -8
 679              		.cfi_offset 14, -4
 680 0002 00AF     		add	r7, sp, #0
 681              		.cfi_def_cfa_register 7
 265:.\main.c      ****     LCD_Draw(Current_State, Get_Encoder_Menu(2));     
 682              		.loc 1 265 0
 683 0004 114B     		ldr	r3, .L41
 684 0006 1C78     		ldrb	r4, [r3]	@ zero_extendqisi2
 685 0008 0220     		movs	r0, #2
 686 000a FFF7FEFF 		bl	Get_Encoder_Menu
 687 000e 0346     		mov	r3, r0
 688 0010 DBB2     		uxtb	r3, r3
 689 0012 2046     		mov	r0, r4
 690 0014 1946     		mov	r1, r3
 691 0016 FFF7FEFF 		bl	LCD_Draw
 266:.\main.c      ****     
 267:.\main.c      ****     if(!(button1 == 0)){    //Back
 692              		.loc 1 267 0
 693 001a 0D4B     		ldr	r3, .L41+4
 694 001c 1B78     		ldrb	r3, [r3]	@ zero_extendqisi2
 695 001e 002B     		cmp	r3, #0
 696 0020 05D0     		beq	.L39
 268:.\main.c      ****         QD_SetCounter(0);
 697              		.loc 1 268 0
 698 0022 0020     		movs	r0, #0
ARM GAS  C:\Users\Shiguruy\AppData\Local\Temp\ccXfZjiw.s 			page 18


 699 0024 FFF7FEFF 		bl	QD_SetCounter
 269:.\main.c      ****         Current_State = ConstantMode;
 700              		.loc 1 269 0
 701 0028 084B     		ldr	r3, .L41
 702 002a 0122     		movs	r2, #1
 703 002c 1A70     		strb	r2, [r3]
 704              	.L39:
 270:.\main.c      ****     }
 271:.\main.c      **** 
 272:.\main.c      ****     if(!(button3 == 0)){    //Output Enable
 705              		.loc 1 272 0
 706 002e 094B     		ldr	r3, .L41+8
 707 0030 1B78     		ldrb	r3, [r3]	@ zero_extendqisi2
 708 0032 002B     		cmp	r3, #0
 709 0034 09D0     		beq	.L38
 273:.\main.c      ****         OutputEnable = !OutputEnable;
 710              		.loc 1 273 0
 711 0036 084B     		ldr	r3, .L41+12
 712 0038 1B78     		ldrb	r3, [r3]	@ zero_extendqisi2
 713 003a 002B     		cmp	r3, #0
 714 003c 0CBF     		ite	eq
 715 003e 0123     		moveq	r3, #1
 716 0040 0023     		movne	r3, #0
 717 0042 DBB2     		uxtb	r3, r3
 718 0044 1A46     		mov	r2, r3
 719 0046 044B     		ldr	r3, .L41+12
 720 0048 1A70     		strb	r2, [r3]
 721              	.L38:
 274:.\main.c      ****     }
 275:.\main.c      **** }
 722              		.loc 1 275 0
 723 004a 98BD     		pop	{r3, r4, r7, pc}
 724              	.L42:
 725              		.align	2
 726              	.L41:
 727 004c 00000000 		.word	Current_State
 728 0050 00000000 		.word	button1
 729 0054 00000000 		.word	button3
 730 0058 00000000 		.word	OutputEnable
 731              		.cfi_endproc
 732              	.LFE68:
 733              		.size	State_Machine_ConstantCurrent, .-State_Machine_ConstantCurrent
 734              		.section	.text.State_Machine_Settings,"ax",%progbits
 735              		.align	2
 736              		.global	State_Machine_Settings
 737              		.thumb
 738              		.thumb_func
 739              		.type	State_Machine_Settings, %function
 740              	State_Machine_Settings:
 741              	.LFB69:
 276:.\main.c      **** 
 277:.\main.c      **** 
 278:.\main.c      **** void State_Machine_Settings(){
 742              		.loc 1 278 0
 743              		.cfi_startproc
 744              		@ args = 0, pretend = 0, frame = 0
 745              		@ frame_needed = 1, uses_anonymous_args = 0
ARM GAS  C:\Users\Shiguruy\AppData\Local\Temp\ccXfZjiw.s 			page 19


 746 0000 98B5     		push	{r3, r4, r7, lr}
 747              		.cfi_def_cfa_offset 16
 748              		.cfi_offset 3, -16
 749              		.cfi_offset 4, -12
 750              		.cfi_offset 7, -8
 751              		.cfi_offset 14, -4
 752 0002 00AF     		add	r7, sp, #0
 753              		.cfi_def_cfa_register 7
 279:.\main.c      ****     LCD_Draw(Current_State, Get_Encoder_Menu(2));
 754              		.loc 1 279 0
 755 0004 1A4B     		ldr	r3, .L47
 756 0006 1C78     		ldrb	r4, [r3]	@ zero_extendqisi2
 757 0008 0220     		movs	r0, #2
 758 000a FFF7FEFF 		bl	Get_Encoder_Menu
 759 000e 0346     		mov	r3, r0
 760 0010 DBB2     		uxtb	r3, r3
 761 0012 2046     		mov	r0, r4
 762 0014 1946     		mov	r1, r3
 763 0016 FFF7FEFF 		bl	LCD_Draw
 280:.\main.c      ****     if(!(Push_Reg_Read() == 0)){
 764              		.loc 1 280 0
 765 001a FFF7FEFF 		bl	Push_Reg_Read
 766 001e 0346     		mov	r3, r0
 767 0020 002B     		cmp	r3, #0
 768 0022 19D0     		beq	.L44
 281:.\main.c      ****         if(Get_Encoder_Menu(4) == 0){
 769              		.loc 1 281 0
 770 0024 0420     		movs	r0, #4
 771 0026 FFF7FEFF 		bl	Get_Encoder_Menu
 772 002a 0346     		mov	r3, r0
 773 002c 002B     		cmp	r3, #0
 774 002e 0AD1     		bne	.L45
 282:.\main.c      ****             QD_SetCounter(CurrentBacklightValue);
 775              		.loc 1 282 0
 776 0030 104B     		ldr	r3, .L47+4
 777 0032 1B78     		ldrb	r3, [r3]	@ zero_extendqisi2
 778 0034 9BB2     		uxth	r3, r3
 779 0036 1BB2     		sxth	r3, r3
 780 0038 1846     		mov	r0, r3
 781 003a FFF7FEFF 		bl	QD_SetCounter
 283:.\main.c      ****             Current_State = BacklightSetting;
 782              		.loc 1 283 0
 783 003e 0C4B     		ldr	r3, .L47
 784 0040 0522     		movs	r2, #5
 785 0042 1A70     		strb	r2, [r3]
 786 0044 08E0     		b	.L44
 787              	.L45:
 284:.\main.c      ****             
 285:.\main.c      ****         }
 286:.\main.c      ****         else if(Get_Encoder_Menu(4) == 1){
 788              		.loc 1 286 0
 789 0046 0420     		movs	r0, #4
 790 0048 FFF7FEFF 		bl	Get_Encoder_Menu
 791 004c 0346     		mov	r3, r0
 792 004e 012B     		cmp	r3, #1
 793 0050 02D1     		bne	.L44
 287:.\main.c      ****             QD_SetCounter(0);
ARM GAS  C:\Users\Shiguruy\AppData\Local\Temp\ccXfZjiw.s 			page 20


 794              		.loc 1 287 0
 795 0052 0020     		movs	r0, #0
 796 0054 FFF7FEFF 		bl	QD_SetCounter
 797              	.L44:
 288:.\main.c      ****            
 289:.\main.c      ****         }  
 290:.\main.c      ****     }
 291:.\main.c      ****     if(!(button1 == 0)){    //Back
 798              		.loc 1 291 0
 799 0058 074B     		ldr	r3, .L47+8
 800 005a 1B78     		ldrb	r3, [r3]	@ zero_extendqisi2
 801 005c 002B     		cmp	r3, #0
 802 005e 05D0     		beq	.L43
 292:.\main.c      ****         QD_SetCounter(0);
 803              		.loc 1 292 0
 804 0060 0020     		movs	r0, #0
 805 0062 FFF7FEFF 		bl	QD_SetCounter
 293:.\main.c      ****         Current_State = Home;
 806              		.loc 1 293 0
 807 0066 024B     		ldr	r3, .L47
 808 0068 0022     		movs	r2, #0
 809 006a 1A70     		strb	r2, [r3]
 810              	.L43:
 294:.\main.c      ****     }
 295:.\main.c      **** }
 811              		.loc 1 295 0
 812 006c 98BD     		pop	{r3, r4, r7, pc}
 813              	.L48:
 814 006e 00BF     		.align	2
 815              	.L47:
 816 0070 00000000 		.word	Current_State
 817 0074 00000000 		.word	CurrentBacklightValue
 818 0078 00000000 		.word	button1
 819              		.cfi_endproc
 820              	.LFE69:
 821              		.size	State_Machine_Settings, .-State_Machine_Settings
 822              		.section	.text.State_Machine_BacklightSetting,"ax",%progbits
 823              		.align	2
 824              		.global	State_Machine_BacklightSetting
 825              		.thumb
 826              		.thumb_func
 827              		.type	State_Machine_BacklightSetting, %function
 828              	State_Machine_BacklightSetting:
 829              	.LFB70:
 296:.\main.c      **** 
 297:.\main.c      **** 
 298:.\main.c      **** void State_Machine_BacklightSetting(){
 830              		.loc 1 298 0
 831              		.cfi_startproc
 832              		@ args = 0, pretend = 0, frame = 0
 833              		@ frame_needed = 1, uses_anonymous_args = 0
 834 0000 98B5     		push	{r3, r4, r7, lr}
 835              		.cfi_def_cfa_offset 16
 836              		.cfi_offset 3, -16
 837              		.cfi_offset 4, -12
 838              		.cfi_offset 7, -8
 839              		.cfi_offset 14, -4
ARM GAS  C:\Users\Shiguruy\AppData\Local\Temp\ccXfZjiw.s 			page 21


 840 0002 00AF     		add	r7, sp, #0
 841              		.cfi_def_cfa_register 7
 299:.\main.c      ****    
 300:.\main.c      ****     SetBacklight(Get_Encoder(255));
 842              		.loc 1 300 0
 843 0004 FF20     		movs	r0, #255
 844 0006 FFF7FEFF 		bl	Get_Encoder
 845 000a 0346     		mov	r3, r0
 846 000c DBB2     		uxtb	r3, r3
 847 000e 1846     		mov	r0, r3
 848 0010 FFF7FEFF 		bl	SetBacklight
 301:.\main.c      ****     LCD_Draw(Current_State, Get_Encoder_Menu(1));
 849              		.loc 1 301 0
 850 0014 104B     		ldr	r3, .L52
 851 0016 1C78     		ldrb	r4, [r3]	@ zero_extendqisi2
 852 0018 0120     		movs	r0, #1
 853 001a FFF7FEFF 		bl	Get_Encoder_Menu
 854 001e 0346     		mov	r3, r0
 855 0020 DBB2     		uxtb	r3, r3
 856 0022 2046     		mov	r0, r4
 857 0024 1946     		mov	r1, r3
 858 0026 FFF7FEFF 		bl	LCD_Draw
 302:.\main.c      ****     
 303:.\main.c      ****     if(!(Push_Reg_Read() == 0)){
 859              		.loc 1 303 0
 860 002a FFF7FEFF 		bl	Push_Reg_Read
 861 002e 0346     		mov	r3, r0
 862 0030 002B     		cmp	r3, #0
 863 0032 05D0     		beq	.L50
 304:.\main.c      ****             QD_SetCounter(0);
 864              		.loc 1 304 0
 865 0034 0020     		movs	r0, #0
 866 0036 FFF7FEFF 		bl	QD_SetCounter
 305:.\main.c      ****             Current_State = Settings;
 867              		.loc 1 305 0
 868 003a 074B     		ldr	r3, .L52
 869 003c 0422     		movs	r2, #4
 870 003e 1A70     		strb	r2, [r3]
 871              	.L50:
 306:.\main.c      ****     }
 307:.\main.c      ****     
 308:.\main.c      ****     if(!(button1 == 0)){    //Back
 872              		.loc 1 308 0
 873 0040 064B     		ldr	r3, .L52+4
 874 0042 1B78     		ldrb	r3, [r3]	@ zero_extendqisi2
 875 0044 002B     		cmp	r3, #0
 876 0046 05D0     		beq	.L49
 309:.\main.c      ****         QD_SetCounter(0);
 877              		.loc 1 309 0
 878 0048 0020     		movs	r0, #0
 879 004a FFF7FEFF 		bl	QD_SetCounter
 310:.\main.c      ****         Current_State = Settings;
 880              		.loc 1 310 0
 881 004e 024B     		ldr	r3, .L52
 882 0050 0422     		movs	r2, #4
 883 0052 1A70     		strb	r2, [r3]
 884              	.L49:
ARM GAS  C:\Users\Shiguruy\AppData\Local\Temp\ccXfZjiw.s 			page 22


 311:.\main.c      ****     }
 312:.\main.c      **** }
 885              		.loc 1 312 0
 886 0054 98BD     		pop	{r3, r4, r7, pc}
 887              	.L53:
 888 0056 00BF     		.align	2
 889              	.L52:
 890 0058 00000000 		.word	Current_State
 891 005c 00000000 		.word	button1
 892              		.cfi_endproc
 893              	.LFE70:
 894              		.size	State_Machine_BacklightSetting, .-State_Machine_BacklightSetting
 895              		.section	.rodata
 896 000e 0000     		.align	2
 897              	.LC2:
 898 0010 436F6E73 		.ascii	"Constant Mode\000"
 898      74616E74 
 898      204D6F64 
 898      6500
 899 001e 0000     		.align	2
 900              	.LC3:
 901 0020 41726269 		.ascii	"Arbitrary Mode\000"
 901      74726172 
 901      79204D6F 
 901      646500
 902 002f 00       		.align	2
 903              	.LC4:
 904 0030 42617420 		.ascii	"Bat Discharge\000"
 904      44697363 
 904      68617267 
 904      6500
 905 003e 0000     		.align	2
 906              	.LC5:
 907 0040 53657474 		.ascii	"Settings\000"
 907      696E6773 
 907      00
 908 0049 000000   		.align	2
 909              	.LC6:
 910 004c 436F6E73 		.ascii	"Const Current\000"
 910      74204375 
 910      7272656E 
 910      7400
 911 005a 0000     		.align	2
 912              	.LC7:
 913 005c 436F6E73 		.ascii	"Const Volatge\000"
 913      7420566F 
 913      6C617467 
 913      6500
 914 006a 0000     		.align	2
 915              	.LC8:
 916 006c 53696E65 		.ascii	"Sine Wave\000"
 916      20576176 
 916      6500
 917 0076 0000     		.align	2
 918              	.LC9:
 919 0078 53717561 		.ascii	"Square Wave\000"
 919      72652057 
ARM GAS  C:\Users\Shiguruy\AppData\Local\Temp\ccXfZjiw.s 			page 23


 919      61766500 
 920              		.align	2
 921              	.LC10:
 922 0084 4261636B 		.ascii	"Backlight\000"
 922      6C696768 
 922      7400
 923 008e 0000     		.align	2
 924              	.LC11:
 925 0090 566F6C75 		.ascii	"Volume:\000"
 925      6D653A00 
 926              		.align	2
 927              	.LC12:
 928 0098 2D2D2D54 		.ascii	"---TBD---\000"
 928      42442D2D 
 928      2D00
 929 00a2 0000     		.align	2
 930              	.LC13:
 931 00a4 332E3237 		.ascii	"3.27 A\000"
 931      204100
 932 00ab 00       		.align	2
 933              	.LC14:
 934 00ac 31322E30 		.ascii	"12.01V  39.27W\000"
 934      31562020 
 934      33392E32 
 934      375700
 935 00bb 00       		.align	2
 936              	.LC15:
 937 00bc 3C2D207C 		.ascii	"<- | Set Value | Start\000"
 937      20536574 
 937      2056616C 
 937      7565207C 
 937      20537461 
 938              		.section	.text.LCD_Draw,"ax",%progbits
 939              		.align	2
 940              		.global	LCD_Draw
 941              		.thumb
 942              		.thumb_func
 943              		.type	LCD_Draw, %function
 944              	LCD_Draw:
 945              	.LFB71:
 313:.\main.c      **** 
 314:.\main.c      **** void LCD_Draw(uint8 PageName, uint8 Current_Menu_Position){
 946              		.loc 1 314 0
 947              		.cfi_startproc
 948              		@ args = 0, pretend = 0, frame = 16
 949              		@ frame_needed = 1, uses_anonymous_args = 0
 950 0000 80B5     		push	{r7, lr}
 951              		.cfi_def_cfa_offset 8
 952              		.cfi_offset 7, -8
 953              		.cfi_offset 14, -4
 954 0002 86B0     		sub	sp, sp, #24
 955              		.cfi_def_cfa_offset 32
 956 0004 02AF     		add	r7, sp, #8
 957              		.cfi_def_cfa 7, 24
 958 0006 0346     		mov	r3, r0
 959 0008 0A46     		mov	r2, r1
 960 000a FB71     		strb	r3, [r7, #7]
ARM GAS  C:\Users\Shiguruy\AppData\Local\Temp\ccXfZjiw.s 			page 24


 961 000c 1346     		mov	r3, r2
 962 000e BB71     		strb	r3, [r7, #6]
 315:.\main.c      **** 
 316:.\main.c      ****     enum State PageNamee;
 317:.\main.c      ****     PageNamee = PageName;
 963              		.loc 1 317 0
 964 0010 FB79     		ldrb	r3, [r7, #7]
 965 0012 FB73     		strb	r3, [r7, #15]
 318:.\main.c      ****     
 319:.\main.c      ****     switch(PageNamee){
 966              		.loc 1 319 0
 967 0014 FB7B     		ldrb	r3, [r7, #15]	@ zero_extendqisi2
 968 0016 052B     		cmp	r3, #5
 969 0018 00F22C82 		bhi	.L82
 970 001c 01A2     		adr	r2, .L57
 971 001e 52F823F0 		ldr	pc, [r2, r3, lsl #2]
 972 0022 00BF     		.p2align 2
 973              	.L57:
 974 0024 3D000000 		.word	.L56+1
 975 0028 29010000 		.word	.L58+1
 976 002c A9010000 		.word	.L59+1
 977 0030 09040000 		.word	.L60+1
 978 0034 09030000 		.word	.L61+1
 979 0038 29020000 		.word	.L62+1
 980              		.p2align 1
 981              	.L56:
 320:.\main.c      ****       case Home: 
 321:.\main.c      ****             u8g_FirstPage(&u8g);
 982              		.loc 1 321 0
 983 003c A448     		ldr	r0, .L83
 984 003e FFF7FEFF 		bl	u8g_FirstPage
 985              	.L67:
 322:.\main.c      ****             do{
 323:.\main.c      ****                 u8g_SetDefaultForegroundColor(&u8g);
 986              		.loc 1 323 0
 987 0042 A348     		ldr	r0, .L83
 988 0044 FFF7FEFF 		bl	u8g_SetDefaultForegroundColor
 324:.\main.c      ****                 if(Current_Menu_Position == 0){
 989              		.loc 1 324 0
 990 0048 BB79     		ldrb	r3, [r7, #6]	@ zero_extendqisi2
 991 004a 002B     		cmp	r3, #0
 992 004c 0AD1     		bne	.L63
 325:.\main.c      ****                     u8g_DrawBox(&u8g, 0,0,128,16);
 993              		.loc 1 325 0
 994 004e 1023     		movs	r3, #16
 995 0050 0093     		str	r3, [sp]
 996 0052 9F48     		ldr	r0, .L83
 997 0054 0021     		movs	r1, #0
 998 0056 0022     		movs	r2, #0
 999 0058 8023     		movs	r3, #128
 1000 005a FFF7FEFF 		bl	u8g_DrawBox
 326:.\main.c      ****                     u8g_SetDefaultBackgroundColor(&u8g);
 1001              		.loc 1 326 0
 1002 005e 9C48     		ldr	r0, .L83
 1003 0060 FFF7FEFF 		bl	u8g_SetDefaultBackgroundColor
 1004              	.L63:
 327:.\main.c      ****                 }             
ARM GAS  C:\Users\Shiguruy\AppData\Local\Temp\ccXfZjiw.s 			page 25


 328:.\main.c      ****                 
 329:.\main.c      ****                 u8g_SetFont(&u8g, u8g_font_unifont);   
 1005              		.loc 1 329 0
 1006 0064 9A48     		ldr	r0, .L83
 1007 0066 9B49     		ldr	r1, .L83+4
 1008 0068 FFF7FEFF 		bl	u8g_SetFont
 330:.\main.c      ****                 u8g_DrawStr(&u8g,  2, 13, "Constant Mode");
 1009              		.loc 1 330 0
 1010 006c 9848     		ldr	r0, .L83
 1011 006e 0221     		movs	r1, #2
 1012 0070 0D22     		movs	r2, #13
 1013 0072 994B     		ldr	r3, .L83+8
 1014 0074 FFF7FEFF 		bl	u8g_DrawStr
 331:.\main.c      ****                 
 332:.\main.c      ****                 u8g_SetDefaultForegroundColor(&u8g);                
 1015              		.loc 1 332 0
 1016 0078 9548     		ldr	r0, .L83
 1017 007a FFF7FEFF 		bl	u8g_SetDefaultForegroundColor
 333:.\main.c      ****                 if(Current_Menu_Position == 1){
 1018              		.loc 1 333 0
 1019 007e BB79     		ldrb	r3, [r7, #6]	@ zero_extendqisi2
 1020 0080 012B     		cmp	r3, #1
 1021 0082 0AD1     		bne	.L64
 334:.\main.c      ****                     u8g_DrawBox(&u8g, 0,16,128,16);
 1022              		.loc 1 334 0
 1023 0084 1023     		movs	r3, #16
 1024 0086 0093     		str	r3, [sp]
 1025 0088 9148     		ldr	r0, .L83
 1026 008a 0021     		movs	r1, #0
 1027 008c 1022     		movs	r2, #16
 1028 008e 8023     		movs	r3, #128
 1029 0090 FFF7FEFF 		bl	u8g_DrawBox
 335:.\main.c      ****                     u8g_SetDefaultBackgroundColor(&u8g);
 1030              		.loc 1 335 0
 1031 0094 8E48     		ldr	r0, .L83
 1032 0096 FFF7FEFF 		bl	u8g_SetDefaultBackgroundColor
 1033              	.L64:
 336:.\main.c      ****                 }
 337:.\main.c      ****                 
 338:.\main.c      ****                 u8g_SetFont(&u8g, u8g_font_unifont);              
 1034              		.loc 1 338 0
 1035 009a 8D48     		ldr	r0, .L83
 1036 009c 8D49     		ldr	r1, .L83+4
 1037 009e FFF7FEFF 		bl	u8g_SetFont
 339:.\main.c      ****                 u8g_DrawStr(&u8g,  2, 29, "Arbitrary Mode");
 1038              		.loc 1 339 0
 1039 00a2 8B48     		ldr	r0, .L83
 1040 00a4 0221     		movs	r1, #2
 1041 00a6 1D22     		movs	r2, #29
 1042 00a8 8C4B     		ldr	r3, .L83+12
 1043 00aa FFF7FEFF 		bl	u8g_DrawStr
 340:.\main.c      ****                 
 341:.\main.c      ****                 u8g_SetDefaultForegroundColor(&u8g);
 1044              		.loc 1 341 0
 1045 00ae 8848     		ldr	r0, .L83
 1046 00b0 FFF7FEFF 		bl	u8g_SetDefaultForegroundColor
 342:.\main.c      ****                 if(Current_Menu_Position == 2){
ARM GAS  C:\Users\Shiguruy\AppData\Local\Temp\ccXfZjiw.s 			page 26


 1047              		.loc 1 342 0
 1048 00b4 BB79     		ldrb	r3, [r7, #6]	@ zero_extendqisi2
 1049 00b6 022B     		cmp	r3, #2
 1050 00b8 0AD1     		bne	.L65
 343:.\main.c      ****                     u8g_DrawBox(&u8g, 0,32,128,16);
 1051              		.loc 1 343 0
 1052 00ba 1023     		movs	r3, #16
 1053 00bc 0093     		str	r3, [sp]
 1054 00be 8448     		ldr	r0, .L83
 1055 00c0 0021     		movs	r1, #0
 1056 00c2 2022     		movs	r2, #32
 1057 00c4 8023     		movs	r3, #128
 1058 00c6 FFF7FEFF 		bl	u8g_DrawBox
 344:.\main.c      ****                     u8g_SetDefaultBackgroundColor(&u8g);
 1059              		.loc 1 344 0
 1060 00ca 8148     		ldr	r0, .L83
 1061 00cc FFF7FEFF 		bl	u8g_SetDefaultBackgroundColor
 1062              	.L65:
 345:.\main.c      ****                 }
 346:.\main.c      ****                 
 347:.\main.c      ****                 u8g_SetFont(&u8g, u8g_font_unifont);              
 1063              		.loc 1 347 0
 1064 00d0 7F48     		ldr	r0, .L83
 1065 00d2 8049     		ldr	r1, .L83+4
 1066 00d4 FFF7FEFF 		bl	u8g_SetFont
 348:.\main.c      ****                 u8g_DrawStr(&u8g,  2, 45, "Bat Discharge");
 1067              		.loc 1 348 0
 1068 00d8 7D48     		ldr	r0, .L83
 1069 00da 0221     		movs	r1, #2
 1070 00dc 2D22     		movs	r2, #45
 1071 00de 804B     		ldr	r3, .L83+16
 1072 00e0 FFF7FEFF 		bl	u8g_DrawStr
 349:.\main.c      ****                 
 350:.\main.c      ****                 u8g_SetDefaultForegroundColor(&u8g);
 1073              		.loc 1 350 0
 1074 00e4 7A48     		ldr	r0, .L83
 1075 00e6 FFF7FEFF 		bl	u8g_SetDefaultForegroundColor
 351:.\main.c      ****                 if(Current_Menu_Position == 3){
 1076              		.loc 1 351 0
 1077 00ea BB79     		ldrb	r3, [r7, #6]	@ zero_extendqisi2
 1078 00ec 032B     		cmp	r3, #3
 1079 00ee 0AD1     		bne	.L66
 352:.\main.c      ****                     u8g_DrawBox(&u8g, 0,48,128,16);
 1080              		.loc 1 352 0
 1081 00f0 1023     		movs	r3, #16
 1082 00f2 0093     		str	r3, [sp]
 1083 00f4 7648     		ldr	r0, .L83
 1084 00f6 0021     		movs	r1, #0
 1085 00f8 3022     		movs	r2, #48
 1086 00fa 8023     		movs	r3, #128
 1087 00fc FFF7FEFF 		bl	u8g_DrawBox
 353:.\main.c      ****                     u8g_SetDefaultBackgroundColor(&u8g);
 1088              		.loc 1 353 0
 1089 0100 7348     		ldr	r0, .L83
 1090 0102 FFF7FEFF 		bl	u8g_SetDefaultBackgroundColor
 1091              	.L66:
 354:.\main.c      ****                 }
ARM GAS  C:\Users\Shiguruy\AppData\Local\Temp\ccXfZjiw.s 			page 27


 355:.\main.c      ****                 
 356:.\main.c      ****                 u8g_SetFont(&u8g, u8g_font_unifont);              
 1092              		.loc 1 356 0
 1093 0106 7248     		ldr	r0, .L83
 1094 0108 7249     		ldr	r1, .L83+4
 1095 010a FFF7FEFF 		bl	u8g_SetFont
 357:.\main.c      ****                 u8g_DrawStr(&u8g,  2, 60, "Settings");
 1096              		.loc 1 357 0
 1097 010e 7048     		ldr	r0, .L83
 1098 0110 0221     		movs	r1, #2
 1099 0112 3C22     		movs	r2, #60
 1100 0114 734B     		ldr	r3, .L83+20
 1101 0116 FFF7FEFF 		bl	u8g_DrawStr
 358:.\main.c      ****                 
 359:.\main.c      ****             } while ( u8g_NextPage(&u8g) );
 1102              		.loc 1 359 0
 1103 011a 6D48     		ldr	r0, .L83
 1104 011c FFF7FEFF 		bl	u8g_NextPage
 1105 0120 0346     		mov	r3, r0
 1106 0122 002B     		cmp	r3, #0
 1107 0124 8DD1     		bne	.L67
 360:.\main.c      ****       break;
 1108              		.loc 1 360 0
 1109 0126 A6E1     		b	.L54
 1110              	.L58:
 361:.\main.c      ****      
 362:.\main.c      ****       case ConstantMode: 
 363:.\main.c      ****             u8g_FirstPage(&u8g);
 1111              		.loc 1 363 0
 1112 0128 6948     		ldr	r0, .L83
 1113 012a FFF7FEFF 		bl	u8g_FirstPage
 1114              	.L71:
 364:.\main.c      ****             do{
 365:.\main.c      ****                 u8g_SetDefaultForegroundColor(&u8g);
 1115              		.loc 1 365 0
 1116 012e 6848     		ldr	r0, .L83
 1117 0130 FFF7FEFF 		bl	u8g_SetDefaultForegroundColor
 366:.\main.c      ****                 if(Current_Menu_Position == 0){
 1118              		.loc 1 366 0
 1119 0134 BB79     		ldrb	r3, [r7, #6]	@ zero_extendqisi2
 1120 0136 002B     		cmp	r3, #0
 1121 0138 0AD1     		bne	.L69
 367:.\main.c      ****                     u8g_DrawBox(&u8g, 0,0,128,16);
 1122              		.loc 1 367 0
 1123 013a 1023     		movs	r3, #16
 1124 013c 0093     		str	r3, [sp]
 1125 013e 6448     		ldr	r0, .L83
 1126 0140 0021     		movs	r1, #0
 1127 0142 0022     		movs	r2, #0
 1128 0144 8023     		movs	r3, #128
 1129 0146 FFF7FEFF 		bl	u8g_DrawBox
 368:.\main.c      ****                     u8g_SetDefaultBackgroundColor(&u8g);
 1130              		.loc 1 368 0
 1131 014a 6148     		ldr	r0, .L83
 1132 014c FFF7FEFF 		bl	u8g_SetDefaultBackgroundColor
 1133              	.L69:
 369:.\main.c      ****                 }             
ARM GAS  C:\Users\Shiguruy\AppData\Local\Temp\ccXfZjiw.s 			page 28


 370:.\main.c      ****                 
 371:.\main.c      ****                 u8g_SetFont(&u8g, u8g_font_unifont);   
 1134              		.loc 1 371 0
 1135 0150 5F48     		ldr	r0, .L83
 1136 0152 6049     		ldr	r1, .L83+4
 1137 0154 FFF7FEFF 		bl	u8g_SetFont
 372:.\main.c      ****                 u8g_DrawStr(&u8g,  2, 13, "Const Current");
 1138              		.loc 1 372 0
 1139 0158 5D48     		ldr	r0, .L83
 1140 015a 0221     		movs	r1, #2
 1141 015c 0D22     		movs	r2, #13
 1142 015e 624B     		ldr	r3, .L83+24
 1143 0160 FFF7FEFF 		bl	u8g_DrawStr
 373:.\main.c      ****                 
 374:.\main.c      ****                 u8g_SetDefaultForegroundColor(&u8g);                
 1144              		.loc 1 374 0
 1145 0164 5A48     		ldr	r0, .L83
 1146 0166 FFF7FEFF 		bl	u8g_SetDefaultForegroundColor
 375:.\main.c      ****                 if(Current_Menu_Position == 1){
 1147              		.loc 1 375 0
 1148 016a BB79     		ldrb	r3, [r7, #6]	@ zero_extendqisi2
 1149 016c 012B     		cmp	r3, #1
 1150 016e 0AD1     		bne	.L70
 376:.\main.c      ****                     u8g_DrawBox(&u8g, 0,16,128,16);
 1151              		.loc 1 376 0
 1152 0170 1023     		movs	r3, #16
 1153 0172 0093     		str	r3, [sp]
 1154 0174 5648     		ldr	r0, .L83
 1155 0176 0021     		movs	r1, #0
 1156 0178 1022     		movs	r2, #16
 1157 017a 8023     		movs	r3, #128
 1158 017c FFF7FEFF 		bl	u8g_DrawBox
 377:.\main.c      ****                     u8g_SetDefaultBackgroundColor(&u8g);
 1159              		.loc 1 377 0
 1160 0180 5348     		ldr	r0, .L83
 1161 0182 FFF7FEFF 		bl	u8g_SetDefaultBackgroundColor
 1162              	.L70:
 378:.\main.c      ****                 }
 379:.\main.c      ****                 
 380:.\main.c      ****                 u8g_SetFont(&u8g, u8g_font_unifont);              
 1163              		.loc 1 380 0
 1164 0186 5248     		ldr	r0, .L83
 1165 0188 5249     		ldr	r1, .L83+4
 1166 018a FFF7FEFF 		bl	u8g_SetFont
 381:.\main.c      ****                 u8g_DrawStr(&u8g,  2, 29, "Const Volatge");
 1167              		.loc 1 381 0
 1168 018e 5048     		ldr	r0, .L83
 1169 0190 0221     		movs	r1, #2
 1170 0192 1D22     		movs	r2, #29
 1171 0194 554B     		ldr	r3, .L83+28
 1172 0196 FFF7FEFF 		bl	u8g_DrawStr
 382:.\main.c      ****                 
 383:.\main.c      ****             } while ( u8g_NextPage(&u8g) );
 1173              		.loc 1 383 0
 1174 019a 4D48     		ldr	r0, .L83
 1175 019c FFF7FEFF 		bl	u8g_NextPage
 1176 01a0 0346     		mov	r3, r0
ARM GAS  C:\Users\Shiguruy\AppData\Local\Temp\ccXfZjiw.s 			page 29


 1177 01a2 002B     		cmp	r3, #0
 1178 01a4 C3D1     		bne	.L71
 384:.\main.c      ****         
 385:.\main.c      ****       break;
 1179              		.loc 1 385 0
 1180 01a6 66E1     		b	.L54
 1181              	.L59:
 386:.\main.c      **** 
 387:.\main.c      ****       case ArbitraryMode: 
 388:.\main.c      ****             u8g_FirstPage(&u8g);
 1182              		.loc 1 388 0
 1183 01a8 4948     		ldr	r0, .L83
 1184 01aa FFF7FEFF 		bl	u8g_FirstPage
 1185              	.L74:
 389:.\main.c      ****             do{
 390:.\main.c      ****                 u8g_SetDefaultForegroundColor(&u8g);
 1186              		.loc 1 390 0
 1187 01ae 4848     		ldr	r0, .L83
 1188 01b0 FFF7FEFF 		bl	u8g_SetDefaultForegroundColor
 391:.\main.c      ****                 if(Current_Menu_Position == 0){
 1189              		.loc 1 391 0
 1190 01b4 BB79     		ldrb	r3, [r7, #6]	@ zero_extendqisi2
 1191 01b6 002B     		cmp	r3, #0
 1192 01b8 0AD1     		bne	.L72
 392:.\main.c      ****                     u8g_DrawBox(&u8g, 0,0,128,16);
 1193              		.loc 1 392 0
 1194 01ba 1023     		movs	r3, #16
 1195 01bc 0093     		str	r3, [sp]
 1196 01be 4448     		ldr	r0, .L83
 1197 01c0 0021     		movs	r1, #0
 1198 01c2 0022     		movs	r2, #0
 1199 01c4 8023     		movs	r3, #128
 1200 01c6 FFF7FEFF 		bl	u8g_DrawBox
 393:.\main.c      ****                     u8g_SetDefaultBackgroundColor(&u8g);
 1201              		.loc 1 393 0
 1202 01ca 4148     		ldr	r0, .L83
 1203 01cc FFF7FEFF 		bl	u8g_SetDefaultBackgroundColor
 1204              	.L72:
 394:.\main.c      ****                 }             
 395:.\main.c      ****                 
 396:.\main.c      ****                 u8g_SetFont(&u8g, u8g_font_unifont);   
 1205              		.loc 1 396 0
 1206 01d0 3F48     		ldr	r0, .L83
 1207 01d2 4049     		ldr	r1, .L83+4
 1208 01d4 FFF7FEFF 		bl	u8g_SetFont
 397:.\main.c      ****                 u8g_DrawStr(&u8g,  2, 13, "Sine Wave");
 1209              		.loc 1 397 0
 1210 01d8 3D48     		ldr	r0, .L83
 1211 01da 0221     		movs	r1, #2
 1212 01dc 0D22     		movs	r2, #13
 1213 01de 444B     		ldr	r3, .L83+32
 1214 01e0 FFF7FEFF 		bl	u8g_DrawStr
 398:.\main.c      ****                 
 399:.\main.c      ****                 u8g_SetDefaultForegroundColor(&u8g);                
 1215              		.loc 1 399 0
 1216 01e4 3A48     		ldr	r0, .L83
 1217 01e6 FFF7FEFF 		bl	u8g_SetDefaultForegroundColor
ARM GAS  C:\Users\Shiguruy\AppData\Local\Temp\ccXfZjiw.s 			page 30


 400:.\main.c      ****                 if(Current_Menu_Position == 1){
 1218              		.loc 1 400 0
 1219 01ea BB79     		ldrb	r3, [r7, #6]	@ zero_extendqisi2
 1220 01ec 012B     		cmp	r3, #1
 1221 01ee 0AD1     		bne	.L73
 401:.\main.c      ****                     u8g_DrawBox(&u8g, 0,16,128,16);
 1222              		.loc 1 401 0
 1223 01f0 1023     		movs	r3, #16
 1224 01f2 0093     		str	r3, [sp]
 1225 01f4 3648     		ldr	r0, .L83
 1226 01f6 0021     		movs	r1, #0
 1227 01f8 1022     		movs	r2, #16
 1228 01fa 8023     		movs	r3, #128
 1229 01fc FFF7FEFF 		bl	u8g_DrawBox
 402:.\main.c      ****                     u8g_SetDefaultBackgroundColor(&u8g);
 1230              		.loc 1 402 0
 1231 0200 3348     		ldr	r0, .L83
 1232 0202 FFF7FEFF 		bl	u8g_SetDefaultBackgroundColor
 1233              	.L73:
 403:.\main.c      ****                 }
 404:.\main.c      ****                 
 405:.\main.c      ****                 u8g_SetFont(&u8g, u8g_font_unifont);              
 1234              		.loc 1 405 0
 1235 0206 3248     		ldr	r0, .L83
 1236 0208 3249     		ldr	r1, .L83+4
 1237 020a FFF7FEFF 		bl	u8g_SetFont
 406:.\main.c      ****                 u8g_DrawStr(&u8g,  2, 29, "Square Wave");
 1238              		.loc 1 406 0
 1239 020e 3048     		ldr	r0, .L83
 1240 0210 0221     		movs	r1, #2
 1241 0212 1D22     		movs	r2, #29
 1242 0214 374B     		ldr	r3, .L83+36
 1243 0216 FFF7FEFF 		bl	u8g_DrawStr
 407:.\main.c      ****                 
 408:.\main.c      ****             } while ( u8g_NextPage(&u8g) );
 1244              		.loc 1 408 0
 1245 021a 2D48     		ldr	r0, .L83
 1246 021c FFF7FEFF 		bl	u8g_NextPage
 1247 0220 0346     		mov	r3, r0
 1248 0222 002B     		cmp	r3, #0
 1249 0224 C3D1     		bne	.L74
 409:.\main.c      ****         
 410:.\main.c      ****       break;
 1250              		.loc 1 410 0
 1251 0226 26E1     		b	.L54
 1252              	.L62:
 411:.\main.c      **** 
 412:.\main.c      ****         
 413:.\main.c      ****       case BacklightSetting: 
 414:.\main.c      ****             u8g_FirstPage(&u8g);
 1253              		.loc 1 414 0
 1254 0228 2948     		ldr	r0, .L83
 1255 022a FFF7FEFF 		bl	u8g_FirstPage
 1256              	.L75:
 415:.\main.c      ****             do{
 416:.\main.c      ****                                 
 417:.\main.c      ****                 u8g_SetDefaultForegroundColor(&u8g);       
ARM GAS  C:\Users\Shiguruy\AppData\Local\Temp\ccXfZjiw.s 			page 31


 1257              		.loc 1 417 0 discriminator 1
 1258 022e 2848     		ldr	r0, .L83
 1259 0230 FFF7FEFF 		bl	u8g_SetDefaultForegroundColor
 418:.\main.c      ****                 
 419:.\main.c      ****                 u8g_SetFont(&u8g, u8g_font_unifont);
 1260              		.loc 1 419 0 discriminator 1
 1261 0234 2648     		ldr	r0, .L83
 1262 0236 2749     		ldr	r1, .L83+4
 1263 0238 FFF7FEFF 		bl	u8g_SetFont
 420:.\main.c      ****                 u8g_DrawStr(&u8g,  2, 13, "Backlight");
 1264              		.loc 1 420 0 discriminator 1
 1265 023c 2448     		ldr	r0, .L83
 1266 023e 0221     		movs	r1, #2
 1267 0240 0D22     		movs	r2, #13
 1268 0242 2D4B     		ldr	r3, .L83+40
 1269 0244 FFF7FEFF 		bl	u8g_DrawStr
 421:.\main.c      ****                 
 422:.\main.c      ****                 u8g_DrawBox(&u8g, 88,0,44,16);
 1270              		.loc 1 422 0 discriminator 1
 1271 0248 1023     		movs	r3, #16
 1272 024a 0093     		str	r3, [sp]
 1273 024c 2048     		ldr	r0, .L83
 1274 024e 5821     		movs	r1, #88
 1275 0250 0022     		movs	r2, #0
 1276 0252 2C23     		movs	r3, #44
 1277 0254 FFF7FEFF 		bl	u8g_DrawBox
 423:.\main.c      ****                 u8g_SetDefaultBackgroundColor(&u8g);
 1278              		.loc 1 423 0 discriminator 1
 1279 0258 1D48     		ldr	r0, .L83
 1280 025a FFF7FEFF 		bl	u8g_SetDefaultBackgroundColor
 424:.\main.c      ****                 
 425:.\main.c      ****                 u8g_SetFont(&u8g, u8g_font_unifont);
 1281              		.loc 1 425 0 discriminator 1
 1282 025e 1C48     		ldr	r0, .L83
 1283 0260 1C49     		ldr	r1, .L83+4
 1284 0262 FFF7FEFF 		bl	u8g_SetFont
 426:.\main.c      ****                 u8g_DrawStr(&u8g,  96, 13, CurrentBacklightValueString);
 1285              		.loc 1 426 0 discriminator 1
 1286 0266 1A48     		ldr	r0, .L83
 1287 0268 6021     		movs	r1, #96
 1288 026a 0D22     		movs	r2, #13
 1289 026c 234B     		ldr	r3, .L83+44
 1290 026e FFF7FEFF 		bl	u8g_DrawStr
 427:.\main.c      ****                 
 428:.\main.c      ****                 u8g_SetDefaultForegroundColor(&u8g);   
 1291              		.loc 1 428 0 discriminator 1
 1292 0272 1748     		ldr	r0, .L83
 1293 0274 FFF7FEFF 		bl	u8g_SetDefaultForegroundColor
 429:.\main.c      **** 
 430:.\main.c      ****                 u8g_SetFont(&u8g, u8g_font_unifont);              
 1294              		.loc 1 430 0 discriminator 1
 1295 0278 1548     		ldr	r0, .L83
 1296 027a 1649     		ldr	r1, .L83+4
 1297 027c FFF7FEFF 		bl	u8g_SetFont
 431:.\main.c      ****                 u8g_DrawStr(&u8g,  2, 29, "Volume:");
 1298              		.loc 1 431 0 discriminator 1
 1299 0280 1348     		ldr	r0, .L83
ARM GAS  C:\Users\Shiguruy\AppData\Local\Temp\ccXfZjiw.s 			page 32


 1300 0282 0221     		movs	r1, #2
 1301 0284 1D22     		movs	r2, #29
 1302 0286 1E4B     		ldr	r3, .L83+48
 1303 0288 FFF7FEFF 		bl	u8g_DrawStr
 432:.\main.c      ****                 
 433:.\main.c      ****                 u8g_SetDefaultForegroundColor(&u8g);   
 1304              		.loc 1 433 0 discriminator 1
 1305 028c 1048     		ldr	r0, .L83
 1306 028e FFF7FEFF 		bl	u8g_SetDefaultForegroundColor
 434:.\main.c      ****                 
 435:.\main.c      ****                 u8g_SetFont(&u8g, u8g_font_unifont);              
 1307              		.loc 1 435 0 discriminator 1
 1308 0292 0F48     		ldr	r0, .L83
 1309 0294 0F49     		ldr	r1, .L83+4
 1310 0296 FFF7FEFF 		bl	u8g_SetFont
 436:.\main.c      ****                 u8g_DrawStr(&u8g,  2, 45, "---TBD---");
 1311              		.loc 1 436 0 discriminator 1
 1312 029a 0D48     		ldr	r0, .L83
 1313 029c 0221     		movs	r1, #2
 1314 029e 2D22     		movs	r2, #45
 1315 02a0 184B     		ldr	r3, .L83+52
 1316 02a2 FFF7FEFF 		bl	u8g_DrawStr
 437:.\main.c      ****                 
 438:.\main.c      ****                 u8g_SetDefaultForegroundColor(&u8g);   
 1317              		.loc 1 438 0 discriminator 1
 1318 02a6 0A48     		ldr	r0, .L83
 1319 02a8 FFF7FEFF 		bl	u8g_SetDefaultForegroundColor
 439:.\main.c      ****                 
 440:.\main.c      ****                 u8g_SetFont(&u8g, u8g_font_unifont);              
 1320              		.loc 1 440 0 discriminator 1
 1321 02ac 0848     		ldr	r0, .L83
 1322 02ae 0949     		ldr	r1, .L83+4
 1323 02b0 FFF7FEFF 		bl	u8g_SetFont
 441:.\main.c      ****                 u8g_DrawStr(&u8g,  2, 60, "---TBD---");
 1324              		.loc 1 441 0 discriminator 1
 1325 02b4 0648     		ldr	r0, .L83
 1326 02b6 0221     		movs	r1, #2
 1327 02b8 3C22     		movs	r2, #60
 1328 02ba 124B     		ldr	r3, .L83+52
 1329 02bc FFF7FEFF 		bl	u8g_DrawStr
 442:.\main.c      ****                 
 443:.\main.c      ****             } while ( u8g_NextPage(&u8g) );
 1330              		.loc 1 443 0 discriminator 1
 1331 02c0 0348     		ldr	r0, .L83
 1332 02c2 FFF7FEFF 		bl	u8g_NextPage
 1333 02c6 0346     		mov	r3, r0
 1334 02c8 002B     		cmp	r3, #0
 1335 02ca B0D1     		bne	.L75
 444:.\main.c      ****       break;           
 1336              		.loc 1 444 0
 1337 02cc D3E0     		b	.L54
 1338              	.L84:
 1339 02ce 00BF     		.align	2
 1340              	.L83:
 1341 02d0 00000000 		.word	u8g
 1342 02d4 00000000 		.word	u8g_font_unifont
 1343 02d8 10000000 		.word	.LC2
ARM GAS  C:\Users\Shiguruy\AppData\Local\Temp\ccXfZjiw.s 			page 33


 1344 02dc 20000000 		.word	.LC3
 1345 02e0 30000000 		.word	.LC4
 1346 02e4 40000000 		.word	.LC5
 1347 02e8 4C000000 		.word	.LC6
 1348 02ec 5C000000 		.word	.LC7
 1349 02f0 6C000000 		.word	.LC8
 1350 02f4 78000000 		.word	.LC9
 1351 02f8 84000000 		.word	.LC10
 1352 02fc 00000000 		.word	CurrentBacklightValueString
 1353 0300 90000000 		.word	.LC11
 1354 0304 98000000 		.word	.LC12
 1355              	.L61:
 445:.\main.c      ****             
 446:.\main.c      ****       case Settings: 
 447:.\main.c      ****             u8g_FirstPage(&u8g);
 1356              		.loc 1 447 0
 1357 0308 5C48     		ldr	r0, .L85
 1358 030a FFF7FEFF 		bl	u8g_FirstPage
 1359              	.L80:
 448:.\main.c      ****             do{
 449:.\main.c      ****                                 
 450:.\main.c      ****                 u8g_SetDefaultForegroundColor(&u8g);
 1360              		.loc 1 450 0
 1361 030e 5B48     		ldr	r0, .L85
 1362 0310 FFF7FEFF 		bl	u8g_SetDefaultForegroundColor
 451:.\main.c      ****                 if(Current_Menu_Position == 0){
 1363              		.loc 1 451 0
 1364 0314 BB79     		ldrb	r3, [r7, #6]	@ zero_extendqisi2
 1365 0316 002B     		cmp	r3, #0
 1366 0318 0AD1     		bne	.L76
 452:.\main.c      ****                     u8g_DrawBox(&u8g, 0,0,128,16);
 1367              		.loc 1 452 0
 1368 031a 1023     		movs	r3, #16
 1369 031c 0093     		str	r3, [sp]
 1370 031e 5748     		ldr	r0, .L85
 1371 0320 0021     		movs	r1, #0
 1372 0322 0022     		movs	r2, #0
 1373 0324 8023     		movs	r3, #128
 1374 0326 FFF7FEFF 		bl	u8g_DrawBox
 453:.\main.c      ****                     u8g_SetDefaultBackgroundColor(&u8g);
 1375              		.loc 1 453 0
 1376 032a 5448     		ldr	r0, .L85
 1377 032c FFF7FEFF 		bl	u8g_SetDefaultBackgroundColor
 1378              	.L76:
 454:.\main.c      ****                 }             
 455:.\main.c      ****                 
 456:.\main.c      ****                 u8g_SetFont(&u8g, u8g_font_unifont);
 1379              		.loc 1 456 0
 1380 0330 5248     		ldr	r0, .L85
 1381 0332 5349     		ldr	r1, .L85+4
 1382 0334 FFF7FEFF 		bl	u8g_SetFont
 457:.\main.c      ****                 u8g_DrawStr(&u8g,  2, 13, "Backlight");
 1383              		.loc 1 457 0
 1384 0338 5048     		ldr	r0, .L85
 1385 033a 0221     		movs	r1, #2
 1386 033c 0D22     		movs	r2, #13
 1387 033e 514B     		ldr	r3, .L85+8
ARM GAS  C:\Users\Shiguruy\AppData\Local\Temp\ccXfZjiw.s 			page 34


 1388 0340 FFF7FEFF 		bl	u8g_DrawStr
 458:.\main.c      ****                 u8g_SetFont(&u8g, u8g_font_unifont);
 1389              		.loc 1 458 0
 1390 0344 4D48     		ldr	r0, .L85
 1391 0346 4E49     		ldr	r1, .L85+4
 1392 0348 FFF7FEFF 		bl	u8g_SetFont
 459:.\main.c      ****                 u8g_DrawStr(&u8g,  96, 13, CurrentBacklightValueString);
 1393              		.loc 1 459 0
 1394 034c 4B48     		ldr	r0, .L85
 1395 034e 6021     		movs	r1, #96
 1396 0350 0D22     		movs	r2, #13
 1397 0352 4D4B     		ldr	r3, .L85+12
 1398 0354 FFF7FEFF 		bl	u8g_DrawStr
 460:.\main.c      ****                 
 461:.\main.c      ****                 
 462:.\main.c      ****                 u8g_SetDefaultForegroundColor(&u8g);                
 1399              		.loc 1 462 0
 1400 0358 4848     		ldr	r0, .L85
 1401 035a FFF7FEFF 		bl	u8g_SetDefaultForegroundColor
 463:.\main.c      ****                 if(Current_Menu_Position == 1){
 1402              		.loc 1 463 0
 1403 035e BB79     		ldrb	r3, [r7, #6]	@ zero_extendqisi2
 1404 0360 012B     		cmp	r3, #1
 1405 0362 0AD1     		bne	.L77
 464:.\main.c      ****                     u8g_DrawBox(&u8g, 0,16,128,16);
 1406              		.loc 1 464 0
 1407 0364 1023     		movs	r3, #16
 1408 0366 0093     		str	r3, [sp]
 1409 0368 4448     		ldr	r0, .L85
 1410 036a 0021     		movs	r1, #0
 1411 036c 1022     		movs	r2, #16
 1412 036e 8023     		movs	r3, #128
 1413 0370 FFF7FEFF 		bl	u8g_DrawBox
 465:.\main.c      ****                     u8g_SetDefaultBackgroundColor(&u8g);
 1414              		.loc 1 465 0
 1415 0374 4148     		ldr	r0, .L85
 1416 0376 FFF7FEFF 		bl	u8g_SetDefaultBackgroundColor
 1417              	.L77:
 466:.\main.c      ****                 }
 467:.\main.c      ****                 
 468:.\main.c      ****                 u8g_SetFont(&u8g, u8g_font_unifont);              
 1418              		.loc 1 468 0
 1419 037a 4048     		ldr	r0, .L85
 1420 037c 4049     		ldr	r1, .L85+4
 1421 037e FFF7FEFF 		bl	u8g_SetFont
 469:.\main.c      ****                 u8g_DrawStr(&u8g,  2, 29, "Volume:");
 1422              		.loc 1 469 0
 1423 0382 3E48     		ldr	r0, .L85
 1424 0384 0221     		movs	r1, #2
 1425 0386 1D22     		movs	r2, #29
 1426 0388 404B     		ldr	r3, .L85+16
 1427 038a FFF7FEFF 		bl	u8g_DrawStr
 470:.\main.c      ****                 
 471:.\main.c      ****                 u8g_SetDefaultForegroundColor(&u8g);
 1428              		.loc 1 471 0
 1429 038e 3B48     		ldr	r0, .L85
 1430 0390 FFF7FEFF 		bl	u8g_SetDefaultForegroundColor
ARM GAS  C:\Users\Shiguruy\AppData\Local\Temp\ccXfZjiw.s 			page 35


 472:.\main.c      ****                 if(Current_Menu_Position == 2){
 1431              		.loc 1 472 0
 1432 0394 BB79     		ldrb	r3, [r7, #6]	@ zero_extendqisi2
 1433 0396 022B     		cmp	r3, #2
 1434 0398 0AD1     		bne	.L78
 473:.\main.c      ****                     u8g_DrawBox(&u8g, 0,32,128,16);
 1435              		.loc 1 473 0
 1436 039a 1023     		movs	r3, #16
 1437 039c 0093     		str	r3, [sp]
 1438 039e 3748     		ldr	r0, .L85
 1439 03a0 0021     		movs	r1, #0
 1440 03a2 2022     		movs	r2, #32
 1441 03a4 8023     		movs	r3, #128
 1442 03a6 FFF7FEFF 		bl	u8g_DrawBox
 474:.\main.c      ****                     u8g_SetDefaultBackgroundColor(&u8g);
 1443              		.loc 1 474 0
 1444 03aa 3448     		ldr	r0, .L85
 1445 03ac FFF7FEFF 		bl	u8g_SetDefaultBackgroundColor
 1446              	.L78:
 475:.\main.c      ****                 }
 476:.\main.c      ****                 
 477:.\main.c      ****                 u8g_SetFont(&u8g, u8g_font_unifont);              
 1447              		.loc 1 477 0
 1448 03b0 3248     		ldr	r0, .L85
 1449 03b2 3349     		ldr	r1, .L85+4
 1450 03b4 FFF7FEFF 		bl	u8g_SetFont
 478:.\main.c      ****                 u8g_DrawStr(&u8g,  2, 45, "---TBD---");
 1451              		.loc 1 478 0
 1452 03b8 3048     		ldr	r0, .L85
 1453 03ba 0221     		movs	r1, #2
 1454 03bc 2D22     		movs	r2, #45
 1455 03be 344B     		ldr	r3, .L85+20
 1456 03c0 FFF7FEFF 		bl	u8g_DrawStr
 479:.\main.c      ****                 
 480:.\main.c      ****                 u8g_SetDefaultForegroundColor(&u8g);
 1457              		.loc 1 480 0
 1458 03c4 2D48     		ldr	r0, .L85
 1459 03c6 FFF7FEFF 		bl	u8g_SetDefaultForegroundColor
 481:.\main.c      ****                 if(Current_Menu_Position == 3){
 1460              		.loc 1 481 0
 1461 03ca BB79     		ldrb	r3, [r7, #6]	@ zero_extendqisi2
 1462 03cc 032B     		cmp	r3, #3
 1463 03ce 0AD1     		bne	.L79
 482:.\main.c      ****                     u8g_DrawBox(&u8g, 0,48,128,16);
 1464              		.loc 1 482 0
 1465 03d0 1023     		movs	r3, #16
 1466 03d2 0093     		str	r3, [sp]
 1467 03d4 2948     		ldr	r0, .L85
 1468 03d6 0021     		movs	r1, #0
 1469 03d8 3022     		movs	r2, #48
 1470 03da 8023     		movs	r3, #128
 1471 03dc FFF7FEFF 		bl	u8g_DrawBox
 483:.\main.c      ****                     u8g_SetDefaultBackgroundColor(&u8g);
 1472              		.loc 1 483 0
 1473 03e0 2648     		ldr	r0, .L85
 1474 03e2 FFF7FEFF 		bl	u8g_SetDefaultBackgroundColor
 1475              	.L79:
ARM GAS  C:\Users\Shiguruy\AppData\Local\Temp\ccXfZjiw.s 			page 36


 484:.\main.c      ****                 }
 485:.\main.c      ****                 
 486:.\main.c      ****                 u8g_SetFont(&u8g, u8g_font_unifont);              
 1476              		.loc 1 486 0
 1477 03e6 2548     		ldr	r0, .L85
 1478 03e8 2549     		ldr	r1, .L85+4
 1479 03ea FFF7FEFF 		bl	u8g_SetFont
 487:.\main.c      ****                 u8g_DrawStr(&u8g,  2, 60, "---TBD---");
 1480              		.loc 1 487 0
 1481 03ee 2348     		ldr	r0, .L85
 1482 03f0 0221     		movs	r1, #2
 1483 03f2 3C22     		movs	r2, #60
 1484 03f4 264B     		ldr	r3, .L85+20
 1485 03f6 FFF7FEFF 		bl	u8g_DrawStr
 488:.\main.c      ****                 
 489:.\main.c      ****             } while ( u8g_NextPage(&u8g) );
 1486              		.loc 1 489 0
 1487 03fa 2048     		ldr	r0, .L85
 1488 03fc FFF7FEFF 		bl	u8g_NextPage
 1489 0400 0346     		mov	r3, r0
 1490 0402 002B     		cmp	r3, #0
 1491 0404 83D1     		bne	.L80
 490:.\main.c      ****       break;            
 1492              		.loc 1 490 0
 1493 0406 36E0     		b	.L54
 1494              	.L60:
 491:.\main.c      ****             
 492:.\main.c      ****       case ConstantCurrent: 
 493:.\main.c      ****             u8g_FirstPage(&u8g);
 1495              		.loc 1 493 0
 1496 0408 1C48     		ldr	r0, .L85
 1497 040a FFF7FEFF 		bl	u8g_FirstPage
 1498              	.L81:
 494:.\main.c      ****             do{       
 495:.\main.c      ****                 u8g_SetDefaultForegroundColor(&u8g);    
 1499              		.loc 1 495 0 discriminator 1
 1500 040e 1B48     		ldr	r0, .L85
 1501 0410 FFF7FEFF 		bl	u8g_SetDefaultForegroundColor
 496:.\main.c      ****                 
 497:.\main.c      ****                 u8g_SetFont(&u8g, u8g_font_fub20);   
 1502              		.loc 1 497 0 discriminator 1
 1503 0414 1948     		ldr	r0, .L85
 1504 0416 1F49     		ldr	r1, .L85+24
 1505 0418 FFF7FEFF 		bl	u8g_SetFont
 498:.\main.c      ****                 u8g_DrawStr(&u8g,  22, 26, "3.27 A");
 1506              		.loc 1 498 0 discriminator 1
 1507 041c 1748     		ldr	r0, .L85
 1508 041e 1621     		movs	r1, #22
 1509 0420 1A22     		movs	r2, #26
 1510 0422 1D4B     		ldr	r3, .L85+28
 1511 0424 FFF7FEFF 		bl	u8g_DrawStr
 499:.\main.c      ****                                
 500:.\main.c      ****                 u8g_SetFont(&u8g, u8g_font_unifont);              
 1512              		.loc 1 500 0 discriminator 1
 1513 0428 1448     		ldr	r0, .L85
 1514 042a 1549     		ldr	r1, .L85+4
 1515 042c FFF7FEFF 		bl	u8g_SetFont
ARM GAS  C:\Users\Shiguruy\AppData\Local\Temp\ccXfZjiw.s 			page 37


 501:.\main.c      ****                 u8g_DrawStr(&u8g,  4, 43, "12.01V  39.27W");
 1516              		.loc 1 501 0 discriminator 1
 1517 0430 1248     		ldr	r0, .L85
 1518 0432 0421     		movs	r1, #4
 1519 0434 2B22     		movs	r2, #43
 1520 0436 194B     		ldr	r3, .L85+32
 1521 0438 FFF7FEFF 		bl	u8g_DrawStr
 502:.\main.c      ****                 
 503:.\main.c      ****                 u8g_DrawBox(&u8g, 0,52,128,16);
 1522              		.loc 1 503 0 discriminator 1
 1523 043c 1023     		movs	r3, #16
 1524 043e 0093     		str	r3, [sp]
 1525 0440 0E48     		ldr	r0, .L85
 1526 0442 0021     		movs	r1, #0
 1527 0444 3422     		movs	r2, #52
 1528 0446 8023     		movs	r3, #128
 1529 0448 FFF7FEFF 		bl	u8g_DrawBox
 504:.\main.c      ****                 u8g_SetDefaultBackgroundColor(&u8g);
 1530              		.loc 1 504 0 discriminator 1
 1531 044c 0B48     		ldr	r0, .L85
 1532 044e FFF7FEFF 		bl	u8g_SetDefaultBackgroundColor
 505:.\main.c      ****                 u8g_SetFont(&u8g, u8g_font_unifont);              
 1533              		.loc 1 505 0 discriminator 1
 1534 0452 0A48     		ldr	r0, .L85
 1535 0454 0A49     		ldr	r1, .L85+4
 1536 0456 FFF7FEFF 		bl	u8g_SetFont
 506:.\main.c      ****                 u8g_DrawStr(&u8g,  2, 63, "<- | Set Value | Start");
 1537              		.loc 1 506 0 discriminator 1
 1538 045a 0848     		ldr	r0, .L85
 1539 045c 0221     		movs	r1, #2
 1540 045e 3F22     		movs	r2, #63
 1541 0460 0F4B     		ldr	r3, .L85+36
 1542 0462 FFF7FEFF 		bl	u8g_DrawStr
 507:.\main.c      **** 
 508:.\main.c      ****                 
 509:.\main.c      ****             } while ( u8g_NextPage(&u8g) );
 1543              		.loc 1 509 0 discriminator 1
 1544 0466 0548     		ldr	r0, .L85
 1545 0468 FFF7FEFF 		bl	u8g_NextPage
 1546 046c 0346     		mov	r3, r0
 1547 046e 002B     		cmp	r3, #0
 1548 0470 CDD1     		bne	.L81
 510:.\main.c      ****         
 511:.\main.c      ****       break;            
 1549              		.loc 1 511 0
 1550 0472 00E0     		b	.L54
 1551              	.L82:
 512:.\main.c      **** 
 513:.\main.c      ****             
 514:.\main.c      ****       // ...
 515:.\main.c      ****      
 516:.\main.c      ****       default:
 517:.\main.c      ****         break;
 1552              		.loc 1 517 0
 1553 0474 00BF     		nop
 1554              	.L54:
 518:.\main.c      ****     }   
ARM GAS  C:\Users\Shiguruy\AppData\Local\Temp\ccXfZjiw.s 			page 38


 519:.\main.c      **** }
 1555              		.loc 1 519 0
 1556 0476 1037     		adds	r7, r7, #16
 1557              		.cfi_def_cfa_offset 8
 1558 0478 BD46     		mov	sp, r7
 1559              		.cfi_def_cfa_register 13
 1560              		@ sp needed
 1561 047a 80BD     		pop	{r7, pc}
 1562              	.L86:
 1563              		.align	2
 1564              	.L85:
 1565 047c 00000000 		.word	u8g
 1566 0480 00000000 		.word	u8g_font_unifont
 1567 0484 84000000 		.word	.LC10
 1568 0488 00000000 		.word	CurrentBacklightValueString
 1569 048c 90000000 		.word	.LC11
 1570 0490 98000000 		.word	.LC12
 1571 0494 00000000 		.word	u8g_font_fub20
 1572 0498 A4000000 		.word	.LC13
 1573 049c AC000000 		.word	.LC14
 1574 04a0 BC000000 		.word	.LC15
 1575              		.cfi_endproc
 1576              	.LFE71:
 1577              		.size	LCD_Draw, .-LCD_Draw
 1578              		.section	.text.Get_Encoder,"ax",%progbits
 1579              		.align	2
 1580              		.global	Get_Encoder
 1581              		.thumb
 1582              		.thumb_func
 1583              		.type	Get_Encoder, %function
 1584              	Get_Encoder:
 1585              	.LFB72:
 520:.\main.c      **** 
 521:.\main.c      **** 
 522:.\main.c      **** uint16 Get_Encoder(uint16 maxValue){
 1586              		.loc 1 522 0
 1587              		.cfi_startproc
 1588              		@ args = 0, pretend = 0, frame = 8
 1589              		@ frame_needed = 1, uses_anonymous_args = 0
 1590 0000 80B5     		push	{r7, lr}
 1591              		.cfi_def_cfa_offset 8
 1592              		.cfi_offset 7, -8
 1593              		.cfi_offset 14, -4
 1594 0002 82B0     		sub	sp, sp, #8
 1595              		.cfi_def_cfa_offset 16
 1596 0004 00AF     		add	r7, sp, #0
 1597              		.cfi_def_cfa_register 7
 1598 0006 0346     		mov	r3, r0
 1599 0008 FB80     		strh	r3, [r7, #6]	@ movhi
 523:.\main.c      ****     qdCount = QD_GetCounter();  // Encoder Value    
 1600              		.loc 1 523 0
 1601 000a FFF7FEFF 		bl	QD_GetCounter
 1602 000e 0346     		mov	r3, r0
 1603 0010 9AB2     		uxth	r2, r3
 1604 0012 194B     		ldr	r3, .L92
 1605 0014 1A80     		strh	r2, [r3]	@ movhi
 524:.\main.c      ****     if(!(Last_qdCount == qdCount)){
ARM GAS  C:\Users\Shiguruy\AppData\Local\Temp\ccXfZjiw.s 			page 39


 1606              		.loc 1 524 0
 1607 0016 194B     		ldr	r3, .L92+4
 1608 0018 1A88     		ldrh	r2, [r3]
 1609 001a 174B     		ldr	r3, .L92
 1610 001c 1B88     		ldrh	r3, [r3]
 1611 001e 9A42     		cmp	r2, r3
 1612 0020 23D0     		beq	.L88
 525:.\main.c      ****         if(qdCount >= 65530){
 1613              		.loc 1 525 0
 1614 0022 154B     		ldr	r3, .L92
 1615 0024 1B88     		ldrh	r3, [r3]
 1616 0026 4FF6F972 		movw	r2, #65529
 1617 002a 9342     		cmp	r3, r2
 1618 002c 05D9     		bls	.L89
 526:.\main.c      ****             QD_SetCounter(0);
 1619              		.loc 1 526 0
 1620 002e 0020     		movs	r0, #0
 1621 0030 FFF7FEFF 		bl	QD_SetCounter
 527:.\main.c      ****             qdCount = 0;
 1622              		.loc 1 527 0
 1623 0034 104B     		ldr	r3, .L92
 1624 0036 0022     		movs	r2, #0
 1625 0038 1A80     		strh	r2, [r3]	@ movhi
 1626              	.L89:
 528:.\main.c      ****         }       
 529:.\main.c      ****         if(qdCount >= maxValue-1){
 1627              		.loc 1 529 0
 1628 003a 0F4B     		ldr	r3, .L92
 1629 003c 1B88     		ldrh	r3, [r3]
 1630 003e 1A46     		mov	r2, r3
 1631 0040 FB88     		ldrh	r3, [r7, #6]
 1632 0042 013B     		subs	r3, r3, #1
 1633 0044 9A42     		cmp	r2, r3
 1634 0046 0CDB     		blt	.L90
 530:.\main.c      ****             QD_SetCounter(maxValue-1);
 1635              		.loc 1 530 0
 1636 0048 FB88     		ldrh	r3, [r7, #6]	@ movhi
 1637 004a 013B     		subs	r3, r3, #1
 1638 004c 9BB2     		uxth	r3, r3
 1639 004e 9BB2     		uxth	r3, r3
 1640 0050 1BB2     		sxth	r3, r3
 1641 0052 1846     		mov	r0, r3
 1642 0054 FFF7FEFF 		bl	QD_SetCounter
 531:.\main.c      ****             qdCount = maxValue-1;
 1643              		.loc 1 531 0
 1644 0058 FB88     		ldrh	r3, [r7, #6]	@ movhi
 1645 005a 013B     		subs	r3, r3, #1
 1646 005c 9AB2     		uxth	r2, r3
 1647 005e 064B     		ldr	r3, .L92
 1648 0060 1A80     		strh	r2, [r3]	@ movhi
 1649              	.L90:
 532:.\main.c      ****         }
 533:.\main.c      ****         Last_qdCount = qdCount;
 1650              		.loc 1 533 0
 1651 0062 054B     		ldr	r3, .L92
 1652 0064 1A88     		ldrh	r2, [r3]
 1653 0066 054B     		ldr	r3, .L92+4
ARM GAS  C:\Users\Shiguruy\AppData\Local\Temp\ccXfZjiw.s 			page 40


 1654 0068 1A80     		strh	r2, [r3]	@ movhi
 1655              	.L88:
 534:.\main.c      ****     }
 535:.\main.c      ****     return Last_qdCount;
 1656              		.loc 1 535 0
 1657 006a 044B     		ldr	r3, .L92+4
 1658 006c 1B88     		ldrh	r3, [r3]
 536:.\main.c      **** }
 1659              		.loc 1 536 0
 1660 006e 1846     		mov	r0, r3
 1661 0070 0837     		adds	r7, r7, #8
 1662              		.cfi_def_cfa_offset 8
 1663 0072 BD46     		mov	sp, r7
 1664              		.cfi_def_cfa_register 13
 1665              		@ sp needed
 1666 0074 80BD     		pop	{r7, pc}
 1667              	.L93:
 1668 0076 00BF     		.align	2
 1669              	.L92:
 1670 0078 00000000 		.word	qdCount
 1671 007c 00000000 		.word	Last_qdCount
 1672              		.cfi_endproc
 1673              	.LFE72:
 1674              		.size	Get_Encoder, .-Get_Encoder
 1675              		.section	.text.Get_Encoder_Menu,"ax",%progbits
 1676              		.align	2
 1677              		.global	Get_Encoder_Menu
 1678              		.thumb
 1679              		.thumb_func
 1680              		.type	Get_Encoder_Menu, %function
 1681              	Get_Encoder_Menu:
 1682              	.LFB73:
 537:.\main.c      **** 
 538:.\main.c      **** uint16 Get_Encoder_Menu(uint16 maxValue){
 1683              		.loc 1 538 0
 1684              		.cfi_startproc
 1685              		@ args = 0, pretend = 0, frame = 8
 1686              		@ frame_needed = 1, uses_anonymous_args = 0
 1687 0000 80B5     		push	{r7, lr}
 1688              		.cfi_def_cfa_offset 8
 1689              		.cfi_offset 7, -8
 1690              		.cfi_offset 14, -4
 1691 0002 82B0     		sub	sp, sp, #8
 1692              		.cfi_def_cfa_offset 16
 1693 0004 00AF     		add	r7, sp, #0
 1694              		.cfi_def_cfa_register 7
 1695 0006 0346     		mov	r3, r0
 1696 0008 FB80     		strh	r3, [r7, #6]	@ movhi
 539:.\main.c      ****     qdCount = QD_GetCounter();  // Encoder Value    
 1697              		.loc 1 539 0
 1698 000a FFF7FEFF 		bl	QD_GetCounter
 1699 000e 0346     		mov	r3, r0
 1700 0010 9AB2     		uxth	r2, r3
 1701 0012 134B     		ldr	r3, .L98
 1702 0014 1A80     		strh	r2, [r3]	@ movhi
 540:.\main.c      ****     if(!(Last_qdCount == qdCount)){
 1703              		.loc 1 540 0
ARM GAS  C:\Users\Shiguruy\AppData\Local\Temp\ccXfZjiw.s 			page 41


 1704 0016 134B     		ldr	r3, .L98+4
 1705 0018 1A88     		ldrh	r2, [r3]
 1706 001a 114B     		ldr	r3, .L98
 1707 001c 1B88     		ldrh	r3, [r3]
 1708 001e 9A42     		cmp	r2, r3
 1709 0020 17D0     		beq	.L95
 541:.\main.c      ****         if(Last_qdCount > qdCount){
 1710              		.loc 1 541 0
 1711 0022 104B     		ldr	r3, .L98+4
 1712 0024 1A88     		ldrh	r2, [r3]
 1713 0026 0E4B     		ldr	r3, .L98
 1714 0028 1B88     		ldrh	r3, [r3]
 1715 002a 9A42     		cmp	r2, r3
 1716 002c 05D9     		bls	.L96
 542:.\main.c      ****             Last_qdCount--;
 1717              		.loc 1 542 0
 1718 002e 0D4B     		ldr	r3, .L98+4
 1719 0030 1B88     		ldrh	r3, [r3]
 1720 0032 013B     		subs	r3, r3, #1
 1721 0034 9AB2     		uxth	r2, r3
 1722 0036 0B4B     		ldr	r3, .L98+4
 1723 0038 1A80     		strh	r2, [r3]	@ movhi
 1724              	.L96:
 543:.\main.c      ****             
 544:.\main.c      ****         }
 545:.\main.c      ****         
 546:.\main.c      ****         if(Last_qdCount < qdCount){
 1725              		.loc 1 546 0
 1726 003a 0A4B     		ldr	r3, .L98+4
 1727 003c 1A88     		ldrh	r2, [r3]
 1728 003e 084B     		ldr	r3, .L98
 1729 0040 1B88     		ldrh	r3, [r3]
 1730 0042 9A42     		cmp	r2, r3
 1731 0044 05D2     		bcs	.L95
 547:.\main.c      ****             Last_qdCount++;
 1732              		.loc 1 547 0
 1733 0046 074B     		ldr	r3, .L98+4
 1734 0048 1B88     		ldrh	r3, [r3]
 1735 004a 0133     		adds	r3, r3, #1
 1736 004c 9AB2     		uxth	r2, r3
 1737 004e 054B     		ldr	r3, .L98+4
 1738 0050 1A80     		strh	r2, [r3]	@ movhi
 1739              	.L95:
 548:.\main.c      ****             
 549:.\main.c      ****         }
 550:.\main.c      ****         
 551:.\main.c      ****     }
 552:.\main.c      ****     return Last_qdCount;     
 1740              		.loc 1 552 0
 1741 0052 044B     		ldr	r3, .L98+4
 1742 0054 1B88     		ldrh	r3, [r3]
 553:.\main.c      **** }
 1743              		.loc 1 553 0
 1744 0056 1846     		mov	r0, r3
 1745 0058 0837     		adds	r7, r7, #8
 1746              		.cfi_def_cfa_offset 8
 1747 005a BD46     		mov	sp, r7
ARM GAS  C:\Users\Shiguruy\AppData\Local\Temp\ccXfZjiw.s 			page 42


 1748              		.cfi_def_cfa_register 13
 1749              		@ sp needed
 1750 005c 80BD     		pop	{r7, pc}
 1751              	.L99:
 1752 005e 00BF     		.align	2
 1753              	.L98:
 1754 0060 00000000 		.word	qdCount
 1755 0064 00000000 		.word	Last_qdCount
 1756              		.cfi_endproc
 1757              	.LFE73:
 1758              		.size	Get_Encoder_Menu, .-Get_Encoder_Menu
 1759              		.section	.text.Initialize,"ax",%progbits
 1760              		.align	2
 1761              		.global	Initialize
 1762              		.thumb
 1763              		.thumb_func
 1764              		.type	Initialize, %function
 1765              	Initialize:
 1766              	.LFB74:
 554:.\main.c      **** 
 555:.\main.c      **** void Initialize(void){
 1767              		.loc 1 555 0
 1768              		.cfi_startproc
 1769              		@ args = 0, pretend = 0, frame = 0
 1770              		@ frame_needed = 1, uses_anonymous_args = 0
 1771 0000 80B5     		push	{r7, lr}
 1772              		.cfi_def_cfa_offset 8
 1773              		.cfi_offset 7, -8
 1774              		.cfi_offset 14, -4
 1775 0002 00AF     		add	r7, sp, #0
 1776              		.cfi_def_cfa_register 7
 556:.\main.c      ****     CyGlobalIntEnable;  /* enable global interrupts. */
 1777              		.loc 1 556 0
 1778              	@ 556 ".\main.c" 1
 1779 0004 62B6     		CPSIE   i
 1780              	@ 0 "" 2
 557:.\main.c      ****            
 558:.\main.c      ****       
 559:.\main.c      ****     QD_SetCounter(5u);
 1781              		.loc 1 559 0
 1782              		.thumb
 1783 0006 0520     		movs	r0, #5
 1784 0008 FFF7FEFF 		bl	QD_SetCounter
 560:.\main.c      ****     QD_Start();
 1785              		.loc 1 560 0
 1786 000c FFF7FEFF 		bl	QD_Start
 561:.\main.c      ****     
 562:.\main.c      ****     PWM_1_Start();
 1787              		.loc 1 562 0
 1788 0010 FFF7FEFF 		bl	PWM_1_Start
 563:.\main.c      ****     
 564:.\main.c      ****     AMux_1_Select(0);
 1789              		.loc 1 564 0
 1790 0014 0020     		movs	r0, #0
 1791 0016 FFF7FEFF 		bl	AMux_1_Select
 565:.\main.c      ****     
 566:.\main.c      ****     WaveDAC8_1_Start();    
ARM GAS  C:\Users\Shiguruy\AppData\Local\Temp\ccXfZjiw.s 			page 43


 1792              		.loc 1 566 0
 1793 001a FFF7FEFF 		bl	WaveDAC8_1_Start
 567:.\main.c      ****     
 568:.\main.c      ****     VDAC8_1_Start();  
 1794              		.loc 1 568 0
 1795 001e FFF7FEFF 		bl	VDAC8_1_Start
 569:.\main.c      ****     
 570:.\main.c      ****     ADC_SAR_1_Start();
 1796              		.loc 1 570 0
 1797 0022 FFF7FEFF 		bl	ADC_SAR_1_Start
 571:.\main.c      ****     ADC_SAR_1_StartConvert();
 1798              		.loc 1 571 0
 1799 0026 FFF7FEFF 		bl	ADC_SAR_1_StartConvert
 572:.\main.c      ****     
 573:.\main.c      ****     ADC_SAR_2_Start();
 1800              		.loc 1 573 0
 1801 002a FFF7FEFF 		bl	ADC_SAR_2_Start
 574:.\main.c      ****     ADC_SAR_2_StartConvert();
 1802              		.loc 1 574 0
 1803 002e FFF7FEFF 		bl	ADC_SAR_2_StartConvert
 575:.\main.c      ****     
 576:.\main.c      ****     WaveDAC8_1_Start();
 1804              		.loc 1 576 0
 1805 0032 FFF7FEFF 		bl	WaveDAC8_1_Start
 577:.\main.c      ****     
 578:.\main.c      **** 
 579:.\main.c      ****     
 580:.\main.c      ****     I2C_Start();
 1806              		.loc 1 580 0
 1807 0036 FFF7FEFF 		bl	I2C_Start
 581:.\main.c      ****     PWM_Back_Start();   
 1808              		.loc 1 581 0
 1809 003a FFF7FEFF 		bl	PWM_Back_Start
 582:.\main.c      ****     SetBacklight(200);
 1810              		.loc 1 582 0
 1811 003e C820     		movs	r0, #200
 1812 0040 FFF7FEFF 		bl	SetBacklight
 583:.\main.c      **** }
 1813              		.loc 1 583 0
 1814 0044 80BD     		pop	{r7, pc}
 1815              		.cfi_endproc
 1816              	.LFE74:
 1817              		.size	Initialize, .-Initialize
 1818 0046 00BF     		.section	.text.Check_Buttons,"ax",%progbits
 1819              		.align	2
 1820              		.global	Check_Buttons
 1821              		.thumb
 1822              		.thumb_func
 1823              		.type	Check_Buttons, %function
 1824              	Check_Buttons:
 1825              	.LFB75:
 584:.\main.c      **** 
 585:.\main.c      **** void Check_Buttons(void){
 1826              		.loc 1 585 0
 1827              		.cfi_startproc
 1828              		@ args = 0, pretend = 0, frame = 0
 1829              		@ frame_needed = 1, uses_anonymous_args = 0
ARM GAS  C:\Users\Shiguruy\AppData\Local\Temp\ccXfZjiw.s 			page 44


 1830 0000 80B5     		push	{r7, lr}
 1831              		.cfi_def_cfa_offset 8
 1832              		.cfi_offset 7, -8
 1833              		.cfi_offset 14, -4
 1834 0002 00AF     		add	r7, sp, #0
 1835              		.cfi_def_cfa_register 7
 586:.\main.c      ****     button1 = Button1_Reg_Read();   // Back
 1836              		.loc 1 586 0
 1837 0004 FFF7FEFF 		bl	Button1_Reg_Read
 1838 0008 0346     		mov	r3, r0
 1839 000a 1A46     		mov	r2, r3
 1840 000c 114B     		ldr	r3, .L104
 1841 000e 1A70     		strb	r2, [r3]
 587:.\main.c      ****     button2 = Button2_Reg_Read();
 1842              		.loc 1 587 0
 1843 0010 FFF7FEFF 		bl	Button2_Reg_Read
 1844 0014 0346     		mov	r3, r0
 1845 0016 1A46     		mov	r2, r3
 1846 0018 0F4B     		ldr	r3, .L104+4
 1847 001a 1A70     		strb	r2, [r3]
 588:.\main.c      ****     button3 = Button3_Reg_Read();
 1848              		.loc 1 588 0
 1849 001c FFF7FEFF 		bl	Button3_Reg_Read
 1850 0020 0346     		mov	r3, r0
 1851 0022 1A46     		mov	r2, r3
 1852 0024 0D4B     		ldr	r3, .L104+8
 1853 0026 1A70     		strb	r2, [r3]
 589:.\main.c      ****     
 590:.\main.c      ****     
 591:.\main.c      ****     if(!(button2 == 0)){
 1854              		.loc 1 591 0
 1855 0028 0B4B     		ldr	r3, .L104+4
 1856 002a 1B78     		ldrb	r3, [r3]	@ zero_extendqisi2
 1857 002c 002B     		cmp	r3, #0
 1858 002e 02D0     		beq	.L102
 592:.\main.c      ****     //    OutputSelect = !OutputSelect;
 593:.\main.c      ****           Current_State = Home;
 1859              		.loc 1 593 0
 1860 0030 0B4B     		ldr	r3, .L104+12
 1861 0032 0022     		movs	r2, #0
 1862 0034 1A70     		strb	r2, [r3]
 1863              	.L102:
 594:.\main.c      ****     }
 595:.\main.c      ****     
 596:.\main.c      ****     if(!(button3 == 0)){
 1864              		.loc 1 596 0
 1865 0036 094B     		ldr	r3, .L104+8
 1866 0038 1B78     		ldrb	r3, [r3]	@ zero_extendqisi2
 1867 003a 002B     		cmp	r3, #0
 1868 003c 09D0     		beq	.L101
 597:.\main.c      ****         LCD_Page = !LCD_Page;
 1869              		.loc 1 597 0
 1870 003e 094B     		ldr	r3, .L104+16
 1871 0040 1B78     		ldrb	r3, [r3]	@ zero_extendqisi2
 1872 0042 002B     		cmp	r3, #0
 1873 0044 0CBF     		ite	eq
 1874 0046 0123     		moveq	r3, #1
ARM GAS  C:\Users\Shiguruy\AppData\Local\Temp\ccXfZjiw.s 			page 45


 1875 0048 0023     		movne	r3, #0
 1876 004a DBB2     		uxtb	r3, r3
 1877 004c 1A46     		mov	r2, r3
 1878 004e 054B     		ldr	r3, .L104+16
 1879 0050 1A70     		strb	r2, [r3]
 1880              	.L101:
 598:.\main.c      ****     }
 599:.\main.c      ****     
 600:.\main.c      **** }
 1881              		.loc 1 600 0
 1882 0052 80BD     		pop	{r7, pc}
 1883              	.L105:
 1884              		.align	2
 1885              	.L104:
 1886 0054 00000000 		.word	button1
 1887 0058 00000000 		.word	button2
 1888 005c 00000000 		.word	button3
 1889 0060 00000000 		.word	Current_State
 1890 0064 00000000 		.word	LCD_Page
 1891              		.cfi_endproc
 1892              	.LFE75:
 1893              		.size	Check_Buttons, .-Check_Buttons
 1894              		.section	.text.TempRead,"ax",%progbits
 1895              		.align	2
 1896              		.global	TempRead
 1897              		.thumb
 1898              		.thumb_func
 1899              		.type	TempRead, %function
 1900              	TempRead:
 1901              	.LFB76:
 601:.\main.c      **** 
 602:.\main.c      **** 
 603:.\main.c      **** void TempRead(void){
 1902              		.loc 1 603 0
 1903              		.cfi_startproc
 1904              		@ args = 0, pretend = 0, frame = 0
 1905              		@ frame_needed = 1, uses_anonymous_args = 0
 1906 0000 80B5     		push	{r7, lr}
 1907              		.cfi_def_cfa_offset 8
 1908              		.cfi_offset 7, -8
 1909              		.cfi_offset 14, -4
 1910 0002 00AF     		add	r7, sp, #0
 1911              		.cfi_def_cfa_register 7
 604:.\main.c      ****         Status = I2C_MasterSendStart(I2C_SLAVE_ADDRESS, I2C_READ_XFER_MODE);
 1912              		.loc 1 604 0
 1913 0004 4820     		movs	r0, #72
 1914 0006 0121     		movs	r1, #1
 1915 0008 FFF7FEFF 		bl	I2C_MasterSendStart
 1916 000c 0346     		mov	r3, r0
 1917 000e 1A46     		mov	r2, r3
 1918 0010 074B     		ldr	r3, .L108
 1919 0012 1A60     		str	r2, [r3]
 605:.\main.c      ****         if(I2C_MSTR_NO_ERROR == Status) /* Check if transfer completed without errors */
 1920              		.loc 1 605 0
 1921 0014 064B     		ldr	r3, .L108
 1922 0016 1B68     		ldr	r3, [r3]
 1923 0018 002B     		cmp	r3, #0
ARM GAS  C:\Users\Shiguruy\AppData\Local\Temp\ccXfZjiw.s 			page 46


 1924 001a 06D1     		bne	.L107
 606:.\main.c      ****         FET_Temp = I2C_MasterReadByte(I2C_NAK_DATA);
 1925              		.loc 1 606 0
 1926 001c 0020     		movs	r0, #0
 1927 001e FFF7FEFF 		bl	I2C_MasterReadByte
 1928 0022 0346     		mov	r3, r0
 1929 0024 DAB2     		uxtb	r2, r3
 1930 0026 034B     		ldr	r3, .L108+4
 1931 0028 1A70     		strb	r2, [r3]
 1932              	.L107:
 607:.\main.c      ****         I2C_MasterSendStop(); /* Send Stop */
 1933              		.loc 1 607 0
 1934 002a FFF7FEFF 		bl	I2C_MasterSendStop
 608:.\main.c      **** }
 1935              		.loc 1 608 0
 1936 002e 80BD     		pop	{r7, pc}
 1937              	.L109:
 1938              		.align	2
 1939              	.L108:
 1940 0030 00000000 		.word	Status
 1941 0034 00000000 		.word	FET_Temp
 1942              		.cfi_endproc
 1943              	.LFE76:
 1944              		.size	TempRead, .-TempRead
 1945              		.section	.rodata
 1946 00d3 00       		.align	2
 1947              	.LC16:
 1948 00d4 256400   		.ascii	"%d\000"
 1949 00d7 00       		.section	.text.SetBacklight,"ax",%progbits
 1950              		.align	2
 1951              		.global	SetBacklight
 1952              		.thumb
 1953              		.thumb_func
 1954              		.type	SetBacklight, %function
 1955              	SetBacklight:
 1956              	.LFB77:
 609:.\main.c      **** 
 610:.\main.c      **** void SetBacklight(uint8 BacklightValue){
 1957              		.loc 1 610 0
 1958              		.cfi_startproc
 1959              		@ args = 0, pretend = 0, frame = 16
 1960              		@ frame_needed = 1, uses_anonymous_args = 0
 1961 0000 80B5     		push	{r7, lr}
 1962              		.cfi_def_cfa_offset 8
 1963              		.cfi_offset 7, -8
 1964              		.cfi_offset 14, -4
 1965 0002 84B0     		sub	sp, sp, #16
 1966              		.cfi_def_cfa_offset 24
 1967 0004 00AF     		add	r7, sp, #0
 1968              		.cfi_def_cfa_register 7
 1969 0006 0346     		mov	r3, r0
 1970 0008 FB71     		strb	r3, [r7, #7]
 611:.\main.c      ****     int Backlight = BacklightValue;
 1971              		.loc 1 611 0
 1972 000a FB79     		ldrb	r3, [r7, #7]	@ zero_extendqisi2
 1973 000c FB60     		str	r3, [r7, #12]
 612:.\main.c      ****     if(Backlight>=255) Backlight = 255;
ARM GAS  C:\Users\Shiguruy\AppData\Local\Temp\ccXfZjiw.s 			page 47


 1974              		.loc 1 612 0
 1975 000e FB68     		ldr	r3, [r7, #12]
 1976 0010 FE2B     		cmp	r3, #254
 1977 0012 01DD     		ble	.L111
 1978              		.loc 1 612 0 is_stmt 0 discriminator 1
 1979 0014 FF23     		movs	r3, #255
 1980 0016 FB60     		str	r3, [r7, #12]
 1981              	.L111:
 613:.\main.c      ****     if(Backlight<=0) Backlight = 0;
 1982              		.loc 1 613 0 is_stmt 1
 1983 0018 FB68     		ldr	r3, [r7, #12]
 1984 001a 002B     		cmp	r3, #0
 1985 001c 01DC     		bgt	.L112
 1986              		.loc 1 613 0 is_stmt 0 discriminator 1
 1987 001e 0023     		movs	r3, #0
 1988 0020 FB60     		str	r3, [r7, #12]
 1989              	.L112:
 614:.\main.c      ****     PWM_Back_WriteCompare(Backlight);
 1990              		.loc 1 614 0 is_stmt 1
 1991 0022 FB68     		ldr	r3, [r7, #12]
 1992 0024 DBB2     		uxtb	r3, r3
 1993 0026 1846     		mov	r0, r3
 1994 0028 FFF7FEFF 		bl	PWM_Back_WriteCompare
 615:.\main.c      ****     CurrentBacklightValue = Backlight;
 1995              		.loc 1 615 0
 1996 002c FB68     		ldr	r3, [r7, #12]
 1997 002e DAB2     		uxtb	r2, r3
 1998 0030 044B     		ldr	r3, .L113
 1999 0032 1A70     		strb	r2, [r3]
 616:.\main.c      ****     sprintf((char *)CurrentBacklightValueString,"%d",Backlight);   
 2000              		.loc 1 616 0
 2001 0034 0448     		ldr	r0, .L113+4
 2002 0036 0549     		ldr	r1, .L113+8
 2003 0038 FA68     		ldr	r2, [r7, #12]
 2004 003a FFF7FEFF 		bl	sprintf
 617:.\main.c      **** }
 2005              		.loc 1 617 0
 2006 003e 1037     		adds	r7, r7, #16
 2007              		.cfi_def_cfa_offset 8
 2008 0040 BD46     		mov	sp, r7
 2009              		.cfi_def_cfa_register 13
 2010              		@ sp needed
 2011 0042 80BD     		pop	{r7, pc}
 2012              	.L114:
 2013              		.align	2
 2014              	.L113:
 2015 0044 00000000 		.word	CurrentBacklightValue
 2016 0048 00000000 		.word	CurrentBacklightValueString
 2017 004c D4000000 		.word	.LC16
 2018              		.cfi_endproc
 2019              	.LFE77:
 2020              		.size	SetBacklight, .-SetBacklight
 2021              		.text
 2022              	.Letext0:
 2023              		.file 2 "c:\\program files (x86)\\cypress\\psoc creator\\3.3\\psoc creator\\import\\gnu\\arm\\4.9.
 2024              		.file 3 "c:\\program files (x86)\\cypress\\psoc creator\\3.3\\psoc creator\\import\\gnu\\arm\\4.9.
 2025              		.file 4 "Generated_Source\\PSoC5/cytypes.h"
ARM GAS  C:\Users\Shiguruy\AppData\Local\Temp\ccXfZjiw.s 			page 48


 2026              		.file 5 ".\\u8g.h"
 2027              		.file 6 "Generated_Source\\PSoC5/core_cm3.h"