ARM GAS  C:\Users\KJA\AppData\Local\Temp\ccqvIRL8.s 			page 1


   1              		.syntax unified
   2              		.cpu cortex-m3
   3              		.fpu softvfp
   4              		.eabi_attribute 20, 1
   5              		.eabi_attribute 21, 1
   6              		.eabi_attribute 23, 3
   7              		.eabi_attribute 24, 1
   8              		.eabi_attribute 25, 1
   9              		.eabi_attribute 26, 1
  10              		.eabi_attribute 30, 6
  11              		.eabi_attribute 34, 1
  12              		.eabi_attribute 18, 4
  13              		.thumb
  14              		.file	"main01.c"
  15              		.text
  16              	.Ltext0:
  17              		.cfi_sections	.debug_frame
  18              		.comm	Current_State,1,1
  19              		.comm	Previous_State,1,1
  20              		.comm	Sound_Enable,1,1
  21              		.comm	Current_Menu_Position,1,1
  22              		.comm	CurrentBacklightValue,1,1
  23              		.comm	CurrentBacklightValueString,8,4
  24              		.comm	CurrentVolumeValue,1,1
  25              		.comm	CurrentVolumeValueString,8,4
  26              		.comm	Current_Calibration_Range1,4,4
  27              		.comm	Current_Calibration_Range2,4,4
  28              		.comm	Current_Calibration_Range3,4,4
  29              		.comm	LEM_Offset_Value,1,1
  30              		.comm	Two_Wire_Range,4,4
  31              		.comm	Four_Wire_Range,4,4
  32              		.comm	Four_Wire_Method,1,1
  33              		.comm	Actual_Range,1,1
  34              		.comm	View_Mode,1,1
  35              		.comm	qdCount,2,2
  36              		.comm	Last_qdCount,2,2
  37              		.comm	button1,1,1
  38              		.comm	button2,1,1
  39              		.comm	button3,1,1
  40              		.comm	button4,1,1
  41              		.comm	button5,1,1
  42              		.comm	button6,1,1
  43              		.comm	push,1,1
  44              		.comm	OutputEnable,1,1
  45              		.comm	u8g,60,4
  46              		.comm	Push_Buzzer__Default_Lenght,4,4
  47              		.comm	Rotate_Buzzer__Default_Lenght,4,4
  48              		.comm	Edit_Value_Mode,1,1
  49              		.comm	cVoltage_Actual,16,4
  50              		.comm	cCurrent_Actual,16,4
  51              		.comm	cPower_Actual,16,4
  52              		.comm	cResist_Actual,16,4
  53              		.comm	cVoltage_Set,16,4
  54              		.comm	cCurrent_Set,16,4
  55              		.comm	cPower_Set,16,4
  56              		.comm	cResist_Set,16,4
  57              		.comm	TestChar,16,4
ARM GAS  C:\Users\KJA\AppData\Local\Temp\ccqvIRL8.s 			page 2


  58              		.comm	XPosition,2,2
  59              		.comm	cXPosition,16,4
  60              		.comm	YPosition,2,2
  61              		.comm	cYPosition,16,4
  62              		.comm	Touched,1,1
  63              		.comm	MeasuredVoltage,2,2
  64              		.comm	fVoltage,4,4
  65              		.comm	MeasuredCurrent,2,2
  66              		.comm	fCurrent,4,4
  67              		.comm	Power,2,2
  68              		.comm	fPower,4,4
  69              		.comm	Resist,2,2
  70              		.comm	fResist,4,4
  71              		.comm	Set_Voltage,4,4
  72              		.comm	Set_Current,4,4
  73              		.comm	Set_Current_Temporary_Value,4,4
  74              		.comm	Set_Power,4,4
  75              		.comm	Set_Power_Temporary_Value,4,4
  76              		.comm	Set_Resist,4,4
  77              		.comm	Set_Resist_Temporary_Value,4,4
  78              		.comm	Position_Number,1,1
  79              		.comm	MaxPower,4,4
  80              		.comm	MaxVoltage,4,4
  81              		.comm	MaxCurrent,4,4
  82              		.comm	MinResistance,4,4
  83              		.comm	MaxResistance,4,4
  84              		.comm	C_Kp,4,4
  85              		.comm	C_Ki,4,4
  86              		.comm	C_Kd,4,4
  87              		.comm	Max_FET_Temp,1,1
  88              		.comm	OverTemperature,1,1
  89              		.comm	Set_Ampl,2,2
  90              		.comm	Set_Ampl_Temporary_Value,2,2
  91              		.comm	Set_Freq,2,2
  92              		.comm	Set_Freq_Temporary_Value,4,4
  93              		.comm	Set_Duty,1,1
  94              		.comm	Set_Duty_Temporary_Value,1,1
  95              		.comm	cSet_Ampl,16,4
  96              		.comm	cSet_Freq,16,4
  97              		.comm	cSet_Duty,16,4
  98              		.comm	Current_Edit_Value,1,1
  99              		.comm	Actual_Multiplier_Value,1,1
 100              		.comm	cCounter,32,4
 101              		.comm	deltaT,1,1
 102              		.comm	Avarage_FET_Temp,4,4
 103              		.comm	Current_DIE_Temp,2,2
 104              		.comm	Current_DIE_TempString,8,4
 105              		.comm	Current_FET_Temp,1,1
 106              		.comm	Current_FET_TempString,8,4
 107              		.global _printf_float
 108              		.thumb
 109              		.global	Main_Counter
 110              		.bss
 111              		.align	2
 112              		.type	Main_Counter, %object
 113              		.size	Main_Counter, 4
 114              	Main_Counter:
ARM GAS  C:\Users\KJA\AppData\Local\Temp\ccqvIRL8.s 			page 3


 115 0000 00000000 		.space	4
 116              		.section	.text.main,"ax",%progbits
 117              		.align	2
 118              		.global	main
 119              		.thumb
 120              		.thumb_func
 121              		.type	main, %function
 122              	main:
 123              	.LFB63:
 124              		.file 1 "main01.c"
   1:main01.c      **** // Krystian Jagoda krystianjagoda@gmail.com
   2:main01.c      **** // Active Load - Master Thesis 2015-2016
   3:main01.c      **** 
   4:main01.c      **** #include <device.h>
   5:main01.c      **** #include <stdio.h>
   6:main01.c      **** #include "u8g_arm.h"
   7:main01.c      **** 
   8:main01.c      **** #include "global_variables.h"
   9:main01.c      **** #include "state_machine.h"
  10:main01.c      **** #include "LCD_Menu.h"
  11:main01.c      **** #include "temp_manage.h"
  12:main01.c      **** 
  13:main01.c      **** #if defined (__GNUC__)
  14:main01.c      ****     asm (".global _printf_float");  /* Add an explicit reference to the floating point printf libra
  15:main01.c      **** #endif
  16:main01.c      **** 
  17:main01.c      **** //-------------------------------------------------------------------------------------------------
  18:main01.c      **** 
  19:main01.c      **** 
  20:main01.c      **** void Initialize(void);
  21:main01.c      **** 
  22:main01.c      **** 
  23:main01.c      **** uint32 Main_Counter = 0;
  24:main01.c      **** 
  25:main01.c      **** 
  26:main01.c      **** //-------------------------------------------------------------------------------------------------
  27:main01.c      **** int main()
  28:main01.c      **** {
 125              		.loc 1 28 0
 126              		.cfi_startproc
 127              		@ args = 0, pretend = 0, frame = 0
 128              		@ frame_needed = 1, uses_anonymous_args = 0
 129 0000 80B5     		push	{r7, lr}
 130              		.cfi_def_cfa_offset 8
 131              		.cfi_offset 7, -8
 132              		.cfi_offset 14, -4
 133 0002 00AF     		add	r7, sp, #0
 134              		.cfi_def_cfa_register 7
  29:main01.c      ****     // Set Limit Values Here
  30:main01.c      ****     MaxPower = 130.00;
 135              		.loc 1 30 0
 136 0004 344B     		ldr	r3, .L4
 137 0006 354A     		ldr	r2, .L4+4
 138 0008 1A60     		str	r2, [r3]	@ float
  31:main01.c      ****     MaxVoltage = 28.00;
 139              		.loc 1 31 0
 140 000a 354B     		ldr	r3, .L4+8
ARM GAS  C:\Users\KJA\AppData\Local\Temp\ccqvIRL8.s 			page 4


 141 000c 354A     		ldr	r2, .L4+12
 142 000e 1A60     		str	r2, [r3]	@ float
  32:main01.c      ****     MaxCurrent = 2.00;
 143              		.loc 1 32 0
 144 0010 354B     		ldr	r3, .L4+16
 145 0012 4FF08042 		mov	r2, #1073741824
 146 0016 1A60     		str	r2, [r3]	@ float
  33:main01.c      ****     MinResistance = 8;
 147              		.loc 1 33 0
 148 0018 344B     		ldr	r3, .L4+20
 149 001a 4FF08242 		mov	r2, #1090519040
 150 001e 1A60     		str	r2, [r3]	@ float
  34:main01.c      ****     MaxResistance = 2000;
 151              		.loc 1 34 0
 152 0020 334B     		ldr	r3, .L4+24
 153 0022 344A     		ldr	r2, .L4+28
 154 0024 1A60     		str	r2, [r3]	@ float
  35:main01.c      ****     Max_FET_Temp = 40;
 155              		.loc 1 35 0
 156 0026 344B     		ldr	r3, .L4+32
 157 0028 2822     		movs	r2, #40
 158 002a 1A70     		strb	r2, [r3]
  36:main01.c      ****     
  37:main01.c      ****     // Set Current PID Regulator Here
  38:main01.c      ****     C_Kp = 1.00;
 159              		.loc 1 38 0
 160 002c 334B     		ldr	r3, .L4+36
 161 002e 4FF07E52 		mov	r2, #1065353216
 162 0032 1A60     		str	r2, [r3]	@ float
  39:main01.c      ****     C_Ki = 0.00;
 163              		.loc 1 39 0
 164 0034 324B     		ldr	r3, .L4+40
 165 0036 4FF00002 		mov	r2, #0
 166 003a 1A60     		str	r2, [r3]	@ float
  40:main01.c      ****     C_Kd = 0.00;
 167              		.loc 1 40 0
 168 003c 314B     		ldr	r3, .L4+44
 169 003e 4FF00002 		mov	r2, #0
 170 0042 1A60     		str	r2, [r3]	@ float
  41:main01.c      ****     
  42:main01.c      ****     //Set Calibration Values Here:
  43:main01.c      ****     Current_Calibration_Range1 = 1.05;
 171              		.loc 1 43 0
 172 0044 304B     		ldr	r3, .L4+48
 173 0046 314A     		ldr	r2, .L4+52
 174 0048 1A60     		str	r2, [r3]	@ float
  44:main01.c      ****     Current_Calibration_Range2 = 2.60;
 175              		.loc 1 44 0
 176 004a 314B     		ldr	r3, .L4+56
 177 004c 314A     		ldr	r2, .L4+60
 178 004e 1A60     		str	r2, [r3]	@ float
  45:main01.c      ****     Current_Calibration_Range3 = 5.24;
 179              		.loc 1 45 0
 180 0050 314B     		ldr	r3, .L4+64
 181 0052 324A     		ldr	r2, .L4+68
 182 0054 1A60     		str	r2, [r3]	@ float
  46:main01.c      ****     
ARM GAS  C:\Users\KJA\AppData\Local\Temp\ccqvIRL8.s 			page 5


  47:main01.c      ****     LEM_Offset_Value = 33;
 183              		.loc 1 47 0
 184 0056 324B     		ldr	r3, .L4+72
 185 0058 2122     		movs	r2, #33
 186 005a 1A70     		strb	r2, [r3]
  48:main01.c      ****     
  49:main01.c      ****     Two_Wire_Range = 15.00;
 187              		.loc 1 49 0
 188 005c 314B     		ldr	r3, .L4+76
 189 005e 324A     		ldr	r2, .L4+80
 190 0060 1A60     		str	r2, [r3]	@ float
  50:main01.c      ****     Four_Wire_Range = 14.63;
 191              		.loc 1 50 0
 192 0062 324B     		ldr	r3, .L4+84
 193 0064 324A     		ldr	r2, .L4+88
 194 0066 1A60     		str	r2, [r3]	@ float
  51:main01.c      ****     
  52:main01.c      ****     // Interface Values
  53:main01.c      ****     CurrentVolumeValue = 1;         //10 is Max
 195              		.loc 1 53 0
 196 0068 324B     		ldr	r3, .L4+92
 197 006a 0122     		movs	r2, #1
 198 006c 1A70     		strb	r2, [r3]
  54:main01.c      ****     CurrentBacklightValue = 7;      //10 is Max
 199              		.loc 1 54 0
 200 006e 324B     		ldr	r3, .L4+96
 201 0070 0722     		movs	r2, #7
 202 0072 1A70     		strb	r2, [r3]
  55:main01.c      ****     Push_Buzzer__Default_Lenght = 5000;
 203              		.loc 1 55 0
 204 0074 314B     		ldr	r3, .L4+100
 205 0076 41F28832 		movw	r2, #5000
 206 007a 1A60     		str	r2, [r3]
  56:main01.c      ****     Rotate_Buzzer__Default_Lenght = 1000;
 207              		.loc 1 56 0
 208 007c 304B     		ldr	r3, .L4+104
 209 007e 4FF47A72 		mov	r2, #1000
 210 0082 1A60     		str	r2, [r3]
  57:main01.c      ****     
  58:main01.c      ****     CyDelay(100); // 100ms Delay
 211              		.loc 1 58 0
 212 0084 6420     		movs	r0, #100
 213 0086 FFF7FEFF 		bl	CyDelay
  59:main01.c      ****     
  60:main01.c      ****     Initialize();
 214              		.loc 1 60 0
 215 008a FFF7FEFF 		bl	Initialize
  61:main01.c      ****     
  62:main01.c      ****     
  63:main01.c      ****     Previous_State = Home;
 216              		.loc 1 63 0
 217 008e 2D4B     		ldr	r3, .L4+108
 218 0090 0122     		movs	r2, #1
 219 0092 1A70     		strb	r2, [r3]
  64:main01.c      ****     Current_State = Home;
 220              		.loc 1 64 0
 221 0094 2C4B     		ldr	r3, .L4+112
ARM GAS  C:\Users\KJA\AppData\Local\Temp\ccqvIRL8.s 			page 6


 222 0096 0122     		movs	r2, #1
 223 0098 1A70     		strb	r2, [r3]
  65:main01.c      ****     
  66:main01.c      ****    // Current_State = Develop;
  67:main01.c      **** 
  68:main01.c      **** 
  69:main01.c      ****     QD_SetCounter(3);
 224              		.loc 1 69 0
 225 009a 0320     		movs	r0, #3
 226 009c FFF7FEFF 		bl	QD_SetCounter
  70:main01.c      ****     OutputEnable = 0;
 227              		.loc 1 70 0
 228 00a0 2A4B     		ldr	r3, .L4+116
 229 00a2 0022     		movs	r2, #0
 230 00a4 1A70     		strb	r2, [r3]
 231              	.L3:
  71:main01.c      ****     
  72:main01.c      **** 
  73:main01.c      ****     
  74:main01.c      ****     
  75:main01.c      ****     
  76:main01.c      ****     
  77:main01.c      **** 
  78:main01.c      ****     
  79:main01.c      **** //-------------------------------------------------------------------------------------------------
  80:main01.c      ****     while(1)
  81:main01.c      ****     {
  82:main01.c      **** 
  83:main01.c      **** 
  84:main01.c      ****         Check_Buttons();
 232              		.loc 1 84 0
 233 00a6 FFF7FEFF 		bl	Check_Buttons
  85:main01.c      ****         State_Machine();
 234              		.loc 1 85 0
 235 00aa FFF7FEFF 		bl	State_Machine
  86:main01.c      ****         
  87:main01.c      ****         
  88:main01.c      ****         Main_Counter++;
 236              		.loc 1 88 0
 237 00ae 284B     		ldr	r3, .L4+120
 238 00b0 1B68     		ldr	r3, [r3]
 239 00b2 0133     		adds	r3, r3, #1
 240 00b4 264A     		ldr	r2, .L4+120
 241 00b6 1360     		str	r3, [r2]
  89:main01.c      ****         if(Main_Counter >= 5000){
 242              		.loc 1 89 0
 243 00b8 254B     		ldr	r3, .L4+120
 244 00ba 1B68     		ldr	r3, [r3]
 245 00bc 41F28732 		movw	r2, #4999
 246 00c0 9342     		cmp	r3, r2
 247 00c2 08D9     		bls	.L2
  90:main01.c      ****             Temp_Management(Max_FET_Temp);
 248              		.loc 1 90 0
 249 00c4 0C4B     		ldr	r3, .L4+32
 250 00c6 1B78     		ldrb	r3, [r3]	@ zero_extendqisi2
 251 00c8 DBB2     		uxtb	r3, r3
 252 00ca 1846     		mov	r0, r3
ARM GAS  C:\Users\KJA\AppData\Local\Temp\ccqvIRL8.s 			page 7


 253 00cc FFF7FEFF 		bl	Temp_Management
  91:main01.c      ****             Main_Counter = 0;
 254              		.loc 1 91 0
 255 00d0 1F4B     		ldr	r3, .L4+120
 256 00d2 0022     		movs	r2, #0
 257 00d4 1A60     		str	r2, [r3]
 258              	.L2:
  92:main01.c      ****         }
  93:main01.c      ****         
  94:main01.c      ****     }
 259              		.loc 1 94 0
 260 00d6 E6E7     		b	.L3
 261              	.L5:
 262              		.align	2
 263              	.L4:
 264 00d8 00000000 		.word	MaxPower
 265 00dc 00000243 		.word	1124204544
 266 00e0 00000000 		.word	MaxVoltage
 267 00e4 0000E041 		.word	1105199104
 268 00e8 00000000 		.word	MaxCurrent
 269 00ec 00000000 		.word	MinResistance
 270 00f0 00000000 		.word	MaxResistance
 271 00f4 0000FA44 		.word	1157234688
 272 00f8 00000000 		.word	Max_FET_Temp
 273 00fc 00000000 		.word	C_Kp
 274 0100 00000000 		.word	C_Ki
 275 0104 00000000 		.word	C_Kd
 276 0108 00000000 		.word	Current_Calibration_Range1
 277 010c 6666863F 		.word	1065772646
 278 0110 00000000 		.word	Current_Calibration_Range2
 279 0114 66662640 		.word	1076258406
 280 0118 00000000 		.word	Current_Calibration_Range3
 281 011c 14AEA740 		.word	1084730900
 282 0120 00000000 		.word	LEM_Offset_Value
 283 0124 00000000 		.word	Two_Wire_Range
 284 0128 00007041 		.word	1097859072
 285 012c 00000000 		.word	Four_Wire_Range
 286 0130 7B146A41 		.word	1097471099
 287 0134 00000000 		.word	CurrentVolumeValue
 288 0138 00000000 		.word	CurrentBacklightValue
 289 013c 00000000 		.word	Push_Buzzer__Default_Lenght
 290 0140 00000000 		.word	Rotate_Buzzer__Default_Lenght
 291 0144 00000000 		.word	Previous_State
 292 0148 00000000 		.word	Current_State
 293 014c 00000000 		.word	OutputEnable
 294 0150 00000000 		.word	Main_Counter
 295              		.cfi_endproc
 296              	.LFE63:
 297              		.size	main, .-main
 298              		.section	.text.Initialize,"ax",%progbits
 299              		.align	2
 300              		.global	Initialize
 301              		.thumb
 302              		.thumb_func
 303              		.type	Initialize, %function
 304              	Initialize:
 305              	.LFB64:
ARM GAS  C:\Users\KJA\AppData\Local\Temp\ccqvIRL8.s 			page 8


  95:main01.c      **** }
  96:main01.c      **** //-------------------------------------------------------------------------------------------------
  97:main01.c      **** 
  98:main01.c      **** 
  99:main01.c      **** void Initialize(void){
 306              		.loc 1 99 0
 307              		.cfi_startproc
 308              		@ args = 0, pretend = 0, frame = 0
 309              		@ frame_needed = 1, uses_anonymous_args = 0
 310 0000 80B5     		push	{r7, lr}
 311              		.cfi_def_cfa_offset 8
 312              		.cfi_offset 7, -8
 313              		.cfi_offset 14, -4
 314 0002 00AF     		add	r7, sp, #0
 315              		.cfi_def_cfa_register 7
 100:main01.c      ****     //Enable global interrupts
 101:main01.c      ****     CyGlobalIntEnable;
 316              		.loc 1 101 0
 317              	@ 101 "main01.c" 1
 318 0004 62B6     		CPSIE   i
 319              	@ 0 "" 2
 102:main01.c      ****       
 103:main01.c      ****     // Driver
 104:main01.c      ****     DAC_MUX_Select(0);
 320              		.loc 1 104 0
 321              		.thumb
 322 0006 0020     		movs	r0, #0
 323 0008 FFF7FEFF 		bl	DAC_MUX_Select
 105:main01.c      ****     WaveDAC8_1_Start();    
 324              		.loc 1 105 0
 325 000c FFF7FEFF 		bl	WaveDAC8_1_Start
 106:main01.c      ****     DVDAC8_1_Start();  
 326              		.loc 1 106 0
 327 0010 FFF7FEFF 		bl	DVDAC8_1_Start
 107:main01.c      ****     ADC_SAR_1_Start();
 328              		.loc 1 107 0
 329 0014 FFF7FEFF 		bl	ADC_SAR_1_Start
 108:main01.c      ****     ADC_SAR_1_StartConvert();    
 330              		.loc 1 108 0
 331 0018 FFF7FEFF 		bl	ADC_SAR_1_StartConvert
 109:main01.c      ****     ADC_SAR_2_Start();
 332              		.loc 1 109 0
 333 001c FFF7FEFF 		bl	ADC_SAR_2_Start
 110:main01.c      ****     ADC_SAR_2_StartConvert();
 334              		.loc 1 110 0
 335 0020 FFF7FEFF 		bl	ADC_SAR_2_StartConvert
 111:main01.c      ****     
 112:main01.c      ****     //I2C
 113:main01.c      ****     I2C_Start();
 336              		.loc 1 113 0
 337 0024 FFF7FEFF 		bl	I2C_Start
 114:main01.c      ****     
 115:main01.c      ****     // Clocks
 116:main01.c      ****     Clock_QD_1_Start();
 338              		.loc 1 116 0
 339 0028 FFF7FEFF 		bl	Clock_QD_1_Start
 117:main01.c      ****     Clock_QD_2_Start();
ARM GAS  C:\Users\KJA\AppData\Local\Temp\ccqvIRL8.s 			page 9


 340              		.loc 1 117 0
 341 002c FFF7FEFF 		bl	Clock_QD_2_Start
 118:main01.c      ****     Clock_QD_4_Start();
 342              		.loc 1 118 0
 343 0030 FFF7FEFF 		bl	Clock_QD_4_Start
 119:main01.c      ****     Clock_FAN_Start();
 344              		.loc 1 119 0
 345 0034 FFF7FEFF 		bl	Clock_FAN_Start
 120:main01.c      ****     
 121:main01.c      ****     //LCD
 122:main01.c      ****     u8g_InitComFn(&u8g, &u8g_dev_st7565_dogm128_hw_spi, u8g_com_hw_spi_fn);
 346              		.loc 1 122 0
 347 0038 1248     		ldr	r0, .L7
 348 003a 1349     		ldr	r1, .L7+4
 349 003c 134A     		ldr	r2, .L7+8
 350 003e FFF7FEFF 		bl	u8g_InitComFn
 123:main01.c      ****     u8g_SetContrast(&u8g,55); // Ustawienie kontrastu
 351              		.loc 1 123 0
 352 0042 1048     		ldr	r0, .L7
 353 0044 3721     		movs	r1, #55
 354 0046 FFF7FEFF 		bl	u8g_SetContrast
 124:main01.c      ****     PWM_Back_Start();   
 355              		.loc 1 124 0
 356 004a FFF7FEFF 		bl	PWM_Back_Start
 125:main01.c      ****     SetBacklight(CurrentBacklightValue);
 357              		.loc 1 125 0
 358 004e 104B     		ldr	r3, .L7+12
 359 0050 1B78     		ldrb	r3, [r3]	@ zero_extendqisi2
 360 0052 1846     		mov	r0, r3
 361 0054 FFF7FEFF 		bl	SetBacklight
 126:main01.c      ****     
 127:main01.c      ****     //Buzzer
 128:main01.c      ****     Sound_Enable = 1;
 362              		.loc 1 128 0
 363 0058 0E4B     		ldr	r3, .L7+16
 364 005a 0122     		movs	r2, #1
 365 005c 1A70     		strb	r2, [r3]
 129:main01.c      ****     PWM_Buzz_Start(); 
 366              		.loc 1 129 0
 367 005e FFF7FEFF 		bl	PWM_Buzz_Start
 130:main01.c      ****     SetVolume(CurrentVolumeValue);
 368              		.loc 1 130 0
 369 0062 0D4B     		ldr	r3, .L7+20
 370 0064 1B78     		ldrb	r3, [r3]	@ zero_extendqisi2
 371 0066 1846     		mov	r0, r3
 372 0068 FFF7FEFF 		bl	SetVolume
 131:main01.c      ****     
 132:main01.c      ****     //Encoder
 133:main01.c      ****     QD_Start();    
 373              		.loc 1 133 0
 374 006c FFF7FEFF 		bl	QD_Start
 134:main01.c      ****     
 135:main01.c      ****     //Temperature
 136:main01.c      ****     Current_FET_Temp = 1;  //Dummy change for initial check pass...
 375              		.loc 1 136 0
 376 0070 0A4B     		ldr	r3, .L7+24
 377 0072 0122     		movs	r2, #1
ARM GAS  C:\Users\KJA\AppData\Local\Temp\ccqvIRL8.s 			page 10


 378 0074 1A70     		strb	r2, [r3]
 137:main01.c      ****     
 138:main01.c      ****     Actual_Range = 1;
 379              		.loc 1 138 0
 380 0076 0A4B     		ldr	r3, .L7+28
 381 0078 0122     		movs	r2, #1
 382 007a 1A70     		strb	r2, [r3]
 139:main01.c      ****     Four_Wire_Method = 1;            
 383              		.loc 1 139 0
 384 007c 094B     		ldr	r3, .L7+32
 385 007e 0122     		movs	r2, #1
 386 0080 1A70     		strb	r2, [r3]
 140:main01.c      ****     
 141:main01.c      **** }   
 387              		.loc 1 141 0
 388 0082 80BD     		pop	{r7, pc}
 389              	.L8:
 390              		.align	2
 391              	.L7:
 392 0084 00000000 		.word	u8g
 393 0088 00000000 		.word	u8g_dev_st7565_dogm128_hw_spi
 394 008c 00000000 		.word	u8g_com_hw_spi_fn
 395 0090 00000000 		.word	CurrentBacklightValue
 396 0094 00000000 		.word	Sound_Enable
 397 0098 00000000 		.word	CurrentVolumeValue
 398 009c 00000000 		.word	Current_FET_Temp
 399 00a0 00000000 		.word	Actual_Range
 400 00a4 00000000 		.word	Four_Wire_Method
 401              		.cfi_endproc
 402              	.LFE64:
 403              		.size	Initialize, .-Initialize
 404              		.text
 405              	.Letext0:
 406              		.file 2 "c:\\program files (x86)\\cypress\\psoc creator\\4.0\\psoc creator\\import\\gnu\\arm\\4.9.
 407              		.file 3 "c:\\program files (x86)\\cypress\\psoc creator\\4.0\\psoc creator\\import\\gnu\\arm\\4.9.
 408              		.file 4 "Generated_Source\\PSoC5/cytypes.h"
 409              		.file 5 "u8g.h"
 410              		.file 6 "Generated_Source\\PSoC5/core_cm3.h"
 411              		.file 7 "global_variables.h"
 412              		.file 8 "temp_manage.h"