ARM GAS  C:\Users\KJA\AppData\Local\Temp\ccTHJtLl.s 			page 1


   1              		.syntax unified
   2              		.cpu cortex-m3
   3              		.fpu softvfp
   4              		.eabi_attribute 20, 1
   5              		.eabi_attribute 21, 1
   6              		.eabi_attribute 23, 3
   7              		.eabi_attribute 24, 1
   8              		.eabi_attribute 25, 1
   9              		.eabi_attribute 26, 1
  10              		.eabi_attribute 30, 6
  11              		.eabi_attribute 34, 1
  12              		.eabi_attribute 18, 4
  13              		.thumb
  14              		.file	"PWM_Driver.c"
  15              		.text
  16              	.Ltext0:
  17              		.cfi_sections	.debug_frame
  18              		.global	PWM_Driver_initVar
  19              		.bss
  20              		.type	PWM_Driver_initVar, %object
  21              		.size	PWM_Driver_initVar, 1
  22              	PWM_Driver_initVar:
  23 0000 00       		.space	1
  24              		.section	.text.PWM_Driver_Start,"ax",%progbits
  25              		.align	2
  26              		.global	PWM_Driver_Start
  27              		.thumb
  28              		.thumb_func
  29              		.type	PWM_Driver_Start, %function
  30              	PWM_Driver_Start:
  31              	.LFB0:
  32              		.file 1 "Generated_Source\\PSoC5\\PWM_Driver.c"
   1:Generated_Source\PSoC5/PWM_Driver.c **** /*******************************************************************************
   2:Generated_Source\PSoC5/PWM_Driver.c **** * File Name: PWM_Driver.c
   3:Generated_Source\PSoC5/PWM_Driver.c **** * Version 3.30
   4:Generated_Source\PSoC5/PWM_Driver.c **** *
   5:Generated_Source\PSoC5/PWM_Driver.c **** * Description:
   6:Generated_Source\PSoC5/PWM_Driver.c **** *  The PWM User Module consist of an 8 or 16-bit counter with two 8 or 16-bit
   7:Generated_Source\PSoC5/PWM_Driver.c **** *  comparitors. Each instance of this user module is capable of generating
   8:Generated_Source\PSoC5/PWM_Driver.c **** *  two PWM outputs with the same period. The pulse width is selectable between
   9:Generated_Source\PSoC5/PWM_Driver.c **** *  1 and 255/65535. The period is selectable between 2 and 255/65536 clocks.
  10:Generated_Source\PSoC5/PWM_Driver.c **** *  The compare value output may be configured to be active when the present
  11:Generated_Source\PSoC5/PWM_Driver.c **** *  counter is less than or less than/equal to the compare value.
  12:Generated_Source\PSoC5/PWM_Driver.c **** *  A terminal count output is also provided. It generates a pulse one clock
  13:Generated_Source\PSoC5/PWM_Driver.c **** *  width wide when the counter is equal to zero.
  14:Generated_Source\PSoC5/PWM_Driver.c **** *
  15:Generated_Source\PSoC5/PWM_Driver.c **** * Note:
  16:Generated_Source\PSoC5/PWM_Driver.c **** *
  17:Generated_Source\PSoC5/PWM_Driver.c **** *******************************************************************************
  18:Generated_Source\PSoC5/PWM_Driver.c **** * Copyright 2008-2014, Cypress Semiconductor Corporation.  All rights reserved.
  19:Generated_Source\PSoC5/PWM_Driver.c **** * You may use this file only in accordance with the license, terms, conditions,
  20:Generated_Source\PSoC5/PWM_Driver.c **** * disclaimers, and limitations in the end user license agreement accompanying
  21:Generated_Source\PSoC5/PWM_Driver.c **** * the software package with which this file was provided.
  22:Generated_Source\PSoC5/PWM_Driver.c **** ********************************************************************************/
  23:Generated_Source\PSoC5/PWM_Driver.c **** 
  24:Generated_Source\PSoC5/PWM_Driver.c **** #include "PWM_Driver.h"
  25:Generated_Source\PSoC5/PWM_Driver.c **** 
ARM GAS  C:\Users\KJA\AppData\Local\Temp\ccTHJtLl.s 			page 2


  26:Generated_Source\PSoC5/PWM_Driver.c **** /* Error message for removed <resource> through optimization */
  27:Generated_Source\PSoC5/PWM_Driver.c **** #ifdef PWM_Driver_PWMUDB_genblk1_ctrlreg__REMOVED
  28:Generated_Source\PSoC5/PWM_Driver.c ****     #error PWM_v3_30 detected with a constant 0 for the enable or \
  29:Generated_Source\PSoC5/PWM_Driver.c ****          constant 1 for reset. This will prevent the component from operating.
  30:Generated_Source\PSoC5/PWM_Driver.c **** #endif /* PWM_Driver_PWMUDB_genblk1_ctrlreg__REMOVED */
  31:Generated_Source\PSoC5/PWM_Driver.c **** 
  32:Generated_Source\PSoC5/PWM_Driver.c **** uint8 PWM_Driver_initVar = 0u;
  33:Generated_Source\PSoC5/PWM_Driver.c **** 
  34:Generated_Source\PSoC5/PWM_Driver.c **** 
  35:Generated_Source\PSoC5/PWM_Driver.c **** /*******************************************************************************
  36:Generated_Source\PSoC5/PWM_Driver.c **** * Function Name: PWM_Driver_Start
  37:Generated_Source\PSoC5/PWM_Driver.c **** ********************************************************************************
  38:Generated_Source\PSoC5/PWM_Driver.c **** *
  39:Generated_Source\PSoC5/PWM_Driver.c **** * Summary:
  40:Generated_Source\PSoC5/PWM_Driver.c **** *  The start function initializes the pwm with the default values, the
  41:Generated_Source\PSoC5/PWM_Driver.c **** *  enables the counter to begin counting.  It does not enable interrupts,
  42:Generated_Source\PSoC5/PWM_Driver.c **** *  the EnableInt command should be called if interrupt generation is required.
  43:Generated_Source\PSoC5/PWM_Driver.c **** *
  44:Generated_Source\PSoC5/PWM_Driver.c **** * Parameters:
  45:Generated_Source\PSoC5/PWM_Driver.c **** *  None
  46:Generated_Source\PSoC5/PWM_Driver.c **** *
  47:Generated_Source\PSoC5/PWM_Driver.c **** * Return:
  48:Generated_Source\PSoC5/PWM_Driver.c **** *  None
  49:Generated_Source\PSoC5/PWM_Driver.c **** *
  50:Generated_Source\PSoC5/PWM_Driver.c **** * Global variables:
  51:Generated_Source\PSoC5/PWM_Driver.c **** *  PWM_Driver_initVar: Is modified when this function is called for the
  52:Generated_Source\PSoC5/PWM_Driver.c **** *   first time. Is used to ensure that initialization happens only once.
  53:Generated_Source\PSoC5/PWM_Driver.c **** *
  54:Generated_Source\PSoC5/PWM_Driver.c **** *******************************************************************************/
  55:Generated_Source\PSoC5/PWM_Driver.c **** void PWM_Driver_Start(void) 
  56:Generated_Source\PSoC5/PWM_Driver.c **** {
  33              		.loc 1 56 0
  34              		.cfi_startproc
  35              		@ args = 0, pretend = 0, frame = 0
  36              		@ frame_needed = 1, uses_anonymous_args = 0
  37 0000 80B5     		push	{r7, lr}
  38              		.cfi_def_cfa_offset 8
  39              		.cfi_offset 7, -8
  40              		.cfi_offset 14, -4
  41 0002 00AF     		add	r7, sp, #0
  42              		.cfi_def_cfa_register 7
  57:Generated_Source\PSoC5/PWM_Driver.c ****     /* If not Initialized then initialize all required hardware and software */
  58:Generated_Source\PSoC5/PWM_Driver.c ****     if(PWM_Driver_initVar == 0u)
  43              		.loc 1 58 0
  44 0004 054B     		ldr	r3, .L3
  45 0006 1B78     		ldrb	r3, [r3]	@ zero_extendqisi2
  46 0008 002B     		cmp	r3, #0
  47 000a 04D1     		bne	.L2
  59:Generated_Source\PSoC5/PWM_Driver.c ****     {
  60:Generated_Source\PSoC5/PWM_Driver.c ****         PWM_Driver_Init();
  48              		.loc 1 60 0
  49 000c FFF7FEFF 		bl	PWM_Driver_Init
  61:Generated_Source\PSoC5/PWM_Driver.c ****         PWM_Driver_initVar = 1u;
  50              		.loc 1 61 0
  51 0010 024B     		ldr	r3, .L3
  52 0012 0122     		movs	r2, #1
  53 0014 1A70     		strb	r2, [r3]
ARM GAS  C:\Users\KJA\AppData\Local\Temp\ccTHJtLl.s 			page 3


  54              	.L2:
  62:Generated_Source\PSoC5/PWM_Driver.c ****     }
  63:Generated_Source\PSoC5/PWM_Driver.c ****     PWM_Driver_Enable();
  55              		.loc 1 63 0
  56 0016 FFF7FEFF 		bl	PWM_Driver_Enable
  64:Generated_Source\PSoC5/PWM_Driver.c **** 
  65:Generated_Source\PSoC5/PWM_Driver.c **** }
  57              		.loc 1 65 0
  58 001a 80BD     		pop	{r7, pc}
  59              	.L4:
  60              		.align	2
  61              	.L3:
  62 001c 00000000 		.word	PWM_Driver_initVar
  63              		.cfi_endproc
  64              	.LFE0:
  65              		.size	PWM_Driver_Start, .-PWM_Driver_Start
  66              		.section	.text.PWM_Driver_Init,"ax",%progbits
  67              		.align	2
  68              		.global	PWM_Driver_Init
  69              		.thumb
  70              		.thumb_func
  71              		.type	PWM_Driver_Init, %function
  72              	PWM_Driver_Init:
  73              	.LFB1:
  66:Generated_Source\PSoC5/PWM_Driver.c **** 
  67:Generated_Source\PSoC5/PWM_Driver.c **** 
  68:Generated_Source\PSoC5/PWM_Driver.c **** /*******************************************************************************
  69:Generated_Source\PSoC5/PWM_Driver.c **** * Function Name: PWM_Driver_Init
  70:Generated_Source\PSoC5/PWM_Driver.c **** ********************************************************************************
  71:Generated_Source\PSoC5/PWM_Driver.c **** *
  72:Generated_Source\PSoC5/PWM_Driver.c **** * Summary:
  73:Generated_Source\PSoC5/PWM_Driver.c **** *  Initialize component's parameters to the parameters set by user in the
  74:Generated_Source\PSoC5/PWM_Driver.c **** *  customizer of the component placed onto schematic. Usually called in
  75:Generated_Source\PSoC5/PWM_Driver.c **** *  PWM_Driver_Start().
  76:Generated_Source\PSoC5/PWM_Driver.c **** *
  77:Generated_Source\PSoC5/PWM_Driver.c **** * Parameters:
  78:Generated_Source\PSoC5/PWM_Driver.c **** *  None
  79:Generated_Source\PSoC5/PWM_Driver.c **** *
  80:Generated_Source\PSoC5/PWM_Driver.c **** * Return:
  81:Generated_Source\PSoC5/PWM_Driver.c **** *  None
  82:Generated_Source\PSoC5/PWM_Driver.c **** *
  83:Generated_Source\PSoC5/PWM_Driver.c **** *******************************************************************************/
  84:Generated_Source\PSoC5/PWM_Driver.c **** void PWM_Driver_Init(void) 
  85:Generated_Source\PSoC5/PWM_Driver.c **** {
  74              		.loc 1 85 0
  75              		.cfi_startproc
  76              		@ args = 0, pretend = 0, frame = 8
  77              		@ frame_needed = 1, uses_anonymous_args = 0
  78 0000 80B5     		push	{r7, lr}
  79              		.cfi_def_cfa_offset 8
  80              		.cfi_offset 7, -8
  81              		.cfi_offset 14, -4
  82 0002 82B0     		sub	sp, sp, #8
  83              		.cfi_def_cfa_offset 16
  84 0004 00AF     		add	r7, sp, #0
  85              		.cfi_def_cfa_register 7
  86:Generated_Source\PSoC5/PWM_Driver.c ****     #if (PWM_Driver_UsingFixedFunction || PWM_Driver_UseControl)
ARM GAS  C:\Users\KJA\AppData\Local\Temp\ccTHJtLl.s 			page 4


  87:Generated_Source\PSoC5/PWM_Driver.c ****         uint8 ctrl;
  88:Generated_Source\PSoC5/PWM_Driver.c ****     #endif /* (PWM_Driver_UsingFixedFunction || PWM_Driver_UseControl) */
  89:Generated_Source\PSoC5/PWM_Driver.c **** 
  90:Generated_Source\PSoC5/PWM_Driver.c ****     #if(!PWM_Driver_UsingFixedFunction)
  91:Generated_Source\PSoC5/PWM_Driver.c ****         #if(PWM_Driver_UseStatus)
  92:Generated_Source\PSoC5/PWM_Driver.c ****             /* Interrupt State Backup for Critical Region*/
  93:Generated_Source\PSoC5/PWM_Driver.c ****             uint8 PWM_Driver_interruptState;
  94:Generated_Source\PSoC5/PWM_Driver.c ****         #endif /* (PWM_Driver_UseStatus) */
  95:Generated_Source\PSoC5/PWM_Driver.c ****     #endif /* (!PWM_Driver_UsingFixedFunction) */
  96:Generated_Source\PSoC5/PWM_Driver.c **** 
  97:Generated_Source\PSoC5/PWM_Driver.c ****     #if (PWM_Driver_UsingFixedFunction)
  98:Generated_Source\PSoC5/PWM_Driver.c ****         /* You are allowed to write the compare value (FF only) */
  99:Generated_Source\PSoC5/PWM_Driver.c ****         PWM_Driver_CONTROL |= PWM_Driver_CFG0_MODE;
 100:Generated_Source\PSoC5/PWM_Driver.c ****         #if (PWM_Driver_DeadBand2_4)
 101:Generated_Source\PSoC5/PWM_Driver.c ****             PWM_Driver_CONTROL |= PWM_Driver_CFG0_DB;
 102:Generated_Source\PSoC5/PWM_Driver.c ****         #endif /* (PWM_Driver_DeadBand2_4) */
 103:Generated_Source\PSoC5/PWM_Driver.c **** 
 104:Generated_Source\PSoC5/PWM_Driver.c ****         ctrl = PWM_Driver_CONTROL3 & ((uint8 )(~PWM_Driver_CTRL_CMPMODE1_MASK));
 105:Generated_Source\PSoC5/PWM_Driver.c ****         PWM_Driver_CONTROL3 = ctrl | PWM_Driver_DEFAULT_COMPARE1_MODE;
 106:Generated_Source\PSoC5/PWM_Driver.c **** 
 107:Generated_Source\PSoC5/PWM_Driver.c ****          /* Clear and Set SYNCTC and SYNCCMP bits of RT1 register */
 108:Generated_Source\PSoC5/PWM_Driver.c ****         PWM_Driver_RT1 &= ((uint8)(~PWM_Driver_RT1_MASK));
 109:Generated_Source\PSoC5/PWM_Driver.c ****         PWM_Driver_RT1 |= PWM_Driver_SYNC;
 110:Generated_Source\PSoC5/PWM_Driver.c **** 
 111:Generated_Source\PSoC5/PWM_Driver.c ****         /*Enable DSI Sync all all inputs of the PWM*/
 112:Generated_Source\PSoC5/PWM_Driver.c ****         PWM_Driver_RT1 &= ((uint8)(~PWM_Driver_SYNCDSI_MASK));
 113:Generated_Source\PSoC5/PWM_Driver.c ****         PWM_Driver_RT1 |= PWM_Driver_SYNCDSI_EN;
 114:Generated_Source\PSoC5/PWM_Driver.c **** 
 115:Generated_Source\PSoC5/PWM_Driver.c ****     #elif (PWM_Driver_UseControl)
 116:Generated_Source\PSoC5/PWM_Driver.c ****         /* Set the default compare mode defined in the parameter */
 117:Generated_Source\PSoC5/PWM_Driver.c ****         ctrl = PWM_Driver_CONTROL & ((uint8)(~PWM_Driver_CTRL_CMPMODE2_MASK)) &
  86              		.loc 1 117 0
  87 0006 1F4B     		ldr	r3, .L6
  88 0008 1B78     		ldrb	r3, [r3]
  89 000a DBB2     		uxtb	r3, r3
  90 000c 23F03F03 		bic	r3, r3, #63
  91 0010 FB71     		strb	r3, [r7, #7]
 118:Generated_Source\PSoC5/PWM_Driver.c ****                 ((uint8)(~PWM_Driver_CTRL_CMPMODE1_MASK));
 119:Generated_Source\PSoC5/PWM_Driver.c ****         PWM_Driver_CONTROL = ctrl | PWM_Driver_DEFAULT_COMPARE2_MODE |
  92              		.loc 1 119 0
  93 0012 1C4A     		ldr	r2, .L6
  94 0014 FB79     		ldrb	r3, [r7, #7]
  95 0016 43F00903 		orr	r3, r3, #9
  96 001a DBB2     		uxtb	r3, r3
  97 001c 1370     		strb	r3, [r2]
 120:Generated_Source\PSoC5/PWM_Driver.c ****                                    PWM_Driver_DEFAULT_COMPARE1_MODE;
 121:Generated_Source\PSoC5/PWM_Driver.c ****     #endif /* (PWM_Driver_UsingFixedFunction) */
 122:Generated_Source\PSoC5/PWM_Driver.c **** 
 123:Generated_Source\PSoC5/PWM_Driver.c ****     #if (!PWM_Driver_UsingFixedFunction)
 124:Generated_Source\PSoC5/PWM_Driver.c ****         #if (PWM_Driver_Resolution == 8)
 125:Generated_Source\PSoC5/PWM_Driver.c ****             /* Set FIFO 0 to 1 byte register for period*/
 126:Generated_Source\PSoC5/PWM_Driver.c ****             PWM_Driver_AUX_CONTROLDP0 |= (PWM_Driver_AUX_CTRL_FIFO0_CLR);
 127:Generated_Source\PSoC5/PWM_Driver.c ****         #else /* (PWM_Driver_Resolution == 16)*/
 128:Generated_Source\PSoC5/PWM_Driver.c ****             /* Set FIFO 0 to 1 byte register for period */
 129:Generated_Source\PSoC5/PWM_Driver.c ****             PWM_Driver_AUX_CONTROLDP0 |= (PWM_Driver_AUX_CTRL_FIFO0_CLR);
  98              		.loc 1 129 0
  99 001e 1A4A     		ldr	r2, .L6+4
ARM GAS  C:\Users\KJA\AppData\Local\Temp\ccTHJtLl.s 			page 5


 100 0020 194B     		ldr	r3, .L6+4
 101 0022 1B78     		ldrb	r3, [r3]
 102 0024 DBB2     		uxtb	r3, r3
 103 0026 43F00103 		orr	r3, r3, #1
 104 002a DBB2     		uxtb	r3, r3
 105 002c 1370     		strb	r3, [r2]
 130:Generated_Source\PSoC5/PWM_Driver.c ****             PWM_Driver_AUX_CONTROLDP1 |= (PWM_Driver_AUX_CTRL_FIFO0_CLR);
 106              		.loc 1 130 0
 107 002e 174A     		ldr	r2, .L6+8
 108 0030 164B     		ldr	r3, .L6+8
 109 0032 1B78     		ldrb	r3, [r3]
 110 0034 DBB2     		uxtb	r3, r3
 111 0036 43F00103 		orr	r3, r3, #1
 112 003a DBB2     		uxtb	r3, r3
 113 003c 1370     		strb	r3, [r2]
 131:Generated_Source\PSoC5/PWM_Driver.c ****         #endif /* (PWM_Driver_Resolution == 8) */
 132:Generated_Source\PSoC5/PWM_Driver.c **** 
 133:Generated_Source\PSoC5/PWM_Driver.c ****         PWM_Driver_WriteCounter(PWM_Driver_INIT_PERIOD_VALUE);
 114              		.loc 1 133 0
 115 003e 4FF4FA70 		mov	r0, #500
 116 0042 FFF7FEFF 		bl	PWM_Driver_WriteCounter
 134:Generated_Source\PSoC5/PWM_Driver.c ****     #endif /* (!PWM_Driver_UsingFixedFunction) */
 135:Generated_Source\PSoC5/PWM_Driver.c **** 
 136:Generated_Source\PSoC5/PWM_Driver.c ****     PWM_Driver_WritePeriod(PWM_Driver_INIT_PERIOD_VALUE);
 117              		.loc 1 136 0
 118 0046 4FF4FA70 		mov	r0, #500
 119 004a FFF7FEFF 		bl	PWM_Driver_WritePeriod
 137:Generated_Source\PSoC5/PWM_Driver.c **** 
 138:Generated_Source\PSoC5/PWM_Driver.c ****         #if (PWM_Driver_UseOneCompareMode)
 139:Generated_Source\PSoC5/PWM_Driver.c ****             PWM_Driver_WriteCompare(PWM_Driver_INIT_COMPARE_VALUE1);
 120              		.loc 1 139 0
 121 004e FA20     		movs	r0, #250
 122 0050 FFF7FEFF 		bl	PWM_Driver_WriteCompare
 140:Generated_Source\PSoC5/PWM_Driver.c ****         #else
 141:Generated_Source\PSoC5/PWM_Driver.c ****             PWM_Driver_WriteCompare1(PWM_Driver_INIT_COMPARE_VALUE1);
 142:Generated_Source\PSoC5/PWM_Driver.c ****             PWM_Driver_WriteCompare2(PWM_Driver_INIT_COMPARE_VALUE2);
 143:Generated_Source\PSoC5/PWM_Driver.c ****         #endif /* (PWM_Driver_UseOneCompareMode) */
 144:Generated_Source\PSoC5/PWM_Driver.c **** 
 145:Generated_Source\PSoC5/PWM_Driver.c ****         #if (PWM_Driver_KillModeMinTime)
 146:Generated_Source\PSoC5/PWM_Driver.c ****             PWM_Driver_WriteKillTime(PWM_Driver_MinimumKillTime);
 147:Generated_Source\PSoC5/PWM_Driver.c ****         #endif /* (PWM_Driver_KillModeMinTime) */
 148:Generated_Source\PSoC5/PWM_Driver.c **** 
 149:Generated_Source\PSoC5/PWM_Driver.c ****         #if (PWM_Driver_DeadBandUsed)
 150:Generated_Source\PSoC5/PWM_Driver.c ****             PWM_Driver_WriteDeadTime(PWM_Driver_INIT_DEAD_TIME);
 151:Generated_Source\PSoC5/PWM_Driver.c ****         #endif /* (PWM_Driver_DeadBandUsed) */
 152:Generated_Source\PSoC5/PWM_Driver.c **** 
 153:Generated_Source\PSoC5/PWM_Driver.c ****     #if (PWM_Driver_UseStatus || PWM_Driver_UsingFixedFunction)
 154:Generated_Source\PSoC5/PWM_Driver.c ****         PWM_Driver_SetInterruptMode(PWM_Driver_INIT_INTERRUPTS_MODE);
 123              		.loc 1 154 0
 124 0054 0020     		movs	r0, #0
 125 0056 FFF7FEFF 		bl	PWM_Driver_SetInterruptMode
 155:Generated_Source\PSoC5/PWM_Driver.c ****     #endif /* (PWM_Driver_UseStatus || PWM_Driver_UsingFixedFunction) */
 156:Generated_Source\PSoC5/PWM_Driver.c **** 
 157:Generated_Source\PSoC5/PWM_Driver.c ****     #if (PWM_Driver_UsingFixedFunction)
 158:Generated_Source\PSoC5/PWM_Driver.c ****         /* Globally Enable the Fixed Function Block chosen */
 159:Generated_Source\PSoC5/PWM_Driver.c ****         PWM_Driver_GLOBAL_ENABLE |= PWM_Driver_BLOCK_EN_MASK;
 160:Generated_Source\PSoC5/PWM_Driver.c ****         /* Set the Interrupt source to come from the status register */
ARM GAS  C:\Users\KJA\AppData\Local\Temp\ccTHJtLl.s 			page 6


 161:Generated_Source\PSoC5/PWM_Driver.c ****         PWM_Driver_CONTROL2 |= PWM_Driver_CTRL2_IRQ_SEL;
 162:Generated_Source\PSoC5/PWM_Driver.c ****     #else
 163:Generated_Source\PSoC5/PWM_Driver.c ****         #if(PWM_Driver_UseStatus)
 164:Generated_Source\PSoC5/PWM_Driver.c **** 
 165:Generated_Source\PSoC5/PWM_Driver.c ****             /* CyEnterCriticalRegion and CyExitCriticalRegion are used to mark following region cri
 166:Generated_Source\PSoC5/PWM_Driver.c ****             /* Enter Critical Region*/
 167:Generated_Source\PSoC5/PWM_Driver.c ****             PWM_Driver_interruptState = CyEnterCriticalSection();
 126              		.loc 1 167 0
 127 005a FFF7FEFF 		bl	CyEnterCriticalSection
 128 005e 0346     		mov	r3, r0
 129 0060 BB71     		strb	r3, [r7, #6]
 168:Generated_Source\PSoC5/PWM_Driver.c ****             /* Use the interrupt output of the status register for IRQ output */
 169:Generated_Source\PSoC5/PWM_Driver.c ****             PWM_Driver_STATUS_AUX_CTRL |= PWM_Driver_STATUS_ACTL_INT_EN_MASK;
 130              		.loc 1 169 0
 131 0062 0A4A     		ldr	r2, .L6+8
 132 0064 094B     		ldr	r3, .L6+8
 133 0066 1B78     		ldrb	r3, [r3]
 134 0068 DBB2     		uxtb	r3, r3
 135 006a 43F01003 		orr	r3, r3, #16
 136 006e DBB2     		uxtb	r3, r3
 137 0070 1370     		strb	r3, [r2]
 170:Generated_Source\PSoC5/PWM_Driver.c **** 
 171:Generated_Source\PSoC5/PWM_Driver.c ****              /* Exit Critical Region*/
 172:Generated_Source\PSoC5/PWM_Driver.c ****             CyExitCriticalSection(PWM_Driver_interruptState);
 138              		.loc 1 172 0
 139 0072 BB79     		ldrb	r3, [r7, #6]	@ zero_extendqisi2
 140 0074 1846     		mov	r0, r3
 141 0076 FFF7FEFF 		bl	CyExitCriticalSection
 173:Generated_Source\PSoC5/PWM_Driver.c **** 
 174:Generated_Source\PSoC5/PWM_Driver.c ****             /* Clear the FIFO to enable the PWM_Driver_STATUS_FIFOFULL
 175:Generated_Source\PSoC5/PWM_Driver.c ****                    bit to be set on FIFO full. */
 176:Generated_Source\PSoC5/PWM_Driver.c ****             PWM_Driver_ClearFIFO();
 142              		.loc 1 176 0
 143 007a FFF7FEFF 		bl	PWM_Driver_ClearFIFO
 177:Generated_Source\PSoC5/PWM_Driver.c ****         #endif /* (PWM_Driver_UseStatus) */
 178:Generated_Source\PSoC5/PWM_Driver.c ****     #endif /* (PWM_Driver_UsingFixedFunction) */
 179:Generated_Source\PSoC5/PWM_Driver.c **** }
 144              		.loc 1 179 0
 145 007e 0837     		adds	r7, r7, #8
 146              		.cfi_def_cfa_offset 8
 147 0080 BD46     		mov	sp, r7
 148              		.cfi_def_cfa_register 13
 149              		@ sp needed
 150 0082 80BD     		pop	{r7, pc}
 151              	.L7:
 152              		.align	2
 153              	.L6:
 154 0084 7A640040 		.word	1073767546
 155 0088 99640040 		.word	1073767577
 156 008c 9A640040 		.word	1073767578
 157              		.cfi_endproc
 158              	.LFE1:
 159              		.size	PWM_Driver_Init, .-PWM_Driver_Init
 160              		.section	.text.PWM_Driver_Enable,"ax",%progbits
 161              		.align	2
 162              		.global	PWM_Driver_Enable
 163              		.thumb
ARM GAS  C:\Users\KJA\AppData\Local\Temp\ccTHJtLl.s 			page 7


 164              		.thumb_func
 165              		.type	PWM_Driver_Enable, %function
 166              	PWM_Driver_Enable:
 167              	.LFB2:
 180:Generated_Source\PSoC5/PWM_Driver.c **** 
 181:Generated_Source\PSoC5/PWM_Driver.c **** 
 182:Generated_Source\PSoC5/PWM_Driver.c **** /*******************************************************************************
 183:Generated_Source\PSoC5/PWM_Driver.c **** * Function Name: PWM_Driver_Enable
 184:Generated_Source\PSoC5/PWM_Driver.c **** ********************************************************************************
 185:Generated_Source\PSoC5/PWM_Driver.c **** *
 186:Generated_Source\PSoC5/PWM_Driver.c **** * Summary:
 187:Generated_Source\PSoC5/PWM_Driver.c **** *  Enables the PWM block operation
 188:Generated_Source\PSoC5/PWM_Driver.c **** *
 189:Generated_Source\PSoC5/PWM_Driver.c **** * Parameters:
 190:Generated_Source\PSoC5/PWM_Driver.c **** *  None
 191:Generated_Source\PSoC5/PWM_Driver.c **** *
 192:Generated_Source\PSoC5/PWM_Driver.c **** * Return:
 193:Generated_Source\PSoC5/PWM_Driver.c **** *  None
 194:Generated_Source\PSoC5/PWM_Driver.c **** *
 195:Generated_Source\PSoC5/PWM_Driver.c **** * Side Effects:
 196:Generated_Source\PSoC5/PWM_Driver.c **** *  This works only if software enable mode is chosen
 197:Generated_Source\PSoC5/PWM_Driver.c **** *
 198:Generated_Source\PSoC5/PWM_Driver.c **** *******************************************************************************/
 199:Generated_Source\PSoC5/PWM_Driver.c **** void PWM_Driver_Enable(void) 
 200:Generated_Source\PSoC5/PWM_Driver.c **** {
 168              		.loc 1 200 0
 169              		.cfi_startproc
 170              		@ args = 0, pretend = 0, frame = 0
 171              		@ frame_needed = 1, uses_anonymous_args = 0
 172              		@ link register save eliminated.
 173 0000 80B4     		push	{r7}
 174              		.cfi_def_cfa_offset 4
 175              		.cfi_offset 7, -4
 176 0002 00AF     		add	r7, sp, #0
 177              		.cfi_def_cfa_register 7
 201:Generated_Source\PSoC5/PWM_Driver.c ****     /* Globally Enable the Fixed Function Block chosen */
 202:Generated_Source\PSoC5/PWM_Driver.c ****     #if (PWM_Driver_UsingFixedFunction)
 203:Generated_Source\PSoC5/PWM_Driver.c ****         PWM_Driver_GLOBAL_ENABLE |= PWM_Driver_BLOCK_EN_MASK;
 204:Generated_Source\PSoC5/PWM_Driver.c ****         PWM_Driver_GLOBAL_STBY_ENABLE |= PWM_Driver_BLOCK_STBY_EN_MASK;
 205:Generated_Source\PSoC5/PWM_Driver.c ****     #endif /* (PWM_Driver_UsingFixedFunction) */
 206:Generated_Source\PSoC5/PWM_Driver.c **** 
 207:Generated_Source\PSoC5/PWM_Driver.c ****     /* Enable the PWM from the control register  */
 208:Generated_Source\PSoC5/PWM_Driver.c ****     #if (PWM_Driver_UseControl || PWM_Driver_UsingFixedFunction)
 209:Generated_Source\PSoC5/PWM_Driver.c ****         PWM_Driver_CONTROL |= PWM_Driver_CTRL_ENABLE;
 178              		.loc 1 209 0
 179 0004 054A     		ldr	r2, .L9
 180 0006 054B     		ldr	r3, .L9
 181 0008 1B78     		ldrb	r3, [r3]
 182 000a DBB2     		uxtb	r3, r3
 183 000c 63F07F03 		orn	r3, r3, #127
 184 0010 DBB2     		uxtb	r3, r3
 185 0012 1370     		strb	r3, [r2]
 210:Generated_Source\PSoC5/PWM_Driver.c ****     #endif /* (PWM_Driver_UseControl || PWM_Driver_UsingFixedFunction) */
 211:Generated_Source\PSoC5/PWM_Driver.c **** }
 186              		.loc 1 211 0
 187 0014 BD46     		mov	sp, r7
 188              		.cfi_def_cfa_register 13
ARM GAS  C:\Users\KJA\AppData\Local\Temp\ccTHJtLl.s 			page 8


 189              		@ sp needed
 190 0016 5DF8047B 		ldr	r7, [sp], #4
 191              		.cfi_restore 7
 192              		.cfi_def_cfa_offset 0
 193 001a 7047     		bx	lr
 194              	.L10:
 195              		.align	2
 196              	.L9:
 197 001c 7A640040 		.word	1073767546
 198              		.cfi_endproc
 199              	.LFE2:
 200              		.size	PWM_Driver_Enable, .-PWM_Driver_Enable
 201              		.section	.text.PWM_Driver_Stop,"ax",%progbits
 202              		.align	2
 203              		.global	PWM_Driver_Stop
 204              		.thumb
 205              		.thumb_func
 206              		.type	PWM_Driver_Stop, %function
 207              	PWM_Driver_Stop:
 208              	.LFB3:
 212:Generated_Source\PSoC5/PWM_Driver.c **** 
 213:Generated_Source\PSoC5/PWM_Driver.c **** 
 214:Generated_Source\PSoC5/PWM_Driver.c **** /*******************************************************************************
 215:Generated_Source\PSoC5/PWM_Driver.c **** * Function Name: PWM_Driver_Stop
 216:Generated_Source\PSoC5/PWM_Driver.c **** ********************************************************************************
 217:Generated_Source\PSoC5/PWM_Driver.c **** *
 218:Generated_Source\PSoC5/PWM_Driver.c **** * Summary:
 219:Generated_Source\PSoC5/PWM_Driver.c **** *  The stop function halts the PWM, but does not change any modes or disable
 220:Generated_Source\PSoC5/PWM_Driver.c **** *  interrupts.
 221:Generated_Source\PSoC5/PWM_Driver.c **** *
 222:Generated_Source\PSoC5/PWM_Driver.c **** * Parameters:
 223:Generated_Source\PSoC5/PWM_Driver.c **** *  None
 224:Generated_Source\PSoC5/PWM_Driver.c **** *
 225:Generated_Source\PSoC5/PWM_Driver.c **** * Return:
 226:Generated_Source\PSoC5/PWM_Driver.c **** *  None
 227:Generated_Source\PSoC5/PWM_Driver.c **** *
 228:Generated_Source\PSoC5/PWM_Driver.c **** * Side Effects:
 229:Generated_Source\PSoC5/PWM_Driver.c **** *  If the Enable mode is set to Hardware only then this function
 230:Generated_Source\PSoC5/PWM_Driver.c **** *  has no effect on the operation of the PWM
 231:Generated_Source\PSoC5/PWM_Driver.c **** *
 232:Generated_Source\PSoC5/PWM_Driver.c **** *******************************************************************************/
 233:Generated_Source\PSoC5/PWM_Driver.c **** void PWM_Driver_Stop(void) 
 234:Generated_Source\PSoC5/PWM_Driver.c **** {
 209              		.loc 1 234 0
 210              		.cfi_startproc
 211              		@ args = 0, pretend = 0, frame = 0
 212              		@ frame_needed = 1, uses_anonymous_args = 0
 213              		@ link register save eliminated.
 214 0000 80B4     		push	{r7}
 215              		.cfi_def_cfa_offset 4
 216              		.cfi_offset 7, -4
 217 0002 00AF     		add	r7, sp, #0
 218              		.cfi_def_cfa_register 7
 235:Generated_Source\PSoC5/PWM_Driver.c ****     #if (PWM_Driver_UseControl || PWM_Driver_UsingFixedFunction)
 236:Generated_Source\PSoC5/PWM_Driver.c ****         PWM_Driver_CONTROL &= ((uint8)(~PWM_Driver_CTRL_ENABLE));
 219              		.loc 1 236 0
 220 0004 054A     		ldr	r2, .L12
ARM GAS  C:\Users\KJA\AppData\Local\Temp\ccTHJtLl.s 			page 9


 221 0006 054B     		ldr	r3, .L12
 222 0008 1B78     		ldrb	r3, [r3]
 223 000a DBB2     		uxtb	r3, r3
 224 000c 03F07F03 		and	r3, r3, #127
 225 0010 DBB2     		uxtb	r3, r3
 226 0012 1370     		strb	r3, [r2]
 237:Generated_Source\PSoC5/PWM_Driver.c ****     #endif /* (PWM_Driver_UseControl || PWM_Driver_UsingFixedFunction) */
 238:Generated_Source\PSoC5/PWM_Driver.c **** 
 239:Generated_Source\PSoC5/PWM_Driver.c ****     /* Globally disable the Fixed Function Block chosen */
 240:Generated_Source\PSoC5/PWM_Driver.c ****     #if (PWM_Driver_UsingFixedFunction)
 241:Generated_Source\PSoC5/PWM_Driver.c ****         PWM_Driver_GLOBAL_ENABLE &= ((uint8)(~PWM_Driver_BLOCK_EN_MASK));
 242:Generated_Source\PSoC5/PWM_Driver.c ****         PWM_Driver_GLOBAL_STBY_ENABLE &= ((uint8)(~PWM_Driver_BLOCK_STBY_EN_MASK));
 243:Generated_Source\PSoC5/PWM_Driver.c ****     #endif /* (PWM_Driver_UsingFixedFunction) */
 244:Generated_Source\PSoC5/PWM_Driver.c **** }
 227              		.loc 1 244 0
 228 0014 BD46     		mov	sp, r7
 229              		.cfi_def_cfa_register 13
 230              		@ sp needed
 231 0016 5DF8047B 		ldr	r7, [sp], #4
 232              		.cfi_restore 7
 233              		.cfi_def_cfa_offset 0
 234 001a 7047     		bx	lr
 235              	.L13:
 236              		.align	2
 237              	.L12:
 238 001c 7A640040 		.word	1073767546
 239              		.cfi_endproc
 240              	.LFE3:
 241              		.size	PWM_Driver_Stop, .-PWM_Driver_Stop
 242              		.section	.text.PWM_Driver_WriteCounter,"ax",%progbits
 243              		.align	2
 244              		.global	PWM_Driver_WriteCounter
 245              		.thumb
 246              		.thumb_func
 247              		.type	PWM_Driver_WriteCounter, %function
 248              	PWM_Driver_WriteCounter:
 249              	.LFB4:
 245:Generated_Source\PSoC5/PWM_Driver.c **** 
 246:Generated_Source\PSoC5/PWM_Driver.c **** #if (PWM_Driver_UseOneCompareMode)
 247:Generated_Source\PSoC5/PWM_Driver.c ****     #if (PWM_Driver_CompareMode1SW)
 248:Generated_Source\PSoC5/PWM_Driver.c **** 
 249:Generated_Source\PSoC5/PWM_Driver.c **** 
 250:Generated_Source\PSoC5/PWM_Driver.c ****         /*******************************************************************************
 251:Generated_Source\PSoC5/PWM_Driver.c ****         * Function Name: PWM_Driver_SetCompareMode
 252:Generated_Source\PSoC5/PWM_Driver.c ****         ********************************************************************************
 253:Generated_Source\PSoC5/PWM_Driver.c ****         *
 254:Generated_Source\PSoC5/PWM_Driver.c ****         * Summary:
 255:Generated_Source\PSoC5/PWM_Driver.c ****         *  This function writes the Compare Mode for the pwm output when in Dither mode,
 256:Generated_Source\PSoC5/PWM_Driver.c ****         *  Center Align Mode or One Output Mode.
 257:Generated_Source\PSoC5/PWM_Driver.c ****         *
 258:Generated_Source\PSoC5/PWM_Driver.c ****         * Parameters:
 259:Generated_Source\PSoC5/PWM_Driver.c ****         *  comparemode:  The new compare mode for the PWM output. Use the compare types
 260:Generated_Source\PSoC5/PWM_Driver.c ****         *                defined in the H file as input arguments.
 261:Generated_Source\PSoC5/PWM_Driver.c ****         *
 262:Generated_Source\PSoC5/PWM_Driver.c ****         * Return:
 263:Generated_Source\PSoC5/PWM_Driver.c ****         *  None
 264:Generated_Source\PSoC5/PWM_Driver.c ****         *
ARM GAS  C:\Users\KJA\AppData\Local\Temp\ccTHJtLl.s 			page 10


 265:Generated_Source\PSoC5/PWM_Driver.c ****         *******************************************************************************/
 266:Generated_Source\PSoC5/PWM_Driver.c ****         void PWM_Driver_SetCompareMode(uint8 comparemode) 
 267:Generated_Source\PSoC5/PWM_Driver.c ****         {
 268:Generated_Source\PSoC5/PWM_Driver.c ****             #if(PWM_Driver_UsingFixedFunction)
 269:Generated_Source\PSoC5/PWM_Driver.c **** 
 270:Generated_Source\PSoC5/PWM_Driver.c ****                 #if(0 != PWM_Driver_CTRL_CMPMODE1_SHIFT)
 271:Generated_Source\PSoC5/PWM_Driver.c ****                     uint8 comparemodemasked = ((uint8)((uint8)comparemode << PWM_Driver_CTRL_CMPMOD
 272:Generated_Source\PSoC5/PWM_Driver.c ****                 #else
 273:Generated_Source\PSoC5/PWM_Driver.c ****                     uint8 comparemodemasked = comparemode;
 274:Generated_Source\PSoC5/PWM_Driver.c ****                 #endif /* (0 != PWM_Driver_CTRL_CMPMODE1_SHIFT) */
 275:Generated_Source\PSoC5/PWM_Driver.c **** 
 276:Generated_Source\PSoC5/PWM_Driver.c ****                 PWM_Driver_CONTROL3 &= ((uint8)(~PWM_Driver_CTRL_CMPMODE1_MASK)); /*Clear Existing 
 277:Generated_Source\PSoC5/PWM_Driver.c ****                 PWM_Driver_CONTROL3 |= comparemodemasked;
 278:Generated_Source\PSoC5/PWM_Driver.c **** 
 279:Generated_Source\PSoC5/PWM_Driver.c ****             #elif (PWM_Driver_UseControl)
 280:Generated_Source\PSoC5/PWM_Driver.c **** 
 281:Generated_Source\PSoC5/PWM_Driver.c ****                 #if(0 != PWM_Driver_CTRL_CMPMODE1_SHIFT)
 282:Generated_Source\PSoC5/PWM_Driver.c ****                     uint8 comparemode1masked = ((uint8)((uint8)comparemode << PWM_Driver_CTRL_CMPMO
 283:Generated_Source\PSoC5/PWM_Driver.c ****                                                 PWM_Driver_CTRL_CMPMODE1_MASK;
 284:Generated_Source\PSoC5/PWM_Driver.c ****                 #else
 285:Generated_Source\PSoC5/PWM_Driver.c ****                     uint8 comparemode1masked = comparemode & PWM_Driver_CTRL_CMPMODE1_MASK;
 286:Generated_Source\PSoC5/PWM_Driver.c ****                 #endif /* (0 != PWM_Driver_CTRL_CMPMODE1_SHIFT) */
 287:Generated_Source\PSoC5/PWM_Driver.c **** 
 288:Generated_Source\PSoC5/PWM_Driver.c ****                 #if(0 != PWM_Driver_CTRL_CMPMODE2_SHIFT)
 289:Generated_Source\PSoC5/PWM_Driver.c ****                     uint8 comparemode2masked = ((uint8)((uint8)comparemode << PWM_Driver_CTRL_CMPMO
 290:Generated_Source\PSoC5/PWM_Driver.c ****                                                PWM_Driver_CTRL_CMPMODE2_MASK;
 291:Generated_Source\PSoC5/PWM_Driver.c ****                 #else
 292:Generated_Source\PSoC5/PWM_Driver.c ****                     uint8 comparemode2masked = comparemode & PWM_Driver_CTRL_CMPMODE2_MASK;
 293:Generated_Source\PSoC5/PWM_Driver.c ****                 #endif /* (0 != PWM_Driver_CTRL_CMPMODE2_SHIFT) */
 294:Generated_Source\PSoC5/PWM_Driver.c **** 
 295:Generated_Source\PSoC5/PWM_Driver.c ****                 /*Clear existing mode */
 296:Generated_Source\PSoC5/PWM_Driver.c ****                 PWM_Driver_CONTROL &= ((uint8)(~(PWM_Driver_CTRL_CMPMODE1_MASK |
 297:Generated_Source\PSoC5/PWM_Driver.c ****                                             PWM_Driver_CTRL_CMPMODE2_MASK)));
 298:Generated_Source\PSoC5/PWM_Driver.c ****                 PWM_Driver_CONTROL |= (comparemode1masked | comparemode2masked);
 299:Generated_Source\PSoC5/PWM_Driver.c **** 
 300:Generated_Source\PSoC5/PWM_Driver.c ****             #else
 301:Generated_Source\PSoC5/PWM_Driver.c ****                 uint8 temp = comparemode;
 302:Generated_Source\PSoC5/PWM_Driver.c ****             #endif /* (PWM_Driver_UsingFixedFunction) */
 303:Generated_Source\PSoC5/PWM_Driver.c ****         }
 304:Generated_Source\PSoC5/PWM_Driver.c ****     #endif /* PWM_Driver_CompareMode1SW */
 305:Generated_Source\PSoC5/PWM_Driver.c **** 
 306:Generated_Source\PSoC5/PWM_Driver.c **** #else /* UseOneCompareMode */
 307:Generated_Source\PSoC5/PWM_Driver.c **** 
 308:Generated_Source\PSoC5/PWM_Driver.c ****     #if (PWM_Driver_CompareMode1SW)
 309:Generated_Source\PSoC5/PWM_Driver.c **** 
 310:Generated_Source\PSoC5/PWM_Driver.c **** 
 311:Generated_Source\PSoC5/PWM_Driver.c ****         /*******************************************************************************
 312:Generated_Source\PSoC5/PWM_Driver.c ****         * Function Name: PWM_Driver_SetCompareMode1
 313:Generated_Source\PSoC5/PWM_Driver.c ****         ********************************************************************************
 314:Generated_Source\PSoC5/PWM_Driver.c ****         *
 315:Generated_Source\PSoC5/PWM_Driver.c ****         * Summary:
 316:Generated_Source\PSoC5/PWM_Driver.c ****         *  This function writes the Compare Mode for the pwm or pwm1 output
 317:Generated_Source\PSoC5/PWM_Driver.c ****         *
 318:Generated_Source\PSoC5/PWM_Driver.c ****         * Parameters:
 319:Generated_Source\PSoC5/PWM_Driver.c ****         *  comparemode:  The new compare mode for the PWM output. Use the compare types
 320:Generated_Source\PSoC5/PWM_Driver.c ****         *                defined in the H file as input arguments.
 321:Generated_Source\PSoC5/PWM_Driver.c ****         *
ARM GAS  C:\Users\KJA\AppData\Local\Temp\ccTHJtLl.s 			page 11


 322:Generated_Source\PSoC5/PWM_Driver.c ****         * Return:
 323:Generated_Source\PSoC5/PWM_Driver.c ****         *  None
 324:Generated_Source\PSoC5/PWM_Driver.c ****         *
 325:Generated_Source\PSoC5/PWM_Driver.c ****         *******************************************************************************/
 326:Generated_Source\PSoC5/PWM_Driver.c ****         void PWM_Driver_SetCompareMode1(uint8 comparemode) 
 327:Generated_Source\PSoC5/PWM_Driver.c ****         {
 328:Generated_Source\PSoC5/PWM_Driver.c ****             #if(0 != PWM_Driver_CTRL_CMPMODE1_SHIFT)
 329:Generated_Source\PSoC5/PWM_Driver.c ****                 uint8 comparemodemasked = ((uint8)((uint8)comparemode << PWM_Driver_CTRL_CMPMODE1_S
 330:Generated_Source\PSoC5/PWM_Driver.c ****                                            PWM_Driver_CTRL_CMPMODE1_MASK;
 331:Generated_Source\PSoC5/PWM_Driver.c ****             #else
 332:Generated_Source\PSoC5/PWM_Driver.c ****                 uint8 comparemodemasked = comparemode & PWM_Driver_CTRL_CMPMODE1_MASK;
 333:Generated_Source\PSoC5/PWM_Driver.c ****             #endif /* (0 != PWM_Driver_CTRL_CMPMODE1_SHIFT) */
 334:Generated_Source\PSoC5/PWM_Driver.c **** 
 335:Generated_Source\PSoC5/PWM_Driver.c ****             #if (PWM_Driver_UseControl)
 336:Generated_Source\PSoC5/PWM_Driver.c ****                 PWM_Driver_CONTROL &= ((uint8)(~PWM_Driver_CTRL_CMPMODE1_MASK)); /*Clear existing m
 337:Generated_Source\PSoC5/PWM_Driver.c ****                 PWM_Driver_CONTROL |= comparemodemasked;
 338:Generated_Source\PSoC5/PWM_Driver.c ****             #endif /* (PWM_Driver_UseControl) */
 339:Generated_Source\PSoC5/PWM_Driver.c ****         }
 340:Generated_Source\PSoC5/PWM_Driver.c ****     #endif /* PWM_Driver_CompareMode1SW */
 341:Generated_Source\PSoC5/PWM_Driver.c **** 
 342:Generated_Source\PSoC5/PWM_Driver.c **** #if (PWM_Driver_CompareMode2SW)
 343:Generated_Source\PSoC5/PWM_Driver.c **** 
 344:Generated_Source\PSoC5/PWM_Driver.c **** 
 345:Generated_Source\PSoC5/PWM_Driver.c ****     /*******************************************************************************
 346:Generated_Source\PSoC5/PWM_Driver.c ****     * Function Name: PWM_Driver_SetCompareMode2
 347:Generated_Source\PSoC5/PWM_Driver.c ****     ********************************************************************************
 348:Generated_Source\PSoC5/PWM_Driver.c ****     *
 349:Generated_Source\PSoC5/PWM_Driver.c ****     * Summary:
 350:Generated_Source\PSoC5/PWM_Driver.c ****     *  This function writes the Compare Mode for the pwm or pwm2 output
 351:Generated_Source\PSoC5/PWM_Driver.c ****     *
 352:Generated_Source\PSoC5/PWM_Driver.c ****     * Parameters:
 353:Generated_Source\PSoC5/PWM_Driver.c ****     *  comparemode:  The new compare mode for the PWM output. Use the compare types
 354:Generated_Source\PSoC5/PWM_Driver.c ****     *                defined in the H file as input arguments.
 355:Generated_Source\PSoC5/PWM_Driver.c ****     *
 356:Generated_Source\PSoC5/PWM_Driver.c ****     * Return:
 357:Generated_Source\PSoC5/PWM_Driver.c ****     *  None
 358:Generated_Source\PSoC5/PWM_Driver.c ****     *
 359:Generated_Source\PSoC5/PWM_Driver.c ****     *******************************************************************************/
 360:Generated_Source\PSoC5/PWM_Driver.c ****     void PWM_Driver_SetCompareMode2(uint8 comparemode) 
 361:Generated_Source\PSoC5/PWM_Driver.c ****     {
 362:Generated_Source\PSoC5/PWM_Driver.c **** 
 363:Generated_Source\PSoC5/PWM_Driver.c ****         #if(0 != PWM_Driver_CTRL_CMPMODE2_SHIFT)
 364:Generated_Source\PSoC5/PWM_Driver.c ****             uint8 comparemodemasked = ((uint8)((uint8)comparemode << PWM_Driver_CTRL_CMPMODE2_SHIFT
 365:Generated_Source\PSoC5/PWM_Driver.c ****                                                  PWM_Driver_CTRL_CMPMODE2_MASK;
 366:Generated_Source\PSoC5/PWM_Driver.c ****         #else
 367:Generated_Source\PSoC5/PWM_Driver.c ****             uint8 comparemodemasked = comparemode & PWM_Driver_CTRL_CMPMODE2_MASK;
 368:Generated_Source\PSoC5/PWM_Driver.c ****         #endif /* (0 != PWM_Driver_CTRL_CMPMODE2_SHIFT) */
 369:Generated_Source\PSoC5/PWM_Driver.c **** 
 370:Generated_Source\PSoC5/PWM_Driver.c ****         #if (PWM_Driver_UseControl)
 371:Generated_Source\PSoC5/PWM_Driver.c ****             PWM_Driver_CONTROL &= ((uint8)(~PWM_Driver_CTRL_CMPMODE2_MASK)); /*Clear existing mode 
 372:Generated_Source\PSoC5/PWM_Driver.c ****             PWM_Driver_CONTROL |= comparemodemasked;
 373:Generated_Source\PSoC5/PWM_Driver.c ****         #endif /* (PWM_Driver_UseControl) */
 374:Generated_Source\PSoC5/PWM_Driver.c ****     }
 375:Generated_Source\PSoC5/PWM_Driver.c ****     #endif /*PWM_Driver_CompareMode2SW */
 376:Generated_Source\PSoC5/PWM_Driver.c **** 
 377:Generated_Source\PSoC5/PWM_Driver.c **** #endif /* UseOneCompareMode */
 378:Generated_Source\PSoC5/PWM_Driver.c **** 
ARM GAS  C:\Users\KJA\AppData\Local\Temp\ccTHJtLl.s 			page 12


 379:Generated_Source\PSoC5/PWM_Driver.c **** 
 380:Generated_Source\PSoC5/PWM_Driver.c **** #if (!PWM_Driver_UsingFixedFunction)
 381:Generated_Source\PSoC5/PWM_Driver.c **** 
 382:Generated_Source\PSoC5/PWM_Driver.c **** 
 383:Generated_Source\PSoC5/PWM_Driver.c ****     /*******************************************************************************
 384:Generated_Source\PSoC5/PWM_Driver.c ****     * Function Name: PWM_Driver_WriteCounter
 385:Generated_Source\PSoC5/PWM_Driver.c ****     ********************************************************************************
 386:Generated_Source\PSoC5/PWM_Driver.c ****     *
 387:Generated_Source\PSoC5/PWM_Driver.c ****     * Summary:
 388:Generated_Source\PSoC5/PWM_Driver.c ****     *  Writes a new counter value directly to the counter register. This will be
 389:Generated_Source\PSoC5/PWM_Driver.c ****     *  implemented for that currently running period and only that period. This API
 390:Generated_Source\PSoC5/PWM_Driver.c ****     *  is valid only for UDB implementation and not available for fixed function
 391:Generated_Source\PSoC5/PWM_Driver.c ****     *  PWM implementation.
 392:Generated_Source\PSoC5/PWM_Driver.c ****     *
 393:Generated_Source\PSoC5/PWM_Driver.c ****     * Parameters:
 394:Generated_Source\PSoC5/PWM_Driver.c ****     *  counter:  The period new period counter value.
 395:Generated_Source\PSoC5/PWM_Driver.c ****     *
 396:Generated_Source\PSoC5/PWM_Driver.c ****     * Return:
 397:Generated_Source\PSoC5/PWM_Driver.c ****     *  None
 398:Generated_Source\PSoC5/PWM_Driver.c ****     *
 399:Generated_Source\PSoC5/PWM_Driver.c ****     * Side Effects:
 400:Generated_Source\PSoC5/PWM_Driver.c ****     *  The PWM Period will be reloaded when a counter value will be a zero
 401:Generated_Source\PSoC5/PWM_Driver.c ****     *
 402:Generated_Source\PSoC5/PWM_Driver.c ****     *******************************************************************************/
 403:Generated_Source\PSoC5/PWM_Driver.c ****     void PWM_Driver_WriteCounter(uint16 counter) \
 404:Generated_Source\PSoC5/PWM_Driver.c ****                                        
 405:Generated_Source\PSoC5/PWM_Driver.c ****     {
 250              		.loc 1 405 0
 251              		.cfi_startproc
 252              		@ args = 0, pretend = 0, frame = 8
 253              		@ frame_needed = 1, uses_anonymous_args = 0
 254              		@ link register save eliminated.
 255 0000 80B4     		push	{r7}
 256              		.cfi_def_cfa_offset 4
 257              		.cfi_offset 7, -4
 258 0002 83B0     		sub	sp, sp, #12
 259              		.cfi_def_cfa_offset 16
 260 0004 00AF     		add	r7, sp, #0
 261              		.cfi_def_cfa_register 7
 262 0006 0346     		mov	r3, r0
 263 0008 FB80     		strh	r3, [r7, #6]	@ movhi
 406:Generated_Source\PSoC5/PWM_Driver.c ****         CY_SET_REG16(PWM_Driver_COUNTER_LSB_PTR, counter);
 264              		.loc 1 406 0
 265 000a 044A     		ldr	r2, .L15
 266 000c FB88     		ldrh	r3, [r7, #6]	@ movhi
 267 000e 1380     		strh	r3, [r2]	@ movhi
 407:Generated_Source\PSoC5/PWM_Driver.c ****     }
 268              		.loc 1 407 0
 269 0010 0C37     		adds	r7, r7, #12
 270              		.cfi_def_cfa_offset 4
 271 0012 BD46     		mov	sp, r7
 272              		.cfi_def_cfa_register 13
 273              		@ sp needed
 274 0014 5DF8047B 		ldr	r7, [sp], #4
 275              		.cfi_restore 7
 276              		.cfi_def_cfa_offset 0
 277 0018 7047     		bx	lr
ARM GAS  C:\Users\KJA\AppData\Local\Temp\ccTHJtLl.s 			page 13


 278              	.L16:
 279 001a 00BF     		.align	2
 280              	.L15:
 281 001c 12680040 		.word	1073768466
 282              		.cfi_endproc
 283              	.LFE4:
 284              		.size	PWM_Driver_WriteCounter, .-PWM_Driver_WriteCounter
 285              		.section	.text.PWM_Driver_ReadCounter,"ax",%progbits
 286              		.align	2
 287              		.global	PWM_Driver_ReadCounter
 288              		.thumb
 289              		.thumb_func
 290              		.type	PWM_Driver_ReadCounter, %function
 291              	PWM_Driver_ReadCounter:
 292              	.LFB5:
 408:Generated_Source\PSoC5/PWM_Driver.c **** 
 409:Generated_Source\PSoC5/PWM_Driver.c **** 
 410:Generated_Source\PSoC5/PWM_Driver.c ****     /*******************************************************************************
 411:Generated_Source\PSoC5/PWM_Driver.c ****     * Function Name: PWM_Driver_ReadCounter
 412:Generated_Source\PSoC5/PWM_Driver.c ****     ********************************************************************************
 413:Generated_Source\PSoC5/PWM_Driver.c ****     *
 414:Generated_Source\PSoC5/PWM_Driver.c ****     * Summary:
 415:Generated_Source\PSoC5/PWM_Driver.c ****     *  This function returns the current value of the counter.  It doesn't matter
 416:Generated_Source\PSoC5/PWM_Driver.c ****     *  if the counter is enabled or running.
 417:Generated_Source\PSoC5/PWM_Driver.c ****     *
 418:Generated_Source\PSoC5/PWM_Driver.c ****     * Parameters:
 419:Generated_Source\PSoC5/PWM_Driver.c ****     *  None
 420:Generated_Source\PSoC5/PWM_Driver.c ****     *
 421:Generated_Source\PSoC5/PWM_Driver.c ****     * Return:
 422:Generated_Source\PSoC5/PWM_Driver.c ****     *  The current value of the counter.
 423:Generated_Source\PSoC5/PWM_Driver.c ****     *
 424:Generated_Source\PSoC5/PWM_Driver.c ****     *******************************************************************************/
 425:Generated_Source\PSoC5/PWM_Driver.c ****     uint16 PWM_Driver_ReadCounter(void) 
 426:Generated_Source\PSoC5/PWM_Driver.c ****     {
 293              		.loc 1 426 0
 294              		.cfi_startproc
 295              		@ args = 0, pretend = 0, frame = 0
 296              		@ frame_needed = 1, uses_anonymous_args = 0
 297              		@ link register save eliminated.
 298 0000 80B4     		push	{r7}
 299              		.cfi_def_cfa_offset 4
 300              		.cfi_offset 7, -4
 301 0002 00AF     		add	r7, sp, #0
 302              		.cfi_def_cfa_register 7
 427:Generated_Source\PSoC5/PWM_Driver.c ****         /* Force capture by reading Accumulator */
 428:Generated_Source\PSoC5/PWM_Driver.c ****         /* Must first do a software capture to be able to read the counter */
 429:Generated_Source\PSoC5/PWM_Driver.c ****         /* It is up to the user code to make sure there isn't already captured data in the FIFO */
 430:Generated_Source\PSoC5/PWM_Driver.c ****           (void)CY_GET_REG8(PWM_Driver_COUNTERCAP_LSB_PTR_8BIT);
 303              		.loc 1 430 0
 304 0004 044B     		ldr	r3, .L19
 305 0006 1B78     		ldrb	r3, [r3]
 431:Generated_Source\PSoC5/PWM_Driver.c **** 
 432:Generated_Source\PSoC5/PWM_Driver.c ****         /* Read the data from the FIFO */
 433:Generated_Source\PSoC5/PWM_Driver.c ****         return (CY_GET_REG16(PWM_Driver_CAPTURE_LSB_PTR));
 306              		.loc 1 433 0
 307 0008 044B     		ldr	r3, .L19+4
 308 000a 1B88     		ldrh	r3, [r3]	@ movhi
ARM GAS  C:\Users\KJA\AppData\Local\Temp\ccTHJtLl.s 			page 14


 309 000c 9BB2     		uxth	r3, r3
 434:Generated_Source\PSoC5/PWM_Driver.c ****     }
 310              		.loc 1 434 0
 311 000e 1846     		mov	r0, r3
 312 0010 BD46     		mov	sp, r7
 313              		.cfi_def_cfa_register 13
 314              		@ sp needed
 315 0012 5DF8047B 		ldr	r7, [sp], #4
 316              		.cfi_restore 7
 317              		.cfi_def_cfa_offset 0
 318 0016 7047     		bx	lr
 319              	.L20:
 320              		.align	2
 321              	.L19:
 322 0018 19640040 		.word	1073767449
 323 001c B2680040 		.word	1073768626
 324              		.cfi_endproc
 325              	.LFE5:
 326              		.size	PWM_Driver_ReadCounter, .-PWM_Driver_ReadCounter
 327              		.section	.text.PWM_Driver_ClearFIFO,"ax",%progbits
 328              		.align	2
 329              		.global	PWM_Driver_ClearFIFO
 330              		.thumb
 331              		.thumb_func
 332              		.type	PWM_Driver_ClearFIFO, %function
 333              	PWM_Driver_ClearFIFO:
 334              	.LFB6:
 435:Generated_Source\PSoC5/PWM_Driver.c **** 
 436:Generated_Source\PSoC5/PWM_Driver.c ****     #if (PWM_Driver_UseStatus)
 437:Generated_Source\PSoC5/PWM_Driver.c **** 
 438:Generated_Source\PSoC5/PWM_Driver.c **** 
 439:Generated_Source\PSoC5/PWM_Driver.c ****         /*******************************************************************************
 440:Generated_Source\PSoC5/PWM_Driver.c ****         * Function Name: PWM_Driver_ClearFIFO
 441:Generated_Source\PSoC5/PWM_Driver.c ****         ********************************************************************************
 442:Generated_Source\PSoC5/PWM_Driver.c ****         *
 443:Generated_Source\PSoC5/PWM_Driver.c ****         * Summary:
 444:Generated_Source\PSoC5/PWM_Driver.c ****         *  This function clears all capture data from the capture FIFO
 445:Generated_Source\PSoC5/PWM_Driver.c ****         *
 446:Generated_Source\PSoC5/PWM_Driver.c ****         * Parameters:
 447:Generated_Source\PSoC5/PWM_Driver.c ****         *  None
 448:Generated_Source\PSoC5/PWM_Driver.c ****         *
 449:Generated_Source\PSoC5/PWM_Driver.c ****         * Return:
 450:Generated_Source\PSoC5/PWM_Driver.c ****         *  None
 451:Generated_Source\PSoC5/PWM_Driver.c ****         *
 452:Generated_Source\PSoC5/PWM_Driver.c ****         *******************************************************************************/
 453:Generated_Source\PSoC5/PWM_Driver.c ****         void PWM_Driver_ClearFIFO(void) 
 454:Generated_Source\PSoC5/PWM_Driver.c ****         {
 335              		.loc 1 454 0
 336              		.cfi_startproc
 337              		@ args = 0, pretend = 0, frame = 0
 338              		@ frame_needed = 1, uses_anonymous_args = 0
 339 0000 80B5     		push	{r7, lr}
 340              		.cfi_def_cfa_offset 8
 341              		.cfi_offset 7, -8
 342              		.cfi_offset 14, -4
 343 0002 00AF     		add	r7, sp, #0
 344              		.cfi_def_cfa_register 7
ARM GAS  C:\Users\KJA\AppData\Local\Temp\ccTHJtLl.s 			page 15


 455:Generated_Source\PSoC5/PWM_Driver.c ****             while(0u != (PWM_Driver_ReadStatusRegister() & PWM_Driver_STATUS_FIFONEMPTY))
 345              		.loc 1 455 0
 346 0004 01E0     		b	.L22
 347              	.L23:
 456:Generated_Source\PSoC5/PWM_Driver.c ****             {
 457:Generated_Source\PSoC5/PWM_Driver.c ****                 (void)PWM_Driver_ReadCapture();
 348              		.loc 1 457 0
 349 0006 FFF7FEFF 		bl	PWM_Driver_ReadCapture
 350              	.L22:
 455:Generated_Source\PSoC5/PWM_Driver.c ****             while(0u != (PWM_Driver_ReadStatusRegister() & PWM_Driver_STATUS_FIFONEMPTY))
 351              		.loc 1 455 0
 352 000a FFF7FEFF 		bl	PWM_Driver_ReadStatusRegister
 353 000e 0346     		mov	r3, r0
 354 0010 03F01003 		and	r3, r3, #16
 355 0014 002B     		cmp	r3, #0
 356 0016 F6D1     		bne	.L23
 458:Generated_Source\PSoC5/PWM_Driver.c ****             }
 459:Generated_Source\PSoC5/PWM_Driver.c ****         }
 357              		.loc 1 459 0
 358 0018 80BD     		pop	{r7, pc}
 359              		.cfi_endproc
 360              	.LFE6:
 361              		.size	PWM_Driver_ClearFIFO, .-PWM_Driver_ClearFIFO
 362 001a 00BF     		.section	.text.PWM_Driver_WritePeriod,"ax",%progbits
 363              		.align	2
 364              		.global	PWM_Driver_WritePeriod
 365              		.thumb
 366              		.thumb_func
 367              		.type	PWM_Driver_WritePeriod, %function
 368              	PWM_Driver_WritePeriod:
 369              	.LFB7:
 460:Generated_Source\PSoC5/PWM_Driver.c **** 
 461:Generated_Source\PSoC5/PWM_Driver.c ****     #endif /* PWM_Driver_UseStatus */
 462:Generated_Source\PSoC5/PWM_Driver.c **** 
 463:Generated_Source\PSoC5/PWM_Driver.c **** #endif /* !PWM_Driver_UsingFixedFunction */
 464:Generated_Source\PSoC5/PWM_Driver.c **** 
 465:Generated_Source\PSoC5/PWM_Driver.c **** 
 466:Generated_Source\PSoC5/PWM_Driver.c **** /*******************************************************************************
 467:Generated_Source\PSoC5/PWM_Driver.c **** * Function Name: PWM_Driver_WritePeriod
 468:Generated_Source\PSoC5/PWM_Driver.c **** ********************************************************************************
 469:Generated_Source\PSoC5/PWM_Driver.c **** *
 470:Generated_Source\PSoC5/PWM_Driver.c **** * Summary:
 471:Generated_Source\PSoC5/PWM_Driver.c **** *  This function is used to change the period of the counter.  The new period
 472:Generated_Source\PSoC5/PWM_Driver.c **** *  will be loaded the next time terminal count is detected.
 473:Generated_Source\PSoC5/PWM_Driver.c **** *
 474:Generated_Source\PSoC5/PWM_Driver.c **** * Parameters:
 475:Generated_Source\PSoC5/PWM_Driver.c **** *  period:  Period value. May be between 1 and (2^Resolution)-1.  A value of 0
 476:Generated_Source\PSoC5/PWM_Driver.c **** *           will result in the counter remaining at zero.
 477:Generated_Source\PSoC5/PWM_Driver.c **** *
 478:Generated_Source\PSoC5/PWM_Driver.c **** * Return:
 479:Generated_Source\PSoC5/PWM_Driver.c **** *  None
 480:Generated_Source\PSoC5/PWM_Driver.c **** *
 481:Generated_Source\PSoC5/PWM_Driver.c **** *******************************************************************************/
 482:Generated_Source\PSoC5/PWM_Driver.c **** void PWM_Driver_WritePeriod(uint16 period) 
 483:Generated_Source\PSoC5/PWM_Driver.c **** {
 370              		.loc 1 483 0
 371              		.cfi_startproc
ARM GAS  C:\Users\KJA\AppData\Local\Temp\ccTHJtLl.s 			page 16


 372              		@ args = 0, pretend = 0, frame = 8
 373              		@ frame_needed = 1, uses_anonymous_args = 0
 374              		@ link register save eliminated.
 375 0000 80B4     		push	{r7}
 376              		.cfi_def_cfa_offset 4
 377              		.cfi_offset 7, -4
 378 0002 83B0     		sub	sp, sp, #12
 379              		.cfi_def_cfa_offset 16
 380 0004 00AF     		add	r7, sp, #0
 381              		.cfi_def_cfa_register 7
 382 0006 0346     		mov	r3, r0
 383 0008 FB80     		strh	r3, [r7, #6]	@ movhi
 484:Generated_Source\PSoC5/PWM_Driver.c ****     #if(PWM_Driver_UsingFixedFunction)
 485:Generated_Source\PSoC5/PWM_Driver.c ****         CY_SET_REG16(PWM_Driver_PERIOD_LSB_PTR, (uint16)period);
 486:Generated_Source\PSoC5/PWM_Driver.c ****     #else
 487:Generated_Source\PSoC5/PWM_Driver.c ****         CY_SET_REG16(PWM_Driver_PERIOD_LSB_PTR, period);
 384              		.loc 1 487 0
 385 000a 044A     		ldr	r2, .L25
 386 000c FB88     		ldrh	r3, [r7, #6]	@ movhi
 387 000e 1380     		strh	r3, [r2]	@ movhi
 488:Generated_Source\PSoC5/PWM_Driver.c ****     #endif /* (PWM_Driver_UsingFixedFunction) */
 489:Generated_Source\PSoC5/PWM_Driver.c **** }
 388              		.loc 1 489 0
 389 0010 0C37     		adds	r7, r7, #12
 390              		.cfi_def_cfa_offset 4
 391 0012 BD46     		mov	sp, r7
 392              		.cfi_def_cfa_register 13
 393              		@ sp needed
 394 0014 5DF8047B 		ldr	r7, [sp], #4
 395              		.cfi_restore 7
 396              		.cfi_def_cfa_offset 0
 397 0018 7047     		bx	lr
 398              	.L26:
 399 001a 00BF     		.align	2
 400              	.L25:
 401 001c 92680040 		.word	1073768594
 402              		.cfi_endproc
 403              	.LFE7:
 404              		.size	PWM_Driver_WritePeriod, .-PWM_Driver_WritePeriod
 405              		.section	.text.PWM_Driver_WriteCompare,"ax",%progbits
 406              		.align	2
 407              		.global	PWM_Driver_WriteCompare
 408              		.thumb
 409              		.thumb_func
 410              		.type	PWM_Driver_WriteCompare, %function
 411              	PWM_Driver_WriteCompare:
 412              	.LFB8:
 490:Generated_Source\PSoC5/PWM_Driver.c **** 
 491:Generated_Source\PSoC5/PWM_Driver.c **** #if (PWM_Driver_UseOneCompareMode)
 492:Generated_Source\PSoC5/PWM_Driver.c **** 
 493:Generated_Source\PSoC5/PWM_Driver.c **** 
 494:Generated_Source\PSoC5/PWM_Driver.c ****     /*******************************************************************************
 495:Generated_Source\PSoC5/PWM_Driver.c ****     * Function Name: PWM_Driver_WriteCompare
 496:Generated_Source\PSoC5/PWM_Driver.c ****     ********************************************************************************
 497:Generated_Source\PSoC5/PWM_Driver.c ****     *
 498:Generated_Source\PSoC5/PWM_Driver.c ****     * Summary:
 499:Generated_Source\PSoC5/PWM_Driver.c ****     *  This funtion is used to change the compare1 value when the PWM is in Dither
ARM GAS  C:\Users\KJA\AppData\Local\Temp\ccTHJtLl.s 			page 17


 500:Generated_Source\PSoC5/PWM_Driver.c ****     *  mode. The compare output will reflect the new value on the next UDB clock.
 501:Generated_Source\PSoC5/PWM_Driver.c ****     *  The compare output will be driven high when the present counter value is
 502:Generated_Source\PSoC5/PWM_Driver.c ****     *  compared to the compare value based on the compare mode defined in
 503:Generated_Source\PSoC5/PWM_Driver.c ****     *  Dither Mode.
 504:Generated_Source\PSoC5/PWM_Driver.c ****     *
 505:Generated_Source\PSoC5/PWM_Driver.c ****     * Parameters:
 506:Generated_Source\PSoC5/PWM_Driver.c ****     *  compare:  New compare value.
 507:Generated_Source\PSoC5/PWM_Driver.c ****     *
 508:Generated_Source\PSoC5/PWM_Driver.c ****     * Return:
 509:Generated_Source\PSoC5/PWM_Driver.c ****     *  None
 510:Generated_Source\PSoC5/PWM_Driver.c ****     *
 511:Generated_Source\PSoC5/PWM_Driver.c ****     * Side Effects:
 512:Generated_Source\PSoC5/PWM_Driver.c ****     *  This function is only available if the PWM mode parameter is set to
 513:Generated_Source\PSoC5/PWM_Driver.c ****     *  Dither Mode, Center Aligned Mode or One Output Mode
 514:Generated_Source\PSoC5/PWM_Driver.c ****     *
 515:Generated_Source\PSoC5/PWM_Driver.c ****     *******************************************************************************/
 516:Generated_Source\PSoC5/PWM_Driver.c ****     void PWM_Driver_WriteCompare(uint16 compare) \
 517:Generated_Source\PSoC5/PWM_Driver.c ****                                        
 518:Generated_Source\PSoC5/PWM_Driver.c ****     {
 413              		.loc 1 518 0
 414              		.cfi_startproc
 415              		@ args = 0, pretend = 0, frame = 8
 416              		@ frame_needed = 1, uses_anonymous_args = 0
 417              		@ link register save eliminated.
 418 0000 80B4     		push	{r7}
 419              		.cfi_def_cfa_offset 4
 420              		.cfi_offset 7, -4
 421 0002 83B0     		sub	sp, sp, #12
 422              		.cfi_def_cfa_offset 16
 423 0004 00AF     		add	r7, sp, #0
 424              		.cfi_def_cfa_register 7
 425 0006 0346     		mov	r3, r0
 426 0008 FB80     		strh	r3, [r7, #6]	@ movhi
 519:Generated_Source\PSoC5/PWM_Driver.c ****         #if(PWM_Driver_UsingFixedFunction)
 520:Generated_Source\PSoC5/PWM_Driver.c ****             CY_SET_REG16(PWM_Driver_COMPARE1_LSB_PTR, (uint16)compare);
 521:Generated_Source\PSoC5/PWM_Driver.c ****         #else
 522:Generated_Source\PSoC5/PWM_Driver.c ****             CY_SET_REG16(PWM_Driver_COMPARE1_LSB_PTR, compare);
 427              		.loc 1 522 0
 428 000a 044A     		ldr	r2, .L28
 429 000c FB88     		ldrh	r3, [r7, #6]	@ movhi
 430 000e 1380     		strh	r3, [r2]	@ movhi
 523:Generated_Source\PSoC5/PWM_Driver.c ****         #endif /* (PWM_Driver_UsingFixedFunction) */
 524:Generated_Source\PSoC5/PWM_Driver.c **** 
 525:Generated_Source\PSoC5/PWM_Driver.c ****         #if (PWM_Driver_PWMMode == PWM_Driver__B_PWM__DITHER)
 526:Generated_Source\PSoC5/PWM_Driver.c ****             #if(PWM_Driver_UsingFixedFunction)
 527:Generated_Source\PSoC5/PWM_Driver.c ****                 CY_SET_REG16(PWM_Driver_COMPARE2_LSB_PTR, (uint16)(compare + 1u));
 528:Generated_Source\PSoC5/PWM_Driver.c ****             #else
 529:Generated_Source\PSoC5/PWM_Driver.c ****                 CY_SET_REG16(PWM_Driver_COMPARE2_LSB_PTR, (compare + 1u));
 530:Generated_Source\PSoC5/PWM_Driver.c ****             #endif /* (PWM_Driver_UsingFixedFunction) */
 531:Generated_Source\PSoC5/PWM_Driver.c ****         #endif /* (PWM_Driver_PWMMode == PWM_Driver__B_PWM__DITHER) */
 532:Generated_Source\PSoC5/PWM_Driver.c ****     }
 431              		.loc 1 532 0
 432 0010 0C37     		adds	r7, r7, #12
 433              		.cfi_def_cfa_offset 4
 434 0012 BD46     		mov	sp, r7
 435              		.cfi_def_cfa_register 13
 436              		@ sp needed
ARM GAS  C:\Users\KJA\AppData\Local\Temp\ccTHJtLl.s 			page 18


 437 0014 5DF8047B 		ldr	r7, [sp], #4
 438              		.cfi_restore 7
 439              		.cfi_def_cfa_offset 0
 440 0018 7047     		bx	lr
 441              	.L29:
 442 001a 00BF     		.align	2
 443              	.L28:
 444 001c 52680040 		.word	1073768530
 445              		.cfi_endproc
 446              	.LFE8:
 447              		.size	PWM_Driver_WriteCompare, .-PWM_Driver_WriteCompare
 448              		.section	.text.PWM_Driver_SetInterruptMode,"ax",%progbits
 449              		.align	2
 450              		.global	PWM_Driver_SetInterruptMode
 451              		.thumb
 452              		.thumb_func
 453              		.type	PWM_Driver_SetInterruptMode, %function
 454              	PWM_Driver_SetInterruptMode:
 455              	.LFB9:
 533:Generated_Source\PSoC5/PWM_Driver.c **** 
 534:Generated_Source\PSoC5/PWM_Driver.c **** 
 535:Generated_Source\PSoC5/PWM_Driver.c **** #else
 536:Generated_Source\PSoC5/PWM_Driver.c **** 
 537:Generated_Source\PSoC5/PWM_Driver.c **** 
 538:Generated_Source\PSoC5/PWM_Driver.c ****     /*******************************************************************************
 539:Generated_Source\PSoC5/PWM_Driver.c ****     * Function Name: PWM_Driver_WriteCompare1
 540:Generated_Source\PSoC5/PWM_Driver.c ****     ********************************************************************************
 541:Generated_Source\PSoC5/PWM_Driver.c ****     *
 542:Generated_Source\PSoC5/PWM_Driver.c ****     * Summary:
 543:Generated_Source\PSoC5/PWM_Driver.c ****     *  This funtion is used to change the compare1 value.  The compare output will
 544:Generated_Source\PSoC5/PWM_Driver.c ****     *  reflect the new value on the next UDB clock.  The compare output will be
 545:Generated_Source\PSoC5/PWM_Driver.c ****     *  driven high when the present counter value is less than or less than or
 546:Generated_Source\PSoC5/PWM_Driver.c ****     *  equal to the compare register, depending on the mode.
 547:Generated_Source\PSoC5/PWM_Driver.c ****     *
 548:Generated_Source\PSoC5/PWM_Driver.c ****     * Parameters:
 549:Generated_Source\PSoC5/PWM_Driver.c ****     *  compare:  New compare value.
 550:Generated_Source\PSoC5/PWM_Driver.c ****     *
 551:Generated_Source\PSoC5/PWM_Driver.c ****     * Return:
 552:Generated_Source\PSoC5/PWM_Driver.c ****     *  None
 553:Generated_Source\PSoC5/PWM_Driver.c ****     *
 554:Generated_Source\PSoC5/PWM_Driver.c ****     *******************************************************************************/
 555:Generated_Source\PSoC5/PWM_Driver.c ****     void PWM_Driver_WriteCompare1(uint16 compare) \
 556:Generated_Source\PSoC5/PWM_Driver.c ****                                         
 557:Generated_Source\PSoC5/PWM_Driver.c ****     {
 558:Generated_Source\PSoC5/PWM_Driver.c ****         #if(PWM_Driver_UsingFixedFunction)
 559:Generated_Source\PSoC5/PWM_Driver.c ****             CY_SET_REG16(PWM_Driver_COMPARE1_LSB_PTR, (uint16)compare);
 560:Generated_Source\PSoC5/PWM_Driver.c ****         #else
 561:Generated_Source\PSoC5/PWM_Driver.c ****             CY_SET_REG16(PWM_Driver_COMPARE1_LSB_PTR, compare);
 562:Generated_Source\PSoC5/PWM_Driver.c ****         #endif /* (PWM_Driver_UsingFixedFunction) */
 563:Generated_Source\PSoC5/PWM_Driver.c ****     }
 564:Generated_Source\PSoC5/PWM_Driver.c **** 
 565:Generated_Source\PSoC5/PWM_Driver.c **** 
 566:Generated_Source\PSoC5/PWM_Driver.c ****     /*******************************************************************************
 567:Generated_Source\PSoC5/PWM_Driver.c ****     * Function Name: PWM_Driver_WriteCompare2
 568:Generated_Source\PSoC5/PWM_Driver.c ****     ********************************************************************************
 569:Generated_Source\PSoC5/PWM_Driver.c ****     *
 570:Generated_Source\PSoC5/PWM_Driver.c ****     * Summary:
ARM GAS  C:\Users\KJA\AppData\Local\Temp\ccTHJtLl.s 			page 19


 571:Generated_Source\PSoC5/PWM_Driver.c ****     *  This funtion is used to change the compare value, for compare1 output.
 572:Generated_Source\PSoC5/PWM_Driver.c ****     *  The compare output will reflect the new value on the next UDB clock.
 573:Generated_Source\PSoC5/PWM_Driver.c ****     *  The compare output will be driven high when the present counter value is
 574:Generated_Source\PSoC5/PWM_Driver.c ****     *  less than or less than or equal to the compare register, depending on the
 575:Generated_Source\PSoC5/PWM_Driver.c ****     *  mode.
 576:Generated_Source\PSoC5/PWM_Driver.c ****     *
 577:Generated_Source\PSoC5/PWM_Driver.c ****     * Parameters:
 578:Generated_Source\PSoC5/PWM_Driver.c ****     *  compare:  New compare value.
 579:Generated_Source\PSoC5/PWM_Driver.c ****     *
 580:Generated_Source\PSoC5/PWM_Driver.c ****     * Return:
 581:Generated_Source\PSoC5/PWM_Driver.c ****     *  None
 582:Generated_Source\PSoC5/PWM_Driver.c ****     *
 583:Generated_Source\PSoC5/PWM_Driver.c ****     *******************************************************************************/
 584:Generated_Source\PSoC5/PWM_Driver.c ****     void PWM_Driver_WriteCompare2(uint16 compare) \
 585:Generated_Source\PSoC5/PWM_Driver.c ****                                         
 586:Generated_Source\PSoC5/PWM_Driver.c ****     {
 587:Generated_Source\PSoC5/PWM_Driver.c ****         #if(PWM_Driver_UsingFixedFunction)
 588:Generated_Source\PSoC5/PWM_Driver.c ****             CY_SET_REG16(PWM_Driver_COMPARE2_LSB_PTR, compare);
 589:Generated_Source\PSoC5/PWM_Driver.c ****         #else
 590:Generated_Source\PSoC5/PWM_Driver.c ****             CY_SET_REG16(PWM_Driver_COMPARE2_LSB_PTR, compare);
 591:Generated_Source\PSoC5/PWM_Driver.c ****         #endif /* (PWM_Driver_UsingFixedFunction) */
 592:Generated_Source\PSoC5/PWM_Driver.c ****     }
 593:Generated_Source\PSoC5/PWM_Driver.c **** #endif /* UseOneCompareMode */
 594:Generated_Source\PSoC5/PWM_Driver.c **** 
 595:Generated_Source\PSoC5/PWM_Driver.c **** #if (PWM_Driver_DeadBandUsed)
 596:Generated_Source\PSoC5/PWM_Driver.c **** 
 597:Generated_Source\PSoC5/PWM_Driver.c **** 
 598:Generated_Source\PSoC5/PWM_Driver.c ****     /*******************************************************************************
 599:Generated_Source\PSoC5/PWM_Driver.c ****     * Function Name: PWM_Driver_WriteDeadTime
 600:Generated_Source\PSoC5/PWM_Driver.c ****     ********************************************************************************
 601:Generated_Source\PSoC5/PWM_Driver.c ****     *
 602:Generated_Source\PSoC5/PWM_Driver.c ****     * Summary:
 603:Generated_Source\PSoC5/PWM_Driver.c ****     *  This function writes the dead-band counts to the corresponding register
 604:Generated_Source\PSoC5/PWM_Driver.c ****     *
 605:Generated_Source\PSoC5/PWM_Driver.c ****     * Parameters:
 606:Generated_Source\PSoC5/PWM_Driver.c ****     *  deadtime:  Number of counts for dead time
 607:Generated_Source\PSoC5/PWM_Driver.c ****     *
 608:Generated_Source\PSoC5/PWM_Driver.c ****     * Return:
 609:Generated_Source\PSoC5/PWM_Driver.c ****     *  None
 610:Generated_Source\PSoC5/PWM_Driver.c ****     *
 611:Generated_Source\PSoC5/PWM_Driver.c ****     *******************************************************************************/
 612:Generated_Source\PSoC5/PWM_Driver.c ****     void PWM_Driver_WriteDeadTime(uint8 deadtime) 
 613:Generated_Source\PSoC5/PWM_Driver.c ****     {
 614:Generated_Source\PSoC5/PWM_Driver.c ****         /* If using the Dead Band 1-255 mode then just write the register */
 615:Generated_Source\PSoC5/PWM_Driver.c ****         #if(!PWM_Driver_DeadBand2_4)
 616:Generated_Source\PSoC5/PWM_Driver.c ****             CY_SET_REG8(PWM_Driver_DEADBAND_COUNT_PTR, deadtime);
 617:Generated_Source\PSoC5/PWM_Driver.c ****         #else
 618:Generated_Source\PSoC5/PWM_Driver.c ****             /* Otherwise the data has to be masked and offset */
 619:Generated_Source\PSoC5/PWM_Driver.c ****             /* Clear existing data */
 620:Generated_Source\PSoC5/PWM_Driver.c ****             PWM_Driver_DEADBAND_COUNT &= ((uint8)(~PWM_Driver_DEADBAND_COUNT_MASK));
 621:Generated_Source\PSoC5/PWM_Driver.c **** 
 622:Generated_Source\PSoC5/PWM_Driver.c ****             /* Set new dead time */
 623:Generated_Source\PSoC5/PWM_Driver.c ****             #if(PWM_Driver_DEADBAND_COUNT_SHIFT)
 624:Generated_Source\PSoC5/PWM_Driver.c ****                 PWM_Driver_DEADBAND_COUNT |= ((uint8)((uint8)deadtime << PWM_Driver_DEADBAND_COUNT_
 625:Generated_Source\PSoC5/PWM_Driver.c ****                                                     PWM_Driver_DEADBAND_COUNT_MASK;
 626:Generated_Source\PSoC5/PWM_Driver.c ****             #else
 627:Generated_Source\PSoC5/PWM_Driver.c ****                 PWM_Driver_DEADBAND_COUNT |= deadtime & PWM_Driver_DEADBAND_COUNT_MASK;
ARM GAS  C:\Users\KJA\AppData\Local\Temp\ccTHJtLl.s 			page 20


 628:Generated_Source\PSoC5/PWM_Driver.c ****             #endif /* (PWM_Driver_DEADBAND_COUNT_SHIFT) */
 629:Generated_Source\PSoC5/PWM_Driver.c **** 
 630:Generated_Source\PSoC5/PWM_Driver.c ****         #endif /* (!PWM_Driver_DeadBand2_4) */
 631:Generated_Source\PSoC5/PWM_Driver.c ****     }
 632:Generated_Source\PSoC5/PWM_Driver.c **** 
 633:Generated_Source\PSoC5/PWM_Driver.c **** 
 634:Generated_Source\PSoC5/PWM_Driver.c ****     /*******************************************************************************
 635:Generated_Source\PSoC5/PWM_Driver.c ****     * Function Name: PWM_Driver_ReadDeadTime
 636:Generated_Source\PSoC5/PWM_Driver.c ****     ********************************************************************************
 637:Generated_Source\PSoC5/PWM_Driver.c ****     *
 638:Generated_Source\PSoC5/PWM_Driver.c ****     * Summary:
 639:Generated_Source\PSoC5/PWM_Driver.c ****     *  This function reads the dead-band counts from the corresponding register
 640:Generated_Source\PSoC5/PWM_Driver.c ****     *
 641:Generated_Source\PSoC5/PWM_Driver.c ****     * Parameters:
 642:Generated_Source\PSoC5/PWM_Driver.c ****     *  None
 643:Generated_Source\PSoC5/PWM_Driver.c ****     *
 644:Generated_Source\PSoC5/PWM_Driver.c ****     * Return:
 645:Generated_Source\PSoC5/PWM_Driver.c ****     *  Dead Band Counts
 646:Generated_Source\PSoC5/PWM_Driver.c ****     *
 647:Generated_Source\PSoC5/PWM_Driver.c ****     *******************************************************************************/
 648:Generated_Source\PSoC5/PWM_Driver.c ****     uint8 PWM_Driver_ReadDeadTime(void) 
 649:Generated_Source\PSoC5/PWM_Driver.c ****     {
 650:Generated_Source\PSoC5/PWM_Driver.c ****         /* If using the Dead Band 1-255 mode then just read the register */
 651:Generated_Source\PSoC5/PWM_Driver.c ****         #if(!PWM_Driver_DeadBand2_4)
 652:Generated_Source\PSoC5/PWM_Driver.c ****             return (CY_GET_REG8(PWM_Driver_DEADBAND_COUNT_PTR));
 653:Generated_Source\PSoC5/PWM_Driver.c ****         #else
 654:Generated_Source\PSoC5/PWM_Driver.c **** 
 655:Generated_Source\PSoC5/PWM_Driver.c ****             /* Otherwise the data has to be masked and offset */
 656:Generated_Source\PSoC5/PWM_Driver.c ****             #if(PWM_Driver_DEADBAND_COUNT_SHIFT)
 657:Generated_Source\PSoC5/PWM_Driver.c ****                 return ((uint8)(((uint8)(PWM_Driver_DEADBAND_COUNT & PWM_Driver_DEADBAND_COUNT_MASK
 658:Generated_Source\PSoC5/PWM_Driver.c ****                                                                            PWM_Driver_DEADBAND_COUN
 659:Generated_Source\PSoC5/PWM_Driver.c ****             #else
 660:Generated_Source\PSoC5/PWM_Driver.c ****                 return (PWM_Driver_DEADBAND_COUNT & PWM_Driver_DEADBAND_COUNT_MASK);
 661:Generated_Source\PSoC5/PWM_Driver.c ****             #endif /* (PWM_Driver_DEADBAND_COUNT_SHIFT) */
 662:Generated_Source\PSoC5/PWM_Driver.c ****         #endif /* (!PWM_Driver_DeadBand2_4) */
 663:Generated_Source\PSoC5/PWM_Driver.c ****     }
 664:Generated_Source\PSoC5/PWM_Driver.c **** #endif /* DeadBandUsed */
 665:Generated_Source\PSoC5/PWM_Driver.c **** 
 666:Generated_Source\PSoC5/PWM_Driver.c **** #if (PWM_Driver_UseStatus || PWM_Driver_UsingFixedFunction)
 667:Generated_Source\PSoC5/PWM_Driver.c **** 
 668:Generated_Source\PSoC5/PWM_Driver.c **** 
 669:Generated_Source\PSoC5/PWM_Driver.c ****     /*******************************************************************************
 670:Generated_Source\PSoC5/PWM_Driver.c ****     * Function Name: PWM_Driver_SetInterruptMode
 671:Generated_Source\PSoC5/PWM_Driver.c ****     ********************************************************************************
 672:Generated_Source\PSoC5/PWM_Driver.c ****     *
 673:Generated_Source\PSoC5/PWM_Driver.c ****     * Summary:
 674:Generated_Source\PSoC5/PWM_Driver.c ****     *  This function configures the interrupts mask control of theinterrupt
 675:Generated_Source\PSoC5/PWM_Driver.c ****     *  source status register.
 676:Generated_Source\PSoC5/PWM_Driver.c ****     *
 677:Generated_Source\PSoC5/PWM_Driver.c ****     * Parameters:
 678:Generated_Source\PSoC5/PWM_Driver.c ****     *  uint8 interruptMode: Bit field containing the interrupt sources enabled
 679:Generated_Source\PSoC5/PWM_Driver.c ****     *
 680:Generated_Source\PSoC5/PWM_Driver.c ****     * Return:
 681:Generated_Source\PSoC5/PWM_Driver.c ****     *  None
 682:Generated_Source\PSoC5/PWM_Driver.c ****     *
 683:Generated_Source\PSoC5/PWM_Driver.c ****     *******************************************************************************/
 684:Generated_Source\PSoC5/PWM_Driver.c ****     void PWM_Driver_SetInterruptMode(uint8 interruptMode) 
ARM GAS  C:\Users\KJA\AppData\Local\Temp\ccTHJtLl.s 			page 21


 685:Generated_Source\PSoC5/PWM_Driver.c ****     {
 456              		.loc 1 685 0
 457              		.cfi_startproc
 458              		@ args = 0, pretend = 0, frame = 8
 459              		@ frame_needed = 1, uses_anonymous_args = 0
 460              		@ link register save eliminated.
 461 0000 80B4     		push	{r7}
 462              		.cfi_def_cfa_offset 4
 463              		.cfi_offset 7, -4
 464 0002 83B0     		sub	sp, sp, #12
 465              		.cfi_def_cfa_offset 16
 466 0004 00AF     		add	r7, sp, #0
 467              		.cfi_def_cfa_register 7
 468 0006 0346     		mov	r3, r0
 469 0008 FB71     		strb	r3, [r7, #7]
 686:Generated_Source\PSoC5/PWM_Driver.c ****         CY_SET_REG8(PWM_Driver_STATUS_MASK_PTR, interruptMode);
 470              		.loc 1 686 0
 471 000a 044A     		ldr	r2, .L31
 472 000c FB79     		ldrb	r3, [r7, #7]
 473 000e 1370     		strb	r3, [r2]
 687:Generated_Source\PSoC5/PWM_Driver.c ****     }
 474              		.loc 1 687 0
 475 0010 0C37     		adds	r7, r7, #12
 476              		.cfi_def_cfa_offset 4
 477 0012 BD46     		mov	sp, r7
 478              		.cfi_def_cfa_register 13
 479              		@ sp needed
 480 0014 5DF8047B 		ldr	r7, [sp], #4
 481              		.cfi_restore 7
 482              		.cfi_def_cfa_offset 0
 483 0018 7047     		bx	lr
 484              	.L32:
 485 001a 00BF     		.align	2
 486              	.L31:
 487 001c 8A640040 		.word	1073767562
 488              		.cfi_endproc
 489              	.LFE9:
 490              		.size	PWM_Driver_SetInterruptMode, .-PWM_Driver_SetInterruptMode
 491              		.section	.text.PWM_Driver_ReadStatusRegister,"ax",%progbits
 492              		.align	2
 493              		.global	PWM_Driver_ReadStatusRegister
 494              		.thumb
 495              		.thumb_func
 496              		.type	PWM_Driver_ReadStatusRegister, %function
 497              	PWM_Driver_ReadStatusRegister:
 498              	.LFB10:
 688:Generated_Source\PSoC5/PWM_Driver.c **** 
 689:Generated_Source\PSoC5/PWM_Driver.c **** 
 690:Generated_Source\PSoC5/PWM_Driver.c ****     /*******************************************************************************
 691:Generated_Source\PSoC5/PWM_Driver.c ****     * Function Name: PWM_Driver_ReadStatusRegister
 692:Generated_Source\PSoC5/PWM_Driver.c ****     ********************************************************************************
 693:Generated_Source\PSoC5/PWM_Driver.c ****     *
 694:Generated_Source\PSoC5/PWM_Driver.c ****     * Summary:
 695:Generated_Source\PSoC5/PWM_Driver.c ****     *  This function returns the current state of the status register.
 696:Generated_Source\PSoC5/PWM_Driver.c ****     *
 697:Generated_Source\PSoC5/PWM_Driver.c ****     * Parameters:
 698:Generated_Source\PSoC5/PWM_Driver.c ****     *  None
ARM GAS  C:\Users\KJA\AppData\Local\Temp\ccTHJtLl.s 			page 22


 699:Generated_Source\PSoC5/PWM_Driver.c ****     *
 700:Generated_Source\PSoC5/PWM_Driver.c ****     * Return:
 701:Generated_Source\PSoC5/PWM_Driver.c ****     *  uint8 : Current status register value. The status register bits are:
 702:Generated_Source\PSoC5/PWM_Driver.c ****     *  [7:6] : Unused(0)
 703:Generated_Source\PSoC5/PWM_Driver.c ****     *  [5]   : Kill event output
 704:Generated_Source\PSoC5/PWM_Driver.c ****     *  [4]   : FIFO not empty
 705:Generated_Source\PSoC5/PWM_Driver.c ****     *  [3]   : FIFO full
 706:Generated_Source\PSoC5/PWM_Driver.c ****     *  [2]   : Terminal count
 707:Generated_Source\PSoC5/PWM_Driver.c ****     *  [1]   : Compare output 2
 708:Generated_Source\PSoC5/PWM_Driver.c ****     *  [0]   : Compare output 1
 709:Generated_Source\PSoC5/PWM_Driver.c ****     *
 710:Generated_Source\PSoC5/PWM_Driver.c ****     *******************************************************************************/
 711:Generated_Source\PSoC5/PWM_Driver.c ****     uint8 PWM_Driver_ReadStatusRegister(void) 
 712:Generated_Source\PSoC5/PWM_Driver.c ****     {
 499              		.loc 1 712 0
 500              		.cfi_startproc
 501              		@ args = 0, pretend = 0, frame = 0
 502              		@ frame_needed = 1, uses_anonymous_args = 0
 503              		@ link register save eliminated.
 504 0000 80B4     		push	{r7}
 505              		.cfi_def_cfa_offset 4
 506              		.cfi_offset 7, -4
 507 0002 00AF     		add	r7, sp, #0
 508              		.cfi_def_cfa_register 7
 713:Generated_Source\PSoC5/PWM_Driver.c ****         return (CY_GET_REG8(PWM_Driver_STATUS_PTR));
 509              		.loc 1 713 0
 510 0004 034B     		ldr	r3, .L35
 511 0006 1B78     		ldrb	r3, [r3]
 512 0008 DBB2     		uxtb	r3, r3
 714:Generated_Source\PSoC5/PWM_Driver.c ****     }
 513              		.loc 1 714 0
 514 000a 1846     		mov	r0, r3
 515 000c BD46     		mov	sp, r7
 516              		.cfi_def_cfa_register 13
 517              		@ sp needed
 518 000e 5DF8047B 		ldr	r7, [sp], #4
 519              		.cfi_restore 7
 520              		.cfi_def_cfa_offset 0
 521 0012 7047     		bx	lr
 522              	.L36:
 523              		.align	2
 524              	.L35:
 525 0014 6A640040 		.word	1073767530
 526              		.cfi_endproc
 527              	.LFE10:
 528              		.size	PWM_Driver_ReadStatusRegister, .-PWM_Driver_ReadStatusRegister
 529              		.section	.text.PWM_Driver_ReadControlRegister,"ax",%progbits
 530              		.align	2
 531              		.global	PWM_Driver_ReadControlRegister
 532              		.thumb
 533              		.thumb_func
 534              		.type	PWM_Driver_ReadControlRegister, %function
 535              	PWM_Driver_ReadControlRegister:
 536              	.LFB11:
 715:Generated_Source\PSoC5/PWM_Driver.c **** 
 716:Generated_Source\PSoC5/PWM_Driver.c **** #endif /* (PWM_Driver_UseStatus || PWM_Driver_UsingFixedFunction) */
 717:Generated_Source\PSoC5/PWM_Driver.c **** 
ARM GAS  C:\Users\KJA\AppData\Local\Temp\ccTHJtLl.s 			page 23


 718:Generated_Source\PSoC5/PWM_Driver.c **** 
 719:Generated_Source\PSoC5/PWM_Driver.c **** #if (PWM_Driver_UseControl)
 720:Generated_Source\PSoC5/PWM_Driver.c **** 
 721:Generated_Source\PSoC5/PWM_Driver.c **** 
 722:Generated_Source\PSoC5/PWM_Driver.c ****     /*******************************************************************************
 723:Generated_Source\PSoC5/PWM_Driver.c ****     * Function Name: PWM_Driver_ReadControlRegister
 724:Generated_Source\PSoC5/PWM_Driver.c ****     ********************************************************************************
 725:Generated_Source\PSoC5/PWM_Driver.c ****     *
 726:Generated_Source\PSoC5/PWM_Driver.c ****     * Summary:
 727:Generated_Source\PSoC5/PWM_Driver.c ****     *  Returns the current state of the control register. This API is available
 728:Generated_Source\PSoC5/PWM_Driver.c ****     *  only if the control register is not removed.
 729:Generated_Source\PSoC5/PWM_Driver.c ****     *
 730:Generated_Source\PSoC5/PWM_Driver.c ****     * Parameters:
 731:Generated_Source\PSoC5/PWM_Driver.c ****     *  None
 732:Generated_Source\PSoC5/PWM_Driver.c ****     *
 733:Generated_Source\PSoC5/PWM_Driver.c ****     * Return:
 734:Generated_Source\PSoC5/PWM_Driver.c ****     *  uint8 : Current control register value
 735:Generated_Source\PSoC5/PWM_Driver.c ****     *
 736:Generated_Source\PSoC5/PWM_Driver.c ****     *******************************************************************************/
 737:Generated_Source\PSoC5/PWM_Driver.c ****     uint8 PWM_Driver_ReadControlRegister(void) 
 738:Generated_Source\PSoC5/PWM_Driver.c ****     {
 537              		.loc 1 738 0
 538              		.cfi_startproc
 539              		@ args = 0, pretend = 0, frame = 8
 540              		@ frame_needed = 1, uses_anonymous_args = 0
 541              		@ link register save eliminated.
 542 0000 80B4     		push	{r7}
 543              		.cfi_def_cfa_offset 4
 544              		.cfi_offset 7, -4
 545 0002 83B0     		sub	sp, sp, #12
 546              		.cfi_def_cfa_offset 16
 547 0004 00AF     		add	r7, sp, #0
 548              		.cfi_def_cfa_register 7
 739:Generated_Source\PSoC5/PWM_Driver.c ****         uint8 result;
 740:Generated_Source\PSoC5/PWM_Driver.c **** 
 741:Generated_Source\PSoC5/PWM_Driver.c ****         result = CY_GET_REG8(PWM_Driver_CONTROL_PTR);
 549              		.loc 1 741 0
 550 0006 054B     		ldr	r3, .L39
 551 0008 1B78     		ldrb	r3, [r3]
 552 000a FB71     		strb	r3, [r7, #7]
 742:Generated_Source\PSoC5/PWM_Driver.c ****         return (result);
 553              		.loc 1 742 0
 554 000c FB79     		ldrb	r3, [r7, #7]	@ zero_extendqisi2
 743:Generated_Source\PSoC5/PWM_Driver.c ****     }
 555              		.loc 1 743 0
 556 000e 1846     		mov	r0, r3
 557 0010 0C37     		adds	r7, r7, #12
 558              		.cfi_def_cfa_offset 4
 559 0012 BD46     		mov	sp, r7
 560              		.cfi_def_cfa_register 13
 561              		@ sp needed
 562 0014 5DF8047B 		ldr	r7, [sp], #4
 563              		.cfi_restore 7
 564              		.cfi_def_cfa_offset 0
 565 0018 7047     		bx	lr
 566              	.L40:
 567 001a 00BF     		.align	2
ARM GAS  C:\Users\KJA\AppData\Local\Temp\ccTHJtLl.s 			page 24


 568              	.L39:
 569 001c 7A640040 		.word	1073767546
 570              		.cfi_endproc
 571              	.LFE11:
 572              		.size	PWM_Driver_ReadControlRegister, .-PWM_Driver_ReadControlRegister
 573              		.section	.text.PWM_Driver_WriteControlRegister,"ax",%progbits
 574              		.align	2
 575              		.global	PWM_Driver_WriteControlRegister
 576              		.thumb
 577              		.thumb_func
 578              		.type	PWM_Driver_WriteControlRegister, %function
 579              	PWM_Driver_WriteControlRegister:
 580              	.LFB12:
 744:Generated_Source\PSoC5/PWM_Driver.c **** 
 745:Generated_Source\PSoC5/PWM_Driver.c **** 
 746:Generated_Source\PSoC5/PWM_Driver.c ****     /*******************************************************************************
 747:Generated_Source\PSoC5/PWM_Driver.c ****     * Function Name: PWM_Driver_WriteControlRegister
 748:Generated_Source\PSoC5/PWM_Driver.c ****     ********************************************************************************
 749:Generated_Source\PSoC5/PWM_Driver.c ****     *
 750:Generated_Source\PSoC5/PWM_Driver.c ****     * Summary:
 751:Generated_Source\PSoC5/PWM_Driver.c ****     *  Sets the bit field of the control register. This API is available only if
 752:Generated_Source\PSoC5/PWM_Driver.c ****     *  the control register is not removed.
 753:Generated_Source\PSoC5/PWM_Driver.c ****     *
 754:Generated_Source\PSoC5/PWM_Driver.c ****     * Parameters:
 755:Generated_Source\PSoC5/PWM_Driver.c ****     *  uint8 control: Control register bit field, The status register bits are:
 756:Generated_Source\PSoC5/PWM_Driver.c ****     *  [7]   : PWM Enable
 757:Generated_Source\PSoC5/PWM_Driver.c ****     *  [6]   : Reset
 758:Generated_Source\PSoC5/PWM_Driver.c ****     *  [5:3] : Compare Mode2
 759:Generated_Source\PSoC5/PWM_Driver.c ****     *  [2:0] : Compare Mode2
 760:Generated_Source\PSoC5/PWM_Driver.c ****     *
 761:Generated_Source\PSoC5/PWM_Driver.c ****     * Return:
 762:Generated_Source\PSoC5/PWM_Driver.c ****     *  None
 763:Generated_Source\PSoC5/PWM_Driver.c ****     *
 764:Generated_Source\PSoC5/PWM_Driver.c ****     *******************************************************************************/
 765:Generated_Source\PSoC5/PWM_Driver.c ****     void PWM_Driver_WriteControlRegister(uint8 control) 
 766:Generated_Source\PSoC5/PWM_Driver.c ****     {
 581              		.loc 1 766 0
 582              		.cfi_startproc
 583              		@ args = 0, pretend = 0, frame = 8
 584              		@ frame_needed = 1, uses_anonymous_args = 0
 585              		@ link register save eliminated.
 586 0000 80B4     		push	{r7}
 587              		.cfi_def_cfa_offset 4
 588              		.cfi_offset 7, -4
 589 0002 83B0     		sub	sp, sp, #12
 590              		.cfi_def_cfa_offset 16
 591 0004 00AF     		add	r7, sp, #0
 592              		.cfi_def_cfa_register 7
 593 0006 0346     		mov	r3, r0
 594 0008 FB71     		strb	r3, [r7, #7]
 767:Generated_Source\PSoC5/PWM_Driver.c ****         CY_SET_REG8(PWM_Driver_CONTROL_PTR, control);
 595              		.loc 1 767 0
 596 000a 044A     		ldr	r2, .L42
 597 000c FB79     		ldrb	r3, [r7, #7]
 598 000e 1370     		strb	r3, [r2]
 768:Generated_Source\PSoC5/PWM_Driver.c ****     }
 599              		.loc 1 768 0
ARM GAS  C:\Users\KJA\AppData\Local\Temp\ccTHJtLl.s 			page 25


 600 0010 0C37     		adds	r7, r7, #12
 601              		.cfi_def_cfa_offset 4
 602 0012 BD46     		mov	sp, r7
 603              		.cfi_def_cfa_register 13
 604              		@ sp needed
 605 0014 5DF8047B 		ldr	r7, [sp], #4
 606              		.cfi_restore 7
 607              		.cfi_def_cfa_offset 0
 608 0018 7047     		bx	lr
 609              	.L43:
 610 001a 00BF     		.align	2
 611              	.L42:
 612 001c 7A640040 		.word	1073767546
 613              		.cfi_endproc
 614              	.LFE12:
 615              		.size	PWM_Driver_WriteControlRegister, .-PWM_Driver_WriteControlRegister
 616              		.section	.text.PWM_Driver_ReadCapture,"ax",%progbits
 617              		.align	2
 618              		.global	PWM_Driver_ReadCapture
 619              		.thumb
 620              		.thumb_func
 621              		.type	PWM_Driver_ReadCapture, %function
 622              	PWM_Driver_ReadCapture:
 623              	.LFB13:
 769:Generated_Source\PSoC5/PWM_Driver.c **** 
 770:Generated_Source\PSoC5/PWM_Driver.c **** #endif /* (PWM_Driver_UseControl) */
 771:Generated_Source\PSoC5/PWM_Driver.c **** 
 772:Generated_Source\PSoC5/PWM_Driver.c **** 
 773:Generated_Source\PSoC5/PWM_Driver.c **** #if (!PWM_Driver_UsingFixedFunction)
 774:Generated_Source\PSoC5/PWM_Driver.c **** 
 775:Generated_Source\PSoC5/PWM_Driver.c **** 
 776:Generated_Source\PSoC5/PWM_Driver.c ****     /*******************************************************************************
 777:Generated_Source\PSoC5/PWM_Driver.c ****     * Function Name: PWM_Driver_ReadCapture
 778:Generated_Source\PSoC5/PWM_Driver.c ****     ********************************************************************************
 779:Generated_Source\PSoC5/PWM_Driver.c ****     *
 780:Generated_Source\PSoC5/PWM_Driver.c ****     * Summary:
 781:Generated_Source\PSoC5/PWM_Driver.c ****     *  Reads the capture value from the capture FIFO.
 782:Generated_Source\PSoC5/PWM_Driver.c ****     *
 783:Generated_Source\PSoC5/PWM_Driver.c ****     * Parameters:
 784:Generated_Source\PSoC5/PWM_Driver.c ****     *  None
 785:Generated_Source\PSoC5/PWM_Driver.c ****     *
 786:Generated_Source\PSoC5/PWM_Driver.c ****     * Return:
 787:Generated_Source\PSoC5/PWM_Driver.c ****     *  uint8/uint16: The current capture value
 788:Generated_Source\PSoC5/PWM_Driver.c ****     *
 789:Generated_Source\PSoC5/PWM_Driver.c ****     *******************************************************************************/
 790:Generated_Source\PSoC5/PWM_Driver.c ****     uint16 PWM_Driver_ReadCapture(void) 
 791:Generated_Source\PSoC5/PWM_Driver.c ****     {
 624              		.loc 1 791 0
 625              		.cfi_startproc
 626              		@ args = 0, pretend = 0, frame = 0
 627              		@ frame_needed = 1, uses_anonymous_args = 0
 628              		@ link register save eliminated.
 629 0000 80B4     		push	{r7}
 630              		.cfi_def_cfa_offset 4
 631              		.cfi_offset 7, -4
 632 0002 00AF     		add	r7, sp, #0
 633              		.cfi_def_cfa_register 7
ARM GAS  C:\Users\KJA\AppData\Local\Temp\ccTHJtLl.s 			page 26


 792:Generated_Source\PSoC5/PWM_Driver.c ****         return (CY_GET_REG16(PWM_Driver_CAPTURE_LSB_PTR));
 634              		.loc 1 792 0
 635 0004 034B     		ldr	r3, .L46
 636 0006 1B88     		ldrh	r3, [r3]	@ movhi
 637 0008 9BB2     		uxth	r3, r3
 793:Generated_Source\PSoC5/PWM_Driver.c ****     }
 638              		.loc 1 793 0
 639 000a 1846     		mov	r0, r3
 640 000c BD46     		mov	sp, r7
 641              		.cfi_def_cfa_register 13
 642              		@ sp needed
 643 000e 5DF8047B 		ldr	r7, [sp], #4
 644              		.cfi_restore 7
 645              		.cfi_def_cfa_offset 0
 646 0012 7047     		bx	lr
 647              	.L47:
 648              		.align	2
 649              	.L46:
 650 0014 B2680040 		.word	1073768626
 651              		.cfi_endproc
 652              	.LFE13:
 653              		.size	PWM_Driver_ReadCapture, .-PWM_Driver_ReadCapture
 654              		.section	.text.PWM_Driver_ReadCompare,"ax",%progbits
 655              		.align	2
 656              		.global	PWM_Driver_ReadCompare
 657              		.thumb
 658              		.thumb_func
 659              		.type	PWM_Driver_ReadCompare, %function
 660              	PWM_Driver_ReadCompare:
 661              	.LFB14:
 794:Generated_Source\PSoC5/PWM_Driver.c **** 
 795:Generated_Source\PSoC5/PWM_Driver.c **** #endif /* (!PWM_Driver_UsingFixedFunction) */
 796:Generated_Source\PSoC5/PWM_Driver.c **** 
 797:Generated_Source\PSoC5/PWM_Driver.c **** 
 798:Generated_Source\PSoC5/PWM_Driver.c **** #if (PWM_Driver_UseOneCompareMode)
 799:Generated_Source\PSoC5/PWM_Driver.c **** 
 800:Generated_Source\PSoC5/PWM_Driver.c **** 
 801:Generated_Source\PSoC5/PWM_Driver.c ****     /*******************************************************************************
 802:Generated_Source\PSoC5/PWM_Driver.c ****     * Function Name: PWM_Driver_ReadCompare
 803:Generated_Source\PSoC5/PWM_Driver.c ****     ********************************************************************************
 804:Generated_Source\PSoC5/PWM_Driver.c ****     *
 805:Generated_Source\PSoC5/PWM_Driver.c ****     * Summary:
 806:Generated_Source\PSoC5/PWM_Driver.c ****     *  Reads the compare value for the compare output when the PWM Mode parameter is
 807:Generated_Source\PSoC5/PWM_Driver.c ****     *  set to Dither mode, Center Aligned mode, or One Output mode.
 808:Generated_Source\PSoC5/PWM_Driver.c ****     *
 809:Generated_Source\PSoC5/PWM_Driver.c ****     * Parameters:
 810:Generated_Source\PSoC5/PWM_Driver.c ****     *  None
 811:Generated_Source\PSoC5/PWM_Driver.c ****     *
 812:Generated_Source\PSoC5/PWM_Driver.c ****     * Return:
 813:Generated_Source\PSoC5/PWM_Driver.c ****     *  uint8/uint16: Current compare value
 814:Generated_Source\PSoC5/PWM_Driver.c ****     *
 815:Generated_Source\PSoC5/PWM_Driver.c ****     *******************************************************************************/
 816:Generated_Source\PSoC5/PWM_Driver.c ****     uint16 PWM_Driver_ReadCompare(void) 
 817:Generated_Source\PSoC5/PWM_Driver.c ****     {
 662              		.loc 1 817 0
 663              		.cfi_startproc
 664              		@ args = 0, pretend = 0, frame = 0
ARM GAS  C:\Users\KJA\AppData\Local\Temp\ccTHJtLl.s 			page 27


 665              		@ frame_needed = 1, uses_anonymous_args = 0
 666              		@ link register save eliminated.
 667 0000 80B4     		push	{r7}
 668              		.cfi_def_cfa_offset 4
 669              		.cfi_offset 7, -4
 670 0002 00AF     		add	r7, sp, #0
 671              		.cfi_def_cfa_register 7
 818:Generated_Source\PSoC5/PWM_Driver.c ****         #if(PWM_Driver_UsingFixedFunction)
 819:Generated_Source\PSoC5/PWM_Driver.c ****             return ((uint16)CY_GET_REG16(PWM_Driver_COMPARE1_LSB_PTR));
 820:Generated_Source\PSoC5/PWM_Driver.c ****         #else
 821:Generated_Source\PSoC5/PWM_Driver.c ****             return (CY_GET_REG16(PWM_Driver_COMPARE1_LSB_PTR));
 672              		.loc 1 821 0
 673 0004 034B     		ldr	r3, .L50
 674 0006 1B88     		ldrh	r3, [r3]	@ movhi
 675 0008 9BB2     		uxth	r3, r3
 822:Generated_Source\PSoC5/PWM_Driver.c ****         #endif /* (PWM_Driver_UsingFixedFunction) */
 823:Generated_Source\PSoC5/PWM_Driver.c ****     }
 676              		.loc 1 823 0
 677 000a 1846     		mov	r0, r3
 678 000c BD46     		mov	sp, r7
 679              		.cfi_def_cfa_register 13
 680              		@ sp needed
 681 000e 5DF8047B 		ldr	r7, [sp], #4
 682              		.cfi_restore 7
 683              		.cfi_def_cfa_offset 0
 684 0012 7047     		bx	lr
 685              	.L51:
 686              		.align	2
 687              	.L50:
 688 0014 52680040 		.word	1073768530
 689              		.cfi_endproc
 690              	.LFE14:
 691              		.size	PWM_Driver_ReadCompare, .-PWM_Driver_ReadCompare
 692              		.section	.text.PWM_Driver_ReadPeriod,"ax",%progbits
 693              		.align	2
 694              		.global	PWM_Driver_ReadPeriod
 695              		.thumb
 696              		.thumb_func
 697              		.type	PWM_Driver_ReadPeriod, %function
 698              	PWM_Driver_ReadPeriod:
 699              	.LFB15:
 824:Generated_Source\PSoC5/PWM_Driver.c **** 
 825:Generated_Source\PSoC5/PWM_Driver.c **** #else
 826:Generated_Source\PSoC5/PWM_Driver.c **** 
 827:Generated_Source\PSoC5/PWM_Driver.c **** 
 828:Generated_Source\PSoC5/PWM_Driver.c ****     /*******************************************************************************
 829:Generated_Source\PSoC5/PWM_Driver.c ****     * Function Name: PWM_Driver_ReadCompare1
 830:Generated_Source\PSoC5/PWM_Driver.c ****     ********************************************************************************
 831:Generated_Source\PSoC5/PWM_Driver.c ****     *
 832:Generated_Source\PSoC5/PWM_Driver.c ****     * Summary:
 833:Generated_Source\PSoC5/PWM_Driver.c ****     *  Reads the compare value for the compare1 output.
 834:Generated_Source\PSoC5/PWM_Driver.c ****     *
 835:Generated_Source\PSoC5/PWM_Driver.c ****     * Parameters:
 836:Generated_Source\PSoC5/PWM_Driver.c ****     *  None
 837:Generated_Source\PSoC5/PWM_Driver.c ****     *
 838:Generated_Source\PSoC5/PWM_Driver.c ****     * Return:
 839:Generated_Source\PSoC5/PWM_Driver.c ****     *  uint8/uint16: Current compare value.
ARM GAS  C:\Users\KJA\AppData\Local\Temp\ccTHJtLl.s 			page 28


 840:Generated_Source\PSoC5/PWM_Driver.c ****     *
 841:Generated_Source\PSoC5/PWM_Driver.c ****     *******************************************************************************/
 842:Generated_Source\PSoC5/PWM_Driver.c ****     uint16 PWM_Driver_ReadCompare1(void) 
 843:Generated_Source\PSoC5/PWM_Driver.c ****     {
 844:Generated_Source\PSoC5/PWM_Driver.c ****         return (CY_GET_REG16(PWM_Driver_COMPARE1_LSB_PTR));
 845:Generated_Source\PSoC5/PWM_Driver.c ****     }
 846:Generated_Source\PSoC5/PWM_Driver.c **** 
 847:Generated_Source\PSoC5/PWM_Driver.c **** 
 848:Generated_Source\PSoC5/PWM_Driver.c ****     /*******************************************************************************
 849:Generated_Source\PSoC5/PWM_Driver.c ****     * Function Name: PWM_Driver_ReadCompare2
 850:Generated_Source\PSoC5/PWM_Driver.c ****     ********************************************************************************
 851:Generated_Source\PSoC5/PWM_Driver.c ****     *
 852:Generated_Source\PSoC5/PWM_Driver.c ****     * Summary:
 853:Generated_Source\PSoC5/PWM_Driver.c ****     *  Reads the compare value for the compare2 output.
 854:Generated_Source\PSoC5/PWM_Driver.c ****     *
 855:Generated_Source\PSoC5/PWM_Driver.c ****     * Parameters:
 856:Generated_Source\PSoC5/PWM_Driver.c ****     *  None
 857:Generated_Source\PSoC5/PWM_Driver.c ****     *
 858:Generated_Source\PSoC5/PWM_Driver.c ****     * Return:
 859:Generated_Source\PSoC5/PWM_Driver.c ****     *  uint8/uint16: Current compare value.
 860:Generated_Source\PSoC5/PWM_Driver.c ****     *
 861:Generated_Source\PSoC5/PWM_Driver.c ****     *******************************************************************************/
 862:Generated_Source\PSoC5/PWM_Driver.c ****     uint16 PWM_Driver_ReadCompare2(void) 
 863:Generated_Source\PSoC5/PWM_Driver.c ****     {
 864:Generated_Source\PSoC5/PWM_Driver.c ****         return (CY_GET_REG16(PWM_Driver_COMPARE2_LSB_PTR));
 865:Generated_Source\PSoC5/PWM_Driver.c ****     }
 866:Generated_Source\PSoC5/PWM_Driver.c **** 
 867:Generated_Source\PSoC5/PWM_Driver.c **** #endif /* (PWM_Driver_UseOneCompareMode) */
 868:Generated_Source\PSoC5/PWM_Driver.c **** 
 869:Generated_Source\PSoC5/PWM_Driver.c **** 
 870:Generated_Source\PSoC5/PWM_Driver.c **** /*******************************************************************************
 871:Generated_Source\PSoC5/PWM_Driver.c **** * Function Name: PWM_Driver_ReadPeriod
 872:Generated_Source\PSoC5/PWM_Driver.c **** ********************************************************************************
 873:Generated_Source\PSoC5/PWM_Driver.c **** *
 874:Generated_Source\PSoC5/PWM_Driver.c **** * Summary:
 875:Generated_Source\PSoC5/PWM_Driver.c **** *  Reads the period value used by the PWM hardware.
 876:Generated_Source\PSoC5/PWM_Driver.c **** *
 877:Generated_Source\PSoC5/PWM_Driver.c **** * Parameters:
 878:Generated_Source\PSoC5/PWM_Driver.c **** *  None
 879:Generated_Source\PSoC5/PWM_Driver.c **** *
 880:Generated_Source\PSoC5/PWM_Driver.c **** * Return:
 881:Generated_Source\PSoC5/PWM_Driver.c **** *  uint8/16: Period value
 882:Generated_Source\PSoC5/PWM_Driver.c **** *
 883:Generated_Source\PSoC5/PWM_Driver.c **** *******************************************************************************/
 884:Generated_Source\PSoC5/PWM_Driver.c **** uint16 PWM_Driver_ReadPeriod(void) 
 885:Generated_Source\PSoC5/PWM_Driver.c **** {
 700              		.loc 1 885 0
 701              		.cfi_startproc
 702              		@ args = 0, pretend = 0, frame = 0
 703              		@ frame_needed = 1, uses_anonymous_args = 0
 704              		@ link register save eliminated.
 705 0000 80B4     		push	{r7}
 706              		.cfi_def_cfa_offset 4
 707              		.cfi_offset 7, -4
 708 0002 00AF     		add	r7, sp, #0
 709              		.cfi_def_cfa_register 7
 886:Generated_Source\PSoC5/PWM_Driver.c ****     #if(PWM_Driver_UsingFixedFunction)
ARM GAS  C:\Users\KJA\AppData\Local\Temp\ccTHJtLl.s 			page 29


 887:Generated_Source\PSoC5/PWM_Driver.c ****         return ((uint16)CY_GET_REG16(PWM_Driver_PERIOD_LSB_PTR));
 888:Generated_Source\PSoC5/PWM_Driver.c ****     #else
 889:Generated_Source\PSoC5/PWM_Driver.c ****         return (CY_GET_REG16(PWM_Driver_PERIOD_LSB_PTR));
 710              		.loc 1 889 0
 711 0004 034B     		ldr	r3, .L54
 712 0006 1B88     		ldrh	r3, [r3]	@ movhi
 713 0008 9BB2     		uxth	r3, r3
 890:Generated_Source\PSoC5/PWM_Driver.c ****     #endif /* (PWM_Driver_UsingFixedFunction) */
 891:Generated_Source\PSoC5/PWM_Driver.c **** }
 714              		.loc 1 891 0
 715 000a 1846     		mov	r0, r3
 716 000c BD46     		mov	sp, r7
 717              		.cfi_def_cfa_register 13
 718              		@ sp needed
 719 000e 5DF8047B 		ldr	r7, [sp], #4
 720              		.cfi_restore 7
 721              		.cfi_def_cfa_offset 0
 722 0012 7047     		bx	lr
 723              	.L55:
 724              		.align	2
 725              	.L54:
 726 0014 92680040 		.word	1073768594
 727              		.cfi_endproc
 728              	.LFE15:
 729              		.size	PWM_Driver_ReadPeriod, .-PWM_Driver_ReadPeriod
 730              		.text
 731              	.Letext0:
 732              		.file 2 "Generated_Source\\PSoC5\\cytypes.h"