ARM GAS  C:\Users\KJA\AppData\Local\Temp\ccJdGUfb.s 			page 1


   1              		.syntax unified
   2              		.cpu cortex-m3
   3              		.fpu softvfp
   4              		.eabi_attribute 20, 1
   5              		.eabi_attribute 21, 1
   6              		.eabi_attribute 23, 3
   7              		.eabi_attribute 24, 1
   8              		.eabi_attribute 25, 1
   9              		.eabi_attribute 26, 1
  10              		.eabi_attribute 30, 6
  11              		.eabi_attribute 34, 1
  12              		.eabi_attribute 18, 4
  13              		.thumb
  14              		.file	"PWM_Buzz_PM.c"
  15              		.text
  16              	.Ltext0:
  17              		.cfi_sections	.debug_frame
  18              		.bss
  19              		.align	2
  20              	PWM_Buzz_backup:
  21 0000 00000000 		.space	4
  22              		.section	.text.PWM_Buzz_SaveConfig,"ax",%progbits
  23              		.align	2
  24              		.global	PWM_Buzz_SaveConfig
  25              		.thumb
  26              		.thumb_func
  27              		.type	PWM_Buzz_SaveConfig, %function
  28              	PWM_Buzz_SaveConfig:
  29              	.LFB0:
  30              		.file 1 "Generated_Source\\PSoC5\\PWM_Buzz_PM.c"
   1:Generated_Source\PSoC5/PWM_Buzz_PM.c **** /*******************************************************************************
   2:Generated_Source\PSoC5/PWM_Buzz_PM.c **** * File Name: PWM_Buzz_PM.c
   3:Generated_Source\PSoC5/PWM_Buzz_PM.c **** * Version 3.30
   4:Generated_Source\PSoC5/PWM_Buzz_PM.c **** *
   5:Generated_Source\PSoC5/PWM_Buzz_PM.c **** * Description:
   6:Generated_Source\PSoC5/PWM_Buzz_PM.c **** *  This file provides the power management source code to API for the
   7:Generated_Source\PSoC5/PWM_Buzz_PM.c **** *  PWM.
   8:Generated_Source\PSoC5/PWM_Buzz_PM.c **** *
   9:Generated_Source\PSoC5/PWM_Buzz_PM.c **** * Note:
  10:Generated_Source\PSoC5/PWM_Buzz_PM.c **** *
  11:Generated_Source\PSoC5/PWM_Buzz_PM.c **** ********************************************************************************
  12:Generated_Source\PSoC5/PWM_Buzz_PM.c **** * Copyright 2008-2014, Cypress Semiconductor Corporation.  All rights reserved.
  13:Generated_Source\PSoC5/PWM_Buzz_PM.c **** * You may use this file only in accordance with the license, terms, conditions,
  14:Generated_Source\PSoC5/PWM_Buzz_PM.c **** * disclaimers, and limitations in the end user license agreement accompanying
  15:Generated_Source\PSoC5/PWM_Buzz_PM.c **** * the software package with which this file was provided.
  16:Generated_Source\PSoC5/PWM_Buzz_PM.c **** *******************************************************************************/
  17:Generated_Source\PSoC5/PWM_Buzz_PM.c **** 
  18:Generated_Source\PSoC5/PWM_Buzz_PM.c **** #include "PWM_Buzz.h"
  19:Generated_Source\PSoC5/PWM_Buzz_PM.c **** 
  20:Generated_Source\PSoC5/PWM_Buzz_PM.c **** static PWM_Buzz_backupStruct PWM_Buzz_backup;
  21:Generated_Source\PSoC5/PWM_Buzz_PM.c **** 
  22:Generated_Source\PSoC5/PWM_Buzz_PM.c **** 
  23:Generated_Source\PSoC5/PWM_Buzz_PM.c **** /*******************************************************************************
  24:Generated_Source\PSoC5/PWM_Buzz_PM.c **** * Function Name: PWM_Buzz_SaveConfig
  25:Generated_Source\PSoC5/PWM_Buzz_PM.c **** ********************************************************************************
  26:Generated_Source\PSoC5/PWM_Buzz_PM.c **** *
  27:Generated_Source\PSoC5/PWM_Buzz_PM.c **** * Summary:
ARM GAS  C:\Users\KJA\AppData\Local\Temp\ccJdGUfb.s 			page 2


  28:Generated_Source\PSoC5/PWM_Buzz_PM.c **** *  Saves the current user configuration of the component.
  29:Generated_Source\PSoC5/PWM_Buzz_PM.c **** *
  30:Generated_Source\PSoC5/PWM_Buzz_PM.c **** * Parameters:
  31:Generated_Source\PSoC5/PWM_Buzz_PM.c **** *  None
  32:Generated_Source\PSoC5/PWM_Buzz_PM.c **** *
  33:Generated_Source\PSoC5/PWM_Buzz_PM.c **** * Return:
  34:Generated_Source\PSoC5/PWM_Buzz_PM.c **** *  None
  35:Generated_Source\PSoC5/PWM_Buzz_PM.c **** *
  36:Generated_Source\PSoC5/PWM_Buzz_PM.c **** * Global variables:
  37:Generated_Source\PSoC5/PWM_Buzz_PM.c **** *  PWM_Buzz_backup:  Variables of this global structure are modified to
  38:Generated_Source\PSoC5/PWM_Buzz_PM.c **** *  store the values of non retention configuration registers when Sleep() API is
  39:Generated_Source\PSoC5/PWM_Buzz_PM.c **** *  called.
  40:Generated_Source\PSoC5/PWM_Buzz_PM.c **** *
  41:Generated_Source\PSoC5/PWM_Buzz_PM.c **** *******************************************************************************/
  42:Generated_Source\PSoC5/PWM_Buzz_PM.c **** void PWM_Buzz_SaveConfig(void) 
  43:Generated_Source\PSoC5/PWM_Buzz_PM.c **** {
  31              		.loc 1 43 0
  32              		.cfi_startproc
  33              		@ args = 0, pretend = 0, frame = 0
  34              		@ frame_needed = 1, uses_anonymous_args = 0
  35 0000 80B5     		push	{r7, lr}
  36              		.cfi_def_cfa_offset 8
  37              		.cfi_offset 7, -8
  38              		.cfi_offset 14, -4
  39 0002 00AF     		add	r7, sp, #0
  40              		.cfi_def_cfa_register 7
  44:Generated_Source\PSoC5/PWM_Buzz_PM.c **** 
  45:Generated_Source\PSoC5/PWM_Buzz_PM.c ****     #if(!PWM_Buzz_UsingFixedFunction)
  46:Generated_Source\PSoC5/PWM_Buzz_PM.c ****         #if(!PWM_Buzz_PWMModeIsCenterAligned)
  47:Generated_Source\PSoC5/PWM_Buzz_PM.c ****             PWM_Buzz_backup.PWMPeriod = PWM_Buzz_ReadPeriod();
  41              		.loc 1 47 0
  42 0004 FFF7FEFF 		bl	PWM_Buzz_ReadPeriod
  43 0008 0346     		mov	r3, r0
  44 000a 1A46     		mov	r2, r3
  45 000c 064B     		ldr	r3, .L2
  46 000e 9A70     		strb	r2, [r3, #2]
  48:Generated_Source\PSoC5/PWM_Buzz_PM.c ****         #endif /* (!PWM_Buzz_PWMModeIsCenterAligned) */
  49:Generated_Source\PSoC5/PWM_Buzz_PM.c ****         PWM_Buzz_backup.PWMUdb = PWM_Buzz_ReadCounter();
  47              		.loc 1 49 0
  48 0010 FFF7FEFF 		bl	PWM_Buzz_ReadCounter
  49 0014 0346     		mov	r3, r0
  50 0016 1A46     		mov	r2, r3
  51 0018 034B     		ldr	r3, .L2
  52 001a 5A70     		strb	r2, [r3, #1]
  50:Generated_Source\PSoC5/PWM_Buzz_PM.c ****         #if (PWM_Buzz_UseStatus)
  51:Generated_Source\PSoC5/PWM_Buzz_PM.c ****             PWM_Buzz_backup.InterruptMaskValue = PWM_Buzz_STATUS_MASK;
  53              		.loc 1 51 0
  54 001c 034B     		ldr	r3, .L2+4
  55 001e 1B78     		ldrb	r3, [r3]
  56 0020 DAB2     		uxtb	r2, r3
  57 0022 014B     		ldr	r3, .L2
  58 0024 DA70     		strb	r2, [r3, #3]
  52:Generated_Source\PSoC5/PWM_Buzz_PM.c ****         #endif /* (PWM_Buzz_UseStatus) */
  53:Generated_Source\PSoC5/PWM_Buzz_PM.c **** 
  54:Generated_Source\PSoC5/PWM_Buzz_PM.c ****         #if(PWM_Buzz_DeadBandMode == PWM_Buzz__B_PWM__DBM_256_CLOCKS || \
  55:Generated_Source\PSoC5/PWM_Buzz_PM.c ****             PWM_Buzz_DeadBandMode == PWM_Buzz__B_PWM__DBM_2_4_CLOCKS)
  56:Generated_Source\PSoC5/PWM_Buzz_PM.c ****             PWM_Buzz_backup.PWMdeadBandValue = PWM_Buzz_ReadDeadTime();
ARM GAS  C:\Users\KJA\AppData\Local\Temp\ccJdGUfb.s 			page 3


  57:Generated_Source\PSoC5/PWM_Buzz_PM.c ****         #endif /*  deadband count is either 2-4 clocks or 256 clocks */
  58:Generated_Source\PSoC5/PWM_Buzz_PM.c **** 
  59:Generated_Source\PSoC5/PWM_Buzz_PM.c ****         #if(PWM_Buzz_KillModeMinTime)
  60:Generated_Source\PSoC5/PWM_Buzz_PM.c ****              PWM_Buzz_backup.PWMKillCounterPeriod = PWM_Buzz_ReadKillTime();
  61:Generated_Source\PSoC5/PWM_Buzz_PM.c ****         #endif /* (PWM_Buzz_KillModeMinTime) */
  62:Generated_Source\PSoC5/PWM_Buzz_PM.c **** 
  63:Generated_Source\PSoC5/PWM_Buzz_PM.c ****         #if(PWM_Buzz_UseControl)
  64:Generated_Source\PSoC5/PWM_Buzz_PM.c ****             PWM_Buzz_backup.PWMControlRegister = PWM_Buzz_ReadControlRegister();
  65:Generated_Source\PSoC5/PWM_Buzz_PM.c ****         #endif /* (PWM_Buzz_UseControl) */
  66:Generated_Source\PSoC5/PWM_Buzz_PM.c ****     #endif  /* (!PWM_Buzz_UsingFixedFunction) */
  67:Generated_Source\PSoC5/PWM_Buzz_PM.c **** }
  59              		.loc 1 67 0
  60 0026 80BD     		pop	{r7, pc}
  61              	.L3:
  62              		.align	2
  63              	.L2:
  64 0028 00000000 		.word	PWM_Buzz_backup
  65 002c 83640040 		.word	1073767555
  66              		.cfi_endproc
  67              	.LFE0:
  68              		.size	PWM_Buzz_SaveConfig, .-PWM_Buzz_SaveConfig
  69              		.section	.text.PWM_Buzz_RestoreConfig,"ax",%progbits
  70              		.align	2
  71              		.global	PWM_Buzz_RestoreConfig
  72              		.thumb
  73              		.thumb_func
  74              		.type	PWM_Buzz_RestoreConfig, %function
  75              	PWM_Buzz_RestoreConfig:
  76              	.LFB1:
  68:Generated_Source\PSoC5/PWM_Buzz_PM.c **** 
  69:Generated_Source\PSoC5/PWM_Buzz_PM.c **** 
  70:Generated_Source\PSoC5/PWM_Buzz_PM.c **** /*******************************************************************************
  71:Generated_Source\PSoC5/PWM_Buzz_PM.c **** * Function Name: PWM_Buzz_RestoreConfig
  72:Generated_Source\PSoC5/PWM_Buzz_PM.c **** ********************************************************************************
  73:Generated_Source\PSoC5/PWM_Buzz_PM.c **** *
  74:Generated_Source\PSoC5/PWM_Buzz_PM.c **** * Summary:
  75:Generated_Source\PSoC5/PWM_Buzz_PM.c **** *  Restores the current user configuration of the component.
  76:Generated_Source\PSoC5/PWM_Buzz_PM.c **** *
  77:Generated_Source\PSoC5/PWM_Buzz_PM.c **** * Parameters:
  78:Generated_Source\PSoC5/PWM_Buzz_PM.c **** *  None
  79:Generated_Source\PSoC5/PWM_Buzz_PM.c **** *
  80:Generated_Source\PSoC5/PWM_Buzz_PM.c **** * Return:
  81:Generated_Source\PSoC5/PWM_Buzz_PM.c **** *  None
  82:Generated_Source\PSoC5/PWM_Buzz_PM.c **** *
  83:Generated_Source\PSoC5/PWM_Buzz_PM.c **** * Global variables:
  84:Generated_Source\PSoC5/PWM_Buzz_PM.c **** *  PWM_Buzz_backup:  Variables of this global structure are used to
  85:Generated_Source\PSoC5/PWM_Buzz_PM.c **** *  restore the values of non retention registers on wakeup from sleep mode.
  86:Generated_Source\PSoC5/PWM_Buzz_PM.c **** *
  87:Generated_Source\PSoC5/PWM_Buzz_PM.c **** *******************************************************************************/
  88:Generated_Source\PSoC5/PWM_Buzz_PM.c **** void PWM_Buzz_RestoreConfig(void) 
  89:Generated_Source\PSoC5/PWM_Buzz_PM.c **** {
  77              		.loc 1 89 0
  78              		.cfi_startproc
  79              		@ args = 0, pretend = 0, frame = 0
  80              		@ frame_needed = 1, uses_anonymous_args = 0
  81 0000 80B5     		push	{r7, lr}
  82              		.cfi_def_cfa_offset 8
ARM GAS  C:\Users\KJA\AppData\Local\Temp\ccJdGUfb.s 			page 4


  83              		.cfi_offset 7, -8
  84              		.cfi_offset 14, -4
  85 0002 00AF     		add	r7, sp, #0
  86              		.cfi_def_cfa_register 7
  90:Generated_Source\PSoC5/PWM_Buzz_PM.c ****         #if(!PWM_Buzz_UsingFixedFunction)
  91:Generated_Source\PSoC5/PWM_Buzz_PM.c ****             #if(!PWM_Buzz_PWMModeIsCenterAligned)
  92:Generated_Source\PSoC5/PWM_Buzz_PM.c ****                 PWM_Buzz_WritePeriod(PWM_Buzz_backup.PWMPeriod);
  87              		.loc 1 92 0
  88 0004 074B     		ldr	r3, .L5
  89 0006 9B78     		ldrb	r3, [r3, #2]	@ zero_extendqisi2
  90 0008 1846     		mov	r0, r3
  91 000a FFF7FEFF 		bl	PWM_Buzz_WritePeriod
  93:Generated_Source\PSoC5/PWM_Buzz_PM.c ****             #endif /* (!PWM_Buzz_PWMModeIsCenterAligned) */
  94:Generated_Source\PSoC5/PWM_Buzz_PM.c **** 
  95:Generated_Source\PSoC5/PWM_Buzz_PM.c ****             PWM_Buzz_WriteCounter(PWM_Buzz_backup.PWMUdb);
  92              		.loc 1 95 0
  93 000e 054B     		ldr	r3, .L5
  94 0010 5B78     		ldrb	r3, [r3, #1]	@ zero_extendqisi2
  95 0012 1846     		mov	r0, r3
  96 0014 FFF7FEFF 		bl	PWM_Buzz_WriteCounter
  96:Generated_Source\PSoC5/PWM_Buzz_PM.c **** 
  97:Generated_Source\PSoC5/PWM_Buzz_PM.c ****             #if (PWM_Buzz_UseStatus)
  98:Generated_Source\PSoC5/PWM_Buzz_PM.c ****                 PWM_Buzz_STATUS_MASK = PWM_Buzz_backup.InterruptMaskValue;
  97              		.loc 1 98 0
  98 0018 034B     		ldr	r3, .L5+4
  99 001a 024A     		ldr	r2, .L5
 100 001c D278     		ldrb	r2, [r2, #3]	@ zero_extendqisi2
 101 001e 1A70     		strb	r2, [r3]
  99:Generated_Source\PSoC5/PWM_Buzz_PM.c ****             #endif /* (PWM_Buzz_UseStatus) */
 100:Generated_Source\PSoC5/PWM_Buzz_PM.c **** 
 101:Generated_Source\PSoC5/PWM_Buzz_PM.c ****             #if(PWM_Buzz_DeadBandMode == PWM_Buzz__B_PWM__DBM_256_CLOCKS || \
 102:Generated_Source\PSoC5/PWM_Buzz_PM.c ****                 PWM_Buzz_DeadBandMode == PWM_Buzz__B_PWM__DBM_2_4_CLOCKS)
 103:Generated_Source\PSoC5/PWM_Buzz_PM.c ****                 PWM_Buzz_WriteDeadTime(PWM_Buzz_backup.PWMdeadBandValue);
 104:Generated_Source\PSoC5/PWM_Buzz_PM.c ****             #endif /* deadband count is either 2-4 clocks or 256 clocks */
 105:Generated_Source\PSoC5/PWM_Buzz_PM.c **** 
 106:Generated_Source\PSoC5/PWM_Buzz_PM.c ****             #if(PWM_Buzz_KillModeMinTime)
 107:Generated_Source\PSoC5/PWM_Buzz_PM.c ****                 PWM_Buzz_WriteKillTime(PWM_Buzz_backup.PWMKillCounterPeriod);
 108:Generated_Source\PSoC5/PWM_Buzz_PM.c ****             #endif /* (PWM_Buzz_KillModeMinTime) */
 109:Generated_Source\PSoC5/PWM_Buzz_PM.c **** 
 110:Generated_Source\PSoC5/PWM_Buzz_PM.c ****             #if(PWM_Buzz_UseControl)
 111:Generated_Source\PSoC5/PWM_Buzz_PM.c ****                 PWM_Buzz_WriteControlRegister(PWM_Buzz_backup.PWMControlRegister);
 112:Generated_Source\PSoC5/PWM_Buzz_PM.c ****             #endif /* (PWM_Buzz_UseControl) */
 113:Generated_Source\PSoC5/PWM_Buzz_PM.c ****         #endif  /* (!PWM_Buzz_UsingFixedFunction) */
 114:Generated_Source\PSoC5/PWM_Buzz_PM.c ****     }
 102              		.loc 1 114 0
 103 0020 80BD     		pop	{r7, pc}
 104              	.L6:
 105 0022 00BF     		.align	2
 106              	.L5:
 107 0024 00000000 		.word	PWM_Buzz_backup
 108 0028 83640040 		.word	1073767555
 109              		.cfi_endproc
 110              	.LFE1:
 111              		.size	PWM_Buzz_RestoreConfig, .-PWM_Buzz_RestoreConfig
 112              		.section	.text.PWM_Buzz_Sleep,"ax",%progbits
 113              		.align	2
 114              		.global	PWM_Buzz_Sleep
ARM GAS  C:\Users\KJA\AppData\Local\Temp\ccJdGUfb.s 			page 5


 115              		.thumb
 116              		.thumb_func
 117              		.type	PWM_Buzz_Sleep, %function
 118              	PWM_Buzz_Sleep:
 119              	.LFB2:
 115:Generated_Source\PSoC5/PWM_Buzz_PM.c **** 
 116:Generated_Source\PSoC5/PWM_Buzz_PM.c **** 
 117:Generated_Source\PSoC5/PWM_Buzz_PM.c **** /*******************************************************************************
 118:Generated_Source\PSoC5/PWM_Buzz_PM.c **** * Function Name: PWM_Buzz_Sleep
 119:Generated_Source\PSoC5/PWM_Buzz_PM.c **** ********************************************************************************
 120:Generated_Source\PSoC5/PWM_Buzz_PM.c **** *
 121:Generated_Source\PSoC5/PWM_Buzz_PM.c **** * Summary:
 122:Generated_Source\PSoC5/PWM_Buzz_PM.c **** *  Disables block's operation and saves the user configuration. Should be called
 123:Generated_Source\PSoC5/PWM_Buzz_PM.c **** *  just prior to entering sleep.
 124:Generated_Source\PSoC5/PWM_Buzz_PM.c **** *
 125:Generated_Source\PSoC5/PWM_Buzz_PM.c **** * Parameters:
 126:Generated_Source\PSoC5/PWM_Buzz_PM.c **** *  None
 127:Generated_Source\PSoC5/PWM_Buzz_PM.c **** *
 128:Generated_Source\PSoC5/PWM_Buzz_PM.c **** * Return:
 129:Generated_Source\PSoC5/PWM_Buzz_PM.c **** *  None
 130:Generated_Source\PSoC5/PWM_Buzz_PM.c **** *
 131:Generated_Source\PSoC5/PWM_Buzz_PM.c **** * Global variables:
 132:Generated_Source\PSoC5/PWM_Buzz_PM.c **** *  PWM_Buzz_backup.PWMEnableState:  Is modified depending on the enable
 133:Generated_Source\PSoC5/PWM_Buzz_PM.c **** *  state of the block before entering sleep mode.
 134:Generated_Source\PSoC5/PWM_Buzz_PM.c **** *
 135:Generated_Source\PSoC5/PWM_Buzz_PM.c **** *******************************************************************************/
 136:Generated_Source\PSoC5/PWM_Buzz_PM.c **** void PWM_Buzz_Sleep(void) 
 137:Generated_Source\PSoC5/PWM_Buzz_PM.c **** {
 120              		.loc 1 137 0
 121              		.cfi_startproc
 122              		@ args = 0, pretend = 0, frame = 0
 123              		@ frame_needed = 1, uses_anonymous_args = 0
 124 0000 80B5     		push	{r7, lr}
 125              		.cfi_def_cfa_offset 8
 126              		.cfi_offset 7, -8
 127              		.cfi_offset 14, -4
 128 0002 00AF     		add	r7, sp, #0
 129              		.cfi_def_cfa_register 7
 138:Generated_Source\PSoC5/PWM_Buzz_PM.c ****     #if(PWM_Buzz_UseControl)
 139:Generated_Source\PSoC5/PWM_Buzz_PM.c ****         if(PWM_Buzz_CTRL_ENABLE == (PWM_Buzz_CONTROL & PWM_Buzz_CTRL_ENABLE))
 140:Generated_Source\PSoC5/PWM_Buzz_PM.c ****         {
 141:Generated_Source\PSoC5/PWM_Buzz_PM.c ****             /*Component is enabled */
 142:Generated_Source\PSoC5/PWM_Buzz_PM.c ****             PWM_Buzz_backup.PWMEnableState = 1u;
 143:Generated_Source\PSoC5/PWM_Buzz_PM.c ****         }
 144:Generated_Source\PSoC5/PWM_Buzz_PM.c ****         else
 145:Generated_Source\PSoC5/PWM_Buzz_PM.c ****         {
 146:Generated_Source\PSoC5/PWM_Buzz_PM.c ****             /* Component is disabled */
 147:Generated_Source\PSoC5/PWM_Buzz_PM.c ****             PWM_Buzz_backup.PWMEnableState = 0u;
 148:Generated_Source\PSoC5/PWM_Buzz_PM.c ****         }
 149:Generated_Source\PSoC5/PWM_Buzz_PM.c ****     #endif /* (PWM_Buzz_UseControl) */
 150:Generated_Source\PSoC5/PWM_Buzz_PM.c **** 
 151:Generated_Source\PSoC5/PWM_Buzz_PM.c ****     /* Stop component */
 152:Generated_Source\PSoC5/PWM_Buzz_PM.c ****     PWM_Buzz_Stop();
 130              		.loc 1 152 0
 131 0004 FFF7FEFF 		bl	PWM_Buzz_Stop
 153:Generated_Source\PSoC5/PWM_Buzz_PM.c **** 
 154:Generated_Source\PSoC5/PWM_Buzz_PM.c ****     /* Save registers configuration */
ARM GAS  C:\Users\KJA\AppData\Local\Temp\ccJdGUfb.s 			page 6


 155:Generated_Source\PSoC5/PWM_Buzz_PM.c ****     PWM_Buzz_SaveConfig();
 132              		.loc 1 155 0
 133 0008 FFF7FEFF 		bl	PWM_Buzz_SaveConfig
 156:Generated_Source\PSoC5/PWM_Buzz_PM.c **** }
 134              		.loc 1 156 0
 135 000c 80BD     		pop	{r7, pc}
 136              		.cfi_endproc
 137              	.LFE2:
 138              		.size	PWM_Buzz_Sleep, .-PWM_Buzz_Sleep
 139 000e 00BF     		.section	.text.PWM_Buzz_Wakeup,"ax",%progbits
 140              		.align	2
 141              		.global	PWM_Buzz_Wakeup
 142              		.thumb
 143              		.thumb_func
 144              		.type	PWM_Buzz_Wakeup, %function
 145              	PWM_Buzz_Wakeup:
 146              	.LFB3:
 157:Generated_Source\PSoC5/PWM_Buzz_PM.c **** 
 158:Generated_Source\PSoC5/PWM_Buzz_PM.c **** 
 159:Generated_Source\PSoC5/PWM_Buzz_PM.c **** /*******************************************************************************
 160:Generated_Source\PSoC5/PWM_Buzz_PM.c **** * Function Name: PWM_Buzz_Wakeup
 161:Generated_Source\PSoC5/PWM_Buzz_PM.c **** ********************************************************************************
 162:Generated_Source\PSoC5/PWM_Buzz_PM.c **** *
 163:Generated_Source\PSoC5/PWM_Buzz_PM.c **** * Summary:
 164:Generated_Source\PSoC5/PWM_Buzz_PM.c **** *  Restores and enables the user configuration. Should be called just after
 165:Generated_Source\PSoC5/PWM_Buzz_PM.c **** *  awaking from sleep.
 166:Generated_Source\PSoC5/PWM_Buzz_PM.c **** *
 167:Generated_Source\PSoC5/PWM_Buzz_PM.c **** * Parameters:
 168:Generated_Source\PSoC5/PWM_Buzz_PM.c **** *  None
 169:Generated_Source\PSoC5/PWM_Buzz_PM.c **** *
 170:Generated_Source\PSoC5/PWM_Buzz_PM.c **** * Return:
 171:Generated_Source\PSoC5/PWM_Buzz_PM.c **** *  None
 172:Generated_Source\PSoC5/PWM_Buzz_PM.c **** *
 173:Generated_Source\PSoC5/PWM_Buzz_PM.c **** * Global variables:
 174:Generated_Source\PSoC5/PWM_Buzz_PM.c **** *  PWM_Buzz_backup.pwmEnable:  Is used to restore the enable state of
 175:Generated_Source\PSoC5/PWM_Buzz_PM.c **** *  block on wakeup from sleep mode.
 176:Generated_Source\PSoC5/PWM_Buzz_PM.c **** *
 177:Generated_Source\PSoC5/PWM_Buzz_PM.c **** *******************************************************************************/
 178:Generated_Source\PSoC5/PWM_Buzz_PM.c **** void PWM_Buzz_Wakeup(void) 
 179:Generated_Source\PSoC5/PWM_Buzz_PM.c **** {
 147              		.loc 1 179 0
 148              		.cfi_startproc
 149              		@ args = 0, pretend = 0, frame = 0
 150              		@ frame_needed = 1, uses_anonymous_args = 0
 151 0000 80B5     		push	{r7, lr}
 152              		.cfi_def_cfa_offset 8
 153              		.cfi_offset 7, -8
 154              		.cfi_offset 14, -4
 155 0002 00AF     		add	r7, sp, #0
 156              		.cfi_def_cfa_register 7
 180:Generated_Source\PSoC5/PWM_Buzz_PM.c ****      /* Restore registers values */
 181:Generated_Source\PSoC5/PWM_Buzz_PM.c ****     PWM_Buzz_RestoreConfig();
 157              		.loc 1 181 0
 158 0004 FFF7FEFF 		bl	PWM_Buzz_RestoreConfig
 182:Generated_Source\PSoC5/PWM_Buzz_PM.c **** 
 183:Generated_Source\PSoC5/PWM_Buzz_PM.c ****     if(PWM_Buzz_backup.PWMEnableState != 0u)
 159              		.loc 1 183 0
ARM GAS  C:\Users\KJA\AppData\Local\Temp\ccJdGUfb.s 			page 7


 160 0008 034B     		ldr	r3, .L10
 161 000a 1B78     		ldrb	r3, [r3]	@ zero_extendqisi2
 162 000c 002B     		cmp	r3, #0
 163 000e 01D0     		beq	.L8
 184:Generated_Source\PSoC5/PWM_Buzz_PM.c ****     {
 185:Generated_Source\PSoC5/PWM_Buzz_PM.c ****         /* Enable component's operation */
 186:Generated_Source\PSoC5/PWM_Buzz_PM.c ****         PWM_Buzz_Enable();
 164              		.loc 1 186 0
 165 0010 FFF7FEFF 		bl	PWM_Buzz_Enable
 166              	.L8:
 187:Generated_Source\PSoC5/PWM_Buzz_PM.c ****     } /* Do nothing if component's block was disabled before */
 188:Generated_Source\PSoC5/PWM_Buzz_PM.c **** 
 189:Generated_Source\PSoC5/PWM_Buzz_PM.c **** }
 167              		.loc 1 189 0
 168 0014 80BD     		pop	{r7, pc}
 169              	.L11:
 170 0016 00BF     		.align	2
 171              	.L10:
 172 0018 00000000 		.word	PWM_Buzz_backup
 173              		.cfi_endproc
 174              	.LFE3:
 175              		.size	PWM_Buzz_Wakeup, .-PWM_Buzz_Wakeup
 176              		.text
 177              	.Letext0:
 178              		.file 2 "Generated_Source\\PSoC5\\cytypes.h"
 179              		.file 3 "Generated_Source\\PSoC5\\PWM_Buzz.h"