ARM GAS  C:\Users\Shiguruy\AppData\Local\Temp\ccePG2uD.s 			page 1


   1              		.syntax unified
   2              		.cpu cortex-m3
   3              		.fpu softvfp
   4              		.eabi_attribute 20, 1
   5              		.eabi_attribute 21, 1
   6              		.eabi_attribute 23, 3
   7              		.eabi_attribute 24, 1
   8              		.eabi_attribute 25, 1
   9              		.eabi_attribute 26, 1
  10              		.eabi_attribute 30, 6
  11              		.eabi_attribute 34, 1
  12              		.eabi_attribute 18, 4
  13              		.thumb
  14              		.file	"PWM_Back_1.c"
  15              		.text
  16              	.Ltext0:
  17              		.cfi_sections	.debug_frame
  18              		.global	PWM_Back_1_initVar
  19              		.bss
  20              		.type	PWM_Back_1_initVar, %object
  21              		.size	PWM_Back_1_initVar, 1
  22              	PWM_Back_1_initVar:
  23 0000 00       		.space	1
  24              		.section	.text.PWM_Back_1_Start,"ax",%progbits
  25              		.align	2
  26              		.global	PWM_Back_1_Start
  27              		.thumb
  28              		.thumb_func
  29              		.type	PWM_Back_1_Start, %function
  30              	PWM_Back_1_Start:
  31              	.LFB0:
  32              		.file 1 ".\\Generated_Source\\PSoC5\\PWM_Back_1.c"
   1:.\Generated_Source\PSoC5/PWM_Back_1.c **** /*******************************************************************************
   2:.\Generated_Source\PSoC5/PWM_Back_1.c **** * File Name: PWM_Back_1.c
   3:.\Generated_Source\PSoC5/PWM_Back_1.c **** * Version 3.30
   4:.\Generated_Source\PSoC5/PWM_Back_1.c **** *
   5:.\Generated_Source\PSoC5/PWM_Back_1.c **** * Description:
   6:.\Generated_Source\PSoC5/PWM_Back_1.c **** *  The PWM User Module consist of an 8 or 16-bit counter with two 8 or 16-bit
   7:.\Generated_Source\PSoC5/PWM_Back_1.c **** *  comparitors. Each instance of this user module is capable of generating
   8:.\Generated_Source\PSoC5/PWM_Back_1.c **** *  two PWM outputs with the same period. The pulse width is selectable between
   9:.\Generated_Source\PSoC5/PWM_Back_1.c **** *  1 and 255/65535. The period is selectable between 2 and 255/65536 clocks.
  10:.\Generated_Source\PSoC5/PWM_Back_1.c **** *  The compare value output may be configured to be active when the present
  11:.\Generated_Source\PSoC5/PWM_Back_1.c **** *  counter is less than or less than/equal to the compare value.
  12:.\Generated_Source\PSoC5/PWM_Back_1.c **** *  A terminal count output is also provided. It generates a pulse one clock
  13:.\Generated_Source\PSoC5/PWM_Back_1.c **** *  width wide when the counter is equal to zero.
  14:.\Generated_Source\PSoC5/PWM_Back_1.c **** *
  15:.\Generated_Source\PSoC5/PWM_Back_1.c **** * Note:
  16:.\Generated_Source\PSoC5/PWM_Back_1.c **** *
  17:.\Generated_Source\PSoC5/PWM_Back_1.c **** *******************************************************************************
  18:.\Generated_Source\PSoC5/PWM_Back_1.c **** * Copyright 2008-2014, Cypress Semiconductor Corporation.  All rights reserved.
  19:.\Generated_Source\PSoC5/PWM_Back_1.c **** * You may use this file only in accordance with the license, terms, conditions,
  20:.\Generated_Source\PSoC5/PWM_Back_1.c **** * disclaimers, and limitations in the end user license agreement accompanying
  21:.\Generated_Source\PSoC5/PWM_Back_1.c **** * the software package with which this file was provided.
  22:.\Generated_Source\PSoC5/PWM_Back_1.c **** ********************************************************************************/
  23:.\Generated_Source\PSoC5/PWM_Back_1.c **** 
  24:.\Generated_Source\PSoC5/PWM_Back_1.c **** #include "PWM_Back_1.h"
  25:.\Generated_Source\PSoC5/PWM_Back_1.c **** 
ARM GAS  C:\Users\Shiguruy\AppData\Local\Temp\ccePG2uD.s 			page 2


  26:.\Generated_Source\PSoC5/PWM_Back_1.c **** /* Error message for removed <resource> through optimization */
  27:.\Generated_Source\PSoC5/PWM_Back_1.c **** #ifdef PWM_Back_1_PWMUDB_genblk1_ctrlreg__REMOVED
  28:.\Generated_Source\PSoC5/PWM_Back_1.c ****     #error PWM_v3_30 detected with a constant 0 for the enable or \
  29:.\Generated_Source\PSoC5/PWM_Back_1.c ****          constant 1 for reset. This will prevent the component from operating.
  30:.\Generated_Source\PSoC5/PWM_Back_1.c **** #endif /* PWM_Back_1_PWMUDB_genblk1_ctrlreg__REMOVED */
  31:.\Generated_Source\PSoC5/PWM_Back_1.c **** 
  32:.\Generated_Source\PSoC5/PWM_Back_1.c **** uint8 PWM_Back_1_initVar = 0u;
  33:.\Generated_Source\PSoC5/PWM_Back_1.c **** 
  34:.\Generated_Source\PSoC5/PWM_Back_1.c **** 
  35:.\Generated_Source\PSoC5/PWM_Back_1.c **** /*******************************************************************************
  36:.\Generated_Source\PSoC5/PWM_Back_1.c **** * Function Name: PWM_Back_1_Start
  37:.\Generated_Source\PSoC5/PWM_Back_1.c **** ********************************************************************************
  38:.\Generated_Source\PSoC5/PWM_Back_1.c **** *
  39:.\Generated_Source\PSoC5/PWM_Back_1.c **** * Summary:
  40:.\Generated_Source\PSoC5/PWM_Back_1.c **** *  The start function initializes the pwm with the default values, the
  41:.\Generated_Source\PSoC5/PWM_Back_1.c **** *  enables the counter to begin counting.  It does not enable interrupts,
  42:.\Generated_Source\PSoC5/PWM_Back_1.c **** *  the EnableInt command should be called if interrupt generation is required.
  43:.\Generated_Source\PSoC5/PWM_Back_1.c **** *
  44:.\Generated_Source\PSoC5/PWM_Back_1.c **** * Parameters:
  45:.\Generated_Source\PSoC5/PWM_Back_1.c **** *  None
  46:.\Generated_Source\PSoC5/PWM_Back_1.c **** *
  47:.\Generated_Source\PSoC5/PWM_Back_1.c **** * Return:
  48:.\Generated_Source\PSoC5/PWM_Back_1.c **** *  None
  49:.\Generated_Source\PSoC5/PWM_Back_1.c **** *
  50:.\Generated_Source\PSoC5/PWM_Back_1.c **** * Global variables:
  51:.\Generated_Source\PSoC5/PWM_Back_1.c **** *  PWM_Back_1_initVar: Is modified when this function is called for the
  52:.\Generated_Source\PSoC5/PWM_Back_1.c **** *   first time. Is used to ensure that initialization happens only once.
  53:.\Generated_Source\PSoC5/PWM_Back_1.c **** *
  54:.\Generated_Source\PSoC5/PWM_Back_1.c **** *******************************************************************************/
  55:.\Generated_Source\PSoC5/PWM_Back_1.c **** void PWM_Back_1_Start(void) 
  56:.\Generated_Source\PSoC5/PWM_Back_1.c **** {
  33              		.loc 1 56 0
  34              		.cfi_startproc
  35              		@ args = 0, pretend = 0, frame = 0
  36              		@ frame_needed = 1, uses_anonymous_args = 0
  37 0000 80B5     		push	{r7, lr}
  38              		.cfi_def_cfa_offset 8
  39              		.cfi_offset 7, -8
  40              		.cfi_offset 14, -4
  41 0002 00AF     		add	r7, sp, #0
  42              		.cfi_def_cfa_register 7
  57:.\Generated_Source\PSoC5/PWM_Back_1.c ****     /* If not Initialized then initialize all required hardware and software */
  58:.\Generated_Source\PSoC5/PWM_Back_1.c ****     if(PWM_Back_1_initVar == 0u)
  43              		.loc 1 58 0
  44 0004 054B     		ldr	r3, .L3
  45 0006 1B78     		ldrb	r3, [r3]	@ zero_extendqisi2
  46 0008 002B     		cmp	r3, #0
  47 000a 04D1     		bne	.L2
  59:.\Generated_Source\PSoC5/PWM_Back_1.c ****     {
  60:.\Generated_Source\PSoC5/PWM_Back_1.c ****         PWM_Back_1_Init();
  48              		.loc 1 60 0
  49 000c FFF7FEFF 		bl	PWM_Back_1_Init
  61:.\Generated_Source\PSoC5/PWM_Back_1.c ****         PWM_Back_1_initVar = 1u;
  50              		.loc 1 61 0
  51 0010 024B     		ldr	r3, .L3
  52 0012 0122     		movs	r2, #1
  53 0014 1A70     		strb	r2, [r3]
ARM GAS  C:\Users\Shiguruy\AppData\Local\Temp\ccePG2uD.s 			page 3


  54              	.L2:
  62:.\Generated_Source\PSoC5/PWM_Back_1.c ****     }
  63:.\Generated_Source\PSoC5/PWM_Back_1.c ****     PWM_Back_1_Enable();
  55              		.loc 1 63 0
  56 0016 FFF7FEFF 		bl	PWM_Back_1_Enable
  64:.\Generated_Source\PSoC5/PWM_Back_1.c **** 
  65:.\Generated_Source\PSoC5/PWM_Back_1.c **** }
  57              		.loc 1 65 0
  58 001a 80BD     		pop	{r7, pc}
  59              	.L4:
  60              		.align	2
  61              	.L3:
  62 001c 00000000 		.word	PWM_Back_1_initVar
  63              		.cfi_endproc
  64              	.LFE0:
  65              		.size	PWM_Back_1_Start, .-PWM_Back_1_Start
  66              		.section	.text.PWM_Back_1_Init,"ax",%progbits
  67              		.align	2
  68              		.global	PWM_Back_1_Init
  69              		.thumb
  70              		.thumb_func
  71              		.type	PWM_Back_1_Init, %function
  72              	PWM_Back_1_Init:
  73              	.LFB1:
  66:.\Generated_Source\PSoC5/PWM_Back_1.c **** 
  67:.\Generated_Source\PSoC5/PWM_Back_1.c **** 
  68:.\Generated_Source\PSoC5/PWM_Back_1.c **** /*******************************************************************************
  69:.\Generated_Source\PSoC5/PWM_Back_1.c **** * Function Name: PWM_Back_1_Init
  70:.\Generated_Source\PSoC5/PWM_Back_1.c **** ********************************************************************************
  71:.\Generated_Source\PSoC5/PWM_Back_1.c **** *
  72:.\Generated_Source\PSoC5/PWM_Back_1.c **** * Summary:
  73:.\Generated_Source\PSoC5/PWM_Back_1.c **** *  Initialize component's parameters to the parameters set by user in the
  74:.\Generated_Source\PSoC5/PWM_Back_1.c **** *  customizer of the component placed onto schematic. Usually called in
  75:.\Generated_Source\PSoC5/PWM_Back_1.c **** *  PWM_Back_1_Start().
  76:.\Generated_Source\PSoC5/PWM_Back_1.c **** *
  77:.\Generated_Source\PSoC5/PWM_Back_1.c **** * Parameters:
  78:.\Generated_Source\PSoC5/PWM_Back_1.c **** *  None
  79:.\Generated_Source\PSoC5/PWM_Back_1.c **** *
  80:.\Generated_Source\PSoC5/PWM_Back_1.c **** * Return:
  81:.\Generated_Source\PSoC5/PWM_Back_1.c **** *  None
  82:.\Generated_Source\PSoC5/PWM_Back_1.c **** *
  83:.\Generated_Source\PSoC5/PWM_Back_1.c **** *******************************************************************************/
  84:.\Generated_Source\PSoC5/PWM_Back_1.c **** void PWM_Back_1_Init(void) 
  85:.\Generated_Source\PSoC5/PWM_Back_1.c **** {
  74              		.loc 1 85 0
  75              		.cfi_startproc
  76              		@ args = 0, pretend = 0, frame = 8
  77              		@ frame_needed = 1, uses_anonymous_args = 0
  78 0000 80B5     		push	{r7, lr}
  79              		.cfi_def_cfa_offset 8
  80              		.cfi_offset 7, -8
  81              		.cfi_offset 14, -4
  82 0002 82B0     		sub	sp, sp, #8
  83              		.cfi_def_cfa_offset 16
  84 0004 00AF     		add	r7, sp, #0
  85              		.cfi_def_cfa_register 7
  86:.\Generated_Source\PSoC5/PWM_Back_1.c ****     #if (PWM_Back_1_UsingFixedFunction || PWM_Back_1_UseControl)
ARM GAS  C:\Users\Shiguruy\AppData\Local\Temp\ccePG2uD.s 			page 4


  87:.\Generated_Source\PSoC5/PWM_Back_1.c ****         uint8 ctrl;
  88:.\Generated_Source\PSoC5/PWM_Back_1.c ****     #endif /* (PWM_Back_1_UsingFixedFunction || PWM_Back_1_UseControl) */
  89:.\Generated_Source\PSoC5/PWM_Back_1.c **** 
  90:.\Generated_Source\PSoC5/PWM_Back_1.c ****     #if(!PWM_Back_1_UsingFixedFunction)
  91:.\Generated_Source\PSoC5/PWM_Back_1.c ****         #if(PWM_Back_1_UseStatus)
  92:.\Generated_Source\PSoC5/PWM_Back_1.c ****             /* Interrupt State Backup for Critical Region*/
  93:.\Generated_Source\PSoC5/PWM_Back_1.c ****             uint8 PWM_Back_1_interruptState;
  94:.\Generated_Source\PSoC5/PWM_Back_1.c ****         #endif /* (PWM_Back_1_UseStatus) */
  95:.\Generated_Source\PSoC5/PWM_Back_1.c ****     #endif /* (!PWM_Back_1_UsingFixedFunction) */
  96:.\Generated_Source\PSoC5/PWM_Back_1.c **** 
  97:.\Generated_Source\PSoC5/PWM_Back_1.c ****     #if (PWM_Back_1_UsingFixedFunction)
  98:.\Generated_Source\PSoC5/PWM_Back_1.c ****         /* You are allowed to write the compare value (FF only) */
  99:.\Generated_Source\PSoC5/PWM_Back_1.c ****         PWM_Back_1_CONTROL |= PWM_Back_1_CFG0_MODE;
 100:.\Generated_Source\PSoC5/PWM_Back_1.c ****         #if (PWM_Back_1_DeadBand2_4)
 101:.\Generated_Source\PSoC5/PWM_Back_1.c ****             PWM_Back_1_CONTROL |= PWM_Back_1_CFG0_DB;
 102:.\Generated_Source\PSoC5/PWM_Back_1.c ****         #endif /* (PWM_Back_1_DeadBand2_4) */
 103:.\Generated_Source\PSoC5/PWM_Back_1.c **** 
 104:.\Generated_Source\PSoC5/PWM_Back_1.c ****         ctrl = PWM_Back_1_CONTROL3 & ((uint8 )(~PWM_Back_1_CTRL_CMPMODE1_MASK));
 105:.\Generated_Source\PSoC5/PWM_Back_1.c ****         PWM_Back_1_CONTROL3 = ctrl | PWM_Back_1_DEFAULT_COMPARE1_MODE;
 106:.\Generated_Source\PSoC5/PWM_Back_1.c **** 
 107:.\Generated_Source\PSoC5/PWM_Back_1.c ****          /* Clear and Set SYNCTC and SYNCCMP bits of RT1 register */
 108:.\Generated_Source\PSoC5/PWM_Back_1.c ****         PWM_Back_1_RT1 &= ((uint8)(~PWM_Back_1_RT1_MASK));
 109:.\Generated_Source\PSoC5/PWM_Back_1.c ****         PWM_Back_1_RT1 |= PWM_Back_1_SYNC;
 110:.\Generated_Source\PSoC5/PWM_Back_1.c **** 
 111:.\Generated_Source\PSoC5/PWM_Back_1.c ****         /*Enable DSI Sync all all inputs of the PWM*/
 112:.\Generated_Source\PSoC5/PWM_Back_1.c ****         PWM_Back_1_RT1 &= ((uint8)(~PWM_Back_1_SYNCDSI_MASK));
 113:.\Generated_Source\PSoC5/PWM_Back_1.c ****         PWM_Back_1_RT1 |= PWM_Back_1_SYNCDSI_EN;
 114:.\Generated_Source\PSoC5/PWM_Back_1.c **** 
 115:.\Generated_Source\PSoC5/PWM_Back_1.c ****     #elif (PWM_Back_1_UseControl)
 116:.\Generated_Source\PSoC5/PWM_Back_1.c ****         /* Set the default compare mode defined in the parameter */
 117:.\Generated_Source\PSoC5/PWM_Back_1.c ****         ctrl = PWM_Back_1_CONTROL & ((uint8)(~PWM_Back_1_CTRL_CMPMODE2_MASK)) &
  86              		.loc 1 117 0
  87 0006 1A4B     		ldr	r3, .L6
  88 0008 1B78     		ldrb	r3, [r3]
  89 000a DBB2     		uxtb	r3, r3
  90 000c 23F03F03 		bic	r3, r3, #63
  91 0010 FB71     		strb	r3, [r7, #7]
 118:.\Generated_Source\PSoC5/PWM_Back_1.c ****                 ((uint8)(~PWM_Back_1_CTRL_CMPMODE1_MASK));
 119:.\Generated_Source\PSoC5/PWM_Back_1.c ****         PWM_Back_1_CONTROL = ctrl | PWM_Back_1_DEFAULT_COMPARE2_MODE |
  92              		.loc 1 119 0
  93 0012 174A     		ldr	r2, .L6
  94 0014 FB79     		ldrb	r3, [r7, #7]
  95 0016 43F00903 		orr	r3, r3, #9
  96 001a DBB2     		uxtb	r3, r3
  97 001c 1370     		strb	r3, [r2]
 120:.\Generated_Source\PSoC5/PWM_Back_1.c ****                                    PWM_Back_1_DEFAULT_COMPARE1_MODE;
 121:.\Generated_Source\PSoC5/PWM_Back_1.c ****     #endif /* (PWM_Back_1_UsingFixedFunction) */
 122:.\Generated_Source\PSoC5/PWM_Back_1.c **** 
 123:.\Generated_Source\PSoC5/PWM_Back_1.c ****     #if (!PWM_Back_1_UsingFixedFunction)
 124:.\Generated_Source\PSoC5/PWM_Back_1.c ****         #if (PWM_Back_1_Resolution == 8)
 125:.\Generated_Source\PSoC5/PWM_Back_1.c ****             /* Set FIFO 0 to 1 byte register for period*/
 126:.\Generated_Source\PSoC5/PWM_Back_1.c ****             PWM_Back_1_AUX_CONTROLDP0 |= (PWM_Back_1_AUX_CTRL_FIFO0_CLR);
  98              		.loc 1 126 0
  99 001e 154A     		ldr	r2, .L6+4
 100 0020 144B     		ldr	r3, .L6+4
 101 0022 1B78     		ldrb	r3, [r3]
 102 0024 DBB2     		uxtb	r3, r3
ARM GAS  C:\Users\Shiguruy\AppData\Local\Temp\ccePG2uD.s 			page 5


 103 0026 43F00103 		orr	r3, r3, #1
 104 002a DBB2     		uxtb	r3, r3
 105 002c 1370     		strb	r3, [r2]
 127:.\Generated_Source\PSoC5/PWM_Back_1.c ****         #else /* (PWM_Back_1_Resolution == 16)*/
 128:.\Generated_Source\PSoC5/PWM_Back_1.c ****             /* Set FIFO 0 to 1 byte register for period */
 129:.\Generated_Source\PSoC5/PWM_Back_1.c ****             PWM_Back_1_AUX_CONTROLDP0 |= (PWM_Back_1_AUX_CTRL_FIFO0_CLR);
 130:.\Generated_Source\PSoC5/PWM_Back_1.c ****             PWM_Back_1_AUX_CONTROLDP1 |= (PWM_Back_1_AUX_CTRL_FIFO0_CLR);
 131:.\Generated_Source\PSoC5/PWM_Back_1.c ****         #endif /* (PWM_Back_1_Resolution == 8) */
 132:.\Generated_Source\PSoC5/PWM_Back_1.c **** 
 133:.\Generated_Source\PSoC5/PWM_Back_1.c ****         PWM_Back_1_WriteCounter(PWM_Back_1_INIT_PERIOD_VALUE);
 106              		.loc 1 133 0
 107 002e FF20     		movs	r0, #255
 108 0030 FFF7FEFF 		bl	PWM_Back_1_WriteCounter
 134:.\Generated_Source\PSoC5/PWM_Back_1.c ****     #endif /* (!PWM_Back_1_UsingFixedFunction) */
 135:.\Generated_Source\PSoC5/PWM_Back_1.c **** 
 136:.\Generated_Source\PSoC5/PWM_Back_1.c ****     PWM_Back_1_WritePeriod(PWM_Back_1_INIT_PERIOD_VALUE);
 109              		.loc 1 136 0
 110 0034 FF20     		movs	r0, #255
 111 0036 FFF7FEFF 		bl	PWM_Back_1_WritePeriod
 137:.\Generated_Source\PSoC5/PWM_Back_1.c **** 
 138:.\Generated_Source\PSoC5/PWM_Back_1.c ****         #if (PWM_Back_1_UseOneCompareMode)
 139:.\Generated_Source\PSoC5/PWM_Back_1.c ****             PWM_Back_1_WriteCompare(PWM_Back_1_INIT_COMPARE_VALUE1);
 112              		.loc 1 139 0
 113 003a 6920     		movs	r0, #105
 114 003c FFF7FEFF 		bl	PWM_Back_1_WriteCompare
 140:.\Generated_Source\PSoC5/PWM_Back_1.c ****         #else
 141:.\Generated_Source\PSoC5/PWM_Back_1.c ****             PWM_Back_1_WriteCompare1(PWM_Back_1_INIT_COMPARE_VALUE1);
 142:.\Generated_Source\PSoC5/PWM_Back_1.c ****             PWM_Back_1_WriteCompare2(PWM_Back_1_INIT_COMPARE_VALUE2);
 143:.\Generated_Source\PSoC5/PWM_Back_1.c ****         #endif /* (PWM_Back_1_UseOneCompareMode) */
 144:.\Generated_Source\PSoC5/PWM_Back_1.c **** 
 145:.\Generated_Source\PSoC5/PWM_Back_1.c ****         #if (PWM_Back_1_KillModeMinTime)
 146:.\Generated_Source\PSoC5/PWM_Back_1.c ****             PWM_Back_1_WriteKillTime(PWM_Back_1_MinimumKillTime);
 147:.\Generated_Source\PSoC5/PWM_Back_1.c ****         #endif /* (PWM_Back_1_KillModeMinTime) */
 148:.\Generated_Source\PSoC5/PWM_Back_1.c **** 
 149:.\Generated_Source\PSoC5/PWM_Back_1.c ****         #if (PWM_Back_1_DeadBandUsed)
 150:.\Generated_Source\PSoC5/PWM_Back_1.c ****             PWM_Back_1_WriteDeadTime(PWM_Back_1_INIT_DEAD_TIME);
 151:.\Generated_Source\PSoC5/PWM_Back_1.c ****         #endif /* (PWM_Back_1_DeadBandUsed) */
 152:.\Generated_Source\PSoC5/PWM_Back_1.c **** 
 153:.\Generated_Source\PSoC5/PWM_Back_1.c ****     #if (PWM_Back_1_UseStatus || PWM_Back_1_UsingFixedFunction)
 154:.\Generated_Source\PSoC5/PWM_Back_1.c ****         PWM_Back_1_SetInterruptMode(PWM_Back_1_INIT_INTERRUPTS_MODE);
 115              		.loc 1 154 0
 116 0040 0020     		movs	r0, #0
 117 0042 FFF7FEFF 		bl	PWM_Back_1_SetInterruptMode
 155:.\Generated_Source\PSoC5/PWM_Back_1.c ****     #endif /* (PWM_Back_1_UseStatus || PWM_Back_1_UsingFixedFunction) */
 156:.\Generated_Source\PSoC5/PWM_Back_1.c **** 
 157:.\Generated_Source\PSoC5/PWM_Back_1.c ****     #if (PWM_Back_1_UsingFixedFunction)
 158:.\Generated_Source\PSoC5/PWM_Back_1.c ****         /* Globally Enable the Fixed Function Block chosen */
 159:.\Generated_Source\PSoC5/PWM_Back_1.c ****         PWM_Back_1_GLOBAL_ENABLE |= PWM_Back_1_BLOCK_EN_MASK;
 160:.\Generated_Source\PSoC5/PWM_Back_1.c ****         /* Set the Interrupt source to come from the status register */
 161:.\Generated_Source\PSoC5/PWM_Back_1.c ****         PWM_Back_1_CONTROL2 |= PWM_Back_1_CTRL2_IRQ_SEL;
 162:.\Generated_Source\PSoC5/PWM_Back_1.c ****     #else
 163:.\Generated_Source\PSoC5/PWM_Back_1.c ****         #if(PWM_Back_1_UseStatus)
 164:.\Generated_Source\PSoC5/PWM_Back_1.c **** 
 165:.\Generated_Source\PSoC5/PWM_Back_1.c ****             /* CyEnterCriticalRegion and CyExitCriticalRegion are used to mark following region cri
 166:.\Generated_Source\PSoC5/PWM_Back_1.c ****             /* Enter Critical Region*/
 167:.\Generated_Source\PSoC5/PWM_Back_1.c ****             PWM_Back_1_interruptState = CyEnterCriticalSection();
 118              		.loc 1 167 0
ARM GAS  C:\Users\Shiguruy\AppData\Local\Temp\ccePG2uD.s 			page 6


 119 0046 FFF7FEFF 		bl	CyEnterCriticalSection
 120 004a 0346     		mov	r3, r0
 121 004c BB71     		strb	r3, [r7, #6]
 168:.\Generated_Source\PSoC5/PWM_Back_1.c ****             /* Use the interrupt output of the status register for IRQ output */
 169:.\Generated_Source\PSoC5/PWM_Back_1.c ****             PWM_Back_1_STATUS_AUX_CTRL |= PWM_Back_1_STATUS_ACTL_INT_EN_MASK;
 122              		.loc 1 169 0
 123 004e 094A     		ldr	r2, .L6+4
 124 0050 084B     		ldr	r3, .L6+4
 125 0052 1B78     		ldrb	r3, [r3]
 126 0054 DBB2     		uxtb	r3, r3
 127 0056 43F01003 		orr	r3, r3, #16
 128 005a DBB2     		uxtb	r3, r3
 129 005c 1370     		strb	r3, [r2]
 170:.\Generated_Source\PSoC5/PWM_Back_1.c **** 
 171:.\Generated_Source\PSoC5/PWM_Back_1.c ****              /* Exit Critical Region*/
 172:.\Generated_Source\PSoC5/PWM_Back_1.c ****             CyExitCriticalSection(PWM_Back_1_interruptState);
 130              		.loc 1 172 0
 131 005e BB79     		ldrb	r3, [r7, #6]	@ zero_extendqisi2
 132 0060 1846     		mov	r0, r3
 133 0062 FFF7FEFF 		bl	CyExitCriticalSection
 173:.\Generated_Source\PSoC5/PWM_Back_1.c **** 
 174:.\Generated_Source\PSoC5/PWM_Back_1.c ****             /* Clear the FIFO to enable the PWM_Back_1_STATUS_FIFOFULL
 175:.\Generated_Source\PSoC5/PWM_Back_1.c ****                    bit to be set on FIFO full. */
 176:.\Generated_Source\PSoC5/PWM_Back_1.c ****             PWM_Back_1_ClearFIFO();
 134              		.loc 1 176 0
 135 0066 FFF7FEFF 		bl	PWM_Back_1_ClearFIFO
 177:.\Generated_Source\PSoC5/PWM_Back_1.c ****         #endif /* (PWM_Back_1_UseStatus) */
 178:.\Generated_Source\PSoC5/PWM_Back_1.c ****     #endif /* (PWM_Back_1_UsingFixedFunction) */
 179:.\Generated_Source\PSoC5/PWM_Back_1.c **** }
 136              		.loc 1 179 0
 137 006a 0837     		adds	r7, r7, #8
 138              		.cfi_def_cfa_offset 8
 139 006c BD46     		mov	sp, r7
 140              		.cfi_def_cfa_register 13
 141              		@ sp needed
 142 006e 80BD     		pop	{r7, pc}
 143              	.L7:
 144              		.align	2
 145              	.L6:
 146 0070 74640040 		.word	1073767540
 147 0074 9B640040 		.word	1073767579
 148              		.cfi_endproc
 149              	.LFE1:
 150              		.size	PWM_Back_1_Init, .-PWM_Back_1_Init
 151              		.section	.text.PWM_Back_1_Enable,"ax",%progbits
 152              		.align	2
 153              		.global	PWM_Back_1_Enable
 154              		.thumb
 155              		.thumb_func
 156              		.type	PWM_Back_1_Enable, %function
 157              	PWM_Back_1_Enable:
 158              	.LFB2:
 180:.\Generated_Source\PSoC5/PWM_Back_1.c **** 
 181:.\Generated_Source\PSoC5/PWM_Back_1.c **** 
 182:.\Generated_Source\PSoC5/PWM_Back_1.c **** /*******************************************************************************
 183:.\Generated_Source\PSoC5/PWM_Back_1.c **** * Function Name: PWM_Back_1_Enable
 184:.\Generated_Source\PSoC5/PWM_Back_1.c **** ********************************************************************************
ARM GAS  C:\Users\Shiguruy\AppData\Local\Temp\ccePG2uD.s 			page 7


 185:.\Generated_Source\PSoC5/PWM_Back_1.c **** *
 186:.\Generated_Source\PSoC5/PWM_Back_1.c **** * Summary:
 187:.\Generated_Source\PSoC5/PWM_Back_1.c **** *  Enables the PWM block operation
 188:.\Generated_Source\PSoC5/PWM_Back_1.c **** *
 189:.\Generated_Source\PSoC5/PWM_Back_1.c **** * Parameters:
 190:.\Generated_Source\PSoC5/PWM_Back_1.c **** *  None
 191:.\Generated_Source\PSoC5/PWM_Back_1.c **** *
 192:.\Generated_Source\PSoC5/PWM_Back_1.c **** * Return:
 193:.\Generated_Source\PSoC5/PWM_Back_1.c **** *  None
 194:.\Generated_Source\PSoC5/PWM_Back_1.c **** *
 195:.\Generated_Source\PSoC5/PWM_Back_1.c **** * Side Effects:
 196:.\Generated_Source\PSoC5/PWM_Back_1.c **** *  This works only if software enable mode is chosen
 197:.\Generated_Source\PSoC5/PWM_Back_1.c **** *
 198:.\Generated_Source\PSoC5/PWM_Back_1.c **** *******************************************************************************/
 199:.\Generated_Source\PSoC5/PWM_Back_1.c **** void PWM_Back_1_Enable(void) 
 200:.\Generated_Source\PSoC5/PWM_Back_1.c **** {
 159              		.loc 1 200 0
 160              		.cfi_startproc
 161              		@ args = 0, pretend = 0, frame = 0
 162              		@ frame_needed = 1, uses_anonymous_args = 0
 163              		@ link register save eliminated.
 164 0000 80B4     		push	{r7}
 165              		.cfi_def_cfa_offset 4
 166              		.cfi_offset 7, -4
 167 0002 00AF     		add	r7, sp, #0
 168              		.cfi_def_cfa_register 7
 201:.\Generated_Source\PSoC5/PWM_Back_1.c ****     /* Globally Enable the Fixed Function Block chosen */
 202:.\Generated_Source\PSoC5/PWM_Back_1.c ****     #if (PWM_Back_1_UsingFixedFunction)
 203:.\Generated_Source\PSoC5/PWM_Back_1.c ****         PWM_Back_1_GLOBAL_ENABLE |= PWM_Back_1_BLOCK_EN_MASK;
 204:.\Generated_Source\PSoC5/PWM_Back_1.c ****         PWM_Back_1_GLOBAL_STBY_ENABLE |= PWM_Back_1_BLOCK_STBY_EN_MASK;
 205:.\Generated_Source\PSoC5/PWM_Back_1.c ****     #endif /* (PWM_Back_1_UsingFixedFunction) */
 206:.\Generated_Source\PSoC5/PWM_Back_1.c **** 
 207:.\Generated_Source\PSoC5/PWM_Back_1.c ****     /* Enable the PWM from the control register  */
 208:.\Generated_Source\PSoC5/PWM_Back_1.c ****     #if (PWM_Back_1_UseControl || PWM_Back_1_UsingFixedFunction)
 209:.\Generated_Source\PSoC5/PWM_Back_1.c ****         PWM_Back_1_CONTROL |= PWM_Back_1_CTRL_ENABLE;
 169              		.loc 1 209 0
 170 0004 054A     		ldr	r2, .L9
 171 0006 054B     		ldr	r3, .L9
 172 0008 1B78     		ldrb	r3, [r3]
 173 000a DBB2     		uxtb	r3, r3
 174 000c 63F07F03 		orn	r3, r3, #127
 175 0010 DBB2     		uxtb	r3, r3
 176 0012 1370     		strb	r3, [r2]
 210:.\Generated_Source\PSoC5/PWM_Back_1.c ****     #endif /* (PWM_Back_1_UseControl || PWM_Back_1_UsingFixedFunction) */
 211:.\Generated_Source\PSoC5/PWM_Back_1.c **** }
 177              		.loc 1 211 0
 178 0014 BD46     		mov	sp, r7
 179              		.cfi_def_cfa_register 13
 180              		@ sp needed
 181 0016 5DF8047B 		ldr	r7, [sp], #4
 182              		.cfi_restore 7
 183              		.cfi_def_cfa_offset 0
 184 001a 7047     		bx	lr
 185              	.L10:
 186              		.align	2
 187              	.L9:
 188 001c 74640040 		.word	1073767540
ARM GAS  C:\Users\Shiguruy\AppData\Local\Temp\ccePG2uD.s 			page 8


 189              		.cfi_endproc
 190              	.LFE2:
 191              		.size	PWM_Back_1_Enable, .-PWM_Back_1_Enable
 192              		.section	.text.PWM_Back_1_Stop,"ax",%progbits
 193              		.align	2
 194              		.global	PWM_Back_1_Stop
 195              		.thumb
 196              		.thumb_func
 197              		.type	PWM_Back_1_Stop, %function
 198              	PWM_Back_1_Stop:
 199              	.LFB3:
 212:.\Generated_Source\PSoC5/PWM_Back_1.c **** 
 213:.\Generated_Source\PSoC5/PWM_Back_1.c **** 
 214:.\Generated_Source\PSoC5/PWM_Back_1.c **** /*******************************************************************************
 215:.\Generated_Source\PSoC5/PWM_Back_1.c **** * Function Name: PWM_Back_1_Stop
 216:.\Generated_Source\PSoC5/PWM_Back_1.c **** ********************************************************************************
 217:.\Generated_Source\PSoC5/PWM_Back_1.c **** *
 218:.\Generated_Source\PSoC5/PWM_Back_1.c **** * Summary:
 219:.\Generated_Source\PSoC5/PWM_Back_1.c **** *  The stop function halts the PWM, but does not change any modes or disable
 220:.\Generated_Source\PSoC5/PWM_Back_1.c **** *  interrupts.
 221:.\Generated_Source\PSoC5/PWM_Back_1.c **** *
 222:.\Generated_Source\PSoC5/PWM_Back_1.c **** * Parameters:
 223:.\Generated_Source\PSoC5/PWM_Back_1.c **** *  None
 224:.\Generated_Source\PSoC5/PWM_Back_1.c **** *
 225:.\Generated_Source\PSoC5/PWM_Back_1.c **** * Return:
 226:.\Generated_Source\PSoC5/PWM_Back_1.c **** *  None
 227:.\Generated_Source\PSoC5/PWM_Back_1.c **** *
 228:.\Generated_Source\PSoC5/PWM_Back_1.c **** * Side Effects:
 229:.\Generated_Source\PSoC5/PWM_Back_1.c **** *  If the Enable mode is set to Hardware only then this function
 230:.\Generated_Source\PSoC5/PWM_Back_1.c **** *  has no effect on the operation of the PWM
 231:.\Generated_Source\PSoC5/PWM_Back_1.c **** *
 232:.\Generated_Source\PSoC5/PWM_Back_1.c **** *******************************************************************************/
 233:.\Generated_Source\PSoC5/PWM_Back_1.c **** void PWM_Back_1_Stop(void) 
 234:.\Generated_Source\PSoC5/PWM_Back_1.c **** {
 200              		.loc 1 234 0
 201              		.cfi_startproc
 202              		@ args = 0, pretend = 0, frame = 0
 203              		@ frame_needed = 1, uses_anonymous_args = 0
 204              		@ link register save eliminated.
 205 0000 80B4     		push	{r7}
 206              		.cfi_def_cfa_offset 4
 207              		.cfi_offset 7, -4
 208 0002 00AF     		add	r7, sp, #0
 209              		.cfi_def_cfa_register 7
 235:.\Generated_Source\PSoC5/PWM_Back_1.c ****     #if (PWM_Back_1_UseControl || PWM_Back_1_UsingFixedFunction)
 236:.\Generated_Source\PSoC5/PWM_Back_1.c ****         PWM_Back_1_CONTROL &= ((uint8)(~PWM_Back_1_CTRL_ENABLE));
 210              		.loc 1 236 0
 211 0004 054A     		ldr	r2, .L12
 212 0006 054B     		ldr	r3, .L12
 213 0008 1B78     		ldrb	r3, [r3]
 214 000a DBB2     		uxtb	r3, r3
 215 000c 03F07F03 		and	r3, r3, #127
 216 0010 DBB2     		uxtb	r3, r3
 217 0012 1370     		strb	r3, [r2]
 237:.\Generated_Source\PSoC5/PWM_Back_1.c ****     #endif /* (PWM_Back_1_UseControl || PWM_Back_1_UsingFixedFunction) */
 238:.\Generated_Source\PSoC5/PWM_Back_1.c **** 
 239:.\Generated_Source\PSoC5/PWM_Back_1.c ****     /* Globally disable the Fixed Function Block chosen */
ARM GAS  C:\Users\Shiguruy\AppData\Local\Temp\ccePG2uD.s 			page 9


 240:.\Generated_Source\PSoC5/PWM_Back_1.c ****     #if (PWM_Back_1_UsingFixedFunction)
 241:.\Generated_Source\PSoC5/PWM_Back_1.c ****         PWM_Back_1_GLOBAL_ENABLE &= ((uint8)(~PWM_Back_1_BLOCK_EN_MASK));
 242:.\Generated_Source\PSoC5/PWM_Back_1.c ****         PWM_Back_1_GLOBAL_STBY_ENABLE &= ((uint8)(~PWM_Back_1_BLOCK_STBY_EN_MASK));
 243:.\Generated_Source\PSoC5/PWM_Back_1.c ****     #endif /* (PWM_Back_1_UsingFixedFunction) */
 244:.\Generated_Source\PSoC5/PWM_Back_1.c **** }
 218              		.loc 1 244 0
 219 0014 BD46     		mov	sp, r7
 220              		.cfi_def_cfa_register 13
 221              		@ sp needed
 222 0016 5DF8047B 		ldr	r7, [sp], #4
 223              		.cfi_restore 7
 224              		.cfi_def_cfa_offset 0
 225 001a 7047     		bx	lr
 226              	.L13:
 227              		.align	2
 228              	.L12:
 229 001c 74640040 		.word	1073767540
 230              		.cfi_endproc
 231              	.LFE3:
 232              		.size	PWM_Back_1_Stop, .-PWM_Back_1_Stop
 233              		.section	.text.PWM_Back_1_WriteCounter,"ax",%progbits
 234              		.align	2
 235              		.global	PWM_Back_1_WriteCounter
 236              		.thumb
 237              		.thumb_func
 238              		.type	PWM_Back_1_WriteCounter, %function
 239              	PWM_Back_1_WriteCounter:
 240              	.LFB4:
 245:.\Generated_Source\PSoC5/PWM_Back_1.c **** 
 246:.\Generated_Source\PSoC5/PWM_Back_1.c **** #if (PWM_Back_1_UseOneCompareMode)
 247:.\Generated_Source\PSoC5/PWM_Back_1.c ****     #if (PWM_Back_1_CompareMode1SW)
 248:.\Generated_Source\PSoC5/PWM_Back_1.c **** 
 249:.\Generated_Source\PSoC5/PWM_Back_1.c **** 
 250:.\Generated_Source\PSoC5/PWM_Back_1.c ****         /*******************************************************************************
 251:.\Generated_Source\PSoC5/PWM_Back_1.c ****         * Function Name: PWM_Back_1_SetCompareMode
 252:.\Generated_Source\PSoC5/PWM_Back_1.c ****         ********************************************************************************
 253:.\Generated_Source\PSoC5/PWM_Back_1.c ****         *
 254:.\Generated_Source\PSoC5/PWM_Back_1.c ****         * Summary:
 255:.\Generated_Source\PSoC5/PWM_Back_1.c ****         *  This function writes the Compare Mode for the pwm output when in Dither mode,
 256:.\Generated_Source\PSoC5/PWM_Back_1.c ****         *  Center Align Mode or One Output Mode.
 257:.\Generated_Source\PSoC5/PWM_Back_1.c ****         *
 258:.\Generated_Source\PSoC5/PWM_Back_1.c ****         * Parameters:
 259:.\Generated_Source\PSoC5/PWM_Back_1.c ****         *  comparemode:  The new compare mode for the PWM output. Use the compare types
 260:.\Generated_Source\PSoC5/PWM_Back_1.c ****         *                defined in the H file as input arguments.
 261:.\Generated_Source\PSoC5/PWM_Back_1.c ****         *
 262:.\Generated_Source\PSoC5/PWM_Back_1.c ****         * Return:
 263:.\Generated_Source\PSoC5/PWM_Back_1.c ****         *  None
 264:.\Generated_Source\PSoC5/PWM_Back_1.c ****         *
 265:.\Generated_Source\PSoC5/PWM_Back_1.c ****         *******************************************************************************/
 266:.\Generated_Source\PSoC5/PWM_Back_1.c ****         void PWM_Back_1_SetCompareMode(uint8 comparemode) 
 267:.\Generated_Source\PSoC5/PWM_Back_1.c ****         {
 268:.\Generated_Source\PSoC5/PWM_Back_1.c ****             #if(PWM_Back_1_UsingFixedFunction)
 269:.\Generated_Source\PSoC5/PWM_Back_1.c **** 
 270:.\Generated_Source\PSoC5/PWM_Back_1.c ****                 #if(0 != PWM_Back_1_CTRL_CMPMODE1_SHIFT)
 271:.\Generated_Source\PSoC5/PWM_Back_1.c ****                     uint8 comparemodemasked = ((uint8)((uint8)comparemode << PWM_Back_1_CTRL_CMPMOD
 272:.\Generated_Source\PSoC5/PWM_Back_1.c ****                 #else
 273:.\Generated_Source\PSoC5/PWM_Back_1.c ****                     uint8 comparemodemasked = comparemode;
ARM GAS  C:\Users\Shiguruy\AppData\Local\Temp\ccePG2uD.s 			page 10


 274:.\Generated_Source\PSoC5/PWM_Back_1.c ****                 #endif /* (0 != PWM_Back_1_CTRL_CMPMODE1_SHIFT) */
 275:.\Generated_Source\PSoC5/PWM_Back_1.c **** 
 276:.\Generated_Source\PSoC5/PWM_Back_1.c ****                 PWM_Back_1_CONTROL3 &= ((uint8)(~PWM_Back_1_CTRL_CMPMODE1_MASK)); /*Clear Existing 
 277:.\Generated_Source\PSoC5/PWM_Back_1.c ****                 PWM_Back_1_CONTROL3 |= comparemodemasked;
 278:.\Generated_Source\PSoC5/PWM_Back_1.c **** 
 279:.\Generated_Source\PSoC5/PWM_Back_1.c ****             #elif (PWM_Back_1_UseControl)
 280:.\Generated_Source\PSoC5/PWM_Back_1.c **** 
 281:.\Generated_Source\PSoC5/PWM_Back_1.c ****                 #if(0 != PWM_Back_1_CTRL_CMPMODE1_SHIFT)
 282:.\Generated_Source\PSoC5/PWM_Back_1.c ****                     uint8 comparemode1masked = ((uint8)((uint8)comparemode << PWM_Back_1_CTRL_CMPMO
 283:.\Generated_Source\PSoC5/PWM_Back_1.c ****                                                 PWM_Back_1_CTRL_CMPMODE1_MASK;
 284:.\Generated_Source\PSoC5/PWM_Back_1.c ****                 #else
 285:.\Generated_Source\PSoC5/PWM_Back_1.c ****                     uint8 comparemode1masked = comparemode & PWM_Back_1_CTRL_CMPMODE1_MASK;
 286:.\Generated_Source\PSoC5/PWM_Back_1.c ****                 #endif /* (0 != PWM_Back_1_CTRL_CMPMODE1_SHIFT) */
 287:.\Generated_Source\PSoC5/PWM_Back_1.c **** 
 288:.\Generated_Source\PSoC5/PWM_Back_1.c ****                 #if(0 != PWM_Back_1_CTRL_CMPMODE2_SHIFT)
 289:.\Generated_Source\PSoC5/PWM_Back_1.c ****                     uint8 comparemode2masked = ((uint8)((uint8)comparemode << PWM_Back_1_CTRL_CMPMO
 290:.\Generated_Source\PSoC5/PWM_Back_1.c ****                                                PWM_Back_1_CTRL_CMPMODE2_MASK;
 291:.\Generated_Source\PSoC5/PWM_Back_1.c ****                 #else
 292:.\Generated_Source\PSoC5/PWM_Back_1.c ****                     uint8 comparemode2masked = comparemode & PWM_Back_1_CTRL_CMPMODE2_MASK;
 293:.\Generated_Source\PSoC5/PWM_Back_1.c ****                 #endif /* (0 != PWM_Back_1_CTRL_CMPMODE2_SHIFT) */
 294:.\Generated_Source\PSoC5/PWM_Back_1.c **** 
 295:.\Generated_Source\PSoC5/PWM_Back_1.c ****                 /*Clear existing mode */
 296:.\Generated_Source\PSoC5/PWM_Back_1.c ****                 PWM_Back_1_CONTROL &= ((uint8)(~(PWM_Back_1_CTRL_CMPMODE1_MASK |
 297:.\Generated_Source\PSoC5/PWM_Back_1.c ****                                             PWM_Back_1_CTRL_CMPMODE2_MASK)));
 298:.\Generated_Source\PSoC5/PWM_Back_1.c ****                 PWM_Back_1_CONTROL |= (comparemode1masked | comparemode2masked);
 299:.\Generated_Source\PSoC5/PWM_Back_1.c **** 
 300:.\Generated_Source\PSoC5/PWM_Back_1.c ****             #else
 301:.\Generated_Source\PSoC5/PWM_Back_1.c ****                 uint8 temp = comparemode;
 302:.\Generated_Source\PSoC5/PWM_Back_1.c ****             #endif /* (PWM_Back_1_UsingFixedFunction) */
 303:.\Generated_Source\PSoC5/PWM_Back_1.c ****         }
 304:.\Generated_Source\PSoC5/PWM_Back_1.c ****     #endif /* PWM_Back_1_CompareMode1SW */
 305:.\Generated_Source\PSoC5/PWM_Back_1.c **** 
 306:.\Generated_Source\PSoC5/PWM_Back_1.c **** #else /* UseOneCompareMode */
 307:.\Generated_Source\PSoC5/PWM_Back_1.c **** 
 308:.\Generated_Source\PSoC5/PWM_Back_1.c ****     #if (PWM_Back_1_CompareMode1SW)
 309:.\Generated_Source\PSoC5/PWM_Back_1.c **** 
 310:.\Generated_Source\PSoC5/PWM_Back_1.c **** 
 311:.\Generated_Source\PSoC5/PWM_Back_1.c ****         /*******************************************************************************
 312:.\Generated_Source\PSoC5/PWM_Back_1.c ****         * Function Name: PWM_Back_1_SetCompareMode1
 313:.\Generated_Source\PSoC5/PWM_Back_1.c ****         ********************************************************************************
 314:.\Generated_Source\PSoC5/PWM_Back_1.c ****         *
 315:.\Generated_Source\PSoC5/PWM_Back_1.c ****         * Summary:
 316:.\Generated_Source\PSoC5/PWM_Back_1.c ****         *  This function writes the Compare Mode for the pwm or pwm1 output
 317:.\Generated_Source\PSoC5/PWM_Back_1.c ****         *
 318:.\Generated_Source\PSoC5/PWM_Back_1.c ****         * Parameters:
 319:.\Generated_Source\PSoC5/PWM_Back_1.c ****         *  comparemode:  The new compare mode for the PWM output. Use the compare types
 320:.\Generated_Source\PSoC5/PWM_Back_1.c ****         *                defined in the H file as input arguments.
 321:.\Generated_Source\PSoC5/PWM_Back_1.c ****         *
 322:.\Generated_Source\PSoC5/PWM_Back_1.c ****         * Return:
 323:.\Generated_Source\PSoC5/PWM_Back_1.c ****         *  None
 324:.\Generated_Source\PSoC5/PWM_Back_1.c ****         *
 325:.\Generated_Source\PSoC5/PWM_Back_1.c ****         *******************************************************************************/
 326:.\Generated_Source\PSoC5/PWM_Back_1.c ****         void PWM_Back_1_SetCompareMode1(uint8 comparemode) 
 327:.\Generated_Source\PSoC5/PWM_Back_1.c ****         {
 328:.\Generated_Source\PSoC5/PWM_Back_1.c ****             #if(0 != PWM_Back_1_CTRL_CMPMODE1_SHIFT)
 329:.\Generated_Source\PSoC5/PWM_Back_1.c ****                 uint8 comparemodemasked = ((uint8)((uint8)comparemode << PWM_Back_1_CTRL_CMPMODE1_S
 330:.\Generated_Source\PSoC5/PWM_Back_1.c ****                                            PWM_Back_1_CTRL_CMPMODE1_MASK;
ARM GAS  C:\Users\Shiguruy\AppData\Local\Temp\ccePG2uD.s 			page 11


 331:.\Generated_Source\PSoC5/PWM_Back_1.c ****             #else
 332:.\Generated_Source\PSoC5/PWM_Back_1.c ****                 uint8 comparemodemasked = comparemode & PWM_Back_1_CTRL_CMPMODE1_MASK;
 333:.\Generated_Source\PSoC5/PWM_Back_1.c ****             #endif /* (0 != PWM_Back_1_CTRL_CMPMODE1_SHIFT) */
 334:.\Generated_Source\PSoC5/PWM_Back_1.c **** 
 335:.\Generated_Source\PSoC5/PWM_Back_1.c ****             #if (PWM_Back_1_UseControl)
 336:.\Generated_Source\PSoC5/PWM_Back_1.c ****                 PWM_Back_1_CONTROL &= ((uint8)(~PWM_Back_1_CTRL_CMPMODE1_MASK)); /*Clear existing m
 337:.\Generated_Source\PSoC5/PWM_Back_1.c ****                 PWM_Back_1_CONTROL |= comparemodemasked;
 338:.\Generated_Source\PSoC5/PWM_Back_1.c ****             #endif /* (PWM_Back_1_UseControl) */
 339:.\Generated_Source\PSoC5/PWM_Back_1.c ****         }
 340:.\Generated_Source\PSoC5/PWM_Back_1.c ****     #endif /* PWM_Back_1_CompareMode1SW */
 341:.\Generated_Source\PSoC5/PWM_Back_1.c **** 
 342:.\Generated_Source\PSoC5/PWM_Back_1.c **** #if (PWM_Back_1_CompareMode2SW)
 343:.\Generated_Source\PSoC5/PWM_Back_1.c **** 
 344:.\Generated_Source\PSoC5/PWM_Back_1.c **** 
 345:.\Generated_Source\PSoC5/PWM_Back_1.c ****     /*******************************************************************************
 346:.\Generated_Source\PSoC5/PWM_Back_1.c ****     * Function Name: PWM_Back_1_SetCompareMode2
 347:.\Generated_Source\PSoC5/PWM_Back_1.c ****     ********************************************************************************
 348:.\Generated_Source\PSoC5/PWM_Back_1.c ****     *
 349:.\Generated_Source\PSoC5/PWM_Back_1.c ****     * Summary:
 350:.\Generated_Source\PSoC5/PWM_Back_1.c ****     *  This function writes the Compare Mode for the pwm or pwm2 output
 351:.\Generated_Source\PSoC5/PWM_Back_1.c ****     *
 352:.\Generated_Source\PSoC5/PWM_Back_1.c ****     * Parameters:
 353:.\Generated_Source\PSoC5/PWM_Back_1.c ****     *  comparemode:  The new compare mode for the PWM output. Use the compare types
 354:.\Generated_Source\PSoC5/PWM_Back_1.c ****     *                defined in the H file as input arguments.
 355:.\Generated_Source\PSoC5/PWM_Back_1.c ****     *
 356:.\Generated_Source\PSoC5/PWM_Back_1.c ****     * Return:
 357:.\Generated_Source\PSoC5/PWM_Back_1.c ****     *  None
 358:.\Generated_Source\PSoC5/PWM_Back_1.c ****     *
 359:.\Generated_Source\PSoC5/PWM_Back_1.c ****     *******************************************************************************/
 360:.\Generated_Source\PSoC5/PWM_Back_1.c ****     void PWM_Back_1_SetCompareMode2(uint8 comparemode) 
 361:.\Generated_Source\PSoC5/PWM_Back_1.c ****     {
 362:.\Generated_Source\PSoC5/PWM_Back_1.c **** 
 363:.\Generated_Source\PSoC5/PWM_Back_1.c ****         #if(0 != PWM_Back_1_CTRL_CMPMODE2_SHIFT)
 364:.\Generated_Source\PSoC5/PWM_Back_1.c ****             uint8 comparemodemasked = ((uint8)((uint8)comparemode << PWM_Back_1_CTRL_CMPMODE2_SHIFT
 365:.\Generated_Source\PSoC5/PWM_Back_1.c ****                                                  PWM_Back_1_CTRL_CMPMODE2_MASK;
 366:.\Generated_Source\PSoC5/PWM_Back_1.c ****         #else
 367:.\Generated_Source\PSoC5/PWM_Back_1.c ****             uint8 comparemodemasked = comparemode & PWM_Back_1_CTRL_CMPMODE2_MASK;
 368:.\Generated_Source\PSoC5/PWM_Back_1.c ****         #endif /* (0 != PWM_Back_1_CTRL_CMPMODE2_SHIFT) */
 369:.\Generated_Source\PSoC5/PWM_Back_1.c **** 
 370:.\Generated_Source\PSoC5/PWM_Back_1.c ****         #if (PWM_Back_1_UseControl)
 371:.\Generated_Source\PSoC5/PWM_Back_1.c ****             PWM_Back_1_CONTROL &= ((uint8)(~PWM_Back_1_CTRL_CMPMODE2_MASK)); /*Clear existing mode 
 372:.\Generated_Source\PSoC5/PWM_Back_1.c ****             PWM_Back_1_CONTROL |= comparemodemasked;
 373:.\Generated_Source\PSoC5/PWM_Back_1.c ****         #endif /* (PWM_Back_1_UseControl) */
 374:.\Generated_Source\PSoC5/PWM_Back_1.c ****     }
 375:.\Generated_Source\PSoC5/PWM_Back_1.c ****     #endif /*PWM_Back_1_CompareMode2SW */
 376:.\Generated_Source\PSoC5/PWM_Back_1.c **** 
 377:.\Generated_Source\PSoC5/PWM_Back_1.c **** #endif /* UseOneCompareMode */
 378:.\Generated_Source\PSoC5/PWM_Back_1.c **** 
 379:.\Generated_Source\PSoC5/PWM_Back_1.c **** 
 380:.\Generated_Source\PSoC5/PWM_Back_1.c **** #if (!PWM_Back_1_UsingFixedFunction)
 381:.\Generated_Source\PSoC5/PWM_Back_1.c **** 
 382:.\Generated_Source\PSoC5/PWM_Back_1.c **** 
 383:.\Generated_Source\PSoC5/PWM_Back_1.c ****     /*******************************************************************************
 384:.\Generated_Source\PSoC5/PWM_Back_1.c ****     * Function Name: PWM_Back_1_WriteCounter
 385:.\Generated_Source\PSoC5/PWM_Back_1.c ****     ********************************************************************************
 386:.\Generated_Source\PSoC5/PWM_Back_1.c ****     *
 387:.\Generated_Source\PSoC5/PWM_Back_1.c ****     * Summary:
ARM GAS  C:\Users\Shiguruy\AppData\Local\Temp\ccePG2uD.s 			page 12


 388:.\Generated_Source\PSoC5/PWM_Back_1.c ****     *  Writes a new counter value directly to the counter register. This will be
 389:.\Generated_Source\PSoC5/PWM_Back_1.c ****     *  implemented for that currently running period and only that period. This API
 390:.\Generated_Source\PSoC5/PWM_Back_1.c ****     *  is valid only for UDB implementation and not available for fixed function
 391:.\Generated_Source\PSoC5/PWM_Back_1.c ****     *  PWM implementation.
 392:.\Generated_Source\PSoC5/PWM_Back_1.c ****     *
 393:.\Generated_Source\PSoC5/PWM_Back_1.c ****     * Parameters:
 394:.\Generated_Source\PSoC5/PWM_Back_1.c ****     *  counter:  The period new period counter value.
 395:.\Generated_Source\PSoC5/PWM_Back_1.c ****     *
 396:.\Generated_Source\PSoC5/PWM_Back_1.c ****     * Return:
 397:.\Generated_Source\PSoC5/PWM_Back_1.c ****     *  None
 398:.\Generated_Source\PSoC5/PWM_Back_1.c ****     *
 399:.\Generated_Source\PSoC5/PWM_Back_1.c ****     * Side Effects:
 400:.\Generated_Source\PSoC5/PWM_Back_1.c ****     *  The PWM Period will be reloaded when a counter value will be a zero
 401:.\Generated_Source\PSoC5/PWM_Back_1.c ****     *
 402:.\Generated_Source\PSoC5/PWM_Back_1.c ****     *******************************************************************************/
 403:.\Generated_Source\PSoC5/PWM_Back_1.c ****     void PWM_Back_1_WriteCounter(uint8 counter) \
 404:.\Generated_Source\PSoC5/PWM_Back_1.c ****                                        
 405:.\Generated_Source\PSoC5/PWM_Back_1.c ****     {
 241              		.loc 1 405 0
 242              		.cfi_startproc
 243              		@ args = 0, pretend = 0, frame = 8
 244              		@ frame_needed = 1, uses_anonymous_args = 0
 245              		@ link register save eliminated.
 246 0000 80B4     		push	{r7}
 247              		.cfi_def_cfa_offset 4
 248              		.cfi_offset 7, -4
 249 0002 83B0     		sub	sp, sp, #12
 250              		.cfi_def_cfa_offset 16
 251 0004 00AF     		add	r7, sp, #0
 252              		.cfi_def_cfa_register 7
 253 0006 0346     		mov	r3, r0
 254 0008 FB71     		strb	r3, [r7, #7]
 406:.\Generated_Source\PSoC5/PWM_Back_1.c ****         CY_SET_REG8(PWM_Back_1_COUNTER_LSB_PTR, counter);
 255              		.loc 1 406 0
 256 000a 044A     		ldr	r2, .L15
 257 000c FB79     		ldrb	r3, [r7, #7]
 258 000e 1370     		strb	r3, [r2]
 407:.\Generated_Source\PSoC5/PWM_Back_1.c ****     }
 259              		.loc 1 407 0
 260 0010 0C37     		adds	r7, r7, #12
 261              		.cfi_def_cfa_offset 4
 262 0012 BD46     		mov	sp, r7
 263              		.cfi_def_cfa_register 13
 264              		@ sp needed
 265 0014 5DF8047B 		ldr	r7, [sp], #4
 266              		.cfi_restore 7
 267              		.cfi_def_cfa_offset 0
 268 0018 7047     		bx	lr
 269              	.L16:
 270 001a 00BF     		.align	2
 271              	.L15:
 272 001c 0B640040 		.word	1073767435
 273              		.cfi_endproc
 274              	.LFE4:
 275              		.size	PWM_Back_1_WriteCounter, .-PWM_Back_1_WriteCounter
 276              		.section	.text.PWM_Back_1_ReadCounter,"ax",%progbits
 277              		.align	2
ARM GAS  C:\Users\Shiguruy\AppData\Local\Temp\ccePG2uD.s 			page 13


 278              		.global	PWM_Back_1_ReadCounter
 279              		.thumb
 280              		.thumb_func
 281              		.type	PWM_Back_1_ReadCounter, %function
 282              	PWM_Back_1_ReadCounter:
 283              	.LFB5:
 408:.\Generated_Source\PSoC5/PWM_Back_1.c **** 
 409:.\Generated_Source\PSoC5/PWM_Back_1.c **** 
 410:.\Generated_Source\PSoC5/PWM_Back_1.c ****     /*******************************************************************************
 411:.\Generated_Source\PSoC5/PWM_Back_1.c ****     * Function Name: PWM_Back_1_ReadCounter
 412:.\Generated_Source\PSoC5/PWM_Back_1.c ****     ********************************************************************************
 413:.\Generated_Source\PSoC5/PWM_Back_1.c ****     *
 414:.\Generated_Source\PSoC5/PWM_Back_1.c ****     * Summary:
 415:.\Generated_Source\PSoC5/PWM_Back_1.c ****     *  This function returns the current value of the counter.  It doesn't matter
 416:.\Generated_Source\PSoC5/PWM_Back_1.c ****     *  if the counter is enabled or running.
 417:.\Generated_Source\PSoC5/PWM_Back_1.c ****     *
 418:.\Generated_Source\PSoC5/PWM_Back_1.c ****     * Parameters:
 419:.\Generated_Source\PSoC5/PWM_Back_1.c ****     *  None
 420:.\Generated_Source\PSoC5/PWM_Back_1.c ****     *
 421:.\Generated_Source\PSoC5/PWM_Back_1.c ****     * Return:
 422:.\Generated_Source\PSoC5/PWM_Back_1.c ****     *  The current value of the counter.
 423:.\Generated_Source\PSoC5/PWM_Back_1.c ****     *
 424:.\Generated_Source\PSoC5/PWM_Back_1.c ****     *******************************************************************************/
 425:.\Generated_Source\PSoC5/PWM_Back_1.c ****     uint8 PWM_Back_1_ReadCounter(void) 
 426:.\Generated_Source\PSoC5/PWM_Back_1.c ****     {
 284              		.loc 1 426 0
 285              		.cfi_startproc
 286              		@ args = 0, pretend = 0, frame = 0
 287              		@ frame_needed = 1, uses_anonymous_args = 0
 288              		@ link register save eliminated.
 289 0000 80B4     		push	{r7}
 290              		.cfi_def_cfa_offset 4
 291              		.cfi_offset 7, -4
 292 0002 00AF     		add	r7, sp, #0
 293              		.cfi_def_cfa_register 7
 427:.\Generated_Source\PSoC5/PWM_Back_1.c ****         /* Force capture by reading Accumulator */
 428:.\Generated_Source\PSoC5/PWM_Back_1.c ****         /* Must first do a software capture to be able to read the counter */
 429:.\Generated_Source\PSoC5/PWM_Back_1.c ****         /* It is up to the user code to make sure there isn't already captured data in the FIFO */
 430:.\Generated_Source\PSoC5/PWM_Back_1.c ****           (void)CY_GET_REG8(PWM_Back_1_COUNTERCAP_LSB_PTR_8BIT);
 294              		.loc 1 430 0
 295 0004 044B     		ldr	r3, .L19
 296 0006 1B78     		ldrb	r3, [r3]
 431:.\Generated_Source\PSoC5/PWM_Back_1.c **** 
 432:.\Generated_Source\PSoC5/PWM_Back_1.c ****         /* Read the data from the FIFO */
 433:.\Generated_Source\PSoC5/PWM_Back_1.c ****         return (CY_GET_REG8(PWM_Back_1_CAPTURE_LSB_PTR));
 297              		.loc 1 433 0
 298 0008 044B     		ldr	r3, .L19+4
 299 000a 1B78     		ldrb	r3, [r3]
 300 000c DBB2     		uxtb	r3, r3
 434:.\Generated_Source\PSoC5/PWM_Back_1.c ****     }
 301              		.loc 1 434 0
 302 000e 1846     		mov	r0, r3
 303 0010 BD46     		mov	sp, r7
 304              		.cfi_def_cfa_register 13
 305              		@ sp needed
 306 0012 5DF8047B 		ldr	r7, [sp], #4
 307              		.cfi_restore 7
ARM GAS  C:\Users\Shiguruy\AppData\Local\Temp\ccePG2uD.s 			page 14


 308              		.cfi_def_cfa_offset 0
 309 0016 7047     		bx	lr
 310              	.L20:
 311              		.align	2
 312              	.L19:
 313 0018 1B640040 		.word	1073767451
 314 001c 5B640040 		.word	1073767515
 315              		.cfi_endproc
 316              	.LFE5:
 317              		.size	PWM_Back_1_ReadCounter, .-PWM_Back_1_ReadCounter
 318              		.section	.text.PWM_Back_1_ClearFIFO,"ax",%progbits
 319              		.align	2
 320              		.global	PWM_Back_1_ClearFIFO
 321              		.thumb
 322              		.thumb_func
 323              		.type	PWM_Back_1_ClearFIFO, %function
 324              	PWM_Back_1_ClearFIFO:
 325              	.LFB6:
 435:.\Generated_Source\PSoC5/PWM_Back_1.c **** 
 436:.\Generated_Source\PSoC5/PWM_Back_1.c ****     #if (PWM_Back_1_UseStatus)
 437:.\Generated_Source\PSoC5/PWM_Back_1.c **** 
 438:.\Generated_Source\PSoC5/PWM_Back_1.c **** 
 439:.\Generated_Source\PSoC5/PWM_Back_1.c ****         /*******************************************************************************
 440:.\Generated_Source\PSoC5/PWM_Back_1.c ****         * Function Name: PWM_Back_1_ClearFIFO
 441:.\Generated_Source\PSoC5/PWM_Back_1.c ****         ********************************************************************************
 442:.\Generated_Source\PSoC5/PWM_Back_1.c ****         *
 443:.\Generated_Source\PSoC5/PWM_Back_1.c ****         * Summary:
 444:.\Generated_Source\PSoC5/PWM_Back_1.c ****         *  This function clears all capture data from the capture FIFO
 445:.\Generated_Source\PSoC5/PWM_Back_1.c ****         *
 446:.\Generated_Source\PSoC5/PWM_Back_1.c ****         * Parameters:
 447:.\Generated_Source\PSoC5/PWM_Back_1.c ****         *  None
 448:.\Generated_Source\PSoC5/PWM_Back_1.c ****         *
 449:.\Generated_Source\PSoC5/PWM_Back_1.c ****         * Return:
 450:.\Generated_Source\PSoC5/PWM_Back_1.c ****         *  None
 451:.\Generated_Source\PSoC5/PWM_Back_1.c ****         *
 452:.\Generated_Source\PSoC5/PWM_Back_1.c ****         *******************************************************************************/
 453:.\Generated_Source\PSoC5/PWM_Back_1.c ****         void PWM_Back_1_ClearFIFO(void) 
 454:.\Generated_Source\PSoC5/PWM_Back_1.c ****         {
 326              		.loc 1 454 0
 327              		.cfi_startproc
 328              		@ args = 0, pretend = 0, frame = 0
 329              		@ frame_needed = 1, uses_anonymous_args = 0
 330 0000 80B5     		push	{r7, lr}
 331              		.cfi_def_cfa_offset 8
 332              		.cfi_offset 7, -8
 333              		.cfi_offset 14, -4
 334 0002 00AF     		add	r7, sp, #0
 335              		.cfi_def_cfa_register 7
 455:.\Generated_Source\PSoC5/PWM_Back_1.c ****             while(0u != (PWM_Back_1_ReadStatusRegister() & PWM_Back_1_STATUS_FIFONEMPTY))
 336              		.loc 1 455 0
 337 0004 01E0     		b	.L22
 338              	.L23:
 456:.\Generated_Source\PSoC5/PWM_Back_1.c ****             {
 457:.\Generated_Source\PSoC5/PWM_Back_1.c ****                 (void)PWM_Back_1_ReadCapture();
 339              		.loc 1 457 0
 340 0006 FFF7FEFF 		bl	PWM_Back_1_ReadCapture
 341              	.L22:
ARM GAS  C:\Users\Shiguruy\AppData\Local\Temp\ccePG2uD.s 			page 15


 455:.\Generated_Source\PSoC5/PWM_Back_1.c ****             while(0u != (PWM_Back_1_ReadStatusRegister() & PWM_Back_1_STATUS_FIFONEMPTY))
 342              		.loc 1 455 0
 343 000a FFF7FEFF 		bl	PWM_Back_1_ReadStatusRegister
 344 000e 0346     		mov	r3, r0
 345 0010 03F01003 		and	r3, r3, #16
 346 0014 002B     		cmp	r3, #0
 347 0016 F6D1     		bne	.L23
 458:.\Generated_Source\PSoC5/PWM_Back_1.c ****             }
 459:.\Generated_Source\PSoC5/PWM_Back_1.c ****         }
 348              		.loc 1 459 0
 349 0018 80BD     		pop	{r7, pc}
 350              		.cfi_endproc
 351              	.LFE6:
 352              		.size	PWM_Back_1_ClearFIFO, .-PWM_Back_1_ClearFIFO
 353 001a 00BF     		.section	.text.PWM_Back_1_WritePeriod,"ax",%progbits
 354              		.align	2
 355              		.global	PWM_Back_1_WritePeriod
 356              		.thumb
 357              		.thumb_func
 358              		.type	PWM_Back_1_WritePeriod, %function
 359              	PWM_Back_1_WritePeriod:
 360              	.LFB7:
 460:.\Generated_Source\PSoC5/PWM_Back_1.c **** 
 461:.\Generated_Source\PSoC5/PWM_Back_1.c ****     #endif /* PWM_Back_1_UseStatus */
 462:.\Generated_Source\PSoC5/PWM_Back_1.c **** 
 463:.\Generated_Source\PSoC5/PWM_Back_1.c **** #endif /* !PWM_Back_1_UsingFixedFunction */
 464:.\Generated_Source\PSoC5/PWM_Back_1.c **** 
 465:.\Generated_Source\PSoC5/PWM_Back_1.c **** 
 466:.\Generated_Source\PSoC5/PWM_Back_1.c **** /*******************************************************************************
 467:.\Generated_Source\PSoC5/PWM_Back_1.c **** * Function Name: PWM_Back_1_WritePeriod
 468:.\Generated_Source\PSoC5/PWM_Back_1.c **** ********************************************************************************
 469:.\Generated_Source\PSoC5/PWM_Back_1.c **** *
 470:.\Generated_Source\PSoC5/PWM_Back_1.c **** * Summary:
 471:.\Generated_Source\PSoC5/PWM_Back_1.c **** *  This function is used to change the period of the counter.  The new period
 472:.\Generated_Source\PSoC5/PWM_Back_1.c **** *  will be loaded the next time terminal count is detected.
 473:.\Generated_Source\PSoC5/PWM_Back_1.c **** *
 474:.\Generated_Source\PSoC5/PWM_Back_1.c **** * Parameters:
 475:.\Generated_Source\PSoC5/PWM_Back_1.c **** *  period:  Period value. May be between 1 and (2^Resolution)-1.  A value of 0
 476:.\Generated_Source\PSoC5/PWM_Back_1.c **** *           will result in the counter remaining at zero.
 477:.\Generated_Source\PSoC5/PWM_Back_1.c **** *
 478:.\Generated_Source\PSoC5/PWM_Back_1.c **** * Return:
 479:.\Generated_Source\PSoC5/PWM_Back_1.c **** *  None
 480:.\Generated_Source\PSoC5/PWM_Back_1.c **** *
 481:.\Generated_Source\PSoC5/PWM_Back_1.c **** *******************************************************************************/
 482:.\Generated_Source\PSoC5/PWM_Back_1.c **** void PWM_Back_1_WritePeriod(uint8 period) 
 483:.\Generated_Source\PSoC5/PWM_Back_1.c **** {
 361              		.loc 1 483 0
 362              		.cfi_startproc
 363              		@ args = 0, pretend = 0, frame = 8
 364              		@ frame_needed = 1, uses_anonymous_args = 0
 365              		@ link register save eliminated.
 366 0000 80B4     		push	{r7}
 367              		.cfi_def_cfa_offset 4
 368              		.cfi_offset 7, -4
 369 0002 83B0     		sub	sp, sp, #12
 370              		.cfi_def_cfa_offset 16
 371 0004 00AF     		add	r7, sp, #0
ARM GAS  C:\Users\Shiguruy\AppData\Local\Temp\ccePG2uD.s 			page 16


 372              		.cfi_def_cfa_register 7
 373 0006 0346     		mov	r3, r0
 374 0008 FB71     		strb	r3, [r7, #7]
 484:.\Generated_Source\PSoC5/PWM_Back_1.c ****     #if(PWM_Back_1_UsingFixedFunction)
 485:.\Generated_Source\PSoC5/PWM_Back_1.c ****         CY_SET_REG16(PWM_Back_1_PERIOD_LSB_PTR, (uint16)period);
 486:.\Generated_Source\PSoC5/PWM_Back_1.c ****     #else
 487:.\Generated_Source\PSoC5/PWM_Back_1.c ****         CY_SET_REG8(PWM_Back_1_PERIOD_LSB_PTR, period);
 375              		.loc 1 487 0
 376 000a 044A     		ldr	r2, .L25
 377 000c FB79     		ldrb	r3, [r7, #7]
 378 000e 1370     		strb	r3, [r2]
 488:.\Generated_Source\PSoC5/PWM_Back_1.c ****     #endif /* (PWM_Back_1_UsingFixedFunction) */
 489:.\Generated_Source\PSoC5/PWM_Back_1.c **** }
 379              		.loc 1 489 0
 380 0010 0C37     		adds	r7, r7, #12
 381              		.cfi_def_cfa_offset 4
 382 0012 BD46     		mov	sp, r7
 383              		.cfi_def_cfa_register 13
 384              		@ sp needed
 385 0014 5DF8047B 		ldr	r7, [sp], #4
 386              		.cfi_restore 7
 387              		.cfi_def_cfa_offset 0
 388 0018 7047     		bx	lr
 389              	.L26:
 390 001a 00BF     		.align	2
 391              	.L25:
 392 001c 4B640040 		.word	1073767499
 393              		.cfi_endproc
 394              	.LFE7:
 395              		.size	PWM_Back_1_WritePeriod, .-PWM_Back_1_WritePeriod
 396              		.section	.text.PWM_Back_1_WriteCompare,"ax",%progbits
 397              		.align	2
 398              		.global	PWM_Back_1_WriteCompare
 399              		.thumb
 400              		.thumb_func
 401              		.type	PWM_Back_1_WriteCompare, %function
 402              	PWM_Back_1_WriteCompare:
 403              	.LFB8:
 490:.\Generated_Source\PSoC5/PWM_Back_1.c **** 
 491:.\Generated_Source\PSoC5/PWM_Back_1.c **** #if (PWM_Back_1_UseOneCompareMode)
 492:.\Generated_Source\PSoC5/PWM_Back_1.c **** 
 493:.\Generated_Source\PSoC5/PWM_Back_1.c **** 
 494:.\Generated_Source\PSoC5/PWM_Back_1.c ****     /*******************************************************************************
 495:.\Generated_Source\PSoC5/PWM_Back_1.c ****     * Function Name: PWM_Back_1_WriteCompare
 496:.\Generated_Source\PSoC5/PWM_Back_1.c ****     ********************************************************************************
 497:.\Generated_Source\PSoC5/PWM_Back_1.c ****     *
 498:.\Generated_Source\PSoC5/PWM_Back_1.c ****     * Summary:
 499:.\Generated_Source\PSoC5/PWM_Back_1.c ****     *  This funtion is used to change the compare1 value when the PWM is in Dither
 500:.\Generated_Source\PSoC5/PWM_Back_1.c ****     *  mode. The compare output will reflect the new value on the next UDB clock.
 501:.\Generated_Source\PSoC5/PWM_Back_1.c ****     *  The compare output will be driven high when the present counter value is
 502:.\Generated_Source\PSoC5/PWM_Back_1.c ****     *  compared to the compare value based on the compare mode defined in
 503:.\Generated_Source\PSoC5/PWM_Back_1.c ****     *  Dither Mode.
 504:.\Generated_Source\PSoC5/PWM_Back_1.c ****     *
 505:.\Generated_Source\PSoC5/PWM_Back_1.c ****     * Parameters:
 506:.\Generated_Source\PSoC5/PWM_Back_1.c ****     *  compare:  New compare value.
 507:.\Generated_Source\PSoC5/PWM_Back_1.c ****     *
 508:.\Generated_Source\PSoC5/PWM_Back_1.c ****     * Return:
ARM GAS  C:\Users\Shiguruy\AppData\Local\Temp\ccePG2uD.s 			page 17


 509:.\Generated_Source\PSoC5/PWM_Back_1.c ****     *  None
 510:.\Generated_Source\PSoC5/PWM_Back_1.c ****     *
 511:.\Generated_Source\PSoC5/PWM_Back_1.c ****     * Side Effects:
 512:.\Generated_Source\PSoC5/PWM_Back_1.c ****     *  This function is only available if the PWM mode parameter is set to
 513:.\Generated_Source\PSoC5/PWM_Back_1.c ****     *  Dither Mode, Center Aligned Mode or One Output Mode
 514:.\Generated_Source\PSoC5/PWM_Back_1.c ****     *
 515:.\Generated_Source\PSoC5/PWM_Back_1.c ****     *******************************************************************************/
 516:.\Generated_Source\PSoC5/PWM_Back_1.c ****     void PWM_Back_1_WriteCompare(uint8 compare) \
 517:.\Generated_Source\PSoC5/PWM_Back_1.c ****                                        
 518:.\Generated_Source\PSoC5/PWM_Back_1.c ****     {
 404              		.loc 1 518 0
 405              		.cfi_startproc
 406              		@ args = 0, pretend = 0, frame = 8
 407              		@ frame_needed = 1, uses_anonymous_args = 0
 408              		@ link register save eliminated.
 409 0000 80B4     		push	{r7}
 410              		.cfi_def_cfa_offset 4
 411              		.cfi_offset 7, -4
 412 0002 83B0     		sub	sp, sp, #12
 413              		.cfi_def_cfa_offset 16
 414 0004 00AF     		add	r7, sp, #0
 415              		.cfi_def_cfa_register 7
 416 0006 0346     		mov	r3, r0
 417 0008 FB71     		strb	r3, [r7, #7]
 519:.\Generated_Source\PSoC5/PWM_Back_1.c ****         #if(PWM_Back_1_UsingFixedFunction)
 520:.\Generated_Source\PSoC5/PWM_Back_1.c ****             CY_SET_REG16(PWM_Back_1_COMPARE1_LSB_PTR, (uint16)compare);
 521:.\Generated_Source\PSoC5/PWM_Back_1.c ****         #else
 522:.\Generated_Source\PSoC5/PWM_Back_1.c ****             CY_SET_REG8(PWM_Back_1_COMPARE1_LSB_PTR, compare);
 418              		.loc 1 522 0
 419 000a 044A     		ldr	r2, .L28
 420 000c FB79     		ldrb	r3, [r7, #7]
 421 000e 1370     		strb	r3, [r2]
 523:.\Generated_Source\PSoC5/PWM_Back_1.c ****         #endif /* (PWM_Back_1_UsingFixedFunction) */
 524:.\Generated_Source\PSoC5/PWM_Back_1.c **** 
 525:.\Generated_Source\PSoC5/PWM_Back_1.c ****         #if (PWM_Back_1_PWMMode == PWM_Back_1__B_PWM__DITHER)
 526:.\Generated_Source\PSoC5/PWM_Back_1.c ****             #if(PWM_Back_1_UsingFixedFunction)
 527:.\Generated_Source\PSoC5/PWM_Back_1.c ****                 CY_SET_REG16(PWM_Back_1_COMPARE2_LSB_PTR, (uint16)(compare + 1u));
 528:.\Generated_Source\PSoC5/PWM_Back_1.c ****             #else
 529:.\Generated_Source\PSoC5/PWM_Back_1.c ****                 CY_SET_REG8(PWM_Back_1_COMPARE2_LSB_PTR, (compare + 1u));
 530:.\Generated_Source\PSoC5/PWM_Back_1.c ****             #endif /* (PWM_Back_1_UsingFixedFunction) */
 531:.\Generated_Source\PSoC5/PWM_Back_1.c ****         #endif /* (PWM_Back_1_PWMMode == PWM_Back_1__B_PWM__DITHER) */
 532:.\Generated_Source\PSoC5/PWM_Back_1.c ****     }
 422              		.loc 1 532 0
 423 0010 0C37     		adds	r7, r7, #12
 424              		.cfi_def_cfa_offset 4
 425 0012 BD46     		mov	sp, r7
 426              		.cfi_def_cfa_register 13
 427              		@ sp needed
 428 0014 5DF8047B 		ldr	r7, [sp], #4
 429              		.cfi_restore 7
 430              		.cfi_def_cfa_offset 0
 431 0018 7047     		bx	lr
 432              	.L29:
 433 001a 00BF     		.align	2
 434              	.L28:
 435 001c 2B640040 		.word	1073767467
 436              		.cfi_endproc
ARM GAS  C:\Users\Shiguruy\AppData\Local\Temp\ccePG2uD.s 			page 18


 437              	.LFE8:
 438              		.size	PWM_Back_1_WriteCompare, .-PWM_Back_1_WriteCompare
 439              		.section	.text.PWM_Back_1_SetInterruptMode,"ax",%progbits
 440              		.align	2
 441              		.global	PWM_Back_1_SetInterruptMode
 442              		.thumb
 443              		.thumb_func
 444              		.type	PWM_Back_1_SetInterruptMode, %function
 445              	PWM_Back_1_SetInterruptMode:
 446              	.LFB9:
 533:.\Generated_Source\PSoC5/PWM_Back_1.c **** 
 534:.\Generated_Source\PSoC5/PWM_Back_1.c **** 
 535:.\Generated_Source\PSoC5/PWM_Back_1.c **** #else
 536:.\Generated_Source\PSoC5/PWM_Back_1.c **** 
 537:.\Generated_Source\PSoC5/PWM_Back_1.c **** 
 538:.\Generated_Source\PSoC5/PWM_Back_1.c ****     /*******************************************************************************
 539:.\Generated_Source\PSoC5/PWM_Back_1.c ****     * Function Name: PWM_Back_1_WriteCompare1
 540:.\Generated_Source\PSoC5/PWM_Back_1.c ****     ********************************************************************************
 541:.\Generated_Source\PSoC5/PWM_Back_1.c ****     *
 542:.\Generated_Source\PSoC5/PWM_Back_1.c ****     * Summary:
 543:.\Generated_Source\PSoC5/PWM_Back_1.c ****     *  This funtion is used to change the compare1 value.  The compare output will
 544:.\Generated_Source\PSoC5/PWM_Back_1.c ****     *  reflect the new value on the next UDB clock.  The compare output will be
 545:.\Generated_Source\PSoC5/PWM_Back_1.c ****     *  driven high when the present counter value is less than or less than or
 546:.\Generated_Source\PSoC5/PWM_Back_1.c ****     *  equal to the compare register, depending on the mode.
 547:.\Generated_Source\PSoC5/PWM_Back_1.c ****     *
 548:.\Generated_Source\PSoC5/PWM_Back_1.c ****     * Parameters:
 549:.\Generated_Source\PSoC5/PWM_Back_1.c ****     *  compare:  New compare value.
 550:.\Generated_Source\PSoC5/PWM_Back_1.c ****     *
 551:.\Generated_Source\PSoC5/PWM_Back_1.c ****     * Return:
 552:.\Generated_Source\PSoC5/PWM_Back_1.c ****     *  None
 553:.\Generated_Source\PSoC5/PWM_Back_1.c ****     *
 554:.\Generated_Source\PSoC5/PWM_Back_1.c ****     *******************************************************************************/
 555:.\Generated_Source\PSoC5/PWM_Back_1.c ****     void PWM_Back_1_WriteCompare1(uint8 compare) \
 556:.\Generated_Source\PSoC5/PWM_Back_1.c ****                                         
 557:.\Generated_Source\PSoC5/PWM_Back_1.c ****     {
 558:.\Generated_Source\PSoC5/PWM_Back_1.c ****         #if(PWM_Back_1_UsingFixedFunction)
 559:.\Generated_Source\PSoC5/PWM_Back_1.c ****             CY_SET_REG16(PWM_Back_1_COMPARE1_LSB_PTR, (uint16)compare);
 560:.\Generated_Source\PSoC5/PWM_Back_1.c ****         #else
 561:.\Generated_Source\PSoC5/PWM_Back_1.c ****             CY_SET_REG8(PWM_Back_1_COMPARE1_LSB_PTR, compare);
 562:.\Generated_Source\PSoC5/PWM_Back_1.c ****         #endif /* (PWM_Back_1_UsingFixedFunction) */
 563:.\Generated_Source\PSoC5/PWM_Back_1.c ****     }
 564:.\Generated_Source\PSoC5/PWM_Back_1.c **** 
 565:.\Generated_Source\PSoC5/PWM_Back_1.c **** 
 566:.\Generated_Source\PSoC5/PWM_Back_1.c ****     /*******************************************************************************
 567:.\Generated_Source\PSoC5/PWM_Back_1.c ****     * Function Name: PWM_Back_1_WriteCompare2
 568:.\Generated_Source\PSoC5/PWM_Back_1.c ****     ********************************************************************************
 569:.\Generated_Source\PSoC5/PWM_Back_1.c ****     *
 570:.\Generated_Source\PSoC5/PWM_Back_1.c ****     * Summary:
 571:.\Generated_Source\PSoC5/PWM_Back_1.c ****     *  This funtion is used to change the compare value, for compare1 output.
 572:.\Generated_Source\PSoC5/PWM_Back_1.c ****     *  The compare output will reflect the new value on the next UDB clock.
 573:.\Generated_Source\PSoC5/PWM_Back_1.c ****     *  The compare output will be driven high when the present counter value is
 574:.\Generated_Source\PSoC5/PWM_Back_1.c ****     *  less than or less than or equal to the compare register, depending on the
 575:.\Generated_Source\PSoC5/PWM_Back_1.c ****     *  mode.
 576:.\Generated_Source\PSoC5/PWM_Back_1.c ****     *
 577:.\Generated_Source\PSoC5/PWM_Back_1.c ****     * Parameters:
 578:.\Generated_Source\PSoC5/PWM_Back_1.c ****     *  compare:  New compare value.
 579:.\Generated_Source\PSoC5/PWM_Back_1.c ****     *
ARM GAS  C:\Users\Shiguruy\AppData\Local\Temp\ccePG2uD.s 			page 19


 580:.\Generated_Source\PSoC5/PWM_Back_1.c ****     * Return:
 581:.\Generated_Source\PSoC5/PWM_Back_1.c ****     *  None
 582:.\Generated_Source\PSoC5/PWM_Back_1.c ****     *
 583:.\Generated_Source\PSoC5/PWM_Back_1.c ****     *******************************************************************************/
 584:.\Generated_Source\PSoC5/PWM_Back_1.c ****     void PWM_Back_1_WriteCompare2(uint8 compare) \
 585:.\Generated_Source\PSoC5/PWM_Back_1.c ****                                         
 586:.\Generated_Source\PSoC5/PWM_Back_1.c ****     {
 587:.\Generated_Source\PSoC5/PWM_Back_1.c ****         #if(PWM_Back_1_UsingFixedFunction)
 588:.\Generated_Source\PSoC5/PWM_Back_1.c ****             CY_SET_REG16(PWM_Back_1_COMPARE2_LSB_PTR, compare);
 589:.\Generated_Source\PSoC5/PWM_Back_1.c ****         #else
 590:.\Generated_Source\PSoC5/PWM_Back_1.c ****             CY_SET_REG8(PWM_Back_1_COMPARE2_LSB_PTR, compare);
 591:.\Generated_Source\PSoC5/PWM_Back_1.c ****         #endif /* (PWM_Back_1_UsingFixedFunction) */
 592:.\Generated_Source\PSoC5/PWM_Back_1.c ****     }
 593:.\Generated_Source\PSoC5/PWM_Back_1.c **** #endif /* UseOneCompareMode */
 594:.\Generated_Source\PSoC5/PWM_Back_1.c **** 
 595:.\Generated_Source\PSoC5/PWM_Back_1.c **** #if (PWM_Back_1_DeadBandUsed)
 596:.\Generated_Source\PSoC5/PWM_Back_1.c **** 
 597:.\Generated_Source\PSoC5/PWM_Back_1.c **** 
 598:.\Generated_Source\PSoC5/PWM_Back_1.c ****     /*******************************************************************************
 599:.\Generated_Source\PSoC5/PWM_Back_1.c ****     * Function Name: PWM_Back_1_WriteDeadTime
 600:.\Generated_Source\PSoC5/PWM_Back_1.c ****     ********************************************************************************
 601:.\Generated_Source\PSoC5/PWM_Back_1.c ****     *
 602:.\Generated_Source\PSoC5/PWM_Back_1.c ****     * Summary:
 603:.\Generated_Source\PSoC5/PWM_Back_1.c ****     *  This function writes the dead-band counts to the corresponding register
 604:.\Generated_Source\PSoC5/PWM_Back_1.c ****     *
 605:.\Generated_Source\PSoC5/PWM_Back_1.c ****     * Parameters:
 606:.\Generated_Source\PSoC5/PWM_Back_1.c ****     *  deadtime:  Number of counts for dead time
 607:.\Generated_Source\PSoC5/PWM_Back_1.c ****     *
 608:.\Generated_Source\PSoC5/PWM_Back_1.c ****     * Return:
 609:.\Generated_Source\PSoC5/PWM_Back_1.c ****     *  None
 610:.\Generated_Source\PSoC5/PWM_Back_1.c ****     *
 611:.\Generated_Source\PSoC5/PWM_Back_1.c ****     *******************************************************************************/
 612:.\Generated_Source\PSoC5/PWM_Back_1.c ****     void PWM_Back_1_WriteDeadTime(uint8 deadtime) 
 613:.\Generated_Source\PSoC5/PWM_Back_1.c ****     {
 614:.\Generated_Source\PSoC5/PWM_Back_1.c ****         /* If using the Dead Band 1-255 mode then just write the register */
 615:.\Generated_Source\PSoC5/PWM_Back_1.c ****         #if(!PWM_Back_1_DeadBand2_4)
 616:.\Generated_Source\PSoC5/PWM_Back_1.c ****             CY_SET_REG8(PWM_Back_1_DEADBAND_COUNT_PTR, deadtime);
 617:.\Generated_Source\PSoC5/PWM_Back_1.c ****         #else
 618:.\Generated_Source\PSoC5/PWM_Back_1.c ****             /* Otherwise the data has to be masked and offset */
 619:.\Generated_Source\PSoC5/PWM_Back_1.c ****             /* Clear existing data */
 620:.\Generated_Source\PSoC5/PWM_Back_1.c ****             PWM_Back_1_DEADBAND_COUNT &= ((uint8)(~PWM_Back_1_DEADBAND_COUNT_MASK));
 621:.\Generated_Source\PSoC5/PWM_Back_1.c **** 
 622:.\Generated_Source\PSoC5/PWM_Back_1.c ****             /* Set new dead time */
 623:.\Generated_Source\PSoC5/PWM_Back_1.c ****             #if(PWM_Back_1_DEADBAND_COUNT_SHIFT)
 624:.\Generated_Source\PSoC5/PWM_Back_1.c ****                 PWM_Back_1_DEADBAND_COUNT |= ((uint8)((uint8)deadtime << PWM_Back_1_DEADBAND_COUNT_
 625:.\Generated_Source\PSoC5/PWM_Back_1.c ****                                                     PWM_Back_1_DEADBAND_COUNT_MASK;
 626:.\Generated_Source\PSoC5/PWM_Back_1.c ****             #else
 627:.\Generated_Source\PSoC5/PWM_Back_1.c ****                 PWM_Back_1_DEADBAND_COUNT |= deadtime & PWM_Back_1_DEADBAND_COUNT_MASK;
 628:.\Generated_Source\PSoC5/PWM_Back_1.c ****             #endif /* (PWM_Back_1_DEADBAND_COUNT_SHIFT) */
 629:.\Generated_Source\PSoC5/PWM_Back_1.c **** 
 630:.\Generated_Source\PSoC5/PWM_Back_1.c ****         #endif /* (!PWM_Back_1_DeadBand2_4) */
 631:.\Generated_Source\PSoC5/PWM_Back_1.c ****     }
 632:.\Generated_Source\PSoC5/PWM_Back_1.c **** 
 633:.\Generated_Source\PSoC5/PWM_Back_1.c **** 
 634:.\Generated_Source\PSoC5/PWM_Back_1.c ****     /*******************************************************************************
 635:.\Generated_Source\PSoC5/PWM_Back_1.c ****     * Function Name: PWM_Back_1_ReadDeadTime
 636:.\Generated_Source\PSoC5/PWM_Back_1.c ****     ********************************************************************************
ARM GAS  C:\Users\Shiguruy\AppData\Local\Temp\ccePG2uD.s 			page 20


 637:.\Generated_Source\PSoC5/PWM_Back_1.c ****     *
 638:.\Generated_Source\PSoC5/PWM_Back_1.c ****     * Summary:
 639:.\Generated_Source\PSoC5/PWM_Back_1.c ****     *  This function reads the dead-band counts from the corresponding register
 640:.\Generated_Source\PSoC5/PWM_Back_1.c ****     *
 641:.\Generated_Source\PSoC5/PWM_Back_1.c ****     * Parameters:
 642:.\Generated_Source\PSoC5/PWM_Back_1.c ****     *  None
 643:.\Generated_Source\PSoC5/PWM_Back_1.c ****     *
 644:.\Generated_Source\PSoC5/PWM_Back_1.c ****     * Return:
 645:.\Generated_Source\PSoC5/PWM_Back_1.c ****     *  Dead Band Counts
 646:.\Generated_Source\PSoC5/PWM_Back_1.c ****     *
 647:.\Generated_Source\PSoC5/PWM_Back_1.c ****     *******************************************************************************/
 648:.\Generated_Source\PSoC5/PWM_Back_1.c ****     uint8 PWM_Back_1_ReadDeadTime(void) 
 649:.\Generated_Source\PSoC5/PWM_Back_1.c ****     {
 650:.\Generated_Source\PSoC5/PWM_Back_1.c ****         /* If using the Dead Band 1-255 mode then just read the register */
 651:.\Generated_Source\PSoC5/PWM_Back_1.c ****         #if(!PWM_Back_1_DeadBand2_4)
 652:.\Generated_Source\PSoC5/PWM_Back_1.c ****             return (CY_GET_REG8(PWM_Back_1_DEADBAND_COUNT_PTR));
 653:.\Generated_Source\PSoC5/PWM_Back_1.c ****         #else
 654:.\Generated_Source\PSoC5/PWM_Back_1.c **** 
 655:.\Generated_Source\PSoC5/PWM_Back_1.c ****             /* Otherwise the data has to be masked and offset */
 656:.\Generated_Source\PSoC5/PWM_Back_1.c ****             #if(PWM_Back_1_DEADBAND_COUNT_SHIFT)
 657:.\Generated_Source\PSoC5/PWM_Back_1.c ****                 return ((uint8)(((uint8)(PWM_Back_1_DEADBAND_COUNT & PWM_Back_1_DEADBAND_COUNT_MASK
 658:.\Generated_Source\PSoC5/PWM_Back_1.c ****                                                                            PWM_Back_1_DEADBAND_COUN
 659:.\Generated_Source\PSoC5/PWM_Back_1.c ****             #else
 660:.\Generated_Source\PSoC5/PWM_Back_1.c ****                 return (PWM_Back_1_DEADBAND_COUNT & PWM_Back_1_DEADBAND_COUNT_MASK);
 661:.\Generated_Source\PSoC5/PWM_Back_1.c ****             #endif /* (PWM_Back_1_DEADBAND_COUNT_SHIFT) */
 662:.\Generated_Source\PSoC5/PWM_Back_1.c ****         #endif /* (!PWM_Back_1_DeadBand2_4) */
 663:.\Generated_Source\PSoC5/PWM_Back_1.c ****     }
 664:.\Generated_Source\PSoC5/PWM_Back_1.c **** #endif /* DeadBandUsed */
 665:.\Generated_Source\PSoC5/PWM_Back_1.c **** 
 666:.\Generated_Source\PSoC5/PWM_Back_1.c **** #if (PWM_Back_1_UseStatus || PWM_Back_1_UsingFixedFunction)
 667:.\Generated_Source\PSoC5/PWM_Back_1.c **** 
 668:.\Generated_Source\PSoC5/PWM_Back_1.c **** 
 669:.\Generated_Source\PSoC5/PWM_Back_1.c ****     /*******************************************************************************
 670:.\Generated_Source\PSoC5/PWM_Back_1.c ****     * Function Name: PWM_Back_1_SetInterruptMode
 671:.\Generated_Source\PSoC5/PWM_Back_1.c ****     ********************************************************************************
 672:.\Generated_Source\PSoC5/PWM_Back_1.c ****     *
 673:.\Generated_Source\PSoC5/PWM_Back_1.c ****     * Summary:
 674:.\Generated_Source\PSoC5/PWM_Back_1.c ****     *  This function configures the interrupts mask control of theinterrupt
 675:.\Generated_Source\PSoC5/PWM_Back_1.c ****     *  source status register.
 676:.\Generated_Source\PSoC5/PWM_Back_1.c ****     *
 677:.\Generated_Source\PSoC5/PWM_Back_1.c ****     * Parameters:
 678:.\Generated_Source\PSoC5/PWM_Back_1.c ****     *  uint8 interruptMode: Bit field containing the interrupt sources enabled
 679:.\Generated_Source\PSoC5/PWM_Back_1.c ****     *
 680:.\Generated_Source\PSoC5/PWM_Back_1.c ****     * Return:
 681:.\Generated_Source\PSoC5/PWM_Back_1.c ****     *  None
 682:.\Generated_Source\PSoC5/PWM_Back_1.c ****     *
 683:.\Generated_Source\PSoC5/PWM_Back_1.c ****     *******************************************************************************/
 684:.\Generated_Source\PSoC5/PWM_Back_1.c ****     void PWM_Back_1_SetInterruptMode(uint8 interruptMode) 
 685:.\Generated_Source\PSoC5/PWM_Back_1.c ****     {
 447              		.loc 1 685 0
 448              		.cfi_startproc
 449              		@ args = 0, pretend = 0, frame = 8
 450              		@ frame_needed = 1, uses_anonymous_args = 0
 451              		@ link register save eliminated.
 452 0000 80B4     		push	{r7}
 453              		.cfi_def_cfa_offset 4
 454              		.cfi_offset 7, -4
ARM GAS  C:\Users\Shiguruy\AppData\Local\Temp\ccePG2uD.s 			page 21


 455 0002 83B0     		sub	sp, sp, #12
 456              		.cfi_def_cfa_offset 16
 457 0004 00AF     		add	r7, sp, #0
 458              		.cfi_def_cfa_register 7
 459 0006 0346     		mov	r3, r0
 460 0008 FB71     		strb	r3, [r7, #7]
 686:.\Generated_Source\PSoC5/PWM_Back_1.c ****         CY_SET_REG8(PWM_Back_1_STATUS_MASK_PTR, interruptMode);
 461              		.loc 1 686 0
 462 000a 044A     		ldr	r2, .L31
 463 000c FB79     		ldrb	r3, [r7, #7]
 464 000e 1370     		strb	r3, [r2]
 687:.\Generated_Source\PSoC5/PWM_Back_1.c ****     }
 465              		.loc 1 687 0
 466 0010 0C37     		adds	r7, r7, #12
 467              		.cfi_def_cfa_offset 4
 468 0012 BD46     		mov	sp, r7
 469              		.cfi_def_cfa_register 13
 470              		@ sp needed
 471 0014 5DF8047B 		ldr	r7, [sp], #4
 472              		.cfi_restore 7
 473              		.cfi_def_cfa_offset 0
 474 0018 7047     		bx	lr
 475              	.L32:
 476 001a 00BF     		.align	2
 477              	.L31:
 478 001c 8B640040 		.word	1073767563
 479              		.cfi_endproc
 480              	.LFE9:
 481              		.size	PWM_Back_1_SetInterruptMode, .-PWM_Back_1_SetInterruptMode
 482              		.section	.text.PWM_Back_1_ReadStatusRegister,"ax",%progbits
 483              		.align	2
 484              		.global	PWM_Back_1_ReadStatusRegister
 485              		.thumb
 486              		.thumb_func
 487              		.type	PWM_Back_1_ReadStatusRegister, %function
 488              	PWM_Back_1_ReadStatusRegister:
 489              	.LFB10:
 688:.\Generated_Source\PSoC5/PWM_Back_1.c **** 
 689:.\Generated_Source\PSoC5/PWM_Back_1.c **** 
 690:.\Generated_Source\PSoC5/PWM_Back_1.c ****     /*******************************************************************************
 691:.\Generated_Source\PSoC5/PWM_Back_1.c ****     * Function Name: PWM_Back_1_ReadStatusRegister
 692:.\Generated_Source\PSoC5/PWM_Back_1.c ****     ********************************************************************************
 693:.\Generated_Source\PSoC5/PWM_Back_1.c ****     *
 694:.\Generated_Source\PSoC5/PWM_Back_1.c ****     * Summary:
 695:.\Generated_Source\PSoC5/PWM_Back_1.c ****     *  This function returns the current state of the status register.
 696:.\Generated_Source\PSoC5/PWM_Back_1.c ****     *
 697:.\Generated_Source\PSoC5/PWM_Back_1.c ****     * Parameters:
 698:.\Generated_Source\PSoC5/PWM_Back_1.c ****     *  None
 699:.\Generated_Source\PSoC5/PWM_Back_1.c ****     *
 700:.\Generated_Source\PSoC5/PWM_Back_1.c ****     * Return:
 701:.\Generated_Source\PSoC5/PWM_Back_1.c ****     *  uint8 : Current status register value. The status register bits are:
 702:.\Generated_Source\PSoC5/PWM_Back_1.c ****     *  [7:6] : Unused(0)
 703:.\Generated_Source\PSoC5/PWM_Back_1.c ****     *  [5]   : Kill event output
 704:.\Generated_Source\PSoC5/PWM_Back_1.c ****     *  [4]   : FIFO not empty
 705:.\Generated_Source\PSoC5/PWM_Back_1.c ****     *  [3]   : FIFO full
 706:.\Generated_Source\PSoC5/PWM_Back_1.c ****     *  [2]   : Terminal count
 707:.\Generated_Source\PSoC5/PWM_Back_1.c ****     *  [1]   : Compare output 2
ARM GAS  C:\Users\Shiguruy\AppData\Local\Temp\ccePG2uD.s 			page 22


 708:.\Generated_Source\PSoC5/PWM_Back_1.c ****     *  [0]   : Compare output 1
 709:.\Generated_Source\PSoC5/PWM_Back_1.c ****     *
 710:.\Generated_Source\PSoC5/PWM_Back_1.c ****     *******************************************************************************/
 711:.\Generated_Source\PSoC5/PWM_Back_1.c ****     uint8 PWM_Back_1_ReadStatusRegister(void) 
 712:.\Generated_Source\PSoC5/PWM_Back_1.c ****     {
 490              		.loc 1 712 0
 491              		.cfi_startproc
 492              		@ args = 0, pretend = 0, frame = 0
 493              		@ frame_needed = 1, uses_anonymous_args = 0
 494              		@ link register save eliminated.
 495 0000 80B4     		push	{r7}
 496              		.cfi_def_cfa_offset 4
 497              		.cfi_offset 7, -4
 498 0002 00AF     		add	r7, sp, #0
 499              		.cfi_def_cfa_register 7
 713:.\Generated_Source\PSoC5/PWM_Back_1.c ****         return (CY_GET_REG8(PWM_Back_1_STATUS_PTR));
 500              		.loc 1 713 0
 501 0004 034B     		ldr	r3, .L35
 502 0006 1B78     		ldrb	r3, [r3]
 503 0008 DBB2     		uxtb	r3, r3
 714:.\Generated_Source\PSoC5/PWM_Back_1.c ****     }
 504              		.loc 1 714 0
 505 000a 1846     		mov	r0, r3
 506 000c BD46     		mov	sp, r7
 507              		.cfi_def_cfa_register 13
 508              		@ sp needed
 509 000e 5DF8047B 		ldr	r7, [sp], #4
 510              		.cfi_restore 7
 511              		.cfi_def_cfa_offset 0
 512 0012 7047     		bx	lr
 513              	.L36:
 514              		.align	2
 515              	.L35:
 516 0014 6B640040 		.word	1073767531
 517              		.cfi_endproc
 518              	.LFE10:
 519              		.size	PWM_Back_1_ReadStatusRegister, .-PWM_Back_1_ReadStatusRegister
 520              		.section	.text.PWM_Back_1_ReadControlRegister,"ax",%progbits
 521              		.align	2
 522              		.global	PWM_Back_1_ReadControlRegister
 523              		.thumb
 524              		.thumb_func
 525              		.type	PWM_Back_1_ReadControlRegister, %function
 526              	PWM_Back_1_ReadControlRegister:
 527              	.LFB11:
 715:.\Generated_Source\PSoC5/PWM_Back_1.c **** 
 716:.\Generated_Source\PSoC5/PWM_Back_1.c **** #endif /* (PWM_Back_1_UseStatus || PWM_Back_1_UsingFixedFunction) */
 717:.\Generated_Source\PSoC5/PWM_Back_1.c **** 
 718:.\Generated_Source\PSoC5/PWM_Back_1.c **** 
 719:.\Generated_Source\PSoC5/PWM_Back_1.c **** #if (PWM_Back_1_UseControl)
 720:.\Generated_Source\PSoC5/PWM_Back_1.c **** 
 721:.\Generated_Source\PSoC5/PWM_Back_1.c **** 
 722:.\Generated_Source\PSoC5/PWM_Back_1.c ****     /*******************************************************************************
 723:.\Generated_Source\PSoC5/PWM_Back_1.c ****     * Function Name: PWM_Back_1_ReadControlRegister
 724:.\Generated_Source\PSoC5/PWM_Back_1.c ****     ********************************************************************************
 725:.\Generated_Source\PSoC5/PWM_Back_1.c ****     *
 726:.\Generated_Source\PSoC5/PWM_Back_1.c ****     * Summary:
ARM GAS  C:\Users\Shiguruy\AppData\Local\Temp\ccePG2uD.s 			page 23


 727:.\Generated_Source\PSoC5/PWM_Back_1.c ****     *  Returns the current state of the control register. This API is available
 728:.\Generated_Source\PSoC5/PWM_Back_1.c ****     *  only if the control register is not removed.
 729:.\Generated_Source\PSoC5/PWM_Back_1.c ****     *
 730:.\Generated_Source\PSoC5/PWM_Back_1.c ****     * Parameters:
 731:.\Generated_Source\PSoC5/PWM_Back_1.c ****     *  None
 732:.\Generated_Source\PSoC5/PWM_Back_1.c ****     *
 733:.\Generated_Source\PSoC5/PWM_Back_1.c ****     * Return:
 734:.\Generated_Source\PSoC5/PWM_Back_1.c ****     *  uint8 : Current control register value
 735:.\Generated_Source\PSoC5/PWM_Back_1.c ****     *
 736:.\Generated_Source\PSoC5/PWM_Back_1.c ****     *******************************************************************************/
 737:.\Generated_Source\PSoC5/PWM_Back_1.c ****     uint8 PWM_Back_1_ReadControlRegister(void) 
 738:.\Generated_Source\PSoC5/PWM_Back_1.c ****     {
 528              		.loc 1 738 0
 529              		.cfi_startproc
 530              		@ args = 0, pretend = 0, frame = 8
 531              		@ frame_needed = 1, uses_anonymous_args = 0
 532              		@ link register save eliminated.
 533 0000 80B4     		push	{r7}
 534              		.cfi_def_cfa_offset 4
 535              		.cfi_offset 7, -4
 536 0002 83B0     		sub	sp, sp, #12
 537              		.cfi_def_cfa_offset 16
 538 0004 00AF     		add	r7, sp, #0
 539              		.cfi_def_cfa_register 7
 739:.\Generated_Source\PSoC5/PWM_Back_1.c ****         uint8 result;
 740:.\Generated_Source\PSoC5/PWM_Back_1.c **** 
 741:.\Generated_Source\PSoC5/PWM_Back_1.c ****         result = CY_GET_REG8(PWM_Back_1_CONTROL_PTR);
 540              		.loc 1 741 0
 541 0006 054B     		ldr	r3, .L39
 542 0008 1B78     		ldrb	r3, [r3]
 543 000a FB71     		strb	r3, [r7, #7]
 742:.\Generated_Source\PSoC5/PWM_Back_1.c ****         return (result);
 544              		.loc 1 742 0
 545 000c FB79     		ldrb	r3, [r7, #7]	@ zero_extendqisi2
 743:.\Generated_Source\PSoC5/PWM_Back_1.c ****     }
 546              		.loc 1 743 0
 547 000e 1846     		mov	r0, r3
 548 0010 0C37     		adds	r7, r7, #12
 549              		.cfi_def_cfa_offset 4
 550 0012 BD46     		mov	sp, r7
 551              		.cfi_def_cfa_register 13
 552              		@ sp needed
 553 0014 5DF8047B 		ldr	r7, [sp], #4
 554              		.cfi_restore 7
 555              		.cfi_def_cfa_offset 0
 556 0018 7047     		bx	lr
 557              	.L40:
 558 001a 00BF     		.align	2
 559              	.L39:
 560 001c 74640040 		.word	1073767540
 561              		.cfi_endproc
 562              	.LFE11:
 563              		.size	PWM_Back_1_ReadControlRegister, .-PWM_Back_1_ReadControlRegister
 564              		.section	.text.PWM_Back_1_WriteControlRegister,"ax",%progbits
 565              		.align	2
 566              		.global	PWM_Back_1_WriteControlRegister
 567              		.thumb
ARM GAS  C:\Users\Shiguruy\AppData\Local\Temp\ccePG2uD.s 			page 24


 568              		.thumb_func
 569              		.type	PWM_Back_1_WriteControlRegister, %function
 570              	PWM_Back_1_WriteControlRegister:
 571              	.LFB12:
 744:.\Generated_Source\PSoC5/PWM_Back_1.c **** 
 745:.\Generated_Source\PSoC5/PWM_Back_1.c **** 
 746:.\Generated_Source\PSoC5/PWM_Back_1.c ****     /*******************************************************************************
 747:.\Generated_Source\PSoC5/PWM_Back_1.c ****     * Function Name: PWM_Back_1_WriteControlRegister
 748:.\Generated_Source\PSoC5/PWM_Back_1.c ****     ********************************************************************************
 749:.\Generated_Source\PSoC5/PWM_Back_1.c ****     *
 750:.\Generated_Source\PSoC5/PWM_Back_1.c ****     * Summary:
 751:.\Generated_Source\PSoC5/PWM_Back_1.c ****     *  Sets the bit field of the control register. This API is available only if
 752:.\Generated_Source\PSoC5/PWM_Back_1.c ****     *  the control register is not removed.
 753:.\Generated_Source\PSoC5/PWM_Back_1.c ****     *
 754:.\Generated_Source\PSoC5/PWM_Back_1.c ****     * Parameters:
 755:.\Generated_Source\PSoC5/PWM_Back_1.c ****     *  uint8 control: Control register bit field, The status register bits are:
 756:.\Generated_Source\PSoC5/PWM_Back_1.c ****     *  [7]   : PWM Enable
 757:.\Generated_Source\PSoC5/PWM_Back_1.c ****     *  [6]   : Reset
 758:.\Generated_Source\PSoC5/PWM_Back_1.c ****     *  [5:3] : Compare Mode2
 759:.\Generated_Source\PSoC5/PWM_Back_1.c ****     *  [2:0] : Compare Mode2
 760:.\Generated_Source\PSoC5/PWM_Back_1.c ****     *
 761:.\Generated_Source\PSoC5/PWM_Back_1.c ****     * Return:
 762:.\Generated_Source\PSoC5/PWM_Back_1.c ****     *  None
 763:.\Generated_Source\PSoC5/PWM_Back_1.c ****     *
 764:.\Generated_Source\PSoC5/PWM_Back_1.c ****     *******************************************************************************/
 765:.\Generated_Source\PSoC5/PWM_Back_1.c ****     void PWM_Back_1_WriteControlRegister(uint8 control) 
 766:.\Generated_Source\PSoC5/PWM_Back_1.c ****     {
 572              		.loc 1 766 0
 573              		.cfi_startproc
 574              		@ args = 0, pretend = 0, frame = 8
 575              		@ frame_needed = 1, uses_anonymous_args = 0
 576              		@ link register save eliminated.
 577 0000 80B4     		push	{r7}
 578              		.cfi_def_cfa_offset 4
 579              		.cfi_offset 7, -4
 580 0002 83B0     		sub	sp, sp, #12
 581              		.cfi_def_cfa_offset 16
 582 0004 00AF     		add	r7, sp, #0
 583              		.cfi_def_cfa_register 7
 584 0006 0346     		mov	r3, r0
 585 0008 FB71     		strb	r3, [r7, #7]
 767:.\Generated_Source\PSoC5/PWM_Back_1.c ****         CY_SET_REG8(PWM_Back_1_CONTROL_PTR, control);
 586              		.loc 1 767 0
 587 000a 044A     		ldr	r2, .L42
 588 000c FB79     		ldrb	r3, [r7, #7]
 589 000e 1370     		strb	r3, [r2]
 768:.\Generated_Source\PSoC5/PWM_Back_1.c ****     }
 590              		.loc 1 768 0
 591 0010 0C37     		adds	r7, r7, #12
 592              		.cfi_def_cfa_offset 4
 593 0012 BD46     		mov	sp, r7
 594              		.cfi_def_cfa_register 13
 595              		@ sp needed
 596 0014 5DF8047B 		ldr	r7, [sp], #4
 597              		.cfi_restore 7
 598              		.cfi_def_cfa_offset 0
 599 0018 7047     		bx	lr
ARM GAS  C:\Users\Shiguruy\AppData\Local\Temp\ccePG2uD.s 			page 25


 600              	.L43:
 601 001a 00BF     		.align	2
 602              	.L42:
 603 001c 74640040 		.word	1073767540
 604              		.cfi_endproc
 605              	.LFE12:
 606              		.size	PWM_Back_1_WriteControlRegister, .-PWM_Back_1_WriteControlRegister
 607              		.section	.text.PWM_Back_1_ReadCapture,"ax",%progbits
 608              		.align	2
 609              		.global	PWM_Back_1_ReadCapture
 610              		.thumb
 611              		.thumb_func
 612              		.type	PWM_Back_1_ReadCapture, %function
 613              	PWM_Back_1_ReadCapture:
 614              	.LFB13:
 769:.\Generated_Source\PSoC5/PWM_Back_1.c **** 
 770:.\Generated_Source\PSoC5/PWM_Back_1.c **** #endif /* (PWM_Back_1_UseControl) */
 771:.\Generated_Source\PSoC5/PWM_Back_1.c **** 
 772:.\Generated_Source\PSoC5/PWM_Back_1.c **** 
 773:.\Generated_Source\PSoC5/PWM_Back_1.c **** #if (!PWM_Back_1_UsingFixedFunction)
 774:.\Generated_Source\PSoC5/PWM_Back_1.c **** 
 775:.\Generated_Source\PSoC5/PWM_Back_1.c **** 
 776:.\Generated_Source\PSoC5/PWM_Back_1.c ****     /*******************************************************************************
 777:.\Generated_Source\PSoC5/PWM_Back_1.c ****     * Function Name: PWM_Back_1_ReadCapture
 778:.\Generated_Source\PSoC5/PWM_Back_1.c ****     ********************************************************************************
 779:.\Generated_Source\PSoC5/PWM_Back_1.c ****     *
 780:.\Generated_Source\PSoC5/PWM_Back_1.c ****     * Summary:
 781:.\Generated_Source\PSoC5/PWM_Back_1.c ****     *  Reads the capture value from the capture FIFO.
 782:.\Generated_Source\PSoC5/PWM_Back_1.c ****     *
 783:.\Generated_Source\PSoC5/PWM_Back_1.c ****     * Parameters:
 784:.\Generated_Source\PSoC5/PWM_Back_1.c ****     *  None
 785:.\Generated_Source\PSoC5/PWM_Back_1.c ****     *
 786:.\Generated_Source\PSoC5/PWM_Back_1.c ****     * Return:
 787:.\Generated_Source\PSoC5/PWM_Back_1.c ****     *  uint8/uint16: The current capture value
 788:.\Generated_Source\PSoC5/PWM_Back_1.c ****     *
 789:.\Generated_Source\PSoC5/PWM_Back_1.c ****     *******************************************************************************/
 790:.\Generated_Source\PSoC5/PWM_Back_1.c ****     uint8 PWM_Back_1_ReadCapture(void) 
 791:.\Generated_Source\PSoC5/PWM_Back_1.c ****     {
 615              		.loc 1 791 0
 616              		.cfi_startproc
 617              		@ args = 0, pretend = 0, frame = 0
 618              		@ frame_needed = 1, uses_anonymous_args = 0
 619              		@ link register save eliminated.
 620 0000 80B4     		push	{r7}
 621              		.cfi_def_cfa_offset 4
 622              		.cfi_offset 7, -4
 623 0002 00AF     		add	r7, sp, #0
 624              		.cfi_def_cfa_register 7
 792:.\Generated_Source\PSoC5/PWM_Back_1.c ****         return (CY_GET_REG8(PWM_Back_1_CAPTURE_LSB_PTR));
 625              		.loc 1 792 0
 626 0004 034B     		ldr	r3, .L46
 627 0006 1B78     		ldrb	r3, [r3]
 628 0008 DBB2     		uxtb	r3, r3
 793:.\Generated_Source\PSoC5/PWM_Back_1.c ****     }
 629              		.loc 1 793 0
 630 000a 1846     		mov	r0, r3
 631 000c BD46     		mov	sp, r7
ARM GAS  C:\Users\Shiguruy\AppData\Local\Temp\ccePG2uD.s 			page 26


 632              		.cfi_def_cfa_register 13
 633              		@ sp needed
 634 000e 5DF8047B 		ldr	r7, [sp], #4
 635              		.cfi_restore 7
 636              		.cfi_def_cfa_offset 0
 637 0012 7047     		bx	lr
 638              	.L47:
 639              		.align	2
 640              	.L46:
 641 0014 5B640040 		.word	1073767515
 642              		.cfi_endproc
 643              	.LFE13:
 644              		.size	PWM_Back_1_ReadCapture, .-PWM_Back_1_ReadCapture
 645              		.section	.text.PWM_Back_1_ReadCompare,"ax",%progbits
 646              		.align	2
 647              		.global	PWM_Back_1_ReadCompare
 648              		.thumb
 649              		.thumb_func
 650              		.type	PWM_Back_1_ReadCompare, %function
 651              	PWM_Back_1_ReadCompare:
 652              	.LFB14:
 794:.\Generated_Source\PSoC5/PWM_Back_1.c **** 
 795:.\Generated_Source\PSoC5/PWM_Back_1.c **** #endif /* (!PWM_Back_1_UsingFixedFunction) */
 796:.\Generated_Source\PSoC5/PWM_Back_1.c **** 
 797:.\Generated_Source\PSoC5/PWM_Back_1.c **** 
 798:.\Generated_Source\PSoC5/PWM_Back_1.c **** #if (PWM_Back_1_UseOneCompareMode)
 799:.\Generated_Source\PSoC5/PWM_Back_1.c **** 
 800:.\Generated_Source\PSoC5/PWM_Back_1.c **** 
 801:.\Generated_Source\PSoC5/PWM_Back_1.c ****     /*******************************************************************************
 802:.\Generated_Source\PSoC5/PWM_Back_1.c ****     * Function Name: PWM_Back_1_ReadCompare
 803:.\Generated_Source\PSoC5/PWM_Back_1.c ****     ********************************************************************************
 804:.\Generated_Source\PSoC5/PWM_Back_1.c ****     *
 805:.\Generated_Source\PSoC5/PWM_Back_1.c ****     * Summary:
 806:.\Generated_Source\PSoC5/PWM_Back_1.c ****     *  Reads the compare value for the compare output when the PWM Mode parameter is
 807:.\Generated_Source\PSoC5/PWM_Back_1.c ****     *  set to Dither mode, Center Aligned mode, or One Output mode.
 808:.\Generated_Source\PSoC5/PWM_Back_1.c ****     *
 809:.\Generated_Source\PSoC5/PWM_Back_1.c ****     * Parameters:
 810:.\Generated_Source\PSoC5/PWM_Back_1.c ****     *  None
 811:.\Generated_Source\PSoC5/PWM_Back_1.c ****     *
 812:.\Generated_Source\PSoC5/PWM_Back_1.c ****     * Return:
 813:.\Generated_Source\PSoC5/PWM_Back_1.c ****     *  uint8/uint16: Current compare value
 814:.\Generated_Source\PSoC5/PWM_Back_1.c ****     *
 815:.\Generated_Source\PSoC5/PWM_Back_1.c ****     *******************************************************************************/
 816:.\Generated_Source\PSoC5/PWM_Back_1.c ****     uint8 PWM_Back_1_ReadCompare(void) 
 817:.\Generated_Source\PSoC5/PWM_Back_1.c ****     {
 653              		.loc 1 817 0
 654              		.cfi_startproc
 655              		@ args = 0, pretend = 0, frame = 0
 656              		@ frame_needed = 1, uses_anonymous_args = 0
 657              		@ link register save eliminated.
 658 0000 80B4     		push	{r7}
 659              		.cfi_def_cfa_offset 4
 660              		.cfi_offset 7, -4
 661 0002 00AF     		add	r7, sp, #0
 662              		.cfi_def_cfa_register 7
 818:.\Generated_Source\PSoC5/PWM_Back_1.c ****         #if(PWM_Back_1_UsingFixedFunction)
 819:.\Generated_Source\PSoC5/PWM_Back_1.c ****             return ((uint8)CY_GET_REG16(PWM_Back_1_COMPARE1_LSB_PTR));
ARM GAS  C:\Users\Shiguruy\AppData\Local\Temp\ccePG2uD.s 			page 27


 820:.\Generated_Source\PSoC5/PWM_Back_1.c ****         #else
 821:.\Generated_Source\PSoC5/PWM_Back_1.c ****             return (CY_GET_REG8(PWM_Back_1_COMPARE1_LSB_PTR));
 663              		.loc 1 821 0
 664 0004 034B     		ldr	r3, .L50
 665 0006 1B78     		ldrb	r3, [r3]
 666 0008 DBB2     		uxtb	r3, r3
 822:.\Generated_Source\PSoC5/PWM_Back_1.c ****         #endif /* (PWM_Back_1_UsingFixedFunction) */
 823:.\Generated_Source\PSoC5/PWM_Back_1.c ****     }
 667              		.loc 1 823 0
 668 000a 1846     		mov	r0, r3
 669 000c BD46     		mov	sp, r7
 670              		.cfi_def_cfa_register 13
 671              		@ sp needed
 672 000e 5DF8047B 		ldr	r7, [sp], #4
 673              		.cfi_restore 7
 674              		.cfi_def_cfa_offset 0
 675 0012 7047     		bx	lr
 676              	.L51:
 677              		.align	2
 678              	.L50:
 679 0014 2B640040 		.word	1073767467
 680              		.cfi_endproc
 681              	.LFE14:
 682              		.size	PWM_Back_1_ReadCompare, .-PWM_Back_1_ReadCompare
 683              		.section	.text.PWM_Back_1_ReadPeriod,"ax",%progbits
 684              		.align	2
 685              		.global	PWM_Back_1_ReadPeriod
 686              		.thumb
 687              		.thumb_func
 688              		.type	PWM_Back_1_ReadPeriod, %function
 689              	PWM_Back_1_ReadPeriod:
 690              	.LFB15:
 824:.\Generated_Source\PSoC5/PWM_Back_1.c **** 
 825:.\Generated_Source\PSoC5/PWM_Back_1.c **** #else
 826:.\Generated_Source\PSoC5/PWM_Back_1.c **** 
 827:.\Generated_Source\PSoC5/PWM_Back_1.c **** 
 828:.\Generated_Source\PSoC5/PWM_Back_1.c ****     /*******************************************************************************
 829:.\Generated_Source\PSoC5/PWM_Back_1.c ****     * Function Name: PWM_Back_1_ReadCompare1
 830:.\Generated_Source\PSoC5/PWM_Back_1.c ****     ********************************************************************************
 831:.\Generated_Source\PSoC5/PWM_Back_1.c ****     *
 832:.\Generated_Source\PSoC5/PWM_Back_1.c ****     * Summary:
 833:.\Generated_Source\PSoC5/PWM_Back_1.c ****     *  Reads the compare value for the compare1 output.
 834:.\Generated_Source\PSoC5/PWM_Back_1.c ****     *
 835:.\Generated_Source\PSoC5/PWM_Back_1.c ****     * Parameters:
 836:.\Generated_Source\PSoC5/PWM_Back_1.c ****     *  None
 837:.\Generated_Source\PSoC5/PWM_Back_1.c ****     *
 838:.\Generated_Source\PSoC5/PWM_Back_1.c ****     * Return:
 839:.\Generated_Source\PSoC5/PWM_Back_1.c ****     *  uint8/uint16: Current compare value.
 840:.\Generated_Source\PSoC5/PWM_Back_1.c ****     *
 841:.\Generated_Source\PSoC5/PWM_Back_1.c ****     *******************************************************************************/
 842:.\Generated_Source\PSoC5/PWM_Back_1.c ****     uint8 PWM_Back_1_ReadCompare1(void) 
 843:.\Generated_Source\PSoC5/PWM_Back_1.c ****     {
 844:.\Generated_Source\PSoC5/PWM_Back_1.c ****         return (CY_GET_REG8(PWM_Back_1_COMPARE1_LSB_PTR));
 845:.\Generated_Source\PSoC5/PWM_Back_1.c ****     }
 846:.\Generated_Source\PSoC5/PWM_Back_1.c **** 
 847:.\Generated_Source\PSoC5/PWM_Back_1.c **** 
 848:.\Generated_Source\PSoC5/PWM_Back_1.c ****     /*******************************************************************************
ARM GAS  C:\Users\Shiguruy\AppData\Local\Temp\ccePG2uD.s 			page 28


 849:.\Generated_Source\PSoC5/PWM_Back_1.c ****     * Function Name: PWM_Back_1_ReadCompare2
 850:.\Generated_Source\PSoC5/PWM_Back_1.c ****     ********************************************************************************
 851:.\Generated_Source\PSoC5/PWM_Back_1.c ****     *
 852:.\Generated_Source\PSoC5/PWM_Back_1.c ****     * Summary:
 853:.\Generated_Source\PSoC5/PWM_Back_1.c ****     *  Reads the compare value for the compare2 output.
 854:.\Generated_Source\PSoC5/PWM_Back_1.c ****     *
 855:.\Generated_Source\PSoC5/PWM_Back_1.c ****     * Parameters:
 856:.\Generated_Source\PSoC5/PWM_Back_1.c ****     *  None
 857:.\Generated_Source\PSoC5/PWM_Back_1.c ****     *
 858:.\Generated_Source\PSoC5/PWM_Back_1.c ****     * Return:
 859:.\Generated_Source\PSoC5/PWM_Back_1.c ****     *  uint8/uint16: Current compare value.
 860:.\Generated_Source\PSoC5/PWM_Back_1.c ****     *
 861:.\Generated_Source\PSoC5/PWM_Back_1.c ****     *******************************************************************************/
 862:.\Generated_Source\PSoC5/PWM_Back_1.c ****     uint8 PWM_Back_1_ReadCompare2(void) 
 863:.\Generated_Source\PSoC5/PWM_Back_1.c ****     {
 864:.\Generated_Source\PSoC5/PWM_Back_1.c ****         return (CY_GET_REG8(PWM_Back_1_COMPARE2_LSB_PTR));
 865:.\Generated_Source\PSoC5/PWM_Back_1.c ****     }
 866:.\Generated_Source\PSoC5/PWM_Back_1.c **** 
 867:.\Generated_Source\PSoC5/PWM_Back_1.c **** #endif /* (PWM_Back_1_UseOneCompareMode) */
 868:.\Generated_Source\PSoC5/PWM_Back_1.c **** 
 869:.\Generated_Source\PSoC5/PWM_Back_1.c **** 
 870:.\Generated_Source\PSoC5/PWM_Back_1.c **** /*******************************************************************************
 871:.\Generated_Source\PSoC5/PWM_Back_1.c **** * Function Name: PWM_Back_1_ReadPeriod
 872:.\Generated_Source\PSoC5/PWM_Back_1.c **** ********************************************************************************
 873:.\Generated_Source\PSoC5/PWM_Back_1.c **** *
 874:.\Generated_Source\PSoC5/PWM_Back_1.c **** * Summary:
 875:.\Generated_Source\PSoC5/PWM_Back_1.c **** *  Reads the period value used by the PWM hardware.
 876:.\Generated_Source\PSoC5/PWM_Back_1.c **** *
 877:.\Generated_Source\PSoC5/PWM_Back_1.c **** * Parameters:
 878:.\Generated_Source\PSoC5/PWM_Back_1.c **** *  None
 879:.\Generated_Source\PSoC5/PWM_Back_1.c **** *
 880:.\Generated_Source\PSoC5/PWM_Back_1.c **** * Return:
 881:.\Generated_Source\PSoC5/PWM_Back_1.c **** *  uint8/16: Period value
 882:.\Generated_Source\PSoC5/PWM_Back_1.c **** *
 883:.\Generated_Source\PSoC5/PWM_Back_1.c **** *******************************************************************************/
 884:.\Generated_Source\PSoC5/PWM_Back_1.c **** uint8 PWM_Back_1_ReadPeriod(void) 
 885:.\Generated_Source\PSoC5/PWM_Back_1.c **** {
 691              		.loc 1 885 0
 692              		.cfi_startproc
 693              		@ args = 0, pretend = 0, frame = 0
 694              		@ frame_needed = 1, uses_anonymous_args = 0
 695              		@ link register save eliminated.
 696 0000 80B4     		push	{r7}
 697              		.cfi_def_cfa_offset 4
 698              		.cfi_offset 7, -4
 699 0002 00AF     		add	r7, sp, #0
 700              		.cfi_def_cfa_register 7
 886:.\Generated_Source\PSoC5/PWM_Back_1.c ****     #if(PWM_Back_1_UsingFixedFunction)
 887:.\Generated_Source\PSoC5/PWM_Back_1.c ****         return ((uint8)CY_GET_REG16(PWM_Back_1_PERIOD_LSB_PTR));
 888:.\Generated_Source\PSoC5/PWM_Back_1.c ****     #else
 889:.\Generated_Source\PSoC5/PWM_Back_1.c ****         return (CY_GET_REG8(PWM_Back_1_PERIOD_LSB_PTR));
 701              		.loc 1 889 0
 702 0004 034B     		ldr	r3, .L54
 703 0006 1B78     		ldrb	r3, [r3]
 704 0008 DBB2     		uxtb	r3, r3
 890:.\Generated_Source\PSoC5/PWM_Back_1.c ****     #endif /* (PWM_Back_1_UsingFixedFunction) */
 891:.\Generated_Source\PSoC5/PWM_Back_1.c **** }
ARM GAS  C:\Users\Shiguruy\AppData\Local\Temp\ccePG2uD.s 			page 29


 705              		.loc 1 891 0
 706 000a 1846     		mov	r0, r3
 707 000c BD46     		mov	sp, r7
 708              		.cfi_def_cfa_register 13
 709              		@ sp needed
 710 000e 5DF8047B 		ldr	r7, [sp], #4
 711              		.cfi_restore 7
 712              		.cfi_def_cfa_offset 0
 713 0012 7047     		bx	lr
 714              	.L55:
 715              		.align	2
 716              	.L54:
 717 0014 4B640040 		.word	1073767499
 718              		.cfi_endproc
 719              	.LFE15:
 720              		.size	PWM_Back_1_ReadPeriod, .-PWM_Back_1_ReadPeriod
 721              		.text
 722              	.Letext0:
 723              		.file 2 ".\\Generated_Source\\PSoC5\\cytypes.h"