ARM GAS  C:\Users\KJA\AppData\Local\Temp\ccc2JwxF.s 			page 1


   1              		.syntax unified
   2              		.cpu cortex-m3
   3              		.fpu softvfp
   4              		.eabi_attribute 20, 1
   5              		.eabi_attribute 21, 1
   6              		.eabi_attribute 23, 3
   7              		.eabi_attribute 24, 1
   8              		.eabi_attribute 25, 1
   9              		.eabi_attribute 26, 1
  10              		.eabi_attribute 30, 6
  11              		.eabi_attribute 34, 1
  12              		.eabi_attribute 18, 4
  13              		.thumb
  14              		.file	"PWM_Fan.c"
  15              		.text
  16              	.Ltext0:
  17              		.cfi_sections	.debug_frame
  18              		.global	PWM_Fan_initVar
  19              		.bss
  20              		.type	PWM_Fan_initVar, %object
  21              		.size	PWM_Fan_initVar, 1
  22              	PWM_Fan_initVar:
  23 0000 00       		.space	1
  24              		.section	.text.PWM_Fan_Start,"ax",%progbits
  25              		.align	2
  26              		.global	PWM_Fan_Start
  27              		.thumb
  28              		.thumb_func
  29              		.type	PWM_Fan_Start, %function
  30              	PWM_Fan_Start:
  31              	.LFB0:
  32              		.file 1 "Generated_Source\\PSoC5\\PWM_Fan.c"
   1:Generated_Source\PSoC5/PWM_Fan.c **** /*******************************************************************************
   2:Generated_Source\PSoC5/PWM_Fan.c **** * File Name: PWM_Fan.c
   3:Generated_Source\PSoC5/PWM_Fan.c **** * Version 3.30
   4:Generated_Source\PSoC5/PWM_Fan.c **** *
   5:Generated_Source\PSoC5/PWM_Fan.c **** * Description:
   6:Generated_Source\PSoC5/PWM_Fan.c **** *  The PWM User Module consist of an 8 or 16-bit counter with two 8 or 16-bit
   7:Generated_Source\PSoC5/PWM_Fan.c **** *  comparitors. Each instance of this user module is capable of generating
   8:Generated_Source\PSoC5/PWM_Fan.c **** *  two PWM outputs with the same period. The pulse width is selectable between
   9:Generated_Source\PSoC5/PWM_Fan.c **** *  1 and 255/65535. The period is selectable between 2 and 255/65536 clocks.
  10:Generated_Source\PSoC5/PWM_Fan.c **** *  The compare value output may be configured to be active when the present
  11:Generated_Source\PSoC5/PWM_Fan.c **** *  counter is less than or less than/equal to the compare value.
  12:Generated_Source\PSoC5/PWM_Fan.c **** *  A terminal count output is also provided. It generates a pulse one clock
  13:Generated_Source\PSoC5/PWM_Fan.c **** *  width wide when the counter is equal to zero.
  14:Generated_Source\PSoC5/PWM_Fan.c **** *
  15:Generated_Source\PSoC5/PWM_Fan.c **** * Note:
  16:Generated_Source\PSoC5/PWM_Fan.c **** *
  17:Generated_Source\PSoC5/PWM_Fan.c **** *******************************************************************************
  18:Generated_Source\PSoC5/PWM_Fan.c **** * Copyright 2008-2014, Cypress Semiconductor Corporation.  All rights reserved.
  19:Generated_Source\PSoC5/PWM_Fan.c **** * You may use this file only in accordance with the license, terms, conditions,
  20:Generated_Source\PSoC5/PWM_Fan.c **** * disclaimers, and limitations in the end user license agreement accompanying
  21:Generated_Source\PSoC5/PWM_Fan.c **** * the software package with which this file was provided.
  22:Generated_Source\PSoC5/PWM_Fan.c **** ********************************************************************************/
  23:Generated_Source\PSoC5/PWM_Fan.c **** 
  24:Generated_Source\PSoC5/PWM_Fan.c **** #include "PWM_Fan.h"
  25:Generated_Source\PSoC5/PWM_Fan.c **** 
ARM GAS  C:\Users\KJA\AppData\Local\Temp\ccc2JwxF.s 			page 2


  26:Generated_Source\PSoC5/PWM_Fan.c **** /* Error message for removed <resource> through optimization */
  27:Generated_Source\PSoC5/PWM_Fan.c **** #ifdef PWM_Fan_PWMUDB_genblk1_ctrlreg__REMOVED
  28:Generated_Source\PSoC5/PWM_Fan.c ****     #error PWM_v3_30 detected with a constant 0 for the enable or \
  29:Generated_Source\PSoC5/PWM_Fan.c ****          constant 1 for reset. This will prevent the component from operating.
  30:Generated_Source\PSoC5/PWM_Fan.c **** #endif /* PWM_Fan_PWMUDB_genblk1_ctrlreg__REMOVED */
  31:Generated_Source\PSoC5/PWM_Fan.c **** 
  32:Generated_Source\PSoC5/PWM_Fan.c **** uint8 PWM_Fan_initVar = 0u;
  33:Generated_Source\PSoC5/PWM_Fan.c **** 
  34:Generated_Source\PSoC5/PWM_Fan.c **** 
  35:Generated_Source\PSoC5/PWM_Fan.c **** /*******************************************************************************
  36:Generated_Source\PSoC5/PWM_Fan.c **** * Function Name: PWM_Fan_Start
  37:Generated_Source\PSoC5/PWM_Fan.c **** ********************************************************************************
  38:Generated_Source\PSoC5/PWM_Fan.c **** *
  39:Generated_Source\PSoC5/PWM_Fan.c **** * Summary:
  40:Generated_Source\PSoC5/PWM_Fan.c **** *  The start function initializes the pwm with the default values, the
  41:Generated_Source\PSoC5/PWM_Fan.c **** *  enables the counter to begin counting.  It does not enable interrupts,
  42:Generated_Source\PSoC5/PWM_Fan.c **** *  the EnableInt command should be called if interrupt generation is required.
  43:Generated_Source\PSoC5/PWM_Fan.c **** *
  44:Generated_Source\PSoC5/PWM_Fan.c **** * Parameters:
  45:Generated_Source\PSoC5/PWM_Fan.c **** *  None
  46:Generated_Source\PSoC5/PWM_Fan.c **** *
  47:Generated_Source\PSoC5/PWM_Fan.c **** * Return:
  48:Generated_Source\PSoC5/PWM_Fan.c **** *  None
  49:Generated_Source\PSoC5/PWM_Fan.c **** *
  50:Generated_Source\PSoC5/PWM_Fan.c **** * Global variables:
  51:Generated_Source\PSoC5/PWM_Fan.c **** *  PWM_Fan_initVar: Is modified when this function is called for the
  52:Generated_Source\PSoC5/PWM_Fan.c **** *   first time. Is used to ensure that initialization happens only once.
  53:Generated_Source\PSoC5/PWM_Fan.c **** *
  54:Generated_Source\PSoC5/PWM_Fan.c **** *******************************************************************************/
  55:Generated_Source\PSoC5/PWM_Fan.c **** void PWM_Fan_Start(void) 
  56:Generated_Source\PSoC5/PWM_Fan.c **** {
  33              		.loc 1 56 0
  34              		.cfi_startproc
  35              		@ args = 0, pretend = 0, frame = 0
  36              		@ frame_needed = 1, uses_anonymous_args = 0
  37 0000 80B5     		push	{r7, lr}
  38              		.cfi_def_cfa_offset 8
  39              		.cfi_offset 7, -8
  40              		.cfi_offset 14, -4
  41 0002 00AF     		add	r7, sp, #0
  42              		.cfi_def_cfa_register 7
  57:Generated_Source\PSoC5/PWM_Fan.c ****     /* If not Initialized then initialize all required hardware and software */
  58:Generated_Source\PSoC5/PWM_Fan.c ****     if(PWM_Fan_initVar == 0u)
  43              		.loc 1 58 0
  44 0004 054B     		ldr	r3, .L3
  45 0006 1B78     		ldrb	r3, [r3]	@ zero_extendqisi2
  46 0008 002B     		cmp	r3, #0
  47 000a 04D1     		bne	.L2
  59:Generated_Source\PSoC5/PWM_Fan.c ****     {
  60:Generated_Source\PSoC5/PWM_Fan.c ****         PWM_Fan_Init();
  48              		.loc 1 60 0
  49 000c FFF7FEFF 		bl	PWM_Fan_Init
  61:Generated_Source\PSoC5/PWM_Fan.c ****         PWM_Fan_initVar = 1u;
  50              		.loc 1 61 0
  51 0010 024B     		ldr	r3, .L3
  52 0012 0122     		movs	r2, #1
  53 0014 1A70     		strb	r2, [r3]
ARM GAS  C:\Users\KJA\AppData\Local\Temp\ccc2JwxF.s 			page 3


  54              	.L2:
  62:Generated_Source\PSoC5/PWM_Fan.c ****     }
  63:Generated_Source\PSoC5/PWM_Fan.c ****     PWM_Fan_Enable();
  55              		.loc 1 63 0
  56 0016 FFF7FEFF 		bl	PWM_Fan_Enable
  64:Generated_Source\PSoC5/PWM_Fan.c **** 
  65:Generated_Source\PSoC5/PWM_Fan.c **** }
  57              		.loc 1 65 0
  58 001a 80BD     		pop	{r7, pc}
  59              	.L4:
  60              		.align	2
  61              	.L3:
  62 001c 00000000 		.word	PWM_Fan_initVar
  63              		.cfi_endproc
  64              	.LFE0:
  65              		.size	PWM_Fan_Start, .-PWM_Fan_Start
  66              		.section	.text.PWM_Fan_Init,"ax",%progbits
  67              		.align	2
  68              		.global	PWM_Fan_Init
  69              		.thumb
  70              		.thumb_func
  71              		.type	PWM_Fan_Init, %function
  72              	PWM_Fan_Init:
  73              	.LFB1:
  66:Generated_Source\PSoC5/PWM_Fan.c **** 
  67:Generated_Source\PSoC5/PWM_Fan.c **** 
  68:Generated_Source\PSoC5/PWM_Fan.c **** /*******************************************************************************
  69:Generated_Source\PSoC5/PWM_Fan.c **** * Function Name: PWM_Fan_Init
  70:Generated_Source\PSoC5/PWM_Fan.c **** ********************************************************************************
  71:Generated_Source\PSoC5/PWM_Fan.c **** *
  72:Generated_Source\PSoC5/PWM_Fan.c **** * Summary:
  73:Generated_Source\PSoC5/PWM_Fan.c **** *  Initialize component's parameters to the parameters set by user in the
  74:Generated_Source\PSoC5/PWM_Fan.c **** *  customizer of the component placed onto schematic. Usually called in
  75:Generated_Source\PSoC5/PWM_Fan.c **** *  PWM_Fan_Start().
  76:Generated_Source\PSoC5/PWM_Fan.c **** *
  77:Generated_Source\PSoC5/PWM_Fan.c **** * Parameters:
  78:Generated_Source\PSoC5/PWM_Fan.c **** *  None
  79:Generated_Source\PSoC5/PWM_Fan.c **** *
  80:Generated_Source\PSoC5/PWM_Fan.c **** * Return:
  81:Generated_Source\PSoC5/PWM_Fan.c **** *  None
  82:Generated_Source\PSoC5/PWM_Fan.c **** *
  83:Generated_Source\PSoC5/PWM_Fan.c **** *******************************************************************************/
  84:Generated_Source\PSoC5/PWM_Fan.c **** void PWM_Fan_Init(void) 
  85:Generated_Source\PSoC5/PWM_Fan.c **** {
  74              		.loc 1 85 0
  75              		.cfi_startproc
  76              		@ args = 0, pretend = 0, frame = 8
  77              		@ frame_needed = 1, uses_anonymous_args = 0
  78 0000 80B5     		push	{r7, lr}
  79              		.cfi_def_cfa_offset 8
  80              		.cfi_offset 7, -8
  81              		.cfi_offset 14, -4
  82 0002 82B0     		sub	sp, sp, #8
  83              		.cfi_def_cfa_offset 16
  84 0004 00AF     		add	r7, sp, #0
  85              		.cfi_def_cfa_register 7
  86:Generated_Source\PSoC5/PWM_Fan.c ****     #if (PWM_Fan_UsingFixedFunction || PWM_Fan_UseControl)
ARM GAS  C:\Users\KJA\AppData\Local\Temp\ccc2JwxF.s 			page 4


  87:Generated_Source\PSoC5/PWM_Fan.c ****         uint8 ctrl;
  88:Generated_Source\PSoC5/PWM_Fan.c ****     #endif /* (PWM_Fan_UsingFixedFunction || PWM_Fan_UseControl) */
  89:Generated_Source\PSoC5/PWM_Fan.c **** 
  90:Generated_Source\PSoC5/PWM_Fan.c ****     #if(!PWM_Fan_UsingFixedFunction)
  91:Generated_Source\PSoC5/PWM_Fan.c ****         #if(PWM_Fan_UseStatus)
  92:Generated_Source\PSoC5/PWM_Fan.c ****             /* Interrupt State Backup for Critical Region*/
  93:Generated_Source\PSoC5/PWM_Fan.c ****             uint8 PWM_Fan_interruptState;
  94:Generated_Source\PSoC5/PWM_Fan.c ****         #endif /* (PWM_Fan_UseStatus) */
  95:Generated_Source\PSoC5/PWM_Fan.c ****     #endif /* (!PWM_Fan_UsingFixedFunction) */
  96:Generated_Source\PSoC5/PWM_Fan.c **** 
  97:Generated_Source\PSoC5/PWM_Fan.c ****     #if (PWM_Fan_UsingFixedFunction)
  98:Generated_Source\PSoC5/PWM_Fan.c ****         /* You are allowed to write the compare value (FF only) */
  99:Generated_Source\PSoC5/PWM_Fan.c ****         PWM_Fan_CONTROL |= PWM_Fan_CFG0_MODE;
 100:Generated_Source\PSoC5/PWM_Fan.c ****         #if (PWM_Fan_DeadBand2_4)
 101:Generated_Source\PSoC5/PWM_Fan.c ****             PWM_Fan_CONTROL |= PWM_Fan_CFG0_DB;
 102:Generated_Source\PSoC5/PWM_Fan.c ****         #endif /* (PWM_Fan_DeadBand2_4) */
 103:Generated_Source\PSoC5/PWM_Fan.c **** 
 104:Generated_Source\PSoC5/PWM_Fan.c ****         ctrl = PWM_Fan_CONTROL3 & ((uint8 )(~PWM_Fan_CTRL_CMPMODE1_MASK));
 105:Generated_Source\PSoC5/PWM_Fan.c ****         PWM_Fan_CONTROL3 = ctrl | PWM_Fan_DEFAULT_COMPARE1_MODE;
 106:Generated_Source\PSoC5/PWM_Fan.c **** 
 107:Generated_Source\PSoC5/PWM_Fan.c ****          /* Clear and Set SYNCTC and SYNCCMP bits of RT1 register */
 108:Generated_Source\PSoC5/PWM_Fan.c ****         PWM_Fan_RT1 &= ((uint8)(~PWM_Fan_RT1_MASK));
 109:Generated_Source\PSoC5/PWM_Fan.c ****         PWM_Fan_RT1 |= PWM_Fan_SYNC;
 110:Generated_Source\PSoC5/PWM_Fan.c **** 
 111:Generated_Source\PSoC5/PWM_Fan.c ****         /*Enable DSI Sync all all inputs of the PWM*/
 112:Generated_Source\PSoC5/PWM_Fan.c ****         PWM_Fan_RT1 &= ((uint8)(~PWM_Fan_SYNCDSI_MASK));
 113:Generated_Source\PSoC5/PWM_Fan.c ****         PWM_Fan_RT1 |= PWM_Fan_SYNCDSI_EN;
 114:Generated_Source\PSoC5/PWM_Fan.c **** 
 115:Generated_Source\PSoC5/PWM_Fan.c ****     #elif (PWM_Fan_UseControl)
 116:Generated_Source\PSoC5/PWM_Fan.c ****         /* Set the default compare mode defined in the parameter */
 117:Generated_Source\PSoC5/PWM_Fan.c ****         ctrl = PWM_Fan_CONTROL & ((uint8)(~PWM_Fan_CTRL_CMPMODE2_MASK)) &
  86              		.loc 1 117 0
  87 0006 104B     		ldr	r3, .L6
  88 0008 1B78     		ldrb	r3, [r3]
  89 000a DBB2     		uxtb	r3, r3
  90 000c 23F03F03 		bic	r3, r3, #63
  91 0010 FB71     		strb	r3, [r7, #7]
 118:Generated_Source\PSoC5/PWM_Fan.c ****                 ((uint8)(~PWM_Fan_CTRL_CMPMODE1_MASK));
 119:Generated_Source\PSoC5/PWM_Fan.c ****         PWM_Fan_CONTROL = ctrl | PWM_Fan_DEFAULT_COMPARE2_MODE |
  92              		.loc 1 119 0
  93 0012 0D4A     		ldr	r2, .L6
  94 0014 FB79     		ldrb	r3, [r7, #7]
  95 0016 43F00903 		orr	r3, r3, #9
  96 001a DBB2     		uxtb	r3, r3
  97 001c 1370     		strb	r3, [r2]
 120:Generated_Source\PSoC5/PWM_Fan.c ****                                    PWM_Fan_DEFAULT_COMPARE1_MODE;
 121:Generated_Source\PSoC5/PWM_Fan.c ****     #endif /* (PWM_Fan_UsingFixedFunction) */
 122:Generated_Source\PSoC5/PWM_Fan.c **** 
 123:Generated_Source\PSoC5/PWM_Fan.c ****     #if (!PWM_Fan_UsingFixedFunction)
 124:Generated_Source\PSoC5/PWM_Fan.c ****         #if (PWM_Fan_Resolution == 8)
 125:Generated_Source\PSoC5/PWM_Fan.c ****             /* Set FIFO 0 to 1 byte register for period*/
 126:Generated_Source\PSoC5/PWM_Fan.c ****             PWM_Fan_AUX_CONTROLDP0 |= (PWM_Fan_AUX_CTRL_FIFO0_CLR);
  98              		.loc 1 126 0
  99 001e 0B4A     		ldr	r2, .L6+4
 100 0020 0A4B     		ldr	r3, .L6+4
 101 0022 1B78     		ldrb	r3, [r3]
 102 0024 DBB2     		uxtb	r3, r3
ARM GAS  C:\Users\KJA\AppData\Local\Temp\ccc2JwxF.s 			page 5


 103 0026 43F00103 		orr	r3, r3, #1
 104 002a DBB2     		uxtb	r3, r3
 105 002c 1370     		strb	r3, [r2]
 127:Generated_Source\PSoC5/PWM_Fan.c ****         #else /* (PWM_Fan_Resolution == 16)*/
 128:Generated_Source\PSoC5/PWM_Fan.c ****             /* Set FIFO 0 to 1 byte register for period */
 129:Generated_Source\PSoC5/PWM_Fan.c ****             PWM_Fan_AUX_CONTROLDP0 |= (PWM_Fan_AUX_CTRL_FIFO0_CLR);
 130:Generated_Source\PSoC5/PWM_Fan.c ****             PWM_Fan_AUX_CONTROLDP1 |= (PWM_Fan_AUX_CTRL_FIFO0_CLR);
 131:Generated_Source\PSoC5/PWM_Fan.c ****         #endif /* (PWM_Fan_Resolution == 8) */
 132:Generated_Source\PSoC5/PWM_Fan.c **** 
 133:Generated_Source\PSoC5/PWM_Fan.c ****         PWM_Fan_WriteCounter(PWM_Fan_INIT_PERIOD_VALUE);
 106              		.loc 1 133 0
 107 002e FF20     		movs	r0, #255
 108 0030 FFF7FEFF 		bl	PWM_Fan_WriteCounter
 134:Generated_Source\PSoC5/PWM_Fan.c ****     #endif /* (!PWM_Fan_UsingFixedFunction) */
 135:Generated_Source\PSoC5/PWM_Fan.c **** 
 136:Generated_Source\PSoC5/PWM_Fan.c ****     PWM_Fan_WritePeriod(PWM_Fan_INIT_PERIOD_VALUE);
 109              		.loc 1 136 0
 110 0034 FF20     		movs	r0, #255
 111 0036 FFF7FEFF 		bl	PWM_Fan_WritePeriod
 137:Generated_Source\PSoC5/PWM_Fan.c **** 
 138:Generated_Source\PSoC5/PWM_Fan.c ****         #if (PWM_Fan_UseOneCompareMode)
 139:Generated_Source\PSoC5/PWM_Fan.c ****             PWM_Fan_WriteCompare(PWM_Fan_INIT_COMPARE_VALUE1);
 112              		.loc 1 139 0
 113 003a 0020     		movs	r0, #0
 114 003c FFF7FEFF 		bl	PWM_Fan_WriteCompare
 140:Generated_Source\PSoC5/PWM_Fan.c ****         #else
 141:Generated_Source\PSoC5/PWM_Fan.c ****             PWM_Fan_WriteCompare1(PWM_Fan_INIT_COMPARE_VALUE1);
 142:Generated_Source\PSoC5/PWM_Fan.c ****             PWM_Fan_WriteCompare2(PWM_Fan_INIT_COMPARE_VALUE2);
 143:Generated_Source\PSoC5/PWM_Fan.c ****         #endif /* (PWM_Fan_UseOneCompareMode) */
 144:Generated_Source\PSoC5/PWM_Fan.c **** 
 145:Generated_Source\PSoC5/PWM_Fan.c ****         #if (PWM_Fan_KillModeMinTime)
 146:Generated_Source\PSoC5/PWM_Fan.c ****             PWM_Fan_WriteKillTime(PWM_Fan_MinimumKillTime);
 147:Generated_Source\PSoC5/PWM_Fan.c ****         #endif /* (PWM_Fan_KillModeMinTime) */
 148:Generated_Source\PSoC5/PWM_Fan.c **** 
 149:Generated_Source\PSoC5/PWM_Fan.c ****         #if (PWM_Fan_DeadBandUsed)
 150:Generated_Source\PSoC5/PWM_Fan.c ****             PWM_Fan_WriteDeadTime(PWM_Fan_INIT_DEAD_TIME);
 151:Generated_Source\PSoC5/PWM_Fan.c ****         #endif /* (PWM_Fan_DeadBandUsed) */
 152:Generated_Source\PSoC5/PWM_Fan.c **** 
 153:Generated_Source\PSoC5/PWM_Fan.c ****     #if (PWM_Fan_UseStatus || PWM_Fan_UsingFixedFunction)
 154:Generated_Source\PSoC5/PWM_Fan.c ****         PWM_Fan_SetInterruptMode(PWM_Fan_INIT_INTERRUPTS_MODE);
 155:Generated_Source\PSoC5/PWM_Fan.c ****     #endif /* (PWM_Fan_UseStatus || PWM_Fan_UsingFixedFunction) */
 156:Generated_Source\PSoC5/PWM_Fan.c **** 
 157:Generated_Source\PSoC5/PWM_Fan.c ****     #if (PWM_Fan_UsingFixedFunction)
 158:Generated_Source\PSoC5/PWM_Fan.c ****         /* Globally Enable the Fixed Function Block chosen */
 159:Generated_Source\PSoC5/PWM_Fan.c ****         PWM_Fan_GLOBAL_ENABLE |= PWM_Fan_BLOCK_EN_MASK;
 160:Generated_Source\PSoC5/PWM_Fan.c ****         /* Set the Interrupt source to come from the status register */
 161:Generated_Source\PSoC5/PWM_Fan.c ****         PWM_Fan_CONTROL2 |= PWM_Fan_CTRL2_IRQ_SEL;
 162:Generated_Source\PSoC5/PWM_Fan.c ****     #else
 163:Generated_Source\PSoC5/PWM_Fan.c ****         #if(PWM_Fan_UseStatus)
 164:Generated_Source\PSoC5/PWM_Fan.c **** 
 165:Generated_Source\PSoC5/PWM_Fan.c ****             /* CyEnterCriticalRegion and CyExitCriticalRegion are used to mark following region cri
 166:Generated_Source\PSoC5/PWM_Fan.c ****             /* Enter Critical Region*/
 167:Generated_Source\PSoC5/PWM_Fan.c ****             PWM_Fan_interruptState = CyEnterCriticalSection();
 168:Generated_Source\PSoC5/PWM_Fan.c ****             /* Use the interrupt output of the status register for IRQ output */
 169:Generated_Source\PSoC5/PWM_Fan.c ****             PWM_Fan_STATUS_AUX_CTRL |= PWM_Fan_STATUS_ACTL_INT_EN_MASK;
 170:Generated_Source\PSoC5/PWM_Fan.c **** 
 171:Generated_Source\PSoC5/PWM_Fan.c ****              /* Exit Critical Region*/
ARM GAS  C:\Users\KJA\AppData\Local\Temp\ccc2JwxF.s 			page 6


 172:Generated_Source\PSoC5/PWM_Fan.c ****             CyExitCriticalSection(PWM_Fan_interruptState);
 173:Generated_Source\PSoC5/PWM_Fan.c **** 
 174:Generated_Source\PSoC5/PWM_Fan.c ****             /* Clear the FIFO to enable the PWM_Fan_STATUS_FIFOFULL
 175:Generated_Source\PSoC5/PWM_Fan.c ****                    bit to be set on FIFO full. */
 176:Generated_Source\PSoC5/PWM_Fan.c ****             PWM_Fan_ClearFIFO();
 177:Generated_Source\PSoC5/PWM_Fan.c ****         #endif /* (PWM_Fan_UseStatus) */
 178:Generated_Source\PSoC5/PWM_Fan.c ****     #endif /* (PWM_Fan_UsingFixedFunction) */
 179:Generated_Source\PSoC5/PWM_Fan.c **** }
 115              		.loc 1 179 0
 116 0040 0837     		adds	r7, r7, #8
 117              		.cfi_def_cfa_offset 8
 118 0042 BD46     		mov	sp, r7
 119              		.cfi_def_cfa_register 13
 120              		@ sp needed
 121 0044 80BD     		pop	{r7, pc}
 122              	.L7:
 123 0046 00BF     		.align	2
 124              	.L6:
 125 0048 76650040 		.word	1073767798
 126 004c 91640040 		.word	1073767569
 127              		.cfi_endproc
 128              	.LFE1:
 129              		.size	PWM_Fan_Init, .-PWM_Fan_Init
 130              		.section	.text.PWM_Fan_Enable,"ax",%progbits
 131              		.align	2
 132              		.global	PWM_Fan_Enable
 133              		.thumb
 134              		.thumb_func
 135              		.type	PWM_Fan_Enable, %function
 136              	PWM_Fan_Enable:
 137              	.LFB2:
 180:Generated_Source\PSoC5/PWM_Fan.c **** 
 181:Generated_Source\PSoC5/PWM_Fan.c **** 
 182:Generated_Source\PSoC5/PWM_Fan.c **** /*******************************************************************************
 183:Generated_Source\PSoC5/PWM_Fan.c **** * Function Name: PWM_Fan_Enable
 184:Generated_Source\PSoC5/PWM_Fan.c **** ********************************************************************************
 185:Generated_Source\PSoC5/PWM_Fan.c **** *
 186:Generated_Source\PSoC5/PWM_Fan.c **** * Summary:
 187:Generated_Source\PSoC5/PWM_Fan.c **** *  Enables the PWM block operation
 188:Generated_Source\PSoC5/PWM_Fan.c **** *
 189:Generated_Source\PSoC5/PWM_Fan.c **** * Parameters:
 190:Generated_Source\PSoC5/PWM_Fan.c **** *  None
 191:Generated_Source\PSoC5/PWM_Fan.c **** *
 192:Generated_Source\PSoC5/PWM_Fan.c **** * Return:
 193:Generated_Source\PSoC5/PWM_Fan.c **** *  None
 194:Generated_Source\PSoC5/PWM_Fan.c **** *
 195:Generated_Source\PSoC5/PWM_Fan.c **** * Side Effects:
 196:Generated_Source\PSoC5/PWM_Fan.c **** *  This works only if software enable mode is chosen
 197:Generated_Source\PSoC5/PWM_Fan.c **** *
 198:Generated_Source\PSoC5/PWM_Fan.c **** *******************************************************************************/
 199:Generated_Source\PSoC5/PWM_Fan.c **** void PWM_Fan_Enable(void) 
 200:Generated_Source\PSoC5/PWM_Fan.c **** {
 138              		.loc 1 200 0
 139              		.cfi_startproc
 140              		@ args = 0, pretend = 0, frame = 0
 141              		@ frame_needed = 1, uses_anonymous_args = 0
 142              		@ link register save eliminated.
ARM GAS  C:\Users\KJA\AppData\Local\Temp\ccc2JwxF.s 			page 7


 143 0000 80B4     		push	{r7}
 144              		.cfi_def_cfa_offset 4
 145              		.cfi_offset 7, -4
 146 0002 00AF     		add	r7, sp, #0
 147              		.cfi_def_cfa_register 7
 201:Generated_Source\PSoC5/PWM_Fan.c ****     /* Globally Enable the Fixed Function Block chosen */
 202:Generated_Source\PSoC5/PWM_Fan.c ****     #if (PWM_Fan_UsingFixedFunction)
 203:Generated_Source\PSoC5/PWM_Fan.c ****         PWM_Fan_GLOBAL_ENABLE |= PWM_Fan_BLOCK_EN_MASK;
 204:Generated_Source\PSoC5/PWM_Fan.c ****         PWM_Fan_GLOBAL_STBY_ENABLE |= PWM_Fan_BLOCK_STBY_EN_MASK;
 205:Generated_Source\PSoC5/PWM_Fan.c ****     #endif /* (PWM_Fan_UsingFixedFunction) */
 206:Generated_Source\PSoC5/PWM_Fan.c **** 
 207:Generated_Source\PSoC5/PWM_Fan.c ****     /* Enable the PWM from the control register  */
 208:Generated_Source\PSoC5/PWM_Fan.c ****     #if (PWM_Fan_UseControl || PWM_Fan_UsingFixedFunction)
 209:Generated_Source\PSoC5/PWM_Fan.c ****         PWM_Fan_CONTROL |= PWM_Fan_CTRL_ENABLE;
 148              		.loc 1 209 0
 149 0004 054A     		ldr	r2, .L9
 150 0006 054B     		ldr	r3, .L9
 151 0008 1B78     		ldrb	r3, [r3]
 152 000a DBB2     		uxtb	r3, r3
 153 000c 63F07F03 		orn	r3, r3, #127
 154 0010 DBB2     		uxtb	r3, r3
 155 0012 1370     		strb	r3, [r2]
 210:Generated_Source\PSoC5/PWM_Fan.c ****     #endif /* (PWM_Fan_UseControl || PWM_Fan_UsingFixedFunction) */
 211:Generated_Source\PSoC5/PWM_Fan.c **** }
 156              		.loc 1 211 0
 157 0014 BD46     		mov	sp, r7
 158              		.cfi_def_cfa_register 13
 159              		@ sp needed
 160 0016 5DF8047B 		ldr	r7, [sp], #4
 161              		.cfi_restore 7
 162              		.cfi_def_cfa_offset 0
 163 001a 7047     		bx	lr
 164              	.L10:
 165              		.align	2
 166              	.L9:
 167 001c 76650040 		.word	1073767798
 168              		.cfi_endproc
 169              	.LFE2:
 170              		.size	PWM_Fan_Enable, .-PWM_Fan_Enable
 171              		.section	.text.PWM_Fan_Stop,"ax",%progbits
 172              		.align	2
 173              		.global	PWM_Fan_Stop
 174              		.thumb
 175              		.thumb_func
 176              		.type	PWM_Fan_Stop, %function
 177              	PWM_Fan_Stop:
 178              	.LFB3:
 212:Generated_Source\PSoC5/PWM_Fan.c **** 
 213:Generated_Source\PSoC5/PWM_Fan.c **** 
 214:Generated_Source\PSoC5/PWM_Fan.c **** /*******************************************************************************
 215:Generated_Source\PSoC5/PWM_Fan.c **** * Function Name: PWM_Fan_Stop
 216:Generated_Source\PSoC5/PWM_Fan.c **** ********************************************************************************
 217:Generated_Source\PSoC5/PWM_Fan.c **** *
 218:Generated_Source\PSoC5/PWM_Fan.c **** * Summary:
 219:Generated_Source\PSoC5/PWM_Fan.c **** *  The stop function halts the PWM, but does not change any modes or disable
 220:Generated_Source\PSoC5/PWM_Fan.c **** *  interrupts.
 221:Generated_Source\PSoC5/PWM_Fan.c **** *
ARM GAS  C:\Users\KJA\AppData\Local\Temp\ccc2JwxF.s 			page 8


 222:Generated_Source\PSoC5/PWM_Fan.c **** * Parameters:
 223:Generated_Source\PSoC5/PWM_Fan.c **** *  None
 224:Generated_Source\PSoC5/PWM_Fan.c **** *
 225:Generated_Source\PSoC5/PWM_Fan.c **** * Return:
 226:Generated_Source\PSoC5/PWM_Fan.c **** *  None
 227:Generated_Source\PSoC5/PWM_Fan.c **** *
 228:Generated_Source\PSoC5/PWM_Fan.c **** * Side Effects:
 229:Generated_Source\PSoC5/PWM_Fan.c **** *  If the Enable mode is set to Hardware only then this function
 230:Generated_Source\PSoC5/PWM_Fan.c **** *  has no effect on the operation of the PWM
 231:Generated_Source\PSoC5/PWM_Fan.c **** *
 232:Generated_Source\PSoC5/PWM_Fan.c **** *******************************************************************************/
 233:Generated_Source\PSoC5/PWM_Fan.c **** void PWM_Fan_Stop(void) 
 234:Generated_Source\PSoC5/PWM_Fan.c **** {
 179              		.loc 1 234 0
 180              		.cfi_startproc
 181              		@ args = 0, pretend = 0, frame = 0
 182              		@ frame_needed = 1, uses_anonymous_args = 0
 183              		@ link register save eliminated.
 184 0000 80B4     		push	{r7}
 185              		.cfi_def_cfa_offset 4
 186              		.cfi_offset 7, -4
 187 0002 00AF     		add	r7, sp, #0
 188              		.cfi_def_cfa_register 7
 235:Generated_Source\PSoC5/PWM_Fan.c ****     #if (PWM_Fan_UseControl || PWM_Fan_UsingFixedFunction)
 236:Generated_Source\PSoC5/PWM_Fan.c ****         PWM_Fan_CONTROL &= ((uint8)(~PWM_Fan_CTRL_ENABLE));
 189              		.loc 1 236 0
 190 0004 054A     		ldr	r2, .L12
 191 0006 054B     		ldr	r3, .L12
 192 0008 1B78     		ldrb	r3, [r3]
 193 000a DBB2     		uxtb	r3, r3
 194 000c 03F07F03 		and	r3, r3, #127
 195 0010 DBB2     		uxtb	r3, r3
 196 0012 1370     		strb	r3, [r2]
 237:Generated_Source\PSoC5/PWM_Fan.c ****     #endif /* (PWM_Fan_UseControl || PWM_Fan_UsingFixedFunction) */
 238:Generated_Source\PSoC5/PWM_Fan.c **** 
 239:Generated_Source\PSoC5/PWM_Fan.c ****     /* Globally disable the Fixed Function Block chosen */
 240:Generated_Source\PSoC5/PWM_Fan.c ****     #if (PWM_Fan_UsingFixedFunction)
 241:Generated_Source\PSoC5/PWM_Fan.c ****         PWM_Fan_GLOBAL_ENABLE &= ((uint8)(~PWM_Fan_BLOCK_EN_MASK));
 242:Generated_Source\PSoC5/PWM_Fan.c ****         PWM_Fan_GLOBAL_STBY_ENABLE &= ((uint8)(~PWM_Fan_BLOCK_STBY_EN_MASK));
 243:Generated_Source\PSoC5/PWM_Fan.c ****     #endif /* (PWM_Fan_UsingFixedFunction) */
 244:Generated_Source\PSoC5/PWM_Fan.c **** }
 197              		.loc 1 244 0
 198 0014 BD46     		mov	sp, r7
 199              		.cfi_def_cfa_register 13
 200              		@ sp needed
 201 0016 5DF8047B 		ldr	r7, [sp], #4
 202              		.cfi_restore 7
 203              		.cfi_def_cfa_offset 0
 204 001a 7047     		bx	lr
 205              	.L13:
 206              		.align	2
 207              	.L12:
 208 001c 76650040 		.word	1073767798
 209              		.cfi_endproc
 210              	.LFE3:
 211              		.size	PWM_Fan_Stop, .-PWM_Fan_Stop
 212              		.section	.text.PWM_Fan_WriteCounter,"ax",%progbits
ARM GAS  C:\Users\KJA\AppData\Local\Temp\ccc2JwxF.s 			page 9


 213              		.align	2
 214              		.global	PWM_Fan_WriteCounter
 215              		.thumb
 216              		.thumb_func
 217              		.type	PWM_Fan_WriteCounter, %function
 218              	PWM_Fan_WriteCounter:
 219              	.LFB4:
 245:Generated_Source\PSoC5/PWM_Fan.c **** 
 246:Generated_Source\PSoC5/PWM_Fan.c **** #if (PWM_Fan_UseOneCompareMode)
 247:Generated_Source\PSoC5/PWM_Fan.c ****     #if (PWM_Fan_CompareMode1SW)
 248:Generated_Source\PSoC5/PWM_Fan.c **** 
 249:Generated_Source\PSoC5/PWM_Fan.c **** 
 250:Generated_Source\PSoC5/PWM_Fan.c ****         /*******************************************************************************
 251:Generated_Source\PSoC5/PWM_Fan.c ****         * Function Name: PWM_Fan_SetCompareMode
 252:Generated_Source\PSoC5/PWM_Fan.c ****         ********************************************************************************
 253:Generated_Source\PSoC5/PWM_Fan.c ****         *
 254:Generated_Source\PSoC5/PWM_Fan.c ****         * Summary:
 255:Generated_Source\PSoC5/PWM_Fan.c ****         *  This function writes the Compare Mode for the pwm output when in Dither mode,
 256:Generated_Source\PSoC5/PWM_Fan.c ****         *  Center Align Mode or One Output Mode.
 257:Generated_Source\PSoC5/PWM_Fan.c ****         *
 258:Generated_Source\PSoC5/PWM_Fan.c ****         * Parameters:
 259:Generated_Source\PSoC5/PWM_Fan.c ****         *  comparemode:  The new compare mode for the PWM output. Use the compare types
 260:Generated_Source\PSoC5/PWM_Fan.c ****         *                defined in the H file as input arguments.
 261:Generated_Source\PSoC5/PWM_Fan.c ****         *
 262:Generated_Source\PSoC5/PWM_Fan.c ****         * Return:
 263:Generated_Source\PSoC5/PWM_Fan.c ****         *  None
 264:Generated_Source\PSoC5/PWM_Fan.c ****         *
 265:Generated_Source\PSoC5/PWM_Fan.c ****         *******************************************************************************/
 266:Generated_Source\PSoC5/PWM_Fan.c ****         void PWM_Fan_SetCompareMode(uint8 comparemode) 
 267:Generated_Source\PSoC5/PWM_Fan.c ****         {
 268:Generated_Source\PSoC5/PWM_Fan.c ****             #if(PWM_Fan_UsingFixedFunction)
 269:Generated_Source\PSoC5/PWM_Fan.c **** 
 270:Generated_Source\PSoC5/PWM_Fan.c ****                 #if(0 != PWM_Fan_CTRL_CMPMODE1_SHIFT)
 271:Generated_Source\PSoC5/PWM_Fan.c ****                     uint8 comparemodemasked = ((uint8)((uint8)comparemode << PWM_Fan_CTRL_CMPMODE1_
 272:Generated_Source\PSoC5/PWM_Fan.c ****                 #else
 273:Generated_Source\PSoC5/PWM_Fan.c ****                     uint8 comparemodemasked = comparemode;
 274:Generated_Source\PSoC5/PWM_Fan.c ****                 #endif /* (0 != PWM_Fan_CTRL_CMPMODE1_SHIFT) */
 275:Generated_Source\PSoC5/PWM_Fan.c **** 
 276:Generated_Source\PSoC5/PWM_Fan.c ****                 PWM_Fan_CONTROL3 &= ((uint8)(~PWM_Fan_CTRL_CMPMODE1_MASK)); /*Clear Existing Data *
 277:Generated_Source\PSoC5/PWM_Fan.c ****                 PWM_Fan_CONTROL3 |= comparemodemasked;
 278:Generated_Source\PSoC5/PWM_Fan.c **** 
 279:Generated_Source\PSoC5/PWM_Fan.c ****             #elif (PWM_Fan_UseControl)
 280:Generated_Source\PSoC5/PWM_Fan.c **** 
 281:Generated_Source\PSoC5/PWM_Fan.c ****                 #if(0 != PWM_Fan_CTRL_CMPMODE1_SHIFT)
 282:Generated_Source\PSoC5/PWM_Fan.c ****                     uint8 comparemode1masked = ((uint8)((uint8)comparemode << PWM_Fan_CTRL_CMPMODE1
 283:Generated_Source\PSoC5/PWM_Fan.c ****                                                 PWM_Fan_CTRL_CMPMODE1_MASK;
 284:Generated_Source\PSoC5/PWM_Fan.c ****                 #else
 285:Generated_Source\PSoC5/PWM_Fan.c ****                     uint8 comparemode1masked = comparemode & PWM_Fan_CTRL_CMPMODE1_MASK;
 286:Generated_Source\PSoC5/PWM_Fan.c ****                 #endif /* (0 != PWM_Fan_CTRL_CMPMODE1_SHIFT) */
 287:Generated_Source\PSoC5/PWM_Fan.c **** 
 288:Generated_Source\PSoC5/PWM_Fan.c ****                 #if(0 != PWM_Fan_CTRL_CMPMODE2_SHIFT)
 289:Generated_Source\PSoC5/PWM_Fan.c ****                     uint8 comparemode2masked = ((uint8)((uint8)comparemode << PWM_Fan_CTRL_CMPMODE2
 290:Generated_Source\PSoC5/PWM_Fan.c ****                                                PWM_Fan_CTRL_CMPMODE2_MASK;
 291:Generated_Source\PSoC5/PWM_Fan.c ****                 #else
 292:Generated_Source\PSoC5/PWM_Fan.c ****                     uint8 comparemode2masked = comparemode & PWM_Fan_CTRL_CMPMODE2_MASK;
 293:Generated_Source\PSoC5/PWM_Fan.c ****                 #endif /* (0 != PWM_Fan_CTRL_CMPMODE2_SHIFT) */
 294:Generated_Source\PSoC5/PWM_Fan.c **** 
ARM GAS  C:\Users\KJA\AppData\Local\Temp\ccc2JwxF.s 			page 10


 295:Generated_Source\PSoC5/PWM_Fan.c ****                 /*Clear existing mode */
 296:Generated_Source\PSoC5/PWM_Fan.c ****                 PWM_Fan_CONTROL &= ((uint8)(~(PWM_Fan_CTRL_CMPMODE1_MASK |
 297:Generated_Source\PSoC5/PWM_Fan.c ****                                             PWM_Fan_CTRL_CMPMODE2_MASK)));
 298:Generated_Source\PSoC5/PWM_Fan.c ****                 PWM_Fan_CONTROL |= (comparemode1masked | comparemode2masked);
 299:Generated_Source\PSoC5/PWM_Fan.c **** 
 300:Generated_Source\PSoC5/PWM_Fan.c ****             #else
 301:Generated_Source\PSoC5/PWM_Fan.c ****                 uint8 temp = comparemode;
 302:Generated_Source\PSoC5/PWM_Fan.c ****             #endif /* (PWM_Fan_UsingFixedFunction) */
 303:Generated_Source\PSoC5/PWM_Fan.c ****         }
 304:Generated_Source\PSoC5/PWM_Fan.c ****     #endif /* PWM_Fan_CompareMode1SW */
 305:Generated_Source\PSoC5/PWM_Fan.c **** 
 306:Generated_Source\PSoC5/PWM_Fan.c **** #else /* UseOneCompareMode */
 307:Generated_Source\PSoC5/PWM_Fan.c **** 
 308:Generated_Source\PSoC5/PWM_Fan.c ****     #if (PWM_Fan_CompareMode1SW)
 309:Generated_Source\PSoC5/PWM_Fan.c **** 
 310:Generated_Source\PSoC5/PWM_Fan.c **** 
 311:Generated_Source\PSoC5/PWM_Fan.c ****         /*******************************************************************************
 312:Generated_Source\PSoC5/PWM_Fan.c ****         * Function Name: PWM_Fan_SetCompareMode1
 313:Generated_Source\PSoC5/PWM_Fan.c ****         ********************************************************************************
 314:Generated_Source\PSoC5/PWM_Fan.c ****         *
 315:Generated_Source\PSoC5/PWM_Fan.c ****         * Summary:
 316:Generated_Source\PSoC5/PWM_Fan.c ****         *  This function writes the Compare Mode for the pwm or pwm1 output
 317:Generated_Source\PSoC5/PWM_Fan.c ****         *
 318:Generated_Source\PSoC5/PWM_Fan.c ****         * Parameters:
 319:Generated_Source\PSoC5/PWM_Fan.c ****         *  comparemode:  The new compare mode for the PWM output. Use the compare types
 320:Generated_Source\PSoC5/PWM_Fan.c ****         *                defined in the H file as input arguments.
 321:Generated_Source\PSoC5/PWM_Fan.c ****         *
 322:Generated_Source\PSoC5/PWM_Fan.c ****         * Return:
 323:Generated_Source\PSoC5/PWM_Fan.c ****         *  None
 324:Generated_Source\PSoC5/PWM_Fan.c ****         *
 325:Generated_Source\PSoC5/PWM_Fan.c ****         *******************************************************************************/
 326:Generated_Source\PSoC5/PWM_Fan.c ****         void PWM_Fan_SetCompareMode1(uint8 comparemode) 
 327:Generated_Source\PSoC5/PWM_Fan.c ****         {
 328:Generated_Source\PSoC5/PWM_Fan.c ****             #if(0 != PWM_Fan_CTRL_CMPMODE1_SHIFT)
 329:Generated_Source\PSoC5/PWM_Fan.c ****                 uint8 comparemodemasked = ((uint8)((uint8)comparemode << PWM_Fan_CTRL_CMPMODE1_SHIF
 330:Generated_Source\PSoC5/PWM_Fan.c ****                                            PWM_Fan_CTRL_CMPMODE1_MASK;
 331:Generated_Source\PSoC5/PWM_Fan.c ****             #else
 332:Generated_Source\PSoC5/PWM_Fan.c ****                 uint8 comparemodemasked = comparemode & PWM_Fan_CTRL_CMPMODE1_MASK;
 333:Generated_Source\PSoC5/PWM_Fan.c ****             #endif /* (0 != PWM_Fan_CTRL_CMPMODE1_SHIFT) */
 334:Generated_Source\PSoC5/PWM_Fan.c **** 
 335:Generated_Source\PSoC5/PWM_Fan.c ****             #if (PWM_Fan_UseControl)
 336:Generated_Source\PSoC5/PWM_Fan.c ****                 PWM_Fan_CONTROL &= ((uint8)(~PWM_Fan_CTRL_CMPMODE1_MASK)); /*Clear existing mode */
 337:Generated_Source\PSoC5/PWM_Fan.c ****                 PWM_Fan_CONTROL |= comparemodemasked;
 338:Generated_Source\PSoC5/PWM_Fan.c ****             #endif /* (PWM_Fan_UseControl) */
 339:Generated_Source\PSoC5/PWM_Fan.c ****         }
 340:Generated_Source\PSoC5/PWM_Fan.c ****     #endif /* PWM_Fan_CompareMode1SW */
 341:Generated_Source\PSoC5/PWM_Fan.c **** 
 342:Generated_Source\PSoC5/PWM_Fan.c **** #if (PWM_Fan_CompareMode2SW)
 343:Generated_Source\PSoC5/PWM_Fan.c **** 
 344:Generated_Source\PSoC5/PWM_Fan.c **** 
 345:Generated_Source\PSoC5/PWM_Fan.c ****     /*******************************************************************************
 346:Generated_Source\PSoC5/PWM_Fan.c ****     * Function Name: PWM_Fan_SetCompareMode2
 347:Generated_Source\PSoC5/PWM_Fan.c ****     ********************************************************************************
 348:Generated_Source\PSoC5/PWM_Fan.c ****     *
 349:Generated_Source\PSoC5/PWM_Fan.c ****     * Summary:
 350:Generated_Source\PSoC5/PWM_Fan.c ****     *  This function writes the Compare Mode for the pwm or pwm2 output
 351:Generated_Source\PSoC5/PWM_Fan.c ****     *
ARM GAS  C:\Users\KJA\AppData\Local\Temp\ccc2JwxF.s 			page 11


 352:Generated_Source\PSoC5/PWM_Fan.c ****     * Parameters:
 353:Generated_Source\PSoC5/PWM_Fan.c ****     *  comparemode:  The new compare mode for the PWM output. Use the compare types
 354:Generated_Source\PSoC5/PWM_Fan.c ****     *                defined in the H file as input arguments.
 355:Generated_Source\PSoC5/PWM_Fan.c ****     *
 356:Generated_Source\PSoC5/PWM_Fan.c ****     * Return:
 357:Generated_Source\PSoC5/PWM_Fan.c ****     *  None
 358:Generated_Source\PSoC5/PWM_Fan.c ****     *
 359:Generated_Source\PSoC5/PWM_Fan.c ****     *******************************************************************************/
 360:Generated_Source\PSoC5/PWM_Fan.c ****     void PWM_Fan_SetCompareMode2(uint8 comparemode) 
 361:Generated_Source\PSoC5/PWM_Fan.c ****     {
 362:Generated_Source\PSoC5/PWM_Fan.c **** 
 363:Generated_Source\PSoC5/PWM_Fan.c ****         #if(0 != PWM_Fan_CTRL_CMPMODE2_SHIFT)
 364:Generated_Source\PSoC5/PWM_Fan.c ****             uint8 comparemodemasked = ((uint8)((uint8)comparemode << PWM_Fan_CTRL_CMPMODE2_SHIFT)) 
 365:Generated_Source\PSoC5/PWM_Fan.c ****                                                  PWM_Fan_CTRL_CMPMODE2_MASK;
 366:Generated_Source\PSoC5/PWM_Fan.c ****         #else
 367:Generated_Source\PSoC5/PWM_Fan.c ****             uint8 comparemodemasked = comparemode & PWM_Fan_CTRL_CMPMODE2_MASK;
 368:Generated_Source\PSoC5/PWM_Fan.c ****         #endif /* (0 != PWM_Fan_CTRL_CMPMODE2_SHIFT) */
 369:Generated_Source\PSoC5/PWM_Fan.c **** 
 370:Generated_Source\PSoC5/PWM_Fan.c ****         #if (PWM_Fan_UseControl)
 371:Generated_Source\PSoC5/PWM_Fan.c ****             PWM_Fan_CONTROL &= ((uint8)(~PWM_Fan_CTRL_CMPMODE2_MASK)); /*Clear existing mode */
 372:Generated_Source\PSoC5/PWM_Fan.c ****             PWM_Fan_CONTROL |= comparemodemasked;
 373:Generated_Source\PSoC5/PWM_Fan.c ****         #endif /* (PWM_Fan_UseControl) */
 374:Generated_Source\PSoC5/PWM_Fan.c ****     }
 375:Generated_Source\PSoC5/PWM_Fan.c ****     #endif /*PWM_Fan_CompareMode2SW */
 376:Generated_Source\PSoC5/PWM_Fan.c **** 
 377:Generated_Source\PSoC5/PWM_Fan.c **** #endif /* UseOneCompareMode */
 378:Generated_Source\PSoC5/PWM_Fan.c **** 
 379:Generated_Source\PSoC5/PWM_Fan.c **** 
 380:Generated_Source\PSoC5/PWM_Fan.c **** #if (!PWM_Fan_UsingFixedFunction)
 381:Generated_Source\PSoC5/PWM_Fan.c **** 
 382:Generated_Source\PSoC5/PWM_Fan.c **** 
 383:Generated_Source\PSoC5/PWM_Fan.c ****     /*******************************************************************************
 384:Generated_Source\PSoC5/PWM_Fan.c ****     * Function Name: PWM_Fan_WriteCounter
 385:Generated_Source\PSoC5/PWM_Fan.c ****     ********************************************************************************
 386:Generated_Source\PSoC5/PWM_Fan.c ****     *
 387:Generated_Source\PSoC5/PWM_Fan.c ****     * Summary:
 388:Generated_Source\PSoC5/PWM_Fan.c ****     *  Writes a new counter value directly to the counter register. This will be
 389:Generated_Source\PSoC5/PWM_Fan.c ****     *  implemented for that currently running period and only that period. This API
 390:Generated_Source\PSoC5/PWM_Fan.c ****     *  is valid only for UDB implementation and not available for fixed function
 391:Generated_Source\PSoC5/PWM_Fan.c ****     *  PWM implementation.
 392:Generated_Source\PSoC5/PWM_Fan.c ****     *
 393:Generated_Source\PSoC5/PWM_Fan.c ****     * Parameters:
 394:Generated_Source\PSoC5/PWM_Fan.c ****     *  counter:  The period new period counter value.
 395:Generated_Source\PSoC5/PWM_Fan.c ****     *
 396:Generated_Source\PSoC5/PWM_Fan.c ****     * Return:
 397:Generated_Source\PSoC5/PWM_Fan.c ****     *  None
 398:Generated_Source\PSoC5/PWM_Fan.c ****     *
 399:Generated_Source\PSoC5/PWM_Fan.c ****     * Side Effects:
 400:Generated_Source\PSoC5/PWM_Fan.c ****     *  The PWM Period will be reloaded when a counter value will be a zero
 401:Generated_Source\PSoC5/PWM_Fan.c ****     *
 402:Generated_Source\PSoC5/PWM_Fan.c ****     *******************************************************************************/
 403:Generated_Source\PSoC5/PWM_Fan.c ****     void PWM_Fan_WriteCounter(uint8 counter) \
 404:Generated_Source\PSoC5/PWM_Fan.c ****                                        
 405:Generated_Source\PSoC5/PWM_Fan.c ****     {
 220              		.loc 1 405 0
 221              		.cfi_startproc
 222              		@ args = 0, pretend = 0, frame = 8
ARM GAS  C:\Users\KJA\AppData\Local\Temp\ccc2JwxF.s 			page 12


 223              		@ frame_needed = 1, uses_anonymous_args = 0
 224              		@ link register save eliminated.
 225 0000 80B4     		push	{r7}
 226              		.cfi_def_cfa_offset 4
 227              		.cfi_offset 7, -4
 228 0002 83B0     		sub	sp, sp, #12
 229              		.cfi_def_cfa_offset 16
 230 0004 00AF     		add	r7, sp, #0
 231              		.cfi_def_cfa_register 7
 232 0006 0346     		mov	r3, r0
 233 0008 FB71     		strb	r3, [r7, #7]
 406:Generated_Source\PSoC5/PWM_Fan.c ****         CY_SET_REG8(PWM_Fan_COUNTER_LSB_PTR, counter);
 234              		.loc 1 406 0
 235 000a 044A     		ldr	r2, .L15
 236 000c FB79     		ldrb	r3, [r7, #7]
 237 000e 1370     		strb	r3, [r2]
 407:Generated_Source\PSoC5/PWM_Fan.c ****     }
 238              		.loc 1 407 0
 239 0010 0C37     		adds	r7, r7, #12
 240              		.cfi_def_cfa_offset 4
 241 0012 BD46     		mov	sp, r7
 242              		.cfi_def_cfa_register 13
 243              		@ sp needed
 244 0014 5DF8047B 		ldr	r7, [sp], #4
 245              		.cfi_restore 7
 246              		.cfi_def_cfa_offset 0
 247 0018 7047     		bx	lr
 248              	.L16:
 249 001a 00BF     		.align	2
 250              	.L15:
 251 001c 01640040 		.word	1073767425
 252              		.cfi_endproc
 253              	.LFE4:
 254              		.size	PWM_Fan_WriteCounter, .-PWM_Fan_WriteCounter
 255              		.section	.text.PWM_Fan_ReadCounter,"ax",%progbits
 256              		.align	2
 257              		.global	PWM_Fan_ReadCounter
 258              		.thumb
 259              		.thumb_func
 260              		.type	PWM_Fan_ReadCounter, %function
 261              	PWM_Fan_ReadCounter:
 262              	.LFB5:
 408:Generated_Source\PSoC5/PWM_Fan.c **** 
 409:Generated_Source\PSoC5/PWM_Fan.c **** 
 410:Generated_Source\PSoC5/PWM_Fan.c ****     /*******************************************************************************
 411:Generated_Source\PSoC5/PWM_Fan.c ****     * Function Name: PWM_Fan_ReadCounter
 412:Generated_Source\PSoC5/PWM_Fan.c ****     ********************************************************************************
 413:Generated_Source\PSoC5/PWM_Fan.c ****     *
 414:Generated_Source\PSoC5/PWM_Fan.c ****     * Summary:
 415:Generated_Source\PSoC5/PWM_Fan.c ****     *  This function returns the current value of the counter.  It doesn't matter
 416:Generated_Source\PSoC5/PWM_Fan.c ****     *  if the counter is enabled or running.
 417:Generated_Source\PSoC5/PWM_Fan.c ****     *
 418:Generated_Source\PSoC5/PWM_Fan.c ****     * Parameters:
 419:Generated_Source\PSoC5/PWM_Fan.c ****     *  None
 420:Generated_Source\PSoC5/PWM_Fan.c ****     *
 421:Generated_Source\PSoC5/PWM_Fan.c ****     * Return:
 422:Generated_Source\PSoC5/PWM_Fan.c ****     *  The current value of the counter.
ARM GAS  C:\Users\KJA\AppData\Local\Temp\ccc2JwxF.s 			page 13


 423:Generated_Source\PSoC5/PWM_Fan.c ****     *
 424:Generated_Source\PSoC5/PWM_Fan.c ****     *******************************************************************************/
 425:Generated_Source\PSoC5/PWM_Fan.c ****     uint8 PWM_Fan_ReadCounter(void) 
 426:Generated_Source\PSoC5/PWM_Fan.c ****     {
 263              		.loc 1 426 0
 264              		.cfi_startproc
 265              		@ args = 0, pretend = 0, frame = 0
 266              		@ frame_needed = 1, uses_anonymous_args = 0
 267              		@ link register save eliminated.
 268 0000 80B4     		push	{r7}
 269              		.cfi_def_cfa_offset 4
 270              		.cfi_offset 7, -4
 271 0002 00AF     		add	r7, sp, #0
 272              		.cfi_def_cfa_register 7
 427:Generated_Source\PSoC5/PWM_Fan.c ****         /* Force capture by reading Accumulator */
 428:Generated_Source\PSoC5/PWM_Fan.c ****         /* Must first do a software capture to be able to read the counter */
 429:Generated_Source\PSoC5/PWM_Fan.c ****         /* It is up to the user code to make sure there isn't already captured data in the FIFO */
 430:Generated_Source\PSoC5/PWM_Fan.c ****           (void)CY_GET_REG8(PWM_Fan_COUNTERCAP_LSB_PTR_8BIT);
 273              		.loc 1 430 0
 274 0004 044B     		ldr	r3, .L19
 275 0006 1B78     		ldrb	r3, [r3]
 431:Generated_Source\PSoC5/PWM_Fan.c **** 
 432:Generated_Source\PSoC5/PWM_Fan.c ****         /* Read the data from the FIFO */
 433:Generated_Source\PSoC5/PWM_Fan.c ****         return (CY_GET_REG8(PWM_Fan_CAPTURE_LSB_PTR));
 276              		.loc 1 433 0
 277 0008 044B     		ldr	r3, .L19+4
 278 000a 1B78     		ldrb	r3, [r3]
 279 000c DBB2     		uxtb	r3, r3
 434:Generated_Source\PSoC5/PWM_Fan.c ****     }
 280              		.loc 1 434 0
 281 000e 1846     		mov	r0, r3
 282 0010 BD46     		mov	sp, r7
 283              		.cfi_def_cfa_register 13
 284              		@ sp needed
 285 0012 5DF8047B 		ldr	r7, [sp], #4
 286              		.cfi_restore 7
 287              		.cfi_def_cfa_offset 0
 288 0016 7047     		bx	lr
 289              	.L20:
 290              		.align	2
 291              	.L19:
 292 0018 11640040 		.word	1073767441
 293 001c 51640040 		.word	1073767505
 294              		.cfi_endproc
 295              	.LFE5:
 296              		.size	PWM_Fan_ReadCounter, .-PWM_Fan_ReadCounter
 297              		.section	.text.PWM_Fan_WritePeriod,"ax",%progbits
 298              		.align	2
 299              		.global	PWM_Fan_WritePeriod
 300              		.thumb
 301              		.thumb_func
 302              		.type	PWM_Fan_WritePeriod, %function
 303              	PWM_Fan_WritePeriod:
 304              	.LFB6:
 435:Generated_Source\PSoC5/PWM_Fan.c **** 
 436:Generated_Source\PSoC5/PWM_Fan.c ****     #if (PWM_Fan_UseStatus)
 437:Generated_Source\PSoC5/PWM_Fan.c **** 
ARM GAS  C:\Users\KJA\AppData\Local\Temp\ccc2JwxF.s 			page 14


 438:Generated_Source\PSoC5/PWM_Fan.c **** 
 439:Generated_Source\PSoC5/PWM_Fan.c ****         /*******************************************************************************
 440:Generated_Source\PSoC5/PWM_Fan.c ****         * Function Name: PWM_Fan_ClearFIFO
 441:Generated_Source\PSoC5/PWM_Fan.c ****         ********************************************************************************
 442:Generated_Source\PSoC5/PWM_Fan.c ****         *
 443:Generated_Source\PSoC5/PWM_Fan.c ****         * Summary:
 444:Generated_Source\PSoC5/PWM_Fan.c ****         *  This function clears all capture data from the capture FIFO
 445:Generated_Source\PSoC5/PWM_Fan.c ****         *
 446:Generated_Source\PSoC5/PWM_Fan.c ****         * Parameters:
 447:Generated_Source\PSoC5/PWM_Fan.c ****         *  None
 448:Generated_Source\PSoC5/PWM_Fan.c ****         *
 449:Generated_Source\PSoC5/PWM_Fan.c ****         * Return:
 450:Generated_Source\PSoC5/PWM_Fan.c ****         *  None
 451:Generated_Source\PSoC5/PWM_Fan.c ****         *
 452:Generated_Source\PSoC5/PWM_Fan.c ****         *******************************************************************************/
 453:Generated_Source\PSoC5/PWM_Fan.c ****         void PWM_Fan_ClearFIFO(void) 
 454:Generated_Source\PSoC5/PWM_Fan.c ****         {
 455:Generated_Source\PSoC5/PWM_Fan.c ****             while(0u != (PWM_Fan_ReadStatusRegister() & PWM_Fan_STATUS_FIFONEMPTY))
 456:Generated_Source\PSoC5/PWM_Fan.c ****             {
 457:Generated_Source\PSoC5/PWM_Fan.c ****                 (void)PWM_Fan_ReadCapture();
 458:Generated_Source\PSoC5/PWM_Fan.c ****             }
 459:Generated_Source\PSoC5/PWM_Fan.c ****         }
 460:Generated_Source\PSoC5/PWM_Fan.c **** 
 461:Generated_Source\PSoC5/PWM_Fan.c ****     #endif /* PWM_Fan_UseStatus */
 462:Generated_Source\PSoC5/PWM_Fan.c **** 
 463:Generated_Source\PSoC5/PWM_Fan.c **** #endif /* !PWM_Fan_UsingFixedFunction */
 464:Generated_Source\PSoC5/PWM_Fan.c **** 
 465:Generated_Source\PSoC5/PWM_Fan.c **** 
 466:Generated_Source\PSoC5/PWM_Fan.c **** /*******************************************************************************
 467:Generated_Source\PSoC5/PWM_Fan.c **** * Function Name: PWM_Fan_WritePeriod
 468:Generated_Source\PSoC5/PWM_Fan.c **** ********************************************************************************
 469:Generated_Source\PSoC5/PWM_Fan.c **** *
 470:Generated_Source\PSoC5/PWM_Fan.c **** * Summary:
 471:Generated_Source\PSoC5/PWM_Fan.c **** *  This function is used to change the period of the counter.  The new period
 472:Generated_Source\PSoC5/PWM_Fan.c **** *  will be loaded the next time terminal count is detected.
 473:Generated_Source\PSoC5/PWM_Fan.c **** *
 474:Generated_Source\PSoC5/PWM_Fan.c **** * Parameters:
 475:Generated_Source\PSoC5/PWM_Fan.c **** *  period:  Period value. May be between 1 and (2^Resolution)-1.  A value of 0
 476:Generated_Source\PSoC5/PWM_Fan.c **** *           will result in the counter remaining at zero.
 477:Generated_Source\PSoC5/PWM_Fan.c **** *
 478:Generated_Source\PSoC5/PWM_Fan.c **** * Return:
 479:Generated_Source\PSoC5/PWM_Fan.c **** *  None
 480:Generated_Source\PSoC5/PWM_Fan.c **** *
 481:Generated_Source\PSoC5/PWM_Fan.c **** *******************************************************************************/
 482:Generated_Source\PSoC5/PWM_Fan.c **** void PWM_Fan_WritePeriod(uint8 period) 
 483:Generated_Source\PSoC5/PWM_Fan.c **** {
 305              		.loc 1 483 0
 306              		.cfi_startproc
 307              		@ args = 0, pretend = 0, frame = 8
 308              		@ frame_needed = 1, uses_anonymous_args = 0
 309              		@ link register save eliminated.
 310 0000 80B4     		push	{r7}
 311              		.cfi_def_cfa_offset 4
 312              		.cfi_offset 7, -4
 313 0002 83B0     		sub	sp, sp, #12
 314              		.cfi_def_cfa_offset 16
 315 0004 00AF     		add	r7, sp, #0
ARM GAS  C:\Users\KJA\AppData\Local\Temp\ccc2JwxF.s 			page 15


 316              		.cfi_def_cfa_register 7
 317 0006 0346     		mov	r3, r0
 318 0008 FB71     		strb	r3, [r7, #7]
 484:Generated_Source\PSoC5/PWM_Fan.c ****     #if(PWM_Fan_UsingFixedFunction)
 485:Generated_Source\PSoC5/PWM_Fan.c ****         CY_SET_REG16(PWM_Fan_PERIOD_LSB_PTR, (uint16)period);
 486:Generated_Source\PSoC5/PWM_Fan.c ****     #else
 487:Generated_Source\PSoC5/PWM_Fan.c ****         CY_SET_REG8(PWM_Fan_PERIOD_LSB_PTR, period);
 319              		.loc 1 487 0
 320 000a 044A     		ldr	r2, .L22
 321 000c FB79     		ldrb	r3, [r7, #7]
 322 000e 1370     		strb	r3, [r2]
 488:Generated_Source\PSoC5/PWM_Fan.c ****     #endif /* (PWM_Fan_UsingFixedFunction) */
 489:Generated_Source\PSoC5/PWM_Fan.c **** }
 323              		.loc 1 489 0
 324 0010 0C37     		adds	r7, r7, #12
 325              		.cfi_def_cfa_offset 4
 326 0012 BD46     		mov	sp, r7
 327              		.cfi_def_cfa_register 13
 328              		@ sp needed
 329 0014 5DF8047B 		ldr	r7, [sp], #4
 330              		.cfi_restore 7
 331              		.cfi_def_cfa_offset 0
 332 0018 7047     		bx	lr
 333              	.L23:
 334 001a 00BF     		.align	2
 335              	.L22:
 336 001c 41640040 		.word	1073767489
 337              		.cfi_endproc
 338              	.LFE6:
 339              		.size	PWM_Fan_WritePeriod, .-PWM_Fan_WritePeriod
 340              		.section	.text.PWM_Fan_WriteCompare,"ax",%progbits
 341              		.align	2
 342              		.global	PWM_Fan_WriteCompare
 343              		.thumb
 344              		.thumb_func
 345              		.type	PWM_Fan_WriteCompare, %function
 346              	PWM_Fan_WriteCompare:
 347              	.LFB7:
 490:Generated_Source\PSoC5/PWM_Fan.c **** 
 491:Generated_Source\PSoC5/PWM_Fan.c **** #if (PWM_Fan_UseOneCompareMode)
 492:Generated_Source\PSoC5/PWM_Fan.c **** 
 493:Generated_Source\PSoC5/PWM_Fan.c **** 
 494:Generated_Source\PSoC5/PWM_Fan.c ****     /*******************************************************************************
 495:Generated_Source\PSoC5/PWM_Fan.c ****     * Function Name: PWM_Fan_WriteCompare
 496:Generated_Source\PSoC5/PWM_Fan.c ****     ********************************************************************************
 497:Generated_Source\PSoC5/PWM_Fan.c ****     *
 498:Generated_Source\PSoC5/PWM_Fan.c ****     * Summary:
 499:Generated_Source\PSoC5/PWM_Fan.c ****     *  This funtion is used to change the compare1 value when the PWM is in Dither
 500:Generated_Source\PSoC5/PWM_Fan.c ****     *  mode. The compare output will reflect the new value on the next UDB clock.
 501:Generated_Source\PSoC5/PWM_Fan.c ****     *  The compare output will be driven high when the present counter value is
 502:Generated_Source\PSoC5/PWM_Fan.c ****     *  compared to the compare value based on the compare mode defined in
 503:Generated_Source\PSoC5/PWM_Fan.c ****     *  Dither Mode.
 504:Generated_Source\PSoC5/PWM_Fan.c ****     *
 505:Generated_Source\PSoC5/PWM_Fan.c ****     * Parameters:
 506:Generated_Source\PSoC5/PWM_Fan.c ****     *  compare:  New compare value.
 507:Generated_Source\PSoC5/PWM_Fan.c ****     *
 508:Generated_Source\PSoC5/PWM_Fan.c ****     * Return:
ARM GAS  C:\Users\KJA\AppData\Local\Temp\ccc2JwxF.s 			page 16


 509:Generated_Source\PSoC5/PWM_Fan.c ****     *  None
 510:Generated_Source\PSoC5/PWM_Fan.c ****     *
 511:Generated_Source\PSoC5/PWM_Fan.c ****     * Side Effects:
 512:Generated_Source\PSoC5/PWM_Fan.c ****     *  This function is only available if the PWM mode parameter is set to
 513:Generated_Source\PSoC5/PWM_Fan.c ****     *  Dither Mode, Center Aligned Mode or One Output Mode
 514:Generated_Source\PSoC5/PWM_Fan.c ****     *
 515:Generated_Source\PSoC5/PWM_Fan.c ****     *******************************************************************************/
 516:Generated_Source\PSoC5/PWM_Fan.c ****     void PWM_Fan_WriteCompare(uint8 compare) \
 517:Generated_Source\PSoC5/PWM_Fan.c ****                                        
 518:Generated_Source\PSoC5/PWM_Fan.c ****     {
 348              		.loc 1 518 0
 349              		.cfi_startproc
 350              		@ args = 0, pretend = 0, frame = 8
 351              		@ frame_needed = 1, uses_anonymous_args = 0
 352              		@ link register save eliminated.
 353 0000 80B4     		push	{r7}
 354              		.cfi_def_cfa_offset 4
 355              		.cfi_offset 7, -4
 356 0002 83B0     		sub	sp, sp, #12
 357              		.cfi_def_cfa_offset 16
 358 0004 00AF     		add	r7, sp, #0
 359              		.cfi_def_cfa_register 7
 360 0006 0346     		mov	r3, r0
 361 0008 FB71     		strb	r3, [r7, #7]
 519:Generated_Source\PSoC5/PWM_Fan.c ****         #if(PWM_Fan_UsingFixedFunction)
 520:Generated_Source\PSoC5/PWM_Fan.c ****             CY_SET_REG16(PWM_Fan_COMPARE1_LSB_PTR, (uint16)compare);
 521:Generated_Source\PSoC5/PWM_Fan.c ****         #else
 522:Generated_Source\PSoC5/PWM_Fan.c ****             CY_SET_REG8(PWM_Fan_COMPARE1_LSB_PTR, compare);
 362              		.loc 1 522 0
 363 000a 044A     		ldr	r2, .L25
 364 000c FB79     		ldrb	r3, [r7, #7]
 365 000e 1370     		strb	r3, [r2]
 523:Generated_Source\PSoC5/PWM_Fan.c ****         #endif /* (PWM_Fan_UsingFixedFunction) */
 524:Generated_Source\PSoC5/PWM_Fan.c **** 
 525:Generated_Source\PSoC5/PWM_Fan.c ****         #if (PWM_Fan_PWMMode == PWM_Fan__B_PWM__DITHER)
 526:Generated_Source\PSoC5/PWM_Fan.c ****             #if(PWM_Fan_UsingFixedFunction)
 527:Generated_Source\PSoC5/PWM_Fan.c ****                 CY_SET_REG16(PWM_Fan_COMPARE2_LSB_PTR, (uint16)(compare + 1u));
 528:Generated_Source\PSoC5/PWM_Fan.c ****             #else
 529:Generated_Source\PSoC5/PWM_Fan.c ****                 CY_SET_REG8(PWM_Fan_COMPARE2_LSB_PTR, (compare + 1u));
 530:Generated_Source\PSoC5/PWM_Fan.c ****             #endif /* (PWM_Fan_UsingFixedFunction) */
 531:Generated_Source\PSoC5/PWM_Fan.c ****         #endif /* (PWM_Fan_PWMMode == PWM_Fan__B_PWM__DITHER) */
 532:Generated_Source\PSoC5/PWM_Fan.c ****     }
 366              		.loc 1 532 0
 367 0010 0C37     		adds	r7, r7, #12
 368              		.cfi_def_cfa_offset 4
 369 0012 BD46     		mov	sp, r7
 370              		.cfi_def_cfa_register 13
 371              		@ sp needed
 372 0014 5DF8047B 		ldr	r7, [sp], #4
 373              		.cfi_restore 7
 374              		.cfi_def_cfa_offset 0
 375 0018 7047     		bx	lr
 376              	.L26:
 377 001a 00BF     		.align	2
 378              	.L25:
 379 001c 21640040 		.word	1073767457
 380              		.cfi_endproc
ARM GAS  C:\Users\KJA\AppData\Local\Temp\ccc2JwxF.s 			page 17


 381              	.LFE7:
 382              		.size	PWM_Fan_WriteCompare, .-PWM_Fan_WriteCompare
 383              		.section	.text.PWM_Fan_ReadControlRegister,"ax",%progbits
 384              		.align	2
 385              		.global	PWM_Fan_ReadControlRegister
 386              		.thumb
 387              		.thumb_func
 388              		.type	PWM_Fan_ReadControlRegister, %function
 389              	PWM_Fan_ReadControlRegister:
 390              	.LFB8:
 533:Generated_Source\PSoC5/PWM_Fan.c **** 
 534:Generated_Source\PSoC5/PWM_Fan.c **** 
 535:Generated_Source\PSoC5/PWM_Fan.c **** #else
 536:Generated_Source\PSoC5/PWM_Fan.c **** 
 537:Generated_Source\PSoC5/PWM_Fan.c **** 
 538:Generated_Source\PSoC5/PWM_Fan.c ****     /*******************************************************************************
 539:Generated_Source\PSoC5/PWM_Fan.c ****     * Function Name: PWM_Fan_WriteCompare1
 540:Generated_Source\PSoC5/PWM_Fan.c ****     ********************************************************************************
 541:Generated_Source\PSoC5/PWM_Fan.c ****     *
 542:Generated_Source\PSoC5/PWM_Fan.c ****     * Summary:
 543:Generated_Source\PSoC5/PWM_Fan.c ****     *  This funtion is used to change the compare1 value.  The compare output will
 544:Generated_Source\PSoC5/PWM_Fan.c ****     *  reflect the new value on the next UDB clock.  The compare output will be
 545:Generated_Source\PSoC5/PWM_Fan.c ****     *  driven high when the present counter value is less than or less than or
 546:Generated_Source\PSoC5/PWM_Fan.c ****     *  equal to the compare register, depending on the mode.
 547:Generated_Source\PSoC5/PWM_Fan.c ****     *
 548:Generated_Source\PSoC5/PWM_Fan.c ****     * Parameters:
 549:Generated_Source\PSoC5/PWM_Fan.c ****     *  compare:  New compare value.
 550:Generated_Source\PSoC5/PWM_Fan.c ****     *
 551:Generated_Source\PSoC5/PWM_Fan.c ****     * Return:
 552:Generated_Source\PSoC5/PWM_Fan.c ****     *  None
 553:Generated_Source\PSoC5/PWM_Fan.c ****     *
 554:Generated_Source\PSoC5/PWM_Fan.c ****     *******************************************************************************/
 555:Generated_Source\PSoC5/PWM_Fan.c ****     void PWM_Fan_WriteCompare1(uint8 compare) \
 556:Generated_Source\PSoC5/PWM_Fan.c ****                                         
 557:Generated_Source\PSoC5/PWM_Fan.c ****     {
 558:Generated_Source\PSoC5/PWM_Fan.c ****         #if(PWM_Fan_UsingFixedFunction)
 559:Generated_Source\PSoC5/PWM_Fan.c ****             CY_SET_REG16(PWM_Fan_COMPARE1_LSB_PTR, (uint16)compare);
 560:Generated_Source\PSoC5/PWM_Fan.c ****         #else
 561:Generated_Source\PSoC5/PWM_Fan.c ****             CY_SET_REG8(PWM_Fan_COMPARE1_LSB_PTR, compare);
 562:Generated_Source\PSoC5/PWM_Fan.c ****         #endif /* (PWM_Fan_UsingFixedFunction) */
 563:Generated_Source\PSoC5/PWM_Fan.c ****     }
 564:Generated_Source\PSoC5/PWM_Fan.c **** 
 565:Generated_Source\PSoC5/PWM_Fan.c **** 
 566:Generated_Source\PSoC5/PWM_Fan.c ****     /*******************************************************************************
 567:Generated_Source\PSoC5/PWM_Fan.c ****     * Function Name: PWM_Fan_WriteCompare2
 568:Generated_Source\PSoC5/PWM_Fan.c ****     ********************************************************************************
 569:Generated_Source\PSoC5/PWM_Fan.c ****     *
 570:Generated_Source\PSoC5/PWM_Fan.c ****     * Summary:
 571:Generated_Source\PSoC5/PWM_Fan.c ****     *  This funtion is used to change the compare value, for compare1 output.
 572:Generated_Source\PSoC5/PWM_Fan.c ****     *  The compare output will reflect the new value on the next UDB clock.
 573:Generated_Source\PSoC5/PWM_Fan.c ****     *  The compare output will be driven high when the present counter value is
 574:Generated_Source\PSoC5/PWM_Fan.c ****     *  less than or less than or equal to the compare register, depending on the
 575:Generated_Source\PSoC5/PWM_Fan.c ****     *  mode.
 576:Generated_Source\PSoC5/PWM_Fan.c ****     *
 577:Generated_Source\PSoC5/PWM_Fan.c ****     * Parameters:
 578:Generated_Source\PSoC5/PWM_Fan.c ****     *  compare:  New compare value.
 579:Generated_Source\PSoC5/PWM_Fan.c ****     *
ARM GAS  C:\Users\KJA\AppData\Local\Temp\ccc2JwxF.s 			page 18


 580:Generated_Source\PSoC5/PWM_Fan.c ****     * Return:
 581:Generated_Source\PSoC5/PWM_Fan.c ****     *  None
 582:Generated_Source\PSoC5/PWM_Fan.c ****     *
 583:Generated_Source\PSoC5/PWM_Fan.c ****     *******************************************************************************/
 584:Generated_Source\PSoC5/PWM_Fan.c ****     void PWM_Fan_WriteCompare2(uint8 compare) \
 585:Generated_Source\PSoC5/PWM_Fan.c ****                                         
 586:Generated_Source\PSoC5/PWM_Fan.c ****     {
 587:Generated_Source\PSoC5/PWM_Fan.c ****         #if(PWM_Fan_UsingFixedFunction)
 588:Generated_Source\PSoC5/PWM_Fan.c ****             CY_SET_REG16(PWM_Fan_COMPARE2_LSB_PTR, compare);
 589:Generated_Source\PSoC5/PWM_Fan.c ****         #else
 590:Generated_Source\PSoC5/PWM_Fan.c ****             CY_SET_REG8(PWM_Fan_COMPARE2_LSB_PTR, compare);
 591:Generated_Source\PSoC5/PWM_Fan.c ****         #endif /* (PWM_Fan_UsingFixedFunction) */
 592:Generated_Source\PSoC5/PWM_Fan.c ****     }
 593:Generated_Source\PSoC5/PWM_Fan.c **** #endif /* UseOneCompareMode */
 594:Generated_Source\PSoC5/PWM_Fan.c **** 
 595:Generated_Source\PSoC5/PWM_Fan.c **** #if (PWM_Fan_DeadBandUsed)
 596:Generated_Source\PSoC5/PWM_Fan.c **** 
 597:Generated_Source\PSoC5/PWM_Fan.c **** 
 598:Generated_Source\PSoC5/PWM_Fan.c ****     /*******************************************************************************
 599:Generated_Source\PSoC5/PWM_Fan.c ****     * Function Name: PWM_Fan_WriteDeadTime
 600:Generated_Source\PSoC5/PWM_Fan.c ****     ********************************************************************************
 601:Generated_Source\PSoC5/PWM_Fan.c ****     *
 602:Generated_Source\PSoC5/PWM_Fan.c ****     * Summary:
 603:Generated_Source\PSoC5/PWM_Fan.c ****     *  This function writes the dead-band counts to the corresponding register
 604:Generated_Source\PSoC5/PWM_Fan.c ****     *
 605:Generated_Source\PSoC5/PWM_Fan.c ****     * Parameters:
 606:Generated_Source\PSoC5/PWM_Fan.c ****     *  deadtime:  Number of counts for dead time
 607:Generated_Source\PSoC5/PWM_Fan.c ****     *
 608:Generated_Source\PSoC5/PWM_Fan.c ****     * Return:
 609:Generated_Source\PSoC5/PWM_Fan.c ****     *  None
 610:Generated_Source\PSoC5/PWM_Fan.c ****     *
 611:Generated_Source\PSoC5/PWM_Fan.c ****     *******************************************************************************/
 612:Generated_Source\PSoC5/PWM_Fan.c ****     void PWM_Fan_WriteDeadTime(uint8 deadtime) 
 613:Generated_Source\PSoC5/PWM_Fan.c ****     {
 614:Generated_Source\PSoC5/PWM_Fan.c ****         /* If using the Dead Band 1-255 mode then just write the register */
 615:Generated_Source\PSoC5/PWM_Fan.c ****         #if(!PWM_Fan_DeadBand2_4)
 616:Generated_Source\PSoC5/PWM_Fan.c ****             CY_SET_REG8(PWM_Fan_DEADBAND_COUNT_PTR, deadtime);
 617:Generated_Source\PSoC5/PWM_Fan.c ****         #else
 618:Generated_Source\PSoC5/PWM_Fan.c ****             /* Otherwise the data has to be masked and offset */
 619:Generated_Source\PSoC5/PWM_Fan.c ****             /* Clear existing data */
 620:Generated_Source\PSoC5/PWM_Fan.c ****             PWM_Fan_DEADBAND_COUNT &= ((uint8)(~PWM_Fan_DEADBAND_COUNT_MASK));
 621:Generated_Source\PSoC5/PWM_Fan.c **** 
 622:Generated_Source\PSoC5/PWM_Fan.c ****             /* Set new dead time */
 623:Generated_Source\PSoC5/PWM_Fan.c ****             #if(PWM_Fan_DEADBAND_COUNT_SHIFT)
 624:Generated_Source\PSoC5/PWM_Fan.c ****                 PWM_Fan_DEADBAND_COUNT |= ((uint8)((uint8)deadtime << PWM_Fan_DEADBAND_COUNT_SHIFT)
 625:Generated_Source\PSoC5/PWM_Fan.c ****                                                     PWM_Fan_DEADBAND_COUNT_MASK;
 626:Generated_Source\PSoC5/PWM_Fan.c ****             #else
 627:Generated_Source\PSoC5/PWM_Fan.c ****                 PWM_Fan_DEADBAND_COUNT |= deadtime & PWM_Fan_DEADBAND_COUNT_MASK;
 628:Generated_Source\PSoC5/PWM_Fan.c ****             #endif /* (PWM_Fan_DEADBAND_COUNT_SHIFT) */
 629:Generated_Source\PSoC5/PWM_Fan.c **** 
 630:Generated_Source\PSoC5/PWM_Fan.c ****         #endif /* (!PWM_Fan_DeadBand2_4) */
 631:Generated_Source\PSoC5/PWM_Fan.c ****     }
 632:Generated_Source\PSoC5/PWM_Fan.c **** 
 633:Generated_Source\PSoC5/PWM_Fan.c **** 
 634:Generated_Source\PSoC5/PWM_Fan.c ****     /*******************************************************************************
 635:Generated_Source\PSoC5/PWM_Fan.c ****     * Function Name: PWM_Fan_ReadDeadTime
 636:Generated_Source\PSoC5/PWM_Fan.c ****     ********************************************************************************
ARM GAS  C:\Users\KJA\AppData\Local\Temp\ccc2JwxF.s 			page 19


 637:Generated_Source\PSoC5/PWM_Fan.c ****     *
 638:Generated_Source\PSoC5/PWM_Fan.c ****     * Summary:
 639:Generated_Source\PSoC5/PWM_Fan.c ****     *  This function reads the dead-band counts from the corresponding register
 640:Generated_Source\PSoC5/PWM_Fan.c ****     *
 641:Generated_Source\PSoC5/PWM_Fan.c ****     * Parameters:
 642:Generated_Source\PSoC5/PWM_Fan.c ****     *  None
 643:Generated_Source\PSoC5/PWM_Fan.c ****     *
 644:Generated_Source\PSoC5/PWM_Fan.c ****     * Return:
 645:Generated_Source\PSoC5/PWM_Fan.c ****     *  Dead Band Counts
 646:Generated_Source\PSoC5/PWM_Fan.c ****     *
 647:Generated_Source\PSoC5/PWM_Fan.c ****     *******************************************************************************/
 648:Generated_Source\PSoC5/PWM_Fan.c ****     uint8 PWM_Fan_ReadDeadTime(void) 
 649:Generated_Source\PSoC5/PWM_Fan.c ****     {
 650:Generated_Source\PSoC5/PWM_Fan.c ****         /* If using the Dead Band 1-255 mode then just read the register */
 651:Generated_Source\PSoC5/PWM_Fan.c ****         #if(!PWM_Fan_DeadBand2_4)
 652:Generated_Source\PSoC5/PWM_Fan.c ****             return (CY_GET_REG8(PWM_Fan_DEADBAND_COUNT_PTR));
 653:Generated_Source\PSoC5/PWM_Fan.c ****         #else
 654:Generated_Source\PSoC5/PWM_Fan.c **** 
 655:Generated_Source\PSoC5/PWM_Fan.c ****             /* Otherwise the data has to be masked and offset */
 656:Generated_Source\PSoC5/PWM_Fan.c ****             #if(PWM_Fan_DEADBAND_COUNT_SHIFT)
 657:Generated_Source\PSoC5/PWM_Fan.c ****                 return ((uint8)(((uint8)(PWM_Fan_DEADBAND_COUNT & PWM_Fan_DEADBAND_COUNT_MASK)) >>
 658:Generated_Source\PSoC5/PWM_Fan.c ****                                                                            PWM_Fan_DEADBAND_COUNT_S
 659:Generated_Source\PSoC5/PWM_Fan.c ****             #else
 660:Generated_Source\PSoC5/PWM_Fan.c ****                 return (PWM_Fan_DEADBAND_COUNT & PWM_Fan_DEADBAND_COUNT_MASK);
 661:Generated_Source\PSoC5/PWM_Fan.c ****             #endif /* (PWM_Fan_DEADBAND_COUNT_SHIFT) */
 662:Generated_Source\PSoC5/PWM_Fan.c ****         #endif /* (!PWM_Fan_DeadBand2_4) */
 663:Generated_Source\PSoC5/PWM_Fan.c ****     }
 664:Generated_Source\PSoC5/PWM_Fan.c **** #endif /* DeadBandUsed */
 665:Generated_Source\PSoC5/PWM_Fan.c **** 
 666:Generated_Source\PSoC5/PWM_Fan.c **** #if (PWM_Fan_UseStatus || PWM_Fan_UsingFixedFunction)
 667:Generated_Source\PSoC5/PWM_Fan.c **** 
 668:Generated_Source\PSoC5/PWM_Fan.c **** 
 669:Generated_Source\PSoC5/PWM_Fan.c ****     /*******************************************************************************
 670:Generated_Source\PSoC5/PWM_Fan.c ****     * Function Name: PWM_Fan_SetInterruptMode
 671:Generated_Source\PSoC5/PWM_Fan.c ****     ********************************************************************************
 672:Generated_Source\PSoC5/PWM_Fan.c ****     *
 673:Generated_Source\PSoC5/PWM_Fan.c ****     * Summary:
 674:Generated_Source\PSoC5/PWM_Fan.c ****     *  This function configures the interrupts mask control of theinterrupt
 675:Generated_Source\PSoC5/PWM_Fan.c ****     *  source status register.
 676:Generated_Source\PSoC5/PWM_Fan.c ****     *
 677:Generated_Source\PSoC5/PWM_Fan.c ****     * Parameters:
 678:Generated_Source\PSoC5/PWM_Fan.c ****     *  uint8 interruptMode: Bit field containing the interrupt sources enabled
 679:Generated_Source\PSoC5/PWM_Fan.c ****     *
 680:Generated_Source\PSoC5/PWM_Fan.c ****     * Return:
 681:Generated_Source\PSoC5/PWM_Fan.c ****     *  None
 682:Generated_Source\PSoC5/PWM_Fan.c ****     *
 683:Generated_Source\PSoC5/PWM_Fan.c ****     *******************************************************************************/
 684:Generated_Source\PSoC5/PWM_Fan.c ****     void PWM_Fan_SetInterruptMode(uint8 interruptMode) 
 685:Generated_Source\PSoC5/PWM_Fan.c ****     {
 686:Generated_Source\PSoC5/PWM_Fan.c ****         CY_SET_REG8(PWM_Fan_STATUS_MASK_PTR, interruptMode);
 687:Generated_Source\PSoC5/PWM_Fan.c ****     }
 688:Generated_Source\PSoC5/PWM_Fan.c **** 
 689:Generated_Source\PSoC5/PWM_Fan.c **** 
 690:Generated_Source\PSoC5/PWM_Fan.c ****     /*******************************************************************************
 691:Generated_Source\PSoC5/PWM_Fan.c ****     * Function Name: PWM_Fan_ReadStatusRegister
 692:Generated_Source\PSoC5/PWM_Fan.c ****     ********************************************************************************
 693:Generated_Source\PSoC5/PWM_Fan.c ****     *
ARM GAS  C:\Users\KJA\AppData\Local\Temp\ccc2JwxF.s 			page 20


 694:Generated_Source\PSoC5/PWM_Fan.c ****     * Summary:
 695:Generated_Source\PSoC5/PWM_Fan.c ****     *  This function returns the current state of the status register.
 696:Generated_Source\PSoC5/PWM_Fan.c ****     *
 697:Generated_Source\PSoC5/PWM_Fan.c ****     * Parameters:
 698:Generated_Source\PSoC5/PWM_Fan.c ****     *  None
 699:Generated_Source\PSoC5/PWM_Fan.c ****     *
 700:Generated_Source\PSoC5/PWM_Fan.c ****     * Return:
 701:Generated_Source\PSoC5/PWM_Fan.c ****     *  uint8 : Current status register value. The status register bits are:
 702:Generated_Source\PSoC5/PWM_Fan.c ****     *  [7:6] : Unused(0)
 703:Generated_Source\PSoC5/PWM_Fan.c ****     *  [5]   : Kill event output
 704:Generated_Source\PSoC5/PWM_Fan.c ****     *  [4]   : FIFO not empty
 705:Generated_Source\PSoC5/PWM_Fan.c ****     *  [3]   : FIFO full
 706:Generated_Source\PSoC5/PWM_Fan.c ****     *  [2]   : Terminal count
 707:Generated_Source\PSoC5/PWM_Fan.c ****     *  [1]   : Compare output 2
 708:Generated_Source\PSoC5/PWM_Fan.c ****     *  [0]   : Compare output 1
 709:Generated_Source\PSoC5/PWM_Fan.c ****     *
 710:Generated_Source\PSoC5/PWM_Fan.c ****     *******************************************************************************/
 711:Generated_Source\PSoC5/PWM_Fan.c ****     uint8 PWM_Fan_ReadStatusRegister(void) 
 712:Generated_Source\PSoC5/PWM_Fan.c ****     {
 713:Generated_Source\PSoC5/PWM_Fan.c ****         return (CY_GET_REG8(PWM_Fan_STATUS_PTR));
 714:Generated_Source\PSoC5/PWM_Fan.c ****     }
 715:Generated_Source\PSoC5/PWM_Fan.c **** 
 716:Generated_Source\PSoC5/PWM_Fan.c **** #endif /* (PWM_Fan_UseStatus || PWM_Fan_UsingFixedFunction) */
 717:Generated_Source\PSoC5/PWM_Fan.c **** 
 718:Generated_Source\PSoC5/PWM_Fan.c **** 
 719:Generated_Source\PSoC5/PWM_Fan.c **** #if (PWM_Fan_UseControl)
 720:Generated_Source\PSoC5/PWM_Fan.c **** 
 721:Generated_Source\PSoC5/PWM_Fan.c **** 
 722:Generated_Source\PSoC5/PWM_Fan.c ****     /*******************************************************************************
 723:Generated_Source\PSoC5/PWM_Fan.c ****     * Function Name: PWM_Fan_ReadControlRegister
 724:Generated_Source\PSoC5/PWM_Fan.c ****     ********************************************************************************
 725:Generated_Source\PSoC5/PWM_Fan.c ****     *
 726:Generated_Source\PSoC5/PWM_Fan.c ****     * Summary:
 727:Generated_Source\PSoC5/PWM_Fan.c ****     *  Returns the current state of the control register. This API is available
 728:Generated_Source\PSoC5/PWM_Fan.c ****     *  only if the control register is not removed.
 729:Generated_Source\PSoC5/PWM_Fan.c ****     *
 730:Generated_Source\PSoC5/PWM_Fan.c ****     * Parameters:
 731:Generated_Source\PSoC5/PWM_Fan.c ****     *  None
 732:Generated_Source\PSoC5/PWM_Fan.c ****     *
 733:Generated_Source\PSoC5/PWM_Fan.c ****     * Return:
 734:Generated_Source\PSoC5/PWM_Fan.c ****     *  uint8 : Current control register value
 735:Generated_Source\PSoC5/PWM_Fan.c ****     *
 736:Generated_Source\PSoC5/PWM_Fan.c ****     *******************************************************************************/
 737:Generated_Source\PSoC5/PWM_Fan.c ****     uint8 PWM_Fan_ReadControlRegister(void) 
 738:Generated_Source\PSoC5/PWM_Fan.c ****     {
 391              		.loc 1 738 0
 392              		.cfi_startproc
 393              		@ args = 0, pretend = 0, frame = 8
 394              		@ frame_needed = 1, uses_anonymous_args = 0
 395              		@ link register save eliminated.
 396 0000 80B4     		push	{r7}
 397              		.cfi_def_cfa_offset 4
 398              		.cfi_offset 7, -4
 399 0002 83B0     		sub	sp, sp, #12
 400              		.cfi_def_cfa_offset 16
 401 0004 00AF     		add	r7, sp, #0
 402              		.cfi_def_cfa_register 7
ARM GAS  C:\Users\KJA\AppData\Local\Temp\ccc2JwxF.s 			page 21


 739:Generated_Source\PSoC5/PWM_Fan.c ****         uint8 result;
 740:Generated_Source\PSoC5/PWM_Fan.c **** 
 741:Generated_Source\PSoC5/PWM_Fan.c ****         result = CY_GET_REG8(PWM_Fan_CONTROL_PTR);
 403              		.loc 1 741 0
 404 0006 054B     		ldr	r3, .L29
 405 0008 1B78     		ldrb	r3, [r3]
 406 000a FB71     		strb	r3, [r7, #7]
 742:Generated_Source\PSoC5/PWM_Fan.c ****         return (result);
 407              		.loc 1 742 0
 408 000c FB79     		ldrb	r3, [r7, #7]	@ zero_extendqisi2
 743:Generated_Source\PSoC5/PWM_Fan.c ****     }
 409              		.loc 1 743 0
 410 000e 1846     		mov	r0, r3
 411 0010 0C37     		adds	r7, r7, #12
 412              		.cfi_def_cfa_offset 4
 413 0012 BD46     		mov	sp, r7
 414              		.cfi_def_cfa_register 13
 415              		@ sp needed
 416 0014 5DF8047B 		ldr	r7, [sp], #4
 417              		.cfi_restore 7
 418              		.cfi_def_cfa_offset 0
 419 0018 7047     		bx	lr
 420              	.L30:
 421 001a 00BF     		.align	2
 422              	.L29:
 423 001c 76650040 		.word	1073767798
 424              		.cfi_endproc
 425              	.LFE8:
 426              		.size	PWM_Fan_ReadControlRegister, .-PWM_Fan_ReadControlRegister
 427              		.section	.text.PWM_Fan_WriteControlRegister,"ax",%progbits
 428              		.align	2
 429              		.global	PWM_Fan_WriteControlRegister
 430              		.thumb
 431              		.thumb_func
 432              		.type	PWM_Fan_WriteControlRegister, %function
 433              	PWM_Fan_WriteControlRegister:
 434              	.LFB9:
 744:Generated_Source\PSoC5/PWM_Fan.c **** 
 745:Generated_Source\PSoC5/PWM_Fan.c **** 
 746:Generated_Source\PSoC5/PWM_Fan.c ****     /*******************************************************************************
 747:Generated_Source\PSoC5/PWM_Fan.c ****     * Function Name: PWM_Fan_WriteControlRegister
 748:Generated_Source\PSoC5/PWM_Fan.c ****     ********************************************************************************
 749:Generated_Source\PSoC5/PWM_Fan.c ****     *
 750:Generated_Source\PSoC5/PWM_Fan.c ****     * Summary:
 751:Generated_Source\PSoC5/PWM_Fan.c ****     *  Sets the bit field of the control register. This API is available only if
 752:Generated_Source\PSoC5/PWM_Fan.c ****     *  the control register is not removed.
 753:Generated_Source\PSoC5/PWM_Fan.c ****     *
 754:Generated_Source\PSoC5/PWM_Fan.c ****     * Parameters:
 755:Generated_Source\PSoC5/PWM_Fan.c ****     *  uint8 control: Control register bit field, The status register bits are:
 756:Generated_Source\PSoC5/PWM_Fan.c ****     *  [7]   : PWM Enable
 757:Generated_Source\PSoC5/PWM_Fan.c ****     *  [6]   : Reset
 758:Generated_Source\PSoC5/PWM_Fan.c ****     *  [5:3] : Compare Mode2
 759:Generated_Source\PSoC5/PWM_Fan.c ****     *  [2:0] : Compare Mode2
 760:Generated_Source\PSoC5/PWM_Fan.c ****     *
 761:Generated_Source\PSoC5/PWM_Fan.c ****     * Return:
 762:Generated_Source\PSoC5/PWM_Fan.c ****     *  None
 763:Generated_Source\PSoC5/PWM_Fan.c ****     *
ARM GAS  C:\Users\KJA\AppData\Local\Temp\ccc2JwxF.s 			page 22


 764:Generated_Source\PSoC5/PWM_Fan.c ****     *******************************************************************************/
 765:Generated_Source\PSoC5/PWM_Fan.c ****     void PWM_Fan_WriteControlRegister(uint8 control) 
 766:Generated_Source\PSoC5/PWM_Fan.c ****     {
 435              		.loc 1 766 0
 436              		.cfi_startproc
 437              		@ args = 0, pretend = 0, frame = 8
 438              		@ frame_needed = 1, uses_anonymous_args = 0
 439              		@ link register save eliminated.
 440 0000 80B4     		push	{r7}
 441              		.cfi_def_cfa_offset 4
 442              		.cfi_offset 7, -4
 443 0002 83B0     		sub	sp, sp, #12
 444              		.cfi_def_cfa_offset 16
 445 0004 00AF     		add	r7, sp, #0
 446              		.cfi_def_cfa_register 7
 447 0006 0346     		mov	r3, r0
 448 0008 FB71     		strb	r3, [r7, #7]
 767:Generated_Source\PSoC5/PWM_Fan.c ****         CY_SET_REG8(PWM_Fan_CONTROL_PTR, control);
 449              		.loc 1 767 0
 450 000a 044A     		ldr	r2, .L32
 451 000c FB79     		ldrb	r3, [r7, #7]
 452 000e 1370     		strb	r3, [r2]
 768:Generated_Source\PSoC5/PWM_Fan.c ****     }
 453              		.loc 1 768 0
 454 0010 0C37     		adds	r7, r7, #12
 455              		.cfi_def_cfa_offset 4
 456 0012 BD46     		mov	sp, r7
 457              		.cfi_def_cfa_register 13
 458              		@ sp needed
 459 0014 5DF8047B 		ldr	r7, [sp], #4
 460              		.cfi_restore 7
 461              		.cfi_def_cfa_offset 0
 462 0018 7047     		bx	lr
 463              	.L33:
 464 001a 00BF     		.align	2
 465              	.L32:
 466 001c 76650040 		.word	1073767798
 467              		.cfi_endproc
 468              	.LFE9:
 469              		.size	PWM_Fan_WriteControlRegister, .-PWM_Fan_WriteControlRegister
 470              		.section	.text.PWM_Fan_ReadCapture,"ax",%progbits
 471              		.align	2
 472              		.global	PWM_Fan_ReadCapture
 473              		.thumb
 474              		.thumb_func
 475              		.type	PWM_Fan_ReadCapture, %function
 476              	PWM_Fan_ReadCapture:
 477              	.LFB10:
 769:Generated_Source\PSoC5/PWM_Fan.c **** 
 770:Generated_Source\PSoC5/PWM_Fan.c **** #endif /* (PWM_Fan_UseControl) */
 771:Generated_Source\PSoC5/PWM_Fan.c **** 
 772:Generated_Source\PSoC5/PWM_Fan.c **** 
 773:Generated_Source\PSoC5/PWM_Fan.c **** #if (!PWM_Fan_UsingFixedFunction)
 774:Generated_Source\PSoC5/PWM_Fan.c **** 
 775:Generated_Source\PSoC5/PWM_Fan.c **** 
 776:Generated_Source\PSoC5/PWM_Fan.c ****     /*******************************************************************************
 777:Generated_Source\PSoC5/PWM_Fan.c ****     * Function Name: PWM_Fan_ReadCapture
ARM GAS  C:\Users\KJA\AppData\Local\Temp\ccc2JwxF.s 			page 23


 778:Generated_Source\PSoC5/PWM_Fan.c ****     ********************************************************************************
 779:Generated_Source\PSoC5/PWM_Fan.c ****     *
 780:Generated_Source\PSoC5/PWM_Fan.c ****     * Summary:
 781:Generated_Source\PSoC5/PWM_Fan.c ****     *  Reads the capture value from the capture FIFO.
 782:Generated_Source\PSoC5/PWM_Fan.c ****     *
 783:Generated_Source\PSoC5/PWM_Fan.c ****     * Parameters:
 784:Generated_Source\PSoC5/PWM_Fan.c ****     *  None
 785:Generated_Source\PSoC5/PWM_Fan.c ****     *
 786:Generated_Source\PSoC5/PWM_Fan.c ****     * Return:
 787:Generated_Source\PSoC5/PWM_Fan.c ****     *  uint8/uint16: The current capture value
 788:Generated_Source\PSoC5/PWM_Fan.c ****     *
 789:Generated_Source\PSoC5/PWM_Fan.c ****     *******************************************************************************/
 790:Generated_Source\PSoC5/PWM_Fan.c ****     uint8 PWM_Fan_ReadCapture(void) 
 791:Generated_Source\PSoC5/PWM_Fan.c ****     {
 478              		.loc 1 791 0
 479              		.cfi_startproc
 480              		@ args = 0, pretend = 0, frame = 0
 481              		@ frame_needed = 1, uses_anonymous_args = 0
 482              		@ link register save eliminated.
 483 0000 80B4     		push	{r7}
 484              		.cfi_def_cfa_offset 4
 485              		.cfi_offset 7, -4
 486 0002 00AF     		add	r7, sp, #0
 487              		.cfi_def_cfa_register 7
 792:Generated_Source\PSoC5/PWM_Fan.c ****         return (CY_GET_REG8(PWM_Fan_CAPTURE_LSB_PTR));
 488              		.loc 1 792 0
 489 0004 034B     		ldr	r3, .L36
 490 0006 1B78     		ldrb	r3, [r3]
 491 0008 DBB2     		uxtb	r3, r3
 793:Generated_Source\PSoC5/PWM_Fan.c ****     }
 492              		.loc 1 793 0
 493 000a 1846     		mov	r0, r3
 494 000c BD46     		mov	sp, r7
 495              		.cfi_def_cfa_register 13
 496              		@ sp needed
 497 000e 5DF8047B 		ldr	r7, [sp], #4
 498              		.cfi_restore 7
 499              		.cfi_def_cfa_offset 0
 500 0012 7047     		bx	lr
 501              	.L37:
 502              		.align	2
 503              	.L36:
 504 0014 51640040 		.word	1073767505
 505              		.cfi_endproc
 506              	.LFE10:
 507              		.size	PWM_Fan_ReadCapture, .-PWM_Fan_ReadCapture
 508              		.section	.text.PWM_Fan_ReadCompare,"ax",%progbits
 509              		.align	2
 510              		.global	PWM_Fan_ReadCompare
 511              		.thumb
 512              		.thumb_func
 513              		.type	PWM_Fan_ReadCompare, %function
 514              	PWM_Fan_ReadCompare:
 515              	.LFB11:
 794:Generated_Source\PSoC5/PWM_Fan.c **** 
 795:Generated_Source\PSoC5/PWM_Fan.c **** #endif /* (!PWM_Fan_UsingFixedFunction) */
 796:Generated_Source\PSoC5/PWM_Fan.c **** 
ARM GAS  C:\Users\KJA\AppData\Local\Temp\ccc2JwxF.s 			page 24


 797:Generated_Source\PSoC5/PWM_Fan.c **** 
 798:Generated_Source\PSoC5/PWM_Fan.c **** #if (PWM_Fan_UseOneCompareMode)
 799:Generated_Source\PSoC5/PWM_Fan.c **** 
 800:Generated_Source\PSoC5/PWM_Fan.c **** 
 801:Generated_Source\PSoC5/PWM_Fan.c ****     /*******************************************************************************
 802:Generated_Source\PSoC5/PWM_Fan.c ****     * Function Name: PWM_Fan_ReadCompare
 803:Generated_Source\PSoC5/PWM_Fan.c ****     ********************************************************************************
 804:Generated_Source\PSoC5/PWM_Fan.c ****     *
 805:Generated_Source\PSoC5/PWM_Fan.c ****     * Summary:
 806:Generated_Source\PSoC5/PWM_Fan.c ****     *  Reads the compare value for the compare output when the PWM Mode parameter is
 807:Generated_Source\PSoC5/PWM_Fan.c ****     *  set to Dither mode, Center Aligned mode, or One Output mode.
 808:Generated_Source\PSoC5/PWM_Fan.c ****     *
 809:Generated_Source\PSoC5/PWM_Fan.c ****     * Parameters:
 810:Generated_Source\PSoC5/PWM_Fan.c ****     *  None
 811:Generated_Source\PSoC5/PWM_Fan.c ****     *
 812:Generated_Source\PSoC5/PWM_Fan.c ****     * Return:
 813:Generated_Source\PSoC5/PWM_Fan.c ****     *  uint8/uint16: Current compare value
 814:Generated_Source\PSoC5/PWM_Fan.c ****     *
 815:Generated_Source\PSoC5/PWM_Fan.c ****     *******************************************************************************/
 816:Generated_Source\PSoC5/PWM_Fan.c ****     uint8 PWM_Fan_ReadCompare(void) 
 817:Generated_Source\PSoC5/PWM_Fan.c ****     {
 516              		.loc 1 817 0
 517              		.cfi_startproc
 518              		@ args = 0, pretend = 0, frame = 0
 519              		@ frame_needed = 1, uses_anonymous_args = 0
 520              		@ link register save eliminated.
 521 0000 80B4     		push	{r7}
 522              		.cfi_def_cfa_offset 4
 523              		.cfi_offset 7, -4
 524 0002 00AF     		add	r7, sp, #0
 525              		.cfi_def_cfa_register 7
 818:Generated_Source\PSoC5/PWM_Fan.c ****         #if(PWM_Fan_UsingFixedFunction)
 819:Generated_Source\PSoC5/PWM_Fan.c ****             return ((uint8)CY_GET_REG16(PWM_Fan_COMPARE1_LSB_PTR));
 820:Generated_Source\PSoC5/PWM_Fan.c ****         #else
 821:Generated_Source\PSoC5/PWM_Fan.c ****             return (CY_GET_REG8(PWM_Fan_COMPARE1_LSB_PTR));
 526              		.loc 1 821 0
 527 0004 034B     		ldr	r3, .L40
 528 0006 1B78     		ldrb	r3, [r3]
 529 0008 DBB2     		uxtb	r3, r3
 822:Generated_Source\PSoC5/PWM_Fan.c ****         #endif /* (PWM_Fan_UsingFixedFunction) */
 823:Generated_Source\PSoC5/PWM_Fan.c ****     }
 530              		.loc 1 823 0
 531 000a 1846     		mov	r0, r3
 532 000c BD46     		mov	sp, r7
 533              		.cfi_def_cfa_register 13
 534              		@ sp needed
 535 000e 5DF8047B 		ldr	r7, [sp], #4
 536              		.cfi_restore 7
 537              		.cfi_def_cfa_offset 0
 538 0012 7047     		bx	lr
 539              	.L41:
 540              		.align	2
 541              	.L40:
 542 0014 21640040 		.word	1073767457
 543              		.cfi_endproc
 544              	.LFE11:
 545              		.size	PWM_Fan_ReadCompare, .-PWM_Fan_ReadCompare
ARM GAS  C:\Users\KJA\AppData\Local\Temp\ccc2JwxF.s 			page 25


 546              		.section	.text.PWM_Fan_ReadPeriod,"ax",%progbits
 547              		.align	2
 548              		.global	PWM_Fan_ReadPeriod
 549              		.thumb
 550              		.thumb_func
 551              		.type	PWM_Fan_ReadPeriod, %function
 552              	PWM_Fan_ReadPeriod:
 553              	.LFB12:
 824:Generated_Source\PSoC5/PWM_Fan.c **** 
 825:Generated_Source\PSoC5/PWM_Fan.c **** #else
 826:Generated_Source\PSoC5/PWM_Fan.c **** 
 827:Generated_Source\PSoC5/PWM_Fan.c **** 
 828:Generated_Source\PSoC5/PWM_Fan.c ****     /*******************************************************************************
 829:Generated_Source\PSoC5/PWM_Fan.c ****     * Function Name: PWM_Fan_ReadCompare1
 830:Generated_Source\PSoC5/PWM_Fan.c ****     ********************************************************************************
 831:Generated_Source\PSoC5/PWM_Fan.c ****     *
 832:Generated_Source\PSoC5/PWM_Fan.c ****     * Summary:
 833:Generated_Source\PSoC5/PWM_Fan.c ****     *  Reads the compare value for the compare1 output.
 834:Generated_Source\PSoC5/PWM_Fan.c ****     *
 835:Generated_Source\PSoC5/PWM_Fan.c ****     * Parameters:
 836:Generated_Source\PSoC5/PWM_Fan.c ****     *  None
 837:Generated_Source\PSoC5/PWM_Fan.c ****     *
 838:Generated_Source\PSoC5/PWM_Fan.c ****     * Return:
 839:Generated_Source\PSoC5/PWM_Fan.c ****     *  uint8/uint16: Current compare value.
 840:Generated_Source\PSoC5/PWM_Fan.c ****     *
 841:Generated_Source\PSoC5/PWM_Fan.c ****     *******************************************************************************/
 842:Generated_Source\PSoC5/PWM_Fan.c ****     uint8 PWM_Fan_ReadCompare1(void) 
 843:Generated_Source\PSoC5/PWM_Fan.c ****     {
 844:Generated_Source\PSoC5/PWM_Fan.c ****         return (CY_GET_REG8(PWM_Fan_COMPARE1_LSB_PTR));
 845:Generated_Source\PSoC5/PWM_Fan.c ****     }
 846:Generated_Source\PSoC5/PWM_Fan.c **** 
 847:Generated_Source\PSoC5/PWM_Fan.c **** 
 848:Generated_Source\PSoC5/PWM_Fan.c ****     /*******************************************************************************
 849:Generated_Source\PSoC5/PWM_Fan.c ****     * Function Name: PWM_Fan_ReadCompare2
 850:Generated_Source\PSoC5/PWM_Fan.c ****     ********************************************************************************
 851:Generated_Source\PSoC5/PWM_Fan.c ****     *
 852:Generated_Source\PSoC5/PWM_Fan.c ****     * Summary:
 853:Generated_Source\PSoC5/PWM_Fan.c ****     *  Reads the compare value for the compare2 output.
 854:Generated_Source\PSoC5/PWM_Fan.c ****     *
 855:Generated_Source\PSoC5/PWM_Fan.c ****     * Parameters:
 856:Generated_Source\PSoC5/PWM_Fan.c ****     *  None
 857:Generated_Source\PSoC5/PWM_Fan.c ****     *
 858:Generated_Source\PSoC5/PWM_Fan.c ****     * Return:
 859:Generated_Source\PSoC5/PWM_Fan.c ****     *  uint8/uint16: Current compare value.
 860:Generated_Source\PSoC5/PWM_Fan.c ****     *
 861:Generated_Source\PSoC5/PWM_Fan.c ****     *******************************************************************************/
 862:Generated_Source\PSoC5/PWM_Fan.c ****     uint8 PWM_Fan_ReadCompare2(void) 
 863:Generated_Source\PSoC5/PWM_Fan.c ****     {
 864:Generated_Source\PSoC5/PWM_Fan.c ****         return (CY_GET_REG8(PWM_Fan_COMPARE2_LSB_PTR));
 865:Generated_Source\PSoC5/PWM_Fan.c ****     }
 866:Generated_Source\PSoC5/PWM_Fan.c **** 
 867:Generated_Source\PSoC5/PWM_Fan.c **** #endif /* (PWM_Fan_UseOneCompareMode) */
 868:Generated_Source\PSoC5/PWM_Fan.c **** 
 869:Generated_Source\PSoC5/PWM_Fan.c **** 
 870:Generated_Source\PSoC5/PWM_Fan.c **** /*******************************************************************************
 871:Generated_Source\PSoC5/PWM_Fan.c **** * Function Name: PWM_Fan_ReadPeriod
 872:Generated_Source\PSoC5/PWM_Fan.c **** ********************************************************************************
ARM GAS  C:\Users\KJA\AppData\Local\Temp\ccc2JwxF.s 			page 26


 873:Generated_Source\PSoC5/PWM_Fan.c **** *
 874:Generated_Source\PSoC5/PWM_Fan.c **** * Summary:
 875:Generated_Source\PSoC5/PWM_Fan.c **** *  Reads the period value used by the PWM hardware.
 876:Generated_Source\PSoC5/PWM_Fan.c **** *
 877:Generated_Source\PSoC5/PWM_Fan.c **** * Parameters:
 878:Generated_Source\PSoC5/PWM_Fan.c **** *  None
 879:Generated_Source\PSoC5/PWM_Fan.c **** *
 880:Generated_Source\PSoC5/PWM_Fan.c **** * Return:
 881:Generated_Source\PSoC5/PWM_Fan.c **** *  uint8/16: Period value
 882:Generated_Source\PSoC5/PWM_Fan.c **** *
 883:Generated_Source\PSoC5/PWM_Fan.c **** *******************************************************************************/
 884:Generated_Source\PSoC5/PWM_Fan.c **** uint8 PWM_Fan_ReadPeriod(void) 
 885:Generated_Source\PSoC5/PWM_Fan.c **** {
 554              		.loc 1 885 0
 555              		.cfi_startproc
 556              		@ args = 0, pretend = 0, frame = 0
 557              		@ frame_needed = 1, uses_anonymous_args = 0
 558              		@ link register save eliminated.
 559 0000 80B4     		push	{r7}
 560              		.cfi_def_cfa_offset 4
 561              		.cfi_offset 7, -4
 562 0002 00AF     		add	r7, sp, #0
 563              		.cfi_def_cfa_register 7
 886:Generated_Source\PSoC5/PWM_Fan.c ****     #if(PWM_Fan_UsingFixedFunction)
 887:Generated_Source\PSoC5/PWM_Fan.c ****         return ((uint8)CY_GET_REG16(PWM_Fan_PERIOD_LSB_PTR));
 888:Generated_Source\PSoC5/PWM_Fan.c ****     #else
 889:Generated_Source\PSoC5/PWM_Fan.c ****         return (CY_GET_REG8(PWM_Fan_PERIOD_LSB_PTR));
 564              		.loc 1 889 0
 565 0004 034B     		ldr	r3, .L44
 566 0006 1B78     		ldrb	r3, [r3]
 567 0008 DBB2     		uxtb	r3, r3
 890:Generated_Source\PSoC5/PWM_Fan.c ****     #endif /* (PWM_Fan_UsingFixedFunction) */
 891:Generated_Source\PSoC5/PWM_Fan.c **** }
 568              		.loc 1 891 0
 569 000a 1846     		mov	r0, r3
 570 000c BD46     		mov	sp, r7
 571              		.cfi_def_cfa_register 13
 572              		@ sp needed
 573 000e 5DF8047B 		ldr	r7, [sp], #4
 574              		.cfi_restore 7
 575              		.cfi_def_cfa_offset 0
 576 0012 7047     		bx	lr
 577              	.L45:
 578              		.align	2
 579              	.L44:
 580 0014 41640040 		.word	1073767489
 581              		.cfi_endproc
 582              	.LFE12:
 583              		.size	PWM_Fan_ReadPeriod, .-PWM_Fan_ReadPeriod
 584              		.text
 585              	.Letext0:
 586              		.file 2 "Generated_Source\\PSoC5\\cytypes.h"