ARM GAS  C:\Users\KJA\AppData\Local\Temp\ccioaeQo.s 			page 1


   1              		.syntax unified
   2              		.cpu cortex-m3
   3              		.fpu softvfp
   4              		.eabi_attribute 20, 1
   5              		.eabi_attribute 21, 1
   6              		.eabi_attribute 23, 3
   7              		.eabi_attribute 24, 1
   8              		.eabi_attribute 25, 1
   9              		.eabi_attribute 26, 1
  10              		.eabi_attribute 30, 6
  11              		.eabi_attribute 34, 1
  12              		.eabi_attribute 18, 4
  13              		.thumb
  14              		.file	"QD_PM.c"
  15              		.text
  16              	.Ltext0:
  17              		.cfi_sections	.debug_frame
  18              		.bss
  19              		.align	2
  20              	QD_backup:
  21 0000 00       		.space	1
  22 0001 000000   		.section	.text.QD_SaveConfig,"ax",%progbits
  23              		.align	2
  24              		.global	QD_SaveConfig
  25              		.thumb
  26              		.thumb_func
  27              		.type	QD_SaveConfig, %function
  28              	QD_SaveConfig:
  29              	.LFB0:
  30              		.file 1 "Generated_Source\\PSoC5\\QD_PM.c"
   1:Generated_Source\PSoC5/QD_PM.c **** /*******************************************************************************
   2:Generated_Source\PSoC5/QD_PM.c **** * File Name: QD_PM.c
   3:Generated_Source\PSoC5/QD_PM.c **** * Version 3.0
   4:Generated_Source\PSoC5/QD_PM.c **** *
   5:Generated_Source\PSoC5/QD_PM.c **** * Description:
   6:Generated_Source\PSoC5/QD_PM.c **** *  This file contains the setup, control and status commands to support 
   7:Generated_Source\PSoC5/QD_PM.c **** *  component operations in low power mode.  
   8:Generated_Source\PSoC5/QD_PM.c **** *
   9:Generated_Source\PSoC5/QD_PM.c **** * Note:
  10:Generated_Source\PSoC5/QD_PM.c **** *  None.
  11:Generated_Source\PSoC5/QD_PM.c **** *
  12:Generated_Source\PSoC5/QD_PM.c **** ********************************************************************************
  13:Generated_Source\PSoC5/QD_PM.c **** * Copyright 2008-2014, Cypress Semiconductor Corporation.  All rights reserved.
  14:Generated_Source\PSoC5/QD_PM.c **** * You may use this file only in accordance with the license, terms, conditions,
  15:Generated_Source\PSoC5/QD_PM.c **** * disclaimers, and limitations in the end user license agreement accompanying
  16:Generated_Source\PSoC5/QD_PM.c **** * the software package with which this file was provided.
  17:Generated_Source\PSoC5/QD_PM.c **** *******************************************************************************/
  18:Generated_Source\PSoC5/QD_PM.c **** 
  19:Generated_Source\PSoC5/QD_PM.c **** #include "QD.h"
  20:Generated_Source\PSoC5/QD_PM.c **** 
  21:Generated_Source\PSoC5/QD_PM.c **** static QD_BACKUP_STRUCT QD_backup = {0u};
  22:Generated_Source\PSoC5/QD_PM.c **** 
  23:Generated_Source\PSoC5/QD_PM.c **** 
  24:Generated_Source\PSoC5/QD_PM.c **** /*******************************************************************************
  25:Generated_Source\PSoC5/QD_PM.c **** * Function Name: QD_SaveConfig
  26:Generated_Source\PSoC5/QD_PM.c **** ********************************************************************************
  27:Generated_Source\PSoC5/QD_PM.c **** * Summary:
ARM GAS  C:\Users\KJA\AppData\Local\Temp\ccioaeQo.s 			page 2


  28:Generated_Source\PSoC5/QD_PM.c **** *  Saves the current user configuration of the component.
  29:Generated_Source\PSoC5/QD_PM.c **** *
  30:Generated_Source\PSoC5/QD_PM.c **** * Parameters:
  31:Generated_Source\PSoC5/QD_PM.c **** *  None.
  32:Generated_Source\PSoC5/QD_PM.c **** *
  33:Generated_Source\PSoC5/QD_PM.c **** * Return:
  34:Generated_Source\PSoC5/QD_PM.c **** *  None.
  35:Generated_Source\PSoC5/QD_PM.c **** *
  36:Generated_Source\PSoC5/QD_PM.c **** *******************************************************************************/
  37:Generated_Source\PSoC5/QD_PM.c **** void QD_SaveConfig(void) 
  38:Generated_Source\PSoC5/QD_PM.c **** {
  31              		.loc 1 38 0
  32              		.cfi_startproc
  33              		@ args = 0, pretend = 0, frame = 0
  34              		@ frame_needed = 1, uses_anonymous_args = 0
  35 0000 80B5     		push	{r7, lr}
  36              		.cfi_def_cfa_offset 8
  37              		.cfi_offset 7, -8
  38              		.cfi_offset 14, -4
  39 0002 00AF     		add	r7, sp, #0
  40              		.cfi_def_cfa_register 7
  39:Generated_Source\PSoC5/QD_PM.c ****     #if (QD_COUNTER_SIZE == QD_COUNTER_SIZE_8_BIT)
  40:Generated_Source\PSoC5/QD_PM.c ****         QD_Cnt8_SaveConfig();
  41:Generated_Source\PSoC5/QD_PM.c ****     #else 
  42:Generated_Source\PSoC5/QD_PM.c ****         /* (QD_COUNTER_SIZE == QD_COUNTER_SIZE_16_BIT) || 
  43:Generated_Source\PSoC5/QD_PM.c ****          * (QD_COUNTER_SIZE == QD_COUNTER_SIZE_32_BIT)
  44:Generated_Source\PSoC5/QD_PM.c ****          */
  45:Generated_Source\PSoC5/QD_PM.c ****         QD_Cnt16_SaveConfig();
  41              		.loc 1 45 0
  42 0004 FFF7FEFF 		bl	QD_Cnt16_SaveConfig
  46:Generated_Source\PSoC5/QD_PM.c ****     #endif /* (QD_COUNTER_SIZE == QD_COUNTER_SIZE_8_BIT) */
  47:Generated_Source\PSoC5/QD_PM.c **** }
  43              		.loc 1 47 0
  44 0008 80BD     		pop	{r7, pc}
  45              		.cfi_endproc
  46              	.LFE0:
  47              		.size	QD_SaveConfig, .-QD_SaveConfig
  48 000a 00BF     		.section	.text.QD_RestoreConfig,"ax",%progbits
  49              		.align	2
  50              		.global	QD_RestoreConfig
  51              		.thumb
  52              		.thumb_func
  53              		.type	QD_RestoreConfig, %function
  54              	QD_RestoreConfig:
  55              	.LFB1:
  48:Generated_Source\PSoC5/QD_PM.c **** 
  49:Generated_Source\PSoC5/QD_PM.c **** 
  50:Generated_Source\PSoC5/QD_PM.c **** /*******************************************************************************
  51:Generated_Source\PSoC5/QD_PM.c **** * Function Name: QD_RestoreConfig
  52:Generated_Source\PSoC5/QD_PM.c **** ********************************************************************************
  53:Generated_Source\PSoC5/QD_PM.c **** * Summary:
  54:Generated_Source\PSoC5/QD_PM.c **** *  Restores the current user configuration of the component.
  55:Generated_Source\PSoC5/QD_PM.c **** *
  56:Generated_Source\PSoC5/QD_PM.c **** * Parameters:
  57:Generated_Source\PSoC5/QD_PM.c **** *  None.
  58:Generated_Source\PSoC5/QD_PM.c **** *
  59:Generated_Source\PSoC5/QD_PM.c **** * Return:
ARM GAS  C:\Users\KJA\AppData\Local\Temp\ccioaeQo.s 			page 3


  60:Generated_Source\PSoC5/QD_PM.c **** *  None.
  61:Generated_Source\PSoC5/QD_PM.c **** *
  62:Generated_Source\PSoC5/QD_PM.c **** *******************************************************************************/
  63:Generated_Source\PSoC5/QD_PM.c **** void QD_RestoreConfig(void) 
  64:Generated_Source\PSoC5/QD_PM.c **** {
  56              		.loc 1 64 0
  57              		.cfi_startproc
  58              		@ args = 0, pretend = 0, frame = 0
  59              		@ frame_needed = 1, uses_anonymous_args = 0
  60 0000 80B5     		push	{r7, lr}
  61              		.cfi_def_cfa_offset 8
  62              		.cfi_offset 7, -8
  63              		.cfi_offset 14, -4
  64 0002 00AF     		add	r7, sp, #0
  65              		.cfi_def_cfa_register 7
  65:Generated_Source\PSoC5/QD_PM.c ****     #if (QD_COUNTER_SIZE == QD_COUNTER_SIZE_8_BIT)
  66:Generated_Source\PSoC5/QD_PM.c ****         QD_Cnt8_RestoreConfig();
  67:Generated_Source\PSoC5/QD_PM.c ****     #else 
  68:Generated_Source\PSoC5/QD_PM.c ****         /* (QD_COUNTER_SIZE == QD_COUNTER_SIZE_16_BIT) || 
  69:Generated_Source\PSoC5/QD_PM.c ****          * (QD_COUNTER_SIZE == QD_COUNTER_SIZE_32_BIT) 
  70:Generated_Source\PSoC5/QD_PM.c ****          */
  71:Generated_Source\PSoC5/QD_PM.c ****         QD_Cnt16_RestoreConfig();
  66              		.loc 1 71 0
  67 0004 FFF7FEFF 		bl	QD_Cnt16_RestoreConfig
  72:Generated_Source\PSoC5/QD_PM.c ****     #endif /* (QD_COUNTER_SIZE == QD_COUNTER_SIZE_8_BIT) */
  73:Generated_Source\PSoC5/QD_PM.c **** }
  68              		.loc 1 73 0
  69 0008 80BD     		pop	{r7, pc}
  70              		.cfi_endproc
  71              	.LFE1:
  72              		.size	QD_RestoreConfig, .-QD_RestoreConfig
  73 000a 00BF     		.section	.text.QD_Sleep,"ax",%progbits
  74              		.align	2
  75              		.global	QD_Sleep
  76              		.thumb
  77              		.thumb_func
  78              		.type	QD_Sleep, %function
  79              	QD_Sleep:
  80              	.LFB2:
  74:Generated_Source\PSoC5/QD_PM.c **** 
  75:Generated_Source\PSoC5/QD_PM.c **** 
  76:Generated_Source\PSoC5/QD_PM.c **** /*******************************************************************************
  77:Generated_Source\PSoC5/QD_PM.c **** * Function Name: QD_Sleep
  78:Generated_Source\PSoC5/QD_PM.c **** ********************************************************************************
  79:Generated_Source\PSoC5/QD_PM.c **** * 
  80:Generated_Source\PSoC5/QD_PM.c **** * Summary:
  81:Generated_Source\PSoC5/QD_PM.c **** *  Prepare Quadrature Decoder Component goes to sleep.
  82:Generated_Source\PSoC5/QD_PM.c **** *
  83:Generated_Source\PSoC5/QD_PM.c **** * Parameters:
  84:Generated_Source\PSoC5/QD_PM.c **** *  None.
  85:Generated_Source\PSoC5/QD_PM.c **** *
  86:Generated_Source\PSoC5/QD_PM.c **** * Return:
  87:Generated_Source\PSoC5/QD_PM.c **** *  None.
  88:Generated_Source\PSoC5/QD_PM.c **** *
  89:Generated_Source\PSoC5/QD_PM.c **** * Global Variables:
  90:Generated_Source\PSoC5/QD_PM.c **** *  QD_backup - modified when non-retention registers are saved.
  91:Generated_Source\PSoC5/QD_PM.c **** *
ARM GAS  C:\Users\KJA\AppData\Local\Temp\ccioaeQo.s 			page 4


  92:Generated_Source\PSoC5/QD_PM.c **** * Reentrant:
  93:Generated_Source\PSoC5/QD_PM.c **** *  No.
  94:Generated_Source\PSoC5/QD_PM.c **** *
  95:Generated_Source\PSoC5/QD_PM.c **** *******************************************************************************/
  96:Generated_Source\PSoC5/QD_PM.c **** void QD_Sleep(void) 
  97:Generated_Source\PSoC5/QD_PM.c **** {
  81              		.loc 1 97 0
  82              		.cfi_startproc
  83              		@ args = 0, pretend = 0, frame = 0
  84              		@ frame_needed = 1, uses_anonymous_args = 0
  85 0000 80B5     		push	{r7, lr}
  86              		.cfi_def_cfa_offset 8
  87              		.cfi_offset 7, -8
  88              		.cfi_offset 14, -4
  89 0002 00AF     		add	r7, sp, #0
  90              		.cfi_def_cfa_register 7
  98:Generated_Source\PSoC5/QD_PM.c ****     if (0u != (QD_SR_AUX_CONTROL & QD_INTERRUPTS_ENABLE))
  91              		.loc 1 98 0
  92 0004 094B     		ldr	r3, .L6
  93 0006 1B78     		ldrb	r3, [r3]
  94 0008 DBB2     		uxtb	r3, r3
  95 000a 03F01003 		and	r3, r3, #16
  96 000e 002B     		cmp	r3, #0
  97 0010 03D0     		beq	.L4
  99:Generated_Source\PSoC5/QD_PM.c ****     {
 100:Generated_Source\PSoC5/QD_PM.c ****         QD_backup.enableState = 1u;
  98              		.loc 1 100 0
  99 0012 074B     		ldr	r3, .L6+4
 100 0014 0122     		movs	r2, #1
 101 0016 1A70     		strb	r2, [r3]
 102 0018 02E0     		b	.L5
 103              	.L4:
 101:Generated_Source\PSoC5/QD_PM.c ****     }
 102:Generated_Source\PSoC5/QD_PM.c ****     else /* The Quadrature Decoder Component is disabled */
 103:Generated_Source\PSoC5/QD_PM.c ****     {
 104:Generated_Source\PSoC5/QD_PM.c ****         QD_backup.enableState = 0u;
 104              		.loc 1 104 0
 105 001a 054B     		ldr	r3, .L6+4
 106 001c 0022     		movs	r2, #0
 107 001e 1A70     		strb	r2, [r3]
 108              	.L5:
 105:Generated_Source\PSoC5/QD_PM.c ****     }
 106:Generated_Source\PSoC5/QD_PM.c **** 
 107:Generated_Source\PSoC5/QD_PM.c ****     QD_Stop();
 109              		.loc 1 107 0
 110 0020 FFF7FEFF 		bl	QD_Stop
 108:Generated_Source\PSoC5/QD_PM.c ****     QD_SaveConfig();
 111              		.loc 1 108 0
 112 0024 FFF7FEFF 		bl	QD_SaveConfig
 109:Generated_Source\PSoC5/QD_PM.c **** }
 113              		.loc 1 109 0
 114 0028 80BD     		pop	{r7, pc}
 115              	.L7:
 116 002a 00BF     		.align	2
 117              	.L6:
 118 002c 9C640040 		.word	1073767580
 119 0030 00000000 		.word	QD_backup
ARM GAS  C:\Users\KJA\AppData\Local\Temp\ccioaeQo.s 			page 5


 120              		.cfi_endproc
 121              	.LFE2:
 122              		.size	QD_Sleep, .-QD_Sleep
 123              		.section	.text.QD_Wakeup,"ax",%progbits
 124              		.align	2
 125              		.global	QD_Wakeup
 126              		.thumb
 127              		.thumb_func
 128              		.type	QD_Wakeup, %function
 129              	QD_Wakeup:
 130              	.LFB3:
 110:Generated_Source\PSoC5/QD_PM.c **** 
 111:Generated_Source\PSoC5/QD_PM.c **** 
 112:Generated_Source\PSoC5/QD_PM.c **** /*******************************************************************************
 113:Generated_Source\PSoC5/QD_PM.c **** * Function Name: QD_Wakeup
 114:Generated_Source\PSoC5/QD_PM.c **** ********************************************************************************
 115:Generated_Source\PSoC5/QD_PM.c **** *
 116:Generated_Source\PSoC5/QD_PM.c **** * Summary:
 117:Generated_Source\PSoC5/QD_PM.c **** *  Prepare Quadrature Decoder Component to wake up.
 118:Generated_Source\PSoC5/QD_PM.c **** *
 119:Generated_Source\PSoC5/QD_PM.c **** * Parameters:
 120:Generated_Source\PSoC5/QD_PM.c **** *  None.
 121:Generated_Source\PSoC5/QD_PM.c **** *
 122:Generated_Source\PSoC5/QD_PM.c **** * Return:
 123:Generated_Source\PSoC5/QD_PM.c **** *  None.
 124:Generated_Source\PSoC5/QD_PM.c **** *
 125:Generated_Source\PSoC5/QD_PM.c **** * Global Variables:
 126:Generated_Source\PSoC5/QD_PM.c **** *  QD_backup - used when non-retention registers are restored.
 127:Generated_Source\PSoC5/QD_PM.c **** *
 128:Generated_Source\PSoC5/QD_PM.c **** *******************************************************************************/
 129:Generated_Source\PSoC5/QD_PM.c **** void QD_Wakeup(void) 
 130:Generated_Source\PSoC5/QD_PM.c **** {
 131              		.loc 1 130 0
 132              		.cfi_startproc
 133              		@ args = 0, pretend = 0, frame = 0
 134              		@ frame_needed = 1, uses_anonymous_args = 0
 135 0000 80B5     		push	{r7, lr}
 136              		.cfi_def_cfa_offset 8
 137              		.cfi_offset 7, -8
 138              		.cfi_offset 14, -4
 139 0002 00AF     		add	r7, sp, #0
 140              		.cfi_def_cfa_register 7
 131:Generated_Source\PSoC5/QD_PM.c ****     QD_RestoreConfig();
 141              		.loc 1 131 0
 142 0004 FFF7FEFF 		bl	QD_RestoreConfig
 132:Generated_Source\PSoC5/QD_PM.c **** 
 133:Generated_Source\PSoC5/QD_PM.c ****     if (QD_backup.enableState != 0u)
 143              		.loc 1 133 0
 144 0008 044B     		ldr	r3, .L10
 145 000a 1B78     		ldrb	r3, [r3]	@ zero_extendqisi2
 146 000c 002B     		cmp	r3, #0
 147 000e 03D0     		beq	.L8
 134:Generated_Source\PSoC5/QD_PM.c ****     {
 135:Generated_Source\PSoC5/QD_PM.c ****         #if (QD_COUNTER_SIZE == QD_COUNTER_SIZE_8_BIT)
 136:Generated_Source\PSoC5/QD_PM.c ****             QD_Cnt8_Enable();
 137:Generated_Source\PSoC5/QD_PM.c ****         #else 
 138:Generated_Source\PSoC5/QD_PM.c ****             /* (QD_COUNTER_SIZE == QD_COUNTER_SIZE_16_BIT) || 
ARM GAS  C:\Users\KJA\AppData\Local\Temp\ccioaeQo.s 			page 6


 139:Generated_Source\PSoC5/QD_PM.c ****             *  (QD_COUNTER_SIZE == QD_COUNTER_SIZE_32_BIT) 
 140:Generated_Source\PSoC5/QD_PM.c ****             */
 141:Generated_Source\PSoC5/QD_PM.c ****             QD_Cnt16_Enable();
 148              		.loc 1 141 0
 149 0010 FFF7FEFF 		bl	QD_Cnt16_Enable
 142:Generated_Source\PSoC5/QD_PM.c ****         #endif /* (QD_COUNTER_SIZE == QD_COUNTER_SIZE_8_BIT) */
 143:Generated_Source\PSoC5/QD_PM.c **** 
 144:Generated_Source\PSoC5/QD_PM.c ****         /* Enable component's operation */
 145:Generated_Source\PSoC5/QD_PM.c ****         QD_Enable();
 150              		.loc 1 145 0
 151 0014 FFF7FEFF 		bl	QD_Enable
 152              	.L8:
 146:Generated_Source\PSoC5/QD_PM.c ****     } /* Do nothing if component's block was disabled before */
 147:Generated_Source\PSoC5/QD_PM.c **** }
 153              		.loc 1 147 0
 154 0018 80BD     		pop	{r7, pc}
 155              	.L11:
 156 001a 00BF     		.align	2
 157              	.L10:
 158 001c 00000000 		.word	QD_backup
 159              		.cfi_endproc
 160              	.LFE3:
 161              		.size	QD_Wakeup, .-QD_Wakeup
 162              		.text
 163              	.Letext0:
 164              		.file 2 "Generated_Source\\PSoC5\\cytypes.h"
 165              		.file 3 "Generated_Source\\PSoC5\\QD.h"