ARM GAS  C:\Users\KJA\AppData\Local\Temp\cc3G7zb7.s 			page 1


   1              		.syntax unified
   2              		.cpu cortex-m3
   3              		.fpu softvfp
   4              		.eabi_attribute 20, 1
   5              		.eabi_attribute 21, 1
   6              		.eabi_attribute 23, 3
   7              		.eabi_attribute 24, 1
   8              		.eabi_attribute 25, 1
   9              		.eabi_attribute 26, 1
  10              		.eabi_attribute 30, 6
  11              		.eabi_attribute 34, 1
  12              		.eabi_attribute 18, 4
  13              		.thumb
  14              		.file	"ResistiveTouch_1_AMux.c"
  15              		.text
  16              	.Ltext0:
  17              		.cfi_sections	.debug_frame
  18              		.global	ResistiveTouch_1_AMux_initVar
  19              		.bss
  20              		.type	ResistiveTouch_1_AMux_initVar, %object
  21              		.size	ResistiveTouch_1_AMux_initVar, 1
  22              	ResistiveTouch_1_AMux_initVar:
  23 0000 00       		.space	1
  24              		.section	.text.ResistiveTouch_1_AMux_Start,"ax",%progbits
  25              		.align	2
  26              		.global	ResistiveTouch_1_AMux_Start
  27              		.thumb
  28              		.thumb_func
  29              		.type	ResistiveTouch_1_AMux_Start, %function
  30              	ResistiveTouch_1_AMux_Start:
  31              	.LFB0:
  32              		.file 1 "Generated_Source\\PSoC5\\ResistiveTouch_1_AMux.c"
   1:Generated_Source\PSoC5/ResistiveTouch_1_AMux.c **** /*******************************************************************************
   2:Generated_Source\PSoC5/ResistiveTouch_1_AMux.c **** * File Name: ResistiveTouch_1_AMux.c
   3:Generated_Source\PSoC5/ResistiveTouch_1_AMux.c **** * Version 1.80
   4:Generated_Source\PSoC5/ResistiveTouch_1_AMux.c **** *
   5:Generated_Source\PSoC5/ResistiveTouch_1_AMux.c **** *  Description:
   6:Generated_Source\PSoC5/ResistiveTouch_1_AMux.c **** *    This file contains functions for the AMuxSeq.
   7:Generated_Source\PSoC5/ResistiveTouch_1_AMux.c **** *
   8:Generated_Source\PSoC5/ResistiveTouch_1_AMux.c **** *   Note:
   9:Generated_Source\PSoC5/ResistiveTouch_1_AMux.c **** *
  10:Generated_Source\PSoC5/ResistiveTouch_1_AMux.c **** *******************************************************************************
  11:Generated_Source\PSoC5/ResistiveTouch_1_AMux.c **** * Copyright 2008-2010, Cypress Semiconductor Corporation.  All rights reserved.
  12:Generated_Source\PSoC5/ResistiveTouch_1_AMux.c **** * You may use this file only in accordance with the license, terms, conditions, 
  13:Generated_Source\PSoC5/ResistiveTouch_1_AMux.c **** * disclaimers, and limitations in the end user license agreement accompanying 
  14:Generated_Source\PSoC5/ResistiveTouch_1_AMux.c **** * the software package with which this file was provided.
  15:Generated_Source\PSoC5/ResistiveTouch_1_AMux.c **** ********************************************************************************/
  16:Generated_Source\PSoC5/ResistiveTouch_1_AMux.c **** 
  17:Generated_Source\PSoC5/ResistiveTouch_1_AMux.c **** #include "ResistiveTouch_1_AMux.h"
  18:Generated_Source\PSoC5/ResistiveTouch_1_AMux.c **** 
  19:Generated_Source\PSoC5/ResistiveTouch_1_AMux.c **** uint8 ResistiveTouch_1_AMux_initVar = 0u;
  20:Generated_Source\PSoC5/ResistiveTouch_1_AMux.c **** 
  21:Generated_Source\PSoC5/ResistiveTouch_1_AMux.c **** 
  22:Generated_Source\PSoC5/ResistiveTouch_1_AMux.c **** /*******************************************************************************
  23:Generated_Source\PSoC5/ResistiveTouch_1_AMux.c **** * Function Name: ResistiveTouch_1_AMux_Start
  24:Generated_Source\PSoC5/ResistiveTouch_1_AMux.c **** ********************************************************************************
  25:Generated_Source\PSoC5/ResistiveTouch_1_AMux.c **** * Summary:
ARM GAS  C:\Users\KJA\AppData\Local\Temp\cc3G7zb7.s 			page 2


  26:Generated_Source\PSoC5/ResistiveTouch_1_AMux.c **** *  Disconnect all channels. The next time Next is called, channel 0 will be
  27:Generated_Source\PSoC5/ResistiveTouch_1_AMux.c **** *  connected.
  28:Generated_Source\PSoC5/ResistiveTouch_1_AMux.c **** *
  29:Generated_Source\PSoC5/ResistiveTouch_1_AMux.c **** * Parameters:
  30:Generated_Source\PSoC5/ResistiveTouch_1_AMux.c **** *  void
  31:Generated_Source\PSoC5/ResistiveTouch_1_AMux.c **** *
  32:Generated_Source\PSoC5/ResistiveTouch_1_AMux.c **** * Return:
  33:Generated_Source\PSoC5/ResistiveTouch_1_AMux.c **** *  void
  34:Generated_Source\PSoC5/ResistiveTouch_1_AMux.c **** *
  35:Generated_Source\PSoC5/ResistiveTouch_1_AMux.c **** *******************************************************************************/
  36:Generated_Source\PSoC5/ResistiveTouch_1_AMux.c **** void ResistiveTouch_1_AMux_Start(void)
  37:Generated_Source\PSoC5/ResistiveTouch_1_AMux.c **** {
  33              		.loc 1 37 0
  34              		.cfi_startproc
  35              		@ args = 0, pretend = 0, frame = 0
  36              		@ frame_needed = 1, uses_anonymous_args = 0
  37 0000 80B5     		push	{r7, lr}
  38              		.cfi_def_cfa_offset 8
  39              		.cfi_offset 7, -8
  40              		.cfi_offset 14, -4
  41 0002 00AF     		add	r7, sp, #0
  42              		.cfi_def_cfa_register 7
  38:Generated_Source\PSoC5/ResistiveTouch_1_AMux.c ****     ResistiveTouch_1_AMux_DisconnectAll();
  43              		.loc 1 38 0
  44 0004 FFF7FEFF 		bl	ResistiveTouch_1_AMux_DisconnectAll
  39:Generated_Source\PSoC5/ResistiveTouch_1_AMux.c ****     ResistiveTouch_1_AMux_initVar = 1u;
  45              		.loc 1 39 0
  46 0008 014B     		ldr	r3, .L2
  47 000a 0122     		movs	r2, #1
  48 000c 1A70     		strb	r2, [r3]
  40:Generated_Source\PSoC5/ResistiveTouch_1_AMux.c **** }
  49              		.loc 1 40 0
  50 000e 80BD     		pop	{r7, pc}
  51              	.L3:
  52              		.align	2
  53              	.L2:
  54 0010 00000000 		.word	ResistiveTouch_1_AMux_initVar
  55              		.cfi_endproc
  56              	.LFE0:
  57              		.size	ResistiveTouch_1_AMux_Start, .-ResistiveTouch_1_AMux_Start
  58              		.section	.text.ResistiveTouch_1_AMux_Init,"ax",%progbits
  59              		.align	2
  60              		.global	ResistiveTouch_1_AMux_Init
  61              		.thumb
  62              		.thumb_func
  63              		.type	ResistiveTouch_1_AMux_Init, %function
  64              	ResistiveTouch_1_AMux_Init:
  65              	.LFB1:
  41:Generated_Source\PSoC5/ResistiveTouch_1_AMux.c **** 
  42:Generated_Source\PSoC5/ResistiveTouch_1_AMux.c **** 
  43:Generated_Source\PSoC5/ResistiveTouch_1_AMux.c **** /*******************************************************************************
  44:Generated_Source\PSoC5/ResistiveTouch_1_AMux.c **** * Function Name: ResistiveTouch_1_AMux_Init
  45:Generated_Source\PSoC5/ResistiveTouch_1_AMux.c **** ********************************************************************************
  46:Generated_Source\PSoC5/ResistiveTouch_1_AMux.c **** * Summary:
  47:Generated_Source\PSoC5/ResistiveTouch_1_AMux.c **** *  Disconnect all channels. The next time Next is called, channel 0 will be
  48:Generated_Source\PSoC5/ResistiveTouch_1_AMux.c **** *  connected.
  49:Generated_Source\PSoC5/ResistiveTouch_1_AMux.c **** *
ARM GAS  C:\Users\KJA\AppData\Local\Temp\cc3G7zb7.s 			page 3


  50:Generated_Source\PSoC5/ResistiveTouch_1_AMux.c **** * Parameters:
  51:Generated_Source\PSoC5/ResistiveTouch_1_AMux.c **** *  void
  52:Generated_Source\PSoC5/ResistiveTouch_1_AMux.c **** *
  53:Generated_Source\PSoC5/ResistiveTouch_1_AMux.c **** * Return:
  54:Generated_Source\PSoC5/ResistiveTouch_1_AMux.c **** *  void
  55:Generated_Source\PSoC5/ResistiveTouch_1_AMux.c **** *
  56:Generated_Source\PSoC5/ResistiveTouch_1_AMux.c **** *******************************************************************************/
  57:Generated_Source\PSoC5/ResistiveTouch_1_AMux.c **** void ResistiveTouch_1_AMux_Init(void)
  58:Generated_Source\PSoC5/ResistiveTouch_1_AMux.c **** {
  66              		.loc 1 58 0
  67              		.cfi_startproc
  68              		@ args = 0, pretend = 0, frame = 0
  69              		@ frame_needed = 1, uses_anonymous_args = 0
  70 0000 80B5     		push	{r7, lr}
  71              		.cfi_def_cfa_offset 8
  72              		.cfi_offset 7, -8
  73              		.cfi_offset 14, -4
  74 0002 00AF     		add	r7, sp, #0
  75              		.cfi_def_cfa_register 7
  59:Generated_Source\PSoC5/ResistiveTouch_1_AMux.c ****     ResistiveTouch_1_AMux_DisconnectAll();
  76              		.loc 1 59 0
  77 0004 FFF7FEFF 		bl	ResistiveTouch_1_AMux_DisconnectAll
  60:Generated_Source\PSoC5/ResistiveTouch_1_AMux.c **** }
  78              		.loc 1 60 0
  79 0008 80BD     		pop	{r7, pc}
  80              		.cfi_endproc
  81              	.LFE1:
  82              		.size	ResistiveTouch_1_AMux_Init, .-ResistiveTouch_1_AMux_Init
  83 000a 00BF     		.section	.text.ResistiveTouch_1_AMux_Stop,"ax",%progbits
  84              		.align	2
  85              		.global	ResistiveTouch_1_AMux_Stop
  86              		.thumb
  87              		.thumb_func
  88              		.type	ResistiveTouch_1_AMux_Stop, %function
  89              	ResistiveTouch_1_AMux_Stop:
  90              	.LFB2:
  61:Generated_Source\PSoC5/ResistiveTouch_1_AMux.c **** 
  62:Generated_Source\PSoC5/ResistiveTouch_1_AMux.c **** 
  63:Generated_Source\PSoC5/ResistiveTouch_1_AMux.c **** /*******************************************************************************
  64:Generated_Source\PSoC5/ResistiveTouch_1_AMux.c **** * Function Name: ResistiveTouch_1_AMux_Stop
  65:Generated_Source\PSoC5/ResistiveTouch_1_AMux.c **** ********************************************************************************
  66:Generated_Source\PSoC5/ResistiveTouch_1_AMux.c **** * Summary:
  67:Generated_Source\PSoC5/ResistiveTouch_1_AMux.c **** *  Disconnect all channels. The next time Next is called, channel 0 will be
  68:Generated_Source\PSoC5/ResistiveTouch_1_AMux.c **** *  connected.
  69:Generated_Source\PSoC5/ResistiveTouch_1_AMux.c **** *
  70:Generated_Source\PSoC5/ResistiveTouch_1_AMux.c **** * Parameters:
  71:Generated_Source\PSoC5/ResistiveTouch_1_AMux.c **** *  void
  72:Generated_Source\PSoC5/ResistiveTouch_1_AMux.c **** *
  73:Generated_Source\PSoC5/ResistiveTouch_1_AMux.c **** * Return:
  74:Generated_Source\PSoC5/ResistiveTouch_1_AMux.c **** *  void
  75:Generated_Source\PSoC5/ResistiveTouch_1_AMux.c **** *
  76:Generated_Source\PSoC5/ResistiveTouch_1_AMux.c **** *******************************************************************************/
  77:Generated_Source\PSoC5/ResistiveTouch_1_AMux.c **** void ResistiveTouch_1_AMux_Stop(void)
  78:Generated_Source\PSoC5/ResistiveTouch_1_AMux.c **** {
  91              		.loc 1 78 0
  92              		.cfi_startproc
  93              		@ args = 0, pretend = 0, frame = 0
ARM GAS  C:\Users\KJA\AppData\Local\Temp\cc3G7zb7.s 			page 4


  94              		@ frame_needed = 1, uses_anonymous_args = 0
  95 0000 80B5     		push	{r7, lr}
  96              		.cfi_def_cfa_offset 8
  97              		.cfi_offset 7, -8
  98              		.cfi_offset 14, -4
  99 0002 00AF     		add	r7, sp, #0
 100              		.cfi_def_cfa_register 7
  79:Generated_Source\PSoC5/ResistiveTouch_1_AMux.c ****     ResistiveTouch_1_AMux_DisconnectAll();
 101              		.loc 1 79 0
 102 0004 FFF7FEFF 		bl	ResistiveTouch_1_AMux_DisconnectAll
  80:Generated_Source\PSoC5/ResistiveTouch_1_AMux.c **** }
 103              		.loc 1 80 0
 104 0008 80BD     		pop	{r7, pc}
 105              		.cfi_endproc
 106              	.LFE2:
 107              		.size	ResistiveTouch_1_AMux_Stop, .-ResistiveTouch_1_AMux_Stop
 108 000a 00BF     		.section	.text.ResistiveTouch_1_AMux_GetChannel,"ax",%progbits
 109              		.align	2
 110              		.global	ResistiveTouch_1_AMux_GetChannel
 111              		.thumb
 112              		.thumb_func
 113              		.type	ResistiveTouch_1_AMux_GetChannel, %function
 114              	ResistiveTouch_1_AMux_GetChannel:
 115              	.LFB3:
  81:Generated_Source\PSoC5/ResistiveTouch_1_AMux.c **** 
  82:Generated_Source\PSoC5/ResistiveTouch_1_AMux.c **** #if (ResistiveTouch_1_AMux_MUXTYPE == ResistiveTouch_1_AMux_MUX_DIFF)
  83:Generated_Source\PSoC5/ResistiveTouch_1_AMux.c **** 
  84:Generated_Source\PSoC5/ResistiveTouch_1_AMux.c **** /*******************************************************************************
  85:Generated_Source\PSoC5/ResistiveTouch_1_AMux.c **** * Function Name: ResistiveTouch_1_AMux_Next
  86:Generated_Source\PSoC5/ResistiveTouch_1_AMux.c **** ********************************************************************************
  87:Generated_Source\PSoC5/ResistiveTouch_1_AMux.c **** * Summary:
  88:Generated_Source\PSoC5/ResistiveTouch_1_AMux.c **** *  Disconnects the previous channel and connects the next one in the sequence.
  89:Generated_Source\PSoC5/ResistiveTouch_1_AMux.c **** *  When Next is called for the first time after Init, Start, Enable, Stop, or
  90:Generated_Source\PSoC5/ResistiveTouch_1_AMux.c **** *  DisconnectAll, it connects channel 0.
  91:Generated_Source\PSoC5/ResistiveTouch_1_AMux.c **** *
  92:Generated_Source\PSoC5/ResistiveTouch_1_AMux.c **** * Parameters:
  93:Generated_Source\PSoC5/ResistiveTouch_1_AMux.c **** *  void
  94:Generated_Source\PSoC5/ResistiveTouch_1_AMux.c **** *
  95:Generated_Source\PSoC5/ResistiveTouch_1_AMux.c **** * Return:
  96:Generated_Source\PSoC5/ResistiveTouch_1_AMux.c **** *  void
  97:Generated_Source\PSoC5/ResistiveTouch_1_AMux.c **** *
  98:Generated_Source\PSoC5/ResistiveTouch_1_AMux.c **** *******************************************************************************/
  99:Generated_Source\PSoC5/ResistiveTouch_1_AMux.c **** void ResistiveTouch_1_AMux_Next(void)
 100:Generated_Source\PSoC5/ResistiveTouch_1_AMux.c **** {
 101:Generated_Source\PSoC5/ResistiveTouch_1_AMux.c ****     ResistiveTouch_1_AMux_CYAMUXSIDE_A_Next();
 102:Generated_Source\PSoC5/ResistiveTouch_1_AMux.c ****     ResistiveTouch_1_AMux_CYAMUXSIDE_B_Next();
 103:Generated_Source\PSoC5/ResistiveTouch_1_AMux.c **** }
 104:Generated_Source\PSoC5/ResistiveTouch_1_AMux.c **** 
 105:Generated_Source\PSoC5/ResistiveTouch_1_AMux.c **** 
 106:Generated_Source\PSoC5/ResistiveTouch_1_AMux.c **** /*******************************************************************************
 107:Generated_Source\PSoC5/ResistiveTouch_1_AMux.c **** * Function Name: ResistiveTouch_1_AMux_DisconnectAll
 108:Generated_Source\PSoC5/ResistiveTouch_1_AMux.c **** ********************************************************************************
 109:Generated_Source\PSoC5/ResistiveTouch_1_AMux.c **** * Summary:
 110:Generated_Source\PSoC5/ResistiveTouch_1_AMux.c **** *  This function disconnects all channels. The next time Next is called, channel
 111:Generated_Source\PSoC5/ResistiveTouch_1_AMux.c **** *  0 will be connected.
 112:Generated_Source\PSoC5/ResistiveTouch_1_AMux.c **** *
 113:Generated_Source\PSoC5/ResistiveTouch_1_AMux.c **** * Parameters:
ARM GAS  C:\Users\KJA\AppData\Local\Temp\cc3G7zb7.s 			page 5


 114:Generated_Source\PSoC5/ResistiveTouch_1_AMux.c **** *  void
 115:Generated_Source\PSoC5/ResistiveTouch_1_AMux.c **** *
 116:Generated_Source\PSoC5/ResistiveTouch_1_AMux.c **** * Return:
 117:Generated_Source\PSoC5/ResistiveTouch_1_AMux.c **** *  void
 118:Generated_Source\PSoC5/ResistiveTouch_1_AMux.c **** *
 119:Generated_Source\PSoC5/ResistiveTouch_1_AMux.c **** *******************************************************************************/
 120:Generated_Source\PSoC5/ResistiveTouch_1_AMux.c **** void ResistiveTouch_1_AMux_DisconnectAll(void)
 121:Generated_Source\PSoC5/ResistiveTouch_1_AMux.c **** {
 122:Generated_Source\PSoC5/ResistiveTouch_1_AMux.c ****     ResistiveTouch_1_AMux_CYAMUXSIDE_A_DisconnectAll();
 123:Generated_Source\PSoC5/ResistiveTouch_1_AMux.c ****     ResistiveTouch_1_AMux_CYAMUXSIDE_B_DisconnectAll();
 124:Generated_Source\PSoC5/ResistiveTouch_1_AMux.c **** }
 125:Generated_Source\PSoC5/ResistiveTouch_1_AMux.c **** 
 126:Generated_Source\PSoC5/ResistiveTouch_1_AMux.c **** 
 127:Generated_Source\PSoC5/ResistiveTouch_1_AMux.c **** /*******************************************************************************
 128:Generated_Source\PSoC5/ResistiveTouch_1_AMux.c **** * Function Name: ResistiveTouch_1_AMux_GetChannel
 129:Generated_Source\PSoC5/ResistiveTouch_1_AMux.c **** ********************************************************************************
 130:Generated_Source\PSoC5/ResistiveTouch_1_AMux.c **** * Summary:
 131:Generated_Source\PSoC5/ResistiveTouch_1_AMux.c **** *  The currently connected channel is retuned. If no channel is connected
 132:Generated_Source\PSoC5/ResistiveTouch_1_AMux.c **** *  returns -1.
 133:Generated_Source\PSoC5/ResistiveTouch_1_AMux.c **** *
 134:Generated_Source\PSoC5/ResistiveTouch_1_AMux.c **** * Parameters:
 135:Generated_Source\PSoC5/ResistiveTouch_1_AMux.c **** *  void
 136:Generated_Source\PSoC5/ResistiveTouch_1_AMux.c **** *
 137:Generated_Source\PSoC5/ResistiveTouch_1_AMux.c **** * Return:
 138:Generated_Source\PSoC5/ResistiveTouch_1_AMux.c **** *  The current channel or -1.
 139:Generated_Source\PSoC5/ResistiveTouch_1_AMux.c **** *
 140:Generated_Source\PSoC5/ResistiveTouch_1_AMux.c **** *******************************************************************************/
 141:Generated_Source\PSoC5/ResistiveTouch_1_AMux.c **** int8 ResistiveTouch_1_AMux_GetChannel(void)
 142:Generated_Source\PSoC5/ResistiveTouch_1_AMux.c **** {
 143:Generated_Source\PSoC5/ResistiveTouch_1_AMux.c ****     return ResistiveTouch_1_AMux_CYAMUXSIDE_A_curChannel;
 144:Generated_Source\PSoC5/ResistiveTouch_1_AMux.c **** }
 145:Generated_Source\PSoC5/ResistiveTouch_1_AMux.c **** 
 146:Generated_Source\PSoC5/ResistiveTouch_1_AMux.c **** #else
 147:Generated_Source\PSoC5/ResistiveTouch_1_AMux.c **** 
 148:Generated_Source\PSoC5/ResistiveTouch_1_AMux.c **** /*******************************************************************************
 149:Generated_Source\PSoC5/ResistiveTouch_1_AMux.c **** * Function Name: ResistiveTouch_1_AMux_GetChannel
 150:Generated_Source\PSoC5/ResistiveTouch_1_AMux.c **** ********************************************************************************
 151:Generated_Source\PSoC5/ResistiveTouch_1_AMux.c **** * Summary:
 152:Generated_Source\PSoC5/ResistiveTouch_1_AMux.c **** *  The currently connected channel is retuned. If no channel is connected
 153:Generated_Source\PSoC5/ResistiveTouch_1_AMux.c **** *  returns -1.
 154:Generated_Source\PSoC5/ResistiveTouch_1_AMux.c **** *
 155:Generated_Source\PSoC5/ResistiveTouch_1_AMux.c **** * Parameters:
 156:Generated_Source\PSoC5/ResistiveTouch_1_AMux.c **** *  void
 157:Generated_Source\PSoC5/ResistiveTouch_1_AMux.c **** *
 158:Generated_Source\PSoC5/ResistiveTouch_1_AMux.c **** * Return:
 159:Generated_Source\PSoC5/ResistiveTouch_1_AMux.c **** *  The current channel or -1.
 160:Generated_Source\PSoC5/ResistiveTouch_1_AMux.c **** *
 161:Generated_Source\PSoC5/ResistiveTouch_1_AMux.c **** *******************************************************************************/
 162:Generated_Source\PSoC5/ResistiveTouch_1_AMux.c **** int8 ResistiveTouch_1_AMux_GetChannel(void)
 163:Generated_Source\PSoC5/ResistiveTouch_1_AMux.c **** {
 116              		.loc 1 163 0
 117              		.cfi_startproc
 118              		@ args = 0, pretend = 0, frame = 0
 119              		@ frame_needed = 1, uses_anonymous_args = 0
 120              		@ link register save eliminated.
 121 0000 80B4     		push	{r7}
 122              		.cfi_def_cfa_offset 4
ARM GAS  C:\Users\KJA\AppData\Local\Temp\cc3G7zb7.s 			page 6


 123              		.cfi_offset 7, -4
 124 0002 00AF     		add	r7, sp, #0
 125              		.cfi_def_cfa_register 7
 164:Generated_Source\PSoC5/ResistiveTouch_1_AMux.c ****     return ResistiveTouch_1_AMux_curChannel;
 126              		.loc 1 164 0
 127 0004 034B     		ldr	r3, .L8
 128 0006 1B78     		ldrb	r3, [r3]	@ zero_extendqisi2
 129 0008 5BB2     		sxtb	r3, r3
 165:Generated_Source\PSoC5/ResistiveTouch_1_AMux.c **** }
 130              		.loc 1 165 0
 131 000a 1846     		mov	r0, r3
 132 000c BD46     		mov	sp, r7
 133              		.cfi_def_cfa_register 13
 134              		@ sp needed
 135 000e 5DF8047B 		ldr	r7, [sp], #4
 136              		.cfi_restore 7
 137              		.cfi_def_cfa_offset 0
 138 0012 7047     		bx	lr
 139              	.L9:
 140              		.align	2
 141              	.L8:
 142 0014 00000000 		.word	ResistiveTouch_1_AMux_curChannel
 143              		.cfi_endproc
 144              	.LFE3:
 145              		.size	ResistiveTouch_1_AMux_GetChannel, .-ResistiveTouch_1_AMux_GetChannel
 146              		.text
 147              	.Letext0:
 148              		.file 2 "Generated_Source\\PSoC5\\cytypes.h"
 149              		.file 3 "Generated_Source\\PSoC5\\cyfitter_cfg.h"