ARM GAS  C:\Users\KJA\AppData\Local\Temp\cc1ngSx3.s 			page 1


   1              		.syntax unified
   2              		.cpu cortex-m3
   3              		.fpu softvfp
   4              		.eabi_attribute 20, 1
   5              		.eabi_attribute 21, 1
   6              		.eabi_attribute 23, 3
   7              		.eabi_attribute 24, 1
   8              		.eabi_attribute 25, 1
   9              		.eabi_attribute 26, 1
  10              		.eabi_attribute 30, 6
  11              		.eabi_attribute 34, 1
  12              		.eabi_attribute 18, 4
  13              		.thumb
  14              		.file	"ResistiveTouch_1_PM.c"
  15              		.text
  16              	.Ltext0:
  17              		.cfi_sections	.debug_frame
  18              		.section	.text.ResistiveTouch_1_SaveConfig,"ax",%progbits
  19              		.align	2
  20              		.global	ResistiveTouch_1_SaveConfig
  21              		.thumb
  22              		.thumb_func
  23              		.type	ResistiveTouch_1_SaveConfig, %function
  24              	ResistiveTouch_1_SaveConfig:
  25              	.LFB0:
  26              		.file 1 "Generated_Source\\PSoC5\\ResistiveTouch_1_PM.c"
   1:Generated_Source\PSoC5/ResistiveTouch_1_PM.c **** /*******************************************************************************
   2:Generated_Source\PSoC5/ResistiveTouch_1_PM.c **** * File Name: ResistiveTouch_1_PM.c
   3:Generated_Source\PSoC5/ResistiveTouch_1_PM.c **** * Version 2.0
   4:Generated_Source\PSoC5/ResistiveTouch_1_PM.c **** *
   5:Generated_Source\PSoC5/ResistiveTouch_1_PM.c **** * Description:
   6:Generated_Source\PSoC5/ResistiveTouch_1_PM.c **** *  This file contains the setup, control, and status commands to support 
   7:Generated_Source\PSoC5/ResistiveTouch_1_PM.c **** *  the component operation in the low power mode. 
   8:Generated_Source\PSoC5/ResistiveTouch_1_PM.c **** *
   9:Generated_Source\PSoC5/ResistiveTouch_1_PM.c **** * Note:
  10:Generated_Source\PSoC5/ResistiveTouch_1_PM.c **** *
  11:Generated_Source\PSoC5/ResistiveTouch_1_PM.c **** ********************************************************************************
  12:Generated_Source\PSoC5/ResistiveTouch_1_PM.c **** * Copyright 2012-2015, Cypress Semiconductor Corporation.  All rights reserved.
  13:Generated_Source\PSoC5/ResistiveTouch_1_PM.c **** * You may use this file only in accordance with the license, terms, conditions, 
  14:Generated_Source\PSoC5/ResistiveTouch_1_PM.c **** * disclaimers, and limitations in the end user license agreement accompanying 
  15:Generated_Source\PSoC5/ResistiveTouch_1_PM.c **** * the software package with which this file was provided.
  16:Generated_Source\PSoC5/ResistiveTouch_1_PM.c **** *******************************************************************************/
  17:Generated_Source\PSoC5/ResistiveTouch_1_PM.c **** 
  18:Generated_Source\PSoC5/ResistiveTouch_1_PM.c **** #include "ResistiveTouch_1.h"
  19:Generated_Source\PSoC5/ResistiveTouch_1_PM.c **** 
  20:Generated_Source\PSoC5/ResistiveTouch_1_PM.c **** 
  21:Generated_Source\PSoC5/ResistiveTouch_1_PM.c **** /*******************************************************************************
  22:Generated_Source\PSoC5/ResistiveTouch_1_PM.c **** * Function Name: ResistiveTouch_1_SaveConfig
  23:Generated_Source\PSoC5/ResistiveTouch_1_PM.c **** ********************************************************************************
  24:Generated_Source\PSoC5/ResistiveTouch_1_PM.c **** *
  25:Generated_Source\PSoC5/ResistiveTouch_1_PM.c **** * Summary:
  26:Generated_Source\PSoC5/ResistiveTouch_1_PM.c **** *  Saves the ADC configuration.
  27:Generated_Source\PSoC5/ResistiveTouch_1_PM.c **** *
  28:Generated_Source\PSoC5/ResistiveTouch_1_PM.c **** * Parameters:
  29:Generated_Source\PSoC5/ResistiveTouch_1_PM.c **** *  None
  30:Generated_Source\PSoC5/ResistiveTouch_1_PM.c **** *
  31:Generated_Source\PSoC5/ResistiveTouch_1_PM.c **** * Return:
ARM GAS  C:\Users\KJA\AppData\Local\Temp\cc1ngSx3.s 			page 2


  32:Generated_Source\PSoC5/ResistiveTouch_1_PM.c **** *  None
  33:Generated_Source\PSoC5/ResistiveTouch_1_PM.c **** *
  34:Generated_Source\PSoC5/ResistiveTouch_1_PM.c **** *******************************************************************************/
  35:Generated_Source\PSoC5/ResistiveTouch_1_PM.c **** void ResistiveTouch_1_SaveConfig(void) 
  36:Generated_Source\PSoC5/ResistiveTouch_1_PM.c **** {
  27              		.loc 1 36 0
  28              		.cfi_startproc
  29              		@ args = 0, pretend = 0, frame = 0
  30              		@ frame_needed = 1, uses_anonymous_args = 0
  31 0000 80B5     		push	{r7, lr}
  32              		.cfi_def_cfa_offset 8
  33              		.cfi_offset 7, -8
  34              		.cfi_offset 14, -4
  35 0002 00AF     		add	r7, sp, #0
  36              		.cfi_def_cfa_register 7
  37:Generated_Source\PSoC5/ResistiveTouch_1_PM.c ****     ResistiveTouch_1_ADC_SaveConfig();   
  37              		.loc 1 37 0
  38 0004 FFF7FEFF 		bl	ResistiveTouch_1_ADC_SaveConfig
  38:Generated_Source\PSoC5/ResistiveTouch_1_PM.c **** }
  39              		.loc 1 38 0
  40 0008 80BD     		pop	{r7, pc}
  41              		.cfi_endproc
  42              	.LFE0:
  43              		.size	ResistiveTouch_1_SaveConfig, .-ResistiveTouch_1_SaveConfig
  44 000a 00BF     		.section	.text.ResistiveTouch_1_RestoreConfig,"ax",%progbits
  45              		.align	2
  46              		.global	ResistiveTouch_1_RestoreConfig
  47              		.thumb
  48              		.thumb_func
  49              		.type	ResistiveTouch_1_RestoreConfig, %function
  50              	ResistiveTouch_1_RestoreConfig:
  51              	.LFB1:
  39:Generated_Source\PSoC5/ResistiveTouch_1_PM.c **** 
  40:Generated_Source\PSoC5/ResistiveTouch_1_PM.c **** 
  41:Generated_Source\PSoC5/ResistiveTouch_1_PM.c **** /*******************************************************************************
  42:Generated_Source\PSoC5/ResistiveTouch_1_PM.c **** * Function Name: ResistiveTouch_1_RestoreConfig
  43:Generated_Source\PSoC5/ResistiveTouch_1_PM.c **** ********************************************************************************
  44:Generated_Source\PSoC5/ResistiveTouch_1_PM.c **** *
  45:Generated_Source\PSoC5/ResistiveTouch_1_PM.c **** * Summary:
  46:Generated_Source\PSoC5/ResistiveTouch_1_PM.c **** *  Restores the ADC configuration.
  47:Generated_Source\PSoC5/ResistiveTouch_1_PM.c **** *
  48:Generated_Source\PSoC5/ResistiveTouch_1_PM.c **** * Parameters:
  49:Generated_Source\PSoC5/ResistiveTouch_1_PM.c **** *  None
  50:Generated_Source\PSoC5/ResistiveTouch_1_PM.c **** *
  51:Generated_Source\PSoC5/ResistiveTouch_1_PM.c **** * Return:
  52:Generated_Source\PSoC5/ResistiveTouch_1_PM.c **** *  None
  53:Generated_Source\PSoC5/ResistiveTouch_1_PM.c **** *
  54:Generated_Source\PSoC5/ResistiveTouch_1_PM.c **** *
  55:Generated_Source\PSoC5/ResistiveTouch_1_PM.c **** *******************************************************************************/
  56:Generated_Source\PSoC5/ResistiveTouch_1_PM.c **** void ResistiveTouch_1_RestoreConfig(void) 
  57:Generated_Source\PSoC5/ResistiveTouch_1_PM.c **** {
  52              		.loc 1 57 0
  53              		.cfi_startproc
  54              		@ args = 0, pretend = 0, frame = 0
  55              		@ frame_needed = 1, uses_anonymous_args = 0
  56 0000 80B5     		push	{r7, lr}
  57              		.cfi_def_cfa_offset 8
ARM GAS  C:\Users\KJA\AppData\Local\Temp\cc1ngSx3.s 			page 3


  58              		.cfi_offset 7, -8
  59              		.cfi_offset 14, -4
  60 0002 00AF     		add	r7, sp, #0
  61              		.cfi_def_cfa_register 7
  58:Generated_Source\PSoC5/ResistiveTouch_1_PM.c ****     ResistiveTouch_1_ADC_RestoreConfig();  
  62              		.loc 1 58 0
  63 0004 FFF7FEFF 		bl	ResistiveTouch_1_ADC_RestoreConfig
  59:Generated_Source\PSoC5/ResistiveTouch_1_PM.c **** }
  64              		.loc 1 59 0
  65 0008 80BD     		pop	{r7, pc}
  66              		.cfi_endproc
  67              	.LFE1:
  68              		.size	ResistiveTouch_1_RestoreConfig, .-ResistiveTouch_1_RestoreConfig
  69 000a 00BF     		.section	.text.ResistiveTouch_1_Sleep,"ax",%progbits
  70              		.align	2
  71              		.global	ResistiveTouch_1_Sleep
  72              		.thumb
  73              		.thumb_func
  74              		.type	ResistiveTouch_1_Sleep, %function
  75              	ResistiveTouch_1_Sleep:
  76              	.LFB2:
  60:Generated_Source\PSoC5/ResistiveTouch_1_PM.c **** 
  61:Generated_Source\PSoC5/ResistiveTouch_1_PM.c **** 
  62:Generated_Source\PSoC5/ResistiveTouch_1_PM.c **** /*******************************************************************************
  63:Generated_Source\PSoC5/ResistiveTouch_1_PM.c **** * Function Name: ResistiveTouch_1_Sleep
  64:Generated_Source\PSoC5/ResistiveTouch_1_PM.c **** ********************************************************************************
  65:Generated_Source\PSoC5/ResistiveTouch_1_PM.c **** *
  66:Generated_Source\PSoC5/ResistiveTouch_1_PM.c **** * Summary:
  67:Generated_Source\PSoC5/ResistiveTouch_1_PM.c **** *  Prepares the component for entering the low power mode.
  68:Generated_Source\PSoC5/ResistiveTouch_1_PM.c **** *
  69:Generated_Source\PSoC5/ResistiveTouch_1_PM.c **** * Parameters:
  70:Generated_Source\PSoC5/ResistiveTouch_1_PM.c **** *  None
  71:Generated_Source\PSoC5/ResistiveTouch_1_PM.c **** *
  72:Generated_Source\PSoC5/ResistiveTouch_1_PM.c **** * Return:
  73:Generated_Source\PSoC5/ResistiveTouch_1_PM.c **** *  None
  74:Generated_Source\PSoC5/ResistiveTouch_1_PM.c **** *
  75:Generated_Source\PSoC5/ResistiveTouch_1_PM.c **** *******************************************************************************/
  76:Generated_Source\PSoC5/ResistiveTouch_1_PM.c **** void ResistiveTouch_1_Sleep(void) 
  77:Generated_Source\PSoC5/ResistiveTouch_1_PM.c **** {
  77              		.loc 1 77 0
  78              		.cfi_startproc
  79              		@ args = 0, pretend = 0, frame = 0
  80              		@ frame_needed = 1, uses_anonymous_args = 0
  81 0000 80B5     		push	{r7, lr}
  82              		.cfi_def_cfa_offset 8
  83              		.cfi_offset 7, -8
  84              		.cfi_offset 14, -4
  85 0002 00AF     		add	r7, sp, #0
  86              		.cfi_def_cfa_register 7
  78:Generated_Source\PSoC5/ResistiveTouch_1_PM.c ****     ResistiveTouch_1_ADC_Sleep();
  87              		.loc 1 78 0
  88 0004 FFF7FEFF 		bl	ResistiveTouch_1_ADC_Sleep
  79:Generated_Source\PSoC5/ResistiveTouch_1_PM.c ****     ResistiveTouch_1_AMux_Stop();
  89              		.loc 1 79 0
  90 0008 FFF7FEFF 		bl	ResistiveTouch_1_AMux_Stop
  80:Generated_Source\PSoC5/ResistiveTouch_1_PM.c **** }
  91              		.loc 1 80 0
ARM GAS  C:\Users\KJA\AppData\Local\Temp\cc1ngSx3.s 			page 4


  92 000c 80BD     		pop	{r7, pc}
  93              		.cfi_endproc
  94              	.LFE2:
  95              		.size	ResistiveTouch_1_Sleep, .-ResistiveTouch_1_Sleep
  96 000e 00BF     		.section	.text.ResistiveTouch_1_Wakeup,"ax",%progbits
  97              		.align	2
  98              		.global	ResistiveTouch_1_Wakeup
  99              		.thumb
 100              		.thumb_func
 101              		.type	ResistiveTouch_1_Wakeup, %function
 102              	ResistiveTouch_1_Wakeup:
 103              	.LFB3:
  81:Generated_Source\PSoC5/ResistiveTouch_1_PM.c **** 
  82:Generated_Source\PSoC5/ResistiveTouch_1_PM.c **** 
  83:Generated_Source\PSoC5/ResistiveTouch_1_PM.c **** /*******************************************************************************
  84:Generated_Source\PSoC5/ResistiveTouch_1_PM.c **** * Function Name: ResistiveTouch_1_Wakeup
  85:Generated_Source\PSoC5/ResistiveTouch_1_PM.c **** ********************************************************************************
  86:Generated_Source\PSoC5/ResistiveTouch_1_PM.c **** *
  87:Generated_Source\PSoC5/ResistiveTouch_1_PM.c **** * Summary:
  88:Generated_Source\PSoC5/ResistiveTouch_1_PM.c **** *  Restores the component after waking up from the low power mode.
  89:Generated_Source\PSoC5/ResistiveTouch_1_PM.c **** *
  90:Generated_Source\PSoC5/ResistiveTouch_1_PM.c **** * Parameters:
  91:Generated_Source\PSoC5/ResistiveTouch_1_PM.c **** *  None
  92:Generated_Source\PSoC5/ResistiveTouch_1_PM.c **** *
  93:Generated_Source\PSoC5/ResistiveTouch_1_PM.c **** * Return:
  94:Generated_Source\PSoC5/ResistiveTouch_1_PM.c **** *  None
  95:Generated_Source\PSoC5/ResistiveTouch_1_PM.c **** *
  96:Generated_Source\PSoC5/ResistiveTouch_1_PM.c **** *******************************************************************************/
  97:Generated_Source\PSoC5/ResistiveTouch_1_PM.c **** void ResistiveTouch_1_Wakeup(void)  
  98:Generated_Source\PSoC5/ResistiveTouch_1_PM.c **** {
 104              		.loc 1 98 0
 105              		.cfi_startproc
 106              		@ args = 0, pretend = 0, frame = 0
 107              		@ frame_needed = 1, uses_anonymous_args = 0
 108 0000 80B5     		push	{r7, lr}
 109              		.cfi_def_cfa_offset 8
 110              		.cfi_offset 7, -8
 111              		.cfi_offset 14, -4
 112 0002 00AF     		add	r7, sp, #0
 113              		.cfi_def_cfa_register 7
  99:Generated_Source\PSoC5/ResistiveTouch_1_PM.c ****     ResistiveTouch_1_ADC_Wakeup();
 114              		.loc 1 99 0
 115 0004 FFF7FEFF 		bl	ResistiveTouch_1_ADC_Wakeup
 100:Generated_Source\PSoC5/ResistiveTouch_1_PM.c **** }
 116              		.loc 1 100 0
 117 0008 80BD     		pop	{r7, pc}
 118              		.cfi_endproc
 119              	.LFE3:
 120              		.size	ResistiveTouch_1_Wakeup, .-ResistiveTouch_1_Wakeup
 121 000a 00BF     		.text
 122              	.Letext0: