ARM GAS  C:\Users\KJA\AppData\Local\Temp\cc3P3ZRh.s 			page 1


   1              		.syntax unified
   2              		.cpu cortex-m3
   3              		.fpu softvfp
   4              		.eabi_attribute 20, 1
   5              		.eabi_attribute 21, 1
   6              		.eabi_attribute 23, 3
   7              		.eabi_attribute 24, 1
   8              		.eabi_attribute 25, 1
   9              		.eabi_attribute 26, 1
  10              		.eabi_attribute 30, 6
  11              		.eabi_attribute 34, 1
  12              		.eabi_attribute 18, 4
  13              		.thumb
  14              		.file	"SPIM.c"
  15              		.text
  16              	.Ltext0:
  17              		.cfi_sections	.debug_frame
  18              		.global	SPIM_initVar
  19              		.bss
  20              		.type	SPIM_initVar, %object
  21              		.size	SPIM_initVar, 1
  22              	SPIM_initVar:
  23 0000 00       		.space	1
  24              		.comm	SPIM_swStatusTx,1,1
  25              		.comm	SPIM_swStatusRx,1,1
  26              		.section	.text.SPIM_Init,"ax",%progbits
  27              		.align	2
  28              		.global	SPIM_Init
  29              		.thumb
  30              		.thumb_func
  31              		.type	SPIM_Init, %function
  32              	SPIM_Init:
  33              	.LFB0:
  34              		.file 1 "Generated_Source\\PSoC5\\SPIM.c"
   1:Generated_Source\PSoC5/SPIM.c **** /*******************************************************************************
   2:Generated_Source\PSoC5/SPIM.c **** * File Name: SPIM.c
   3:Generated_Source\PSoC5/SPIM.c **** * Version 2.50
   4:Generated_Source\PSoC5/SPIM.c **** *
   5:Generated_Source\PSoC5/SPIM.c **** * Description:
   6:Generated_Source\PSoC5/SPIM.c **** *  This file provides all API functionality of the SPI Master component.
   7:Generated_Source\PSoC5/SPIM.c **** *
   8:Generated_Source\PSoC5/SPIM.c **** * Note:
   9:Generated_Source\PSoC5/SPIM.c **** *  None.
  10:Generated_Source\PSoC5/SPIM.c **** *
  11:Generated_Source\PSoC5/SPIM.c **** ********************************************************************************
  12:Generated_Source\PSoC5/SPIM.c **** * Copyright 2008-2015, Cypress Semiconductor Corporation.  All rights reserved.
  13:Generated_Source\PSoC5/SPIM.c **** * You may use this file only in accordance with the license, terms, conditions,
  14:Generated_Source\PSoC5/SPIM.c **** * disclaimers, and limitations in the end user license agreement accompanying
  15:Generated_Source\PSoC5/SPIM.c **** * the software package with which this file was provided.
  16:Generated_Source\PSoC5/SPIM.c **** *******************************************************************************/
  17:Generated_Source\PSoC5/SPIM.c **** 
  18:Generated_Source\PSoC5/SPIM.c **** #include "SPIM_PVT.h"
  19:Generated_Source\PSoC5/SPIM.c **** 
  20:Generated_Source\PSoC5/SPIM.c **** #if(SPIM_TX_SOFTWARE_BUF_ENABLED)
  21:Generated_Source\PSoC5/SPIM.c ****     volatile uint8 SPIM_txBuffer[SPIM_TX_BUFFER_SIZE];
  22:Generated_Source\PSoC5/SPIM.c ****     volatile uint8 SPIM_txBufferFull;
  23:Generated_Source\PSoC5/SPIM.c ****     volatile uint8 SPIM_txBufferRead;
ARM GAS  C:\Users\KJA\AppData\Local\Temp\cc3P3ZRh.s 			page 2


  24:Generated_Source\PSoC5/SPIM.c ****     volatile uint8 SPIM_txBufferWrite;
  25:Generated_Source\PSoC5/SPIM.c **** #endif /* (SPIM_TX_SOFTWARE_BUF_ENABLED) */
  26:Generated_Source\PSoC5/SPIM.c **** 
  27:Generated_Source\PSoC5/SPIM.c **** #if(SPIM_RX_SOFTWARE_BUF_ENABLED)
  28:Generated_Source\PSoC5/SPIM.c ****     volatile uint8 SPIM_rxBuffer[SPIM_RX_BUFFER_SIZE];
  29:Generated_Source\PSoC5/SPIM.c ****     volatile uint8 SPIM_rxBufferFull;
  30:Generated_Source\PSoC5/SPIM.c ****     volatile uint8 SPIM_rxBufferRead;
  31:Generated_Source\PSoC5/SPIM.c ****     volatile uint8 SPIM_rxBufferWrite;
  32:Generated_Source\PSoC5/SPIM.c **** #endif /* (SPIM_RX_SOFTWARE_BUF_ENABLED) */
  33:Generated_Source\PSoC5/SPIM.c **** 
  34:Generated_Source\PSoC5/SPIM.c **** uint8 SPIM_initVar = 0u;
  35:Generated_Source\PSoC5/SPIM.c **** 
  36:Generated_Source\PSoC5/SPIM.c **** volatile uint8 SPIM_swStatusTx;
  37:Generated_Source\PSoC5/SPIM.c **** volatile uint8 SPIM_swStatusRx;
  38:Generated_Source\PSoC5/SPIM.c **** 
  39:Generated_Source\PSoC5/SPIM.c **** 
  40:Generated_Source\PSoC5/SPIM.c **** /*******************************************************************************
  41:Generated_Source\PSoC5/SPIM.c **** * Function Name: SPIM_Init
  42:Generated_Source\PSoC5/SPIM.c **** ********************************************************************************
  43:Generated_Source\PSoC5/SPIM.c **** *
  44:Generated_Source\PSoC5/SPIM.c **** * Summary:
  45:Generated_Source\PSoC5/SPIM.c **** *  Inits/Restores default SPIM configuration provided with customizer.
  46:Generated_Source\PSoC5/SPIM.c **** *
  47:Generated_Source\PSoC5/SPIM.c **** * Parameters:
  48:Generated_Source\PSoC5/SPIM.c **** *  None.
  49:Generated_Source\PSoC5/SPIM.c **** *
  50:Generated_Source\PSoC5/SPIM.c **** * Return:
  51:Generated_Source\PSoC5/SPIM.c **** *  None.
  52:Generated_Source\PSoC5/SPIM.c **** *
  53:Generated_Source\PSoC5/SPIM.c **** * Side Effects:
  54:Generated_Source\PSoC5/SPIM.c **** *  When this function is called it initializes all of the necessary parameters
  55:Generated_Source\PSoC5/SPIM.c **** *  for execution. i.e. setting the initial interrupt mask, configuring the
  56:Generated_Source\PSoC5/SPIM.c **** *  interrupt service routine, configuring the bit-counter parameters and
  57:Generated_Source\PSoC5/SPIM.c **** *  clearing the FIFO and Status Register.
  58:Generated_Source\PSoC5/SPIM.c **** *
  59:Generated_Source\PSoC5/SPIM.c **** * Reentrant:
  60:Generated_Source\PSoC5/SPIM.c **** *  No.
  61:Generated_Source\PSoC5/SPIM.c **** *
  62:Generated_Source\PSoC5/SPIM.c **** *******************************************************************************/
  63:Generated_Source\PSoC5/SPIM.c **** void SPIM_Init(void) 
  64:Generated_Source\PSoC5/SPIM.c **** {
  35              		.loc 1 64 0
  36              		.cfi_startproc
  37              		@ args = 0, pretend = 0, frame = 0
  38              		@ frame_needed = 1, uses_anonymous_args = 0
  39 0000 80B5     		push	{r7, lr}
  40              		.cfi_def_cfa_offset 8
  41              		.cfi_offset 7, -8
  42              		.cfi_offset 14, -4
  43 0002 00AF     		add	r7, sp, #0
  44              		.cfi_def_cfa_register 7
  65:Generated_Source\PSoC5/SPIM.c ****     /* Initialize the Bit counter */
  66:Generated_Source\PSoC5/SPIM.c ****     SPIM_COUNTER_PERIOD_REG = SPIM_BITCTR_INIT;
  45              		.loc 1 66 0
  46 0004 074B     		ldr	r3, .L2
  47 0006 0F22     		movs	r2, #15
  48 0008 1A70     		strb	r2, [r3]
ARM GAS  C:\Users\KJA\AppData\Local\Temp\cc3P3ZRh.s 			page 3


  67:Generated_Source\PSoC5/SPIM.c **** 
  68:Generated_Source\PSoC5/SPIM.c ****     /* Init TX ISR  */
  69:Generated_Source\PSoC5/SPIM.c ****     #if(0u != SPIM_INTERNAL_TX_INT_ENABLED)
  70:Generated_Source\PSoC5/SPIM.c ****         CyIntDisable         (SPIM_TX_ISR_NUMBER);
  71:Generated_Source\PSoC5/SPIM.c ****         CyIntSetPriority     (SPIM_TX_ISR_NUMBER,  SPIM_TX_ISR_PRIORITY);
  72:Generated_Source\PSoC5/SPIM.c ****         (void) CyIntSetVector(SPIM_TX_ISR_NUMBER, &SPIM_TX_ISR);
  73:Generated_Source\PSoC5/SPIM.c ****     #endif /* (0u != SPIM_INTERNAL_TX_INT_ENABLED) */
  74:Generated_Source\PSoC5/SPIM.c **** 
  75:Generated_Source\PSoC5/SPIM.c ****     /* Init RX ISR  */
  76:Generated_Source\PSoC5/SPIM.c ****     #if(0u != SPIM_INTERNAL_RX_INT_ENABLED)
  77:Generated_Source\PSoC5/SPIM.c ****         CyIntDisable         (SPIM_RX_ISR_NUMBER);
  78:Generated_Source\PSoC5/SPIM.c ****         CyIntSetPriority     (SPIM_RX_ISR_NUMBER,  SPIM_RX_ISR_PRIORITY);
  79:Generated_Source\PSoC5/SPIM.c ****         (void) CyIntSetVector(SPIM_RX_ISR_NUMBER, &SPIM_RX_ISR);
  80:Generated_Source\PSoC5/SPIM.c ****     #endif /* (0u != SPIM_INTERNAL_RX_INT_ENABLED) */
  81:Generated_Source\PSoC5/SPIM.c **** 
  82:Generated_Source\PSoC5/SPIM.c ****     /* Clear any stray data from the RX and TX FIFO */
  83:Generated_Source\PSoC5/SPIM.c ****     SPIM_ClearFIFO();
  49              		.loc 1 83 0
  50 000a FFF7FEFF 		bl	SPIM_ClearFIFO
  84:Generated_Source\PSoC5/SPIM.c **** 
  85:Generated_Source\PSoC5/SPIM.c ****     #if(SPIM_RX_SOFTWARE_BUF_ENABLED)
  86:Generated_Source\PSoC5/SPIM.c ****         SPIM_rxBufferFull  = 0u;
  87:Generated_Source\PSoC5/SPIM.c ****         SPIM_rxBufferRead  = 0u;
  88:Generated_Source\PSoC5/SPIM.c ****         SPIM_rxBufferWrite = 0u;
  89:Generated_Source\PSoC5/SPIM.c ****     #endif /* (SPIM_RX_SOFTWARE_BUF_ENABLED) */
  90:Generated_Source\PSoC5/SPIM.c **** 
  91:Generated_Source\PSoC5/SPIM.c ****     #if(SPIM_TX_SOFTWARE_BUF_ENABLED)
  92:Generated_Source\PSoC5/SPIM.c ****         SPIM_txBufferFull  = 0u;
  93:Generated_Source\PSoC5/SPIM.c ****         SPIM_txBufferRead  = 0u;
  94:Generated_Source\PSoC5/SPIM.c ****         SPIM_txBufferWrite = 0u;
  95:Generated_Source\PSoC5/SPIM.c ****     #endif /* (SPIM_TX_SOFTWARE_BUF_ENABLED) */
  96:Generated_Source\PSoC5/SPIM.c **** 
  97:Generated_Source\PSoC5/SPIM.c ****     (void) SPIM_ReadTxStatus(); /* Clear Tx status and swStatusTx */
  51              		.loc 1 97 0
  52 000e FFF7FEFF 		bl	SPIM_ReadTxStatus
  98:Generated_Source\PSoC5/SPIM.c ****     (void) SPIM_ReadRxStatus(); /* Clear Rx status and swStatusRx */
  53              		.loc 1 98 0
  54 0012 FFF7FEFF 		bl	SPIM_ReadRxStatus
  99:Generated_Source\PSoC5/SPIM.c **** 
 100:Generated_Source\PSoC5/SPIM.c ****     /* Configure TX and RX interrupt mask */
 101:Generated_Source\PSoC5/SPIM.c ****     SPIM_TX_STATUS_MASK_REG = SPIM_TX_INIT_INTERRUPTS_MASK;
  55              		.loc 1 101 0
  56 0016 044B     		ldr	r3, .L2+4
  57 0018 0022     		movs	r2, #0
  58 001a 1A70     		strb	r2, [r3]
 102:Generated_Source\PSoC5/SPIM.c ****     SPIM_RX_STATUS_MASK_REG = SPIM_RX_INIT_INTERRUPTS_MASK;
  59              		.loc 1 102 0
  60 001c 034B     		ldr	r3, .L2+8
  61 001e 0022     		movs	r2, #0
  62 0020 1A70     		strb	r2, [r3]
 103:Generated_Source\PSoC5/SPIM.c **** }
  63              		.loc 1 103 0
  64 0022 80BD     		pop	{r7, pc}
  65              	.L3:
  66              		.align	2
  67              	.L2:
  68 0024 88650040 		.word	1073767816
ARM GAS  C:\Users\KJA\AppData\Local\Temp\cc3P3ZRh.s 			page 4


  69 0028 88640040 		.word	1073767560
  70 002c 8B650040 		.word	1073767819
  71              		.cfi_endproc
  72              	.LFE0:
  73              		.size	SPIM_Init, .-SPIM_Init
  74              		.section	.text.SPIM_Enable,"ax",%progbits
  75              		.align	2
  76              		.global	SPIM_Enable
  77              		.thumb
  78              		.thumb_func
  79              		.type	SPIM_Enable, %function
  80              	SPIM_Enable:
  81              	.LFB1:
 104:Generated_Source\PSoC5/SPIM.c **** 
 105:Generated_Source\PSoC5/SPIM.c **** 
 106:Generated_Source\PSoC5/SPIM.c **** /*******************************************************************************
 107:Generated_Source\PSoC5/SPIM.c **** * Function Name: SPIM_Enable
 108:Generated_Source\PSoC5/SPIM.c **** ********************************************************************************
 109:Generated_Source\PSoC5/SPIM.c **** *
 110:Generated_Source\PSoC5/SPIM.c **** * Summary:
 111:Generated_Source\PSoC5/SPIM.c **** *  Enable SPIM component.
 112:Generated_Source\PSoC5/SPIM.c **** *
 113:Generated_Source\PSoC5/SPIM.c **** * Parameters:
 114:Generated_Source\PSoC5/SPIM.c **** *  None.
 115:Generated_Source\PSoC5/SPIM.c **** *
 116:Generated_Source\PSoC5/SPIM.c **** * Return:
 117:Generated_Source\PSoC5/SPIM.c **** *  None.
 118:Generated_Source\PSoC5/SPIM.c **** *
 119:Generated_Source\PSoC5/SPIM.c **** *******************************************************************************/
 120:Generated_Source\PSoC5/SPIM.c **** void SPIM_Enable(void) 
 121:Generated_Source\PSoC5/SPIM.c **** {
  82              		.loc 1 121 0
  83              		.cfi_startproc
  84              		@ args = 0, pretend = 0, frame = 8
  85              		@ frame_needed = 1, uses_anonymous_args = 0
  86 0000 80B5     		push	{r7, lr}
  87              		.cfi_def_cfa_offset 8
  88              		.cfi_offset 7, -8
  89              		.cfi_offset 14, -4
  90 0002 82B0     		sub	sp, sp, #8
  91              		.cfi_def_cfa_offset 16
  92 0004 00AF     		add	r7, sp, #0
  93              		.cfi_def_cfa_register 7
 122:Generated_Source\PSoC5/SPIM.c ****     uint8 enableInterrupts;
 123:Generated_Source\PSoC5/SPIM.c **** 
 124:Generated_Source\PSoC5/SPIM.c ****     enableInterrupts = CyEnterCriticalSection();
  94              		.loc 1 124 0
  95 0006 FFF7FEFF 		bl	CyEnterCriticalSection
  96 000a 0346     		mov	r3, r0
  97 000c FB71     		strb	r3, [r7, #7]
 125:Generated_Source\PSoC5/SPIM.c ****     SPIM_COUNTER_CONTROL_REG |= SPIM_CNTR_ENABLE;
  98              		.loc 1 125 0
  99 000e 124A     		ldr	r2, .L5
 100 0010 114B     		ldr	r3, .L5
 101 0012 1B78     		ldrb	r3, [r3]
 102 0014 DBB2     		uxtb	r3, r3
 103 0016 43F02003 		orr	r3, r3, #32
ARM GAS  C:\Users\KJA\AppData\Local\Temp\cc3P3ZRh.s 			page 5


 104 001a DBB2     		uxtb	r3, r3
 105 001c 1370     		strb	r3, [r2]
 126:Generated_Source\PSoC5/SPIM.c ****     SPIM_TX_STATUS_ACTL_REG  |= SPIM_INT_ENABLE;
 106              		.loc 1 126 0
 107 001e 0F4A     		ldr	r2, .L5+4
 108 0020 0E4B     		ldr	r3, .L5+4
 109 0022 1B78     		ldrb	r3, [r3]
 110 0024 DBB2     		uxtb	r3, r3
 111 0026 43F01003 		orr	r3, r3, #16
 112 002a DBB2     		uxtb	r3, r3
 113 002c 1370     		strb	r3, [r2]
 127:Generated_Source\PSoC5/SPIM.c ****     SPIM_RX_STATUS_ACTL_REG  |= SPIM_INT_ENABLE;
 114              		.loc 1 127 0
 115 002e 0C4A     		ldr	r2, .L5+8
 116 0030 0B4B     		ldr	r3, .L5+8
 117 0032 1B78     		ldrb	r3, [r3]
 118 0034 DBB2     		uxtb	r3, r3
 119 0036 43F01003 		orr	r3, r3, #16
 120 003a DBB2     		uxtb	r3, r3
 121 003c 1370     		strb	r3, [r2]
 128:Generated_Source\PSoC5/SPIM.c ****     CyExitCriticalSection(enableInterrupts);
 122              		.loc 1 128 0
 123 003e FB79     		ldrb	r3, [r7, #7]	@ zero_extendqisi2
 124 0040 1846     		mov	r0, r3
 125 0042 FFF7FEFF 		bl	CyExitCriticalSection
 129:Generated_Source\PSoC5/SPIM.c **** 
 130:Generated_Source\PSoC5/SPIM.c ****     #if(0u != SPIM_INTERNAL_CLOCK)
 131:Generated_Source\PSoC5/SPIM.c ****         SPIM_IntClock_Enable();
 126              		.loc 1 131 0
 127 0046 FFF7FEFF 		bl	SPIM_IntClock_Start
 132:Generated_Source\PSoC5/SPIM.c ****     #endif /* (0u != SPIM_INTERNAL_CLOCK) */
 133:Generated_Source\PSoC5/SPIM.c **** 
 134:Generated_Source\PSoC5/SPIM.c ****     SPIM_EnableTxInt();
 128              		.loc 1 134 0
 129 004a FFF7FEFF 		bl	SPIM_EnableTxInt
 135:Generated_Source\PSoC5/SPIM.c ****     SPIM_EnableRxInt();
 130              		.loc 1 135 0
 131 004e FFF7FEFF 		bl	SPIM_EnableRxInt
 136:Generated_Source\PSoC5/SPIM.c **** }
 132              		.loc 1 136 0
 133 0052 0837     		adds	r7, r7, #8
 134              		.cfi_def_cfa_offset 8
 135 0054 BD46     		mov	sp, r7
 136              		.cfi_def_cfa_register 13
 137              		@ sp needed
 138 0056 80BD     		pop	{r7, pc}
 139              	.L6:
 140              		.align	2
 141              	.L5:
 142 0058 98650040 		.word	1073767832
 143 005c 98640040 		.word	1073767576
 144 0060 9B650040 		.word	1073767835
 145              		.cfi_endproc
 146              	.LFE1:
 147              		.size	SPIM_Enable, .-SPIM_Enable
 148              		.section	.text.SPIM_Start,"ax",%progbits
 149              		.align	2
ARM GAS  C:\Users\KJA\AppData\Local\Temp\cc3P3ZRh.s 			page 6


 150              		.global	SPIM_Start
 151              		.thumb
 152              		.thumb_func
 153              		.type	SPIM_Start, %function
 154              	SPIM_Start:
 155              	.LFB2:
 137:Generated_Source\PSoC5/SPIM.c **** 
 138:Generated_Source\PSoC5/SPIM.c **** 
 139:Generated_Source\PSoC5/SPIM.c **** /*******************************************************************************
 140:Generated_Source\PSoC5/SPIM.c **** * Function Name: SPIM_Start
 141:Generated_Source\PSoC5/SPIM.c **** ********************************************************************************
 142:Generated_Source\PSoC5/SPIM.c **** *
 143:Generated_Source\PSoC5/SPIM.c **** * Summary:
 144:Generated_Source\PSoC5/SPIM.c **** *  Initialize and Enable the SPI Master component.
 145:Generated_Source\PSoC5/SPIM.c **** *
 146:Generated_Source\PSoC5/SPIM.c **** * Parameters:
 147:Generated_Source\PSoC5/SPIM.c **** *  None.
 148:Generated_Source\PSoC5/SPIM.c **** *
 149:Generated_Source\PSoC5/SPIM.c **** * Return:
 150:Generated_Source\PSoC5/SPIM.c **** *  None.
 151:Generated_Source\PSoC5/SPIM.c **** *
 152:Generated_Source\PSoC5/SPIM.c **** * Global variables:
 153:Generated_Source\PSoC5/SPIM.c **** *  SPIM_initVar - used to check initial configuration, modified on
 154:Generated_Source\PSoC5/SPIM.c **** *  first function call.
 155:Generated_Source\PSoC5/SPIM.c **** *
 156:Generated_Source\PSoC5/SPIM.c **** * Theory:
 157:Generated_Source\PSoC5/SPIM.c **** *  Enable the clock input to enable operation.
 158:Generated_Source\PSoC5/SPIM.c **** *
 159:Generated_Source\PSoC5/SPIM.c **** * Reentrant:
 160:Generated_Source\PSoC5/SPIM.c **** *  No.
 161:Generated_Source\PSoC5/SPIM.c **** *
 162:Generated_Source\PSoC5/SPIM.c **** *******************************************************************************/
 163:Generated_Source\PSoC5/SPIM.c **** void SPIM_Start(void) 
 164:Generated_Source\PSoC5/SPIM.c **** {
 156              		.loc 1 164 0
 157              		.cfi_startproc
 158              		@ args = 0, pretend = 0, frame = 0
 159              		@ frame_needed = 1, uses_anonymous_args = 0
 160 0000 80B5     		push	{r7, lr}
 161              		.cfi_def_cfa_offset 8
 162              		.cfi_offset 7, -8
 163              		.cfi_offset 14, -4
 164 0002 00AF     		add	r7, sp, #0
 165              		.cfi_def_cfa_register 7
 165:Generated_Source\PSoC5/SPIM.c ****     if(0u == SPIM_initVar)
 166              		.loc 1 165 0
 167 0004 054B     		ldr	r3, .L9
 168 0006 1B78     		ldrb	r3, [r3]	@ zero_extendqisi2
 169 0008 002B     		cmp	r3, #0
 170 000a 04D1     		bne	.L8
 166:Generated_Source\PSoC5/SPIM.c ****     {
 167:Generated_Source\PSoC5/SPIM.c ****         SPIM_Init();
 171              		.loc 1 167 0
 172 000c FFF7FEFF 		bl	SPIM_Init
 168:Generated_Source\PSoC5/SPIM.c ****         SPIM_initVar = 1u;
 173              		.loc 1 168 0
 174 0010 024B     		ldr	r3, .L9
ARM GAS  C:\Users\KJA\AppData\Local\Temp\cc3P3ZRh.s 			page 7


 175 0012 0122     		movs	r2, #1
 176 0014 1A70     		strb	r2, [r3]
 177              	.L8:
 169:Generated_Source\PSoC5/SPIM.c ****     }
 170:Generated_Source\PSoC5/SPIM.c **** 
 171:Generated_Source\PSoC5/SPIM.c ****     SPIM_Enable();
 178              		.loc 1 171 0
 179 0016 FFF7FEFF 		bl	SPIM_Enable
 172:Generated_Source\PSoC5/SPIM.c **** }
 180              		.loc 1 172 0
 181 001a 80BD     		pop	{r7, pc}
 182              	.L10:
 183              		.align	2
 184              	.L9:
 185 001c 00000000 		.word	SPIM_initVar
 186              		.cfi_endproc
 187              	.LFE2:
 188              		.size	SPIM_Start, .-SPIM_Start
 189              		.section	.text.SPIM_Stop,"ax",%progbits
 190              		.align	2
 191              		.global	SPIM_Stop
 192              		.thumb
 193              		.thumb_func
 194              		.type	SPIM_Stop, %function
 195              	SPIM_Stop:
 196              	.LFB3:
 173:Generated_Source\PSoC5/SPIM.c **** 
 174:Generated_Source\PSoC5/SPIM.c **** 
 175:Generated_Source\PSoC5/SPIM.c **** /*******************************************************************************
 176:Generated_Source\PSoC5/SPIM.c **** * Function Name: SPIM_Stop
 177:Generated_Source\PSoC5/SPIM.c **** ********************************************************************************
 178:Generated_Source\PSoC5/SPIM.c **** *
 179:Generated_Source\PSoC5/SPIM.c **** * Summary:
 180:Generated_Source\PSoC5/SPIM.c **** *  Disable the SPI Master component.
 181:Generated_Source\PSoC5/SPIM.c **** *
 182:Generated_Source\PSoC5/SPIM.c **** * Parameters:
 183:Generated_Source\PSoC5/SPIM.c **** *  None.
 184:Generated_Source\PSoC5/SPIM.c **** *
 185:Generated_Source\PSoC5/SPIM.c **** * Return:
 186:Generated_Source\PSoC5/SPIM.c **** *  None.
 187:Generated_Source\PSoC5/SPIM.c **** *
 188:Generated_Source\PSoC5/SPIM.c **** * Theory:
 189:Generated_Source\PSoC5/SPIM.c **** *  Disable the clock input to enable operation.
 190:Generated_Source\PSoC5/SPIM.c **** *
 191:Generated_Source\PSoC5/SPIM.c **** *******************************************************************************/
 192:Generated_Source\PSoC5/SPIM.c **** void SPIM_Stop(void) 
 193:Generated_Source\PSoC5/SPIM.c **** {
 197              		.loc 1 193 0
 198              		.cfi_startproc
 199              		@ args = 0, pretend = 0, frame = 8
 200              		@ frame_needed = 1, uses_anonymous_args = 0
 201 0000 80B5     		push	{r7, lr}
 202              		.cfi_def_cfa_offset 8
 203              		.cfi_offset 7, -8
 204              		.cfi_offset 14, -4
 205 0002 82B0     		sub	sp, sp, #8
 206              		.cfi_def_cfa_offset 16
ARM GAS  C:\Users\KJA\AppData\Local\Temp\cc3P3ZRh.s 			page 8


 207 0004 00AF     		add	r7, sp, #0
 208              		.cfi_def_cfa_register 7
 194:Generated_Source\PSoC5/SPIM.c ****     uint8 enableInterrupts;
 195:Generated_Source\PSoC5/SPIM.c **** 
 196:Generated_Source\PSoC5/SPIM.c ****     enableInterrupts = CyEnterCriticalSection();
 209              		.loc 1 196 0
 210 0006 FFF7FEFF 		bl	CyEnterCriticalSection
 211 000a 0346     		mov	r3, r0
 212 000c FB71     		strb	r3, [r7, #7]
 197:Generated_Source\PSoC5/SPIM.c ****     SPIM_TX_STATUS_ACTL_REG &= ((uint8) ~SPIM_INT_ENABLE);
 213              		.loc 1 197 0
 214 000e 0E4A     		ldr	r2, .L12
 215 0010 0D4B     		ldr	r3, .L12
 216 0012 1B78     		ldrb	r3, [r3]
 217 0014 DBB2     		uxtb	r3, r3
 218 0016 23F01003 		bic	r3, r3, #16
 219 001a DBB2     		uxtb	r3, r3
 220 001c 1370     		strb	r3, [r2]
 198:Generated_Source\PSoC5/SPIM.c ****     SPIM_RX_STATUS_ACTL_REG &= ((uint8) ~SPIM_INT_ENABLE);
 221              		.loc 1 198 0
 222 001e 0B4A     		ldr	r2, .L12+4
 223 0020 0A4B     		ldr	r3, .L12+4
 224 0022 1B78     		ldrb	r3, [r3]
 225 0024 DBB2     		uxtb	r3, r3
 226 0026 23F01003 		bic	r3, r3, #16
 227 002a DBB2     		uxtb	r3, r3
 228 002c 1370     		strb	r3, [r2]
 199:Generated_Source\PSoC5/SPIM.c ****     CyExitCriticalSection(enableInterrupts);
 229              		.loc 1 199 0
 230 002e FB79     		ldrb	r3, [r7, #7]	@ zero_extendqisi2
 231 0030 1846     		mov	r0, r3
 232 0032 FFF7FEFF 		bl	CyExitCriticalSection
 200:Generated_Source\PSoC5/SPIM.c **** 
 201:Generated_Source\PSoC5/SPIM.c ****     #if(0u != SPIM_INTERNAL_CLOCK)
 202:Generated_Source\PSoC5/SPIM.c ****         SPIM_IntClock_Disable();
 233              		.loc 1 202 0
 234 0036 FFF7FEFF 		bl	SPIM_IntClock_Stop
 203:Generated_Source\PSoC5/SPIM.c ****     #endif /* (0u != SPIM_INTERNAL_CLOCK) */
 204:Generated_Source\PSoC5/SPIM.c **** 
 205:Generated_Source\PSoC5/SPIM.c ****     SPIM_DisableTxInt();
 235              		.loc 1 205 0
 236 003a FFF7FEFF 		bl	SPIM_DisableTxInt
 206:Generated_Source\PSoC5/SPIM.c ****     SPIM_DisableRxInt();
 237              		.loc 1 206 0
 238 003e FFF7FEFF 		bl	SPIM_DisableRxInt
 207:Generated_Source\PSoC5/SPIM.c **** }
 239              		.loc 1 207 0
 240 0042 0837     		adds	r7, r7, #8
 241              		.cfi_def_cfa_offset 8
 242 0044 BD46     		mov	sp, r7
 243              		.cfi_def_cfa_register 13
 244              		@ sp needed
 245 0046 80BD     		pop	{r7, pc}
 246              	.L13:
 247              		.align	2
 248              	.L12:
 249 0048 98640040 		.word	1073767576
ARM GAS  C:\Users\KJA\AppData\Local\Temp\cc3P3ZRh.s 			page 9


 250 004c 9B650040 		.word	1073767835
 251              		.cfi_endproc
 252              	.LFE3:
 253              		.size	SPIM_Stop, .-SPIM_Stop
 254              		.section	.text.SPIM_EnableTxInt,"ax",%progbits
 255              		.align	2
 256              		.global	SPIM_EnableTxInt
 257              		.thumb
 258              		.thumb_func
 259              		.type	SPIM_EnableTxInt, %function
 260              	SPIM_EnableTxInt:
 261              	.LFB4:
 208:Generated_Source\PSoC5/SPIM.c **** 
 209:Generated_Source\PSoC5/SPIM.c **** 
 210:Generated_Source\PSoC5/SPIM.c **** /*******************************************************************************
 211:Generated_Source\PSoC5/SPIM.c **** * Function Name: SPIM_EnableTxInt
 212:Generated_Source\PSoC5/SPIM.c **** ********************************************************************************
 213:Generated_Source\PSoC5/SPIM.c **** *
 214:Generated_Source\PSoC5/SPIM.c **** * Summary:
 215:Generated_Source\PSoC5/SPIM.c **** *  Enable internal Tx interrupt generation.
 216:Generated_Source\PSoC5/SPIM.c **** *
 217:Generated_Source\PSoC5/SPIM.c **** * Parameters:
 218:Generated_Source\PSoC5/SPIM.c **** *  None.
 219:Generated_Source\PSoC5/SPIM.c **** *
 220:Generated_Source\PSoC5/SPIM.c **** * Return:
 221:Generated_Source\PSoC5/SPIM.c **** *  None.
 222:Generated_Source\PSoC5/SPIM.c **** *
 223:Generated_Source\PSoC5/SPIM.c **** * Theory:
 224:Generated_Source\PSoC5/SPIM.c **** *  Enable the internal Tx interrupt output -or- the interrupt component itself.
 225:Generated_Source\PSoC5/SPIM.c **** *
 226:Generated_Source\PSoC5/SPIM.c **** *******************************************************************************/
 227:Generated_Source\PSoC5/SPIM.c **** void SPIM_EnableTxInt(void) 
 228:Generated_Source\PSoC5/SPIM.c **** {
 262              		.loc 1 228 0
 263              		.cfi_startproc
 264              		@ args = 0, pretend = 0, frame = 0
 265              		@ frame_needed = 1, uses_anonymous_args = 0
 266              		@ link register save eliminated.
 267 0000 80B4     		push	{r7}
 268              		.cfi_def_cfa_offset 4
 269              		.cfi_offset 7, -4
 270 0002 00AF     		add	r7, sp, #0
 271              		.cfi_def_cfa_register 7
 229:Generated_Source\PSoC5/SPIM.c ****     #if(0u != SPIM_INTERNAL_TX_INT_ENABLED)
 230:Generated_Source\PSoC5/SPIM.c ****         CyIntEnable(SPIM_TX_ISR_NUMBER);
 231:Generated_Source\PSoC5/SPIM.c ****     #endif /* (0u != SPIM_INTERNAL_TX_INT_ENABLED) */
 232:Generated_Source\PSoC5/SPIM.c **** }
 272              		.loc 1 232 0
 273 0004 BD46     		mov	sp, r7
 274              		.cfi_def_cfa_register 13
 275              		@ sp needed
 276 0006 5DF8047B 		ldr	r7, [sp], #4
 277              		.cfi_restore 7
 278              		.cfi_def_cfa_offset 0
 279 000a 7047     		bx	lr
 280              		.cfi_endproc
 281              	.LFE4:
ARM GAS  C:\Users\KJA\AppData\Local\Temp\cc3P3ZRh.s 			page 10


 282              		.size	SPIM_EnableTxInt, .-SPIM_EnableTxInt
 283              		.section	.text.SPIM_EnableRxInt,"ax",%progbits
 284              		.align	2
 285              		.global	SPIM_EnableRxInt
 286              		.thumb
 287              		.thumb_func
 288              		.type	SPIM_EnableRxInt, %function
 289              	SPIM_EnableRxInt:
 290              	.LFB5:
 233:Generated_Source\PSoC5/SPIM.c **** 
 234:Generated_Source\PSoC5/SPIM.c **** 
 235:Generated_Source\PSoC5/SPIM.c **** /*******************************************************************************
 236:Generated_Source\PSoC5/SPIM.c **** * Function Name: SPIM_EnableRxInt
 237:Generated_Source\PSoC5/SPIM.c **** ********************************************************************************
 238:Generated_Source\PSoC5/SPIM.c **** *
 239:Generated_Source\PSoC5/SPIM.c **** * Summary:
 240:Generated_Source\PSoC5/SPIM.c **** *  Enable internal Rx interrupt generation.
 241:Generated_Source\PSoC5/SPIM.c **** *
 242:Generated_Source\PSoC5/SPIM.c **** * Parameters:
 243:Generated_Source\PSoC5/SPIM.c **** *  None.
 244:Generated_Source\PSoC5/SPIM.c **** *
 245:Generated_Source\PSoC5/SPIM.c **** * Return:
 246:Generated_Source\PSoC5/SPIM.c **** *  None.
 247:Generated_Source\PSoC5/SPIM.c **** *
 248:Generated_Source\PSoC5/SPIM.c **** * Theory:
 249:Generated_Source\PSoC5/SPIM.c **** *  Enable the internal Rx interrupt output -or- the interrupt component itself.
 250:Generated_Source\PSoC5/SPIM.c **** *
 251:Generated_Source\PSoC5/SPIM.c **** *******************************************************************************/
 252:Generated_Source\PSoC5/SPIM.c **** void SPIM_EnableRxInt(void) 
 253:Generated_Source\PSoC5/SPIM.c **** {
 291              		.loc 1 253 0
 292              		.cfi_startproc
 293              		@ args = 0, pretend = 0, frame = 0
 294              		@ frame_needed = 1, uses_anonymous_args = 0
 295              		@ link register save eliminated.
 296 0000 80B4     		push	{r7}
 297              		.cfi_def_cfa_offset 4
 298              		.cfi_offset 7, -4
 299 0002 00AF     		add	r7, sp, #0
 300              		.cfi_def_cfa_register 7
 254:Generated_Source\PSoC5/SPIM.c ****     #if(0u != SPIM_INTERNAL_RX_INT_ENABLED)
 255:Generated_Source\PSoC5/SPIM.c ****         CyIntEnable(SPIM_RX_ISR_NUMBER);
 256:Generated_Source\PSoC5/SPIM.c ****     #endif /* (0u != SPIM_INTERNAL_RX_INT_ENABLED) */
 257:Generated_Source\PSoC5/SPIM.c **** }
 301              		.loc 1 257 0
 302 0004 BD46     		mov	sp, r7
 303              		.cfi_def_cfa_register 13
 304              		@ sp needed
 305 0006 5DF8047B 		ldr	r7, [sp], #4
 306              		.cfi_restore 7
 307              		.cfi_def_cfa_offset 0
 308 000a 7047     		bx	lr
 309              		.cfi_endproc
 310              	.LFE5:
 311              		.size	SPIM_EnableRxInt, .-SPIM_EnableRxInt
 312              		.section	.text.SPIM_DisableTxInt,"ax",%progbits
 313              		.align	2
ARM GAS  C:\Users\KJA\AppData\Local\Temp\cc3P3ZRh.s 			page 11


 314              		.global	SPIM_DisableTxInt
 315              		.thumb
 316              		.thumb_func
 317              		.type	SPIM_DisableTxInt, %function
 318              	SPIM_DisableTxInt:
 319              	.LFB6:
 258:Generated_Source\PSoC5/SPIM.c **** 
 259:Generated_Source\PSoC5/SPIM.c **** 
 260:Generated_Source\PSoC5/SPIM.c **** /*******************************************************************************
 261:Generated_Source\PSoC5/SPIM.c **** * Function Name: SPIM_DisableTxInt
 262:Generated_Source\PSoC5/SPIM.c **** ********************************************************************************
 263:Generated_Source\PSoC5/SPIM.c **** *
 264:Generated_Source\PSoC5/SPIM.c **** * Summary:
 265:Generated_Source\PSoC5/SPIM.c **** *  Disable internal Tx interrupt generation.
 266:Generated_Source\PSoC5/SPIM.c **** *
 267:Generated_Source\PSoC5/SPIM.c **** * Parameters:
 268:Generated_Source\PSoC5/SPIM.c **** *  None.
 269:Generated_Source\PSoC5/SPIM.c **** *
 270:Generated_Source\PSoC5/SPIM.c **** * Return:
 271:Generated_Source\PSoC5/SPIM.c **** *  None.
 272:Generated_Source\PSoC5/SPIM.c **** *
 273:Generated_Source\PSoC5/SPIM.c **** * Theory:
 274:Generated_Source\PSoC5/SPIM.c **** *  Disable the internal Tx interrupt output -or- the interrupt component itself.
 275:Generated_Source\PSoC5/SPIM.c **** *
 276:Generated_Source\PSoC5/SPIM.c **** *******************************************************************************/
 277:Generated_Source\PSoC5/SPIM.c **** void SPIM_DisableTxInt(void) 
 278:Generated_Source\PSoC5/SPIM.c **** {
 320              		.loc 1 278 0
 321              		.cfi_startproc
 322              		@ args = 0, pretend = 0, frame = 0
 323              		@ frame_needed = 1, uses_anonymous_args = 0
 324              		@ link register save eliminated.
 325 0000 80B4     		push	{r7}
 326              		.cfi_def_cfa_offset 4
 327              		.cfi_offset 7, -4
 328 0002 00AF     		add	r7, sp, #0
 329              		.cfi_def_cfa_register 7
 279:Generated_Source\PSoC5/SPIM.c ****     #if(0u != SPIM_INTERNAL_TX_INT_ENABLED)
 280:Generated_Source\PSoC5/SPIM.c ****         CyIntDisable(SPIM_TX_ISR_NUMBER);
 281:Generated_Source\PSoC5/SPIM.c ****     #endif /* (0u != SPIM_INTERNAL_TX_INT_ENABLED) */
 282:Generated_Source\PSoC5/SPIM.c **** }
 330              		.loc 1 282 0
 331 0004 BD46     		mov	sp, r7
 332              		.cfi_def_cfa_register 13
 333              		@ sp needed
 334 0006 5DF8047B 		ldr	r7, [sp], #4
 335              		.cfi_restore 7
 336              		.cfi_def_cfa_offset 0
 337 000a 7047     		bx	lr
 338              		.cfi_endproc
 339              	.LFE6:
 340              		.size	SPIM_DisableTxInt, .-SPIM_DisableTxInt
 341              		.section	.text.SPIM_DisableRxInt,"ax",%progbits
 342              		.align	2
 343              		.global	SPIM_DisableRxInt
 344              		.thumb
 345              		.thumb_func
ARM GAS  C:\Users\KJA\AppData\Local\Temp\cc3P3ZRh.s 			page 12


 346              		.type	SPIM_DisableRxInt, %function
 347              	SPIM_DisableRxInt:
 348              	.LFB7:
 283:Generated_Source\PSoC5/SPIM.c **** 
 284:Generated_Source\PSoC5/SPIM.c **** 
 285:Generated_Source\PSoC5/SPIM.c **** /*******************************************************************************
 286:Generated_Source\PSoC5/SPIM.c **** * Function Name: SPIM_DisableRxInt
 287:Generated_Source\PSoC5/SPIM.c **** ********************************************************************************
 288:Generated_Source\PSoC5/SPIM.c **** *
 289:Generated_Source\PSoC5/SPIM.c **** * Summary:
 290:Generated_Source\PSoC5/SPIM.c **** *  Disable internal Rx interrupt generation.
 291:Generated_Source\PSoC5/SPIM.c **** *
 292:Generated_Source\PSoC5/SPIM.c **** * Parameters:
 293:Generated_Source\PSoC5/SPIM.c **** *  None.
 294:Generated_Source\PSoC5/SPIM.c **** *
 295:Generated_Source\PSoC5/SPIM.c **** * Return:
 296:Generated_Source\PSoC5/SPIM.c **** *  None.
 297:Generated_Source\PSoC5/SPIM.c **** *
 298:Generated_Source\PSoC5/SPIM.c **** * Theory:
 299:Generated_Source\PSoC5/SPIM.c **** *  Disable the internal Rx interrupt output -or- the interrupt component itself.
 300:Generated_Source\PSoC5/SPIM.c **** *
 301:Generated_Source\PSoC5/SPIM.c **** *******************************************************************************/
 302:Generated_Source\PSoC5/SPIM.c **** void SPIM_DisableRxInt(void) 
 303:Generated_Source\PSoC5/SPIM.c **** {
 349              		.loc 1 303 0
 350              		.cfi_startproc
 351              		@ args = 0, pretend = 0, frame = 0
 352              		@ frame_needed = 1, uses_anonymous_args = 0
 353              		@ link register save eliminated.
 354 0000 80B4     		push	{r7}
 355              		.cfi_def_cfa_offset 4
 356              		.cfi_offset 7, -4
 357 0002 00AF     		add	r7, sp, #0
 358              		.cfi_def_cfa_register 7
 304:Generated_Source\PSoC5/SPIM.c ****     #if(0u != SPIM_INTERNAL_RX_INT_ENABLED)
 305:Generated_Source\PSoC5/SPIM.c ****         CyIntDisable(SPIM_RX_ISR_NUMBER);
 306:Generated_Source\PSoC5/SPIM.c ****     #endif /* (0u != SPIM_INTERNAL_RX_INT_ENABLED) */
 307:Generated_Source\PSoC5/SPIM.c **** }
 359              		.loc 1 307 0
 360 0004 BD46     		mov	sp, r7
 361              		.cfi_def_cfa_register 13
 362              		@ sp needed
 363 0006 5DF8047B 		ldr	r7, [sp], #4
 364              		.cfi_restore 7
 365              		.cfi_def_cfa_offset 0
 366 000a 7047     		bx	lr
 367              		.cfi_endproc
 368              	.LFE7:
 369              		.size	SPIM_DisableRxInt, .-SPIM_DisableRxInt
 370              		.section	.text.SPIM_SetTxInterruptMode,"ax",%progbits
 371              		.align	2
 372              		.global	SPIM_SetTxInterruptMode
 373              		.thumb
 374              		.thumb_func
 375              		.type	SPIM_SetTxInterruptMode, %function
 376              	SPIM_SetTxInterruptMode:
 377              	.LFB8:
ARM GAS  C:\Users\KJA\AppData\Local\Temp\cc3P3ZRh.s 			page 13


 308:Generated_Source\PSoC5/SPIM.c **** 
 309:Generated_Source\PSoC5/SPIM.c **** 
 310:Generated_Source\PSoC5/SPIM.c **** /*******************************************************************************
 311:Generated_Source\PSoC5/SPIM.c **** * Function Name: SPIM_SetTxInterruptMode
 312:Generated_Source\PSoC5/SPIM.c **** ********************************************************************************
 313:Generated_Source\PSoC5/SPIM.c **** *
 314:Generated_Source\PSoC5/SPIM.c **** * Summary:
 315:Generated_Source\PSoC5/SPIM.c **** *  Configure which status bits trigger an interrupt event.
 316:Generated_Source\PSoC5/SPIM.c **** *
 317:Generated_Source\PSoC5/SPIM.c **** * Parameters:
 318:Generated_Source\PSoC5/SPIM.c **** *  intSrc: An or'd combination of the desired status bit masks (defined in the
 319:Generated_Source\PSoC5/SPIM.c **** *  header file).
 320:Generated_Source\PSoC5/SPIM.c **** *
 321:Generated_Source\PSoC5/SPIM.c **** * Return:
 322:Generated_Source\PSoC5/SPIM.c **** *  None.
 323:Generated_Source\PSoC5/SPIM.c **** *
 324:Generated_Source\PSoC5/SPIM.c **** * Theory:
 325:Generated_Source\PSoC5/SPIM.c **** *  Enables the output of specific status bits to the interrupt controller.
 326:Generated_Source\PSoC5/SPIM.c **** *
 327:Generated_Source\PSoC5/SPIM.c **** *******************************************************************************/
 328:Generated_Source\PSoC5/SPIM.c **** void SPIM_SetTxInterruptMode(uint8 intSrc) 
 329:Generated_Source\PSoC5/SPIM.c **** {
 378              		.loc 1 329 0
 379              		.cfi_startproc
 380              		@ args = 0, pretend = 0, frame = 8
 381              		@ frame_needed = 1, uses_anonymous_args = 0
 382              		@ link register save eliminated.
 383 0000 80B4     		push	{r7}
 384              		.cfi_def_cfa_offset 4
 385              		.cfi_offset 7, -4
 386 0002 83B0     		sub	sp, sp, #12
 387              		.cfi_def_cfa_offset 16
 388 0004 00AF     		add	r7, sp, #0
 389              		.cfi_def_cfa_register 7
 390 0006 0346     		mov	r3, r0
 391 0008 FB71     		strb	r3, [r7, #7]
 330:Generated_Source\PSoC5/SPIM.c ****     SPIM_TX_STATUS_MASK_REG = intSrc;
 392              		.loc 1 330 0
 393 000a 044A     		ldr	r2, .L19
 394 000c FB79     		ldrb	r3, [r7, #7]
 395 000e 1370     		strb	r3, [r2]
 331:Generated_Source\PSoC5/SPIM.c **** }
 396              		.loc 1 331 0
 397 0010 0C37     		adds	r7, r7, #12
 398              		.cfi_def_cfa_offset 4
 399 0012 BD46     		mov	sp, r7
 400              		.cfi_def_cfa_register 13
 401              		@ sp needed
 402 0014 5DF8047B 		ldr	r7, [sp], #4
 403              		.cfi_restore 7
 404              		.cfi_def_cfa_offset 0
 405 0018 7047     		bx	lr
 406              	.L20:
 407 001a 00BF     		.align	2
 408              	.L19:
 409 001c 88640040 		.word	1073767560
 410              		.cfi_endproc
ARM GAS  C:\Users\KJA\AppData\Local\Temp\cc3P3ZRh.s 			page 14


 411              	.LFE8:
 412              		.size	SPIM_SetTxInterruptMode, .-SPIM_SetTxInterruptMode
 413              		.section	.text.SPIM_SetRxInterruptMode,"ax",%progbits
 414              		.align	2
 415              		.global	SPIM_SetRxInterruptMode
 416              		.thumb
 417              		.thumb_func
 418              		.type	SPIM_SetRxInterruptMode, %function
 419              	SPIM_SetRxInterruptMode:
 420              	.LFB9:
 332:Generated_Source\PSoC5/SPIM.c **** 
 333:Generated_Source\PSoC5/SPIM.c **** 
 334:Generated_Source\PSoC5/SPIM.c **** /*******************************************************************************
 335:Generated_Source\PSoC5/SPIM.c **** * Function Name: SPIM_SetRxInterruptMode
 336:Generated_Source\PSoC5/SPIM.c **** ********************************************************************************
 337:Generated_Source\PSoC5/SPIM.c **** *
 338:Generated_Source\PSoC5/SPIM.c **** * Summary:
 339:Generated_Source\PSoC5/SPIM.c **** *  Configure which status bits trigger an interrupt event.
 340:Generated_Source\PSoC5/SPIM.c **** *
 341:Generated_Source\PSoC5/SPIM.c **** * Parameters:
 342:Generated_Source\PSoC5/SPIM.c **** *  intSrc: An or'd combination of the desired status bit masks (defined in the
 343:Generated_Source\PSoC5/SPIM.c **** *  header file).
 344:Generated_Source\PSoC5/SPIM.c **** *
 345:Generated_Source\PSoC5/SPIM.c **** * Return:
 346:Generated_Source\PSoC5/SPIM.c **** *  None.
 347:Generated_Source\PSoC5/SPIM.c **** *
 348:Generated_Source\PSoC5/SPIM.c **** * Theory:
 349:Generated_Source\PSoC5/SPIM.c **** *  Enables the output of specific status bits to the interrupt controller.
 350:Generated_Source\PSoC5/SPIM.c **** *
 351:Generated_Source\PSoC5/SPIM.c **** *******************************************************************************/
 352:Generated_Source\PSoC5/SPIM.c **** void SPIM_SetRxInterruptMode(uint8 intSrc) 
 353:Generated_Source\PSoC5/SPIM.c **** {
 421              		.loc 1 353 0
 422              		.cfi_startproc
 423              		@ args = 0, pretend = 0, frame = 8
 424              		@ frame_needed = 1, uses_anonymous_args = 0
 425              		@ link register save eliminated.
 426 0000 80B4     		push	{r7}
 427              		.cfi_def_cfa_offset 4
 428              		.cfi_offset 7, -4
 429 0002 83B0     		sub	sp, sp, #12
 430              		.cfi_def_cfa_offset 16
 431 0004 00AF     		add	r7, sp, #0
 432              		.cfi_def_cfa_register 7
 433 0006 0346     		mov	r3, r0
 434 0008 FB71     		strb	r3, [r7, #7]
 354:Generated_Source\PSoC5/SPIM.c ****     SPIM_RX_STATUS_MASK_REG  = intSrc;
 435              		.loc 1 354 0
 436 000a 044A     		ldr	r2, .L22
 437 000c FB79     		ldrb	r3, [r7, #7]
 438 000e 1370     		strb	r3, [r2]
 355:Generated_Source\PSoC5/SPIM.c **** }
 439              		.loc 1 355 0
 440 0010 0C37     		adds	r7, r7, #12
 441              		.cfi_def_cfa_offset 4
 442 0012 BD46     		mov	sp, r7
 443              		.cfi_def_cfa_register 13
ARM GAS  C:\Users\KJA\AppData\Local\Temp\cc3P3ZRh.s 			page 15


 444              		@ sp needed
 445 0014 5DF8047B 		ldr	r7, [sp], #4
 446              		.cfi_restore 7
 447              		.cfi_def_cfa_offset 0
 448 0018 7047     		bx	lr
 449              	.L23:
 450 001a 00BF     		.align	2
 451              	.L22:
 452 001c 8B650040 		.word	1073767819
 453              		.cfi_endproc
 454              	.LFE9:
 455              		.size	SPIM_SetRxInterruptMode, .-SPIM_SetRxInterruptMode
 456              		.section	.text.SPIM_ReadTxStatus,"ax",%progbits
 457              		.align	2
 458              		.global	SPIM_ReadTxStatus
 459              		.thumb
 460              		.thumb_func
 461              		.type	SPIM_ReadTxStatus, %function
 462              	SPIM_ReadTxStatus:
 463              	.LFB10:
 356:Generated_Source\PSoC5/SPIM.c **** 
 357:Generated_Source\PSoC5/SPIM.c **** 
 358:Generated_Source\PSoC5/SPIM.c **** /*******************************************************************************
 359:Generated_Source\PSoC5/SPIM.c **** * Function Name: SPIM_ReadTxStatus
 360:Generated_Source\PSoC5/SPIM.c **** ********************************************************************************
 361:Generated_Source\PSoC5/SPIM.c **** *
 362:Generated_Source\PSoC5/SPIM.c **** * Summary:
 363:Generated_Source\PSoC5/SPIM.c **** *  Read the Tx status register for the component.
 364:Generated_Source\PSoC5/SPIM.c **** *
 365:Generated_Source\PSoC5/SPIM.c **** * Parameters:
 366:Generated_Source\PSoC5/SPIM.c **** *  None.
 367:Generated_Source\PSoC5/SPIM.c **** *
 368:Generated_Source\PSoC5/SPIM.c **** * Return:
 369:Generated_Source\PSoC5/SPIM.c **** *  Contents of the Tx status register.
 370:Generated_Source\PSoC5/SPIM.c **** *
 371:Generated_Source\PSoC5/SPIM.c **** * Global variables:
 372:Generated_Source\PSoC5/SPIM.c **** *  SPIM_swStatusTx - used to store in software status register,
 373:Generated_Source\PSoC5/SPIM.c **** *  modified every function call - resets to zero.
 374:Generated_Source\PSoC5/SPIM.c **** *
 375:Generated_Source\PSoC5/SPIM.c **** * Theory:
 376:Generated_Source\PSoC5/SPIM.c **** *  Allows the user and the API to read the Tx status register for error
 377:Generated_Source\PSoC5/SPIM.c **** *  detection and flow control.
 378:Generated_Source\PSoC5/SPIM.c **** *
 379:Generated_Source\PSoC5/SPIM.c **** * Side Effects:
 380:Generated_Source\PSoC5/SPIM.c **** *  Clear Tx status register of the component.
 381:Generated_Source\PSoC5/SPIM.c **** *
 382:Generated_Source\PSoC5/SPIM.c **** * Reentrant:
 383:Generated_Source\PSoC5/SPIM.c **** *  No.
 384:Generated_Source\PSoC5/SPIM.c **** *
 385:Generated_Source\PSoC5/SPIM.c **** *******************************************************************************/
 386:Generated_Source\PSoC5/SPIM.c **** uint8 SPIM_ReadTxStatus(void) 
 387:Generated_Source\PSoC5/SPIM.c **** {
 464              		.loc 1 387 0
 465              		.cfi_startproc
 466              		@ args = 0, pretend = 0, frame = 8
 467              		@ frame_needed = 1, uses_anonymous_args = 0
 468              		@ link register save eliminated.
ARM GAS  C:\Users\KJA\AppData\Local\Temp\cc3P3ZRh.s 			page 16


 469 0000 80B4     		push	{r7}
 470              		.cfi_def_cfa_offset 4
 471              		.cfi_offset 7, -4
 472 0002 83B0     		sub	sp, sp, #12
 473              		.cfi_def_cfa_offset 16
 474 0004 00AF     		add	r7, sp, #0
 475              		.cfi_def_cfa_register 7
 388:Generated_Source\PSoC5/SPIM.c ****     uint8 tmpStatus;
 389:Generated_Source\PSoC5/SPIM.c **** 
 390:Generated_Source\PSoC5/SPIM.c ****     #if(SPIM_TX_SOFTWARE_BUF_ENABLED)
 391:Generated_Source\PSoC5/SPIM.c ****         /* Disable TX interrupt to protect global veriables */
 392:Generated_Source\PSoC5/SPIM.c ****         SPIM_DisableTxInt();
 393:Generated_Source\PSoC5/SPIM.c **** 
 394:Generated_Source\PSoC5/SPIM.c ****         tmpStatus = SPIM_GET_STATUS_TX(SPIM_swStatusTx);
 395:Generated_Source\PSoC5/SPIM.c ****         SPIM_swStatusTx = 0u;
 396:Generated_Source\PSoC5/SPIM.c **** 
 397:Generated_Source\PSoC5/SPIM.c ****         SPIM_EnableTxInt();
 398:Generated_Source\PSoC5/SPIM.c **** 
 399:Generated_Source\PSoC5/SPIM.c ****     #else
 400:Generated_Source\PSoC5/SPIM.c **** 
 401:Generated_Source\PSoC5/SPIM.c ****         tmpStatus = SPIM_TX_STATUS_REG;
 476              		.loc 1 401 0
 477 0006 054B     		ldr	r3, .L26
 478 0008 1B78     		ldrb	r3, [r3]
 479 000a FB71     		strb	r3, [r7, #7]
 402:Generated_Source\PSoC5/SPIM.c **** 
 403:Generated_Source\PSoC5/SPIM.c ****     #endif /* (SPIM_TX_SOFTWARE_BUF_ENABLED) */
 404:Generated_Source\PSoC5/SPIM.c **** 
 405:Generated_Source\PSoC5/SPIM.c ****     return(tmpStatus);
 480              		.loc 1 405 0
 481 000c FB79     		ldrb	r3, [r7, #7]	@ zero_extendqisi2
 406:Generated_Source\PSoC5/SPIM.c **** }
 482              		.loc 1 406 0
 483 000e 1846     		mov	r0, r3
 484 0010 0C37     		adds	r7, r7, #12
 485              		.cfi_def_cfa_offset 4
 486 0012 BD46     		mov	sp, r7
 487              		.cfi_def_cfa_register 13
 488              		@ sp needed
 489 0014 5DF8047B 		ldr	r7, [sp], #4
 490              		.cfi_restore 7
 491              		.cfi_def_cfa_offset 0
 492 0018 7047     		bx	lr
 493              	.L27:
 494 001a 00BF     		.align	2
 495              	.L26:
 496 001c 68640040 		.word	1073767528
 497              		.cfi_endproc
 498              	.LFE10:
 499              		.size	SPIM_ReadTxStatus, .-SPIM_ReadTxStatus
 500              		.section	.text.SPIM_ReadRxStatus,"ax",%progbits
 501              		.align	2
 502              		.global	SPIM_ReadRxStatus
 503              		.thumb
 504              		.thumb_func
 505              		.type	SPIM_ReadRxStatus, %function
 506              	SPIM_ReadRxStatus:
ARM GAS  C:\Users\KJA\AppData\Local\Temp\cc3P3ZRh.s 			page 17


 507              	.LFB11:
 407:Generated_Source\PSoC5/SPIM.c **** 
 408:Generated_Source\PSoC5/SPIM.c **** 
 409:Generated_Source\PSoC5/SPIM.c **** /*******************************************************************************
 410:Generated_Source\PSoC5/SPIM.c **** * Function Name: SPIM_ReadRxStatus
 411:Generated_Source\PSoC5/SPIM.c **** ********************************************************************************
 412:Generated_Source\PSoC5/SPIM.c **** *
 413:Generated_Source\PSoC5/SPIM.c **** * Summary:
 414:Generated_Source\PSoC5/SPIM.c **** *  Read the Rx status register for the component.
 415:Generated_Source\PSoC5/SPIM.c **** *
 416:Generated_Source\PSoC5/SPIM.c **** * Parameters:
 417:Generated_Source\PSoC5/SPIM.c **** *  None.
 418:Generated_Source\PSoC5/SPIM.c **** *
 419:Generated_Source\PSoC5/SPIM.c **** * Return:
 420:Generated_Source\PSoC5/SPIM.c **** *  Contents of the Rx status register.
 421:Generated_Source\PSoC5/SPIM.c **** *
 422:Generated_Source\PSoC5/SPIM.c **** * Global variables:
 423:Generated_Source\PSoC5/SPIM.c **** *  SPIM_swStatusRx - used to store in software Rx status register,
 424:Generated_Source\PSoC5/SPIM.c **** *  modified every function call - resets to zero.
 425:Generated_Source\PSoC5/SPIM.c **** *
 426:Generated_Source\PSoC5/SPIM.c **** * Theory:
 427:Generated_Source\PSoC5/SPIM.c **** *  Allows the user and the API to read the Rx status register for error
 428:Generated_Source\PSoC5/SPIM.c **** *  detection and flow control.
 429:Generated_Source\PSoC5/SPIM.c **** *
 430:Generated_Source\PSoC5/SPIM.c **** * Side Effects:
 431:Generated_Source\PSoC5/SPIM.c **** *  Clear Rx status register of the component.
 432:Generated_Source\PSoC5/SPIM.c **** *
 433:Generated_Source\PSoC5/SPIM.c **** * Reentrant:
 434:Generated_Source\PSoC5/SPIM.c **** *  No.
 435:Generated_Source\PSoC5/SPIM.c **** *
 436:Generated_Source\PSoC5/SPIM.c **** *******************************************************************************/
 437:Generated_Source\PSoC5/SPIM.c **** uint8 SPIM_ReadRxStatus(void) 
 438:Generated_Source\PSoC5/SPIM.c **** {
 508              		.loc 1 438 0
 509              		.cfi_startproc
 510              		@ args = 0, pretend = 0, frame = 8
 511              		@ frame_needed = 1, uses_anonymous_args = 0
 512              		@ link register save eliminated.
 513 0000 80B4     		push	{r7}
 514              		.cfi_def_cfa_offset 4
 515              		.cfi_offset 7, -4
 516 0002 83B0     		sub	sp, sp, #12
 517              		.cfi_def_cfa_offset 16
 518 0004 00AF     		add	r7, sp, #0
 519              		.cfi_def_cfa_register 7
 439:Generated_Source\PSoC5/SPIM.c ****     uint8 tmpStatus;
 440:Generated_Source\PSoC5/SPIM.c **** 
 441:Generated_Source\PSoC5/SPIM.c ****     #if(SPIM_RX_SOFTWARE_BUF_ENABLED)
 442:Generated_Source\PSoC5/SPIM.c ****         /* Disable RX interrupt to protect global veriables */
 443:Generated_Source\PSoC5/SPIM.c ****         SPIM_DisableRxInt();
 444:Generated_Source\PSoC5/SPIM.c **** 
 445:Generated_Source\PSoC5/SPIM.c ****         tmpStatus = SPIM_GET_STATUS_RX(SPIM_swStatusRx);
 446:Generated_Source\PSoC5/SPIM.c ****         SPIM_swStatusRx = 0u;
 447:Generated_Source\PSoC5/SPIM.c **** 
 448:Generated_Source\PSoC5/SPIM.c ****         SPIM_EnableRxInt();
 449:Generated_Source\PSoC5/SPIM.c **** 
 450:Generated_Source\PSoC5/SPIM.c ****     #else
ARM GAS  C:\Users\KJA\AppData\Local\Temp\cc3P3ZRh.s 			page 18


 451:Generated_Source\PSoC5/SPIM.c **** 
 452:Generated_Source\PSoC5/SPIM.c ****         tmpStatus = SPIM_RX_STATUS_REG;
 520              		.loc 1 452 0
 521 0006 054B     		ldr	r3, .L30
 522 0008 1B78     		ldrb	r3, [r3]
 523 000a FB71     		strb	r3, [r7, #7]
 453:Generated_Source\PSoC5/SPIM.c **** 
 454:Generated_Source\PSoC5/SPIM.c ****     #endif /* (SPIM_RX_SOFTWARE_BUF_ENABLED) */
 455:Generated_Source\PSoC5/SPIM.c **** 
 456:Generated_Source\PSoC5/SPIM.c ****     return(tmpStatus);
 524              		.loc 1 456 0
 525 000c FB79     		ldrb	r3, [r7, #7]	@ zero_extendqisi2
 457:Generated_Source\PSoC5/SPIM.c **** }
 526              		.loc 1 457 0
 527 000e 1846     		mov	r0, r3
 528 0010 0C37     		adds	r7, r7, #12
 529              		.cfi_def_cfa_offset 4
 530 0012 BD46     		mov	sp, r7
 531              		.cfi_def_cfa_register 13
 532              		@ sp needed
 533 0014 5DF8047B 		ldr	r7, [sp], #4
 534              		.cfi_restore 7
 535              		.cfi_def_cfa_offset 0
 536 0018 7047     		bx	lr
 537              	.L31:
 538 001a 00BF     		.align	2
 539              	.L30:
 540 001c 6B650040 		.word	1073767787
 541              		.cfi_endproc
 542              	.LFE11:
 543              		.size	SPIM_ReadRxStatus, .-SPIM_ReadRxStatus
 544              		.section	.text.SPIM_WriteTxData,"ax",%progbits
 545              		.align	2
 546              		.global	SPIM_WriteTxData
 547              		.thumb
 548              		.thumb_func
 549              		.type	SPIM_WriteTxData, %function
 550              	SPIM_WriteTxData:
 551              	.LFB12:
 458:Generated_Source\PSoC5/SPIM.c **** 
 459:Generated_Source\PSoC5/SPIM.c **** 
 460:Generated_Source\PSoC5/SPIM.c **** /*******************************************************************************
 461:Generated_Source\PSoC5/SPIM.c **** * Function Name: SPIM_WriteTxData
 462:Generated_Source\PSoC5/SPIM.c **** ********************************************************************************
 463:Generated_Source\PSoC5/SPIM.c **** *
 464:Generated_Source\PSoC5/SPIM.c **** * Summary:
 465:Generated_Source\PSoC5/SPIM.c **** *  Write a byte of data to be sent across the SPI.
 466:Generated_Source\PSoC5/SPIM.c **** *
 467:Generated_Source\PSoC5/SPIM.c **** * Parameters:
 468:Generated_Source\PSoC5/SPIM.c **** *  txDataByte: The data value to send across the SPI.
 469:Generated_Source\PSoC5/SPIM.c **** *
 470:Generated_Source\PSoC5/SPIM.c **** * Return:
 471:Generated_Source\PSoC5/SPIM.c **** *  None.
 472:Generated_Source\PSoC5/SPIM.c **** *
 473:Generated_Source\PSoC5/SPIM.c **** * Global variables:
 474:Generated_Source\PSoC5/SPIM.c **** *  SPIM_txBufferWrite - used for the account of the bytes which
 475:Generated_Source\PSoC5/SPIM.c **** *  have been written down in the TX software buffer, modified every function
ARM GAS  C:\Users\KJA\AppData\Local\Temp\cc3P3ZRh.s 			page 19


 476:Generated_Source\PSoC5/SPIM.c **** *  call if TX Software Buffer is used.
 477:Generated_Source\PSoC5/SPIM.c **** *  SPIM_txBufferRead - used for the account of the bytes which
 478:Generated_Source\PSoC5/SPIM.c **** *  have been read from the TX software buffer.
 479:Generated_Source\PSoC5/SPIM.c **** *  SPIM_txBuffer[SPIM_TX_BUFFER_SIZE] - used to store
 480:Generated_Source\PSoC5/SPIM.c **** *  data to sending, modified every function call if TX Software Buffer is used.
 481:Generated_Source\PSoC5/SPIM.c **** *
 482:Generated_Source\PSoC5/SPIM.c **** * Theory:
 483:Generated_Source\PSoC5/SPIM.c **** *  Allows the user to transmit any byte of data in a single transfer.
 484:Generated_Source\PSoC5/SPIM.c **** *
 485:Generated_Source\PSoC5/SPIM.c **** * Side Effects:
 486:Generated_Source\PSoC5/SPIM.c **** *  If this function is called again before the previous byte is finished then
 487:Generated_Source\PSoC5/SPIM.c **** *  the next byte will be appended to the transfer with no time between
 488:Generated_Source\PSoC5/SPIM.c **** *  the byte transfers. Clear Tx status register of the component.
 489:Generated_Source\PSoC5/SPIM.c **** *
 490:Generated_Source\PSoC5/SPIM.c **** * Reentrant:
 491:Generated_Source\PSoC5/SPIM.c **** *  No.
 492:Generated_Source\PSoC5/SPIM.c **** *
 493:Generated_Source\PSoC5/SPIM.c **** *******************************************************************************/
 494:Generated_Source\PSoC5/SPIM.c **** void SPIM_WriteTxData(uint8 txData) 
 495:Generated_Source\PSoC5/SPIM.c **** {
 552              		.loc 1 495 0
 553              		.cfi_startproc
 554              		@ args = 0, pretend = 0, frame = 8
 555              		@ frame_needed = 1, uses_anonymous_args = 0
 556              		@ link register save eliminated.
 557 0000 80B4     		push	{r7}
 558              		.cfi_def_cfa_offset 4
 559              		.cfi_offset 7, -4
 560 0002 83B0     		sub	sp, sp, #12
 561              		.cfi_def_cfa_offset 16
 562 0004 00AF     		add	r7, sp, #0
 563              		.cfi_def_cfa_register 7
 564 0006 0346     		mov	r3, r0
 565 0008 FB71     		strb	r3, [r7, #7]
 496:Generated_Source\PSoC5/SPIM.c ****     #if(SPIM_TX_SOFTWARE_BUF_ENABLED)
 497:Generated_Source\PSoC5/SPIM.c **** 
 498:Generated_Source\PSoC5/SPIM.c ****         uint8 tempStatus;
 499:Generated_Source\PSoC5/SPIM.c ****         uint8 tmpTxBufferRead;
 500:Generated_Source\PSoC5/SPIM.c **** 
 501:Generated_Source\PSoC5/SPIM.c ****         /* Block if TX buffer is FULL: don't overwrite */
 502:Generated_Source\PSoC5/SPIM.c ****         do
 503:Generated_Source\PSoC5/SPIM.c ****         {
 504:Generated_Source\PSoC5/SPIM.c ****             tmpTxBufferRead = SPIM_txBufferRead;
 505:Generated_Source\PSoC5/SPIM.c ****             if(0u == tmpTxBufferRead)
 506:Generated_Source\PSoC5/SPIM.c ****             {
 507:Generated_Source\PSoC5/SPIM.c ****                 tmpTxBufferRead = (SPIM_TX_BUFFER_SIZE - 1u);
 508:Generated_Source\PSoC5/SPIM.c ****             }
 509:Generated_Source\PSoC5/SPIM.c ****             else
 510:Generated_Source\PSoC5/SPIM.c ****             {
 511:Generated_Source\PSoC5/SPIM.c ****                 tmpTxBufferRead--;
 512:Generated_Source\PSoC5/SPIM.c ****             }
 513:Generated_Source\PSoC5/SPIM.c **** 
 514:Generated_Source\PSoC5/SPIM.c ****         }while(tmpTxBufferRead == SPIM_txBufferWrite);
 515:Generated_Source\PSoC5/SPIM.c **** 
 516:Generated_Source\PSoC5/SPIM.c ****         /* Disable TX interrupt to protect global veriables */
 517:Generated_Source\PSoC5/SPIM.c ****         SPIM_DisableTxInt();
 518:Generated_Source\PSoC5/SPIM.c **** 
ARM GAS  C:\Users\KJA\AppData\Local\Temp\cc3P3ZRh.s 			page 20


 519:Generated_Source\PSoC5/SPIM.c ****         tempStatus = SPIM_GET_STATUS_TX(SPIM_swStatusTx);
 520:Generated_Source\PSoC5/SPIM.c ****         SPIM_swStatusTx = tempStatus;
 521:Generated_Source\PSoC5/SPIM.c **** 
 522:Generated_Source\PSoC5/SPIM.c **** 
 523:Generated_Source\PSoC5/SPIM.c ****         if((SPIM_txBufferRead == SPIM_txBufferWrite) &&
 524:Generated_Source\PSoC5/SPIM.c ****            (0u != (SPIM_swStatusTx & SPIM_STS_TX_FIFO_NOT_FULL)))
 525:Generated_Source\PSoC5/SPIM.c ****         {
 526:Generated_Source\PSoC5/SPIM.c ****             /* Put data element into the TX FIFO */
 527:Generated_Source\PSoC5/SPIM.c ****             CY_SET_REG8(SPIM_TXDATA_PTR, txData);
 528:Generated_Source\PSoC5/SPIM.c ****         }
 529:Generated_Source\PSoC5/SPIM.c ****         else
 530:Generated_Source\PSoC5/SPIM.c ****         {
 531:Generated_Source\PSoC5/SPIM.c ****             /* Add to the TX software buffer */
 532:Generated_Source\PSoC5/SPIM.c ****             SPIM_txBufferWrite++;
 533:Generated_Source\PSoC5/SPIM.c ****             if(SPIM_txBufferWrite >= SPIM_TX_BUFFER_SIZE)
 534:Generated_Source\PSoC5/SPIM.c ****             {
 535:Generated_Source\PSoC5/SPIM.c ****                 SPIM_txBufferWrite = 0u;
 536:Generated_Source\PSoC5/SPIM.c ****             }
 537:Generated_Source\PSoC5/SPIM.c **** 
 538:Generated_Source\PSoC5/SPIM.c ****             if(SPIM_txBufferWrite == SPIM_txBufferRead)
 539:Generated_Source\PSoC5/SPIM.c ****             {
 540:Generated_Source\PSoC5/SPIM.c ****                 SPIM_txBufferRead++;
 541:Generated_Source\PSoC5/SPIM.c ****                 if(SPIM_txBufferRead >= SPIM_TX_BUFFER_SIZE)
 542:Generated_Source\PSoC5/SPIM.c ****                 {
 543:Generated_Source\PSoC5/SPIM.c ****                     SPIM_txBufferRead = 0u;
 544:Generated_Source\PSoC5/SPIM.c ****                 }
 545:Generated_Source\PSoC5/SPIM.c ****                 SPIM_txBufferFull = 1u;
 546:Generated_Source\PSoC5/SPIM.c ****             }
 547:Generated_Source\PSoC5/SPIM.c **** 
 548:Generated_Source\PSoC5/SPIM.c ****             SPIM_txBuffer[SPIM_txBufferWrite] = txData;
 549:Generated_Source\PSoC5/SPIM.c **** 
 550:Generated_Source\PSoC5/SPIM.c ****             SPIM_TX_STATUS_MASK_REG |= SPIM_STS_TX_FIFO_NOT_FULL;
 551:Generated_Source\PSoC5/SPIM.c ****         }
 552:Generated_Source\PSoC5/SPIM.c **** 
 553:Generated_Source\PSoC5/SPIM.c ****         SPIM_EnableTxInt();
 554:Generated_Source\PSoC5/SPIM.c **** 
 555:Generated_Source\PSoC5/SPIM.c ****     #else
 556:Generated_Source\PSoC5/SPIM.c ****         /* Wait until TX FIFO has a place */
 557:Generated_Source\PSoC5/SPIM.c ****         while(0u == (SPIM_TX_STATUS_REG & SPIM_STS_TX_FIFO_NOT_FULL))
 566              		.loc 1 557 0
 567 000a 00BF     		nop
 568              	.L33:
 569              		.loc 1 557 0 is_stmt 0 discriminator 1
 570 000c 074B     		ldr	r3, .L34
 571 000e 1B78     		ldrb	r3, [r3]
 572 0010 DBB2     		uxtb	r3, r3
 573 0012 03F00403 		and	r3, r3, #4
 574 0016 002B     		cmp	r3, #0
 575 0018 F8D0     		beq	.L33
 558:Generated_Source\PSoC5/SPIM.c ****         {
 559:Generated_Source\PSoC5/SPIM.c ****         }
 560:Generated_Source\PSoC5/SPIM.c **** 
 561:Generated_Source\PSoC5/SPIM.c ****         /* Put data element into the TX FIFO */
 562:Generated_Source\PSoC5/SPIM.c ****         CY_SET_REG8(SPIM_TXDATA_PTR, txData);
 576              		.loc 1 562 0 is_stmt 1
 577 001a 054A     		ldr	r2, .L34+4
 578 001c FB79     		ldrb	r3, [r7, #7]
ARM GAS  C:\Users\KJA\AppData\Local\Temp\cc3P3ZRh.s 			page 21


 579 001e 1370     		strb	r3, [r2]
 563:Generated_Source\PSoC5/SPIM.c **** 
 564:Generated_Source\PSoC5/SPIM.c ****     #endif /* (SPIM_TX_SOFTWARE_BUF_ENABLED) */
 565:Generated_Source\PSoC5/SPIM.c **** }
 580              		.loc 1 565 0
 581 0020 0C37     		adds	r7, r7, #12
 582              		.cfi_def_cfa_offset 4
 583 0022 BD46     		mov	sp, r7
 584              		.cfi_def_cfa_register 13
 585              		@ sp needed
 586 0024 5DF8047B 		ldr	r7, [sp], #4
 587              		.cfi_restore 7
 588              		.cfi_def_cfa_offset 0
 589 0028 7047     		bx	lr
 590              	.L35:
 591 002a 00BF     		.align	2
 592              	.L34:
 593 002c 68640040 		.word	1073767528
 594 0030 48650040 		.word	1073767752
 595              		.cfi_endproc
 596              	.LFE12:
 597              		.size	SPIM_WriteTxData, .-SPIM_WriteTxData
 598              		.section	.text.SPIM_ReadRxData,"ax",%progbits
 599              		.align	2
 600              		.global	SPIM_ReadRxData
 601              		.thumb
 602              		.thumb_func
 603              		.type	SPIM_ReadRxData, %function
 604              	SPIM_ReadRxData:
 605              	.LFB13:
 566:Generated_Source\PSoC5/SPIM.c **** 
 567:Generated_Source\PSoC5/SPIM.c **** 
 568:Generated_Source\PSoC5/SPIM.c **** /*******************************************************************************
 569:Generated_Source\PSoC5/SPIM.c **** * Function Name: SPIM_ReadRxData
 570:Generated_Source\PSoC5/SPIM.c **** ********************************************************************************
 571:Generated_Source\PSoC5/SPIM.c **** *
 572:Generated_Source\PSoC5/SPIM.c **** * Summary:
 573:Generated_Source\PSoC5/SPIM.c **** *  Read the next byte of data received across the SPI.
 574:Generated_Source\PSoC5/SPIM.c **** *
 575:Generated_Source\PSoC5/SPIM.c **** * Parameters:
 576:Generated_Source\PSoC5/SPIM.c **** *  None.
 577:Generated_Source\PSoC5/SPIM.c **** *
 578:Generated_Source\PSoC5/SPIM.c **** * Return:
 579:Generated_Source\PSoC5/SPIM.c **** *  The next byte of data read from the FIFO.
 580:Generated_Source\PSoC5/SPIM.c **** *
 581:Generated_Source\PSoC5/SPIM.c **** * Global variables:
 582:Generated_Source\PSoC5/SPIM.c **** *  SPIM_rxBufferWrite - used for the account of the bytes which
 583:Generated_Source\PSoC5/SPIM.c **** *  have been written down in the RX software buffer.
 584:Generated_Source\PSoC5/SPIM.c **** *  SPIM_rxBufferRead - used for the account of the bytes which
 585:Generated_Source\PSoC5/SPIM.c **** *  have been read from the RX software buffer, modified every function
 586:Generated_Source\PSoC5/SPIM.c **** *  call if RX Software Buffer is used.
 587:Generated_Source\PSoC5/SPIM.c **** *  SPIM_rxBuffer[SPIM_RX_BUFFER_SIZE] - used to store
 588:Generated_Source\PSoC5/SPIM.c **** *  received data.
 589:Generated_Source\PSoC5/SPIM.c **** *
 590:Generated_Source\PSoC5/SPIM.c **** * Theory:
 591:Generated_Source\PSoC5/SPIM.c **** *  Allows the user to read a byte of data received.
 592:Generated_Source\PSoC5/SPIM.c **** *
ARM GAS  C:\Users\KJA\AppData\Local\Temp\cc3P3ZRh.s 			page 22


 593:Generated_Source\PSoC5/SPIM.c **** * Side Effects:
 594:Generated_Source\PSoC5/SPIM.c **** *  Will return invalid data if the FIFO is empty. The user should Call
 595:Generated_Source\PSoC5/SPIM.c **** *  GetRxBufferSize() and if it returns a non-zero value then it is safe to call
 596:Generated_Source\PSoC5/SPIM.c **** *  ReadByte() function.
 597:Generated_Source\PSoC5/SPIM.c **** *
 598:Generated_Source\PSoC5/SPIM.c **** * Reentrant:
 599:Generated_Source\PSoC5/SPIM.c **** *  No.
 600:Generated_Source\PSoC5/SPIM.c **** *
 601:Generated_Source\PSoC5/SPIM.c **** *******************************************************************************/
 602:Generated_Source\PSoC5/SPIM.c **** uint8 SPIM_ReadRxData(void) 
 603:Generated_Source\PSoC5/SPIM.c **** {
 606              		.loc 1 603 0
 607              		.cfi_startproc
 608              		@ args = 0, pretend = 0, frame = 8
 609              		@ frame_needed = 1, uses_anonymous_args = 0
 610              		@ link register save eliminated.
 611 0000 80B4     		push	{r7}
 612              		.cfi_def_cfa_offset 4
 613              		.cfi_offset 7, -4
 614 0002 83B0     		sub	sp, sp, #12
 615              		.cfi_def_cfa_offset 16
 616 0004 00AF     		add	r7, sp, #0
 617              		.cfi_def_cfa_register 7
 604:Generated_Source\PSoC5/SPIM.c ****     uint8 rxData;
 605:Generated_Source\PSoC5/SPIM.c **** 
 606:Generated_Source\PSoC5/SPIM.c ****     #if(SPIM_RX_SOFTWARE_BUF_ENABLED)
 607:Generated_Source\PSoC5/SPIM.c **** 
 608:Generated_Source\PSoC5/SPIM.c ****         /* Disable RX interrupt to protect global veriables */
 609:Generated_Source\PSoC5/SPIM.c ****         SPIM_DisableRxInt();
 610:Generated_Source\PSoC5/SPIM.c **** 
 611:Generated_Source\PSoC5/SPIM.c ****         if(SPIM_rxBufferRead != SPIM_rxBufferWrite)
 612:Generated_Source\PSoC5/SPIM.c ****         {
 613:Generated_Source\PSoC5/SPIM.c ****             if(0u == SPIM_rxBufferFull)
 614:Generated_Source\PSoC5/SPIM.c ****             {
 615:Generated_Source\PSoC5/SPIM.c ****                 SPIM_rxBufferRead++;
 616:Generated_Source\PSoC5/SPIM.c ****                 if(SPIM_rxBufferRead >= SPIM_RX_BUFFER_SIZE)
 617:Generated_Source\PSoC5/SPIM.c ****                 {
 618:Generated_Source\PSoC5/SPIM.c ****                     SPIM_rxBufferRead = 0u;
 619:Generated_Source\PSoC5/SPIM.c ****                 }
 620:Generated_Source\PSoC5/SPIM.c ****             }
 621:Generated_Source\PSoC5/SPIM.c ****             else
 622:Generated_Source\PSoC5/SPIM.c ****             {
 623:Generated_Source\PSoC5/SPIM.c ****                 SPIM_rxBufferFull = 0u;
 624:Generated_Source\PSoC5/SPIM.c ****             }
 625:Generated_Source\PSoC5/SPIM.c ****         }
 626:Generated_Source\PSoC5/SPIM.c **** 
 627:Generated_Source\PSoC5/SPIM.c ****         rxData = SPIM_rxBuffer[SPIM_rxBufferRead];
 628:Generated_Source\PSoC5/SPIM.c **** 
 629:Generated_Source\PSoC5/SPIM.c ****         SPIM_EnableRxInt();
 630:Generated_Source\PSoC5/SPIM.c **** 
 631:Generated_Source\PSoC5/SPIM.c ****     #else
 632:Generated_Source\PSoC5/SPIM.c **** 
 633:Generated_Source\PSoC5/SPIM.c ****         rxData = CY_GET_REG8(SPIM_RXDATA_PTR);
 618              		.loc 1 633 0
 619 0006 054B     		ldr	r3, .L38
 620 0008 1B78     		ldrb	r3, [r3]
 621 000a FB71     		strb	r3, [r7, #7]
ARM GAS  C:\Users\KJA\AppData\Local\Temp\cc3P3ZRh.s 			page 23


 634:Generated_Source\PSoC5/SPIM.c **** 
 635:Generated_Source\PSoC5/SPIM.c ****     #endif /* (SPIM_RX_SOFTWARE_BUF_ENABLED) */
 636:Generated_Source\PSoC5/SPIM.c **** 
 637:Generated_Source\PSoC5/SPIM.c ****     return(rxData);
 622              		.loc 1 637 0
 623 000c FB79     		ldrb	r3, [r7, #7]	@ zero_extendqisi2
 638:Generated_Source\PSoC5/SPIM.c **** }
 624              		.loc 1 638 0
 625 000e 1846     		mov	r0, r3
 626 0010 0C37     		adds	r7, r7, #12
 627              		.cfi_def_cfa_offset 4
 628 0012 BD46     		mov	sp, r7
 629              		.cfi_def_cfa_register 13
 630              		@ sp needed
 631 0014 5DF8047B 		ldr	r7, [sp], #4
 632              		.cfi_restore 7
 633              		.cfi_def_cfa_offset 0
 634 0018 7047     		bx	lr
 635              	.L39:
 636 001a 00BF     		.align	2
 637              	.L38:
 638 001c 58650040 		.word	1073767768
 639              		.cfi_endproc
 640              	.LFE13:
 641              		.size	SPIM_ReadRxData, .-SPIM_ReadRxData
 642              		.section	.text.SPIM_GetRxBufferSize,"ax",%progbits
 643              		.align	2
 644              		.global	SPIM_GetRxBufferSize
 645              		.thumb
 646              		.thumb_func
 647              		.type	SPIM_GetRxBufferSize, %function
 648              	SPIM_GetRxBufferSize:
 649              	.LFB14:
 639:Generated_Source\PSoC5/SPIM.c **** 
 640:Generated_Source\PSoC5/SPIM.c **** 
 641:Generated_Source\PSoC5/SPIM.c **** /*******************************************************************************
 642:Generated_Source\PSoC5/SPIM.c **** * Function Name: SPIM_GetRxBufferSize
 643:Generated_Source\PSoC5/SPIM.c **** ********************************************************************************
 644:Generated_Source\PSoC5/SPIM.c **** *
 645:Generated_Source\PSoC5/SPIM.c **** * Summary:
 646:Generated_Source\PSoC5/SPIM.c **** *  Returns the number of bytes/words of data currently held in the RX buffer.
 647:Generated_Source\PSoC5/SPIM.c **** *  If RX Software Buffer not used then function return 0 if FIFO empty or 1 if
 648:Generated_Source\PSoC5/SPIM.c **** *  FIFO not empty. In another case function return size of RX Software Buffer.
 649:Generated_Source\PSoC5/SPIM.c **** *
 650:Generated_Source\PSoC5/SPIM.c **** * Parameters:
 651:Generated_Source\PSoC5/SPIM.c **** *  None.
 652:Generated_Source\PSoC5/SPIM.c **** *
 653:Generated_Source\PSoC5/SPIM.c **** * Return:
 654:Generated_Source\PSoC5/SPIM.c **** *  Integer count of the number of bytes/words in the RX buffer.
 655:Generated_Source\PSoC5/SPIM.c **** *
 656:Generated_Source\PSoC5/SPIM.c **** * Global variables:
 657:Generated_Source\PSoC5/SPIM.c **** *  SPIM_rxBufferWrite - used for the account of the bytes which
 658:Generated_Source\PSoC5/SPIM.c **** *  have been written down in the RX software buffer.
 659:Generated_Source\PSoC5/SPIM.c **** *  SPIM_rxBufferRead - used for the account of the bytes which
 660:Generated_Source\PSoC5/SPIM.c **** *  have been read from the RX software buffer.
 661:Generated_Source\PSoC5/SPIM.c **** *
 662:Generated_Source\PSoC5/SPIM.c **** * Side Effects:
ARM GAS  C:\Users\KJA\AppData\Local\Temp\cc3P3ZRh.s 			page 24


 663:Generated_Source\PSoC5/SPIM.c **** *  Clear status register of the component.
 664:Generated_Source\PSoC5/SPIM.c **** *
 665:Generated_Source\PSoC5/SPIM.c **** *******************************************************************************/
 666:Generated_Source\PSoC5/SPIM.c **** uint8 SPIM_GetRxBufferSize(void) 
 667:Generated_Source\PSoC5/SPIM.c **** {
 650              		.loc 1 667 0
 651              		.cfi_startproc
 652              		@ args = 0, pretend = 0, frame = 8
 653              		@ frame_needed = 1, uses_anonymous_args = 0
 654              		@ link register save eliminated.
 655 0000 80B4     		push	{r7}
 656              		.cfi_def_cfa_offset 4
 657              		.cfi_offset 7, -4
 658 0002 83B0     		sub	sp, sp, #12
 659              		.cfi_def_cfa_offset 16
 660 0004 00AF     		add	r7, sp, #0
 661              		.cfi_def_cfa_register 7
 668:Generated_Source\PSoC5/SPIM.c ****     uint8 size;
 669:Generated_Source\PSoC5/SPIM.c **** 
 670:Generated_Source\PSoC5/SPIM.c ****     #if(SPIM_RX_SOFTWARE_BUF_ENABLED)
 671:Generated_Source\PSoC5/SPIM.c **** 
 672:Generated_Source\PSoC5/SPIM.c ****         /* Disable RX interrupt to protect global veriables */
 673:Generated_Source\PSoC5/SPIM.c ****         SPIM_DisableRxInt();
 674:Generated_Source\PSoC5/SPIM.c **** 
 675:Generated_Source\PSoC5/SPIM.c ****         if(SPIM_rxBufferRead == SPIM_rxBufferWrite)
 676:Generated_Source\PSoC5/SPIM.c ****         {
 677:Generated_Source\PSoC5/SPIM.c ****             size = 0u;
 678:Generated_Source\PSoC5/SPIM.c ****         }
 679:Generated_Source\PSoC5/SPIM.c ****         else if(SPIM_rxBufferRead < SPIM_rxBufferWrite)
 680:Generated_Source\PSoC5/SPIM.c ****         {
 681:Generated_Source\PSoC5/SPIM.c ****             size = (SPIM_rxBufferWrite - SPIM_rxBufferRead);
 682:Generated_Source\PSoC5/SPIM.c ****         }
 683:Generated_Source\PSoC5/SPIM.c ****         else
 684:Generated_Source\PSoC5/SPIM.c ****         {
 685:Generated_Source\PSoC5/SPIM.c ****             size = (SPIM_RX_BUFFER_SIZE - SPIM_rxBufferRead) + SPIM_rxBufferWrite;
 686:Generated_Source\PSoC5/SPIM.c ****         }
 687:Generated_Source\PSoC5/SPIM.c **** 
 688:Generated_Source\PSoC5/SPIM.c ****         SPIM_EnableRxInt();
 689:Generated_Source\PSoC5/SPIM.c **** 
 690:Generated_Source\PSoC5/SPIM.c ****     #else
 691:Generated_Source\PSoC5/SPIM.c **** 
 692:Generated_Source\PSoC5/SPIM.c ****         /* We can only know if there is data in the RX FIFO */
 693:Generated_Source\PSoC5/SPIM.c ****         size = (0u != (SPIM_RX_STATUS_REG & SPIM_STS_RX_FIFO_NOT_EMPTY)) ? 1u : 0u;
 662              		.loc 1 693 0
 663 0006 094B     		ldr	r3, .L44
 664 0008 1B78     		ldrb	r3, [r3]
 665 000a DBB2     		uxtb	r3, r3
 666 000c 03F02003 		and	r3, r3, #32
 667 0010 002B     		cmp	r3, #0
 668 0012 01D0     		beq	.L41
 669              		.loc 1 693 0 is_stmt 0 discriminator 1
 670 0014 0123     		movs	r3, #1
 671 0016 00E0     		b	.L42
 672              	.L41:
 673              		.loc 1 693 0 discriminator 2
 674 0018 0023     		movs	r3, #0
 675              	.L42:
ARM GAS  C:\Users\KJA\AppData\Local\Temp\cc3P3ZRh.s 			page 25


 676              		.loc 1 693 0 discriminator 4
 677 001a FB71     		strb	r3, [r7, #7]
 694:Generated_Source\PSoC5/SPIM.c **** 
 695:Generated_Source\PSoC5/SPIM.c ****     #endif /* (SPIM_TX_SOFTWARE_BUF_ENABLED) */
 696:Generated_Source\PSoC5/SPIM.c **** 
 697:Generated_Source\PSoC5/SPIM.c ****     return(size);
 678              		.loc 1 697 0 is_stmt 1 discriminator 4
 679 001c FB79     		ldrb	r3, [r7, #7]	@ zero_extendqisi2
 698:Generated_Source\PSoC5/SPIM.c **** }
 680              		.loc 1 698 0 discriminator 4
 681 001e 1846     		mov	r0, r3
 682 0020 0C37     		adds	r7, r7, #12
 683              		.cfi_def_cfa_offset 4
 684 0022 BD46     		mov	sp, r7
 685              		.cfi_def_cfa_register 13
 686              		@ sp needed
 687 0024 5DF8047B 		ldr	r7, [sp], #4
 688              		.cfi_restore 7
 689              		.cfi_def_cfa_offset 0
 690 0028 7047     		bx	lr
 691              	.L45:
 692 002a 00BF     		.align	2
 693              	.L44:
 694 002c 6B650040 		.word	1073767787
 695              		.cfi_endproc
 696              	.LFE14:
 697              		.size	SPIM_GetRxBufferSize, .-SPIM_GetRxBufferSize
 698              		.section	.text.SPIM_GetTxBufferSize,"ax",%progbits
 699              		.align	2
 700              		.global	SPIM_GetTxBufferSize
 701              		.thumb
 702              		.thumb_func
 703              		.type	SPIM_GetTxBufferSize, %function
 704              	SPIM_GetTxBufferSize:
 705              	.LFB15:
 699:Generated_Source\PSoC5/SPIM.c **** 
 700:Generated_Source\PSoC5/SPIM.c **** 
 701:Generated_Source\PSoC5/SPIM.c **** /*******************************************************************************
 702:Generated_Source\PSoC5/SPIM.c **** * Function Name: SPIM_GetTxBufferSize
 703:Generated_Source\PSoC5/SPIM.c **** ********************************************************************************
 704:Generated_Source\PSoC5/SPIM.c **** *
 705:Generated_Source\PSoC5/SPIM.c **** * Summary:
 706:Generated_Source\PSoC5/SPIM.c **** *  Returns the number of bytes/words of data currently held in the TX buffer.
 707:Generated_Source\PSoC5/SPIM.c **** *  If TX Software Buffer not used then function return 0 - if FIFO empty, 1 - if
 708:Generated_Source\PSoC5/SPIM.c **** *  FIFO not full, 4 - if FIFO full. In another case function return size of TX
 709:Generated_Source\PSoC5/SPIM.c **** *  Software Buffer.
 710:Generated_Source\PSoC5/SPIM.c **** *
 711:Generated_Source\PSoC5/SPIM.c **** * Parameters:
 712:Generated_Source\PSoC5/SPIM.c **** *  None.
 713:Generated_Source\PSoC5/SPIM.c **** *
 714:Generated_Source\PSoC5/SPIM.c **** * Return:
 715:Generated_Source\PSoC5/SPIM.c **** *  Integer count of the number of bytes/words in the TX buffer.
 716:Generated_Source\PSoC5/SPIM.c **** *
 717:Generated_Source\PSoC5/SPIM.c **** * Global variables:
 718:Generated_Source\PSoC5/SPIM.c **** *  SPIM_txBufferWrite - used for the account of the bytes which
 719:Generated_Source\PSoC5/SPIM.c **** *  have been written down in the TX software buffer.
 720:Generated_Source\PSoC5/SPIM.c **** *  SPIM_txBufferRead - used for the account of the bytes which
ARM GAS  C:\Users\KJA\AppData\Local\Temp\cc3P3ZRh.s 			page 26


 721:Generated_Source\PSoC5/SPIM.c **** *  have been read from the TX software buffer.
 722:Generated_Source\PSoC5/SPIM.c **** *
 723:Generated_Source\PSoC5/SPIM.c **** * Side Effects:
 724:Generated_Source\PSoC5/SPIM.c **** *  Clear status register of the component.
 725:Generated_Source\PSoC5/SPIM.c **** *
 726:Generated_Source\PSoC5/SPIM.c **** *******************************************************************************/
 727:Generated_Source\PSoC5/SPIM.c **** uint8  SPIM_GetTxBufferSize(void) 
 728:Generated_Source\PSoC5/SPIM.c **** {
 706              		.loc 1 728 0
 707              		.cfi_startproc
 708              		@ args = 0, pretend = 0, frame = 8
 709              		@ frame_needed = 1, uses_anonymous_args = 0
 710              		@ link register save eliminated.
 711 0000 80B4     		push	{r7}
 712              		.cfi_def_cfa_offset 4
 713              		.cfi_offset 7, -4
 714 0002 83B0     		sub	sp, sp, #12
 715              		.cfi_def_cfa_offset 16
 716 0004 00AF     		add	r7, sp, #0
 717              		.cfi_def_cfa_register 7
 729:Generated_Source\PSoC5/SPIM.c ****     uint8 size;
 730:Generated_Source\PSoC5/SPIM.c **** 
 731:Generated_Source\PSoC5/SPIM.c ****     #if(SPIM_TX_SOFTWARE_BUF_ENABLED)
 732:Generated_Source\PSoC5/SPIM.c ****         /* Disable TX interrupt to protect global veriables */
 733:Generated_Source\PSoC5/SPIM.c ****         SPIM_DisableTxInt();
 734:Generated_Source\PSoC5/SPIM.c **** 
 735:Generated_Source\PSoC5/SPIM.c ****         if(SPIM_txBufferRead == SPIM_txBufferWrite)
 736:Generated_Source\PSoC5/SPIM.c ****         {
 737:Generated_Source\PSoC5/SPIM.c ****             size = 0u;
 738:Generated_Source\PSoC5/SPIM.c ****         }
 739:Generated_Source\PSoC5/SPIM.c ****         else if(SPIM_txBufferRead < SPIM_txBufferWrite)
 740:Generated_Source\PSoC5/SPIM.c ****         {
 741:Generated_Source\PSoC5/SPIM.c ****             size = (SPIM_txBufferWrite - SPIM_txBufferRead);
 742:Generated_Source\PSoC5/SPIM.c ****         }
 743:Generated_Source\PSoC5/SPIM.c ****         else
 744:Generated_Source\PSoC5/SPIM.c ****         {
 745:Generated_Source\PSoC5/SPIM.c ****             size = (SPIM_TX_BUFFER_SIZE - SPIM_txBufferRead) + SPIM_txBufferWrite;
 746:Generated_Source\PSoC5/SPIM.c ****         }
 747:Generated_Source\PSoC5/SPIM.c **** 
 748:Generated_Source\PSoC5/SPIM.c ****         SPIM_EnableTxInt();
 749:Generated_Source\PSoC5/SPIM.c **** 
 750:Generated_Source\PSoC5/SPIM.c ****     #else
 751:Generated_Source\PSoC5/SPIM.c **** 
 752:Generated_Source\PSoC5/SPIM.c ****         size = SPIM_TX_STATUS_REG;
 718              		.loc 1 752 0
 719 0006 0E4B     		ldr	r3, .L51
 720 0008 1B78     		ldrb	r3, [r3]
 721 000a FB71     		strb	r3, [r7, #7]
 753:Generated_Source\PSoC5/SPIM.c **** 
 754:Generated_Source\PSoC5/SPIM.c ****         if(0u != (size & SPIM_STS_TX_FIFO_EMPTY))
 722              		.loc 1 754 0
 723 000c FB79     		ldrb	r3, [r7, #7]	@ zero_extendqisi2
 724 000e 03F00203 		and	r3, r3, #2
 725 0012 002B     		cmp	r3, #0
 726 0014 02D0     		beq	.L47
 755:Generated_Source\PSoC5/SPIM.c ****         {
 756:Generated_Source\PSoC5/SPIM.c ****             size = 0u;
ARM GAS  C:\Users\KJA\AppData\Local\Temp\cc3P3ZRh.s 			page 27


 727              		.loc 1 756 0
 728 0016 0023     		movs	r3, #0
 729 0018 FB71     		strb	r3, [r7, #7]
 730 001a 09E0     		b	.L48
 731              	.L47:
 757:Generated_Source\PSoC5/SPIM.c ****         }
 758:Generated_Source\PSoC5/SPIM.c ****         else if(0u != (size & SPIM_STS_TX_FIFO_NOT_FULL))
 732              		.loc 1 758 0
 733 001c FB79     		ldrb	r3, [r7, #7]	@ zero_extendqisi2
 734 001e 03F00403 		and	r3, r3, #4
 735 0022 002B     		cmp	r3, #0
 736 0024 02D0     		beq	.L49
 759:Generated_Source\PSoC5/SPIM.c ****         {
 760:Generated_Source\PSoC5/SPIM.c ****             size = 1u;
 737              		.loc 1 760 0
 738 0026 0123     		movs	r3, #1
 739 0028 FB71     		strb	r3, [r7, #7]
 740 002a 01E0     		b	.L48
 741              	.L49:
 761:Generated_Source\PSoC5/SPIM.c ****         }
 762:Generated_Source\PSoC5/SPIM.c ****         else
 763:Generated_Source\PSoC5/SPIM.c ****         {
 764:Generated_Source\PSoC5/SPIM.c ****             size = SPIM_FIFO_SIZE;
 742              		.loc 1 764 0
 743 002c 0423     		movs	r3, #4
 744 002e FB71     		strb	r3, [r7, #7]
 745              	.L48:
 765:Generated_Source\PSoC5/SPIM.c ****         }
 766:Generated_Source\PSoC5/SPIM.c **** 
 767:Generated_Source\PSoC5/SPIM.c ****     #endif /* (SPIM_TX_SOFTWARE_BUF_ENABLED) */
 768:Generated_Source\PSoC5/SPIM.c **** 
 769:Generated_Source\PSoC5/SPIM.c ****     return(size);
 746              		.loc 1 769 0
 747 0030 FB79     		ldrb	r3, [r7, #7]	@ zero_extendqisi2
 770:Generated_Source\PSoC5/SPIM.c **** }
 748              		.loc 1 770 0
 749 0032 1846     		mov	r0, r3
 750 0034 0C37     		adds	r7, r7, #12
 751              		.cfi_def_cfa_offset 4
 752 0036 BD46     		mov	sp, r7
 753              		.cfi_def_cfa_register 13
 754              		@ sp needed
 755 0038 5DF8047B 		ldr	r7, [sp], #4
 756              		.cfi_restore 7
 757              		.cfi_def_cfa_offset 0
 758 003c 7047     		bx	lr
 759              	.L52:
 760 003e 00BF     		.align	2
 761              	.L51:
 762 0040 68640040 		.word	1073767528
 763              		.cfi_endproc
 764              	.LFE15:
 765              		.size	SPIM_GetTxBufferSize, .-SPIM_GetTxBufferSize
 766              		.section	.text.SPIM_ClearRxBuffer,"ax",%progbits
 767              		.align	2
 768              		.global	SPIM_ClearRxBuffer
 769              		.thumb
ARM GAS  C:\Users\KJA\AppData\Local\Temp\cc3P3ZRh.s 			page 28


 770              		.thumb_func
 771              		.type	SPIM_ClearRxBuffer, %function
 772              	SPIM_ClearRxBuffer:
 773              	.LFB16:
 771:Generated_Source\PSoC5/SPIM.c **** 
 772:Generated_Source\PSoC5/SPIM.c **** 
 773:Generated_Source\PSoC5/SPIM.c **** /*******************************************************************************
 774:Generated_Source\PSoC5/SPIM.c **** * Function Name: SPIM_ClearRxBuffer
 775:Generated_Source\PSoC5/SPIM.c **** ********************************************************************************
 776:Generated_Source\PSoC5/SPIM.c **** *
 777:Generated_Source\PSoC5/SPIM.c **** * Summary:
 778:Generated_Source\PSoC5/SPIM.c **** *  Clear the RX RAM buffer by setting the read and write pointers both to zero.
 779:Generated_Source\PSoC5/SPIM.c **** *
 780:Generated_Source\PSoC5/SPIM.c **** * Parameters:
 781:Generated_Source\PSoC5/SPIM.c **** *  None.
 782:Generated_Source\PSoC5/SPIM.c **** *
 783:Generated_Source\PSoC5/SPIM.c **** * Return:
 784:Generated_Source\PSoC5/SPIM.c **** *  None.
 785:Generated_Source\PSoC5/SPIM.c **** *
 786:Generated_Source\PSoC5/SPIM.c **** * Global variables:
 787:Generated_Source\PSoC5/SPIM.c **** *  SPIM_rxBufferWrite - used for the account of the bytes which
 788:Generated_Source\PSoC5/SPIM.c **** *  have been written down in the RX software buffer, modified every function
 789:Generated_Source\PSoC5/SPIM.c **** *  call - resets to zero.
 790:Generated_Source\PSoC5/SPIM.c **** *  SPIM_rxBufferRead - used for the account of the bytes which
 791:Generated_Source\PSoC5/SPIM.c **** *  have been read from the RX software buffer, modified every function call -
 792:Generated_Source\PSoC5/SPIM.c **** *  resets to zero.
 793:Generated_Source\PSoC5/SPIM.c **** *
 794:Generated_Source\PSoC5/SPIM.c **** * Theory:
 795:Generated_Source\PSoC5/SPIM.c **** *  Setting the pointers to zero makes the system believe there is no data to
 796:Generated_Source\PSoC5/SPIM.c **** *  read and writing will resume at address 0 overwriting any data that may have
 797:Generated_Source\PSoC5/SPIM.c **** *  remained in the RAM.
 798:Generated_Source\PSoC5/SPIM.c **** *
 799:Generated_Source\PSoC5/SPIM.c **** * Side Effects:
 800:Generated_Source\PSoC5/SPIM.c **** *  Any received data not read from the RAM buffer will be lost when overwritten.
 801:Generated_Source\PSoC5/SPIM.c **** *
 802:Generated_Source\PSoC5/SPIM.c **** * Reentrant:
 803:Generated_Source\PSoC5/SPIM.c **** *  No.
 804:Generated_Source\PSoC5/SPIM.c **** *
 805:Generated_Source\PSoC5/SPIM.c **** *******************************************************************************/
 806:Generated_Source\PSoC5/SPIM.c **** void SPIM_ClearRxBuffer(void) 
 807:Generated_Source\PSoC5/SPIM.c **** {
 774              		.loc 1 807 0
 775              		.cfi_startproc
 776              		@ args = 0, pretend = 0, frame = 0
 777              		@ frame_needed = 1, uses_anonymous_args = 0
 778              		@ link register save eliminated.
 779 0000 80B4     		push	{r7}
 780              		.cfi_def_cfa_offset 4
 781              		.cfi_offset 7, -4
 782 0002 00AF     		add	r7, sp, #0
 783              		.cfi_def_cfa_register 7
 808:Generated_Source\PSoC5/SPIM.c ****     /* Clear Hardware RX FIFO */
 809:Generated_Source\PSoC5/SPIM.c ****     while(0u !=(SPIM_RX_STATUS_REG & SPIM_STS_RX_FIFO_NOT_EMPTY))
 784              		.loc 1 809 0
 785 0004 01E0     		b	.L54
 786              	.L55:
 810:Generated_Source\PSoC5/SPIM.c ****     {
ARM GAS  C:\Users\KJA\AppData\Local\Temp\cc3P3ZRh.s 			page 29


 811:Generated_Source\PSoC5/SPIM.c ****         (void) CY_GET_REG8(SPIM_RXDATA_PTR);
 787              		.loc 1 811 0
 788 0006 064B     		ldr	r3, .L56
 789 0008 1B78     		ldrb	r3, [r3]
 790              	.L54:
 809:Generated_Source\PSoC5/SPIM.c ****     {
 791              		.loc 1 809 0
 792 000a 064B     		ldr	r3, .L56+4
 793 000c 1B78     		ldrb	r3, [r3]
 794 000e DBB2     		uxtb	r3, r3
 795 0010 03F02003 		and	r3, r3, #32
 796 0014 002B     		cmp	r3, #0
 797 0016 F6D1     		bne	.L55
 812:Generated_Source\PSoC5/SPIM.c ****     }
 813:Generated_Source\PSoC5/SPIM.c **** 
 814:Generated_Source\PSoC5/SPIM.c ****     #if(SPIM_RX_SOFTWARE_BUF_ENABLED)
 815:Generated_Source\PSoC5/SPIM.c ****         /* Disable RX interrupt to protect global veriables */
 816:Generated_Source\PSoC5/SPIM.c ****         SPIM_DisableRxInt();
 817:Generated_Source\PSoC5/SPIM.c **** 
 818:Generated_Source\PSoC5/SPIM.c ****         SPIM_rxBufferFull  = 0u;
 819:Generated_Source\PSoC5/SPIM.c ****         SPIM_rxBufferRead  = 0u;
 820:Generated_Source\PSoC5/SPIM.c ****         SPIM_rxBufferWrite = 0u;
 821:Generated_Source\PSoC5/SPIM.c **** 
 822:Generated_Source\PSoC5/SPIM.c ****         SPIM_EnableRxInt();
 823:Generated_Source\PSoC5/SPIM.c ****     #endif /* (SPIM_RX_SOFTWARE_BUF_ENABLED) */
 824:Generated_Source\PSoC5/SPIM.c **** }
 798              		.loc 1 824 0
 799 0018 BD46     		mov	sp, r7
 800              		.cfi_def_cfa_register 13
 801              		@ sp needed
 802 001a 5DF8047B 		ldr	r7, [sp], #4
 803              		.cfi_restore 7
 804              		.cfi_def_cfa_offset 0
 805 001e 7047     		bx	lr
 806              	.L57:
 807              		.align	2
 808              	.L56:
 809 0020 58650040 		.word	1073767768
 810 0024 6B650040 		.word	1073767787
 811              		.cfi_endproc
 812              	.LFE16:
 813              		.size	SPIM_ClearRxBuffer, .-SPIM_ClearRxBuffer
 814              		.section	.text.SPIM_ClearTxBuffer,"ax",%progbits
 815              		.align	2
 816              		.global	SPIM_ClearTxBuffer
 817              		.thumb
 818              		.thumb_func
 819              		.type	SPIM_ClearTxBuffer, %function
 820              	SPIM_ClearTxBuffer:
 821              	.LFB17:
 825:Generated_Source\PSoC5/SPIM.c **** 
 826:Generated_Source\PSoC5/SPIM.c **** 
 827:Generated_Source\PSoC5/SPIM.c **** /*******************************************************************************
 828:Generated_Source\PSoC5/SPIM.c **** * Function Name: SPIM_ClearTxBuffer
 829:Generated_Source\PSoC5/SPIM.c **** ********************************************************************************
 830:Generated_Source\PSoC5/SPIM.c **** *
 831:Generated_Source\PSoC5/SPIM.c **** * Summary:
ARM GAS  C:\Users\KJA\AppData\Local\Temp\cc3P3ZRh.s 			page 30


 832:Generated_Source\PSoC5/SPIM.c **** *  Clear the TX RAM buffer by setting the read and write pointers both to zero.
 833:Generated_Source\PSoC5/SPIM.c **** *
 834:Generated_Source\PSoC5/SPIM.c **** * Parameters:
 835:Generated_Source\PSoC5/SPIM.c **** *  None.
 836:Generated_Source\PSoC5/SPIM.c **** *
 837:Generated_Source\PSoC5/SPIM.c **** * Return:
 838:Generated_Source\PSoC5/SPIM.c **** *  None.
 839:Generated_Source\PSoC5/SPIM.c **** *
 840:Generated_Source\PSoC5/SPIM.c **** * Global variables:
 841:Generated_Source\PSoC5/SPIM.c **** *  SPIM_txBufferWrite - used for the account of the bytes which
 842:Generated_Source\PSoC5/SPIM.c **** *  have been written down in the TX software buffer, modified every function
 843:Generated_Source\PSoC5/SPIM.c **** *  call - resets to zero.
 844:Generated_Source\PSoC5/SPIM.c **** *  SPIM_txBufferRead - used for the account of the bytes which
 845:Generated_Source\PSoC5/SPIM.c **** *  have been read from the TX software buffer, modified every function call -
 846:Generated_Source\PSoC5/SPIM.c **** *  resets to zero.
 847:Generated_Source\PSoC5/SPIM.c **** *
 848:Generated_Source\PSoC5/SPIM.c **** * Theory:
 849:Generated_Source\PSoC5/SPIM.c **** *  Setting the pointers to zero makes the system believe there is no data to
 850:Generated_Source\PSoC5/SPIM.c **** *  read and writing will resume at address 0 overwriting any data that may have
 851:Generated_Source\PSoC5/SPIM.c **** *  remained in the RAM.
 852:Generated_Source\PSoC5/SPIM.c **** *
 853:Generated_Source\PSoC5/SPIM.c **** * Side Effects:
 854:Generated_Source\PSoC5/SPIM.c **** *  Any data not yet transmitted from the RAM buffer will be lost when
 855:Generated_Source\PSoC5/SPIM.c **** *  overwritten.
 856:Generated_Source\PSoC5/SPIM.c **** *
 857:Generated_Source\PSoC5/SPIM.c **** * Reentrant:
 858:Generated_Source\PSoC5/SPIM.c **** *  No.
 859:Generated_Source\PSoC5/SPIM.c **** *
 860:Generated_Source\PSoC5/SPIM.c **** *******************************************************************************/
 861:Generated_Source\PSoC5/SPIM.c **** void SPIM_ClearTxBuffer(void) 
 862:Generated_Source\PSoC5/SPIM.c **** {
 822              		.loc 1 862 0
 823              		.cfi_startproc
 824              		@ args = 0, pretend = 0, frame = 8
 825              		@ frame_needed = 1, uses_anonymous_args = 0
 826 0000 80B5     		push	{r7, lr}
 827              		.cfi_def_cfa_offset 8
 828              		.cfi_offset 7, -8
 829              		.cfi_offset 14, -4
 830 0002 82B0     		sub	sp, sp, #8
 831              		.cfi_def_cfa_offset 16
 832 0004 00AF     		add	r7, sp, #0
 833              		.cfi_def_cfa_register 7
 863:Generated_Source\PSoC5/SPIM.c ****     uint8 enableInterrupts;
 864:Generated_Source\PSoC5/SPIM.c **** 
 865:Generated_Source\PSoC5/SPIM.c ****     enableInterrupts = CyEnterCriticalSection();
 834              		.loc 1 865 0
 835 0006 FFF7FEFF 		bl	CyEnterCriticalSection
 836 000a 0346     		mov	r3, r0
 837 000c FB71     		strb	r3, [r7, #7]
 866:Generated_Source\PSoC5/SPIM.c ****     /* Clear TX FIFO */
 867:Generated_Source\PSoC5/SPIM.c ****     SPIM_AUX_CONTROL_DP0_REG |= ((uint8)  SPIM_TX_FIFO_CLR);
 838              		.loc 1 867 0
 839 000e 0B4A     		ldr	r2, .L59
 840 0010 0A4B     		ldr	r3, .L59
 841 0012 1B78     		ldrb	r3, [r3]
 842 0014 DBB2     		uxtb	r3, r3
ARM GAS  C:\Users\KJA\AppData\Local\Temp\cc3P3ZRh.s 			page 31


 843 0016 43F00103 		orr	r3, r3, #1
 844 001a DBB2     		uxtb	r3, r3
 845 001c 1370     		strb	r3, [r2]
 868:Generated_Source\PSoC5/SPIM.c ****     SPIM_AUX_CONTROL_DP0_REG &= ((uint8) ~SPIM_TX_FIFO_CLR);
 846              		.loc 1 868 0
 847 001e 074A     		ldr	r2, .L59
 848 0020 064B     		ldr	r3, .L59
 849 0022 1B78     		ldrb	r3, [r3]
 850 0024 DBB2     		uxtb	r3, r3
 851 0026 23F00103 		bic	r3, r3, #1
 852 002a DBB2     		uxtb	r3, r3
 853 002c 1370     		strb	r3, [r2]
 869:Generated_Source\PSoC5/SPIM.c **** 
 870:Generated_Source\PSoC5/SPIM.c ****     #if(SPIM_USE_SECOND_DATAPATH)
 871:Generated_Source\PSoC5/SPIM.c ****         /* Clear TX FIFO for 2nd Datapath */
 872:Generated_Source\PSoC5/SPIM.c ****         SPIM_AUX_CONTROL_DP1_REG |= ((uint8)  SPIM_TX_FIFO_CLR);
 873:Generated_Source\PSoC5/SPIM.c ****         SPIM_AUX_CONTROL_DP1_REG &= ((uint8) ~SPIM_TX_FIFO_CLR);
 874:Generated_Source\PSoC5/SPIM.c ****     #endif /* (SPIM_USE_SECOND_DATAPATH) */
 875:Generated_Source\PSoC5/SPIM.c ****     CyExitCriticalSection(enableInterrupts);
 854              		.loc 1 875 0
 855 002e FB79     		ldrb	r3, [r7, #7]	@ zero_extendqisi2
 856 0030 1846     		mov	r0, r3
 857 0032 FFF7FEFF 		bl	CyExitCriticalSection
 876:Generated_Source\PSoC5/SPIM.c **** 
 877:Generated_Source\PSoC5/SPIM.c ****     #if(SPIM_TX_SOFTWARE_BUF_ENABLED)
 878:Generated_Source\PSoC5/SPIM.c ****         /* Disable TX interrupt to protect global veriables */
 879:Generated_Source\PSoC5/SPIM.c ****         SPIM_DisableTxInt();
 880:Generated_Source\PSoC5/SPIM.c **** 
 881:Generated_Source\PSoC5/SPIM.c ****         SPIM_txBufferFull  = 0u;
 882:Generated_Source\PSoC5/SPIM.c ****         SPIM_txBufferRead  = 0u;
 883:Generated_Source\PSoC5/SPIM.c ****         SPIM_txBufferWrite = 0u;
 884:Generated_Source\PSoC5/SPIM.c **** 
 885:Generated_Source\PSoC5/SPIM.c ****         /* Buffer is EMPTY: disable TX FIFO NOT FULL interrupt */
 886:Generated_Source\PSoC5/SPIM.c ****         SPIM_TX_STATUS_MASK_REG &= ((uint8) ~SPIM_STS_TX_FIFO_NOT_FULL);
 887:Generated_Source\PSoC5/SPIM.c **** 
 888:Generated_Source\PSoC5/SPIM.c ****         SPIM_EnableTxInt();
 889:Generated_Source\PSoC5/SPIM.c ****     #endif /* (SPIM_TX_SOFTWARE_BUF_ENABLED) */
 890:Generated_Source\PSoC5/SPIM.c **** }
 858              		.loc 1 890 0
 859 0036 0837     		adds	r7, r7, #8
 860              		.cfi_def_cfa_offset 8
 861 0038 BD46     		mov	sp, r7
 862              		.cfi_def_cfa_register 13
 863              		@ sp needed
 864 003a 80BD     		pop	{r7, pc}
 865              	.L60:
 866              		.align	2
 867              	.L59:
 868 003c 98650040 		.word	1073767832
 869              		.cfi_endproc
 870              	.LFE17:
 871              		.size	SPIM_ClearTxBuffer, .-SPIM_ClearTxBuffer
 872              		.section	.text.SPIM_PutArray,"ax",%progbits
 873              		.align	2
 874              		.global	SPIM_PutArray
 875              		.thumb
 876              		.thumb_func
ARM GAS  C:\Users\KJA\AppData\Local\Temp\cc3P3ZRh.s 			page 32


 877              		.type	SPIM_PutArray, %function
 878              	SPIM_PutArray:
 879              	.LFB18:
 891:Generated_Source\PSoC5/SPIM.c **** 
 892:Generated_Source\PSoC5/SPIM.c **** 
 893:Generated_Source\PSoC5/SPIM.c **** #if(0u != SPIM_BIDIRECTIONAL_MODE)
 894:Generated_Source\PSoC5/SPIM.c ****     /*******************************************************************************
 895:Generated_Source\PSoC5/SPIM.c ****     * Function Name: SPIM_TxEnable
 896:Generated_Source\PSoC5/SPIM.c ****     ********************************************************************************
 897:Generated_Source\PSoC5/SPIM.c ****     *
 898:Generated_Source\PSoC5/SPIM.c ****     * Summary:
 899:Generated_Source\PSoC5/SPIM.c ****     *  If the SPI master is configured to use a single bi-directional pin then this
 900:Generated_Source\PSoC5/SPIM.c ****     *  will set the bi-directional pin to transmit.
 901:Generated_Source\PSoC5/SPIM.c ****     *
 902:Generated_Source\PSoC5/SPIM.c ****     * Parameters:
 903:Generated_Source\PSoC5/SPIM.c ****     *  None.
 904:Generated_Source\PSoC5/SPIM.c ****     *
 905:Generated_Source\PSoC5/SPIM.c ****     * Return:
 906:Generated_Source\PSoC5/SPIM.c ****     *  None.
 907:Generated_Source\PSoC5/SPIM.c ****     *
 908:Generated_Source\PSoC5/SPIM.c ****     *******************************************************************************/
 909:Generated_Source\PSoC5/SPIM.c ****     void SPIM_TxEnable(void) 
 910:Generated_Source\PSoC5/SPIM.c ****     {
 911:Generated_Source\PSoC5/SPIM.c ****         SPIM_CONTROL_REG |= SPIM_CTRL_TX_SIGNAL_EN;
 912:Generated_Source\PSoC5/SPIM.c ****     }
 913:Generated_Source\PSoC5/SPIM.c **** 
 914:Generated_Source\PSoC5/SPIM.c **** 
 915:Generated_Source\PSoC5/SPIM.c ****     /*******************************************************************************
 916:Generated_Source\PSoC5/SPIM.c ****     * Function Name: SPIM_TxDisable
 917:Generated_Source\PSoC5/SPIM.c ****     ********************************************************************************
 918:Generated_Source\PSoC5/SPIM.c ****     *
 919:Generated_Source\PSoC5/SPIM.c ****     * Summary:
 920:Generated_Source\PSoC5/SPIM.c ****     *  If the SPI master is configured to use a single bi-directional pin then this
 921:Generated_Source\PSoC5/SPIM.c ****     *  will set the bi-directional pin to receive.
 922:Generated_Source\PSoC5/SPIM.c ****     *
 923:Generated_Source\PSoC5/SPIM.c ****     * Parameters:
 924:Generated_Source\PSoC5/SPIM.c ****     *  None.
 925:Generated_Source\PSoC5/SPIM.c ****     *
 926:Generated_Source\PSoC5/SPIM.c ****     * Return:
 927:Generated_Source\PSoC5/SPIM.c ****     *  None.
 928:Generated_Source\PSoC5/SPIM.c ****     *
 929:Generated_Source\PSoC5/SPIM.c ****     *******************************************************************************/
 930:Generated_Source\PSoC5/SPIM.c ****     void SPIM_TxDisable(void) 
 931:Generated_Source\PSoC5/SPIM.c ****     {
 932:Generated_Source\PSoC5/SPIM.c ****         SPIM_CONTROL_REG &= ((uint8) ~SPIM_CTRL_TX_SIGNAL_EN);
 933:Generated_Source\PSoC5/SPIM.c ****     }
 934:Generated_Source\PSoC5/SPIM.c **** 
 935:Generated_Source\PSoC5/SPIM.c **** #endif /* (0u != SPIM_BIDIRECTIONAL_MODE) */
 936:Generated_Source\PSoC5/SPIM.c **** 
 937:Generated_Source\PSoC5/SPIM.c **** 
 938:Generated_Source\PSoC5/SPIM.c **** /*******************************************************************************
 939:Generated_Source\PSoC5/SPIM.c **** * Function Name: SPIM_PutArray
 940:Generated_Source\PSoC5/SPIM.c **** ********************************************************************************
 941:Generated_Source\PSoC5/SPIM.c **** *
 942:Generated_Source\PSoC5/SPIM.c **** * Summary:
 943:Generated_Source\PSoC5/SPIM.c **** *  Write available data from ROM/RAM to the TX buffer while space is available
 944:Generated_Source\PSoC5/SPIM.c **** *  in the TX buffer. Keep trying until all data is passed to the TX buffer.
ARM GAS  C:\Users\KJA\AppData\Local\Temp\cc3P3ZRh.s 			page 33


 945:Generated_Source\PSoC5/SPIM.c **** *
 946:Generated_Source\PSoC5/SPIM.c **** * Parameters:
 947:Generated_Source\PSoC5/SPIM.c **** *  *buffer: Pointer to the location in RAM containing the data to send
 948:Generated_Source\PSoC5/SPIM.c **** *  byteCount: The number of bytes to move to the transmit buffer.
 949:Generated_Source\PSoC5/SPIM.c **** *
 950:Generated_Source\PSoC5/SPIM.c **** * Return:
 951:Generated_Source\PSoC5/SPIM.c **** *  None.
 952:Generated_Source\PSoC5/SPIM.c **** *
 953:Generated_Source\PSoC5/SPIM.c **** * Side Effects:
 954:Generated_Source\PSoC5/SPIM.c **** *  Will stay in this routine until all data has been sent.  May get locked in
 955:Generated_Source\PSoC5/SPIM.c **** *  this loop if data is not being initiated by the master if there is not
 956:Generated_Source\PSoC5/SPIM.c **** *  enough room in the TX FIFO.
 957:Generated_Source\PSoC5/SPIM.c **** *
 958:Generated_Source\PSoC5/SPIM.c **** * Reentrant:
 959:Generated_Source\PSoC5/SPIM.c **** *  No.
 960:Generated_Source\PSoC5/SPIM.c **** *
 961:Generated_Source\PSoC5/SPIM.c **** *******************************************************************************/
 962:Generated_Source\PSoC5/SPIM.c **** void SPIM_PutArray(const uint8 buffer[], uint8 byteCount)
 963:Generated_Source\PSoC5/SPIM.c ****                                                                           
 964:Generated_Source\PSoC5/SPIM.c **** {
 880              		.loc 1 964 0
 881              		.cfi_startproc
 882              		@ args = 0, pretend = 0, frame = 16
 883              		@ frame_needed = 1, uses_anonymous_args = 0
 884 0000 80B5     		push	{r7, lr}
 885              		.cfi_def_cfa_offset 8
 886              		.cfi_offset 7, -8
 887              		.cfi_offset 14, -4
 888 0002 84B0     		sub	sp, sp, #16
 889              		.cfi_def_cfa_offset 24
 890 0004 00AF     		add	r7, sp, #0
 891              		.cfi_def_cfa_register 7
 892 0006 7860     		str	r0, [r7, #4]
 893 0008 0B46     		mov	r3, r1
 894 000a FB70     		strb	r3, [r7, #3]
 965:Generated_Source\PSoC5/SPIM.c ****     uint8 bufIndex;
 966:Generated_Source\PSoC5/SPIM.c **** 
 967:Generated_Source\PSoC5/SPIM.c ****     bufIndex = 0u;
 895              		.loc 1 967 0
 896 000c 0023     		movs	r3, #0
 897 000e FB73     		strb	r3, [r7, #15]
 968:Generated_Source\PSoC5/SPIM.c **** 
 969:Generated_Source\PSoC5/SPIM.c ****     while(byteCount > 0u)
 898              		.loc 1 969 0
 899 0010 0CE0     		b	.L62
 900              	.L63:
 970:Generated_Source\PSoC5/SPIM.c ****     {
 971:Generated_Source\PSoC5/SPIM.c ****         SPIM_WriteTxData(buffer[bufIndex]);
 901              		.loc 1 971 0
 902 0012 FB7B     		ldrb	r3, [r7, #15]	@ zero_extendqisi2
 903 0014 7A68     		ldr	r2, [r7, #4]
 904 0016 1344     		add	r3, r3, r2
 905 0018 1B78     		ldrb	r3, [r3]	@ zero_extendqisi2
 906 001a 1846     		mov	r0, r3
 907 001c FFF7FEFF 		bl	SPIM_WriteTxData
 972:Generated_Source\PSoC5/SPIM.c ****         bufIndex++;
 908              		.loc 1 972 0
ARM GAS  C:\Users\KJA\AppData\Local\Temp\cc3P3ZRh.s 			page 34


 909 0020 FB7B     		ldrb	r3, [r7, #15]	@ zero_extendqisi2
 910 0022 0133     		adds	r3, r3, #1
 911 0024 FB73     		strb	r3, [r7, #15]
 973:Generated_Source\PSoC5/SPIM.c ****         byteCount--;
 912              		.loc 1 973 0
 913 0026 FB78     		ldrb	r3, [r7, #3]	@ zero_extendqisi2
 914 0028 013B     		subs	r3, r3, #1
 915 002a FB70     		strb	r3, [r7, #3]
 916              	.L62:
 969:Generated_Source\PSoC5/SPIM.c ****     {
 917              		.loc 1 969 0
 918 002c FB78     		ldrb	r3, [r7, #3]	@ zero_extendqisi2
 919 002e 002B     		cmp	r3, #0
 920 0030 EFD1     		bne	.L63
 974:Generated_Source\PSoC5/SPIM.c ****     }
 975:Generated_Source\PSoC5/SPIM.c **** }
 921              		.loc 1 975 0
 922 0032 1037     		adds	r7, r7, #16
 923              		.cfi_def_cfa_offset 8
 924 0034 BD46     		mov	sp, r7
 925              		.cfi_def_cfa_register 13
 926              		@ sp needed
 927 0036 80BD     		pop	{r7, pc}
 928              		.cfi_endproc
 929              	.LFE18:
 930              		.size	SPIM_PutArray, .-SPIM_PutArray
 931              		.section	.text.SPIM_ClearFIFO,"ax",%progbits
 932              		.align	2
 933              		.global	SPIM_ClearFIFO
 934              		.thumb
 935              		.thumb_func
 936              		.type	SPIM_ClearFIFO, %function
 937              	SPIM_ClearFIFO:
 938              	.LFB19:
 976:Generated_Source\PSoC5/SPIM.c **** 
 977:Generated_Source\PSoC5/SPIM.c **** 
 978:Generated_Source\PSoC5/SPIM.c **** /*******************************************************************************
 979:Generated_Source\PSoC5/SPIM.c **** * Function Name: SPIM_ClearFIFO
 980:Generated_Source\PSoC5/SPIM.c **** ********************************************************************************
 981:Generated_Source\PSoC5/SPIM.c **** *
 982:Generated_Source\PSoC5/SPIM.c **** * Summary:
 983:Generated_Source\PSoC5/SPIM.c **** *  Clear the RX and TX FIFO's of all data for a fresh start.
 984:Generated_Source\PSoC5/SPIM.c **** *
 985:Generated_Source\PSoC5/SPIM.c **** * Parameters:
 986:Generated_Source\PSoC5/SPIM.c **** *  None.
 987:Generated_Source\PSoC5/SPIM.c **** *
 988:Generated_Source\PSoC5/SPIM.c **** * Return:
 989:Generated_Source\PSoC5/SPIM.c **** *  None.
 990:Generated_Source\PSoC5/SPIM.c **** *
 991:Generated_Source\PSoC5/SPIM.c **** * Side Effects:
 992:Generated_Source\PSoC5/SPIM.c **** *  Clear status register of the component.
 993:Generated_Source\PSoC5/SPIM.c **** *
 994:Generated_Source\PSoC5/SPIM.c **** *******************************************************************************/
 995:Generated_Source\PSoC5/SPIM.c **** void SPIM_ClearFIFO(void) 
 996:Generated_Source\PSoC5/SPIM.c **** {
 939              		.loc 1 996 0
 940              		.cfi_startproc
ARM GAS  C:\Users\KJA\AppData\Local\Temp\cc3P3ZRh.s 			page 35


 941              		@ args = 0, pretend = 0, frame = 8
 942              		@ frame_needed = 1, uses_anonymous_args = 0
 943 0000 80B5     		push	{r7, lr}
 944              		.cfi_def_cfa_offset 8
 945              		.cfi_offset 7, -8
 946              		.cfi_offset 14, -4
 947 0002 82B0     		sub	sp, sp, #8
 948              		.cfi_def_cfa_offset 16
 949 0004 00AF     		add	r7, sp, #0
 950              		.cfi_def_cfa_register 7
 997:Generated_Source\PSoC5/SPIM.c ****     uint8 enableInterrupts;
 998:Generated_Source\PSoC5/SPIM.c **** 
 999:Generated_Source\PSoC5/SPIM.c ****     /* Clear Hardware RX FIFO */
1000:Generated_Source\PSoC5/SPIM.c ****     while(0u !=(SPIM_RX_STATUS_REG & SPIM_STS_RX_FIFO_NOT_EMPTY))
 951              		.loc 1 1000 0
 952 0006 01E0     		b	.L65
 953              	.L66:
1001:Generated_Source\PSoC5/SPIM.c ****     {
1002:Generated_Source\PSoC5/SPIM.c ****         (void) CY_GET_REG8(SPIM_RXDATA_PTR);
 954              		.loc 1 1002 0
 955 0008 114B     		ldr	r3, .L67
 956 000a 1B78     		ldrb	r3, [r3]
 957              	.L65:
1000:Generated_Source\PSoC5/SPIM.c ****     {
 958              		.loc 1 1000 0
 959 000c 114B     		ldr	r3, .L67+4
 960 000e 1B78     		ldrb	r3, [r3]
 961 0010 DBB2     		uxtb	r3, r3
 962 0012 03F02003 		and	r3, r3, #32
 963 0016 002B     		cmp	r3, #0
 964 0018 F6D1     		bne	.L66
1003:Generated_Source\PSoC5/SPIM.c ****     }
1004:Generated_Source\PSoC5/SPIM.c **** 
1005:Generated_Source\PSoC5/SPIM.c ****     enableInterrupts = CyEnterCriticalSection();
 965              		.loc 1 1005 0
 966 001a FFF7FEFF 		bl	CyEnterCriticalSection
 967 001e 0346     		mov	r3, r0
 968 0020 FB71     		strb	r3, [r7, #7]
1006:Generated_Source\PSoC5/SPIM.c ****     /* Clear TX FIFO */
1007:Generated_Source\PSoC5/SPIM.c ****     SPIM_AUX_CONTROL_DP0_REG |= ((uint8)  SPIM_TX_FIFO_CLR);
 969              		.loc 1 1007 0
 970 0022 0D4A     		ldr	r2, .L67+8
 971 0024 0C4B     		ldr	r3, .L67+8
 972 0026 1B78     		ldrb	r3, [r3]
 973 0028 DBB2     		uxtb	r3, r3
 974 002a 43F00103 		orr	r3, r3, #1
 975 002e DBB2     		uxtb	r3, r3
 976 0030 1370     		strb	r3, [r2]
1008:Generated_Source\PSoC5/SPIM.c ****     SPIM_AUX_CONTROL_DP0_REG &= ((uint8) ~SPIM_TX_FIFO_CLR);
 977              		.loc 1 1008 0
 978 0032 094A     		ldr	r2, .L67+8
 979 0034 084B     		ldr	r3, .L67+8
 980 0036 1B78     		ldrb	r3, [r3]
 981 0038 DBB2     		uxtb	r3, r3
 982 003a 23F00103 		bic	r3, r3, #1
 983 003e DBB2     		uxtb	r3, r3
 984 0040 1370     		strb	r3, [r2]
ARM GAS  C:\Users\KJA\AppData\Local\Temp\cc3P3ZRh.s 			page 36


1009:Generated_Source\PSoC5/SPIM.c **** 
1010:Generated_Source\PSoC5/SPIM.c ****     #if(SPIM_USE_SECOND_DATAPATH)
1011:Generated_Source\PSoC5/SPIM.c ****         /* Clear TX FIFO for 2nd Datapath */
1012:Generated_Source\PSoC5/SPIM.c ****         SPIM_AUX_CONTROL_DP1_REG |= ((uint8)  SPIM_TX_FIFO_CLR);
1013:Generated_Source\PSoC5/SPIM.c ****         SPIM_AUX_CONTROL_DP1_REG &= ((uint8) ~SPIM_TX_FIFO_CLR);
1014:Generated_Source\PSoC5/SPIM.c ****     #endif /* (SPIM_USE_SECOND_DATAPATH) */
1015:Generated_Source\PSoC5/SPIM.c ****     CyExitCriticalSection(enableInterrupts);
 985              		.loc 1 1015 0
 986 0042 FB79     		ldrb	r3, [r7, #7]	@ zero_extendqisi2
 987 0044 1846     		mov	r0, r3
 988 0046 FFF7FEFF 		bl	CyExitCriticalSection
1016:Generated_Source\PSoC5/SPIM.c **** }
 989              		.loc 1 1016 0
 990 004a 0837     		adds	r7, r7, #8
 991              		.cfi_def_cfa_offset 8
 992 004c BD46     		mov	sp, r7
 993              		.cfi_def_cfa_register 13
 994              		@ sp needed
 995 004e 80BD     		pop	{r7, pc}
 996              	.L68:
 997              		.align	2
 998              	.L67:
 999 0050 58650040 		.word	1073767768
 1000 0054 6B650040 		.word	1073767787
 1001 0058 98650040 		.word	1073767832
 1002              		.cfi_endproc
 1003              	.LFE19:
 1004              		.size	SPIM_ClearFIFO, .-SPIM_ClearFIFO
 1005              		.section	.text.SPIM_EnableInt,"ax",%progbits
 1006              		.align	2
 1007              		.global	SPIM_EnableInt
 1008              		.thumb
 1009              		.thumb_func
 1010              		.type	SPIM_EnableInt, %function
 1011              	SPIM_EnableInt:
 1012              	.LFB20:
1017:Generated_Source\PSoC5/SPIM.c **** 
1018:Generated_Source\PSoC5/SPIM.c **** 
1019:Generated_Source\PSoC5/SPIM.c **** /* Following functions are for version Compatibility, they are obsolete.
1020:Generated_Source\PSoC5/SPIM.c **** *  Please do not use it in new projects.
1021:Generated_Source\PSoC5/SPIM.c **** */
1022:Generated_Source\PSoC5/SPIM.c **** 
1023:Generated_Source\PSoC5/SPIM.c **** 
1024:Generated_Source\PSoC5/SPIM.c **** /*******************************************************************************
1025:Generated_Source\PSoC5/SPIM.c **** * Function Name: SPIM_EnableInt
1026:Generated_Source\PSoC5/SPIM.c **** ********************************************************************************
1027:Generated_Source\PSoC5/SPIM.c **** *
1028:Generated_Source\PSoC5/SPIM.c **** * Summary:
1029:Generated_Source\PSoC5/SPIM.c **** *  Enable internal interrupt generation.
1030:Generated_Source\PSoC5/SPIM.c **** *
1031:Generated_Source\PSoC5/SPIM.c **** * Parameters:
1032:Generated_Source\PSoC5/SPIM.c **** *  None.
1033:Generated_Source\PSoC5/SPIM.c **** *
1034:Generated_Source\PSoC5/SPIM.c **** * Return:
1035:Generated_Source\PSoC5/SPIM.c **** *  None.
1036:Generated_Source\PSoC5/SPIM.c **** *
1037:Generated_Source\PSoC5/SPIM.c **** * Theory:
ARM GAS  C:\Users\KJA\AppData\Local\Temp\cc3P3ZRh.s 			page 37


1038:Generated_Source\PSoC5/SPIM.c **** *  Enable the internal interrupt output -or- the interrupt component itself.
1039:Generated_Source\PSoC5/SPIM.c **** *
1040:Generated_Source\PSoC5/SPIM.c **** *******************************************************************************/
1041:Generated_Source\PSoC5/SPIM.c **** void SPIM_EnableInt(void) 
1042:Generated_Source\PSoC5/SPIM.c **** {
 1013              		.loc 1 1042 0
 1014              		.cfi_startproc
 1015              		@ args = 0, pretend = 0, frame = 0
 1016              		@ frame_needed = 1, uses_anonymous_args = 0
 1017 0000 80B5     		push	{r7, lr}
 1018              		.cfi_def_cfa_offset 8
 1019              		.cfi_offset 7, -8
 1020              		.cfi_offset 14, -4
 1021 0002 00AF     		add	r7, sp, #0
 1022              		.cfi_def_cfa_register 7
1043:Generated_Source\PSoC5/SPIM.c ****     SPIM_EnableRxInt();
 1023              		.loc 1 1043 0
 1024 0004 FFF7FEFF 		bl	SPIM_EnableRxInt
1044:Generated_Source\PSoC5/SPIM.c ****     SPIM_EnableTxInt();
 1025              		.loc 1 1044 0
 1026 0008 FFF7FEFF 		bl	SPIM_EnableTxInt
1045:Generated_Source\PSoC5/SPIM.c **** }
 1027              		.loc 1 1045 0
 1028 000c 80BD     		pop	{r7, pc}
 1029              		.cfi_endproc
 1030              	.LFE20:
 1031              		.size	SPIM_EnableInt, .-SPIM_EnableInt
 1032 000e 00BF     		.section	.text.SPIM_DisableInt,"ax",%progbits
 1033              		.align	2
 1034              		.global	SPIM_DisableInt
 1035              		.thumb
 1036              		.thumb_func
 1037              		.type	SPIM_DisableInt, %function
 1038              	SPIM_DisableInt:
 1039              	.LFB21:
1046:Generated_Source\PSoC5/SPIM.c **** 
1047:Generated_Source\PSoC5/SPIM.c **** 
1048:Generated_Source\PSoC5/SPIM.c **** /*******************************************************************************
1049:Generated_Source\PSoC5/SPIM.c **** * Function Name: SPIM_DisableInt
1050:Generated_Source\PSoC5/SPIM.c **** ********************************************************************************
1051:Generated_Source\PSoC5/SPIM.c **** *
1052:Generated_Source\PSoC5/SPIM.c **** * Summary:
1053:Generated_Source\PSoC5/SPIM.c **** *  Disable internal interrupt generation.
1054:Generated_Source\PSoC5/SPIM.c **** *
1055:Generated_Source\PSoC5/SPIM.c **** * Parameters:
1056:Generated_Source\PSoC5/SPIM.c **** *  None.
1057:Generated_Source\PSoC5/SPIM.c **** *
1058:Generated_Source\PSoC5/SPIM.c **** * Return:
1059:Generated_Source\PSoC5/SPIM.c **** *  None.
1060:Generated_Source\PSoC5/SPIM.c **** *
1061:Generated_Source\PSoC5/SPIM.c **** * Theory:
1062:Generated_Source\PSoC5/SPIM.c **** *  Disable the internal interrupt output -or- the interrupt component itself.
1063:Generated_Source\PSoC5/SPIM.c **** *
1064:Generated_Source\PSoC5/SPIM.c **** *******************************************************************************/
1065:Generated_Source\PSoC5/SPIM.c **** void SPIM_DisableInt(void) 
1066:Generated_Source\PSoC5/SPIM.c **** {
 1040              		.loc 1 1066 0
ARM GAS  C:\Users\KJA\AppData\Local\Temp\cc3P3ZRh.s 			page 38


 1041              		.cfi_startproc
 1042              		@ args = 0, pretend = 0, frame = 0
 1043              		@ frame_needed = 1, uses_anonymous_args = 0
 1044 0000 80B5     		push	{r7, lr}
 1045              		.cfi_def_cfa_offset 8
 1046              		.cfi_offset 7, -8
 1047              		.cfi_offset 14, -4
 1048 0002 00AF     		add	r7, sp, #0
 1049              		.cfi_def_cfa_register 7
1067:Generated_Source\PSoC5/SPIM.c ****     SPIM_DisableTxInt();
 1050              		.loc 1 1067 0
 1051 0004 FFF7FEFF 		bl	SPIM_DisableTxInt
1068:Generated_Source\PSoC5/SPIM.c ****     SPIM_DisableRxInt();
 1052              		.loc 1 1068 0
 1053 0008 FFF7FEFF 		bl	SPIM_DisableRxInt
1069:Generated_Source\PSoC5/SPIM.c **** }
 1054              		.loc 1 1069 0
 1055 000c 80BD     		pop	{r7, pc}
 1056              		.cfi_endproc
 1057              	.LFE21:
 1058              		.size	SPIM_DisableInt, .-SPIM_DisableInt
 1059 000e 00BF     		.section	.text.SPIM_SetInterruptMode,"ax",%progbits
 1060              		.align	2
 1061              		.global	SPIM_SetInterruptMode
 1062              		.thumb
 1063              		.thumb_func
 1064              		.type	SPIM_SetInterruptMode, %function
 1065              	SPIM_SetInterruptMode:
 1066              	.LFB22:
1070:Generated_Source\PSoC5/SPIM.c **** 
1071:Generated_Source\PSoC5/SPIM.c **** 
1072:Generated_Source\PSoC5/SPIM.c **** /*******************************************************************************
1073:Generated_Source\PSoC5/SPIM.c **** * Function Name: SPIM_SetInterruptMode
1074:Generated_Source\PSoC5/SPIM.c **** ********************************************************************************
1075:Generated_Source\PSoC5/SPIM.c **** *
1076:Generated_Source\PSoC5/SPIM.c **** * Summary:
1077:Generated_Source\PSoC5/SPIM.c **** *  Configure which status bits trigger an interrupt event.
1078:Generated_Source\PSoC5/SPIM.c **** *
1079:Generated_Source\PSoC5/SPIM.c **** * Parameters:
1080:Generated_Source\PSoC5/SPIM.c **** *  intSrc: An or'd combination of the desired status bit masks (defined in the
1081:Generated_Source\PSoC5/SPIM.c **** *  header file).
1082:Generated_Source\PSoC5/SPIM.c **** *
1083:Generated_Source\PSoC5/SPIM.c **** * Return:
1084:Generated_Source\PSoC5/SPIM.c **** *  None.
1085:Generated_Source\PSoC5/SPIM.c **** *
1086:Generated_Source\PSoC5/SPIM.c **** * Theory:
1087:Generated_Source\PSoC5/SPIM.c **** *  Enables the output of specific status bits to the interrupt controller.
1088:Generated_Source\PSoC5/SPIM.c **** *
1089:Generated_Source\PSoC5/SPIM.c **** *******************************************************************************/
1090:Generated_Source\PSoC5/SPIM.c **** void SPIM_SetInterruptMode(uint8 intSrc) 
1091:Generated_Source\PSoC5/SPIM.c **** {
 1067              		.loc 1 1091 0
 1068              		.cfi_startproc
 1069              		@ args = 0, pretend = 0, frame = 8
 1070              		@ frame_needed = 1, uses_anonymous_args = 0
 1071              		@ link register save eliminated.
 1072 0000 80B4     		push	{r7}
ARM GAS  C:\Users\KJA\AppData\Local\Temp\cc3P3ZRh.s 			page 39


 1073              		.cfi_def_cfa_offset 4
 1074              		.cfi_offset 7, -4
 1075 0002 83B0     		sub	sp, sp, #12
 1076              		.cfi_def_cfa_offset 16
 1077 0004 00AF     		add	r7, sp, #0
 1078              		.cfi_def_cfa_register 7
 1079 0006 0346     		mov	r3, r0
 1080 0008 FB71     		strb	r3, [r7, #7]
1092:Generated_Source\PSoC5/SPIM.c ****     SPIM_TX_STATUS_MASK_REG  = (intSrc & ((uint8) ~SPIM_STS_SPI_IDLE));
 1081              		.loc 1 1092 0
 1082 000a 074A     		ldr	r2, .L72
 1083 000c FB79     		ldrb	r3, [r7, #7]
 1084 000e 23F01003 		bic	r3, r3, #16
 1085 0012 DBB2     		uxtb	r3, r3
 1086 0014 1370     		strb	r3, [r2]
1093:Generated_Source\PSoC5/SPIM.c ****     SPIM_RX_STATUS_MASK_REG  =  intSrc;
 1087              		.loc 1 1093 0
 1088 0016 054A     		ldr	r2, .L72+4
 1089 0018 FB79     		ldrb	r3, [r7, #7]
 1090 001a 1370     		strb	r3, [r2]
1094:Generated_Source\PSoC5/SPIM.c **** }
 1091              		.loc 1 1094 0
 1092 001c 0C37     		adds	r7, r7, #12
 1093              		.cfi_def_cfa_offset 4
 1094 001e BD46     		mov	sp, r7
 1095              		.cfi_def_cfa_register 13
 1096              		@ sp needed
 1097 0020 5DF8047B 		ldr	r7, [sp], #4
 1098              		.cfi_restore 7
 1099              		.cfi_def_cfa_offset 0
 1100 0024 7047     		bx	lr
 1101              	.L73:
 1102 0026 00BF     		.align	2
 1103              	.L72:
 1104 0028 88640040 		.word	1073767560
 1105 002c 8B650040 		.word	1073767819
 1106              		.cfi_endproc
 1107              	.LFE22:
 1108              		.size	SPIM_SetInterruptMode, .-SPIM_SetInterruptMode
 1109              		.section	.text.SPIM_ReadStatus,"ax",%progbits
 1110              		.align	2
 1111              		.global	SPIM_ReadStatus
 1112              		.thumb
 1113              		.thumb_func
 1114              		.type	SPIM_ReadStatus, %function
 1115              	SPIM_ReadStatus:
 1116              	.LFB23:
1095:Generated_Source\PSoC5/SPIM.c **** 
1096:Generated_Source\PSoC5/SPIM.c **** 
1097:Generated_Source\PSoC5/SPIM.c **** /*******************************************************************************
1098:Generated_Source\PSoC5/SPIM.c **** * Function Name: SPIM_ReadStatus
1099:Generated_Source\PSoC5/SPIM.c **** ********************************************************************************
1100:Generated_Source\PSoC5/SPIM.c **** *
1101:Generated_Source\PSoC5/SPIM.c **** * Summary:
1102:Generated_Source\PSoC5/SPIM.c **** *  Read the status register for the component.
1103:Generated_Source\PSoC5/SPIM.c **** *
1104:Generated_Source\PSoC5/SPIM.c **** * Parameters:
ARM GAS  C:\Users\KJA\AppData\Local\Temp\cc3P3ZRh.s 			page 40


1105:Generated_Source\PSoC5/SPIM.c **** *  None.
1106:Generated_Source\PSoC5/SPIM.c **** *
1107:Generated_Source\PSoC5/SPIM.c **** * Return:
1108:Generated_Source\PSoC5/SPIM.c **** *  Contents of the status register.
1109:Generated_Source\PSoC5/SPIM.c **** *
1110:Generated_Source\PSoC5/SPIM.c **** * Global variables:
1111:Generated_Source\PSoC5/SPIM.c **** *  SPIM_swStatus - used to store in software status register,
1112:Generated_Source\PSoC5/SPIM.c **** *  modified every function call - resets to zero.
1113:Generated_Source\PSoC5/SPIM.c **** *
1114:Generated_Source\PSoC5/SPIM.c **** * Theory:
1115:Generated_Source\PSoC5/SPIM.c **** *  Allows the user and the API to read the status register for error detection
1116:Generated_Source\PSoC5/SPIM.c **** *  and flow control.
1117:Generated_Source\PSoC5/SPIM.c **** *
1118:Generated_Source\PSoC5/SPIM.c **** * Side Effects:
1119:Generated_Source\PSoC5/SPIM.c **** *  Clear status register of the component.
1120:Generated_Source\PSoC5/SPIM.c **** *
1121:Generated_Source\PSoC5/SPIM.c **** * Reentrant:
1122:Generated_Source\PSoC5/SPIM.c **** *  No.
1123:Generated_Source\PSoC5/SPIM.c **** *
1124:Generated_Source\PSoC5/SPIM.c **** *******************************************************************************/
1125:Generated_Source\PSoC5/SPIM.c **** uint8 SPIM_ReadStatus(void) 
1126:Generated_Source\PSoC5/SPIM.c **** {
 1117              		.loc 1 1126 0
 1118              		.cfi_startproc
 1119              		@ args = 0, pretend = 0, frame = 8
 1120              		@ frame_needed = 1, uses_anonymous_args = 0
 1121              		@ link register save eliminated.
 1122 0000 80B4     		push	{r7}
 1123              		.cfi_def_cfa_offset 4
 1124              		.cfi_offset 7, -4
 1125 0002 83B0     		sub	sp, sp, #12
 1126              		.cfi_def_cfa_offset 16
 1127 0004 00AF     		add	r7, sp, #0
 1128              		.cfi_def_cfa_register 7
1127:Generated_Source\PSoC5/SPIM.c ****     uint8 tmpStatus;
1128:Generated_Source\PSoC5/SPIM.c **** 
1129:Generated_Source\PSoC5/SPIM.c ****     #if(SPIM_TX_SOFTWARE_BUF_ENABLED || SPIM_RX_SOFTWARE_BUF_ENABLED)
1130:Generated_Source\PSoC5/SPIM.c **** 
1131:Generated_Source\PSoC5/SPIM.c ****         SPIM_DisableInt();
1132:Generated_Source\PSoC5/SPIM.c **** 
1133:Generated_Source\PSoC5/SPIM.c ****         tmpStatus  = SPIM_GET_STATUS_RX(SPIM_swStatusRx);
1134:Generated_Source\PSoC5/SPIM.c ****         tmpStatus |= SPIM_GET_STATUS_TX(SPIM_swStatusTx);
1135:Generated_Source\PSoC5/SPIM.c ****         tmpStatus &= ((uint8) ~SPIM_STS_SPI_IDLE);
1136:Generated_Source\PSoC5/SPIM.c **** 
1137:Generated_Source\PSoC5/SPIM.c ****         SPIM_swStatusTx = 0u;
1138:Generated_Source\PSoC5/SPIM.c ****         SPIM_swStatusRx = 0u;
1139:Generated_Source\PSoC5/SPIM.c **** 
1140:Generated_Source\PSoC5/SPIM.c ****         SPIM_EnableInt();
1141:Generated_Source\PSoC5/SPIM.c **** 
1142:Generated_Source\PSoC5/SPIM.c ****     #else
1143:Generated_Source\PSoC5/SPIM.c **** 
1144:Generated_Source\PSoC5/SPIM.c ****         tmpStatus  = SPIM_RX_STATUS_REG;
 1129              		.loc 1 1144 0
 1130 0006 0A4B     		ldr	r3, .L76
 1131 0008 1B78     		ldrb	r3, [r3]
 1132 000a FB71     		strb	r3, [r7, #7]
1145:Generated_Source\PSoC5/SPIM.c ****         tmpStatus |= SPIM_TX_STATUS_REG;
ARM GAS  C:\Users\KJA\AppData\Local\Temp\cc3P3ZRh.s 			page 41


 1133              		.loc 1 1145 0
 1134 000c 094B     		ldr	r3, .L76+4
 1135 000e 1B78     		ldrb	r3, [r3]
 1136 0010 DAB2     		uxtb	r2, r3
 1137 0012 FB79     		ldrb	r3, [r7, #7]
 1138 0014 1343     		orrs	r3, r3, r2
 1139 0016 FB71     		strb	r3, [r7, #7]
1146:Generated_Source\PSoC5/SPIM.c ****         tmpStatus &= ((uint8) ~SPIM_STS_SPI_IDLE);
 1140              		.loc 1 1146 0
 1141 0018 FB79     		ldrb	r3, [r7, #7]
 1142 001a 23F01003 		bic	r3, r3, #16
 1143 001e FB71     		strb	r3, [r7, #7]
1147:Generated_Source\PSoC5/SPIM.c **** 
1148:Generated_Source\PSoC5/SPIM.c ****     #endif /* (SPIM_TX_SOFTWARE_BUF_ENABLED || SPIM_RX_SOFTWARE_BUF_ENABLED) */
1149:Generated_Source\PSoC5/SPIM.c **** 
1150:Generated_Source\PSoC5/SPIM.c ****     return(tmpStatus);
 1144              		.loc 1 1150 0
 1145 0020 FB79     		ldrb	r3, [r7, #7]	@ zero_extendqisi2
1151:Generated_Source\PSoC5/SPIM.c **** }
 1146              		.loc 1 1151 0
 1147 0022 1846     		mov	r0, r3
 1148 0024 0C37     		adds	r7, r7, #12
 1149              		.cfi_def_cfa_offset 4
 1150 0026 BD46     		mov	sp, r7
 1151              		.cfi_def_cfa_register 13
 1152              		@ sp needed
 1153 0028 5DF8047B 		ldr	r7, [sp], #4
 1154              		.cfi_restore 7
 1155              		.cfi_def_cfa_offset 0
 1156 002c 7047     		bx	lr
 1157              	.L77:
 1158 002e 00BF     		.align	2
 1159              	.L76:
 1160 0030 6B650040 		.word	1073767787
 1161 0034 68640040 		.word	1073767528
 1162              		.cfi_endproc
 1163              	.LFE23:
 1164              		.size	SPIM_ReadStatus, .-SPIM_ReadStatus
 1165              		.text
 1166              	.Letext0:
 1167              		.file 2 "Generated_Source\\PSoC5\\cytypes.h"