ARM GAS  C:\Users\KJA\AppData\Local\Temp\ccAyzU2h.s 			page 1


   1              		.syntax unified
   2              		.cpu cortex-m3
   3              		.fpu softvfp
   4              		.eabi_attribute 20, 1
   5              		.eabi_attribute 21, 1
   6              		.eabi_attribute 23, 3
   7              		.eabi_attribute 24, 1
   8              		.eabi_attribute 25, 1
   9              		.eabi_attribute 26, 1
  10              		.eabi_attribute 30, 6
  11              		.eabi_attribute 34, 1
  12              		.eabi_attribute 18, 4
  13              		.thumb
  14              		.file	"state_machine.c"
  15              		.text
  16              	.Ltext0:
  17              		.cfi_sections	.debug_frame
  18              		.comm	Current_State,1,1
  19              		.comm	Previous_State,1,1
  20              		.comm	Sound_Enable,1,1
  21              		.comm	Current_Menu_Position,1,1
  22              		.comm	CurrentBacklightValue,1,1
  23              		.comm	CurrentBacklightValueString,8,4
  24              		.comm	CurrentVolumeValue,1,1
  25              		.comm	CurrentVolumeValueString,8,4
  26              		.comm	Current_Calibration_Range1,4,4
  27              		.comm	Current_Calibration_Range2,4,4
  28              		.comm	Current_Calibration_Range3,4,4
  29              		.comm	LEM_Offset_Value,1,1
  30              		.comm	Two_Wire_Range,4,4
  31              		.comm	Four_Wire_Range,4,4
  32              		.comm	Four_Wire_Method,1,1
  33              		.comm	Actual_Range,1,1
  34              		.comm	View_Mode,1,1
  35              		.comm	qdCount,2,2
  36              		.comm	Last_qdCount,2,2
  37              		.comm	button1,1,1
  38              		.comm	button2,1,1
  39              		.comm	button3,1,1
  40              		.comm	button4,1,1
  41              		.comm	button5,1,1
  42              		.comm	button6,1,1
  43              		.comm	push,1,1
  44              		.comm	OutputEnable,1,1
  45              		.comm	u8g,60,4
  46              		.comm	Push_Buzzer__Default_Lenght,4,4
  47              		.comm	Rotate_Buzzer__Default_Lenght,4,4
  48              		.comm	Edit_Value_Mode,1,1
  49              		.comm	cVoltage_Actual,16,4
  50              		.comm	cCurrent_Actual,16,4
  51              		.comm	cPower_Actual,16,4
  52              		.comm	cResist_Actual,16,4
  53              		.comm	cVoltage_Set,16,4
  54              		.comm	cCurrent_Set,16,4
  55              		.comm	cPower_Set,16,4
  56              		.comm	cResist_Set,16,4
  57              		.comm	TestChar,16,4
ARM GAS  C:\Users\KJA\AppData\Local\Temp\ccAyzU2h.s 			page 2


  58              		.comm	XPosition,2,2
  59              		.comm	cXPosition,16,4
  60              		.comm	YPosition,2,2
  61              		.comm	cYPosition,16,4
  62              		.comm	Touched,1,1
  63              		.comm	MeasuredVoltage,2,2
  64              		.comm	fVoltage,4,4
  65              		.comm	MeasuredCurrent,2,2
  66              		.comm	fCurrent,4,4
  67              		.comm	Power,2,2
  68              		.comm	fPower,4,4
  69              		.comm	Resist,2,2
  70              		.comm	fResist,4,4
  71              		.comm	Set_Voltage,4,4
  72              		.comm	Set_Current,4,4
  73              		.comm	Set_Current_Temporary_Value,4,4
  74              		.comm	Set_Power,4,4
  75              		.comm	Set_Power_Temporary_Value,4,4
  76              		.comm	Set_Resist,4,4
  77              		.comm	Set_Resist_Temporary_Value,4,4
  78              		.comm	Position_Number,1,1
  79              		.comm	MaxPower,4,4
  80              		.comm	MaxVoltage,4,4
  81              		.comm	MaxCurrent,4,4
  82              		.comm	MinResistance,4,4
  83              		.comm	MaxResistance,4,4
  84              		.comm	C_Kp,4,4
  85              		.comm	C_Ki,4,4
  86              		.comm	C_Kd,4,4
  87              		.comm	Max_FET_Temp,1,1
  88              		.comm	OverTemperature,1,1
  89              		.comm	Set_Ampl,2,2
  90              		.comm	Set_Ampl_Temporary_Value,2,2
  91              		.comm	Set_Freq,2,2
  92              		.comm	Set_Freq_Temporary_Value,4,4
  93              		.comm	Set_Duty,1,1
  94              		.comm	Set_Duty_Temporary_Value,1,1
  95              		.comm	cSet_Ampl,16,4
  96              		.comm	cSet_Freq,16,4
  97              		.comm	cSet_Duty,16,4
  98              		.comm	Current_Edit_Value,1,1
  99              		.comm	Actual_Multiplier_Value,1,1
 100              		.comm	cCounter,32,4
 101              		.comm	deltaT,1,1
 102              		.comm	Avarage_FET_Temp,4,4
 103              		.comm	Current_DIE_Temp,2,2
 104              		.comm	Current_DIE_TempString,8,4
 105              		.comm	Current_FET_Temp,1,1
 106              		.comm	Current_FET_TempString,8,4
 107              		.global	Temporary
 108              		.bss
 109              		.type	Temporary, %object
 110              		.size	Temporary, 1
 111              	Temporary:
 112 0000 00       		.space	1
 113              		.global	DACValue
 114 0001 00       		.align	1
ARM GAS  C:\Users\KJA\AppData\Local\Temp\ccAyzU2h.s 			page 3


 115              		.type	DACValue, %object
 116              		.size	DACValue, 2
 117              	DACValue:
 118 0002 0000     		.space	2
 119              		.global	Timer
 120              		.align	1
 121              		.type	Timer, %object
 122              		.size	Timer, 2
 123              	Timer:
 124 0004 0000     		.space	2
 125              		.global	Loop_Counter
 126 0006 0000     		.align	2
 127              		.type	Loop_Counter, %object
 128              		.size	Loop_Counter, 4
 129              	Loop_Counter:
 130 0008 00000000 		.space	4
 131              		.global	Last_Counter
 132              		.align	2
 133              		.type	Last_Counter, %object
 134              		.size	Last_Counter, 4
 135              	Last_Counter:
 136 000c 00000000 		.space	4
 137              		.global	Current_Counter
 138              		.align	2
 139              		.type	Current_Counter, %object
 140              		.size	Current_Counter, 4
 141              	Current_Counter:
 142 0010 00000000 		.space	4
 143              		.global	Testowy_Counter
 144              		.align	2
 145              		.type	Testowy_Counter, %object
 146              		.size	Testowy_Counter, 4
 147              	Testowy_Counter:
 148 0014 00000000 		.space	4
 149              		.comm	cTestowy_Counter,16,4
 150              		.comm	SredniaC,4,4
 151              		.global	dtC
 152              		.data
 153              		.type	dtC, %object
 154              		.size	dtC, 1
 155              	dtC:
 156 0000 28       		.byte	40
 157              		.comm	SredniaV,4,4
 158              		.global	dtV
 159              		.type	dtV, %object
 160              		.size	dtV, 1
 161              	dtV:
 162 0001 64       		.byte	100
 163              		.comm	SredniaP,4,4
 164              		.global	dtP
 165              		.type	dtP, %object
 166              		.size	dtP, 1
 167              	dtP:
 168 0002 0A       		.byte	10
 169              		.global	__aeabi_f2d
 170              		.section	.rodata
 171              		.align	2
ARM GAS  C:\Users\KJA\AppData\Local\Temp\ccAyzU2h.s 			page 4


 172              	.LC0:
 173 0000 2566322E 		.ascii	"%f2.4\000"
 173      3400
 174              		.section	.text.State_Machine,"ax",%progbits
 175              		.align	2
 176              		.global	State_Machine
 177              		.thumb
 178              		.thumb_func
 179              		.type	State_Machine, %function
 180              	State_Machine:
 181              	.LFB63:
 182              		.file 1 "state_machine.c"
   1:state_machine.c **** #include "state_machine.h"
   2:state_machine.c **** #include "global_variables.h"
   3:state_machine.c **** #include "LCD_Menu.h"
   4:state_machine.c **** #include "temp_manage.h"
   5:state_machine.c **** 
   6:state_machine.c **** 
   7:state_machine.c **** uint8 Temporary = 0;
   8:state_machine.c **** 
   9:state_machine.c **** 
  10:state_machine.c **** 
  11:state_machine.c **** uint16 DACValue = 0;
  12:state_machine.c **** int16 Timer = 0;
  13:state_machine.c **** 
  14:state_machine.c **** uint32 Loop_Counter = 0;
  15:state_machine.c **** 
  16:state_machine.c **** 
  17:state_machine.c **** int    Last_Counter = 0;
  18:state_machine.c **** int    Current_Counter = 0;
  19:state_machine.c **** 
  20:state_machine.c **** 
  21:state_machine.c **** 
  22:state_machine.c **** int Testowy_Counter = 0;
  23:state_machine.c **** char8 cTestowy_Counter[16u];
  24:state_machine.c **** 
  25:state_machine.c **** float SredniaC;
  26:state_machine.c **** uint8 dtC = 40;
  27:state_machine.c **** 
  28:state_machine.c **** float SredniaV;
  29:state_machine.c **** uint8 dtV = 100;
  30:state_machine.c **** 
  31:state_machine.c **** float SredniaP;
  32:state_machine.c **** uint8 dtP = 10;
  33:state_machine.c **** 
  34:state_machine.c **** 
  35:state_machine.c **** void State_Machine(){   
 183              		.loc 1 35 0
 184              		.cfi_startproc
 185              		@ args = 0, pretend = 0, frame = 0
 186              		@ frame_needed = 1, uses_anonymous_args = 0
 187 0000 80B5     		push	{r7, lr}
 188              		.cfi_def_cfa_offset 8
 189              		.cfi_offset 7, -8
 190              		.cfi_offset 14, -4
 191 0002 00AF     		add	r7, sp, #0
 192              		.cfi_def_cfa_register 7
ARM GAS  C:\Users\KJA\AppData\Local\Temp\ccAyzU2h.s 			page 5


  36:state_machine.c ****     switch(Current_State){
 193              		.loc 1 36 0
 194 0004 534B     		ldr	r3, .L27
 195 0006 1B78     		ldrb	r3, [r3]	@ zero_extendqisi2
 196 0008 122B     		cmp	r3, #18
 197 000a 00F2A080 		bhi	.L26
 198 000e 01A2     		adr	r2, .L4
 199 0010 52F823F0 		ldr	pc, [r2, r3, lsl #2]
 200              		.p2align 2
 201              	.L4:
 202 0014 CD000000 		.word	.L3+1
 203 0018 61000000 		.word	.L5+1
 204 001c 67000000 		.word	.L6+1
 205 0020 6D000000 		.word	.L7+1
 206 0024 73000000 		.word	.L8+1
 207 0028 97000000 		.word	.L9+1
 208 002c 9D000000 		.word	.L10+1
 209 0030 A3000000 		.word	.L11+1
 210 0034 A9000000 		.word	.L12+1
 211 0038 79000000 		.word	.L13+1
 212 003c 7F000000 		.word	.L14+1
 213 0040 C7000000 		.word	.L15+1
 214 0044 C1000000 		.word	.L16+1
 215 0048 AF000000 		.word	.L17+1
 216 004c BB000000 		.word	.L18+1
 217 0050 B5000000 		.word	.L19+1
 218 0054 85000000 		.word	.L20+1
 219 0058 8B000000 		.word	.L21+1
 220 005c 91000000 		.word	.L22+1
 221              		.p2align 1
 222              	.L5:
  37:state_machine.c ****         case Home:
  38:state_machine.c ****              State_Machine_Home();
 223              		.loc 1 38 0
 224 0060 FFF7FEFF 		bl	State_Machine_Home
  39:state_machine.c ****         break;
 225              		.loc 1 39 0
 226 0064 74E0     		b	.L1
 227              	.L6:
  40:state_machine.c ****     
  41:state_machine.c ****         case ConstantMode:
  42:state_machine.c ****              State_Machine_ConstantMode();  
 228              		.loc 1 42 0
 229 0066 FFF7FEFF 		bl	State_Machine_ConstantMode
  43:state_machine.c ****         break;
 230              		.loc 1 43 0
 231 006a 71E0     		b	.L1
 232              	.L7:
  44:state_machine.c ****             
  45:state_machine.c ****         case ArbitraryMode:
  46:state_machine.c ****              State_Machine_ArbitraryMode();  
 233              		.loc 1 46 0
 234 006c FFF7FEFF 		bl	State_Machine_ArbitraryMode
  47:state_machine.c ****         break;
 235              		.loc 1 47 0
 236 0070 6EE0     		b	.L1
 237              	.L8:
ARM GAS  C:\Users\KJA\AppData\Local\Temp\ccAyzU2h.s 			page 6


  48:state_machine.c ****             
  49:state_machine.c ****         case ConstantCurrent:
  50:state_machine.c ****              State_Machine_ConstantCurrent();  
 238              		.loc 1 50 0
 239 0072 FFF7FEFF 		bl	State_Machine_ConstantCurrent
  51:state_machine.c ****         break;
 240              		.loc 1 51 0
 241 0076 6BE0     		b	.L1
 242              	.L13:
  52:state_machine.c ****             
  53:state_machine.c ****         case ConstantPower:
  54:state_machine.c ****             State_Machine_ConstantPower();
 243              		.loc 1 54 0
 244 0078 FFF7FEFF 		bl	State_Machine_ConstantPower
  55:state_machine.c ****         break;
 245              		.loc 1 55 0
 246 007c 68E0     		b	.L1
 247              	.L14:
  56:state_machine.c ****             
  57:state_machine.c ****         case ConstantResistance:
  58:state_machine.c ****             State_Machine_ConstantResistance();
 248              		.loc 1 58 0
 249 007e FFF7FEFF 		bl	State_Machine_ConstantResistance
  59:state_machine.c ****         break;
 250              		.loc 1 59 0
 251 0082 65E0     		b	.L1
 252              	.L20:
  60:state_machine.c ****             
  61:state_machine.c ****         case WaveForm_Mode:
  62:state_machine.c ****             State_Machine_WaveForm_Mode();
 253              		.loc 1 62 0
 254 0084 FFF7FEFF 		bl	State_Machine_WaveForm_Mode
  63:state_machine.c ****         break;
 255              		.loc 1 63 0
 256 0088 62E0     		b	.L1
 257              	.L21:
  64:state_machine.c ****          
  65:state_machine.c ****         case PWM_Mode:
  66:state_machine.c ****             State_Machine_PWM_Mode();
 258              		.loc 1 66 0
 259 008a FFF7FEFF 		bl	State_Machine_PWM_Mode
  67:state_machine.c ****         break;
 260              		.loc 1 67 0
 261 008e 5FE0     		b	.L1
 262              	.L22:
  68:state_machine.c ****             
  69:state_machine.c ****         case External_Drive:
  70:state_machine.c ****             State_Machine_External_Drive();
 263              		.loc 1 70 0
 264 0090 FFF7FEFF 		bl	State_Machine_External_Drive
  71:state_machine.c ****         break;
 265              		.loc 1 71 0
 266 0094 5CE0     		b	.L1
 267              	.L9:
  72:state_machine.c ****             
  73:state_machine.c ****         case Settings:
  74:state_machine.c ****              State_Machine_Settings();
ARM GAS  C:\Users\KJA\AppData\Local\Temp\ccAyzU2h.s 			page 7


 268              		.loc 1 74 0
 269 0096 FFF7FEFF 		bl	State_Machine_Settings
  75:state_machine.c ****         break;
 270              		.loc 1 75 0
 271 009a 59E0     		b	.L1
 272              	.L10:
  76:state_machine.c ****             
  77:state_machine.c ****         case BacklightSetting:
  78:state_machine.c ****             State_Machine_BacklightSetting();
 273              		.loc 1 78 0
 274 009c FFF7FEFF 		bl	State_Machine_BacklightSetting
  79:state_machine.c ****         break;
 275              		.loc 1 79 0
 276 00a0 56E0     		b	.L1
 277              	.L11:
  80:state_machine.c ****             
  81:state_machine.c ****         case VolumeSetting:
  82:state_machine.c ****             State_Machine_VolumeSetting();
 278              		.loc 1 82 0
 279 00a2 FFF7FEFF 		bl	State_Machine_VolumeSetting
  83:state_machine.c ****         break;
 280              		.loc 1 83 0
 281 00a6 53E0     		b	.L1
 282              	.L12:
  84:state_machine.c ****             
  85:state_machine.c ****         case Information:
  86:state_machine.c ****             State_Machine_Information();  
 283              		.loc 1 86 0
 284 00a8 FFF7FEFF 		bl	State_Machine_Information
  87:state_machine.c ****         break;
 285              		.loc 1 87 0
 286 00ac 50E0     		b	.L1
 287              	.L17:
  88:state_machine.c **** 
  89:state_machine.c ****         case Error_NC:
  90:state_machine.c ****             State_Machine_Error_NC(); 
 288              		.loc 1 90 0
 289 00ae FFF7FEFF 		bl	State_Machine_Error_NC
  91:state_machine.c ****         break;
 290              		.loc 1 91 0
 291 00b2 4DE0     		b	.L1
 292              	.L19:
  92:state_machine.c ****             
  93:state_machine.c ****         case Error_OC:
  94:state_machine.c ****             State_Machine_Error_OC(); 
 293              		.loc 1 94 0
 294 00b4 FFF7FEFF 		bl	State_Machine_Error_OC
  95:state_machine.c ****         break;    
 295              		.loc 1 95 0
 296 00b8 4AE0     		b	.L1
 297              	.L18:
  96:state_machine.c ****             
  97:state_machine.c ****         case Error_OT:
  98:state_machine.c ****             State_Machine_Error_OT(); 
 298              		.loc 1 98 0
 299 00ba FFF7FEFF 		bl	State_Machine_Error_OT
  99:state_machine.c ****         break;            
ARM GAS  C:\Users\KJA\AppData\Local\Temp\ccAyzU2h.s 			page 8


 300              		.loc 1 99 0
 301 00be 47E0     		b	.L1
 302              	.L16:
 100:state_machine.c ****         
 101:state_machine.c ****         case Error_OV:
 102:state_machine.c ****             State_Machine_Error_OV(); 
 303              		.loc 1 102 0
 304 00c0 FFF7FEFF 		bl	State_Machine_Error_OV
 103:state_machine.c ****         break;            
 305              		.loc 1 103 0
 306 00c4 44E0     		b	.L1
 307              	.L15:
 104:state_machine.c ****           
 105:state_machine.c ****         case Error_RP:
 106:state_machine.c ****             State_Machine_Error_RP(); 
 308              		.loc 1 106 0
 309 00c6 FFF7FEFF 		bl	State_Machine_Error_RP
 107:state_machine.c ****         break;            
 310              		.loc 1 107 0
 311 00ca 41E0     		b	.L1
 312              	.L3:
 108:state_machine.c ****             
 109:state_machine.c ****         case Develop:     
 110:state_machine.c ****             
 111:state_machine.c ****             MeasuredCurrent = ADC_SAR_2_GetResult16()-33;      
 313              		.loc 1 111 0
 314 00cc FFF7FEFF 		bl	ADC_SAR_2_GetResult16
 315 00d0 0346     		mov	r3, r0
 316 00d2 9BB2     		uxth	r3, r3
 317 00d4 213B     		subs	r3, r3, #33
 318 00d6 9BB2     		uxth	r3, r3
 319 00d8 9AB2     		uxth	r2, r3
 320 00da 1F4B     		ldr	r3, .L27+4
 321 00dc 1A80     		strh	r2, [r3]	@ movhi
 112:state_machine.c ****             fCurrent = ADC_SAR_2_CountsTo_Volts(MeasuredCurrent);
 322              		.loc 1 112 0
 323 00de 1E4B     		ldr	r3, .L27+4
 324 00e0 1B88     		ldrh	r3, [r3]
 325 00e2 1BB2     		sxth	r3, r3
 326 00e4 1846     		mov	r0, r3
 327 00e6 FFF7FEFF 		bl	ADC_SAR_2_CountsTo_Volts
 328 00ea 0246     		mov	r2, r0
 329 00ec 1B4B     		ldr	r3, .L27+8
 330 00ee 1A60     		str	r2, [r3]	@ float
 113:state_machine.c ****             sprintf((char *)cCurrent_Actual,"%f2.4",fCurrent);
 331              		.loc 1 113 0
 332 00f0 1A4B     		ldr	r3, .L27+8
 333 00f2 1B68     		ldr	r3, [r3]	@ float
 334 00f4 1846     		mov	r0, r3
 335 00f6 FFF7FEFF 		bl	__aeabi_f2d
 336 00fa 0246     		mov	r2, r0
 337 00fc 0B46     		mov	r3, r1
 338 00fe 1848     		ldr	r0, .L27+12
 339 0100 1849     		ldr	r1, .L27+16
 340 0102 FFF7FEFF 		bl	sprintf
 114:state_machine.c ****                         
 115:state_machine.c ****             u8g_FirstPage(&u8g);
ARM GAS  C:\Users\KJA\AppData\Local\Temp\ccAyzU2h.s 			page 9


 341              		.loc 1 115 0
 342 0106 1848     		ldr	r0, .L27+20
 343 0108 FFF7FEFF 		bl	u8g_FirstPage
 344              	.L24:
 116:state_machine.c ****             do{
 117:state_machine.c ****                 u8g_SetDefaultForegroundColor(&u8g);         
 345              		.loc 1 117 0 discriminator 1
 346 010c 1648     		ldr	r0, .L27+20
 347 010e FFF7FEFF 		bl	u8g_SetDefaultForegroundColor
 118:state_machine.c ****                 u8g_SetFont(&u8g, u8g_font_unifont);                
 348              		.loc 1 118 0 discriminator 1
 349 0112 1548     		ldr	r0, .L27+20
 350 0114 1549     		ldr	r1, .L27+24
 351 0116 FFF7FEFF 		bl	u8g_SetFont
 119:state_machine.c ****                 u8g_DrawStr(&u8g,  40, 12, cCurrent_Actual);               
 352              		.loc 1 119 0 discriminator 1
 353 011a 1348     		ldr	r0, .L27+20
 354 011c 2821     		movs	r1, #40
 355 011e 0C22     		movs	r2, #12
 356 0120 0F4B     		ldr	r3, .L27+12
 357 0122 FFF7FEFF 		bl	u8g_DrawStr
 120:state_machine.c **** 
 121:state_machine.c ****             } while ( u8g_NextPage(&u8g) );
 358              		.loc 1 121 0 discriminator 1
 359 0126 1048     		ldr	r0, .L27+20
 360 0128 FFF7FEFF 		bl	u8g_NextPage
 361 012c 0346     		mov	r3, r0
 362 012e 002B     		cmp	r3, #0
 363 0130 ECD1     		bne	.L24
 122:state_machine.c ****             
 123:state_machine.c ****             if(!(button1 == 0)){    //Output Enable Button
 364              		.loc 1 123 0
 365 0132 0F4B     		ldr	r3, .L27+28
 366 0134 1B78     		ldrb	r3, [r3]	@ zero_extendqisi2
 367 0136 002B     		cmp	r3, #0
 368 0138 08D0     		beq	.L25
 124:state_machine.c ****                 Buzzer_Shot(Push_Buzzer__Default_Lenght);
 369              		.loc 1 124 0
 370 013a 0E4B     		ldr	r3, .L27+32
 371 013c 1B68     		ldr	r3, [r3]
 372 013e 1846     		mov	r0, r3
 373 0140 FFF7FEFF 		bl	Buzzer_Shot
 125:state_machine.c ****                 RELAY_Write(1);
 374              		.loc 1 125 0
 375 0144 0120     		movs	r0, #1
 376 0146 FFF7FEFF 		bl	RELAY_Write
 126:state_machine.c ****             }
 127:state_machine.c ****             
 128:state_machine.c ****         break;
 377              		.loc 1 128 0
 378 014a 01E0     		b	.L1
 379              	.L25:
 380 014c 00E0     		b	.L1
 381              	.L26:
 129:state_machine.c ****             
 130:state_machine.c ****         default:
 131:state_machine.c ****         break;
ARM GAS  C:\Users\KJA\AppData\Local\Temp\ccAyzU2h.s 			page 10


 382              		.loc 1 131 0
 383 014e 00BF     		nop
 384              	.L1:
 132:state_machine.c ****     }
 133:state_machine.c **** }
 385              		.loc 1 133 0
 386 0150 80BD     		pop	{r7, pc}
 387              	.L28:
 388 0152 00BF     		.align	2
 389              	.L27:
 390 0154 00000000 		.word	Current_State
 391 0158 00000000 		.word	MeasuredCurrent
 392 015c 00000000 		.word	fCurrent
 393 0160 00000000 		.word	cCurrent_Actual
 394 0164 00000000 		.word	.LC0
 395 0168 00000000 		.word	u8g
 396 016c 00000000 		.word	u8g_font_unifont
 397 0170 00000000 		.word	button1
 398 0174 00000000 		.word	Push_Buzzer__Default_Lenght
 399              		.cfi_endproc
 400              	.LFE63:
 401              		.size	State_Machine, .-State_Machine
 402              		.section	.text.State_Machine_Error_RP,"ax",%progbits
 403              		.align	2
 404              		.global	State_Machine_Error_RP
 405              		.thumb
 406              		.thumb_func
 407              		.type	State_Machine_Error_RP, %function
 408              	State_Machine_Error_RP:
 409              	.LFB64:
 134:state_machine.c **** 
 135:state_machine.c **** 
 136:state_machine.c **** void State_Machine_Error_RP(){
 410              		.loc 1 136 0
 411              		.cfi_startproc
 412              		@ args = 0, pretend = 0, frame = 0
 413              		@ frame_needed = 1, uses_anonymous_args = 0
 414 0000 80B5     		push	{r7, lr}
 415              		.cfi_def_cfa_offset 8
 416              		.cfi_offset 7, -8
 417              		.cfi_offset 14, -4
 418 0002 00AF     		add	r7, sp, #0
 419              		.cfi_def_cfa_register 7
 137:state_machine.c ****     
 138:state_machine.c ****     // Secondary Loop Counter
 139:state_machine.c ****     Loop_Counter++;
 420              		.loc 1 139 0
 421 0004 1C4B     		ldr	r3, .L33
 422 0006 1B68     		ldr	r3, [r3]
 423 0008 0133     		adds	r3, r3, #1
 424 000a 1B4A     		ldr	r2, .L33
 425 000c 1360     		str	r3, [r2]
 140:state_machine.c ****     if(Loop_Counter >= 1000){
 426              		.loc 1 140 0
 427 000e 1A4B     		ldr	r3, .L33
 428 0010 1B68     		ldr	r3, [r3]
 429 0012 B3F57A7F 		cmp	r3, #1000
ARM GAS  C:\Users\KJA\AppData\Local\Temp\ccAyzU2h.s 			page 11


 430 0016 08D3     		bcc	.L30
 141:state_machine.c ****         LCD_Draw(Current_State, 0);
 431              		.loc 1 141 0
 432 0018 184B     		ldr	r3, .L33+4
 433 001a 1B78     		ldrb	r3, [r3]	@ zero_extendqisi2
 434 001c 1846     		mov	r0, r3
 435 001e 0021     		movs	r1, #0
 436 0020 FFF7FEFF 		bl	LCD_Draw
 142:state_machine.c ****         Loop_Counter = 0;
 437              		.loc 1 142 0
 438 0024 144B     		ldr	r3, .L33
 439 0026 0022     		movs	r2, #0
 440 0028 1A60     		str	r2, [r3]
 441              	.L30:
 143:state_machine.c ****     }
 144:state_machine.c ****     
 145:state_machine.c ****     if((!(button1 == 0))||(!(button2 == 0))||(!(button3 == 0))||(!(button4 == 0))||
 442              		.loc 1 145 0
 443 002a 154B     		ldr	r3, .L33+8
 444 002c 1B78     		ldrb	r3, [r3]	@ zero_extendqisi2
 445 002e 002B     		cmp	r3, #0
 446 0030 18D1     		bne	.L31
 447              		.loc 1 145 0 is_stmt 0 discriminator 1
 448 0032 144B     		ldr	r3, .L33+12
 449 0034 1B78     		ldrb	r3, [r3]	@ zero_extendqisi2
 450 0036 002B     		cmp	r3, #0
 451 0038 14D1     		bne	.L31
 452              		.loc 1 145 0 discriminator 2
 453 003a 134B     		ldr	r3, .L33+16
 454 003c 1B78     		ldrb	r3, [r3]	@ zero_extendqisi2
 455 003e 002B     		cmp	r3, #0
 456 0040 10D1     		bne	.L31
 457              		.loc 1 145 0 discriminator 3
 458 0042 124B     		ldr	r3, .L33+20
 459 0044 1B78     		ldrb	r3, [r3]	@ zero_extendqisi2
 460 0046 002B     		cmp	r3, #0
 461 0048 0CD1     		bne	.L31
 146:state_machine.c ****        (!(button5 == 0))||(!(button6 == 0))||(!(Push_Reg_Read() == 0))){
 462              		.loc 1 146 0 is_stmt 1 discriminator 4
 463 004a 114B     		ldr	r3, .L33+24
 464 004c 1B78     		ldrb	r3, [r3]	@ zero_extendqisi2
 145:state_machine.c ****        (!(button5 == 0))||(!(button6 == 0))||(!(Push_Reg_Read() == 0))){
 465              		.loc 1 145 0 discriminator 4
 466 004e 002B     		cmp	r3, #0
 467 0050 08D1     		bne	.L31
 468              		.loc 1 146 0
 469 0052 104B     		ldr	r3, .L33+28
 470 0054 1B78     		ldrb	r3, [r3]	@ zero_extendqisi2
 471 0056 002B     		cmp	r3, #0
 472 0058 04D1     		bne	.L31
 473              		.loc 1 146 0 is_stmt 0 discriminator 1
 474 005a FFF7FEFF 		bl	Push_Reg_Read
 475 005e 0346     		mov	r3, r0
 476 0060 002B     		cmp	r3, #0
 477 0062 08D0     		beq	.L29
 478              	.L31:
 147:state_machine.c ****         Current_State = Previous_State;
ARM GAS  C:\Users\KJA\AppData\Local\Temp\ccAyzU2h.s 			page 12


 479              		.loc 1 147 0 is_stmt 1
 480 0064 0C4B     		ldr	r3, .L33+32
 481 0066 1A78     		ldrb	r2, [r3]	@ zero_extendqisi2
 482 0068 044B     		ldr	r3, .L33+4
 483 006a 1A70     		strb	r2, [r3]
 148:state_machine.c ****         Buzzer_Shot(Push_Buzzer__Default_Lenght);
 484              		.loc 1 148 0
 485 006c 0B4B     		ldr	r3, .L33+36
 486 006e 1B68     		ldr	r3, [r3]
 487 0070 1846     		mov	r0, r3
 488 0072 FFF7FEFF 		bl	Buzzer_Shot
 489              	.L29:
 149:state_machine.c ****     }
 150:state_machine.c **** }
 490              		.loc 1 150 0
 491 0076 80BD     		pop	{r7, pc}
 492              	.L34:
 493              		.align	2
 494              	.L33:
 495 0078 00000000 		.word	Loop_Counter
 496 007c 00000000 		.word	Current_State
 497 0080 00000000 		.word	button1
 498 0084 00000000 		.word	button2
 499 0088 00000000 		.word	button3
 500 008c 00000000 		.word	button4
 501 0090 00000000 		.word	button5
 502 0094 00000000 		.word	button6
 503 0098 00000000 		.word	Previous_State
 504 009c 00000000 		.word	Push_Buzzer__Default_Lenght
 505              		.cfi_endproc
 506              	.LFE64:
 507              		.size	State_Machine_Error_RP, .-State_Machine_Error_RP
 508              		.section	.text.State_Machine_Error_NC,"ax",%progbits
 509              		.align	2
 510              		.global	State_Machine_Error_NC
 511              		.thumb
 512              		.thumb_func
 513              		.type	State_Machine_Error_NC, %function
 514              	State_Machine_Error_NC:
 515              	.LFB65:
 151:state_machine.c **** void State_Machine_Error_NC(){
 516              		.loc 1 151 0
 517              		.cfi_startproc
 518              		@ args = 0, pretend = 0, frame = 0
 519              		@ frame_needed = 1, uses_anonymous_args = 0
 520 0000 80B5     		push	{r7, lr}
 521              		.cfi_def_cfa_offset 8
 522              		.cfi_offset 7, -8
 523              		.cfi_offset 14, -4
 524 0002 00AF     		add	r7, sp, #0
 525              		.cfi_def_cfa_register 7
 152:state_machine.c ****     
 153:state_machine.c ****     // Secondary Loop Counter
 154:state_machine.c ****     Loop_Counter++;
 526              		.loc 1 154 0
 527 0004 1C4B     		ldr	r3, .L39
 528 0006 1B68     		ldr	r3, [r3]
ARM GAS  C:\Users\KJA\AppData\Local\Temp\ccAyzU2h.s 			page 13


 529 0008 0133     		adds	r3, r3, #1
 530 000a 1B4A     		ldr	r2, .L39
 531 000c 1360     		str	r3, [r2]
 155:state_machine.c ****     if(Loop_Counter >= 1000){
 532              		.loc 1 155 0
 533 000e 1A4B     		ldr	r3, .L39
 534 0010 1B68     		ldr	r3, [r3]
 535 0012 B3F57A7F 		cmp	r3, #1000
 536 0016 08D3     		bcc	.L36
 156:state_machine.c ****         LCD_Draw(Current_State, 0);
 537              		.loc 1 156 0
 538 0018 184B     		ldr	r3, .L39+4
 539 001a 1B78     		ldrb	r3, [r3]	@ zero_extendqisi2
 540 001c 1846     		mov	r0, r3
 541 001e 0021     		movs	r1, #0
 542 0020 FFF7FEFF 		bl	LCD_Draw
 157:state_machine.c ****         Loop_Counter = 0;
 543              		.loc 1 157 0
 544 0024 144B     		ldr	r3, .L39
 545 0026 0022     		movs	r2, #0
 546 0028 1A60     		str	r2, [r3]
 547              	.L36:
 158:state_machine.c ****     }
 159:state_machine.c ****     
 160:state_machine.c ****     if((!(button1 == 0))||(!(button2 == 0))||(!(button3 == 0))||(!(button4 == 0))||
 548              		.loc 1 160 0
 549 002a 154B     		ldr	r3, .L39+8
 550 002c 1B78     		ldrb	r3, [r3]	@ zero_extendqisi2
 551 002e 002B     		cmp	r3, #0
 552 0030 18D1     		bne	.L37
 553              		.loc 1 160 0 is_stmt 0 discriminator 1
 554 0032 144B     		ldr	r3, .L39+12
 555 0034 1B78     		ldrb	r3, [r3]	@ zero_extendqisi2
 556 0036 002B     		cmp	r3, #0
 557 0038 14D1     		bne	.L37
 558              		.loc 1 160 0 discriminator 2
 559 003a 134B     		ldr	r3, .L39+16
 560 003c 1B78     		ldrb	r3, [r3]	@ zero_extendqisi2
 561 003e 002B     		cmp	r3, #0
 562 0040 10D1     		bne	.L37
 563              		.loc 1 160 0 discriminator 3
 564 0042 124B     		ldr	r3, .L39+20
 565 0044 1B78     		ldrb	r3, [r3]	@ zero_extendqisi2
 566 0046 002B     		cmp	r3, #0
 567 0048 0CD1     		bne	.L37
 161:state_machine.c ****        (!(button5 == 0))||(!(button6 == 0))||(!(Push_Reg_Read() == 0))){
 568              		.loc 1 161 0 is_stmt 1 discriminator 4
 569 004a 114B     		ldr	r3, .L39+24
 570 004c 1B78     		ldrb	r3, [r3]	@ zero_extendqisi2
 160:state_machine.c ****        (!(button5 == 0))||(!(button6 == 0))||(!(Push_Reg_Read() == 0))){
 571              		.loc 1 160 0 discriminator 4
 572 004e 002B     		cmp	r3, #0
 573 0050 08D1     		bne	.L37
 574              		.loc 1 161 0
 575 0052 104B     		ldr	r3, .L39+28
 576 0054 1B78     		ldrb	r3, [r3]	@ zero_extendqisi2
 577 0056 002B     		cmp	r3, #0
ARM GAS  C:\Users\KJA\AppData\Local\Temp\ccAyzU2h.s 			page 14


 578 0058 04D1     		bne	.L37
 579              		.loc 1 161 0 is_stmt 0 discriminator 1
 580 005a FFF7FEFF 		bl	Push_Reg_Read
 581 005e 0346     		mov	r3, r0
 582 0060 002B     		cmp	r3, #0
 583 0062 08D0     		beq	.L35
 584              	.L37:
 162:state_machine.c ****         Current_State = Previous_State;
 585              		.loc 1 162 0 is_stmt 1
 586 0064 0C4B     		ldr	r3, .L39+32
 587 0066 1A78     		ldrb	r2, [r3]	@ zero_extendqisi2
 588 0068 044B     		ldr	r3, .L39+4
 589 006a 1A70     		strb	r2, [r3]
 163:state_machine.c ****         Buzzer_Shot(Push_Buzzer__Default_Lenght);
 590              		.loc 1 163 0
 591 006c 0B4B     		ldr	r3, .L39+36
 592 006e 1B68     		ldr	r3, [r3]
 593 0070 1846     		mov	r0, r3
 594 0072 FFF7FEFF 		bl	Buzzer_Shot
 595              	.L35:
 164:state_machine.c ****     }
 165:state_machine.c **** }
 596              		.loc 1 165 0
 597 0076 80BD     		pop	{r7, pc}
 598              	.L40:
 599              		.align	2
 600              	.L39:
 601 0078 00000000 		.word	Loop_Counter
 602 007c 00000000 		.word	Current_State
 603 0080 00000000 		.word	button1
 604 0084 00000000 		.word	button2
 605 0088 00000000 		.word	button3
 606 008c 00000000 		.word	button4
 607 0090 00000000 		.word	button5
 608 0094 00000000 		.word	button6
 609 0098 00000000 		.word	Previous_State
 610 009c 00000000 		.word	Push_Buzzer__Default_Lenght
 611              		.cfi_endproc
 612              	.LFE65:
 613              		.size	State_Machine_Error_NC, .-State_Machine_Error_NC
 614              		.section	.text.State_Machine_Error_OC,"ax",%progbits
 615              		.align	2
 616              		.global	State_Machine_Error_OC
 617              		.thumb
 618              		.thumb_func
 619              		.type	State_Machine_Error_OC, %function
 620              	State_Machine_Error_OC:
 621              	.LFB66:
 166:state_machine.c **** void State_Machine_Error_OC(){
 622              		.loc 1 166 0
 623              		.cfi_startproc
 624              		@ args = 0, pretend = 0, frame = 0
 625              		@ frame_needed = 1, uses_anonymous_args = 0
 626 0000 80B5     		push	{r7, lr}
 627              		.cfi_def_cfa_offset 8
 628              		.cfi_offset 7, -8
 629              		.cfi_offset 14, -4
ARM GAS  C:\Users\KJA\AppData\Local\Temp\ccAyzU2h.s 			page 15


 630 0002 00AF     		add	r7, sp, #0
 631              		.cfi_def_cfa_register 7
 167:state_machine.c ****     
 168:state_machine.c ****     // Secondary Loop Counter
 169:state_machine.c ****     Loop_Counter++;
 632              		.loc 1 169 0
 633 0004 1C4B     		ldr	r3, .L45
 634 0006 1B68     		ldr	r3, [r3]
 635 0008 0133     		adds	r3, r3, #1
 636 000a 1B4A     		ldr	r2, .L45
 637 000c 1360     		str	r3, [r2]
 170:state_machine.c ****     if(Loop_Counter >= 1000){
 638              		.loc 1 170 0
 639 000e 1A4B     		ldr	r3, .L45
 640 0010 1B68     		ldr	r3, [r3]
 641 0012 B3F57A7F 		cmp	r3, #1000
 642 0016 08D3     		bcc	.L42
 171:state_machine.c ****         LCD_Draw(Current_State, 0);
 643              		.loc 1 171 0
 644 0018 184B     		ldr	r3, .L45+4
 645 001a 1B78     		ldrb	r3, [r3]	@ zero_extendqisi2
 646 001c 1846     		mov	r0, r3
 647 001e 0021     		movs	r1, #0
 648 0020 FFF7FEFF 		bl	LCD_Draw
 172:state_machine.c ****         Loop_Counter = 0;
 649              		.loc 1 172 0
 650 0024 144B     		ldr	r3, .L45
 651 0026 0022     		movs	r2, #0
 652 0028 1A60     		str	r2, [r3]
 653              	.L42:
 173:state_machine.c ****     }
 174:state_machine.c ****     
 175:state_machine.c ****     if((!(button1 == 0))||(!(button2 == 0))||(!(button3 == 0))||(!(button4 == 0))||
 654              		.loc 1 175 0
 655 002a 154B     		ldr	r3, .L45+8
 656 002c 1B78     		ldrb	r3, [r3]	@ zero_extendqisi2
 657 002e 002B     		cmp	r3, #0
 658 0030 18D1     		bne	.L43
 659              		.loc 1 175 0 is_stmt 0 discriminator 1
 660 0032 144B     		ldr	r3, .L45+12
 661 0034 1B78     		ldrb	r3, [r3]	@ zero_extendqisi2
 662 0036 002B     		cmp	r3, #0
 663 0038 14D1     		bne	.L43
 664              		.loc 1 175 0 discriminator 2
 665 003a 134B     		ldr	r3, .L45+16
 666 003c 1B78     		ldrb	r3, [r3]	@ zero_extendqisi2
 667 003e 002B     		cmp	r3, #0
 668 0040 10D1     		bne	.L43
 669              		.loc 1 175 0 discriminator 3
 670 0042 124B     		ldr	r3, .L45+20
 671 0044 1B78     		ldrb	r3, [r3]	@ zero_extendqisi2
 672 0046 002B     		cmp	r3, #0
 673 0048 0CD1     		bne	.L43
 176:state_machine.c ****        (!(button5 == 0))||(!(button6 == 0))||(!(Push_Reg_Read() == 0))){
 674              		.loc 1 176 0 is_stmt 1 discriminator 4
 675 004a 114B     		ldr	r3, .L45+24
 676 004c 1B78     		ldrb	r3, [r3]	@ zero_extendqisi2
ARM GAS  C:\Users\KJA\AppData\Local\Temp\ccAyzU2h.s 			page 16


 175:state_machine.c ****        (!(button5 == 0))||(!(button6 == 0))||(!(Push_Reg_Read() == 0))){
 677              		.loc 1 175 0 discriminator 4
 678 004e 002B     		cmp	r3, #0
 679 0050 08D1     		bne	.L43
 680              		.loc 1 176 0
 681 0052 104B     		ldr	r3, .L45+28
 682 0054 1B78     		ldrb	r3, [r3]	@ zero_extendqisi2
 683 0056 002B     		cmp	r3, #0
 684 0058 04D1     		bne	.L43
 685              		.loc 1 176 0 is_stmt 0 discriminator 1
 686 005a FFF7FEFF 		bl	Push_Reg_Read
 687 005e 0346     		mov	r3, r0
 688 0060 002B     		cmp	r3, #0
 689 0062 08D0     		beq	.L41
 690              	.L43:
 177:state_machine.c ****         Current_State = Previous_State;
 691              		.loc 1 177 0 is_stmt 1
 692 0064 0C4B     		ldr	r3, .L45+32
 693 0066 1A78     		ldrb	r2, [r3]	@ zero_extendqisi2
 694 0068 044B     		ldr	r3, .L45+4
 695 006a 1A70     		strb	r2, [r3]
 178:state_machine.c ****         Buzzer_Shot(Push_Buzzer__Default_Lenght);
 696              		.loc 1 178 0
 697 006c 0B4B     		ldr	r3, .L45+36
 698 006e 1B68     		ldr	r3, [r3]
 699 0070 1846     		mov	r0, r3
 700 0072 FFF7FEFF 		bl	Buzzer_Shot
 701              	.L41:
 179:state_machine.c ****     }
 180:state_machine.c **** }
 702              		.loc 1 180 0
 703 0076 80BD     		pop	{r7, pc}
 704              	.L46:
 705              		.align	2
 706              	.L45:
 707 0078 00000000 		.word	Loop_Counter
 708 007c 00000000 		.word	Current_State
 709 0080 00000000 		.word	button1
 710 0084 00000000 		.word	button2
 711 0088 00000000 		.word	button3
 712 008c 00000000 		.word	button4
 713 0090 00000000 		.word	button5
 714 0094 00000000 		.word	button6
 715 0098 00000000 		.word	Previous_State
 716 009c 00000000 		.word	Push_Buzzer__Default_Lenght
 717              		.cfi_endproc
 718              	.LFE66:
 719              		.size	State_Machine_Error_OC, .-State_Machine_Error_OC
 720              		.section	.text.State_Machine_Error_OT,"ax",%progbits
 721              		.align	2
 722              		.global	State_Machine_Error_OT
 723              		.thumb
 724              		.thumb_func
 725              		.type	State_Machine_Error_OT, %function
 726              	State_Machine_Error_OT:
 727              	.LFB67:
 181:state_machine.c **** void State_Machine_Error_OT(){
ARM GAS  C:\Users\KJA\AppData\Local\Temp\ccAyzU2h.s 			page 17


 728              		.loc 1 181 0
 729              		.cfi_startproc
 730              		@ args = 0, pretend = 0, frame = 0
 731              		@ frame_needed = 1, uses_anonymous_args = 0
 732 0000 80B5     		push	{r7, lr}
 733              		.cfi_def_cfa_offset 8
 734              		.cfi_offset 7, -8
 735              		.cfi_offset 14, -4
 736 0002 00AF     		add	r7, sp, #0
 737              		.cfi_def_cfa_register 7
 182:state_machine.c ****     
 183:state_machine.c ****     OutputEnable = 0;
 738              		.loc 1 183 0
 739 0004 1E4B     		ldr	r3, .L51
 740 0006 0022     		movs	r2, #0
 741 0008 1A70     		strb	r2, [r3]
 184:state_machine.c ****     
 185:state_machine.c ****     // Secondary Loop Counter
 186:state_machine.c ****     Loop_Counter++;
 742              		.loc 1 186 0
 743 000a 1E4B     		ldr	r3, .L51+4
 744 000c 1B68     		ldr	r3, [r3]
 745 000e 0133     		adds	r3, r3, #1
 746 0010 1C4A     		ldr	r2, .L51+4
 747 0012 1360     		str	r3, [r2]
 187:state_machine.c ****     if(Loop_Counter >= 1000){
 748              		.loc 1 187 0
 749 0014 1B4B     		ldr	r3, .L51+4
 750 0016 1B68     		ldr	r3, [r3]
 751 0018 B3F57A7F 		cmp	r3, #1000
 752 001c 08D3     		bcc	.L48
 188:state_machine.c ****         LCD_Draw(Current_State, 0);
 753              		.loc 1 188 0
 754 001e 1A4B     		ldr	r3, .L51+8
 755 0020 1B78     		ldrb	r3, [r3]	@ zero_extendqisi2
 756 0022 1846     		mov	r0, r3
 757 0024 0021     		movs	r1, #0
 758 0026 FFF7FEFF 		bl	LCD_Draw
 189:state_machine.c ****         Loop_Counter = 0;
 759              		.loc 1 189 0
 760 002a 164B     		ldr	r3, .L51+4
 761 002c 0022     		movs	r2, #0
 762 002e 1A60     		str	r2, [r3]
 763              	.L48:
 190:state_machine.c ****     }
 191:state_machine.c ****     
 192:state_machine.c ****     if((!(button1 == 0))||(!(button2 == 0))||(!(button3 == 0))||(!(button4 == 0))||
 764              		.loc 1 192 0
 765 0030 164B     		ldr	r3, .L51+12
 766 0032 1B78     		ldrb	r3, [r3]	@ zero_extendqisi2
 767 0034 002B     		cmp	r3, #0
 768 0036 18D1     		bne	.L49
 769              		.loc 1 192 0 is_stmt 0 discriminator 1
 770 0038 154B     		ldr	r3, .L51+16
 771 003a 1B78     		ldrb	r3, [r3]	@ zero_extendqisi2
 772 003c 002B     		cmp	r3, #0
 773 003e 14D1     		bne	.L49
ARM GAS  C:\Users\KJA\AppData\Local\Temp\ccAyzU2h.s 			page 18


 774              		.loc 1 192 0 discriminator 2
 775 0040 144B     		ldr	r3, .L51+20
 776 0042 1B78     		ldrb	r3, [r3]	@ zero_extendqisi2
 777 0044 002B     		cmp	r3, #0
 778 0046 10D1     		bne	.L49
 779              		.loc 1 192 0 discriminator 3
 780 0048 134B     		ldr	r3, .L51+24
 781 004a 1B78     		ldrb	r3, [r3]	@ zero_extendqisi2
 782 004c 002B     		cmp	r3, #0
 783 004e 0CD1     		bne	.L49
 193:state_machine.c ****        (!(button5 == 0))||(!(button6 == 0))||(!(Push_Reg_Read() == 0))){
 784              		.loc 1 193 0 is_stmt 1 discriminator 4
 785 0050 124B     		ldr	r3, .L51+28
 786 0052 1B78     		ldrb	r3, [r3]	@ zero_extendqisi2
 192:state_machine.c ****        (!(button5 == 0))||(!(button6 == 0))||(!(Push_Reg_Read() == 0))){
 787              		.loc 1 192 0 discriminator 4
 788 0054 002B     		cmp	r3, #0
 789 0056 08D1     		bne	.L49
 790              		.loc 1 193 0
 791 0058 114B     		ldr	r3, .L51+32
 792 005a 1B78     		ldrb	r3, [r3]	@ zero_extendqisi2
 793 005c 002B     		cmp	r3, #0
 794 005e 04D1     		bne	.L49
 795              		.loc 1 193 0 is_stmt 0 discriminator 1
 796 0060 FFF7FEFF 		bl	Push_Reg_Read
 797 0064 0346     		mov	r3, r0
 798 0066 002B     		cmp	r3, #0
 799 0068 08D0     		beq	.L47
 800              	.L49:
 194:state_machine.c ****         Current_State = Previous_State;
 801              		.loc 1 194 0 is_stmt 1
 802 006a 0E4B     		ldr	r3, .L51+36
 803 006c 1A78     		ldrb	r2, [r3]	@ zero_extendqisi2
 804 006e 064B     		ldr	r3, .L51+8
 805 0070 1A70     		strb	r2, [r3]
 195:state_machine.c ****         Buzzer_Shot(Push_Buzzer__Default_Lenght);
 806              		.loc 1 195 0
 807 0072 0D4B     		ldr	r3, .L51+40
 808 0074 1B68     		ldr	r3, [r3]
 809 0076 1846     		mov	r0, r3
 810 0078 FFF7FEFF 		bl	Buzzer_Shot
 811              	.L47:
 196:state_machine.c ****     }
 197:state_machine.c **** }
 812              		.loc 1 197 0
 813 007c 80BD     		pop	{r7, pc}
 814              	.L52:
 815 007e 00BF     		.align	2
 816              	.L51:
 817 0080 00000000 		.word	OutputEnable
 818 0084 00000000 		.word	Loop_Counter
 819 0088 00000000 		.word	Current_State
 820 008c 00000000 		.word	button1
 821 0090 00000000 		.word	button2
 822 0094 00000000 		.word	button3
 823 0098 00000000 		.word	button4
 824 009c 00000000 		.word	button5
ARM GAS  C:\Users\KJA\AppData\Local\Temp\ccAyzU2h.s 			page 19


 825 00a0 00000000 		.word	button6
 826 00a4 00000000 		.word	Previous_State
 827 00a8 00000000 		.word	Push_Buzzer__Default_Lenght
 828              		.cfi_endproc
 829              	.LFE67:
 830              		.size	State_Machine_Error_OT, .-State_Machine_Error_OT
 831              		.section	.text.State_Machine_Error_OV,"ax",%progbits
 832              		.align	2
 833              		.global	State_Machine_Error_OV
 834              		.thumb
 835              		.thumb_func
 836              		.type	State_Machine_Error_OV, %function
 837              	State_Machine_Error_OV:
 838              	.LFB68:
 198:state_machine.c **** void State_Machine_Error_OV(){
 839              		.loc 1 198 0
 840              		.cfi_startproc
 841              		@ args = 0, pretend = 0, frame = 0
 842              		@ frame_needed = 1, uses_anonymous_args = 0
 843 0000 80B5     		push	{r7, lr}
 844              		.cfi_def_cfa_offset 8
 845              		.cfi_offset 7, -8
 846              		.cfi_offset 14, -4
 847 0002 00AF     		add	r7, sp, #0
 848              		.cfi_def_cfa_register 7
 199:state_machine.c ****     
 200:state_machine.c ****     // Secondary Loop Counter
 201:state_machine.c ****     Loop_Counter++;
 849              		.loc 1 201 0
 850 0004 1C4B     		ldr	r3, .L57
 851 0006 1B68     		ldr	r3, [r3]
 852 0008 0133     		adds	r3, r3, #1
 853 000a 1B4A     		ldr	r2, .L57
 854 000c 1360     		str	r3, [r2]
 202:state_machine.c ****     if(Loop_Counter >= 1000){
 855              		.loc 1 202 0
 856 000e 1A4B     		ldr	r3, .L57
 857 0010 1B68     		ldr	r3, [r3]
 858 0012 B3F57A7F 		cmp	r3, #1000
 859 0016 08D3     		bcc	.L54
 203:state_machine.c ****         LCD_Draw(Current_State, 0);
 860              		.loc 1 203 0
 861 0018 184B     		ldr	r3, .L57+4
 862 001a 1B78     		ldrb	r3, [r3]	@ zero_extendqisi2
 863 001c 1846     		mov	r0, r3
 864 001e 0021     		movs	r1, #0
 865 0020 FFF7FEFF 		bl	LCD_Draw
 204:state_machine.c ****         Loop_Counter = 0;
 866              		.loc 1 204 0
 867 0024 144B     		ldr	r3, .L57
 868 0026 0022     		movs	r2, #0
 869 0028 1A60     		str	r2, [r3]
 870              	.L54:
 205:state_machine.c ****     }
 206:state_machine.c ****     
 207:state_machine.c ****     if((!(button1 == 0))||(!(button2 == 0))||(!(button3 == 0))||(!(button4 == 0))||
 871              		.loc 1 207 0
ARM GAS  C:\Users\KJA\AppData\Local\Temp\ccAyzU2h.s 			page 20


 872 002a 154B     		ldr	r3, .L57+8
 873 002c 1B78     		ldrb	r3, [r3]	@ zero_extendqisi2
 874 002e 002B     		cmp	r3, #0
 875 0030 18D1     		bne	.L55
 876              		.loc 1 207 0 is_stmt 0 discriminator 1
 877 0032 144B     		ldr	r3, .L57+12
 878 0034 1B78     		ldrb	r3, [r3]	@ zero_extendqisi2
 879 0036 002B     		cmp	r3, #0
 880 0038 14D1     		bne	.L55
 881              		.loc 1 207 0 discriminator 2
 882 003a 134B     		ldr	r3, .L57+16
 883 003c 1B78     		ldrb	r3, [r3]	@ zero_extendqisi2
 884 003e 002B     		cmp	r3, #0
 885 0040 10D1     		bne	.L55
 886              		.loc 1 207 0 discriminator 3
 887 0042 124B     		ldr	r3, .L57+20
 888 0044 1B78     		ldrb	r3, [r3]	@ zero_extendqisi2
 889 0046 002B     		cmp	r3, #0
 890 0048 0CD1     		bne	.L55
 208:state_machine.c ****        (!(button5 == 0))||(!(button6 == 0))||(!(Push_Reg_Read() == 0))){
 891              		.loc 1 208 0 is_stmt 1 discriminator 4
 892 004a 114B     		ldr	r3, .L57+24
 893 004c 1B78     		ldrb	r3, [r3]	@ zero_extendqisi2
 207:state_machine.c ****        (!(button5 == 0))||(!(button6 == 0))||(!(Push_Reg_Read() == 0))){
 894              		.loc 1 207 0 discriminator 4
 895 004e 002B     		cmp	r3, #0
 896 0050 08D1     		bne	.L55
 897              		.loc 1 208 0
 898 0052 104B     		ldr	r3, .L57+28
 899 0054 1B78     		ldrb	r3, [r3]	@ zero_extendqisi2
 900 0056 002B     		cmp	r3, #0
 901 0058 04D1     		bne	.L55
 902              		.loc 1 208 0 is_stmt 0 discriminator 1
 903 005a FFF7FEFF 		bl	Push_Reg_Read
 904 005e 0346     		mov	r3, r0
 905 0060 002B     		cmp	r3, #0
 906 0062 08D0     		beq	.L53
 907              	.L55:
 209:state_machine.c ****         Current_State = Previous_State;
 908              		.loc 1 209 0 is_stmt 1
 909 0064 0C4B     		ldr	r3, .L57+32
 910 0066 1A78     		ldrb	r2, [r3]	@ zero_extendqisi2
 911 0068 044B     		ldr	r3, .L57+4
 912 006a 1A70     		strb	r2, [r3]
 210:state_machine.c ****         Buzzer_Shot(Push_Buzzer__Default_Lenght);
 913              		.loc 1 210 0
 914 006c 0B4B     		ldr	r3, .L57+36
 915 006e 1B68     		ldr	r3, [r3]
 916 0070 1846     		mov	r0, r3
 917 0072 FFF7FEFF 		bl	Buzzer_Shot
 918              	.L53:
 211:state_machine.c ****     }
 212:state_machine.c **** }
 919              		.loc 1 212 0
 920 0076 80BD     		pop	{r7, pc}
 921              	.L58:
 922              		.align	2
ARM GAS  C:\Users\KJA\AppData\Local\Temp\ccAyzU2h.s 			page 21


 923              	.L57:
 924 0078 00000000 		.word	Loop_Counter
 925 007c 00000000 		.word	Current_State
 926 0080 00000000 		.word	button1
 927 0084 00000000 		.word	button2
 928 0088 00000000 		.word	button3
 929 008c 00000000 		.word	button4
 930 0090 00000000 		.word	button5
 931 0094 00000000 		.word	button6
 932 0098 00000000 		.word	Previous_State
 933 009c 00000000 		.word	Push_Buzzer__Default_Lenght
 934              		.cfi_endproc
 935              	.LFE68:
 936              		.size	State_Machine_Error_OV, .-State_Machine_Error_OV
 937              		.section	.text.State_Machine_Home,"ax",%progbits
 938              		.align	2
 939              		.global	State_Machine_Home
 940              		.thumb
 941              		.thumb_func
 942              		.type	State_Machine_Home, %function
 943              	State_Machine_Home:
 944              	.LFB69:
 213:state_machine.c **** 
 214:state_machine.c **** void State_Machine_Home(){  
 945              		.loc 1 214 0
 946              		.cfi_startproc
 947              		@ args = 0, pretend = 0, frame = 0
 948              		@ frame_needed = 1, uses_anonymous_args = 0
 949 0000 98B5     		push	{r3, r4, r7, lr}
 950              		.cfi_def_cfa_offset 16
 951              		.cfi_offset 3, -16
 952              		.cfi_offset 4, -12
 953              		.cfi_offset 7, -8
 954              		.cfi_offset 14, -4
 955 0002 00AF     		add	r7, sp, #0
 956              		.cfi_def_cfa_register 7
 215:state_machine.c ****     
 216:state_machine.c ****     // Secondary Loop Counter
 217:state_machine.c ****     Loop_Counter++;
 957              		.loc 1 217 0
 958 0004 2B4B     		ldr	r3, .L64
 959 0006 1B68     		ldr	r3, [r3]
 960 0008 0133     		adds	r3, r3, #1
 961 000a 2A4A     		ldr	r2, .L64
 962 000c 1360     		str	r3, [r2]
 218:state_machine.c ****     if(Loop_Counter >= 1000){
 963              		.loc 1 218 0
 964 000e 294B     		ldr	r3, .L64
 965 0010 1B68     		ldr	r3, [r3]
 966 0012 B3F57A7F 		cmp	r3, #1000
 967 0016 0ED3     		bcc	.L60
 219:state_machine.c ****         LCD_Draw(Current_State, Get_Encoder_Menu(0,3));
 968              		.loc 1 219 0
 969 0018 274B     		ldr	r3, .L64+4
 970 001a 1C78     		ldrb	r4, [r3]	@ zero_extendqisi2
 971 001c 0020     		movs	r0, #0
 972 001e 0321     		movs	r1, #3
ARM GAS  C:\Users\KJA\AppData\Local\Temp\ccAyzU2h.s 			page 22


 973 0020 FFF7FEFF 		bl	Get_Encoder_Menu
 974 0024 0346     		mov	r3, r0
 975 0026 DBB2     		uxtb	r3, r3
 976 0028 2046     		mov	r0, r4
 977 002a 1946     		mov	r1, r3
 978 002c FFF7FEFF 		bl	LCD_Draw
 220:state_machine.c ****         Loop_Counter = 0;
 979              		.loc 1 220 0
 980 0030 204B     		ldr	r3, .L64
 981 0032 0022     		movs	r2, #0
 982 0034 1A60     		str	r2, [r3]
 983              	.L60:
 221:state_machine.c ****     }
 222:state_machine.c ****     
 223:state_machine.c ****     if(!(Push_Reg_Read() == 0)){
 984              		.loc 1 223 0
 985 0036 FFF7FEFF 		bl	Push_Reg_Read
 986 003a 0346     		mov	r3, r0
 987 003c 002B     		cmp	r3, #0
 988 003e 37D0     		beq	.L59
 224:state_machine.c ****         if(Get_Encoder_Menu(0,3) == 3){
 989              		.loc 1 224 0
 990 0040 0020     		movs	r0, #0
 991 0042 0321     		movs	r1, #3
 992 0044 FFF7FEFF 		bl	Get_Encoder_Menu
 993 0048 0346     		mov	r3, r0
 994 004a 032B     		cmp	r3, #3
 995 004c 0BD1     		bne	.L62
 225:state_machine.c ****             QD_SetCounter(3);
 996              		.loc 1 225 0
 997 004e 0320     		movs	r0, #3
 998 0050 FFF7FEFF 		bl	QD_SetCounter
 226:state_machine.c ****             Current_State = ConstantMode;
 999              		.loc 1 226 0
 1000 0054 184B     		ldr	r3, .L64+4
 1001 0056 0222     		movs	r2, #2
 1002 0058 1A70     		strb	r2, [r3]
 227:state_machine.c ****             Buzzer_Shot(Push_Buzzer__Default_Lenght);
 1003              		.loc 1 227 0
 1004 005a 184B     		ldr	r3, .L64+8
 1005 005c 1B68     		ldr	r3, [r3]
 1006 005e 1846     		mov	r0, r3
 1007 0060 FFF7FEFF 		bl	Buzzer_Shot
 1008 0064 24E0     		b	.L59
 1009              	.L62:
 228:state_machine.c ****         }
 229:state_machine.c ****         else if(Get_Encoder_Menu(0,3) == 2){
 1010              		.loc 1 229 0
 1011 0066 0020     		movs	r0, #0
 1012 0068 0321     		movs	r1, #3
 1013 006a FFF7FEFF 		bl	Get_Encoder_Menu
 1014 006e 0346     		mov	r3, r0
 1015 0070 022B     		cmp	r3, #2
 1016 0072 0BD1     		bne	.L63
 230:state_machine.c ****             QD_SetCounter(3);
 1017              		.loc 1 230 0
 1018 0074 0320     		movs	r0, #3
ARM GAS  C:\Users\KJA\AppData\Local\Temp\ccAyzU2h.s 			page 23


 1019 0076 FFF7FEFF 		bl	QD_SetCounter
 231:state_machine.c ****             Current_State = ArbitraryMode;
 1020              		.loc 1 231 0
 1021 007a 0F4B     		ldr	r3, .L64+4
 1022 007c 0322     		movs	r2, #3
 1023 007e 1A70     		strb	r2, [r3]
 232:state_machine.c ****             Buzzer_Shot(Push_Buzzer__Default_Lenght);
 1024              		.loc 1 232 0
 1025 0080 0E4B     		ldr	r3, .L64+8
 1026 0082 1B68     		ldr	r3, [r3]
 1027 0084 1846     		mov	r0, r3
 1028 0086 FFF7FEFF 		bl	Buzzer_Shot
 1029 008a 11E0     		b	.L59
 1030              	.L63:
 233:state_machine.c ****         }
 234:state_machine.c ****         else if(Get_Encoder_Menu(0,3) == 0){   
 1031              		.loc 1 234 0
 1032 008c 0020     		movs	r0, #0
 1033 008e 0321     		movs	r1, #3
 1034 0090 FFF7FEFF 		bl	Get_Encoder_Menu
 1035 0094 0346     		mov	r3, r0
 1036 0096 002B     		cmp	r3, #0
 1037 0098 0AD1     		bne	.L59
 235:state_machine.c ****             QD_SetCounter(3);
 1038              		.loc 1 235 0
 1039 009a 0320     		movs	r0, #3
 1040 009c FFF7FEFF 		bl	QD_SetCounter
 236:state_machine.c ****             Current_State = Settings;
 1041              		.loc 1 236 0
 1042 00a0 054B     		ldr	r3, .L64+4
 1043 00a2 0522     		movs	r2, #5
 1044 00a4 1A70     		strb	r2, [r3]
 237:state_machine.c ****             Buzzer_Shot(Push_Buzzer__Default_Lenght);
 1045              		.loc 1 237 0
 1046 00a6 054B     		ldr	r3, .L64+8
 1047 00a8 1B68     		ldr	r3, [r3]
 1048 00aa 1846     		mov	r0, r3
 1049 00ac FFF7FEFF 		bl	Buzzer_Shot
 1050              	.L59:
 238:state_machine.c ****         }  
 239:state_machine.c ****     }
 240:state_machine.c **** }
 1051              		.loc 1 240 0
 1052 00b0 98BD     		pop	{r3, r4, r7, pc}
 1053              	.L65:
 1054 00b2 00BF     		.align	2
 1055              	.L64:
 1056 00b4 00000000 		.word	Loop_Counter
 1057 00b8 00000000 		.word	Current_State
 1058 00bc 00000000 		.word	Push_Buzzer__Default_Lenght
 1059              		.cfi_endproc
 1060              	.LFE69:
 1061              		.size	State_Machine_Home, .-State_Machine_Home
 1062              		.section	.text.State_Machine_ConstantMode,"ax",%progbits
 1063              		.align	2
 1064              		.global	State_Machine_ConstantMode
 1065              		.thumb
ARM GAS  C:\Users\KJA\AppData\Local\Temp\ccAyzU2h.s 			page 24


 1066              		.thumb_func
 1067              		.type	State_Machine_ConstantMode, %function
 1068              	State_Machine_ConstantMode:
 1069              	.LFB70:
 241:state_machine.c **** 
 242:state_machine.c **** void State_Machine_ConstantMode(){
 1070              		.loc 1 242 0
 1071              		.cfi_startproc
 1072              		@ args = 0, pretend = 0, frame = 0
 1073              		@ frame_needed = 1, uses_anonymous_args = 0
 1074 0000 98B5     		push	{r3, r4, r7, lr}
 1075              		.cfi_def_cfa_offset 16
 1076              		.cfi_offset 3, -16
 1077              		.cfi_offset 4, -12
 1078              		.cfi_offset 7, -8
 1079              		.cfi_offset 14, -4
 1080 0002 00AF     		add	r7, sp, #0
 1081              		.cfi_def_cfa_register 7
 243:state_machine.c ****     // Disable Output and Relay
 244:state_machine.c ****     OutputEnable = 0;
 1082              		.loc 1 244 0
 1083 0004 4D4B     		ldr	r3, .L73
 1084 0006 0022     		movs	r2, #0
 1085 0008 1A70     		strb	r2, [r3]
 245:state_machine.c ****     RELAY_Write(0);
 1086              		.loc 1 245 0
 1087 000a 0020     		movs	r0, #0
 1088 000c FFF7FEFF 		bl	RELAY_Write
 246:state_machine.c ****     
 247:state_machine.c ****     // Secondary Loop Counter
 248:state_machine.c ****     Loop_Counter++;
 1089              		.loc 1 248 0
 1090 0010 4B4B     		ldr	r3, .L73+4
 1091 0012 1B68     		ldr	r3, [r3]
 1092 0014 0133     		adds	r3, r3, #1
 1093 0016 4A4A     		ldr	r2, .L73+4
 1094 0018 1360     		str	r3, [r2]
 249:state_machine.c ****     if(Loop_Counter >= 1000){
 1095              		.loc 1 249 0
 1096 001a 494B     		ldr	r3, .L73+4
 1097 001c 1B68     		ldr	r3, [r3]
 1098 001e B3F57A7F 		cmp	r3, #1000
 1099 0022 0ED3     		bcc	.L67
 250:state_machine.c ****         LCD_Draw(Current_State, Get_Encoder_Menu(0,3));
 1100              		.loc 1 250 0
 1101 0024 474B     		ldr	r3, .L73+8
 1102 0026 1C78     		ldrb	r4, [r3]	@ zero_extendqisi2
 1103 0028 0020     		movs	r0, #0
 1104 002a 0321     		movs	r1, #3
 1105 002c FFF7FEFF 		bl	Get_Encoder_Menu
 1106 0030 0346     		mov	r3, r0
 1107 0032 DBB2     		uxtb	r3, r3
 1108 0034 2046     		mov	r0, r4
 1109 0036 1946     		mov	r1, r3
 1110 0038 FFF7FEFF 		bl	LCD_Draw
 251:state_machine.c ****         Loop_Counter = 0;
 1111              		.loc 1 251 0
ARM GAS  C:\Users\KJA\AppData\Local\Temp\ccAyzU2h.s 			page 25


 1112 003c 404B     		ldr	r3, .L73+4
 1113 003e 0022     		movs	r2, #0
 1114 0040 1A60     		str	r2, [r3]
 1115              	.L67:
 252:state_machine.c ****     }
 253:state_machine.c ****     
 254:state_machine.c ****     if(!(Push_Reg_Read() == 0)){
 1116              		.loc 1 254 0
 1117 0042 FFF7FEFF 		bl	Push_Reg_Read
 1118 0046 0346     		mov	r3, r0
 1119 0048 002B     		cmp	r3, #0
 1120 004a 67D0     		beq	.L68
 255:state_machine.c ****         if(Get_Encoder_Menu(2,3) == 3){
 1121              		.loc 1 255 0
 1122 004c 0220     		movs	r0, #2
 1123 004e 0321     		movs	r1, #3
 1124 0050 FFF7FEFF 		bl	Get_Encoder_Menu
 1125 0054 0346     		mov	r3, r0
 1126 0056 032B     		cmp	r3, #3
 1127 0058 16D1     		bne	.L69
 256:state_machine.c ****             QD_SetCounter(3);
 1128              		.loc 1 256 0
 1129 005a 0320     		movs	r0, #3
 1130 005c FFF7FEFF 		bl	QD_SetCounter
 257:state_machine.c ****             Current_State = ConstantCurrent;
 1131              		.loc 1 257 0
 1132 0060 384B     		ldr	r3, .L73+8
 1133 0062 0422     		movs	r2, #4
 1134 0064 1A70     		strb	r2, [r3]
 258:state_machine.c ****             Set_Current = 0.50;   // Initial Value
 1135              		.loc 1 258 0
 1136 0066 384B     		ldr	r3, .L73+12
 1137 0068 4FF07C52 		mov	r2, #1056964608
 1138 006c 1A60     		str	r2, [r3]	@ float
 259:state_machine.c ****             Set_Current_Temporary_Value = 0.50;
 1139              		.loc 1 259 0
 1140 006e 374B     		ldr	r3, .L73+16
 1141 0070 4FF07C52 		mov	r2, #1056964608
 1142 0074 1A60     		str	r2, [r3]	@ float
 260:state_machine.c ****             Position_Number = 1;
 1143              		.loc 1 260 0
 1144 0076 364B     		ldr	r3, .L73+20
 1145 0078 0122     		movs	r2, #1
 1146 007a 1A70     		strb	r2, [r3]
 261:state_machine.c ****             Buzzer_Shot(Push_Buzzer__Default_Lenght);
 1147              		.loc 1 261 0
 1148 007c 354B     		ldr	r3, .L73+24
 1149 007e 1B68     		ldr	r3, [r3]
 1150 0080 1846     		mov	r0, r3
 1151 0082 FFF7FEFF 		bl	Buzzer_Shot
 1152 0086 49E0     		b	.L68
 1153              	.L69:
 262:state_machine.c ****         }
 263:state_machine.c ****         else if(Get_Encoder_Menu(0,3) == 2){
 1154              		.loc 1 263 0
 1155 0088 0020     		movs	r0, #0
 1156 008a 0321     		movs	r1, #3
ARM GAS  C:\Users\KJA\AppData\Local\Temp\ccAyzU2h.s 			page 26


 1157 008c FFF7FEFF 		bl	Get_Encoder_Menu
 1158 0090 0346     		mov	r3, r0
 1159 0092 022B     		cmp	r3, #2
 1160 0094 14D1     		bne	.L70
 264:state_machine.c ****             QD_SetCounter(3);
 1161              		.loc 1 264 0
 1162 0096 0320     		movs	r0, #3
 1163 0098 FFF7FEFF 		bl	QD_SetCounter
 265:state_machine.c ****             Current_State = ConstantPower;
 1164              		.loc 1 265 0
 1165 009c 294B     		ldr	r3, .L73+8
 1166 009e 0922     		movs	r2, #9
 1167 00a0 1A70     		strb	r2, [r3]
 266:state_machine.c ****             Set_Power = 10.50;   // Initial Value
 1168              		.loc 1 266 0
 1169 00a2 2D4B     		ldr	r3, .L73+28
 1170 00a4 2D4A     		ldr	r2, .L73+32
 1171 00a6 1A60     		str	r2, [r3]	@ float
 267:state_machine.c ****             Set_Power_Temporary_Value = 10.50;
 1172              		.loc 1 267 0
 1173 00a8 2D4B     		ldr	r3, .L73+36
 1174 00aa 2C4A     		ldr	r2, .L73+32
 1175 00ac 1A60     		str	r2, [r3]	@ float
 268:state_machine.c ****             Position_Number = 1;
 1176              		.loc 1 268 0
 1177 00ae 284B     		ldr	r3, .L73+20
 1178 00b0 0122     		movs	r2, #1
 1179 00b2 1A70     		strb	r2, [r3]
 269:state_machine.c ****             Buzzer_Shot(Push_Buzzer__Default_Lenght);
 1180              		.loc 1 269 0
 1181 00b4 274B     		ldr	r3, .L73+24
 1182 00b6 1B68     		ldr	r3, [r3]
 1183 00b8 1846     		mov	r0, r3
 1184 00ba FFF7FEFF 		bl	Buzzer_Shot
 1185 00be 2DE0     		b	.L68
 1186              	.L70:
 270:state_machine.c ****         }
 271:state_machine.c ****         else if(Get_Encoder_Menu(0,3) == 1){
 1187              		.loc 1 271 0
 1188 00c0 0020     		movs	r0, #0
 1189 00c2 0321     		movs	r1, #3
 1190 00c4 FFF7FEFF 		bl	Get_Encoder_Menu
 1191 00c8 0346     		mov	r3, r0
 1192 00ca 012B     		cmp	r3, #1
 1193 00cc 14D1     		bne	.L71
 272:state_machine.c ****             QD_SetCounter(3);
 1194              		.loc 1 272 0
 1195 00ce 0320     		movs	r0, #3
 1196 00d0 FFF7FEFF 		bl	QD_SetCounter
 273:state_machine.c ****             Current_State = ConstantResistance;
 1197              		.loc 1 273 0
 1198 00d4 1B4B     		ldr	r3, .L73+8
 1199 00d6 0A22     		movs	r2, #10
 1200 00d8 1A70     		strb	r2, [r3]
 274:state_machine.c ****             Set_Resist = 25.0;   // Initial Value
 1201              		.loc 1 274 0
 1202 00da 224B     		ldr	r3, .L73+40
ARM GAS  C:\Users\KJA\AppData\Local\Temp\ccAyzU2h.s 			page 27


 1203 00dc 224A     		ldr	r2, .L73+44
 1204 00de 1A60     		str	r2, [r3]	@ float
 275:state_machine.c ****             Set_Resist_Temporary_Value = 25.0; 
 1205              		.loc 1 275 0
 1206 00e0 224B     		ldr	r3, .L73+48
 1207 00e2 214A     		ldr	r2, .L73+44
 1208 00e4 1A60     		str	r2, [r3]	@ float
 276:state_machine.c ****             Position_Number = 1;
 1209              		.loc 1 276 0
 1210 00e6 1A4B     		ldr	r3, .L73+20
 1211 00e8 0122     		movs	r2, #1
 1212 00ea 1A70     		strb	r2, [r3]
 277:state_machine.c ****             Buzzer_Shot(Push_Buzzer__Default_Lenght);
 1213              		.loc 1 277 0
 1214 00ec 194B     		ldr	r3, .L73+24
 1215 00ee 1B68     		ldr	r3, [r3]
 1216 00f0 1846     		mov	r0, r3
 1217 00f2 FFF7FEFF 		bl	Buzzer_Shot
 1218 00f6 11E0     		b	.L68
 1219              	.L71:
 278:state_machine.c ****         }
 279:state_machine.c ****         else if(Get_Encoder_Menu(0,3) == 0){ // Back
 1220              		.loc 1 279 0
 1221 00f8 0020     		movs	r0, #0
 1222 00fa 0321     		movs	r1, #3
 1223 00fc FFF7FEFF 		bl	Get_Encoder_Menu
 1224 0100 0346     		mov	r3, r0
 1225 0102 002B     		cmp	r3, #0
 1226 0104 0AD1     		bne	.L68
 280:state_machine.c ****             QD_SetCounter(3);
 1227              		.loc 1 280 0
 1228 0106 0320     		movs	r0, #3
 1229 0108 FFF7FEFF 		bl	QD_SetCounter
 281:state_machine.c ****             Current_State = Home;
 1230              		.loc 1 281 0
 1231 010c 0D4B     		ldr	r3, .L73+8
 1232 010e 0122     		movs	r2, #1
 1233 0110 1A70     		strb	r2, [r3]
 282:state_machine.c ****             Buzzer_Shot(Push_Buzzer__Default_Lenght);
 1234              		.loc 1 282 0
 1235 0112 104B     		ldr	r3, .L73+24
 1236 0114 1B68     		ldr	r3, [r3]
 1237 0116 1846     		mov	r0, r3
 1238 0118 FFF7FEFF 		bl	Buzzer_Shot
 1239              	.L68:
 283:state_machine.c ****         }
 284:state_machine.c ****     }
 285:state_machine.c **** 
 286:state_machine.c ****     if(!(button4 == 0)){    //Back
 1240              		.loc 1 286 0
 1241 011c 144B     		ldr	r3, .L73+52
 1242 011e 1B78     		ldrb	r3, [r3]	@ zero_extendqisi2
 1243 0120 002B     		cmp	r3, #0
 1244 0122 0AD0     		beq	.L66
 287:state_machine.c ****         QD_SetCounter(3);
 1245              		.loc 1 287 0
 1246 0124 0320     		movs	r0, #3
ARM GAS  C:\Users\KJA\AppData\Local\Temp\ccAyzU2h.s 			page 28


 1247 0126 FFF7FEFF 		bl	QD_SetCounter
 288:state_machine.c ****         Current_State = Home;
 1248              		.loc 1 288 0
 1249 012a 064B     		ldr	r3, .L73+8
 1250 012c 0122     		movs	r2, #1
 1251 012e 1A70     		strb	r2, [r3]
 289:state_machine.c ****         Buzzer_Shot(Push_Buzzer__Default_Lenght);
 1252              		.loc 1 289 0
 1253 0130 084B     		ldr	r3, .L73+24
 1254 0132 1B68     		ldr	r3, [r3]
 1255 0134 1846     		mov	r0, r3
 1256 0136 FFF7FEFF 		bl	Buzzer_Shot
 1257              	.L66:
 290:state_machine.c ****     }
 291:state_machine.c ****     
 292:state_machine.c ****     
 293:state_machine.c ****     
 294:state_machine.c **** }
 1258              		.loc 1 294 0
 1259 013a 98BD     		pop	{r3, r4, r7, pc}
 1260              	.L74:
 1261              		.align	2
 1262              	.L73:
 1263 013c 00000000 		.word	OutputEnable
 1264 0140 00000000 		.word	Loop_Counter
 1265 0144 00000000 		.word	Current_State
 1266 0148 00000000 		.word	Set_Current
 1267 014c 00000000 		.word	Set_Current_Temporary_Value
 1268 0150 00000000 		.word	Position_Number
 1269 0154 00000000 		.word	Push_Buzzer__Default_Lenght
 1270 0158 00000000 		.word	Set_Power
 1271 015c 00002841 		.word	1093140480
 1272 0160 00000000 		.word	Set_Power_Temporary_Value
 1273 0164 00000000 		.word	Set_Resist
 1274 0168 0000C841 		.word	1103626240
 1275 016c 00000000 		.word	Set_Resist_Temporary_Value
 1276 0170 00000000 		.word	button4
 1277              		.cfi_endproc
 1278              	.LFE70:
 1279              		.size	State_Machine_ConstantMode, .-State_Machine_ConstantMode
 1280              		.section	.text.State_Machine_ArbitraryMode,"ax",%progbits
 1281              		.align	2
 1282              		.global	State_Machine_ArbitraryMode
 1283              		.thumb
 1284              		.thumb_func
 1285              		.type	State_Machine_ArbitraryMode, %function
 1286              	State_Machine_ArbitraryMode:
 1287              	.LFB71:
 295:state_machine.c **** 
 296:state_machine.c **** void State_Machine_ArbitraryMode(){
 1288              		.loc 1 296 0
 1289              		.cfi_startproc
 1290              		@ args = 0, pretend = 0, frame = 0
 1291              		@ frame_needed = 1, uses_anonymous_args = 0
 1292 0000 98B5     		push	{r3, r4, r7, lr}
 1293              		.cfi_def_cfa_offset 16
 1294              		.cfi_offset 3, -16
ARM GAS  C:\Users\KJA\AppData\Local\Temp\ccAyzU2h.s 			page 29


 1295              		.cfi_offset 4, -12
 1296              		.cfi_offset 7, -8
 1297              		.cfi_offset 14, -4
 1298 0002 00AF     		add	r7, sp, #0
 1299              		.cfi_def_cfa_register 7
 297:state_machine.c ****     // Disable Output and Relay
 298:state_machine.c ****     OutputEnable = 0;
 1300              		.loc 1 298 0
 1301 0004 374B     		ldr	r3, .L80
 1302 0006 0022     		movs	r2, #0
 1303 0008 1A70     		strb	r2, [r3]
 299:state_machine.c ****     RELAY_Write(0);
 1304              		.loc 1 299 0
 1305 000a 0020     		movs	r0, #0
 1306 000c FFF7FEFF 		bl	RELAY_Write
 300:state_machine.c ****     
 301:state_machine.c ****     // Secondary Loop Counter
 302:state_machine.c ****     Loop_Counter++;
 1307              		.loc 1 302 0
 1308 0010 354B     		ldr	r3, .L80+4
 1309 0012 1B68     		ldr	r3, [r3]
 1310 0014 0133     		adds	r3, r3, #1
 1311 0016 344A     		ldr	r2, .L80+4
 1312 0018 1360     		str	r3, [r2]
 303:state_machine.c ****     if(Loop_Counter >= 1000){
 1313              		.loc 1 303 0
 1314 001a 334B     		ldr	r3, .L80+4
 1315 001c 1B68     		ldr	r3, [r3]
 1316 001e B3F57A7F 		cmp	r3, #1000
 1317 0022 0ED3     		bcc	.L76
 304:state_machine.c ****         LCD_Draw(Current_State, Get_Encoder_Menu(0,3));
 1318              		.loc 1 304 0
 1319 0024 314B     		ldr	r3, .L80+8
 1320 0026 1C78     		ldrb	r4, [r3]	@ zero_extendqisi2
 1321 0028 0020     		movs	r0, #0
 1322 002a 0321     		movs	r1, #3
 1323 002c FFF7FEFF 		bl	Get_Encoder_Menu
 1324 0030 0346     		mov	r3, r0
 1325 0032 DBB2     		uxtb	r3, r3
 1326 0034 2046     		mov	r0, r4
 1327 0036 1946     		mov	r1, r3
 1328 0038 FFF7FEFF 		bl	LCD_Draw
 305:state_machine.c ****         Loop_Counter = 0;
 1329              		.loc 1 305 0
 1330 003c 2A4B     		ldr	r3, .L80+4
 1331 003e 0022     		movs	r2, #0
 1332 0040 1A60     		str	r2, [r3]
 1333              	.L76:
 306:state_machine.c ****     }
 307:state_machine.c ****         
 308:state_machine.c ****     if(!(Push_Reg_Read() == 0)){
 1334              		.loc 1 308 0
 1335 0042 FFF7FEFF 		bl	Push_Reg_Read
 1336 0046 0346     		mov	r3, r0
 1337 0048 002B     		cmp	r3, #0
 1338 004a 3AD0     		beq	.L77
 309:state_machine.c **** //        if(Get_Encoder_Menu(2,3) == 3){
ARM GAS  C:\Users\KJA\AppData\Local\Temp\ccAyzU2h.s 			page 30


 310:state_machine.c **** //            QD_SetCounter(3);
 311:state_machine.c **** //            Current_State = WaveForm_Mode;
 312:state_machine.c **** //            Buzzer_Shot(Push_Buzzer__Default_Lenght);
 313:state_machine.c **** //        }
 314:state_machine.c ****         if(Get_Encoder_Menu(2,3) == 2){
 1339              		.loc 1 314 0
 1340 004c 0220     		movs	r0, #2
 1341 004e 0321     		movs	r1, #3
 1342 0050 FFF7FEFF 		bl	Get_Encoder_Menu
 1343 0054 0346     		mov	r3, r0
 1344 0056 022B     		cmp	r3, #2
 1345 0058 21D1     		bne	.L78
 315:state_machine.c ****             QD_SetCounter(3);
 1346              		.loc 1 315 0
 1347 005a 0320     		movs	r0, #3
 1348 005c FFF7FEFF 		bl	QD_SetCounter
 316:state_machine.c ****             Current_State = PWM_Mode;
 1349              		.loc 1 316 0
 1350 0060 224B     		ldr	r3, .L80+8
 1351 0062 1122     		movs	r2, #17
 1352 0064 1A70     		strb	r2, [r3]
 317:state_machine.c ****             Set_Ampl = 1000;
 1353              		.loc 1 317 0
 1354 0066 224B     		ldr	r3, .L80+12
 1355 0068 4FF47A72 		mov	r2, #1000
 1356 006c 1A80     		strh	r2, [r3]	@ movhi
 318:state_machine.c ****             Set_Ampl_Temporary_Value = 1000;
 1357              		.loc 1 318 0
 1358 006e 214B     		ldr	r3, .L80+16
 1359 0070 4FF47A72 		mov	r2, #1000
 1360 0074 1A80     		strh	r2, [r3]	@ movhi
 319:state_machine.c ****             Set_Freq = 25000;
 1361              		.loc 1 319 0
 1362 0076 204B     		ldr	r3, .L80+20
 1363 0078 46F2A812 		movw	r2, #25000
 1364 007c 1A80     		strh	r2, [r3]	@ movhi
 320:state_machine.c ****             Set_Freq_Temporary_Value = 25000;
 1365              		.loc 1 320 0
 1366 007e 1F4B     		ldr	r3, .L80+24
 1367 0080 46F2A812 		movw	r2, #25000
 1368 0084 1A60     		str	r2, [r3]
 321:state_machine.c ****             Set_Duty = 50;
 1369              		.loc 1 321 0
 1370 0086 1E4B     		ldr	r3, .L80+28
 1371 0088 3222     		movs	r2, #50
 1372 008a 1A70     		strb	r2, [r3]
 322:state_machine.c ****             Set_Duty_Temporary_Value = 50;
 1373              		.loc 1 322 0
 1374 008c 1D4B     		ldr	r3, .L80+32
 1375 008e 3222     		movs	r2, #50
 1376 0090 1A70     		strb	r2, [r3]
 323:state_machine.c ****             Buzzer_Shot(Push_Buzzer__Default_Lenght);
 1377              		.loc 1 323 0
 1378 0092 1D4B     		ldr	r3, .L80+36
 1379 0094 1B68     		ldr	r3, [r3]
 1380 0096 1846     		mov	r0, r3
 1381 0098 FFF7FEFF 		bl	Buzzer_Shot
ARM GAS  C:\Users\KJA\AppData\Local\Temp\ccAyzU2h.s 			page 31


 1382 009c 11E0     		b	.L77
 1383              	.L78:
 324:state_machine.c ****         }
 325:state_machine.c ****         
 326:state_machine.c ****         else if(Get_Encoder_Menu(0,3) == 0){ // Back
 1384              		.loc 1 326 0
 1385 009e 0020     		movs	r0, #0
 1386 00a0 0321     		movs	r1, #3
 1387 00a2 FFF7FEFF 		bl	Get_Encoder_Menu
 1388 00a6 0346     		mov	r3, r0
 1389 00a8 002B     		cmp	r3, #0
 1390 00aa 0AD1     		bne	.L77
 327:state_machine.c ****             QD_SetCounter(3);
 1391              		.loc 1 327 0
 1392 00ac 0320     		movs	r0, #3
 1393 00ae FFF7FEFF 		bl	QD_SetCounter
 328:state_machine.c ****             Current_State = Home;
 1394              		.loc 1 328 0
 1395 00b2 0E4B     		ldr	r3, .L80+8
 1396 00b4 0122     		movs	r2, #1
 1397 00b6 1A70     		strb	r2, [r3]
 329:state_machine.c ****             Buzzer_Shot(Push_Buzzer__Default_Lenght);
 1398              		.loc 1 329 0
 1399 00b8 134B     		ldr	r3, .L80+36
 1400 00ba 1B68     		ldr	r3, [r3]
 1401 00bc 1846     		mov	r0, r3
 1402 00be FFF7FEFF 		bl	Buzzer_Shot
 1403              	.L77:
 330:state_machine.c ****         }
 331:state_machine.c ****     }
 332:state_machine.c ****     if(!(button4 == 0)){    //Back
 1404              		.loc 1 332 0
 1405 00c2 124B     		ldr	r3, .L80+40
 1406 00c4 1B78     		ldrb	r3, [r3]	@ zero_extendqisi2
 1407 00c6 002B     		cmp	r3, #0
 1408 00c8 0AD0     		beq	.L75
 333:state_machine.c ****         QD_SetCounter(3);
 1409              		.loc 1 333 0
 1410 00ca 0320     		movs	r0, #3
 1411 00cc FFF7FEFF 		bl	QD_SetCounter
 334:state_machine.c ****         Current_State = Home;
 1412              		.loc 1 334 0
 1413 00d0 064B     		ldr	r3, .L80+8
 1414 00d2 0122     		movs	r2, #1
 1415 00d4 1A70     		strb	r2, [r3]
 335:state_machine.c ****         Buzzer_Shot(Push_Buzzer__Default_Lenght);
 1416              		.loc 1 335 0
 1417 00d6 0C4B     		ldr	r3, .L80+36
 1418 00d8 1B68     		ldr	r3, [r3]
 1419 00da 1846     		mov	r0, r3
 1420 00dc FFF7FEFF 		bl	Buzzer_Shot
 1421              	.L75:
 336:state_machine.c ****     }
 337:state_machine.c **** }
 1422              		.loc 1 337 0
 1423 00e0 98BD     		pop	{r3, r4, r7, pc}
 1424              	.L81:
ARM GAS  C:\Users\KJA\AppData\Local\Temp\ccAyzU2h.s 			page 32


 1425 00e2 00BF     		.align	2
 1426              	.L80:
 1427 00e4 00000000 		.word	OutputEnable
 1428 00e8 00000000 		.word	Loop_Counter
 1429 00ec 00000000 		.word	Current_State
 1430 00f0 00000000 		.word	Set_Ampl
 1431 00f4 00000000 		.word	Set_Ampl_Temporary_Value
 1432 00f8 00000000 		.word	Set_Freq
 1433 00fc 00000000 		.word	Set_Freq_Temporary_Value
 1434 0100 00000000 		.word	Set_Duty
 1435 0104 00000000 		.word	Set_Duty_Temporary_Value
 1436 0108 00000000 		.word	Push_Buzzer__Default_Lenght
 1437 010c 00000000 		.word	button4
 1438              		.cfi_endproc
 1439              	.LFE71:
 1440              		.size	State_Machine_ArbitraryMode, .-State_Machine_ArbitraryMode
 1441              		.section	.text.State_Machine_WaveForm_Mode,"ax",%progbits
 1442              		.align	2
 1443              		.global	State_Machine_WaveForm_Mode
 1444              		.thumb
 1445              		.thumb_func
 1446              		.type	State_Machine_WaveForm_Mode, %function
 1447              	State_Machine_WaveForm_Mode:
 1448              	.LFB72:
 338:state_machine.c **** 
 339:state_machine.c **** void State_Machine_WaveForm_Mode(){
 1449              		.loc 1 339 0
 1450              		.cfi_startproc
 1451              		@ args = 0, pretend = 0, frame = 0
 1452              		@ frame_needed = 1, uses_anonymous_args = 0
 1453 0000 98B5     		push	{r3, r4, r7, lr}
 1454              		.cfi_def_cfa_offset 16
 1455              		.cfi_offset 3, -16
 1456              		.cfi_offset 4, -12
 1457              		.cfi_offset 7, -8
 1458              		.cfi_offset 14, -4
 1459 0002 00AF     		add	r7, sp, #0
 1460              		.cfi_def_cfa_register 7
 340:state_machine.c ****     
 341:state_machine.c ****     // Secondary Loop Counter
 342:state_machine.c ****     Loop_Counter++;
 1461              		.loc 1 342 0
 1462 0004 184B     		ldr	r3, .L85
 1463 0006 1B68     		ldr	r3, [r3]
 1464 0008 0133     		adds	r3, r3, #1
 1465 000a 174A     		ldr	r2, .L85
 1466 000c 1360     		str	r3, [r2]
 343:state_machine.c ****     if(Loop_Counter >= 1000){
 1467              		.loc 1 343 0
 1468 000e 164B     		ldr	r3, .L85
 1469 0010 1B68     		ldr	r3, [r3]
 1470 0012 B3F57A7F 		cmp	r3, #1000
 1471 0016 0ED3     		bcc	.L83
 344:state_machine.c ****         LCD_Draw(Current_State, Get_Encoder_Menu(0,3));
 1472              		.loc 1 344 0
 1473 0018 144B     		ldr	r3, .L85+4
 1474 001a 1C78     		ldrb	r4, [r3]	@ zero_extendqisi2
ARM GAS  C:\Users\KJA\AppData\Local\Temp\ccAyzU2h.s 			page 33


 1475 001c 0020     		movs	r0, #0
 1476 001e 0321     		movs	r1, #3
 1477 0020 FFF7FEFF 		bl	Get_Encoder_Menu
 1478 0024 0346     		mov	r3, r0
 1479 0026 DBB2     		uxtb	r3, r3
 1480 0028 2046     		mov	r0, r4
 1481 002a 1946     		mov	r1, r3
 1482 002c FFF7FEFF 		bl	LCD_Draw
 345:state_machine.c ****         Loop_Counter = 0;
 1483              		.loc 1 345 0
 1484 0030 0D4B     		ldr	r3, .L85
 1485 0032 0022     		movs	r2, #0
 1486 0034 1A60     		str	r2, [r3]
 1487              	.L83:
 346:state_machine.c ****     }
 347:state_machine.c ****         
 348:state_machine.c ****     if(!(button4 == 0)){    //Back
 1488              		.loc 1 348 0
 1489 0036 0E4B     		ldr	r3, .L85+8
 1490 0038 1B78     		ldrb	r3, [r3]	@ zero_extendqisi2
 1491 003a 002B     		cmp	r3, #0
 1492 003c 13D0     		beq	.L82
 349:state_machine.c ****         QD_SetCounter(3);
 1493              		.loc 1 349 0
 1494 003e 0320     		movs	r0, #3
 1495 0040 FFF7FEFF 		bl	QD_SetCounter
 350:state_machine.c ****         DAC_MUX_Select(0);   // GND
 1496              		.loc 1 350 0
 1497 0044 0020     		movs	r0, #0
 1498 0046 FFF7FEFF 		bl	DAC_MUX_Select
 351:state_machine.c ****         OutputEnable = 0;
 1499              		.loc 1 351 0
 1500 004a 0A4B     		ldr	r3, .L85+12
 1501 004c 0022     		movs	r2, #0
 1502 004e 1A70     		strb	r2, [r3]
 352:state_machine.c ****         RELAY_Write(0);
 1503              		.loc 1 352 0
 1504 0050 0020     		movs	r0, #0
 1505 0052 FFF7FEFF 		bl	RELAY_Write
 353:state_machine.c ****         Current_State = ArbitraryMode;
 1506              		.loc 1 353 0
 1507 0056 054B     		ldr	r3, .L85+4
 1508 0058 0322     		movs	r2, #3
 1509 005a 1A70     		strb	r2, [r3]
 354:state_machine.c ****         Buzzer_Shot(Push_Buzzer__Default_Lenght);
 1510              		.loc 1 354 0
 1511 005c 064B     		ldr	r3, .L85+16
 1512 005e 1B68     		ldr	r3, [r3]
 1513 0060 1846     		mov	r0, r3
 1514 0062 FFF7FEFF 		bl	Buzzer_Shot
 1515              	.L82:
 355:state_machine.c ****     }
 356:state_machine.c ****     
 357:state_machine.c **** }
 1516              		.loc 1 357 0
 1517 0066 98BD     		pop	{r3, r4, r7, pc}
 1518              	.L86:
ARM GAS  C:\Users\KJA\AppData\Local\Temp\ccAyzU2h.s 			page 34


 1519              		.align	2
 1520              	.L85:
 1521 0068 00000000 		.word	Loop_Counter
 1522 006c 00000000 		.word	Current_State
 1523 0070 00000000 		.word	button4
 1524 0074 00000000 		.word	OutputEnable
 1525 0078 00000000 		.word	Push_Buzzer__Default_Lenght
 1526              		.cfi_endproc
 1527              	.LFE72:
 1528              		.size	State_Machine_WaveForm_Mode, .-State_Machine_WaveForm_Mode
 1529              		.section	.rodata
 1530 0006 0000     		.align	2
 1531              	.LC1:
 1532 0008 2564206D 		.ascii	"%d mA\000"
 1532      4100
 1533 000e 0000     		.align	2
 1534              	.LC2:
 1535 0010 25642048 		.ascii	"%d Hz\000"
 1535      7A00
 1536 0016 0000     		.align	2
 1537              	.LC3:
 1538 0018 25642025 		.ascii	"%d %%\000"
 1538      2500
 1539              		.global	__aeabi_i2f
 1540              		.global	__aeabi_fcmpgt
 1541              		.global	__aeabi_f2iz
 1542              		.section	.text.State_Machine_PWM_Mode,"ax",%progbits
 1543              		.align	2
 1544              		.global	State_Machine_PWM_Mode
 1545              		.thumb
 1546              		.thumb_func
 1547              		.type	State_Machine_PWM_Mode, %function
 1548              	State_Machine_PWM_Mode:
 1549              	.LFB73:
 358:state_machine.c **** 
 359:state_machine.c **** 
 360:state_machine.c **** 
 361:state_machine.c **** void State_Machine_PWM_Mode(){
 1550              		.loc 1 361 0
 1551              		.cfi_startproc
 1552              		@ args = 0, pretend = 0, frame = 8
 1553              		@ frame_needed = 1, uses_anonymous_args = 0
 1554 0000 90B5     		push	{r4, r7, lr}
 1555              		.cfi_def_cfa_offset 12
 1556              		.cfi_offset 4, -12
 1557              		.cfi_offset 7, -8
 1558              		.cfi_offset 14, -4
 1559 0002 83B0     		sub	sp, sp, #12
 1560              		.cfi_def_cfa_offset 24
 1561 0004 00AF     		add	r7, sp, #0
 1562              		.cfi_def_cfa_register 7
 362:state_machine.c ****     
 363:state_machine.c ****     float MaxSetValue;
 364:state_machine.c ****     
 365:state_machine.c ****     LEM_A_Write(0);     //160 Ohm - Range 2
 1563              		.loc 1 365 0
 1564 0006 0020     		movs	r0, #0
ARM GAS  C:\Users\KJA\AppData\Local\Temp\ccAyzU2h.s 			page 35


 1565 0008 FFF7FEFF 		bl	LEM_A_Write
 366:state_machine.c ****     LEM_B_Write(0);   //60 Ohm - Range 3
 1566              		.loc 1 366 0
 1567 000c 0020     		movs	r0, #0
 1568 000e FFF7FEFF 		bl	LEM_B_Write
 367:state_machine.c ****     CAP_EN_Write(1);    // Enable 10nF Cap
 1569              		.loc 1 367 0
 1570 0012 0120     		movs	r0, #1
 1571 0014 FFF7FEFF 		bl	CAP_EN_Write
 368:state_machine.c **** 
 369:state_machine.c ****     
 370:state_machine.c ****     // Secondary Loop Counter
 371:state_machine.c ****     Loop_Counter++;
 1572              		.loc 1 371 0
 1573 0018 A94B     		ldr	r3, .L160
 1574 001a 1B68     		ldr	r3, [r3]
 1575 001c 0133     		adds	r3, r3, #1
 1576 001e A84A     		ldr	r2, .L160
 1577 0020 1360     		str	r3, [r2]
 372:state_machine.c ****     
 373:state_machine.c ****     // Output Enable Case
 374:state_machine.c ****     if(OutputEnable == 1){
 1578              		.loc 1 374 0
 1579 0022 A84B     		ldr	r3, .L160+4
 1580 0024 1B78     		ldrb	r3, [r3]	@ zero_extendqisi2
 1581 0026 012B     		cmp	r3, #1
 1582 0028 5BD1     		bne	.L88
 375:state_machine.c ****         
 376:state_machine.c ****         if(!(Input_Reg_Read())){
 1583              		.loc 1 376 0
 1584 002a FFF7FEFF 		bl	Input_Reg_Read
 1585 002e 0346     		mov	r3, r0
 1586 0030 002B     		cmp	r3, #0
 1587 0032 0DD1     		bne	.L89
 377:state_machine.c ****             OutputEnable = 0;
 1588              		.loc 1 377 0
 1589 0034 A34B     		ldr	r3, .L160+4
 1590 0036 0022     		movs	r2, #0
 1591 0038 1A70     		strb	r2, [r3]
 378:state_machine.c ****             Previous_State = Current_State;
 1592              		.loc 1 378 0
 1593 003a A34B     		ldr	r3, .L160+8
 1594 003c 1A78     		ldrb	r2, [r3]	@ zero_extendqisi2
 1595 003e A34B     		ldr	r3, .L160+12
 1596 0040 1A70     		strb	r2, [r3]
 379:state_machine.c ****             Current_State = Error_OC;
 1597              		.loc 1 379 0
 1598 0042 A14B     		ldr	r3, .L160+8
 1599 0044 0F22     		movs	r2, #15
 1600 0046 1A70     		strb	r2, [r3]
 380:state_machine.c ****             Buzzer_Shot(500000);
 1601              		.loc 1 380 0
 1602 0048 A148     		ldr	r0, .L160+16
 1603 004a FFF7FEFF 		bl	Buzzer_Shot
 1604 004e 48E0     		b	.L88
 1605              	.L89:
 381:state_machine.c ****         }
ARM GAS  C:\Users\KJA\AppData\Local\Temp\ccAyzU2h.s 			page 36


 382:state_machine.c ****         else if(OverTemperature == 1){
 1606              		.loc 1 382 0
 1607 0050 A04B     		ldr	r3, .L160+20
 1608 0052 1B78     		ldrb	r3, [r3]	@ zero_extendqisi2
 1609 0054 012B     		cmp	r3, #1
 1610 0056 19D1     		bne	.L90
 383:state_machine.c **** 
 384:state_machine.c ****             DACValue = 0;
 1611              		.loc 1 384 0
 1612 0058 9F4B     		ldr	r3, .L160+24
 1613 005a 0022     		movs	r2, #0
 1614 005c 1A80     		strh	r2, [r3]	@ movhi
 385:state_machine.c ****             DVDAC8_1_SetValue(0); 
 1615              		.loc 1 385 0
 1616 005e 0020     		movs	r0, #0
 1617 0060 FFF7FEFF 		bl	DVDAC8_1_SetValue
 386:state_machine.c ****             DAC_MUX_Select(0);     
 1618              		.loc 1 386 0
 1619 0064 0020     		movs	r0, #0
 1620 0066 FFF7FEFF 		bl	DAC_MUX_Select
 387:state_machine.c ****             
 388:state_machine.c ****             // Disable Relay
 389:state_machine.c ****             RELAY_Write(0);
 1621              		.loc 1 389 0
 1622 006a 0020     		movs	r0, #0
 1623 006c FFF7FEFF 		bl	RELAY_Write
 390:state_machine.c ****             
 391:state_machine.c ****             Buzzer_Shot(500000);
 1624              		.loc 1 391 0
 1625 0070 9748     		ldr	r0, .L160+16
 1626 0072 FFF7FEFF 		bl	Buzzer_Shot
 392:state_machine.c ****             
 393:state_machine.c ****             OutputEnable = 0;
 1627              		.loc 1 393 0
 1628 0076 934B     		ldr	r3, .L160+4
 1629 0078 0022     		movs	r2, #0
 1630 007a 1A70     		strb	r2, [r3]
 394:state_machine.c ****             Previous_State = Current_State;
 1631              		.loc 1 394 0
 1632 007c 924B     		ldr	r3, .L160+8
 1633 007e 1A78     		ldrb	r2, [r3]	@ zero_extendqisi2
 1634 0080 924B     		ldr	r3, .L160+12
 1635 0082 1A70     		strb	r2, [r3]
 395:state_machine.c ****             Current_State = Error_OT;   
 1636              		.loc 1 395 0
 1637 0084 904B     		ldr	r3, .L160+8
 1638 0086 0E22     		movs	r2, #14
 1639 0088 1A70     		strb	r2, [r3]
 1640 008a 2AE0     		b	.L88
 1641              	.L90:
 1642              	.LBB2:
 396:state_machine.c ****         } 
 397:state_machine.c ****         else{       
 398:state_machine.c ****             // Enable Relay if Input is OK
 399:state_machine.c ****             RELAY_Write(1);
 1643              		.loc 1 399 0
 1644 008c 0120     		movs	r0, #1
ARM GAS  C:\Users\KJA\AppData\Local\Temp\ccAyzU2h.s 			page 37


 1645 008e FFF7FEFF 		bl	RELAY_Write
 400:state_machine.c ****             
 401:state_machine.c ****             
 402:state_machine.c ****             DVDAC8_1_SetValue(Set_Ampl);
 1646              		.loc 1 402 0
 1647 0092 924B     		ldr	r3, .L160+28
 1648 0094 1B88     		ldrh	r3, [r3]
 1649 0096 9BB2     		uxth	r3, r3
 1650 0098 1846     		mov	r0, r3
 1651 009a FFF7FEFF 		bl	DVDAC8_1_SetValue
 403:state_machine.c ****             
 404:state_machine.c ****             DAC_MUX_Select(2);      // ConstantDAC
 1652              		.loc 1 404 0
 1653 009e 0220     		movs	r0, #2
 1654 00a0 FFF7FEFF 		bl	DAC_MUX_Select
 405:state_machine.c ****             PWM_Driver_Start();     //Start PWM
 1655              		.loc 1 405 0
 1656 00a4 FFF7FEFF 		bl	PWM_Driver_Start
 406:state_machine.c ****             
 407:state_machine.c ****             PWM_Driver_WritePeriod(Set_Freq);
 1657              		.loc 1 407 0
 1658 00a8 8D4B     		ldr	r3, .L160+32
 1659 00aa 1B88     		ldrh	r3, [r3]
 1660 00ac 1846     		mov	r0, r3
 1661 00ae FFF7FEFF 		bl	PWM_Driver_WritePeriod
 408:state_machine.c ****                         
 409:state_machine.c ****             uint16 Actual_Period;
 410:state_machine.c ****             Actual_Period = PWM_Driver_ReadPeriod();
 1662              		.loc 1 410 0
 1663 00b2 FFF7FEFF 		bl	PWM_Driver_ReadPeriod
 1664 00b6 0346     		mov	r3, r0
 1665 00b8 FB80     		strh	r3, [r7, #6]	@ movhi
 411:state_machine.c ****             
 412:state_machine.c ****             uint16 Duty_to_Set;
 413:state_machine.c ****             Duty_to_Set = Actual_Period-(Set_Duty*Actual_Period/100);
 1666              		.loc 1 413 0
 1667 00ba 8A4B     		ldr	r3, .L160+36
 1668 00bc 1B78     		ldrb	r3, [r3]	@ zero_extendqisi2
 1669 00be 5BB2     		sxtb	r3, r3
 1670 00c0 FA88     		ldrh	r2, [r7, #6]
 1671 00c2 02FB03F3 		mul	r3, r2, r3
 1672 00c6 884A     		ldr	r2, .L160+40
 1673 00c8 82FB0312 		smull	r1, r2, r2, r3
 1674 00cc 5211     		asrs	r2, r2, #5
 1675 00ce DB17     		asrs	r3, r3, #31
 1676 00d0 D31A     		subs	r3, r2, r3
 1677 00d2 9BB2     		uxth	r3, r3
 1678 00d4 FA88     		ldrh	r2, [r7, #6]	@ movhi
 1679 00d6 D31A     		subs	r3, r2, r3
 1680 00d8 BB80     		strh	r3, [r7, #4]	@ movhi
 414:state_machine.c ****             PWM_Driver_WriteCompare(Duty_to_Set);
 1681              		.loc 1 414 0
 1682 00da BB88     		ldrh	r3, [r7, #4]
 1683 00dc 1846     		mov	r0, r3
 1684 00de FFF7FEFF 		bl	PWM_Driver_WriteCompare
 1685              	.L88:
 1686              	.LBE2:
ARM GAS  C:\Users\KJA\AppData\Local\Temp\ccAyzU2h.s 			page 38


 415:state_machine.c ****             
 416:state_machine.c **** 
 417:state_machine.c ****         }
 418:state_machine.c ****     }
 419:state_machine.c ****     
 420:state_machine.c ****     // Output Disable Case
 421:state_machine.c ****     if(OutputEnable == 0){
 1687              		.loc 1 421 0
 1688 00e2 784B     		ldr	r3, .L160+4
 1689 00e4 1B78     		ldrb	r3, [r3]	@ zero_extendqisi2
 1690 00e6 002B     		cmp	r3, #0
 1691 00e8 0DD1     		bne	.L91
 422:state_machine.c ****         
 423:state_machine.c ****         DACValue = 0;
 1692              		.loc 1 423 0
 1693 00ea 7B4B     		ldr	r3, .L160+24
 1694 00ec 0022     		movs	r2, #0
 1695 00ee 1A80     		strh	r2, [r3]	@ movhi
 424:state_machine.c ****         DVDAC8_1_SetValue(0); 
 1696              		.loc 1 424 0
 1697 00f0 0020     		movs	r0, #0
 1698 00f2 FFF7FEFF 		bl	DVDAC8_1_SetValue
 425:state_machine.c ****         DAC_MUX_Select(0);
 1699              		.loc 1 425 0
 1700 00f6 0020     		movs	r0, #0
 1701 00f8 FFF7FEFF 		bl	DAC_MUX_Select
 426:state_machine.c ****         PWM_Driver_Stop();
 1702              		.loc 1 426 0
 1703 00fc FFF7FEFF 		bl	PWM_Driver_Stop
 427:state_machine.c ****         
 428:state_machine.c ****         // Disable Relay
 429:state_machine.c ****         RELAY_Write(0);
 1704              		.loc 1 429 0
 1705 0100 0020     		movs	r0, #0
 1706 0102 FFF7FEFF 		bl	RELAY_Write
 1707              	.L91:
 430:state_machine.c ****     }
 431:state_machine.c ****     
 432:state_machine.c ****         
 433:state_machine.c ****     if(Edit_Value_Mode == 0){
 1708              		.loc 1 433 0
 1709 0106 794B     		ldr	r3, .L160+44
 1710 0108 1B78     		ldrb	r3, [r3]	@ zero_extendqisi2
 1711 010a 002B     		cmp	r3, #0
 1712 010c 40F08580 		bne	.L92
 434:state_machine.c ****         
 435:state_machine.c ****     if(Loop_Counter >= 1000){
 1713              		.loc 1 435 0
 1714 0110 6B4B     		ldr	r3, .L160
 1715 0112 1B68     		ldr	r3, [r3]
 1716 0114 B3F57A7F 		cmp	r3, #1000
 1717 0118 25D3     		bcc	.L93
 436:state_machine.c ****         sprintf((char *)cSet_Ampl,"%d mA",Set_Ampl);
 1718              		.loc 1 436 0
 1719 011a 704B     		ldr	r3, .L160+28
 1720 011c 1B88     		ldrh	r3, [r3]
 1721 011e 1BB2     		sxth	r3, r3
ARM GAS  C:\Users\KJA\AppData\Local\Temp\ccAyzU2h.s 			page 39


 1722 0120 7348     		ldr	r0, .L160+48
 1723 0122 7449     		ldr	r1, .L160+52
 1724 0124 1A46     		mov	r2, r3
 1725 0126 FFF7FEFF 		bl	sprintf
 437:state_machine.c ****         sprintf((char *)cSet_Freq,"%d Hz",Set_Freq);
 1726              		.loc 1 437 0
 1727 012a 6D4B     		ldr	r3, .L160+32
 1728 012c 1B88     		ldrh	r3, [r3]
 1729 012e 7248     		ldr	r0, .L160+56
 1730 0130 7249     		ldr	r1, .L160+60
 1731 0132 1A46     		mov	r2, r3
 1732 0134 FFF7FEFF 		bl	sprintf
 438:state_machine.c ****         sprintf((char *)cSet_Duty,"%d %%",Set_Duty);
 1733              		.loc 1 438 0
 1734 0138 6A4B     		ldr	r3, .L160+36
 1735 013a 1B78     		ldrb	r3, [r3]	@ zero_extendqisi2
 1736 013c 5BB2     		sxtb	r3, r3
 1737 013e 7048     		ldr	r0, .L160+64
 1738 0140 7049     		ldr	r1, .L160+68
 1739 0142 1A46     		mov	r2, r3
 1740 0144 FFF7FEFF 		bl	sprintf
 439:state_machine.c ****         
 440:state_machine.c ****         LCD_Draw(Current_State, Get_Encoder_Menu(0,2));
 1741              		.loc 1 440 0
 1742 0148 5F4B     		ldr	r3, .L160+8
 1743 014a 1C78     		ldrb	r4, [r3]	@ zero_extendqisi2
 1744 014c 0020     		movs	r0, #0
 1745 014e 0221     		movs	r1, #2
 1746 0150 FFF7FEFF 		bl	Get_Encoder_Menu
 1747 0154 0346     		mov	r3, r0
 1748 0156 DBB2     		uxtb	r3, r3
 1749 0158 2046     		mov	r0, r4
 1750 015a 1946     		mov	r1, r3
 1751 015c FFF7FEFF 		bl	LCD_Draw
 441:state_machine.c ****         
 442:state_machine.c ****         Loop_Counter = 0;
 1752              		.loc 1 442 0
 1753 0160 574B     		ldr	r3, .L160
 1754 0162 0022     		movs	r2, #0
 1755 0164 1A60     		str	r2, [r3]
 1756              	.L93:
 443:state_machine.c ****     }
 444:state_machine.c **** 
 445:state_machine.c ****         if(!(Push_Reg_Read() == 0)){
 1757              		.loc 1 445 0
 1758 0166 FFF7FEFF 		bl	Push_Reg_Read
 1759 016a 0346     		mov	r3, r0
 1760 016c 002B     		cmp	r3, #0
 1761 016e 54D0     		beq	.L92
 446:state_machine.c ****             Edit_Value_Mode = 1;
 1762              		.loc 1 446 0
 1763 0170 5E4B     		ldr	r3, .L160+44
 1764 0172 0122     		movs	r2, #1
 1765 0174 1A70     		strb	r2, [r3]
 447:state_machine.c ****             if(Get_Encoder_Menu(0,3) == 2){
 1766              		.loc 1 447 0
 1767 0176 0020     		movs	r0, #0
ARM GAS  C:\Users\KJA\AppData\Local\Temp\ccAyzU2h.s 			page 40


 1768 0178 0321     		movs	r1, #3
 1769 017a FFF7FEFF 		bl	Get_Encoder_Menu
 1770 017e 0346     		mov	r3, r0
 1771 0180 022B     		cmp	r3, #2
 1772 0182 11D1     		bne	.L94
 448:state_machine.c ****                 Current_Edit_Value = 2; //Amp
 1773              		.loc 1 448 0
 1774 0184 604B     		ldr	r3, .L160+72
 1775 0186 0222     		movs	r2, #2
 1776 0188 1A70     		strb	r2, [r3]
 449:state_machine.c ****                 QD_SetCounter(Set_Ampl);
 1777              		.loc 1 449 0
 1778 018a 544B     		ldr	r3, .L160+28
 1779 018c 1B88     		ldrh	r3, [r3]
 1780 018e 1BB2     		sxth	r3, r3
 1781 0190 1846     		mov	r0, r3
 1782 0192 FFF7FEFF 		bl	QD_SetCounter
 450:state_machine.c ****                 Last_Counter = Set_Ampl;
 1783              		.loc 1 450 0
 1784 0196 514B     		ldr	r3, .L160+28
 1785 0198 1B88     		ldrh	r3, [r3]
 1786 019a 1BB2     		sxth	r3, r3
 1787 019c 5B4A     		ldr	r2, .L160+76
 1788 019e 1360     		str	r3, [r2]
 451:state_machine.c ****                 Position_Number = 1;
 1789              		.loc 1 451 0
 1790 01a0 5B4B     		ldr	r3, .L160+80
 1791 01a2 0122     		movs	r2, #1
 1792 01a4 1A70     		strb	r2, [r3]
 1793 01a6 33E0     		b	.L95
 1794              	.L94:
 452:state_machine.c ****                 
 453:state_machine.c ****             }
 454:state_machine.c ****             else if(Get_Encoder_Menu(0,3) == 1){
 1795              		.loc 1 454 0
 1796 01a8 0020     		movs	r0, #0
 1797 01aa 0321     		movs	r1, #3
 1798 01ac FFF7FEFF 		bl	Get_Encoder_Menu
 1799 01b0 0346     		mov	r3, r0
 1800 01b2 012B     		cmp	r3, #1
 1801 01b4 12D1     		bne	.L96
 455:state_machine.c ****                 Current_Edit_Value = 1; //Freq
 1802              		.loc 1 455 0
 1803 01b6 544B     		ldr	r3, .L160+72
 1804 01b8 0122     		movs	r2, #1
 1805 01ba 1A70     		strb	r2, [r3]
 456:state_machine.c ****                 QD_SetCounter(Set_Freq);
 1806              		.loc 1 456 0
 1807 01bc 484B     		ldr	r3, .L160+32
 1808 01be 1B88     		ldrh	r3, [r3]
 1809 01c0 9BB2     		uxth	r3, r3
 1810 01c2 1BB2     		sxth	r3, r3
 1811 01c4 1846     		mov	r0, r3
 1812 01c6 FFF7FEFF 		bl	QD_SetCounter
 457:state_machine.c ****                 Last_Counter = Set_Freq;
 1813              		.loc 1 457 0
 1814 01ca 454B     		ldr	r3, .L160+32
ARM GAS  C:\Users\KJA\AppData\Local\Temp\ccAyzU2h.s 			page 41


 1815 01cc 1B88     		ldrh	r3, [r3]
 1816 01ce 1A46     		mov	r2, r3
 1817 01d0 4E4B     		ldr	r3, .L160+76
 1818 01d2 1A60     		str	r2, [r3]
 458:state_machine.c ****                 Position_Number = 1;
 1819              		.loc 1 458 0
 1820 01d4 4E4B     		ldr	r3, .L160+80
 1821 01d6 0122     		movs	r2, #1
 1822 01d8 1A70     		strb	r2, [r3]
 1823 01da 19E0     		b	.L95
 1824              	.L96:
 459:state_machine.c ****             }
 460:state_machine.c ****             else if(Get_Encoder_Menu(0,3) == 0){   
 1825              		.loc 1 460 0
 1826 01dc 0020     		movs	r0, #0
 1827 01de 0321     		movs	r1, #3
 1828 01e0 FFF7FEFF 		bl	Get_Encoder_Menu
 1829 01e4 0346     		mov	r3, r0
 1830 01e6 002B     		cmp	r3, #0
 1831 01e8 12D1     		bne	.L95
 461:state_machine.c ****                 Current_Edit_Value = 0; //Duty
 1832              		.loc 1 461 0
 1833 01ea 474B     		ldr	r3, .L160+72
 1834 01ec 0022     		movs	r2, #0
 1835 01ee 1A70     		strb	r2, [r3]
 462:state_machine.c ****                 QD_SetCounter(Set_Duty);
 1836              		.loc 1 462 0
 1837 01f0 3C4B     		ldr	r3, .L160+36
 1838 01f2 1B78     		ldrb	r3, [r3]	@ zero_extendqisi2
 1839 01f4 5BB2     		sxtb	r3, r3
 1840 01f6 9BB2     		uxth	r3, r3
 1841 01f8 1BB2     		sxth	r3, r3
 1842 01fa 1846     		mov	r0, r3
 1843 01fc FFF7FEFF 		bl	QD_SetCounter
 463:state_machine.c ****                 Last_Counter = Set_Duty;
 1844              		.loc 1 463 0
 1845 0200 384B     		ldr	r3, .L160+36
 1846 0202 1B78     		ldrb	r3, [r3]	@ zero_extendqisi2
 1847 0204 5BB2     		sxtb	r3, r3
 1848 0206 414A     		ldr	r2, .L160+76
 1849 0208 1360     		str	r3, [r2]
 464:state_machine.c ****                 Position_Number = 1;
 1850              		.loc 1 464 0
 1851 020a 414B     		ldr	r3, .L160+80
 1852 020c 0122     		movs	r2, #1
 1853 020e 1A70     		strb	r2, [r3]
 1854              	.L95:
 465:state_machine.c ****             } 
 466:state_machine.c ****             Buzzer_Shot(Push_Buzzer__Default_Lenght);
 1855              		.loc 1 466 0
 1856 0210 404B     		ldr	r3, .L160+84
 1857 0212 1B68     		ldr	r3, [r3]
 1858 0214 1846     		mov	r0, r3
 1859 0216 FFF7FEFF 		bl	Buzzer_Shot
 1860              	.L92:
 467:state_machine.c ****         }   
 468:state_machine.c ****  }
ARM GAS  C:\Users\KJA\AppData\Local\Temp\ccAyzU2h.s 			page 42


 469:state_machine.c ****     
 470:state_machine.c ****     if(Edit_Value_Mode == 1){
 1861              		.loc 1 470 0
 1862 021a 344B     		ldr	r3, .L160+44
 1863 021c 1B78     		ldrb	r3, [r3]	@ zero_extendqisi2
 1864 021e 012B     		cmp	r3, #1
 1865 0220 40F09783 		bne	.L97
 471:state_machine.c ****         
 472:state_machine.c ****         if(Loop_Counter >= 1000){
 1866              		.loc 1 472 0
 1867 0224 264B     		ldr	r3, .L160
 1868 0226 1B68     		ldr	r3, [r3]
 1869 0228 B3F57A7F 		cmp	r3, #1000
 1870 022c 21D3     		bcc	.L98
 473:state_machine.c ****             sprintf((char *)cSet_Ampl,"%d mA",Set_Ampl);
 1871              		.loc 1 473 0
 1872 022e 2B4B     		ldr	r3, .L160+28
 1873 0230 1B88     		ldrh	r3, [r3]
 1874 0232 1BB2     		sxth	r3, r3
 1875 0234 2E48     		ldr	r0, .L160+48
 1876 0236 2F49     		ldr	r1, .L160+52
 1877 0238 1A46     		mov	r2, r3
 1878 023a FFF7FEFF 		bl	sprintf
 474:state_machine.c ****             sprintf((char *)cSet_Freq,"%d Hz",Set_Freq);
 1879              		.loc 1 474 0
 1880 023e 284B     		ldr	r3, .L160+32
 1881 0240 1B88     		ldrh	r3, [r3]
 1882 0242 2D48     		ldr	r0, .L160+56
 1883 0244 2D49     		ldr	r1, .L160+60
 1884 0246 1A46     		mov	r2, r3
 1885 0248 FFF7FEFF 		bl	sprintf
 475:state_machine.c ****             sprintf((char *)cSet_Duty,"%d %%",Set_Duty);
 1886              		.loc 1 475 0
 1887 024c 254B     		ldr	r3, .L160+36
 1888 024e 1B78     		ldrb	r3, [r3]	@ zero_extendqisi2
 1889 0250 5BB2     		sxtb	r3, r3
 1890 0252 2B48     		ldr	r0, .L160+64
 1891 0254 2B49     		ldr	r1, .L160+68
 1892 0256 1A46     		mov	r2, r3
 1893 0258 FFF7FEFF 		bl	sprintf
 476:state_machine.c ****             LCD_Draw(Current_State, Current_Edit_Value);
 1894              		.loc 1 476 0
 1895 025c 1A4B     		ldr	r3, .L160+8
 1896 025e 1A78     		ldrb	r2, [r3]	@ zero_extendqisi2
 1897 0260 294B     		ldr	r3, .L160+72
 1898 0262 1B78     		ldrb	r3, [r3]	@ zero_extendqisi2
 1899 0264 1046     		mov	r0, r2
 1900 0266 1946     		mov	r1, r3
 1901 0268 FFF7FEFF 		bl	LCD_Draw
 477:state_machine.c ****             Loop_Counter = 0;
 1902              		.loc 1 477 0
 1903 026c 144B     		ldr	r3, .L160
 1904 026e 0022     		movs	r2, #0
 1905 0270 1A60     		str	r2, [r3]
 1906              	.L98:
 478:state_machine.c ****         }
 479:state_machine.c **** 
ARM GAS  C:\Users\KJA\AppData\Local\Temp\ccAyzU2h.s 			page 43


 480:state_machine.c ****                                
 481:state_machine.c ****         if(!(button6 == 0)){    // Shift Right Button
 1907              		.loc 1 481 0
 1908 0272 294B     		ldr	r3, .L160+88
 1909 0274 1B78     		ldrb	r3, [r3]	@ zero_extendqisi2
 1910 0276 002B     		cmp	r3, #0
 1911 0278 61D0     		beq	.L99
 482:state_machine.c ****             Position_Number++;
 1912              		.loc 1 482 0
 1913 027a 254B     		ldr	r3, .L160+80
 1914 027c 1B78     		ldrb	r3, [r3]	@ zero_extendqisi2
 1915 027e DBB2     		uxtb	r3, r3
 1916 0280 DBB2     		uxtb	r3, r3
 1917 0282 0133     		adds	r3, r3, #1
 1918 0284 DBB2     		uxtb	r3, r3
 1919 0286 DAB2     		uxtb	r2, r3
 1920 0288 214B     		ldr	r3, .L160+80
 1921 028a 1A70     		strb	r2, [r3]
 483:state_machine.c ****             if(Current_Edit_Value == 2){        //Ampl
 1922              		.loc 1 483 0
 1923 028c 1E4B     		ldr	r3, .L160+72
 1924 028e 1B78     		ldrb	r3, [r3]	@ zero_extendqisi2
 1925 0290 022B     		cmp	r3, #2
 1926 0292 08D1     		bne	.L100
 484:state_machine.c ****                 if(Position_Number >2) Position_Number = 3;
 1927              		.loc 1 484 0
 1928 0294 1E4B     		ldr	r3, .L160+80
 1929 0296 1B78     		ldrb	r3, [r3]	@ zero_extendqisi2
 1930 0298 5BB2     		sxtb	r3, r3
 1931 029a 022B     		cmp	r3, #2
 1932 029c 4ADD     		ble	.L102
 1933              		.loc 1 484 0 is_stmt 0 discriminator 1
 1934 029e 1C4B     		ldr	r3, .L160+80
 1935 02a0 0322     		movs	r2, #3
 1936 02a2 1A70     		strb	r2, [r3]
 1937 02a4 46E0     		b	.L102
 1938              	.L100:
 485:state_machine.c ****             }
 486:state_machine.c ****             else if(Current_Edit_Value == 1){    //Freq
 1939              		.loc 1 486 0 is_stmt 1
 1940 02a6 184B     		ldr	r3, .L160+72
 1941 02a8 1B78     		ldrb	r3, [r3]	@ zero_extendqisi2
 1942 02aa 012B     		cmp	r3, #1
 1943 02ac 36D1     		bne	.L103
 487:state_machine.c ****                 if(Position_Number >3) Position_Number = 4;
 1944              		.loc 1 487 0
 1945 02ae 184B     		ldr	r3, .L160+80
 1946 02b0 1B78     		ldrb	r3, [r3]	@ zero_extendqisi2
 1947 02b2 5BB2     		sxtb	r3, r3
 1948 02b4 032B     		cmp	r3, #3
 1949 02b6 3DDD     		ble	.L102
 1950              		.loc 1 487 0 is_stmt 0 discriminator 1
 1951 02b8 154B     		ldr	r3, .L160+80
 1952 02ba 0422     		movs	r2, #4
 1953 02bc 1A70     		strb	r2, [r3]
 1954 02be 39E0     		b	.L102
 1955              	.L161:
ARM GAS  C:\Users\KJA\AppData\Local\Temp\ccAyzU2h.s 			page 44


 1956              		.align	2
 1957              	.L160:
 1958 02c0 00000000 		.word	Loop_Counter
 1959 02c4 00000000 		.word	OutputEnable
 1960 02c8 00000000 		.word	Current_State
 1961 02cc 00000000 		.word	Previous_State
 1962 02d0 20A10700 		.word	500000
 1963 02d4 00000000 		.word	OverTemperature
 1964 02d8 00000000 		.word	DACValue
 1965 02dc 00000000 		.word	Set_Ampl
 1966 02e0 00000000 		.word	Set_Freq
 1967 02e4 00000000 		.word	Set_Duty
 1968 02e8 1F85EB51 		.word	1374389535
 1969 02ec 00000000 		.word	Edit_Value_Mode
 1970 02f0 00000000 		.word	cSet_Ampl
 1971 02f4 08000000 		.word	.LC1
 1972 02f8 00000000 		.word	cSet_Freq
 1973 02fc 10000000 		.word	.LC2
 1974 0300 00000000 		.word	cSet_Duty
 1975 0304 18000000 		.word	.LC3
 1976 0308 00000000 		.word	Current_Edit_Value
 1977 030c 00000000 		.word	Last_Counter
 1978 0310 00000000 		.word	Position_Number
 1979 0314 00000000 		.word	Push_Buzzer__Default_Lenght
 1980 0318 00000000 		.word	button6
 1981              	.L103:
 488:state_machine.c ****             }
 489:state_machine.c ****             else if(Current_Edit_Value == 0){    //Duty
 1982              		.loc 1 489 0 is_stmt 1
 1983 031c 654B     		ldr	r3, .L162
 1984 031e 1B78     		ldrb	r3, [r3]	@ zero_extendqisi2
 1985 0320 002B     		cmp	r3, #0
 1986 0322 07D1     		bne	.L102
 490:state_machine.c ****                 if(Position_Number >1) Position_Number = 1;
 1987              		.loc 1 490 0
 1988 0324 644B     		ldr	r3, .L162+4
 1989 0326 1B78     		ldrb	r3, [r3]	@ zero_extendqisi2
 1990 0328 5BB2     		sxtb	r3, r3
 1991 032a 012B     		cmp	r3, #1
 1992 032c 02DD     		ble	.L102
 1993              		.loc 1 490 0 is_stmt 0 discriminator 1
 1994 032e 624B     		ldr	r3, .L162+4
 1995 0330 0122     		movs	r2, #1
 1996 0332 1A70     		strb	r2, [r3]
 1997              	.L102:
 491:state_machine.c ****             }
 492:state_machine.c ****             Buzzer_Shot(Push_Buzzer__Default_Lenght);
 1998              		.loc 1 492 0 is_stmt 1
 1999 0334 614B     		ldr	r3, .L162+8
 2000 0336 1B68     		ldr	r3, [r3]
 2001 0338 1846     		mov	r0, r3
 2002 033a FFF7FEFF 		bl	Buzzer_Shot
 2003              	.L99:
 493:state_machine.c ****         }
 494:state_machine.c ****         
 495:state_machine.c ****         if(!(button5 == 0)){    // Shift Left Button
 2004              		.loc 1 495 0
ARM GAS  C:\Users\KJA\AppData\Local\Temp\ccAyzU2h.s 			page 45


 2005 033e 604B     		ldr	r3, .L162+12
 2006 0340 1B78     		ldrb	r3, [r3]	@ zero_extendqisi2
 2007 0342 002B     		cmp	r3, #0
 2008 0344 15D0     		beq	.L105
 496:state_machine.c ****             Position_Number--;
 2009              		.loc 1 496 0
 2010 0346 5C4B     		ldr	r3, .L162+4
 2011 0348 1B78     		ldrb	r3, [r3]	@ zero_extendqisi2
 2012 034a DBB2     		uxtb	r3, r3
 2013 034c DBB2     		uxtb	r3, r3
 2014 034e 013B     		subs	r3, r3, #1
 2015 0350 DBB2     		uxtb	r3, r3
 2016 0352 DAB2     		uxtb	r2, r3
 2017 0354 584B     		ldr	r3, .L162+4
 2018 0356 1A70     		strb	r2, [r3]
 497:state_machine.c ****             if(Position_Number <0) Position_Number = 0;
 2019              		.loc 1 497 0
 2020 0358 574B     		ldr	r3, .L162+4
 2021 035a 1B78     		ldrb	r3, [r3]	@ zero_extendqisi2
 2022 035c 5BB2     		sxtb	r3, r3
 2023 035e 002B     		cmp	r3, #0
 2024 0360 02DA     		bge	.L106
 2025              		.loc 1 497 0 is_stmt 0 discriminator 1
 2026 0362 554B     		ldr	r3, .L162+4
 2027 0364 0022     		movs	r2, #0
 2028 0366 1A70     		strb	r2, [r3]
 2029              	.L106:
 498:state_machine.c ****             Buzzer_Shot(Push_Buzzer__Default_Lenght);
 2030              		.loc 1 498 0 is_stmt 1
 2031 0368 544B     		ldr	r3, .L162+8
 2032 036a 1B68     		ldr	r3, [r3]
 2033 036c 1846     		mov	r0, r3
 2034 036e FFF7FEFF 		bl	Buzzer_Shot
 2035              	.L105:
 499:state_machine.c ****         }
 500:state_machine.c ****         
 501:state_machine.c ****         
 502:state_machine.c ****         if(Current_Edit_Value == 0){ //Duty           
 2036              		.loc 1 502 0
 2037 0372 504B     		ldr	r3, .L162
 2038 0374 1B78     		ldrb	r3, [r3]	@ zero_extendqisi2
 2039 0376 002B     		cmp	r3, #0
 2040 0378 40F0B080 		bne	.L107
 503:state_machine.c ****             MaxSetValue = 100;
 2041              		.loc 1 503 0
 2042 037c 514B     		ldr	r3, .L162+16
 2043 037e 3B60     		str	r3, [r7]	@ float
 504:state_machine.c ****                         
 505:state_machine.c ****             Current_Counter = QD_GetCounter();
 2044              		.loc 1 505 0
 2045 0380 FFF7FEFF 		bl	QD_GetCounter
 2046 0384 0346     		mov	r3, r0
 2047 0386 1A46     		mov	r2, r3
 2048 0388 4F4B     		ldr	r3, .L162+20
 2049 038a 1A60     		str	r2, [r3]
 506:state_machine.c ****             
 507:state_machine.c ****             if(Position_Number == 0){
ARM GAS  C:\Users\KJA\AppData\Local\Temp\ccAyzU2h.s 			page 46


 2050              		.loc 1 507 0
 2051 038c 4A4B     		ldr	r3, .L162+4
 2052 038e 1B78     		ldrb	r3, [r3]	@ zero_extendqisi2
 2053 0390 002B     		cmp	r3, #0
 2054 0392 2AD1     		bne	.L108
 508:state_machine.c ****                 if(!(Last_Counter == Current_Counter)){
 2055              		.loc 1 508 0
 2056 0394 4D4B     		ldr	r3, .L162+24
 2057 0396 1A68     		ldr	r2, [r3]
 2058 0398 4B4B     		ldr	r3, .L162+20
 2059 039a 1B68     		ldr	r3, [r3]
 2060 039c 9A42     		cmp	r2, r3
 2061 039e 24D0     		beq	.L108
 509:state_machine.c ****                     if(Last_Counter > Current_Counter){
 2062              		.loc 1 509 0
 2063 03a0 4A4B     		ldr	r3, .L162+24
 2064 03a2 1A68     		ldr	r2, [r3]
 2065 03a4 484B     		ldr	r3, .L162+20
 2066 03a6 1B68     		ldr	r3, [r3]
 2067 03a8 9A42     		cmp	r2, r3
 2068 03aa 07DD     		ble	.L109
 510:state_machine.c ****                         Set_Duty_Temporary_Value = Set_Duty_Temporary_Value - 10;
 2069              		.loc 1 510 0
 2070 03ac 484B     		ldr	r3, .L162+28
 2071 03ae 1B78     		ldrb	r3, [r3]	@ zero_extendqisi2
 2072 03b0 DBB2     		uxtb	r3, r3
 2073 03b2 0A3B     		subs	r3, r3, #10
 2074 03b4 DBB2     		uxtb	r3, r3
 2075 03b6 DAB2     		uxtb	r2, r3
 2076 03b8 454B     		ldr	r3, .L162+28
 2077 03ba 1A70     		strb	r2, [r3]
 2078              	.L109:
 511:state_machine.c ****                     }
 512:state_machine.c ****                     if(Last_Counter < Current_Counter){
 2079              		.loc 1 512 0
 2080 03bc 434B     		ldr	r3, .L162+24
 2081 03be 1A68     		ldr	r2, [r3]
 2082 03c0 414B     		ldr	r3, .L162+20
 2083 03c2 1B68     		ldr	r3, [r3]
 2084 03c4 9A42     		cmp	r2, r3
 2085 03c6 07DA     		bge	.L110
 513:state_machine.c ****                         Set_Duty_Temporary_Value = Set_Duty_Temporary_Value + 10;
 2086              		.loc 1 513 0
 2087 03c8 414B     		ldr	r3, .L162+28
 2088 03ca 1B78     		ldrb	r3, [r3]	@ zero_extendqisi2
 2089 03cc DBB2     		uxtb	r3, r3
 2090 03ce 0A33     		adds	r3, r3, #10
 2091 03d0 DBB2     		uxtb	r3, r3
 2092 03d2 DAB2     		uxtb	r2, r3
 2093 03d4 3E4B     		ldr	r3, .L162+28
 2094 03d6 1A70     		strb	r2, [r3]
 2095              	.L110:
 514:state_machine.c ****                     }
 515:state_machine.c ****                     Last_Counter = Current_Counter;   
 2096              		.loc 1 515 0
 2097 03d8 3B4B     		ldr	r3, .L162+20
 2098 03da 1B68     		ldr	r3, [r3]
ARM GAS  C:\Users\KJA\AppData\Local\Temp\ccAyzU2h.s 			page 47


 2099 03dc 3B4A     		ldr	r2, .L162+24
 2100 03de 1360     		str	r3, [r2]
 516:state_machine.c ****                     Buzzer_Shot(Rotate_Buzzer__Default_Lenght);
 2101              		.loc 1 516 0
 2102 03e0 3C4B     		ldr	r3, .L162+32
 2103 03e2 1B68     		ldr	r3, [r3]
 2104 03e4 1846     		mov	r0, r3
 2105 03e6 FFF7FEFF 		bl	Buzzer_Shot
 2106              	.L108:
 517:state_machine.c ****                 }      
 518:state_machine.c ****             }        
 519:state_machine.c ****             
 520:state_machine.c ****             if(Position_Number == 1){
 2107              		.loc 1 520 0
 2108 03ea 334B     		ldr	r3, .L162+4
 2109 03ec 1B78     		ldrb	r3, [r3]	@ zero_extendqisi2
 2110 03ee 5BB2     		sxtb	r3, r3
 2111 03f0 012B     		cmp	r3, #1
 2112 03f2 2AD1     		bne	.L111
 521:state_machine.c ****                 if(!(Last_Counter == Current_Counter)){
 2113              		.loc 1 521 0
 2114 03f4 354B     		ldr	r3, .L162+24
 2115 03f6 1A68     		ldr	r2, [r3]
 2116 03f8 334B     		ldr	r3, .L162+20
 2117 03fa 1B68     		ldr	r3, [r3]
 2118 03fc 9A42     		cmp	r2, r3
 2119 03fe 24D0     		beq	.L111
 522:state_machine.c ****                     if(Last_Counter > Current_Counter){
 2120              		.loc 1 522 0
 2121 0400 324B     		ldr	r3, .L162+24
 2122 0402 1A68     		ldr	r2, [r3]
 2123 0404 304B     		ldr	r3, .L162+20
 2124 0406 1B68     		ldr	r3, [r3]
 2125 0408 9A42     		cmp	r2, r3
 2126 040a 07DD     		ble	.L112
 523:state_machine.c ****                         Set_Duty_Temporary_Value = Set_Duty_Temporary_Value - 1;
 2127              		.loc 1 523 0
 2128 040c 304B     		ldr	r3, .L162+28
 2129 040e 1B78     		ldrb	r3, [r3]	@ zero_extendqisi2
 2130 0410 DBB2     		uxtb	r3, r3
 2131 0412 013B     		subs	r3, r3, #1
 2132 0414 DBB2     		uxtb	r3, r3
 2133 0416 DAB2     		uxtb	r2, r3
 2134 0418 2D4B     		ldr	r3, .L162+28
 2135 041a 1A70     		strb	r2, [r3]
 2136              	.L112:
 524:state_machine.c ****                     }
 525:state_machine.c ****                     if(Last_Counter < Current_Counter){
 2137              		.loc 1 525 0
 2138 041c 2B4B     		ldr	r3, .L162+24
 2139 041e 1A68     		ldr	r2, [r3]
 2140 0420 294B     		ldr	r3, .L162+20
 2141 0422 1B68     		ldr	r3, [r3]
 2142 0424 9A42     		cmp	r2, r3
 2143 0426 07DA     		bge	.L113
 526:state_machine.c ****                         Set_Duty_Temporary_Value = Set_Duty_Temporary_Value + 1;
 2144              		.loc 1 526 0
ARM GAS  C:\Users\KJA\AppData\Local\Temp\ccAyzU2h.s 			page 48


 2145 0428 294B     		ldr	r3, .L162+28
 2146 042a 1B78     		ldrb	r3, [r3]	@ zero_extendqisi2
 2147 042c DBB2     		uxtb	r3, r3
 2148 042e 0133     		adds	r3, r3, #1
 2149 0430 DBB2     		uxtb	r3, r3
 2150 0432 DAB2     		uxtb	r2, r3
 2151 0434 264B     		ldr	r3, .L162+28
 2152 0436 1A70     		strb	r2, [r3]
 2153              	.L113:
 527:state_machine.c ****                     }
 528:state_machine.c ****                     Last_Counter = Current_Counter;   
 2154              		.loc 1 528 0
 2155 0438 234B     		ldr	r3, .L162+20
 2156 043a 1B68     		ldr	r3, [r3]
 2157 043c 234A     		ldr	r2, .L162+24
 2158 043e 1360     		str	r3, [r2]
 529:state_machine.c ****                     Buzzer_Shot(Rotate_Buzzer__Default_Lenght);
 2159              		.loc 1 529 0
 2160 0440 244B     		ldr	r3, .L162+32
 2161 0442 1B68     		ldr	r3, [r3]
 2162 0444 1846     		mov	r0, r3
 2163 0446 FFF7FEFF 		bl	Buzzer_Shot
 2164              	.L111:
 530:state_machine.c ****                 }      
 531:state_machine.c ****             }
 532:state_machine.c **** 
 533:state_machine.c ****             if(Set_Duty_Temporary_Value > MaxSetValue){
 2165              		.loc 1 533 0
 2166 044a 214B     		ldr	r3, .L162+28
 2167 044c 1B78     		ldrb	r3, [r3]	@ zero_extendqisi2
 2168 044e 5BB2     		sxtb	r3, r3
 2169 0450 1846     		mov	r0, r3
 2170 0452 FFF7FEFF 		bl	__aeabi_i2f
 2171 0456 0346     		mov	r3, r0
 2172 0458 1846     		mov	r0, r3
 2173 045a 3968     		ldr	r1, [r7]	@ float
 2174 045c FFF7FEFF 		bl	__aeabi_fcmpgt
 2175 0460 0346     		mov	r3, r0
 2176 0462 002B     		cmp	r3, #0
 2177 0464 0FD0     		beq	.L114
 534:state_machine.c ****                 Set_Duty_Temporary_Value = MaxSetValue;
 2178              		.loc 1 534 0
 2179 0466 3868     		ldr	r0, [r7]	@ float
 2180 0468 FFF7FEFF 		bl	__aeabi_f2iz
 2181 046c 0346     		mov	r3, r0
 2182 046e DAB2     		uxtb	r2, r3
 2183 0470 174B     		ldr	r3, .L162+28
 2184 0472 1A70     		strb	r2, [r3]
 535:state_machine.c ****                 Buzzer_Shot(10*Rotate_Buzzer__Default_Lenght);
 2185              		.loc 1 535 0
 2186 0474 174B     		ldr	r3, .L162+32
 2187 0476 1A68     		ldr	r2, [r3]
 2188 0478 1346     		mov	r3, r2
 2189 047a 9B00     		lsls	r3, r3, #2
 2190 047c 1344     		add	r3, r3, r2
 2191 047e 5B00     		lsls	r3, r3, #1
 2192 0480 1846     		mov	r0, r3
ARM GAS  C:\Users\KJA\AppData\Local\Temp\ccAyzU2h.s 			page 49


 2193 0482 FFF7FEFF 		bl	Buzzer_Shot
 2194              	.L114:
 536:state_machine.c ****             }
 537:state_machine.c ****             if(Set_Duty_Temporary_Value < 0){
 2195              		.loc 1 537 0
 2196 0486 124B     		ldr	r3, .L162+28
 2197 0488 1B78     		ldrb	r3, [r3]	@ zero_extendqisi2
 2198 048a 5BB2     		sxtb	r3, r3
 2199 048c 002B     		cmp	r3, #0
 2200 048e 0BDA     		bge	.L116
 538:state_machine.c ****                 Set_Duty_Temporary_Value = 0;
 2201              		.loc 1 538 0
 2202 0490 0F4B     		ldr	r3, .L162+28
 2203 0492 0022     		movs	r2, #0
 2204 0494 1A70     		strb	r2, [r3]
 539:state_machine.c ****                 Buzzer_Shot(10*Rotate_Buzzer__Default_Lenght);
 2205              		.loc 1 539 0
 2206 0496 0F4B     		ldr	r3, .L162+32
 2207 0498 1A68     		ldr	r2, [r3]
 2208 049a 1346     		mov	r3, r2
 2209 049c 9B00     		lsls	r3, r3, #2
 2210 049e 1344     		add	r3, r3, r2
 2211 04a0 5B00     		lsls	r3, r3, #1
 2212 04a2 1846     		mov	r0, r3
 2213 04a4 FFF7FEFF 		bl	Buzzer_Shot
 2214              	.L116:
 540:state_machine.c ****             }
 541:state_machine.c ****             Set_Duty = Set_Duty_Temporary_Value;  
 2215              		.loc 1 541 0
 2216 04a8 094B     		ldr	r3, .L162+28
 2217 04aa 1A78     		ldrb	r2, [r3]	@ zero_extendqisi2
 2218 04ac 0A4B     		ldr	r3, .L162+36
 2219 04ae 1A70     		strb	r2, [r3]
 2220 04b0 3BE2     		b	.L117
 2221              	.L163:
 2222 04b2 00BF     		.align	2
 2223              	.L162:
 2224 04b4 00000000 		.word	Current_Edit_Value
 2225 04b8 00000000 		.word	Position_Number
 2226 04bc 00000000 		.word	Push_Buzzer__Default_Lenght
 2227 04c0 00000000 		.word	button5
 2228 04c4 0000C842 		.word	1120403456
 2229 04c8 00000000 		.word	Current_Counter
 2230 04cc 00000000 		.word	Last_Counter
 2231 04d0 00000000 		.word	Set_Duty_Temporary_Value
 2232 04d4 00000000 		.word	Rotate_Buzzer__Default_Lenght
 2233 04d8 00000000 		.word	Set_Duty
 2234              	.L107:
 542:state_machine.c ****         }   
 543:state_machine.c ****         
 544:state_machine.c ****         
 545:state_machine.c ****         
 546:state_machine.c ****         else if(Current_Edit_Value == 1){ //Freq          
 2235              		.loc 1 546 0
 2236 04dc 8A4B     		ldr	r3, .L164
 2237 04de 1B78     		ldrb	r3, [r3]	@ zero_extendqisi2
 2238 04e0 012B     		cmp	r3, #1
ARM GAS  C:\Users\KJA\AppData\Local\Temp\ccAyzU2h.s 			page 50


 2239 04e2 40F02181 		bne	.L118
 547:state_machine.c ****             MaxSetValue = 50000;
 2240              		.loc 1 547 0
 2241 04e6 894B     		ldr	r3, .L164+4
 2242 04e8 3B60     		str	r3, [r7]	@ float
 548:state_machine.c ****                         
 549:state_machine.c ****             Current_Counter = QD_GetCounter();
 2243              		.loc 1 549 0
 2244 04ea FFF7FEFF 		bl	QD_GetCounter
 2245 04ee 0346     		mov	r3, r0
 2246 04f0 1A46     		mov	r2, r3
 2247 04f2 874B     		ldr	r3, .L164+8
 2248 04f4 1A60     		str	r2, [r3]
 550:state_machine.c ****             
 551:state_machine.c ****             if(Position_Number == 0){
 2249              		.loc 1 551 0
 2250 04f6 874B     		ldr	r3, .L164+12
 2251 04f8 1B78     		ldrb	r3, [r3]	@ zero_extendqisi2
 2252 04fa 002B     		cmp	r3, #0
 2253 04fc 28D1     		bne	.L119
 552:state_machine.c ****                 if(!(Last_Counter == Current_Counter)){
 2254              		.loc 1 552 0
 2255 04fe 864B     		ldr	r3, .L164+16
 2256 0500 1A68     		ldr	r2, [r3]
 2257 0502 834B     		ldr	r3, .L164+8
 2258 0504 1B68     		ldr	r3, [r3]
 2259 0506 9A42     		cmp	r2, r3
 2260 0508 22D0     		beq	.L119
 553:state_machine.c ****                     if(Last_Counter > Current_Counter){
 2261              		.loc 1 553 0
 2262 050a 834B     		ldr	r3, .L164+16
 2263 050c 1A68     		ldr	r2, [r3]
 2264 050e 804B     		ldr	r3, .L164+8
 2265 0510 1B68     		ldr	r3, [r3]
 2266 0512 9A42     		cmp	r2, r3
 2267 0514 06DD     		ble	.L120
 554:state_machine.c ****                         Set_Freq_Temporary_Value = Set_Freq_Temporary_Value - 10000;
 2268              		.loc 1 554 0
 2269 0516 814B     		ldr	r3, .L164+20
 2270 0518 1B68     		ldr	r3, [r3]
 2271 051a A3F51C53 		sub	r3, r3, #9984
 2272 051e 103B     		subs	r3, r3, #16
 2273 0520 7E4A     		ldr	r2, .L164+20
 2274 0522 1360     		str	r3, [r2]
 2275              	.L120:
 555:state_machine.c ****                     }
 556:state_machine.c ****                     if(Last_Counter < Current_Counter){
 2276              		.loc 1 556 0
 2277 0524 7C4B     		ldr	r3, .L164+16
 2278 0526 1A68     		ldr	r2, [r3]
 2279 0528 794B     		ldr	r3, .L164+8
 2280 052a 1B68     		ldr	r3, [r3]
 2281 052c 9A42     		cmp	r2, r3
 2282 052e 06DA     		bge	.L121
 557:state_machine.c ****                         Set_Freq_Temporary_Value = Set_Freq_Temporary_Value + 10000;
 2283              		.loc 1 557 0
 2284 0530 7A4B     		ldr	r3, .L164+20
ARM GAS  C:\Users\KJA\AppData\Local\Temp\ccAyzU2h.s 			page 51


 2285 0532 1B68     		ldr	r3, [r3]
 2286 0534 03F51C53 		add	r3, r3, #9984
 2287 0538 1033     		adds	r3, r3, #16
 2288 053a 784A     		ldr	r2, .L164+20
 2289 053c 1360     		str	r3, [r2]
 2290              	.L121:
 558:state_machine.c ****                     }
 559:state_machine.c ****                     Last_Counter = Current_Counter;   
 2291              		.loc 1 559 0
 2292 053e 744B     		ldr	r3, .L164+8
 2293 0540 1B68     		ldr	r3, [r3]
 2294 0542 754A     		ldr	r2, .L164+16
 2295 0544 1360     		str	r3, [r2]
 560:state_machine.c ****                     Buzzer_Shot(Rotate_Buzzer__Default_Lenght);
 2296              		.loc 1 560 0
 2297 0546 764B     		ldr	r3, .L164+24
 2298 0548 1B68     		ldr	r3, [r3]
 2299 054a 1846     		mov	r0, r3
 2300 054c FFF7FEFF 		bl	Buzzer_Shot
 2301              	.L119:
 561:state_machine.c ****                 }      
 562:state_machine.c ****             }        
 563:state_machine.c ****             
 564:state_machine.c ****             if(Position_Number == 1){
 2302              		.loc 1 564 0
 2303 0550 704B     		ldr	r3, .L164+12
 2304 0552 1B78     		ldrb	r3, [r3]	@ zero_extendqisi2
 2305 0554 5BB2     		sxtb	r3, r3
 2306 0556 012B     		cmp	r3, #1
 2307 0558 26D1     		bne	.L122
 565:state_machine.c ****                 if(!(Last_Counter == Current_Counter)){
 2308              		.loc 1 565 0
 2309 055a 6F4B     		ldr	r3, .L164+16
 2310 055c 1A68     		ldr	r2, [r3]
 2311 055e 6C4B     		ldr	r3, .L164+8
 2312 0560 1B68     		ldr	r3, [r3]
 2313 0562 9A42     		cmp	r2, r3
 2314 0564 20D0     		beq	.L122
 566:state_machine.c ****                     if(Last_Counter > Current_Counter){
 2315              		.loc 1 566 0
 2316 0566 6C4B     		ldr	r3, .L164+16
 2317 0568 1A68     		ldr	r2, [r3]
 2318 056a 694B     		ldr	r3, .L164+8
 2319 056c 1B68     		ldr	r3, [r3]
 2320 056e 9A42     		cmp	r2, r3
 2321 0570 05DD     		ble	.L123
 567:state_machine.c ****                         Set_Freq_Temporary_Value = Set_Freq_Temporary_Value - 1000;
 2322              		.loc 1 567 0
 2323 0572 6A4B     		ldr	r3, .L164+20
 2324 0574 1B68     		ldr	r3, [r3]
 2325 0576 A3F57A73 		sub	r3, r3, #1000
 2326 057a 684A     		ldr	r2, .L164+20
 2327 057c 1360     		str	r3, [r2]
 2328              	.L123:
 568:state_machine.c ****                     }
 569:state_machine.c ****                     if(Last_Counter < Current_Counter){
 2329              		.loc 1 569 0
ARM GAS  C:\Users\KJA\AppData\Local\Temp\ccAyzU2h.s 			page 52


 2330 057e 664B     		ldr	r3, .L164+16
 2331 0580 1A68     		ldr	r2, [r3]
 2332 0582 634B     		ldr	r3, .L164+8
 2333 0584 1B68     		ldr	r3, [r3]
 2334 0586 9A42     		cmp	r2, r3
 2335 0588 05DA     		bge	.L124
 570:state_machine.c ****                         Set_Freq_Temporary_Value = Set_Freq_Temporary_Value + 1000;
 2336              		.loc 1 570 0
 2337 058a 644B     		ldr	r3, .L164+20
 2338 058c 1B68     		ldr	r3, [r3]
 2339 058e 03F57A73 		add	r3, r3, #1000
 2340 0592 624A     		ldr	r2, .L164+20
 2341 0594 1360     		str	r3, [r2]
 2342              	.L124:
 571:state_machine.c ****                     }
 572:state_machine.c ****                     Last_Counter = Current_Counter;   
 2343              		.loc 1 572 0
 2344 0596 5E4B     		ldr	r3, .L164+8
 2345 0598 1B68     		ldr	r3, [r3]
 2346 059a 5F4A     		ldr	r2, .L164+16
 2347 059c 1360     		str	r3, [r2]
 573:state_machine.c ****                     Buzzer_Shot(Rotate_Buzzer__Default_Lenght);
 2348              		.loc 1 573 0
 2349 059e 604B     		ldr	r3, .L164+24
 2350 05a0 1B68     		ldr	r3, [r3]
 2351 05a2 1846     		mov	r0, r3
 2352 05a4 FFF7FEFF 		bl	Buzzer_Shot
 2353              	.L122:
 574:state_machine.c ****                 }      
 575:state_machine.c ****             }            
 576:state_machine.c ****             if(Position_Number == 2){
 2354              		.loc 1 576 0
 2355 05a8 5A4B     		ldr	r3, .L164+12
 2356 05aa 1B78     		ldrb	r3, [r3]	@ zero_extendqisi2
 2357 05ac 5BB2     		sxtb	r3, r3
 2358 05ae 022B     		cmp	r3, #2
 2359 05b0 24D1     		bne	.L125
 577:state_machine.c ****                 if(!(Last_Counter == Current_Counter)){
 2360              		.loc 1 577 0
 2361 05b2 594B     		ldr	r3, .L164+16
 2362 05b4 1A68     		ldr	r2, [r3]
 2363 05b6 564B     		ldr	r3, .L164+8
 2364 05b8 1B68     		ldr	r3, [r3]
 2365 05ba 9A42     		cmp	r2, r3
 2366 05bc 1ED0     		beq	.L125
 578:state_machine.c ****                     if(Last_Counter > Current_Counter){
 2367              		.loc 1 578 0
 2368 05be 564B     		ldr	r3, .L164+16
 2369 05c0 1A68     		ldr	r2, [r3]
 2370 05c2 534B     		ldr	r3, .L164+8
 2371 05c4 1B68     		ldr	r3, [r3]
 2372 05c6 9A42     		cmp	r2, r3
 2373 05c8 04DD     		ble	.L126
 579:state_machine.c ****                         Set_Freq_Temporary_Value = Set_Freq_Temporary_Value - 100;
 2374              		.loc 1 579 0
 2375 05ca 544B     		ldr	r3, .L164+20
 2376 05cc 1B68     		ldr	r3, [r3]
ARM GAS  C:\Users\KJA\AppData\Local\Temp\ccAyzU2h.s 			page 53


 2377 05ce 643B     		subs	r3, r3, #100
 2378 05d0 524A     		ldr	r2, .L164+20
 2379 05d2 1360     		str	r3, [r2]
 2380              	.L126:
 580:state_machine.c ****                     }
 581:state_machine.c ****                     if(Last_Counter < Current_Counter){
 2381              		.loc 1 581 0
 2382 05d4 504B     		ldr	r3, .L164+16
 2383 05d6 1A68     		ldr	r2, [r3]
 2384 05d8 4D4B     		ldr	r3, .L164+8
 2385 05da 1B68     		ldr	r3, [r3]
 2386 05dc 9A42     		cmp	r2, r3
 2387 05de 04DA     		bge	.L127
 582:state_machine.c ****                         Set_Freq_Temporary_Value = Set_Freq_Temporary_Value + 100;
 2388              		.loc 1 582 0
 2389 05e0 4E4B     		ldr	r3, .L164+20
 2390 05e2 1B68     		ldr	r3, [r3]
 2391 05e4 6433     		adds	r3, r3, #100
 2392 05e6 4D4A     		ldr	r2, .L164+20
 2393 05e8 1360     		str	r3, [r2]
 2394              	.L127:
 583:state_machine.c ****                     }
 584:state_machine.c ****                     Last_Counter = Current_Counter;   
 2395              		.loc 1 584 0
 2396 05ea 494B     		ldr	r3, .L164+8
 2397 05ec 1B68     		ldr	r3, [r3]
 2398 05ee 4A4A     		ldr	r2, .L164+16
 2399 05f0 1360     		str	r3, [r2]
 585:state_machine.c ****                     Buzzer_Shot(Rotate_Buzzer__Default_Lenght);
 2400              		.loc 1 585 0
 2401 05f2 4B4B     		ldr	r3, .L164+24
 2402 05f4 1B68     		ldr	r3, [r3]
 2403 05f6 1846     		mov	r0, r3
 2404 05f8 FFF7FEFF 		bl	Buzzer_Shot
 2405              	.L125:
 586:state_machine.c ****                 }      
 587:state_machine.c ****             }
 588:state_machine.c ****             if(Position_Number == 3){
 2406              		.loc 1 588 0
 2407 05fc 454B     		ldr	r3, .L164+12
 2408 05fe 1B78     		ldrb	r3, [r3]	@ zero_extendqisi2
 2409 0600 5BB2     		sxtb	r3, r3
 2410 0602 032B     		cmp	r3, #3
 2411 0604 24D1     		bne	.L128
 589:state_machine.c ****                 if(!(Last_Counter == Current_Counter)){
 2412              		.loc 1 589 0
 2413 0606 444B     		ldr	r3, .L164+16
 2414 0608 1A68     		ldr	r2, [r3]
 2415 060a 414B     		ldr	r3, .L164+8
 2416 060c 1B68     		ldr	r3, [r3]
 2417 060e 9A42     		cmp	r2, r3
 2418 0610 1ED0     		beq	.L128
 590:state_machine.c ****                     if(Last_Counter > Current_Counter){
 2419              		.loc 1 590 0
 2420 0612 414B     		ldr	r3, .L164+16
 2421 0614 1A68     		ldr	r2, [r3]
 2422 0616 3E4B     		ldr	r3, .L164+8
ARM GAS  C:\Users\KJA\AppData\Local\Temp\ccAyzU2h.s 			page 54


 2423 0618 1B68     		ldr	r3, [r3]
 2424 061a 9A42     		cmp	r2, r3
 2425 061c 04DD     		ble	.L129
 591:state_machine.c ****                         Set_Freq_Temporary_Value = Set_Freq_Temporary_Value - 10;
 2426              		.loc 1 591 0
 2427 061e 3F4B     		ldr	r3, .L164+20
 2428 0620 1B68     		ldr	r3, [r3]
 2429 0622 0A3B     		subs	r3, r3, #10
 2430 0624 3D4A     		ldr	r2, .L164+20
 2431 0626 1360     		str	r3, [r2]
 2432              	.L129:
 592:state_machine.c ****                     }
 593:state_machine.c ****                     if(Last_Counter < Current_Counter){
 2433              		.loc 1 593 0
 2434 0628 3B4B     		ldr	r3, .L164+16
 2435 062a 1A68     		ldr	r2, [r3]
 2436 062c 384B     		ldr	r3, .L164+8
 2437 062e 1B68     		ldr	r3, [r3]
 2438 0630 9A42     		cmp	r2, r3
 2439 0632 04DA     		bge	.L130
 594:state_machine.c ****                         Set_Freq_Temporary_Value = Set_Freq_Temporary_Value + 10;
 2440              		.loc 1 594 0
 2441 0634 394B     		ldr	r3, .L164+20
 2442 0636 1B68     		ldr	r3, [r3]
 2443 0638 0A33     		adds	r3, r3, #10
 2444 063a 384A     		ldr	r2, .L164+20
 2445 063c 1360     		str	r3, [r2]
 2446              	.L130:
 595:state_machine.c ****                     }
 596:state_machine.c ****                     Last_Counter = Current_Counter;   
 2447              		.loc 1 596 0
 2448 063e 344B     		ldr	r3, .L164+8
 2449 0640 1B68     		ldr	r3, [r3]
 2450 0642 354A     		ldr	r2, .L164+16
 2451 0644 1360     		str	r3, [r2]
 597:state_machine.c ****                     Buzzer_Shot(Rotate_Buzzer__Default_Lenght);
 2452              		.loc 1 597 0
 2453 0646 364B     		ldr	r3, .L164+24
 2454 0648 1B68     		ldr	r3, [r3]
 2455 064a 1846     		mov	r0, r3
 2456 064c FFF7FEFF 		bl	Buzzer_Shot
 2457              	.L128:
 598:state_machine.c ****                 }      
 599:state_machine.c ****             }
 600:state_machine.c ****             if(Position_Number == 4){
 2458              		.loc 1 600 0
 2459 0650 304B     		ldr	r3, .L164+12
 2460 0652 1B78     		ldrb	r3, [r3]	@ zero_extendqisi2
 2461 0654 5BB2     		sxtb	r3, r3
 2462 0656 042B     		cmp	r3, #4
 2463 0658 24D1     		bne	.L131
 601:state_machine.c ****                 if(!(Last_Counter == Current_Counter)){
 2464              		.loc 1 601 0
 2465 065a 2F4B     		ldr	r3, .L164+16
 2466 065c 1A68     		ldr	r2, [r3]
 2467 065e 2C4B     		ldr	r3, .L164+8
 2468 0660 1B68     		ldr	r3, [r3]
ARM GAS  C:\Users\KJA\AppData\Local\Temp\ccAyzU2h.s 			page 55


 2469 0662 9A42     		cmp	r2, r3
 2470 0664 1ED0     		beq	.L131
 602:state_machine.c ****                     if(Last_Counter > Current_Counter){
 2471              		.loc 1 602 0
 2472 0666 2C4B     		ldr	r3, .L164+16
 2473 0668 1A68     		ldr	r2, [r3]
 2474 066a 294B     		ldr	r3, .L164+8
 2475 066c 1B68     		ldr	r3, [r3]
 2476 066e 9A42     		cmp	r2, r3
 2477 0670 04DD     		ble	.L132
 603:state_machine.c ****                         Set_Freq_Temporary_Value = Set_Freq_Temporary_Value - 1;
 2478              		.loc 1 603 0
 2479 0672 2A4B     		ldr	r3, .L164+20
 2480 0674 1B68     		ldr	r3, [r3]
 2481 0676 013B     		subs	r3, r3, #1
 2482 0678 284A     		ldr	r2, .L164+20
 2483 067a 1360     		str	r3, [r2]
 2484              	.L132:
 604:state_machine.c ****                     }
 605:state_machine.c ****                     if(Last_Counter < Current_Counter){
 2485              		.loc 1 605 0
 2486 067c 264B     		ldr	r3, .L164+16
 2487 067e 1A68     		ldr	r2, [r3]
 2488 0680 234B     		ldr	r3, .L164+8
 2489 0682 1B68     		ldr	r3, [r3]
 2490 0684 9A42     		cmp	r2, r3
 2491 0686 04DA     		bge	.L133
 606:state_machine.c ****                         Set_Freq_Temporary_Value = Set_Freq_Temporary_Value + 1;
 2492              		.loc 1 606 0
 2493 0688 244B     		ldr	r3, .L164+20
 2494 068a 1B68     		ldr	r3, [r3]
 2495 068c 0133     		adds	r3, r3, #1
 2496 068e 234A     		ldr	r2, .L164+20
 2497 0690 1360     		str	r3, [r2]
 2498              	.L133:
 607:state_machine.c ****                     }
 608:state_machine.c ****                     Last_Counter = Current_Counter;   
 2499              		.loc 1 608 0
 2500 0692 1F4B     		ldr	r3, .L164+8
 2501 0694 1B68     		ldr	r3, [r3]
 2502 0696 204A     		ldr	r2, .L164+16
 2503 0698 1360     		str	r3, [r2]
 609:state_machine.c ****                     Buzzer_Shot(Rotate_Buzzer__Default_Lenght);
 2504              		.loc 1 609 0
 2505 069a 214B     		ldr	r3, .L164+24
 2506 069c 1B68     		ldr	r3, [r3]
 2507 069e 1846     		mov	r0, r3
 2508 06a0 FFF7FEFF 		bl	Buzzer_Shot
 2509              	.L131:
 610:state_machine.c ****                 }      
 611:state_machine.c ****             }
 612:state_machine.c ****             
 613:state_machine.c **** 
 614:state_machine.c ****             if(Set_Freq_Temporary_Value > MaxSetValue){
 2510              		.loc 1 614 0
 2511 06a4 1D4B     		ldr	r3, .L164+20
 2512 06a6 1B68     		ldr	r3, [r3]
ARM GAS  C:\Users\KJA\AppData\Local\Temp\ccAyzU2h.s 			page 56


 2513 06a8 1846     		mov	r0, r3
 2514 06aa FFF7FEFF 		bl	__aeabi_i2f
 2515 06ae 0346     		mov	r3, r0
 2516 06b0 1846     		mov	r0, r3
 2517 06b2 3968     		ldr	r1, [r7]	@ float
 2518 06b4 FFF7FEFF 		bl	__aeabi_fcmpgt
 2519 06b8 0346     		mov	r3, r0
 2520 06ba 002B     		cmp	r3, #0
 2521 06bc 0ED0     		beq	.L134
 615:state_machine.c ****                 Set_Freq_Temporary_Value = MaxSetValue;
 2522              		.loc 1 615 0
 2523 06be 3868     		ldr	r0, [r7]	@ float
 2524 06c0 FFF7FEFF 		bl	__aeabi_f2iz
 2525 06c4 0246     		mov	r2, r0
 2526 06c6 154B     		ldr	r3, .L164+20
 2527 06c8 1A60     		str	r2, [r3]
 616:state_machine.c ****                 Buzzer_Shot(10*Rotate_Buzzer__Default_Lenght);
 2528              		.loc 1 616 0
 2529 06ca 154B     		ldr	r3, .L164+24
 2530 06cc 1A68     		ldr	r2, [r3]
 2531 06ce 1346     		mov	r3, r2
 2532 06d0 9B00     		lsls	r3, r3, #2
 2533 06d2 1344     		add	r3, r3, r2
 2534 06d4 5B00     		lsls	r3, r3, #1
 2535 06d6 1846     		mov	r0, r3
 2536 06d8 FFF7FEFF 		bl	Buzzer_Shot
 2537              	.L134:
 617:state_machine.c ****             }
 618:state_machine.c ****             if(Set_Freq_Temporary_Value < 0){
 2538              		.loc 1 618 0
 2539 06dc 0F4B     		ldr	r3, .L164+20
 2540 06de 1B68     		ldr	r3, [r3]
 2541 06e0 002B     		cmp	r3, #0
 2542 06e2 0BDA     		bge	.L136
 619:state_machine.c ****                 Set_Freq_Temporary_Value = 0;
 2543              		.loc 1 619 0
 2544 06e4 0D4B     		ldr	r3, .L164+20
 2545 06e6 0022     		movs	r2, #0
 2546 06e8 1A60     		str	r2, [r3]
 620:state_machine.c ****                 Buzzer_Shot(10*Rotate_Buzzer__Default_Lenght);
 2547              		.loc 1 620 0
 2548 06ea 0D4B     		ldr	r3, .L164+24
 2549 06ec 1A68     		ldr	r2, [r3]
 2550 06ee 1346     		mov	r3, r2
 2551 06f0 9B00     		lsls	r3, r3, #2
 2552 06f2 1344     		add	r3, r3, r2
 2553 06f4 5B00     		lsls	r3, r3, #1
 2554 06f6 1846     		mov	r0, r3
 2555 06f8 FFF7FEFF 		bl	Buzzer_Shot
 2556              	.L136:
 621:state_machine.c ****             }
 622:state_machine.c ****             Set_Freq = Set_Freq_Temporary_Value;  
 2557              		.loc 1 622 0
 2558 06fc 074B     		ldr	r3, .L164+20
 2559 06fe 1B68     		ldr	r3, [r3]
 2560 0700 9AB2     		uxth	r2, r3
 2561 0702 084B     		ldr	r3, .L164+28
ARM GAS  C:\Users\KJA\AppData\Local\Temp\ccAyzU2h.s 			page 57


 2562 0704 1A80     		strh	r2, [r3]	@ movhi
 2563 0706 10E1     		b	.L117
 2564              	.L165:
 2565              		.align	2
 2566              	.L164:
 2567 0708 00000000 		.word	Current_Edit_Value
 2568 070c 00504347 		.word	1195593728
 2569 0710 00000000 		.word	Current_Counter
 2570 0714 00000000 		.word	Position_Number
 2571 0718 00000000 		.word	Last_Counter
 2572 071c 00000000 		.word	Set_Freq_Temporary_Value
 2573 0720 00000000 		.word	Rotate_Buzzer__Default_Lenght
 2574 0724 00000000 		.word	Set_Freq
 2575              	.L118:
 623:state_machine.c ****         }  
 624:state_machine.c ****         
 625:state_machine.c ****         else if(Current_Edit_Value == 2){ //Ampl       
 2576              		.loc 1 625 0
 2577 0728 954B     		ldr	r3, .L166
 2578 072a 1B78     		ldrb	r3, [r3]	@ zero_extendqisi2
 2579 072c 022B     		cmp	r3, #2
 2580 072e 40F0FC80 		bne	.L117
 626:state_machine.c ****             MaxSetValue = 2000;
 2581              		.loc 1 626 0
 2582 0732 944B     		ldr	r3, .L166+4
 2583 0734 3B60     		str	r3, [r7]	@ float
 627:state_machine.c ****                         
 628:state_machine.c ****             Current_Counter = QD_GetCounter();
 2584              		.loc 1 628 0
 2585 0736 FFF7FEFF 		bl	QD_GetCounter
 2586 073a 0346     		mov	r3, r0
 2587 073c 1A46     		mov	r2, r3
 2588 073e 924B     		ldr	r3, .L166+8
 2589 0740 1A60     		str	r2, [r3]
 629:state_machine.c ****             
 630:state_machine.c ****             if(Position_Number == 0){
 2590              		.loc 1 630 0
 2591 0742 924B     		ldr	r3, .L166+12
 2592 0744 1B78     		ldrb	r3, [r3]	@ zero_extendqisi2
 2593 0746 002B     		cmp	r3, #0
 2594 0748 2CD1     		bne	.L137
 631:state_machine.c ****                 if(!(Last_Counter == Current_Counter)){
 2595              		.loc 1 631 0
 2596 074a 914B     		ldr	r3, .L166+16
 2597 074c 1A68     		ldr	r2, [r3]
 2598 074e 8E4B     		ldr	r3, .L166+8
 2599 0750 1B68     		ldr	r3, [r3]
 2600 0752 9A42     		cmp	r2, r3
 2601 0754 26D0     		beq	.L137
 632:state_machine.c ****                     if(Last_Counter > Current_Counter){
 2602              		.loc 1 632 0
 2603 0756 8E4B     		ldr	r3, .L166+16
 2604 0758 1A68     		ldr	r2, [r3]
 2605 075a 8B4B     		ldr	r3, .L166+8
 2606 075c 1B68     		ldr	r3, [r3]
 2607 075e 9A42     		cmp	r2, r3
 2608 0760 08DD     		ble	.L138
ARM GAS  C:\Users\KJA\AppData\Local\Temp\ccAyzU2h.s 			page 58


 633:state_machine.c ****                         Set_Ampl_Temporary_Value = Set_Ampl_Temporary_Value - 1000;
 2609              		.loc 1 633 0
 2610 0762 8C4B     		ldr	r3, .L166+20
 2611 0764 1B88     		ldrh	r3, [r3]
 2612 0766 9BB2     		uxth	r3, r3
 2613 0768 A3F57A73 		sub	r3, r3, #1000
 2614 076c 9BB2     		uxth	r3, r3
 2615 076e 9AB2     		uxth	r2, r3
 2616 0770 884B     		ldr	r3, .L166+20
 2617 0772 1A80     		strh	r2, [r3]	@ movhi
 2618              	.L138:
 634:state_machine.c ****                     }
 635:state_machine.c ****                     if(Last_Counter < Current_Counter){
 2619              		.loc 1 635 0
 2620 0774 864B     		ldr	r3, .L166+16
 2621 0776 1A68     		ldr	r2, [r3]
 2622 0778 834B     		ldr	r3, .L166+8
 2623 077a 1B68     		ldr	r3, [r3]
 2624 077c 9A42     		cmp	r2, r3
 2625 077e 08DA     		bge	.L139
 636:state_machine.c ****                         Set_Ampl_Temporary_Value = Set_Ampl_Temporary_Value + 1000;
 2626              		.loc 1 636 0
 2627 0780 844B     		ldr	r3, .L166+20
 2628 0782 1B88     		ldrh	r3, [r3]
 2629 0784 9BB2     		uxth	r3, r3
 2630 0786 03F57A73 		add	r3, r3, #1000
 2631 078a 9BB2     		uxth	r3, r3
 2632 078c 9AB2     		uxth	r2, r3
 2633 078e 814B     		ldr	r3, .L166+20
 2634 0790 1A80     		strh	r2, [r3]	@ movhi
 2635              	.L139:
 637:state_machine.c ****                     }
 638:state_machine.c ****                     Last_Counter = Current_Counter;   
 2636              		.loc 1 638 0
 2637 0792 7D4B     		ldr	r3, .L166+8
 2638 0794 1B68     		ldr	r3, [r3]
 2639 0796 7E4A     		ldr	r2, .L166+16
 2640 0798 1360     		str	r3, [r2]
 639:state_machine.c ****                     Buzzer_Shot(Rotate_Buzzer__Default_Lenght);
 2641              		.loc 1 639 0
 2642 079a 7F4B     		ldr	r3, .L166+24
 2643 079c 1B68     		ldr	r3, [r3]
 2644 079e 1846     		mov	r0, r3
 2645 07a0 FFF7FEFF 		bl	Buzzer_Shot
 2646              	.L137:
 640:state_machine.c ****                 }      
 641:state_machine.c ****             }        
 642:state_machine.c ****             
 643:state_machine.c ****             if(Position_Number == 1){
 2647              		.loc 1 643 0
 2648 07a4 794B     		ldr	r3, .L166+12
 2649 07a6 1B78     		ldrb	r3, [r3]	@ zero_extendqisi2
 2650 07a8 5BB2     		sxtb	r3, r3
 2651 07aa 012B     		cmp	r3, #1
 2652 07ac 2AD1     		bne	.L140
 644:state_machine.c ****                 if(!(Last_Counter == Current_Counter)){
 2653              		.loc 1 644 0
ARM GAS  C:\Users\KJA\AppData\Local\Temp\ccAyzU2h.s 			page 59


 2654 07ae 784B     		ldr	r3, .L166+16
 2655 07b0 1A68     		ldr	r2, [r3]
 2656 07b2 754B     		ldr	r3, .L166+8
 2657 07b4 1B68     		ldr	r3, [r3]
 2658 07b6 9A42     		cmp	r2, r3
 2659 07b8 24D0     		beq	.L140
 645:state_machine.c ****                     if(Last_Counter > Current_Counter){
 2660              		.loc 1 645 0
 2661 07ba 754B     		ldr	r3, .L166+16
 2662 07bc 1A68     		ldr	r2, [r3]
 2663 07be 724B     		ldr	r3, .L166+8
 2664 07c0 1B68     		ldr	r3, [r3]
 2665 07c2 9A42     		cmp	r2, r3
 2666 07c4 07DD     		ble	.L141
 646:state_machine.c ****                         Set_Ampl_Temporary_Value = Set_Ampl_Temporary_Value - 100;
 2667              		.loc 1 646 0
 2668 07c6 734B     		ldr	r3, .L166+20
 2669 07c8 1B88     		ldrh	r3, [r3]
 2670 07ca 9BB2     		uxth	r3, r3
 2671 07cc 643B     		subs	r3, r3, #100
 2672 07ce 9BB2     		uxth	r3, r3
 2673 07d0 9AB2     		uxth	r2, r3
 2674 07d2 704B     		ldr	r3, .L166+20
 2675 07d4 1A80     		strh	r2, [r3]	@ movhi
 2676              	.L141:
 647:state_machine.c ****                     }
 648:state_machine.c ****                     if(Last_Counter < Current_Counter){
 2677              		.loc 1 648 0
 2678 07d6 6E4B     		ldr	r3, .L166+16
 2679 07d8 1A68     		ldr	r2, [r3]
 2680 07da 6B4B     		ldr	r3, .L166+8
 2681 07dc 1B68     		ldr	r3, [r3]
 2682 07de 9A42     		cmp	r2, r3
 2683 07e0 07DA     		bge	.L142
 649:state_machine.c ****                         Set_Ampl_Temporary_Value = Set_Ampl_Temporary_Value + 100;
 2684              		.loc 1 649 0
 2685 07e2 6C4B     		ldr	r3, .L166+20
 2686 07e4 1B88     		ldrh	r3, [r3]
 2687 07e6 9BB2     		uxth	r3, r3
 2688 07e8 6433     		adds	r3, r3, #100
 2689 07ea 9BB2     		uxth	r3, r3
 2690 07ec 9AB2     		uxth	r2, r3
 2691 07ee 694B     		ldr	r3, .L166+20
 2692 07f0 1A80     		strh	r2, [r3]	@ movhi
 2693              	.L142:
 650:state_machine.c ****                     }
 651:state_machine.c ****                     Last_Counter = Current_Counter;   
 2694              		.loc 1 651 0
 2695 07f2 654B     		ldr	r3, .L166+8
 2696 07f4 1B68     		ldr	r3, [r3]
 2697 07f6 664A     		ldr	r2, .L166+16
 2698 07f8 1360     		str	r3, [r2]
 652:state_machine.c ****                     Buzzer_Shot(Rotate_Buzzer__Default_Lenght);
 2699              		.loc 1 652 0
 2700 07fa 674B     		ldr	r3, .L166+24
 2701 07fc 1B68     		ldr	r3, [r3]
 2702 07fe 1846     		mov	r0, r3
ARM GAS  C:\Users\KJA\AppData\Local\Temp\ccAyzU2h.s 			page 60


 2703 0800 FFF7FEFF 		bl	Buzzer_Shot
 2704              	.L140:
 653:state_machine.c ****                 }      
 654:state_machine.c ****             }
 655:state_machine.c ****             if(Position_Number == 2){
 2705              		.loc 1 655 0
 2706 0804 614B     		ldr	r3, .L166+12
 2707 0806 1B78     		ldrb	r3, [r3]	@ zero_extendqisi2
 2708 0808 5BB2     		sxtb	r3, r3
 2709 080a 022B     		cmp	r3, #2
 2710 080c 2AD1     		bne	.L143
 656:state_machine.c ****                 if(!(Last_Counter == Current_Counter)){
 2711              		.loc 1 656 0
 2712 080e 604B     		ldr	r3, .L166+16
 2713 0810 1A68     		ldr	r2, [r3]
 2714 0812 5D4B     		ldr	r3, .L166+8
 2715 0814 1B68     		ldr	r3, [r3]
 2716 0816 9A42     		cmp	r2, r3
 2717 0818 24D0     		beq	.L143
 657:state_machine.c ****                     if(Last_Counter > Current_Counter){
 2718              		.loc 1 657 0
 2719 081a 5D4B     		ldr	r3, .L166+16
 2720 081c 1A68     		ldr	r2, [r3]
 2721 081e 5A4B     		ldr	r3, .L166+8
 2722 0820 1B68     		ldr	r3, [r3]
 2723 0822 9A42     		cmp	r2, r3
 2724 0824 07DD     		ble	.L144
 658:state_machine.c ****                         Set_Ampl_Temporary_Value = Set_Ampl_Temporary_Value - 10;
 2725              		.loc 1 658 0
 2726 0826 5B4B     		ldr	r3, .L166+20
 2727 0828 1B88     		ldrh	r3, [r3]
 2728 082a 9BB2     		uxth	r3, r3
 2729 082c 0A3B     		subs	r3, r3, #10
 2730 082e 9BB2     		uxth	r3, r3
 2731 0830 9AB2     		uxth	r2, r3
 2732 0832 584B     		ldr	r3, .L166+20
 2733 0834 1A80     		strh	r2, [r3]	@ movhi
 2734              	.L144:
 659:state_machine.c ****                     }
 660:state_machine.c ****                     if(Last_Counter < Current_Counter){
 2735              		.loc 1 660 0
 2736 0836 564B     		ldr	r3, .L166+16
 2737 0838 1A68     		ldr	r2, [r3]
 2738 083a 534B     		ldr	r3, .L166+8
 2739 083c 1B68     		ldr	r3, [r3]
 2740 083e 9A42     		cmp	r2, r3
 2741 0840 07DA     		bge	.L145
 661:state_machine.c ****                         Set_Ampl_Temporary_Value = Set_Ampl_Temporary_Value + 10;
 2742              		.loc 1 661 0
 2743 0842 544B     		ldr	r3, .L166+20
 2744 0844 1B88     		ldrh	r3, [r3]
 2745 0846 9BB2     		uxth	r3, r3
 2746 0848 0A33     		adds	r3, r3, #10
 2747 084a 9BB2     		uxth	r3, r3
 2748 084c 9AB2     		uxth	r2, r3
 2749 084e 514B     		ldr	r3, .L166+20
 2750 0850 1A80     		strh	r2, [r3]	@ movhi
ARM GAS  C:\Users\KJA\AppData\Local\Temp\ccAyzU2h.s 			page 61


 2751              	.L145:
 662:state_machine.c ****                     }
 663:state_machine.c ****                     Last_Counter = Current_Counter;   
 2752              		.loc 1 663 0
 2753 0852 4D4B     		ldr	r3, .L166+8
 2754 0854 1B68     		ldr	r3, [r3]
 2755 0856 4E4A     		ldr	r2, .L166+16
 2756 0858 1360     		str	r3, [r2]
 664:state_machine.c ****                     Buzzer_Shot(Rotate_Buzzer__Default_Lenght);
 2757              		.loc 1 664 0
 2758 085a 4F4B     		ldr	r3, .L166+24
 2759 085c 1B68     		ldr	r3, [r3]
 2760 085e 1846     		mov	r0, r3
 2761 0860 FFF7FEFF 		bl	Buzzer_Shot
 2762              	.L143:
 665:state_machine.c ****                 }      
 666:state_machine.c ****             } 
 667:state_machine.c ****             if(Position_Number == 3){
 2763              		.loc 1 667 0
 2764 0864 494B     		ldr	r3, .L166+12
 2765 0866 1B78     		ldrb	r3, [r3]	@ zero_extendqisi2
 2766 0868 5BB2     		sxtb	r3, r3
 2767 086a 032B     		cmp	r3, #3
 2768 086c 2AD1     		bne	.L146
 668:state_machine.c ****                 if(!(Last_Counter == Current_Counter)){
 2769              		.loc 1 668 0
 2770 086e 484B     		ldr	r3, .L166+16
 2771 0870 1A68     		ldr	r2, [r3]
 2772 0872 454B     		ldr	r3, .L166+8
 2773 0874 1B68     		ldr	r3, [r3]
 2774 0876 9A42     		cmp	r2, r3
 2775 0878 24D0     		beq	.L146
 669:state_machine.c ****                     if(Last_Counter > Current_Counter){
 2776              		.loc 1 669 0
 2777 087a 454B     		ldr	r3, .L166+16
 2778 087c 1A68     		ldr	r2, [r3]
 2779 087e 424B     		ldr	r3, .L166+8
 2780 0880 1B68     		ldr	r3, [r3]
 2781 0882 9A42     		cmp	r2, r3
 2782 0884 07DD     		ble	.L147
 670:state_machine.c ****                         Set_Ampl_Temporary_Value = Set_Ampl_Temporary_Value - 1;
 2783              		.loc 1 670 0
 2784 0886 434B     		ldr	r3, .L166+20
 2785 0888 1B88     		ldrh	r3, [r3]
 2786 088a 9BB2     		uxth	r3, r3
 2787 088c 013B     		subs	r3, r3, #1
 2788 088e 9BB2     		uxth	r3, r3
 2789 0890 9AB2     		uxth	r2, r3
 2790 0892 404B     		ldr	r3, .L166+20
 2791 0894 1A80     		strh	r2, [r3]	@ movhi
 2792              	.L147:
 671:state_machine.c ****                     }
 672:state_machine.c ****                     if(Last_Counter < Current_Counter){
 2793              		.loc 1 672 0
 2794 0896 3E4B     		ldr	r3, .L166+16
 2795 0898 1A68     		ldr	r2, [r3]
 2796 089a 3B4B     		ldr	r3, .L166+8
ARM GAS  C:\Users\KJA\AppData\Local\Temp\ccAyzU2h.s 			page 62


 2797 089c 1B68     		ldr	r3, [r3]
 2798 089e 9A42     		cmp	r2, r3
 2799 08a0 07DA     		bge	.L148
 673:state_machine.c ****                         Set_Ampl_Temporary_Value = Set_Ampl_Temporary_Value + 1;
 2800              		.loc 1 673 0
 2801 08a2 3C4B     		ldr	r3, .L166+20
 2802 08a4 1B88     		ldrh	r3, [r3]
 2803 08a6 9BB2     		uxth	r3, r3
 2804 08a8 0133     		adds	r3, r3, #1
 2805 08aa 9BB2     		uxth	r3, r3
 2806 08ac 9AB2     		uxth	r2, r3
 2807 08ae 394B     		ldr	r3, .L166+20
 2808 08b0 1A80     		strh	r2, [r3]	@ movhi
 2809              	.L148:
 674:state_machine.c ****                     }
 675:state_machine.c ****                     Last_Counter = Current_Counter;   
 2810              		.loc 1 675 0
 2811 08b2 354B     		ldr	r3, .L166+8
 2812 08b4 1B68     		ldr	r3, [r3]
 2813 08b6 364A     		ldr	r2, .L166+16
 2814 08b8 1360     		str	r3, [r2]
 676:state_machine.c ****                     Buzzer_Shot(Rotate_Buzzer__Default_Lenght);
 2815              		.loc 1 676 0
 2816 08ba 374B     		ldr	r3, .L166+24
 2817 08bc 1B68     		ldr	r3, [r3]
 2818 08be 1846     		mov	r0, r3
 2819 08c0 FFF7FEFF 		bl	Buzzer_Shot
 2820              	.L146:
 677:state_machine.c ****                 }      
 678:state_machine.c ****             } 
 679:state_machine.c **** 
 680:state_machine.c ****             if(Set_Ampl_Temporary_Value > MaxSetValue){
 2821              		.loc 1 680 0
 2822 08c4 334B     		ldr	r3, .L166+20
 2823 08c6 1B88     		ldrh	r3, [r3]
 2824 08c8 1BB2     		sxth	r3, r3
 2825 08ca 1846     		mov	r0, r3
 2826 08cc FFF7FEFF 		bl	__aeabi_i2f
 2827 08d0 0346     		mov	r3, r0
 2828 08d2 1846     		mov	r0, r3
 2829 08d4 3968     		ldr	r1, [r7]	@ float
 2830 08d6 FFF7FEFF 		bl	__aeabi_fcmpgt
 2831 08da 0346     		mov	r3, r0
 2832 08dc 002B     		cmp	r3, #0
 2833 08de 0FD0     		beq	.L149
 681:state_machine.c ****                 Set_Ampl_Temporary_Value = MaxSetValue;
 2834              		.loc 1 681 0
 2835 08e0 3868     		ldr	r0, [r7]	@ float
 2836 08e2 FFF7FEFF 		bl	__aeabi_f2iz
 2837 08e6 0346     		mov	r3, r0
 2838 08e8 9AB2     		uxth	r2, r3
 2839 08ea 2A4B     		ldr	r3, .L166+20
 2840 08ec 1A80     		strh	r2, [r3]	@ movhi
 682:state_machine.c ****                 Buzzer_Shot(10*Rotate_Buzzer__Default_Lenght);
 2841              		.loc 1 682 0
 2842 08ee 2A4B     		ldr	r3, .L166+24
 2843 08f0 1A68     		ldr	r2, [r3]
ARM GAS  C:\Users\KJA\AppData\Local\Temp\ccAyzU2h.s 			page 63


 2844 08f2 1346     		mov	r3, r2
 2845 08f4 9B00     		lsls	r3, r3, #2
 2846 08f6 1344     		add	r3, r3, r2
 2847 08f8 5B00     		lsls	r3, r3, #1
 2848 08fa 1846     		mov	r0, r3
 2849 08fc FFF7FEFF 		bl	Buzzer_Shot
 2850              	.L149:
 683:state_machine.c ****             }
 684:state_machine.c ****             if(Set_Ampl_Temporary_Value < 0){
 2851              		.loc 1 684 0
 2852 0900 244B     		ldr	r3, .L166+20
 2853 0902 1B88     		ldrh	r3, [r3]
 2854 0904 1BB2     		sxth	r3, r3
 2855 0906 002B     		cmp	r3, #0
 2856 0908 0BDA     		bge	.L151
 685:state_machine.c ****                 Set_Ampl_Temporary_Value = 0;
 2857              		.loc 1 685 0
 2858 090a 224B     		ldr	r3, .L166+20
 2859 090c 0022     		movs	r2, #0
 2860 090e 1A80     		strh	r2, [r3]	@ movhi
 686:state_machine.c ****                 Buzzer_Shot(10*Rotate_Buzzer__Default_Lenght);
 2861              		.loc 1 686 0
 2862 0910 214B     		ldr	r3, .L166+24
 2863 0912 1A68     		ldr	r2, [r3]
 2864 0914 1346     		mov	r3, r2
 2865 0916 9B00     		lsls	r3, r3, #2
 2866 0918 1344     		add	r3, r3, r2
 2867 091a 5B00     		lsls	r3, r3, #1
 2868 091c 1846     		mov	r0, r3
 2869 091e FFF7FEFF 		bl	Buzzer_Shot
 2870              	.L151:
 687:state_machine.c ****             }
 688:state_machine.c ****             Set_Ampl = Set_Ampl_Temporary_Value;  
 2871              		.loc 1 688 0
 2872 0922 1C4B     		ldr	r3, .L166+20
 2873 0924 1A88     		ldrh	r2, [r3]
 2874 0926 1D4B     		ldr	r3, .L166+28
 2875 0928 1A80     		strh	r2, [r3]	@ movhi
 2876              	.L117:
 689:state_machine.c ****         } 
 690:state_machine.c ****         
 691:state_machine.c ****         
 692:state_machine.c ****         // Encoder Push
 693:state_machine.c ****         if(!(Push_Reg_Read() == 0)){
 2877              		.loc 1 693 0
 2878 092a FFF7FEFF 		bl	Push_Reg_Read
 2879 092e 0346     		mov	r3, r0
 2880 0930 002B     		cmp	r3, #0
 2881 0932 0ED0     		beq	.L97
 694:state_machine.c ****             Edit_Value_Mode = 0;
 2882              		.loc 1 694 0
 2883 0934 1A4B     		ldr	r3, .L166+32
 2884 0936 0022     		movs	r2, #0
 2885 0938 1A70     		strb	r2, [r3]
 695:state_machine.c ****             QD_SetCounter(Current_Edit_Value);
 2886              		.loc 1 695 0
 2887 093a 114B     		ldr	r3, .L166
ARM GAS  C:\Users\KJA\AppData\Local\Temp\ccAyzU2h.s 			page 64


 2888 093c 1B78     		ldrb	r3, [r3]	@ zero_extendqisi2
 2889 093e 9BB2     		uxth	r3, r3
 2890 0940 1BB2     		sxth	r3, r3
 2891 0942 1846     		mov	r0, r3
 2892 0944 FFF7FEFF 		bl	QD_SetCounter
 696:state_machine.c ****             Buzzer_Shot(Push_Buzzer__Default_Lenght);
 2893              		.loc 1 696 0
 2894 0948 164B     		ldr	r3, .L166+36
 2895 094a 1B68     		ldr	r3, [r3]
 2896 094c 1846     		mov	r0, r3
 2897 094e FFF7FEFF 		bl	Buzzer_Shot
 2898              	.L97:
 697:state_machine.c ****         }  
 698:state_machine.c ****         
 699:state_machine.c ****     }
 700:state_machine.c ****         
 701:state_machine.c ****             
 702:state_machine.c ****     if(!(button1 == 0)){    //Output Enable Button
 2899              		.loc 1 702 0
 2900 0952 154B     		ldr	r3, .L166+40
 2901 0954 1B78     		ldrb	r3, [r3]	@ zero_extendqisi2
 2902 0956 002B     		cmp	r3, #0
 2903 0958 30D0     		beq	.L152
 703:state_machine.c ****         Buzzer_Shot(Push_Buzzer__Default_Lenght);
 2904              		.loc 1 703 0
 2905 095a 124B     		ldr	r3, .L166+36
 2906 095c 1B68     		ldr	r3, [r3]
 2907 095e 1846     		mov	r0, r3
 2908 0960 FFF7FEFF 		bl	Buzzer_Shot
 704:state_machine.c ****         if(OutputEnable == 0){
 2909              		.loc 1 704 0
 2910 0964 114B     		ldr	r3, .L166+44
 2911 0966 1B78     		ldrb	r3, [r3]	@ zero_extendqisi2
 2912 0968 002B     		cmp	r3, #0
 2913 096a 21D1     		bne	.L153
 705:state_machine.c ****             if(Check_Input() == 1){
 2914              		.loc 1 705 0
 2915 096c FFF7FEFF 		bl	Check_Input
 2916 0970 0346     		mov	r3, r0
 2917 0972 012B     		cmp	r3, #1
 2918 0974 1FD1     		bne	.L155
 706:state_machine.c ****                 OutputEnable = 1;
 2919              		.loc 1 706 0
 2920 0976 0D4B     		ldr	r3, .L166+44
 2921 0978 0122     		movs	r2, #1
 2922 097a 1A70     		strb	r2, [r3]
 2923 097c 1BE0     		b	.L155
 2924              	.L167:
 2925 097e 00BF     		.align	2
 2926              	.L166:
 2927 0980 00000000 		.word	Current_Edit_Value
 2928 0984 0000FA44 		.word	1157234688
 2929 0988 00000000 		.word	Current_Counter
 2930 098c 00000000 		.word	Position_Number
 2931 0990 00000000 		.word	Last_Counter
 2932 0994 00000000 		.word	Set_Ampl_Temporary_Value
 2933 0998 00000000 		.word	Rotate_Buzzer__Default_Lenght
ARM GAS  C:\Users\KJA\AppData\Local\Temp\ccAyzU2h.s 			page 65


 2934 099c 00000000 		.word	Set_Ampl
 2935 09a0 00000000 		.word	Edit_Value_Mode
 2936 09a4 00000000 		.word	Push_Buzzer__Default_Lenght
 2937 09a8 00000000 		.word	button1
 2938 09ac 00000000 		.word	OutputEnable
 2939              	.L153:
 707:state_machine.c ****             }
 708:state_machine.c ****         }
 709:state_machine.c ****         else OutputEnable = 0;
 2940              		.loc 1 709 0
 2941 09b0 114B     		ldr	r3, .L168
 2942 09b2 0022     		movs	r2, #0
 2943 09b4 1A70     		strb	r2, [r3]
 2944              	.L155:
 710:state_machine.c ****         Edit_Value_Mode = 0;      
 2945              		.loc 1 710 0
 2946 09b6 114B     		ldr	r3, .L168+4
 2947 09b8 0022     		movs	r2, #0
 2948 09ba 1A70     		strb	r2, [r3]
 2949              	.L152:
 711:state_machine.c ****     }
 712:state_machine.c ****     
 713:state_machine.c ****     
 714:state_machine.c ****     if(!(button4 == 0)){    //Back
 2950              		.loc 1 714 0
 2951 09bc 104B     		ldr	r3, .L168+8
 2952 09be 1B78     		ldrb	r3, [r3]	@ zero_extendqisi2
 2953 09c0 002B     		cmp	r3, #0
 2954 09c2 15D0     		beq	.L87
 715:state_machine.c ****         QD_SetCounter(3);
 2955              		.loc 1 715 0
 2956 09c4 0320     		movs	r0, #3
 2957 09c6 FFF7FEFF 		bl	QD_SetCounter
 716:state_machine.c ****         DAC_MUX_Select(0);   // GND
 2958              		.loc 1 716 0
 2959 09ca 0020     		movs	r0, #0
 2960 09cc FFF7FEFF 		bl	DAC_MUX_Select
 717:state_machine.c ****         OutputEnable = 0;
 2961              		.loc 1 717 0
 2962 09d0 094B     		ldr	r3, .L168
 2963 09d2 0022     		movs	r2, #0
 2964 09d4 1A70     		strb	r2, [r3]
 718:state_machine.c ****         RELAY_Write(0);
 2965              		.loc 1 718 0
 2966 09d6 0020     		movs	r0, #0
 2967 09d8 FFF7FEFF 		bl	RELAY_Write
 719:state_machine.c ****         PWM_Driver_Stop();     //Stop PWM
 2968              		.loc 1 719 0
 2969 09dc FFF7FEFF 		bl	PWM_Driver_Stop
 720:state_machine.c ****         Current_State = ArbitraryMode;
 2970              		.loc 1 720 0
 2971 09e0 084B     		ldr	r3, .L168+12
 2972 09e2 0322     		movs	r2, #3
 2973 09e4 1A70     		strb	r2, [r3]
 721:state_machine.c ****         Buzzer_Shot(Push_Buzzer__Default_Lenght);
 2974              		.loc 1 721 0
 2975 09e6 084B     		ldr	r3, .L168+16
ARM GAS  C:\Users\KJA\AppData\Local\Temp\ccAyzU2h.s 			page 66


 2976 09e8 1B68     		ldr	r3, [r3]
 2977 09ea 1846     		mov	r0, r3
 2978 09ec FFF7FEFF 		bl	Buzzer_Shot
 2979              	.L87:
 722:state_machine.c ****     }
 723:state_machine.c ****     
 724:state_machine.c **** }
 2980              		.loc 1 724 0
 2981 09f0 0C37     		adds	r7, r7, #12
 2982              		.cfi_def_cfa_offset 12
 2983 09f2 BD46     		mov	sp, r7
 2984              		.cfi_def_cfa_register 13
 2985              		@ sp needed
 2986 09f4 90BD     		pop	{r4, r7, pc}
 2987              	.L169:
 2988 09f6 00BF     		.align	2
 2989              	.L168:
 2990 09f8 00000000 		.word	OutputEnable
 2991 09fc 00000000 		.word	Edit_Value_Mode
 2992 0a00 00000000 		.word	button4
 2993 0a04 00000000 		.word	Current_State
 2994 0a08 00000000 		.word	Push_Buzzer__Default_Lenght
 2995              		.cfi_endproc
 2996              	.LFE73:
 2997              		.size	State_Machine_PWM_Mode, .-State_Machine_PWM_Mode
 2998              		.section	.text.State_Machine_External_Drive,"ax",%progbits
 2999              		.align	2
 3000              		.global	State_Machine_External_Drive
 3001              		.thumb
 3002              		.thumb_func
 3003              		.type	State_Machine_External_Drive, %function
 3004              	State_Machine_External_Drive:
 3005              	.LFB74:
 725:state_machine.c **** 
 726:state_machine.c **** 
 727:state_machine.c **** void State_Machine_External_Drive(){
 3006              		.loc 1 727 0
 3007              		.cfi_startproc
 3008              		@ args = 0, pretend = 0, frame = 0
 3009              		@ frame_needed = 1, uses_anonymous_args = 0
 3010 0000 98B5     		push	{r3, r4, r7, lr}
 3011              		.cfi_def_cfa_offset 16
 3012              		.cfi_offset 3, -16
 3013              		.cfi_offset 4, -12
 3014              		.cfi_offset 7, -8
 3015              		.cfi_offset 14, -4
 3016 0002 00AF     		add	r7, sp, #0
 3017              		.cfi_def_cfa_register 7
 728:state_machine.c ****     
 729:state_machine.c ****     // Secondary Loop Counter
 730:state_machine.c ****     Loop_Counter++;
 3018              		.loc 1 730 0
 3019 0004 0C4B     		ldr	r3, .L172
 3020 0006 1B68     		ldr	r3, [r3]
 3021 0008 0133     		adds	r3, r3, #1
 3022 000a 0B4A     		ldr	r2, .L172
 3023 000c 1360     		str	r3, [r2]
ARM GAS  C:\Users\KJA\AppData\Local\Temp\ccAyzU2h.s 			page 67


 731:state_machine.c ****     if(Loop_Counter >= 1000){
 3024              		.loc 1 731 0
 3025 000e 0A4B     		ldr	r3, .L172
 3026 0010 1B68     		ldr	r3, [r3]
 3027 0012 B3F57A7F 		cmp	r3, #1000
 3028 0016 0ED3     		bcc	.L170
 732:state_machine.c ****         LCD_Draw(Current_State, Get_Encoder_Menu(0,3));
 3029              		.loc 1 732 0
 3030 0018 084B     		ldr	r3, .L172+4
 3031 001a 1C78     		ldrb	r4, [r3]	@ zero_extendqisi2
 3032 001c 0020     		movs	r0, #0
 3033 001e 0321     		movs	r1, #3
 3034 0020 FFF7FEFF 		bl	Get_Encoder_Menu
 3035 0024 0346     		mov	r3, r0
 3036 0026 DBB2     		uxtb	r3, r3
 3037 0028 2046     		mov	r0, r4
 3038 002a 1946     		mov	r1, r3
 3039 002c FFF7FEFF 		bl	LCD_Draw
 733:state_machine.c ****         Loop_Counter = 0;
 3040              		.loc 1 733 0
 3041 0030 014B     		ldr	r3, .L172
 3042 0032 0022     		movs	r2, #0
 3043 0034 1A60     		str	r2, [r3]
 3044              	.L170:
 734:state_machine.c ****     }
 735:state_machine.c ****     
 736:state_machine.c **** }
 3045              		.loc 1 736 0
 3046 0036 98BD     		pop	{r3, r4, r7, pc}
 3047              	.L173:
 3048              		.align	2
 3049              	.L172:
 3050 0038 00000000 		.word	Loop_Counter
 3051 003c 00000000 		.word	Current_State
 3052              		.cfi_endproc
 3053              	.LFE74:
 3054              		.size	State_Machine_External_Drive, .-State_Machine_External_Drive
 3055              		.global	__aeabi_fmul
 3056              		.global	__aeabi_fadd
 3057              		.global	__aeabi_fdiv
 3058              		.section	.rodata
 3059 001e 0000     		.align	2
 3060              	.LC4:
 3061 0020 25322E32 		.ascii	"%2.2fV\000"
 3061      665600
 3062 0027 00       		.align	2
 3063              	.LC5:
 3064 0028 25322E32 		.ascii	"%2.2fA\000"
 3064      664100
 3065 002f 00       		.align	2
 3066              	.LC6:
 3067 0030 25332E32 		.ascii	"%3.2fW\000"
 3067      665700
 3068 0037 00       		.align	2
 3069              	.LC7:
 3070 0038 25342E31 		.ascii	"%4.1fohm\000"
 3070      666F686D 
ARM GAS  C:\Users\KJA\AppData\Local\Temp\ccAyzU2h.s 			page 68


 3070      00
 3071              		.global	__aeabi_fsub
 3072              		.global	__aeabi_dcmpgt
 3073 0041 000000   		.align	2
 3074              	.LC8:
 3075 0044 25322E32 		.ascii	"%2.2fW\000"
 3075      665700
 3076              		.global	__aeabi_dsub
 3077              		.global	__aeabi_d2f
 3078              		.global	__aeabi_dadd
 3079              		.global	__aeabi_fcmplt
 3080              		.section	.text.State_Machine_ConstantCurrent,"ax",%progbits
 3081              		.align	2
 3082              		.global	State_Machine_ConstantCurrent
 3083              		.thumb
 3084              		.thumb_func
 3085              		.type	State_Machine_ConstantCurrent, %function
 3086              	State_Machine_ConstantCurrent:
 3087              	.LFB75:
 737:state_machine.c **** 
 738:state_machine.c **** 
 739:state_machine.c **** void State_Machine_ConstantCurrent(){
 3088              		.loc 1 739 0
 3089              		.cfi_startproc
 3090              		@ args = 0, pretend = 0, frame = 8
 3091              		@ frame_needed = 1, uses_anonymous_args = 0
 3092 0000 90B5     		push	{r4, r7, lr}
 3093              		.cfi_def_cfa_offset 12
 3094              		.cfi_offset 4, -12
 3095              		.cfi_offset 7, -8
 3096              		.cfi_offset 14, -4
 3097 0002 83B0     		sub	sp, sp, #12
 3098              		.cfi_def_cfa_offset 24
 3099 0004 00AF     		add	r7, sp, #0
 3100              		.cfi_def_cfa_register 7
 740:state_machine.c ****     
 741:state_machine.c ****     CAP_EN_Write(1);    // Enable 10nF Cap
 3101              		.loc 1 741 0
 3102 0006 0120     		movs	r0, #1
 3103 0008 FFF7FEFF 		bl	CAP_EN_Write
 742:state_machine.c ****     PWM_Driver_Stop();     //Stop PWM
 3104              		.loc 1 742 0
 3105 000c FFF7FEFF 		bl	PWM_Driver_Stop
 743:state_machine.c ****     
 744:state_machine.c ****     float MaxSetValue = MaxCurrent;
 3106              		.loc 1 744 0
 3107 0010 864B     		ldr	r3, .L223
 3108 0012 1B68     		ldr	r3, [r3]	@ float
 3109 0014 7B60     		str	r3, [r7, #4]	@ float
 745:state_machine.c ****            
 746:state_machine.c ****     // Secondary Loop Counter
 747:state_machine.c ****     Loop_Counter++;
 3110              		.loc 1 747 0
 3111 0016 864B     		ldr	r3, .L223+4
 3112 0018 1B68     		ldr	r3, [r3]
 3113 001a 0133     		adds	r3, r3, #1
 3114 001c 844A     		ldr	r2, .L223+4
ARM GAS  C:\Users\KJA\AppData\Local\Temp\ccAyzU2h.s 			page 69


 3115 001e 1360     		str	r3, [r2]
 748:state_machine.c ****     
 749:state_machine.c ****      
 750:state_machine.c ****     // Voltage, Current, Power Measurement and Calculations
 751:state_machine.c ****     MeasuredVoltage = ADC_SAR_1_GetResult16();
 3116              		.loc 1 751 0
 3117 0020 FFF7FEFF 		bl	ADC_SAR_1_GetResult16
 3118 0024 0346     		mov	r3, r0
 3119 0026 9AB2     		uxth	r2, r3
 3120 0028 824B     		ldr	r3, .L223+8
 3121 002a 1A80     		strh	r2, [r3]	@ movhi
 752:state_machine.c ****     MeasuredCurrent = ADC_SAR_2_GetResult16() - LEM_Offset_Value;      
 3122              		.loc 1 752 0
 3123 002c FFF7FEFF 		bl	ADC_SAR_2_GetResult16
 3124 0030 0346     		mov	r3, r0
 3125 0032 9AB2     		uxth	r2, r3
 3126 0034 804B     		ldr	r3, .L223+12
 3127 0036 1B78     		ldrb	r3, [r3]	@ zero_extendqisi2
 3128 0038 9BB2     		uxth	r3, r3
 3129 003a D31A     		subs	r3, r2, r3
 3130 003c 9BB2     		uxth	r3, r3
 3131 003e 9AB2     		uxth	r2, r3
 3132 0040 7E4B     		ldr	r3, .L223+16
 3133 0042 1A80     		strh	r2, [r3]	@ movhi
 753:state_machine.c ****     
 754:state_machine.c ****     if(Four_Wire_Method ==1){
 3134              		.loc 1 754 0
 3135 0044 7E4B     		ldr	r3, .L223+20
 3136 0046 1B78     		ldrb	r3, [r3]	@ zero_extendqisi2
 3137 0048 012B     		cmp	r3, #1
 3138 004a 15D1     		bne	.L175
 755:state_machine.c ****         VOLTAGE_SELECT_Write(1);
 3139              		.loc 1 755 0
 3140 004c 0120     		movs	r0, #1
 3141 004e FFF7FEFF 		bl	VOLTAGE_SELECT_Write
 756:state_machine.c ****         fVoltage = Four_Wire_Range*ADC_SAR_1_CountsTo_Volts(MeasuredVoltage); 
 3142              		.loc 1 756 0
 3143 0052 784B     		ldr	r3, .L223+8
 3144 0054 1B88     		ldrh	r3, [r3]
 3145 0056 9BB2     		uxth	r3, r3
 3146 0058 1BB2     		sxth	r3, r3
 3147 005a 1846     		mov	r0, r3
 3148 005c FFF7FEFF 		bl	ADC_SAR_1_CountsTo_Volts
 3149 0060 0246     		mov	r2, r0
 3150 0062 784B     		ldr	r3, .L223+24
 3151 0064 1B68     		ldr	r3, [r3]	@ float
 3152 0066 1046     		mov	r0, r2
 3153 0068 1946     		mov	r1, r3
 3154 006a FFF7FEFF 		bl	__aeabi_fmul
 3155 006e 0346     		mov	r3, r0
 3156 0070 1A46     		mov	r2, r3
 3157 0072 754B     		ldr	r3, .L223+28
 3158 0074 1A60     		str	r2, [r3]	@ float
 3159 0076 14E0     		b	.L176
 3160              	.L175:
 757:state_machine.c ****     }
 758:state_machine.c ****     else{
ARM GAS  C:\Users\KJA\AppData\Local\Temp\ccAyzU2h.s 			page 70


 759:state_machine.c ****         VOLTAGE_SELECT_Write(0);
 3161              		.loc 1 759 0
 3162 0078 0020     		movs	r0, #0
 3163 007a FFF7FEFF 		bl	VOLTAGE_SELECT_Write
 760:state_machine.c ****         fVoltage = Two_Wire_Range*ADC_SAR_1_CountsTo_Volts(MeasuredVoltage);        
 3164              		.loc 1 760 0
 3165 007e 6D4B     		ldr	r3, .L223+8
 3166 0080 1B88     		ldrh	r3, [r3]
 3167 0082 9BB2     		uxth	r3, r3
 3168 0084 1BB2     		sxth	r3, r3
 3169 0086 1846     		mov	r0, r3
 3170 0088 FFF7FEFF 		bl	ADC_SAR_1_CountsTo_Volts
 3171 008c 0246     		mov	r2, r0
 3172 008e 6F4B     		ldr	r3, .L223+32
 3173 0090 1B68     		ldr	r3, [r3]	@ float
 3174 0092 1046     		mov	r0, r2
 3175 0094 1946     		mov	r1, r3
 3176 0096 FFF7FEFF 		bl	__aeabi_fmul
 3177 009a 0346     		mov	r3, r0
 3178 009c 1A46     		mov	r2, r3
 3179 009e 6A4B     		ldr	r3, .L223+28
 3180 00a0 1A60     		str	r2, [r3]	@ float
 3181              	.L176:
 761:state_machine.c ****     }
 762:state_machine.c ****     
 763:state_machine.c ****     SredniaV = SredniaV*dtV;
 3182              		.loc 1 763 0
 3183 00a2 6B4B     		ldr	r3, .L223+36
 3184 00a4 1B78     		ldrb	r3, [r3]	@ zero_extendqisi2
 3185 00a6 1846     		mov	r0, r3
 3186 00a8 FFF7FEFF 		bl	__aeabi_i2f
 3187 00ac 0246     		mov	r2, r0
 3188 00ae 694B     		ldr	r3, .L223+40
 3189 00b0 1B68     		ldr	r3, [r3]	@ float
 3190 00b2 1046     		mov	r0, r2
 3191 00b4 1946     		mov	r1, r3
 3192 00b6 FFF7FEFF 		bl	__aeabi_fmul
 3193 00ba 0346     		mov	r3, r0
 3194 00bc 1A46     		mov	r2, r3
 3195 00be 654B     		ldr	r3, .L223+40
 3196 00c0 1A60     		str	r2, [r3]	@ float
 764:state_machine.c ****     SredniaV = SredniaV + fVoltage;
 3197              		.loc 1 764 0
 3198 00c2 644B     		ldr	r3, .L223+40
 3199 00c4 1A68     		ldr	r2, [r3]	@ float
 3200 00c6 604B     		ldr	r3, .L223+28
 3201 00c8 1B68     		ldr	r3, [r3]	@ float
 3202 00ca 1046     		mov	r0, r2
 3203 00cc 1946     		mov	r1, r3
 3204 00ce FFF7FEFF 		bl	__aeabi_fadd
 3205 00d2 0346     		mov	r3, r0
 3206 00d4 1A46     		mov	r2, r3
 3207 00d6 5F4B     		ldr	r3, .L223+40
 3208 00d8 1A60     		str	r2, [r3]	@ float
 765:state_machine.c ****     SredniaV = SredniaV / (dtV+1);
 3209              		.loc 1 765 0
 3210 00da 5E4B     		ldr	r3, .L223+40
ARM GAS  C:\Users\KJA\AppData\Local\Temp\ccAyzU2h.s 			page 71


 3211 00dc 1C68     		ldr	r4, [r3]	@ float
 3212 00de 5C4B     		ldr	r3, .L223+36
 3213 00e0 1B78     		ldrb	r3, [r3]	@ zero_extendqisi2
 3214 00e2 0133     		adds	r3, r3, #1
 3215 00e4 1846     		mov	r0, r3
 3216 00e6 FFF7FEFF 		bl	__aeabi_i2f
 3217 00ea 0346     		mov	r3, r0
 3218 00ec 2046     		mov	r0, r4
 3219 00ee 1946     		mov	r1, r3
 3220 00f0 FFF7FEFF 		bl	__aeabi_fdiv
 3221 00f4 0346     		mov	r3, r0
 3222 00f6 1A46     		mov	r2, r3
 3223 00f8 564B     		ldr	r3, .L223+40
 3224 00fa 1A60     		str	r2, [r3]	@ float
 766:state_machine.c ****     fVoltage = SredniaV;
 3225              		.loc 1 766 0
 3226 00fc 554B     		ldr	r3, .L223+40
 3227 00fe 1B68     		ldr	r3, [r3]	@ float
 3228 0100 514A     		ldr	r2, .L223+28
 3229 0102 1360     		str	r3, [r2]	@ float
 767:state_machine.c ****     
 768:state_machine.c ****     
 769:state_machine.c ****     
 770:state_machine.c ****     if(Actual_Range == 1) fCurrent = Current_Calibration_Range1 * ADC_SAR_2_CountsTo_Volts(Measured
 3230              		.loc 1 770 0
 3231 0104 544B     		ldr	r3, .L223+44
 3232 0106 1B78     		ldrb	r3, [r3]	@ zero_extendqisi2
 3233 0108 012B     		cmp	r3, #1
 3234 010a 10D1     		bne	.L177
 3235              		.loc 1 770 0 is_stmt 0 discriminator 1
 3236 010c 4B4B     		ldr	r3, .L223+16
 3237 010e 1B88     		ldrh	r3, [r3]
 3238 0110 1BB2     		sxth	r3, r3
 3239 0112 1846     		mov	r0, r3
 3240 0114 FFF7FEFF 		bl	ADC_SAR_2_CountsTo_Volts
 3241 0118 0246     		mov	r2, r0
 3242 011a 504B     		ldr	r3, .L223+48
 3243 011c 1B68     		ldr	r3, [r3]	@ float
 3244 011e 1046     		mov	r0, r2
 3245 0120 1946     		mov	r1, r3
 3246 0122 FFF7FEFF 		bl	__aeabi_fmul
 3247 0126 0346     		mov	r3, r0
 3248 0128 1A46     		mov	r2, r3
 3249 012a 4D4B     		ldr	r3, .L223+52
 3250 012c 1A60     		str	r2, [r3]	@ float
 3251              	.L177:
 771:state_machine.c **** //    else if (Actual_Range == 2) fCurrent = Current_Calibration_Range2*ADC_SAR_2_CountsTo_Volts(Me
 772:state_machine.c **** //    else if (Actual_Range == 3) fCurrent = Current_Calibration_Range3*ADC_SAR_2_CountsTo_Volts(Me
 773:state_machine.c ****     
 774:state_machine.c ****     fPower = fVoltage*fCurrent;
 3252              		.loc 1 774 0 is_stmt 1
 3253 012e 464B     		ldr	r3, .L223+28
 3254 0130 1A68     		ldr	r2, [r3]	@ float
 3255 0132 4B4B     		ldr	r3, .L223+52
 3256 0134 1B68     		ldr	r3, [r3]	@ float
 3257 0136 1046     		mov	r0, r2
 3258 0138 1946     		mov	r1, r3
ARM GAS  C:\Users\KJA\AppData\Local\Temp\ccAyzU2h.s 			page 72


 3259 013a FFF7FEFF 		bl	__aeabi_fmul
 3260 013e 0346     		mov	r3, r0
 3261 0140 1A46     		mov	r2, r3
 3262 0142 484B     		ldr	r3, .L223+56
 3263 0144 1A60     		str	r2, [r3]	@ float
 775:state_machine.c ****     
 776:state_machine.c ****     Set_Power = fVoltage*Set_Current;
 3264              		.loc 1 776 0
 3265 0146 404B     		ldr	r3, .L223+28
 3266 0148 1A68     		ldr	r2, [r3]	@ float
 3267 014a 474B     		ldr	r3, .L223+60
 3268 014c 1B68     		ldr	r3, [r3]	@ float
 3269 014e 1046     		mov	r0, r2
 3270 0150 1946     		mov	r1, r3
 3271 0152 FFF7FEFF 		bl	__aeabi_fmul
 3272 0156 0346     		mov	r3, r0
 3273 0158 1A46     		mov	r2, r3
 3274 015a 444B     		ldr	r3, .L223+64
 3275 015c 1A60     		str	r2, [r3]	@ float
 777:state_machine.c ****     Set_Resist = fVoltage/Set_Current; 
 3276              		.loc 1 777 0
 3277 015e 3A4B     		ldr	r3, .L223+28
 3278 0160 1A68     		ldr	r2, [r3]	@ float
 3279 0162 414B     		ldr	r3, .L223+60
 3280 0164 1B68     		ldr	r3, [r3]	@ float
 3281 0166 1046     		mov	r0, r2
 3282 0168 1946     		mov	r1, r3
 3283 016a FFF7FEFF 		bl	__aeabi_fdiv
 3284 016e 0346     		mov	r3, r0
 3285 0170 1A46     		mov	r2, r3
 3286 0172 3F4B     		ldr	r3, .L223+68
 3287 0174 1A60     		str	r2, [r3]	@ float
 778:state_machine.c ****     fResist = fVoltage/fCurrent;
 3288              		.loc 1 778 0
 3289 0176 344B     		ldr	r3, .L223+28
 3290 0178 1A68     		ldr	r2, [r3]	@ float
 3291 017a 394B     		ldr	r3, .L223+52
 3292 017c 1B68     		ldr	r3, [r3]	@ float
 3293 017e 1046     		mov	r0, r2
 3294 0180 1946     		mov	r1, r3
 3295 0182 FFF7FEFF 		bl	__aeabi_fdiv
 3296 0186 0346     		mov	r3, r0
 3297 0188 1A46     		mov	r2, r3
 3298 018a 3A4B     		ldr	r3, .L223+72
 3299 018c 1A60     		str	r2, [r3]	@ float
 779:state_machine.c ****     
 780:state_machine.c ****     
 781:state_machine.c ****     
 782:state_machine.c ****     
 783:state_machine.c ****     // Check for OverVoltage
 784:state_machine.c ****     if(fVoltage > MaxVoltage){
 3300              		.loc 1 784 0
 3301 018e 2E4B     		ldr	r3, .L223+28
 3302 0190 1A68     		ldr	r2, [r3]	@ float
 3303 0192 394B     		ldr	r3, .L223+76
 3304 0194 1B68     		ldr	r3, [r3]	@ float
 3305 0196 1046     		mov	r0, r2
ARM GAS  C:\Users\KJA\AppData\Local\Temp\ccAyzU2h.s 			page 73


 3306 0198 1946     		mov	r1, r3
 3307 019a FFF7FEFF 		bl	__aeabi_fcmpgt
 3308 019e 0346     		mov	r3, r0
 3309 01a0 002B     		cmp	r3, #0
 3310 01a2 0CD0     		beq	.L178
 785:state_machine.c ****         OutputEnable = 0;
 3311              		.loc 1 785 0
 3312 01a4 354B     		ldr	r3, .L223+80
 3313 01a6 0022     		movs	r2, #0
 3314 01a8 1A70     		strb	r2, [r3]
 786:state_machine.c ****         Previous_State = Current_State;
 3315              		.loc 1 786 0
 3316 01aa 354B     		ldr	r3, .L223+84
 3317 01ac 1A78     		ldrb	r2, [r3]	@ zero_extendqisi2
 3318 01ae 354B     		ldr	r3, .L223+88
 3319 01b0 1A70     		strb	r2, [r3]
 787:state_machine.c ****         Current_State = Error_OV;
 3320              		.loc 1 787 0
 3321 01b2 334B     		ldr	r3, .L223+84
 3322 01b4 0C22     		movs	r2, #12
 3323 01b6 1A70     		strb	r2, [r3]
 788:state_machine.c ****         Buzzer_Shot(500000);
 3324              		.loc 1 788 0
 3325 01b8 3348     		ldr	r0, .L223+92
 3326 01ba FFF7FEFF 		bl	Buzzer_Shot
 3327              	.L178:
 789:state_machine.c ****     }
 790:state_machine.c ****     
 791:state_machine.c **** 
 792:state_machine.c ****     // Output Enable Case
 793:state_machine.c ****     if(OutputEnable == 1){
 3328              		.loc 1 793 0
 3329 01be 2F4B     		ldr	r3, .L223+80
 3330 01c0 1B78     		ldrb	r3, [r3]	@ zero_extendqisi2
 3331 01c2 012B     		cmp	r3, #1
 3332 01c4 40F02B81 		bne	.L180
 794:state_machine.c ****         
 795:state_machine.c ****         if(!(Input_Reg_Read())){
 3333              		.loc 1 795 0
 3334 01c8 FFF7FEFF 		bl	Input_Reg_Read
 3335 01cc 0346     		mov	r3, r0
 3336 01ce 002B     		cmp	r3, #0
 3337 01d0 0DD1     		bne	.L181
 796:state_machine.c ****             OutputEnable = 0;
 3338              		.loc 1 796 0
 3339 01d2 2A4B     		ldr	r3, .L223+80
 3340 01d4 0022     		movs	r2, #0
 3341 01d6 1A70     		strb	r2, [r3]
 797:state_machine.c ****             Previous_State = Current_State;
 3342              		.loc 1 797 0
 3343 01d8 294B     		ldr	r3, .L223+84
 3344 01da 1A78     		ldrb	r2, [r3]	@ zero_extendqisi2
 3345 01dc 294B     		ldr	r3, .L223+88
 3346 01de 1A70     		strb	r2, [r3]
 798:state_machine.c ****             Current_State = Error_OC;
 3347              		.loc 1 798 0
 3348 01e0 274B     		ldr	r3, .L223+84
ARM GAS  C:\Users\KJA\AppData\Local\Temp\ccAyzU2h.s 			page 74


 3349 01e2 0F22     		movs	r2, #15
 3350 01e4 1A70     		strb	r2, [r3]
 799:state_machine.c ****             Buzzer_Shot(500000);
 3351              		.loc 1 799 0
 3352 01e6 2848     		ldr	r0, .L223+92
 3353 01e8 FFF7FEFF 		bl	Buzzer_Shot
 3354 01ec 17E1     		b	.L180
 3355              	.L181:
 800:state_machine.c ****         }
 801:state_machine.c ****         else if(OverTemperature == 1){
 3356              		.loc 1 801 0
 3357 01ee 274B     		ldr	r3, .L223+96
 3358 01f0 1B78     		ldrb	r3, [r3]	@ zero_extendqisi2
 3359 01f2 012B     		cmp	r3, #1
 3360 01f4 4ED1     		bne	.L182
 802:state_machine.c **** 
 803:state_machine.c ****             DACValue = 0;
 3361              		.loc 1 803 0
 3362 01f6 264B     		ldr	r3, .L223+100
 3363 01f8 0022     		movs	r2, #0
 3364 01fa 1A80     		strh	r2, [r3]	@ movhi
 804:state_machine.c ****             DVDAC8_1_SetValue(0); 
 3365              		.loc 1 804 0
 3366 01fc 0020     		movs	r0, #0
 3367 01fe FFF7FEFF 		bl	DVDAC8_1_SetValue
 805:state_machine.c ****             DAC_MUX_Select(0);     
 3368              		.loc 1 805 0
 3369 0202 0020     		movs	r0, #0
 3370 0204 FFF7FEFF 		bl	DAC_MUX_Select
 806:state_machine.c ****             
 807:state_machine.c ****             // Disable Relay
 808:state_machine.c ****             RELAY_Write(0);
 3371              		.loc 1 808 0
 3372 0208 0020     		movs	r0, #0
 3373 020a FFF7FEFF 		bl	RELAY_Write
 809:state_machine.c ****             
 810:state_machine.c ****             Buzzer_Shot(500000);
 3374              		.loc 1 810 0
 3375 020e 1E48     		ldr	r0, .L223+92
 3376 0210 FFF7FEFF 		bl	Buzzer_Shot
 811:state_machine.c ****             
 812:state_machine.c ****             OutputEnable = 0;
 3377              		.loc 1 812 0
 3378 0214 194B     		ldr	r3, .L223+80
 3379 0216 0022     		movs	r2, #0
 3380 0218 1A70     		strb	r2, [r3]
 813:state_machine.c ****             Previous_State = Current_State;
 3381              		.loc 1 813 0
 3382 021a 194B     		ldr	r3, .L223+84
 3383 021c 1A78     		ldrb	r2, [r3]	@ zero_extendqisi2
 3384 021e 194B     		ldr	r3, .L223+88
 3385 0220 1A70     		strb	r2, [r3]
 814:state_machine.c ****             Current_State = Error_OT;   
 3386              		.loc 1 814 0
 3387 0222 174B     		ldr	r3, .L223+84
 3388 0224 0E22     		movs	r2, #14
 3389 0226 1A70     		strb	r2, [r3]
ARM GAS  C:\Users\KJA\AppData\Local\Temp\ccAyzU2h.s 			page 75


 3390 0228 F9E0     		b	.L180
 3391              	.L224:
 3392 022a 00BF     		.align	2
 3393              	.L223:
 3394 022c 00000000 		.word	MaxCurrent
 3395 0230 00000000 		.word	Loop_Counter
 3396 0234 00000000 		.word	MeasuredVoltage
 3397 0238 00000000 		.word	LEM_Offset_Value
 3398 023c 00000000 		.word	MeasuredCurrent
 3399 0240 00000000 		.word	Four_Wire_Method
 3400 0244 00000000 		.word	Four_Wire_Range
 3401 0248 00000000 		.word	fVoltage
 3402 024c 00000000 		.word	Two_Wire_Range
 3403 0250 00000000 		.word	dtV
 3404 0254 00000000 		.word	SredniaV
 3405 0258 00000000 		.word	Actual_Range
 3406 025c 00000000 		.word	Current_Calibration_Range1
 3407 0260 00000000 		.word	fCurrent
 3408 0264 00000000 		.word	fPower
 3409 0268 00000000 		.word	Set_Current
 3410 026c 00000000 		.word	Set_Power
 3411 0270 00000000 		.word	Set_Resist
 3412 0274 00000000 		.word	fResist
 3413 0278 00000000 		.word	MaxVoltage
 3414 027c 00000000 		.word	OutputEnable
 3415 0280 00000000 		.word	Current_State
 3416 0284 00000000 		.word	Previous_State
 3417 0288 20A10700 		.word	500000
 3418 028c 00000000 		.word	OverTemperature
 3419 0290 00000000 		.word	DACValue
 3420              	.L182:
 815:state_machine.c ****         } 
 816:state_machine.c ****         else{       
 817:state_machine.c ****             // Enable Relay if Input is OK
 818:state_machine.c ****             RELAY_Write(1);
 3421              		.loc 1 818 0
 3422 0294 0120     		movs	r0, #1
 3423 0296 FFF7FEFF 		bl	RELAY_Write
 819:state_machine.c ****                 
 820:state_machine.c ****             if(Loop_Counter >= 1000){
 3424              		.loc 1 820 0
 3425 029a 394B     		ldr	r3, .L225+8
 3426 029c 1B68     		ldr	r3, [r3]
 3427 029e B3F57A7F 		cmp	r3, #1000
 3428 02a2 37D3     		bcc	.L183
 821:state_machine.c ****                 sprintf((char *)cVoltage_Actual,"%2.2fV",fVoltage);
 3429              		.loc 1 821 0
 3430 02a4 374B     		ldr	r3, .L225+12
 3431 02a6 1B68     		ldr	r3, [r3]	@ float
 3432 02a8 1846     		mov	r0, r3
 3433 02aa FFF7FEFF 		bl	__aeabi_f2d
 3434 02ae 0246     		mov	r2, r0
 3435 02b0 0B46     		mov	r3, r1
 3436 02b2 3548     		ldr	r0, .L225+16
 3437 02b4 3549     		ldr	r1, .L225+20
 3438 02b6 FFF7FEFF 		bl	sprintf
 822:state_machine.c ****                 sprintf((char *)cCurrent_Actual,"%2.2fA",fCurrent);
ARM GAS  C:\Users\KJA\AppData\Local\Temp\ccAyzU2h.s 			page 76


 3439              		.loc 1 822 0
 3440 02ba 354B     		ldr	r3, .L225+24
 3441 02bc 1B68     		ldr	r3, [r3]	@ float
 3442 02be 1846     		mov	r0, r3
 3443 02c0 FFF7FEFF 		bl	__aeabi_f2d
 3444 02c4 0246     		mov	r2, r0
 3445 02c6 0B46     		mov	r3, r1
 3446 02c8 3248     		ldr	r0, .L225+28
 3447 02ca 3349     		ldr	r1, .L225+32
 3448 02cc FFF7FEFF 		bl	sprintf
 823:state_machine.c ****                 sprintf((char *)cPower_Actual,"%3.2fW",fPower);
 3449              		.loc 1 823 0
 3450 02d0 324B     		ldr	r3, .L225+36
 3451 02d2 1B68     		ldr	r3, [r3]	@ float
 3452 02d4 1846     		mov	r0, r3
 3453 02d6 FFF7FEFF 		bl	__aeabi_f2d
 3454 02da 0246     		mov	r2, r0
 3455 02dc 0B46     		mov	r3, r1
 3456 02de 3048     		ldr	r0, .L225+40
 3457 02e0 3049     		ldr	r1, .L225+44
 3458 02e2 FFF7FEFF 		bl	sprintf
 824:state_machine.c ****                 sprintf((char *)cResist_Actual,"%4.1fohm",fResist);
 3459              		.loc 1 824 0
 3460 02e6 304B     		ldr	r3, .L225+48
 3461 02e8 1B68     		ldr	r3, [r3]	@ float
 3462 02ea 1846     		mov	r0, r3
 3463 02ec FFF7FEFF 		bl	__aeabi_f2d
 3464 02f0 0246     		mov	r2, r0
 3465 02f2 0B46     		mov	r3, r1
 3466 02f4 2D48     		ldr	r0, .L225+52
 3467 02f6 2E49     		ldr	r1, .L225+56
 3468 02f8 FFF7FEFF 		bl	sprintf
 825:state_machine.c ****                 LCD_Draw(Current_State, Position_Number); 
 3469              		.loc 1 825 0
 3470 02fc 2D4B     		ldr	r3, .L225+60
 3471 02fe 1A78     		ldrb	r2, [r3]	@ zero_extendqisi2
 3472 0300 2D4B     		ldr	r3, .L225+64
 3473 0302 1B78     		ldrb	r3, [r3]	@ zero_extendqisi2
 3474 0304 DBB2     		uxtb	r3, r3
 3475 0306 1046     		mov	r0, r2
 3476 0308 1946     		mov	r1, r3
 3477 030a FFF7FEFF 		bl	LCD_Draw
 826:state_machine.c ****                 Loop_Counter = 0;
 3478              		.loc 1 826 0
 3479 030e 1C4B     		ldr	r3, .L225+8
 3480 0310 0022     		movs	r2, #0
 3481 0312 1A60     		str	r2, [r3]
 3482              	.L183:
 827:state_machine.c ****             }
 828:state_machine.c **** 
 829:state_machine.c ****             DAC_MUX_Select(2);   // ConstantDAC
 3483              		.loc 1 829 0
 3484 0314 0220     		movs	r0, #2
 3485 0316 FFF7FEFF 		bl	DAC_MUX_Select
 830:state_machine.c ****             
 831:state_machine.c ****             //Regulator
 832:state_machine.c ****             if(Set_Current - fCurrent > 0.005){
ARM GAS  C:\Users\KJA\AppData\Local\Temp\ccAyzU2h.s 			page 77


 3486              		.loc 1 832 0
 3487 031a 284B     		ldr	r3, .L225+68
 3488 031c 1A68     		ldr	r2, [r3]	@ float
 3489 031e 1C4B     		ldr	r3, .L225+24
 3490 0320 1B68     		ldr	r3, [r3]	@ float
 3491 0322 1046     		mov	r0, r2
 3492 0324 1946     		mov	r1, r3
 3493 0326 FFF7FEFF 		bl	__aeabi_fsub
 3494 032a 0346     		mov	r3, r0
 3495 032c 1846     		mov	r0, r3
 3496 032e FFF7FEFF 		bl	__aeabi_f2d
 3497 0332 0246     		mov	r2, r0
 3498 0334 0B46     		mov	r3, r1
 3499 0336 1046     		mov	r0, r2
 3500 0338 1946     		mov	r1, r3
 3501 033a 0FA3     		adr	r3, .L225
 3502 033c D3E90023 		ldrd	r2, [r3]
 3503 0340 FFF7FEFF 		bl	__aeabi_dcmpgt
 3504 0344 0346     		mov	r3, r0
 3505 0346 002B     		cmp	r3, #0
 3506 0348 3CD0     		beq	.L222
 833:state_machine.c ****                 DACValue++;
 3507              		.loc 1 833 0
 3508 034a 1D4B     		ldr	r3, .L225+72
 3509 034c 1B88     		ldrh	r3, [r3]
 3510 034e 0133     		adds	r3, r3, #1
 3511 0350 9AB2     		uxth	r2, r3
 3512 0352 1B4B     		ldr	r3, .L225+72
 3513 0354 1A80     		strh	r2, [r3]	@ movhi
 834:state_machine.c ****                 if(DACValue > 4080) DACValue = 4080;
 3514              		.loc 1 834 0
 3515 0356 1A4B     		ldr	r3, .L225+72
 3516 0358 1B88     		ldrh	r3, [r3]
 3517 035a B3F57F6F 		cmp	r3, #4080
 3518 035e 03D9     		bls	.L186
 3519              		.loc 1 834 0 is_stmt 0 discriminator 1
 3520 0360 174B     		ldr	r3, .L225+72
 3521 0362 4FF47F62 		mov	r2, #4080
 3522 0366 1A80     		strh	r2, [r3]	@ movhi
 3523              	.L186:
 835:state_machine.c ****                 DVDAC8_1_SetValue(DACValue);                
 3524              		.loc 1 835 0 is_stmt 1
 3525 0368 154B     		ldr	r3, .L225+72
 3526 036a 1B88     		ldrh	r3, [r3]
 3527 036c 1846     		mov	r0, r3
 3528 036e FFF7FEFF 		bl	DVDAC8_1_SetValue
 3529 0372 54E0     		b	.L180
 3530              	.L226:
 3531 0374 AFF30080 		.align	3
 3532              	.L225:
 3533 0378 7B14AE47 		.word	1202590843
 3534 037c E17A743F 		.word	1064598241
 3535 0380 00000000 		.word	Loop_Counter
 3536 0384 00000000 		.word	fVoltage
 3537 0388 00000000 		.word	cVoltage_Actual
 3538 038c 20000000 		.word	.LC4
 3539 0390 00000000 		.word	fCurrent
ARM GAS  C:\Users\KJA\AppData\Local\Temp\ccAyzU2h.s 			page 78


 3540 0394 00000000 		.word	cCurrent_Actual
 3541 0398 28000000 		.word	.LC5
 3542 039c 00000000 		.word	fPower
 3543 03a0 00000000 		.word	cPower_Actual
 3544 03a4 30000000 		.word	.LC6
 3545 03a8 00000000 		.word	fResist
 3546 03ac 00000000 		.word	cResist_Actual
 3547 03b0 38000000 		.word	.LC7
 3548 03b4 00000000 		.word	Current_State
 3549 03b8 00000000 		.word	Position_Number
 3550 03bc 00000000 		.word	Set_Current
 3551 03c0 00000000 		.word	DACValue
 3552              	.L222:
 836:state_machine.c ****             }
 837:state_machine.c ****             else if(fCurrent - Set_Current > 0.005){
 3553              		.loc 1 837 0
 3554 03c4 A84B     		ldr	r3, .L227+24
 3555 03c6 1A68     		ldr	r2, [r3]	@ float
 3556 03c8 A84B     		ldr	r3, .L227+28
 3557 03ca 1B68     		ldr	r3, [r3]	@ float
 3558 03cc 1046     		mov	r0, r2
 3559 03ce 1946     		mov	r1, r3
 3560 03d0 FFF7FEFF 		bl	__aeabi_fsub
 3561 03d4 0346     		mov	r3, r0
 3562 03d6 1846     		mov	r0, r3
 3563 03d8 FFF7FEFF 		bl	__aeabi_f2d
 3564 03dc 0246     		mov	r2, r0
 3565 03de 0B46     		mov	r3, r1
 3566 03e0 1046     		mov	r0, r2
 3567 03e2 1946     		mov	r1, r3
 3568 03e4 9AA3     		adr	r3, .L227
 3569 03e6 D3E90023 		ldrd	r2, [r3]
 3570 03ea FFF7FEFF 		bl	__aeabi_dcmpgt
 3571 03ee 0346     		mov	r3, r0
 3572 03f0 002B     		cmp	r3, #0
 3573 03f2 14D0     		beq	.L180
 838:state_machine.c ****                 DACValue--;
 3574              		.loc 1 838 0
 3575 03f4 9E4B     		ldr	r3, .L227+32
 3576 03f6 1B88     		ldrh	r3, [r3]
 3577 03f8 013B     		subs	r3, r3, #1
 3578 03fa 9AB2     		uxth	r2, r3
 3579 03fc 9C4B     		ldr	r3, .L227+32
 3580 03fe 1A80     		strh	r2, [r3]	@ movhi
 839:state_machine.c ****                 if(DACValue <= 0){
 3581              		.loc 1 839 0
 3582 0400 9B4B     		ldr	r3, .L227+32
 3583 0402 1B88     		ldrh	r3, [r3]
 3584 0404 002B     		cmp	r3, #0
 3585 0406 05D1     		bne	.L188
 840:state_machine.c ****                     DACValue = 0;
 3586              		.loc 1 840 0
 3587 0408 994B     		ldr	r3, .L227+32
 3588 040a 0022     		movs	r2, #0
 3589 040c 1A80     		strh	r2, [r3]	@ movhi
 841:state_machine.c ****                     OutputEnable = 0;
 3590              		.loc 1 841 0
ARM GAS  C:\Users\KJA\AppData\Local\Temp\ccAyzU2h.s 			page 79


 3591 040e 994B     		ldr	r3, .L227+36
 3592 0410 0022     		movs	r2, #0
 3593 0412 1A70     		strb	r2, [r3]
 3594              	.L188:
 842:state_machine.c ****                 }
 843:state_machine.c ****                 DVDAC8_1_SetValue(DACValue);        
 3595              		.loc 1 843 0
 3596 0414 964B     		ldr	r3, .L227+32
 3597 0416 1B88     		ldrh	r3, [r3]
 3598 0418 1846     		mov	r0, r3
 3599 041a FFF7FEFF 		bl	DVDAC8_1_SetValue
 3600              	.L180:
 844:state_machine.c ****             }
 845:state_machine.c ****         }
 846:state_machine.c ****     }
 847:state_machine.c ****     
 848:state_machine.c ****     // Output Disable Case
 849:state_machine.c ****     if(OutputEnable == 0){
 3601              		.loc 1 849 0
 3602 041e 954B     		ldr	r3, .L227+36
 3603 0420 1B78     		ldrb	r3, [r3]	@ zero_extendqisi2
 3604 0422 002B     		cmp	r3, #0
 3605 0424 48D1     		bne	.L189
 850:state_machine.c ****         
 851:state_machine.c ****         if(Loop_Counter >= 1000){
 3606              		.loc 1 851 0
 3607 0426 944B     		ldr	r3, .L227+40
 3608 0428 1B68     		ldr	r3, [r3]
 3609 042a B3F57A7F 		cmp	r3, #1000
 3610 042e 37D3     		bcc	.L190
 852:state_machine.c ****             sprintf((char *)cVoltage_Set,"%2.2fV",fVoltage);
 3611              		.loc 1 852 0
 3612 0430 924B     		ldr	r3, .L227+44
 3613 0432 1B68     		ldr	r3, [r3]	@ float
 3614 0434 1846     		mov	r0, r3
 3615 0436 FFF7FEFF 		bl	__aeabi_f2d
 3616 043a 0246     		mov	r2, r0
 3617 043c 0B46     		mov	r3, r1
 3618 043e 9048     		ldr	r0, .L227+48
 3619 0440 9049     		ldr	r1, .L227+52
 3620 0442 FFF7FEFF 		bl	sprintf
 853:state_machine.c ****             sprintf((char *)cCurrent_Set,"%2.2fA",Set_Current);            
 3621              		.loc 1 853 0
 3622 0446 894B     		ldr	r3, .L227+28
 3623 0448 1B68     		ldr	r3, [r3]	@ float
 3624 044a 1846     		mov	r0, r3
 3625 044c FFF7FEFF 		bl	__aeabi_f2d
 3626 0450 0246     		mov	r2, r0
 3627 0452 0B46     		mov	r3, r1
 3628 0454 8C48     		ldr	r0, .L227+56
 3629 0456 8D49     		ldr	r1, .L227+60
 3630 0458 FFF7FEFF 		bl	sprintf
 854:state_machine.c ****             sprintf((char *)cPower_Set,"%2.2fW",Set_Power);
 3631              		.loc 1 854 0
 3632 045c 8C4B     		ldr	r3, .L227+64
 3633 045e 1B68     		ldr	r3, [r3]	@ float
 3634 0460 1846     		mov	r0, r3
ARM GAS  C:\Users\KJA\AppData\Local\Temp\ccAyzU2h.s 			page 80


 3635 0462 FFF7FEFF 		bl	__aeabi_f2d
 3636 0466 0246     		mov	r2, r0
 3637 0468 0B46     		mov	r3, r1
 3638 046a 8A48     		ldr	r0, .L227+68
 3639 046c 8A49     		ldr	r1, .L227+72
 3640 046e FFF7FEFF 		bl	sprintf
 855:state_machine.c ****             sprintf((char *)cResist_Set,"%4.1fohm",Set_Resist);
 3641              		.loc 1 855 0
 3642 0472 8A4B     		ldr	r3, .L227+76
 3643 0474 1B68     		ldr	r3, [r3]	@ float
 3644 0476 1846     		mov	r0, r3
 3645 0478 FFF7FEFF 		bl	__aeabi_f2d
 3646 047c 0246     		mov	r2, r0
 3647 047e 0B46     		mov	r3, r1
 3648 0480 8748     		ldr	r0, .L227+80
 3649 0482 8849     		ldr	r1, .L227+84
 3650 0484 FFF7FEFF 		bl	sprintf
 856:state_machine.c ****             LCD_Draw(Current_State, Position_Number); 
 3651              		.loc 1 856 0
 3652 0488 874B     		ldr	r3, .L227+88
 3653 048a 1A78     		ldrb	r2, [r3]	@ zero_extendqisi2
 3654 048c 874B     		ldr	r3, .L227+92
 3655 048e 1B78     		ldrb	r3, [r3]	@ zero_extendqisi2
 3656 0490 DBB2     		uxtb	r3, r3
 3657 0492 1046     		mov	r0, r2
 3658 0494 1946     		mov	r1, r3
 3659 0496 FFF7FEFF 		bl	LCD_Draw
 857:state_machine.c ****             Loop_Counter = 0;
 3660              		.loc 1 857 0
 3661 049a 774B     		ldr	r3, .L227+40
 3662 049c 0022     		movs	r2, #0
 3663 049e 1A60     		str	r2, [r3]
 3664              	.L190:
 858:state_machine.c ****         }
 859:state_machine.c ****         DACValue = 0;
 3665              		.loc 1 859 0
 3666 04a0 734B     		ldr	r3, .L227+32
 3667 04a2 0022     		movs	r2, #0
 3668 04a4 1A80     		strh	r2, [r3]	@ movhi
 860:state_machine.c ****         DVDAC8_1_SetValue(0); 
 3669              		.loc 1 860 0
 3670 04a6 0020     		movs	r0, #0
 3671 04a8 FFF7FEFF 		bl	DVDAC8_1_SetValue
 861:state_machine.c ****         DAC_MUX_Select(0);     
 3672              		.loc 1 861 0
 3673 04ac 0020     		movs	r0, #0
 3674 04ae FFF7FEFF 		bl	DAC_MUX_Select
 862:state_machine.c ****         
 863:state_machine.c ****         // Disable Relay
 864:state_machine.c ****         RELAY_Write(0);
 3675              		.loc 1 864 0
 3676 04b2 0020     		movs	r0, #0
 3677 04b4 FFF7FEFF 		bl	RELAY_Write
 3678              	.L189:
 865:state_machine.c ****     }
 866:state_machine.c ****     
 867:state_machine.c ****     
ARM GAS  C:\Users\KJA\AppData\Local\Temp\ccAyzU2h.s 			page 81


 868:state_machine.c ****     // Encoder Control
 869:state_machine.c ****     if(!(Push_Reg_Read() == 0)){
 3679              		.loc 1 869 0
 3680 04b8 FFF7FEFF 		bl	Push_Reg_Read
 3681 04bc 0346     		mov	r3, r0
 3682 04be 002B     		cmp	r3, #0
 3683 04c0 15D0     		beq	.L191
 870:state_machine.c ****         Edit_Value_Mode = !Edit_Value_Mode;
 3684              		.loc 1 870 0
 3685 04c2 7B4B     		ldr	r3, .L227+96
 3686 04c4 1B78     		ldrb	r3, [r3]	@ zero_extendqisi2
 3687 04c6 002B     		cmp	r3, #0
 3688 04c8 0CBF     		ite	eq
 3689 04ca 0123     		moveq	r3, #1
 3690 04cc 0023     		movne	r3, #0
 3691 04ce DBB2     		uxtb	r3, r3
 3692 04d0 1A46     		mov	r2, r3
 3693 04d2 774B     		ldr	r3, .L227+96
 3694 04d4 1A70     		strb	r2, [r3]
 871:state_machine.c ****         QD_SetCounter(Current_Counter);
 3695              		.loc 1 871 0
 3696 04d6 774B     		ldr	r3, .L227+100
 3697 04d8 1B68     		ldr	r3, [r3]
 3698 04da 9BB2     		uxth	r3, r3
 3699 04dc 1BB2     		sxth	r3, r3
 3700 04de 1846     		mov	r0, r3
 3701 04e0 FFF7FEFF 		bl	QD_SetCounter
 872:state_machine.c ****         Buzzer_Shot(Push_Buzzer__Default_Lenght);
 3702              		.loc 1 872 0
 3703 04e4 744B     		ldr	r3, .L227+104
 3704 04e6 1B68     		ldr	r3, [r3]
 3705 04e8 1846     		mov	r0, r3
 3706 04ea FFF7FEFF 		bl	Buzzer_Shot
 3707              	.L191:
 873:state_machine.c ****     }
 874:state_machine.c ****     
 875:state_machine.c **** 
 876:state_machine.c ****     if(Edit_Value_Mode == 1){ 
 3708              		.loc 1 876 0
 3709 04ee 704B     		ldr	r3, .L227+96
 3710 04f0 1B78     		ldrb	r3, [r3]	@ zero_extendqisi2
 3711 04f2 012B     		cmp	r3, #1
 3712 04f4 40F04981 		bne	.L192
 877:state_machine.c ****         Current_Counter = QD_GetCounter();
 3713              		.loc 1 877 0
 3714 04f8 FFF7FEFF 		bl	QD_GetCounter
 3715 04fc 0346     		mov	r3, r0
 3716 04fe 1A46     		mov	r2, r3
 3717 0500 6C4B     		ldr	r3, .L227+100
 3718 0502 1A60     		str	r2, [r3]
 878:state_machine.c ****         
 879:state_machine.c ****         if(Position_Number == 0){
 3719              		.loc 1 879 0
 3720 0504 694B     		ldr	r3, .L227+92
 3721 0506 1B78     		ldrb	r3, [r3]	@ zero_extendqisi2
 3722 0508 002B     		cmp	r3, #0
 3723 050a 30D1     		bne	.L193
ARM GAS  C:\Users\KJA\AppData\Local\Temp\ccAyzU2h.s 			page 82


 880:state_machine.c ****             if(!(Last_Counter == Current_Counter)){
 3724              		.loc 1 880 0
 3725 050c 6B4B     		ldr	r3, .L227+108
 3726 050e 1A68     		ldr	r2, [r3]
 3727 0510 684B     		ldr	r3, .L227+100
 3728 0512 1B68     		ldr	r3, [r3]
 3729 0514 9A42     		cmp	r2, r3
 3730 0516 2AD0     		beq	.L193
 881:state_machine.c ****                 if(Last_Counter > Current_Counter){
 3731              		.loc 1 881 0
 3732 0518 684B     		ldr	r3, .L227+108
 3733 051a 1A68     		ldr	r2, [r3]
 3734 051c 654B     		ldr	r3, .L227+100
 3735 051e 1B68     		ldr	r3, [r3]
 3736 0520 9A42     		cmp	r2, r3
 3737 0522 0ADD     		ble	.L194
 882:state_machine.c ****                     Set_Current_Temporary_Value = Set_Current_Temporary_Value - 1;
 3738              		.loc 1 882 0
 3739 0524 664B     		ldr	r3, .L227+112
 3740 0526 1B68     		ldr	r3, [r3]	@ float
 3741 0528 1846     		mov	r0, r3
 3742 052a 4FF07E51 		mov	r1, #1065353216
 3743 052e FFF7FEFF 		bl	__aeabi_fsub
 3744 0532 0346     		mov	r3, r0
 3745 0534 1A46     		mov	r2, r3
 3746 0536 624B     		ldr	r3, .L227+112
 3747 0538 1A60     		str	r2, [r3]	@ float
 3748              	.L194:
 883:state_machine.c ****                 }
 884:state_machine.c ****                 if(Last_Counter < Current_Counter){
 3749              		.loc 1 884 0
 3750 053a 604B     		ldr	r3, .L227+108
 3751 053c 1A68     		ldr	r2, [r3]
 3752 053e 5D4B     		ldr	r3, .L227+100
 3753 0540 1B68     		ldr	r3, [r3]
 3754 0542 9A42     		cmp	r2, r3
 3755 0544 0ADA     		bge	.L195
 885:state_machine.c ****                     Set_Current_Temporary_Value = Set_Current_Temporary_Value + 1;
 3756              		.loc 1 885 0
 3757 0546 5E4B     		ldr	r3, .L227+112
 3758 0548 1B68     		ldr	r3, [r3]	@ float
 3759 054a 1846     		mov	r0, r3
 3760 054c 4FF07E51 		mov	r1, #1065353216
 3761 0550 FFF7FEFF 		bl	__aeabi_fadd
 3762 0554 0346     		mov	r3, r0
 3763 0556 1A46     		mov	r2, r3
 3764 0558 594B     		ldr	r3, .L227+112
 3765 055a 1A60     		str	r2, [r3]	@ float
 3766              	.L195:
 886:state_machine.c ****                 }
 887:state_machine.c ****                 Last_Counter = Current_Counter;   
 3767              		.loc 1 887 0
 3768 055c 554B     		ldr	r3, .L227+100
 3769 055e 1B68     		ldr	r3, [r3]
 3770 0560 564A     		ldr	r2, .L227+108
 3771 0562 1360     		str	r3, [r2]
 888:state_machine.c ****                 Buzzer_Shot(Rotate_Buzzer__Default_Lenght);
ARM GAS  C:\Users\KJA\AppData\Local\Temp\ccAyzU2h.s 			page 83


 3772              		.loc 1 888 0
 3773 0564 574B     		ldr	r3, .L227+116
 3774 0566 1B68     		ldr	r3, [r3]
 3775 0568 1846     		mov	r0, r3
 3776 056a FFF7FEFF 		bl	Buzzer_Shot
 3777              	.L193:
 889:state_machine.c ****             }      
 890:state_machine.c ****         }        
 891:state_machine.c ****         
 892:state_machine.c ****         if(Position_Number == 1){
 3778              		.loc 1 892 0
 3779 056e 4F4B     		ldr	r3, .L227+92
 3780 0570 1B78     		ldrb	r3, [r3]	@ zero_extendqisi2
 3781 0572 5BB2     		sxtb	r3, r3
 3782 0574 012B     		cmp	r3, #1
 3783 0576 48D1     		bne	.L196
 893:state_machine.c ****             if(!(Last_Counter == Current_Counter)){
 3784              		.loc 1 893 0
 3785 0578 504B     		ldr	r3, .L227+108
 3786 057a 1A68     		ldr	r2, [r3]
 3787 057c 4D4B     		ldr	r3, .L227+100
 3788 057e 1B68     		ldr	r3, [r3]
 3789 0580 9A42     		cmp	r2, r3
 3790 0582 42D0     		beq	.L196
 894:state_machine.c ****                 if(Last_Counter > Current_Counter){
 3791              		.loc 1 894 0
 3792 0584 4D4B     		ldr	r3, .L227+108
 3793 0586 1A68     		ldr	r2, [r3]
 3794 0588 4A4B     		ldr	r3, .L227+100
 3795 058a 1B68     		ldr	r3, [r3]
 3796 058c 9A42     		cmp	r2, r3
 3797 058e 16DD     		ble	.L197
 895:state_machine.c ****                     Set_Current_Temporary_Value = Set_Current_Temporary_Value - 0.1;
 3798              		.loc 1 895 0
 3799 0590 4B4B     		ldr	r3, .L227+112
 3800 0592 1B68     		ldr	r3, [r3]	@ float
 3801 0594 1846     		mov	r0, r3
 3802 0596 FFF7FEFF 		bl	__aeabi_f2d
 3803 059a 0246     		mov	r2, r0
 3804 059c 0B46     		mov	r3, r1
 3805 059e 1046     		mov	r0, r2
 3806 05a0 1946     		mov	r1, r3
 3807 05a2 2DA3     		adr	r3, .L227+8
 3808 05a4 D3E90023 		ldrd	r2, [r3]
 3809 05a8 FFF7FEFF 		bl	__aeabi_dsub
 3810 05ac 0246     		mov	r2, r0
 3811 05ae 0B46     		mov	r3, r1
 3812 05b0 1046     		mov	r0, r2
 3813 05b2 1946     		mov	r1, r3
 3814 05b4 FFF7FEFF 		bl	__aeabi_d2f
 3815 05b8 0246     		mov	r2, r0
 3816 05ba 414B     		ldr	r3, .L227+112
 3817 05bc 1A60     		str	r2, [r3]	@ float
 3818              	.L197:
 896:state_machine.c ****                 }
 897:state_machine.c ****                 if(Last_Counter < Current_Counter){
 3819              		.loc 1 897 0
ARM GAS  C:\Users\KJA\AppData\Local\Temp\ccAyzU2h.s 			page 84


 3820 05be 3F4B     		ldr	r3, .L227+108
 3821 05c0 1A68     		ldr	r2, [r3]
 3822 05c2 3C4B     		ldr	r3, .L227+100
 3823 05c4 1B68     		ldr	r3, [r3]
 3824 05c6 9A42     		cmp	r2, r3
 3825 05c8 16DA     		bge	.L198
 898:state_machine.c ****                     Set_Current_Temporary_Value = Set_Current_Temporary_Value + 0.1;
 3826              		.loc 1 898 0
 3827 05ca 3D4B     		ldr	r3, .L227+112
 3828 05cc 1B68     		ldr	r3, [r3]	@ float
 3829 05ce 1846     		mov	r0, r3
 3830 05d0 FFF7FEFF 		bl	__aeabi_f2d
 3831 05d4 0246     		mov	r2, r0
 3832 05d6 0B46     		mov	r3, r1
 3833 05d8 1046     		mov	r0, r2
 3834 05da 1946     		mov	r1, r3
 3835 05dc 1EA3     		adr	r3, .L227+8
 3836 05de D3E90023 		ldrd	r2, [r3]
 3837 05e2 FFF7FEFF 		bl	__aeabi_dadd
 3838 05e6 0246     		mov	r2, r0
 3839 05e8 0B46     		mov	r3, r1
 3840 05ea 1046     		mov	r0, r2
 3841 05ec 1946     		mov	r1, r3
 3842 05ee FFF7FEFF 		bl	__aeabi_d2f
 3843 05f2 0246     		mov	r2, r0
 3844 05f4 324B     		ldr	r3, .L227+112
 3845 05f6 1A60     		str	r2, [r3]	@ float
 3846              	.L198:
 899:state_machine.c ****                 }
 900:state_machine.c ****                 Last_Counter = Current_Counter;   
 3847              		.loc 1 900 0
 3848 05f8 2E4B     		ldr	r3, .L227+100
 3849 05fa 1B68     		ldr	r3, [r3]
 3850 05fc 2F4A     		ldr	r2, .L227+108
 3851 05fe 1360     		str	r3, [r2]
 901:state_machine.c ****                 Buzzer_Shot(Rotate_Buzzer__Default_Lenght);
 3852              		.loc 1 901 0
 3853 0600 304B     		ldr	r3, .L227+116
 3854 0602 1B68     		ldr	r3, [r3]
 3855 0604 1846     		mov	r0, r3
 3856 0606 FFF7FEFF 		bl	Buzzer_Shot
 3857              	.L196:
 902:state_machine.c ****             }      
 903:state_machine.c ****         }
 904:state_machine.c ****         if(Position_Number == 2){
 3858              		.loc 1 904 0
 3859 060a 284B     		ldr	r3, .L227+92
 3860 060c 1B78     		ldrb	r3, [r3]	@ zero_extendqisi2
 3861 060e 5BB2     		sxtb	r3, r3
 3862 0610 022B     		cmp	r3, #2
 3863 0612 40F08780 		bne	.L199
 905:state_machine.c ****             if(!(Last_Counter == Current_Counter)){
 3864              		.loc 1 905 0
 3865 0616 294B     		ldr	r3, .L227+108
 3866 0618 1A68     		ldr	r2, [r3]
 3867 061a 264B     		ldr	r3, .L227+100
 3868 061c 1B68     		ldr	r3, [r3]
ARM GAS  C:\Users\KJA\AppData\Local\Temp\ccAyzU2h.s 			page 85


 3869 061e 9A42     		cmp	r2, r3
 3870 0620 00F08080 		beq	.L199
 906:state_machine.c ****                 if(Last_Counter > Current_Counter){
 3871              		.loc 1 906 0
 3872 0624 254B     		ldr	r3, .L227+108
 3873 0626 1A68     		ldr	r2, [r3]
 3874 0628 224B     		ldr	r3, .L227+100
 3875 062a 1B68     		ldr	r3, [r3]
 3876 062c 9A42     		cmp	r2, r3
 3877 062e 53DD     		ble	.L200
 907:state_machine.c ****                     Set_Current_Temporary_Value = Set_Current_Temporary_Value - 0.01;
 3878              		.loc 1 907 0
 3879 0630 234B     		ldr	r3, .L227+112
 3880 0632 1B68     		ldr	r3, [r3]	@ float
 3881 0634 1846     		mov	r0, r3
 3882 0636 FFF7FEFF 		bl	__aeabi_f2d
 3883 063a 0246     		mov	r2, r0
 3884 063c 0B46     		mov	r3, r1
 3885 063e 1046     		mov	r0, r2
 3886 0640 1946     		mov	r1, r3
 3887 0642 07A3     		adr	r3, .L227+16
 3888 0644 D3E90023 		ldrd	r2, [r3]
 3889 0648 FFF7FEFF 		bl	__aeabi_dsub
 3890 064c 0246     		mov	r2, r0
 3891 064e 3BE0     		b	.L228
 3892              	.L229:
 3893              		.align	3
 3894              	.L227:
 3895 0650 7B14AE47 		.word	1202590843
 3896 0654 E17A743F 		.word	1064598241
 3897 0658 9A999999 		.word	-1717986918
 3898 065c 9999B93F 		.word	1069128089
 3899 0660 7B14AE47 		.word	1202590843
 3900 0664 E17A843F 		.word	1065646817
 3901 0668 00000000 		.word	fCurrent
 3902 066c 00000000 		.word	Set_Current
 3903 0670 00000000 		.word	DACValue
 3904 0674 00000000 		.word	OutputEnable
 3905 0678 00000000 		.word	Loop_Counter
 3906 067c 00000000 		.word	fVoltage
 3907 0680 00000000 		.word	cVoltage_Set
 3908 0684 20000000 		.word	.LC4
 3909 0688 00000000 		.word	cCurrent_Set
 3910 068c 28000000 		.word	.LC5
 3911 0690 00000000 		.word	Set_Power
 3912 0694 00000000 		.word	cPower_Set
 3913 0698 44000000 		.word	.LC8
 3914 069c 00000000 		.word	Set_Resist
 3915 06a0 00000000 		.word	cResist_Set
 3916 06a4 38000000 		.word	.LC7
 3917 06a8 00000000 		.word	Current_State
 3918 06ac 00000000 		.word	Position_Number
 3919 06b0 00000000 		.word	Edit_Value_Mode
 3920 06b4 00000000 		.word	Current_Counter
 3921 06b8 00000000 		.word	Push_Buzzer__Default_Lenght
 3922 06bc 00000000 		.word	Last_Counter
 3923 06c0 00000000 		.word	Set_Current_Temporary_Value
ARM GAS  C:\Users\KJA\AppData\Local\Temp\ccAyzU2h.s 			page 86


 3924 06c4 00000000 		.word	Rotate_Buzzer__Default_Lenght
 3925              	.L228:
 3926 06c8 0B46     		mov	r3, r1
 3927 06ca 1046     		mov	r0, r2
 3928 06cc 1946     		mov	r1, r3
 3929 06ce FFF7FEFF 		bl	__aeabi_d2f
 3930 06d2 0246     		mov	r2, r0
 3931 06d4 764B     		ldr	r3, .L230+8
 3932 06d6 1A60     		str	r2, [r3]	@ float
 3933              	.L200:
 908:state_machine.c ****                 }
 909:state_machine.c ****                 if(Last_Counter < Current_Counter){
 3934              		.loc 1 909 0
 3935 06d8 764B     		ldr	r3, .L230+12
 3936 06da 1A68     		ldr	r2, [r3]
 3937 06dc 764B     		ldr	r3, .L230+16
 3938 06de 1B68     		ldr	r3, [r3]
 3939 06e0 9A42     		cmp	r2, r3
 3940 06e2 16DA     		bge	.L201
 910:state_machine.c ****                     Set_Current_Temporary_Value = Set_Current_Temporary_Value + 0.01;
 3941              		.loc 1 910 0
 3942 06e4 724B     		ldr	r3, .L230+8
 3943 06e6 1B68     		ldr	r3, [r3]	@ float
 3944 06e8 1846     		mov	r0, r3
 3945 06ea FFF7FEFF 		bl	__aeabi_f2d
 3946 06ee 0246     		mov	r2, r0
 3947 06f0 0B46     		mov	r3, r1
 3948 06f2 1046     		mov	r0, r2
 3949 06f4 1946     		mov	r1, r3
 3950 06f6 6CA3     		adr	r3, .L230
 3951 06f8 D3E90023 		ldrd	r2, [r3]
 3952 06fc FFF7FEFF 		bl	__aeabi_dadd
 3953 0700 0246     		mov	r2, r0
 3954 0702 0B46     		mov	r3, r1
 3955 0704 1046     		mov	r0, r2
 3956 0706 1946     		mov	r1, r3
 3957 0708 FFF7FEFF 		bl	__aeabi_d2f
 3958 070c 0246     		mov	r2, r0
 3959 070e 684B     		ldr	r3, .L230+8
 3960 0710 1A60     		str	r2, [r3]	@ float
 3961              	.L201:
 911:state_machine.c ****                 }
 912:state_machine.c ****                 Last_Counter = Current_Counter;   
 3962              		.loc 1 912 0
 3963 0712 694B     		ldr	r3, .L230+16
 3964 0714 1B68     		ldr	r3, [r3]
 3965 0716 674A     		ldr	r2, .L230+12
 3966 0718 1360     		str	r3, [r2]
 913:state_machine.c ****                 Buzzer_Shot(Rotate_Buzzer__Default_Lenght);
 3967              		.loc 1 913 0
 3968 071a 684B     		ldr	r3, .L230+20
 3969 071c 1B68     		ldr	r3, [r3]
 3970 071e 1846     		mov	r0, r3
 3971 0720 FFF7FEFF 		bl	Buzzer_Shot
 3972              	.L199:
 914:state_machine.c ****             }      
 915:state_machine.c ****         }
ARM GAS  C:\Users\KJA\AppData\Local\Temp\ccAyzU2h.s 			page 87


 916:state_machine.c ****           
 917:state_machine.c ****         if(Set_Current_Temporary_Value > MaxSetValue){
 3973              		.loc 1 917 0
 3974 0724 624B     		ldr	r3, .L230+8
 3975 0726 1B68     		ldr	r3, [r3]	@ float
 3976 0728 1846     		mov	r0, r3
 3977 072a 7968     		ldr	r1, [r7, #4]	@ float
 3978 072c FFF7FEFF 		bl	__aeabi_fcmpgt
 3979 0730 0346     		mov	r3, r0
 3980 0732 002B     		cmp	r3, #0
 3981 0734 0BD0     		beq	.L202
 918:state_machine.c ****             Set_Current_Temporary_Value = MaxSetValue;
 3982              		.loc 1 918 0
 3983 0736 5E4A     		ldr	r2, .L230+8
 3984 0738 7B68     		ldr	r3, [r7, #4]	@ float
 3985 073a 1360     		str	r3, [r2]	@ float
 919:state_machine.c ****             Buzzer_Shot(10*Rotate_Buzzer__Default_Lenght);
 3986              		.loc 1 919 0
 3987 073c 5F4B     		ldr	r3, .L230+20
 3988 073e 1A68     		ldr	r2, [r3]
 3989 0740 1346     		mov	r3, r2
 3990 0742 9B00     		lsls	r3, r3, #2
 3991 0744 1344     		add	r3, r3, r2
 3992 0746 5B00     		lsls	r3, r3, #1
 3993 0748 1846     		mov	r0, r3
 3994 074a FFF7FEFF 		bl	Buzzer_Shot
 3995              	.L202:
 920:state_machine.c ****         }
 921:state_machine.c ****         if(Set_Current_Temporary_Value < 0){
 3996              		.loc 1 921 0
 3997 074e 584B     		ldr	r3, .L230+8
 3998 0750 1B68     		ldr	r3, [r3]	@ float
 3999 0752 1846     		mov	r0, r3
 4000 0754 4FF00001 		mov	r1, #0
 4001 0758 FFF7FEFF 		bl	__aeabi_fcmplt
 4002 075c 0346     		mov	r3, r0
 4003 075e 002B     		cmp	r3, #0
 4004 0760 0FD0     		beq	.L204
 922:state_machine.c ****             OutputEnable = 0;
 4005              		.loc 1 922 0
 4006 0762 574B     		ldr	r3, .L230+24
 4007 0764 0022     		movs	r2, #0
 4008 0766 1A70     		strb	r2, [r3]
 923:state_machine.c ****             Set_Current_Temporary_Value = 0;
 4009              		.loc 1 923 0
 4010 0768 514B     		ldr	r3, .L230+8
 4011 076a 4FF00002 		mov	r2, #0
 4012 076e 1A60     		str	r2, [r3]	@ float
 924:state_machine.c ****             Buzzer_Shot(10*Rotate_Buzzer__Default_Lenght);
 4013              		.loc 1 924 0
 4014 0770 524B     		ldr	r3, .L230+20
 4015 0772 1A68     		ldr	r2, [r3]
 4016 0774 1346     		mov	r3, r2
 4017 0776 9B00     		lsls	r3, r3, #2
 4018 0778 1344     		add	r3, r3, r2
 4019 077a 5B00     		lsls	r3, r3, #1
 4020 077c 1846     		mov	r0, r3
ARM GAS  C:\Users\KJA\AppData\Local\Temp\ccAyzU2h.s 			page 88


 4021 077e FFF7FEFF 		bl	Buzzer_Shot
 4022              	.L204:
 925:state_machine.c ****         }
 926:state_machine.c ****         Set_Current = Set_Current_Temporary_Value;  
 4023              		.loc 1 926 0
 4024 0782 4B4B     		ldr	r3, .L230+8
 4025 0784 1B68     		ldr	r3, [r3]	@ float
 4026 0786 4F4A     		ldr	r2, .L230+28
 4027 0788 1360     		str	r3, [r2]	@ float
 4028              	.L192:
 927:state_machine.c ****        
 928:state_machine.c ****         
 929:state_machine.c ****     }
 930:state_machine.c ****  
 931:state_machine.c ****     //Buttons Control
 932:state_machine.c ****     if(!(button1 == 0)){    //Output Enable Button
 4029              		.loc 1 932 0
 4030 078a 4F4B     		ldr	r3, .L230+32
 4031 078c 1B78     		ldrb	r3, [r3]	@ zero_extendqisi2
 4032 078e 002B     		cmp	r3, #0
 4033 0790 17D0     		beq	.L206
 933:state_machine.c ****         Buzzer_Shot(Push_Buzzer__Default_Lenght);
 4034              		.loc 1 933 0
 4035 0792 4E4B     		ldr	r3, .L230+36
 4036 0794 1B68     		ldr	r3, [r3]
 4037 0796 1846     		mov	r0, r3
 4038 0798 FFF7FEFF 		bl	Buzzer_Shot
 934:state_machine.c ****         if(OutputEnable == 0){
 4039              		.loc 1 934 0
 4040 079c 484B     		ldr	r3, .L230+24
 4041 079e 1B78     		ldrb	r3, [r3]	@ zero_extendqisi2
 4042 07a0 002B     		cmp	r3, #0
 4043 07a2 08D1     		bne	.L207
 935:state_machine.c ****             if(Check_Input() == 1){
 4044              		.loc 1 935 0
 4045 07a4 FFF7FEFF 		bl	Check_Input
 4046 07a8 0346     		mov	r3, r0
 4047 07aa 012B     		cmp	r3, #1
 4048 07ac 06D1     		bne	.L209
 936:state_machine.c ****                 OutputEnable = 1;
 4049              		.loc 1 936 0
 4050 07ae 444B     		ldr	r3, .L230+24
 4051 07b0 0122     		movs	r2, #1
 4052 07b2 1A70     		strb	r2, [r3]
 4053 07b4 02E0     		b	.L209
 4054              	.L207:
 937:state_machine.c ****             }
 938:state_machine.c ****         }
 939:state_machine.c ****         else OutputEnable = 0;
 4055              		.loc 1 939 0
 4056 07b6 424B     		ldr	r3, .L230+24
 4057 07b8 0022     		movs	r2, #0
 4058 07ba 1A70     		strb	r2, [r3]
 4059              	.L209:
 940:state_machine.c ****         Edit_Value_Mode = 0;      
 4060              		.loc 1 940 0
 4061 07bc 444B     		ldr	r3, .L230+40
ARM GAS  C:\Users\KJA\AppData\Local\Temp\ccAyzU2h.s 			page 89


 4062 07be 0022     		movs	r2, #0
 4063 07c0 1A70     		strb	r2, [r3]
 4064              	.L206:
 941:state_machine.c ****     }
 942:state_machine.c ****     
 943:state_machine.c ****     if(!(button2 == 0)){    //Four/Two Wire Select
 4065              		.loc 1 943 0
 4066 07c2 444B     		ldr	r3, .L230+44
 4067 07c4 1B78     		ldrb	r3, [r3]	@ zero_extendqisi2
 4068 07c6 002B     		cmp	r3, #0
 4069 07c8 0ED0     		beq	.L210
 944:state_machine.c ****         Four_Wire_Method = !Four_Wire_Method;
 4070              		.loc 1 944 0
 4071 07ca 434B     		ldr	r3, .L230+48
 4072 07cc 1B78     		ldrb	r3, [r3]	@ zero_extendqisi2
 4073 07ce 002B     		cmp	r3, #0
 4074 07d0 0CBF     		ite	eq
 4075 07d2 0123     		moveq	r3, #1
 4076 07d4 0023     		movne	r3, #0
 4077 07d6 DBB2     		uxtb	r3, r3
 4078 07d8 1A46     		mov	r2, r3
 4079 07da 3F4B     		ldr	r3, .L230+48
 4080 07dc 1A70     		strb	r2, [r3]
 945:state_machine.c ****         Buzzer_Shot(Push_Buzzer__Default_Lenght);
 4081              		.loc 1 945 0
 4082 07de 3B4B     		ldr	r3, .L230+36
 4083 07e0 1B68     		ldr	r3, [r3]
 4084 07e2 1846     		mov	r0, r3
 4085 07e4 FFF7FEFF 		bl	Buzzer_Shot
 4086              	.L210:
 946:state_machine.c ****     }
 947:state_machine.c ****     
 948:state_machine.c ****     
 949:state_machine.c ****     
 950:state_machine.c ****     if(!(button3 == 0)){    //Four/Two Wire Select
 4087              		.loc 1 950 0
 4088 07e8 3C4B     		ldr	r3, .L230+52
 4089 07ea 1B78     		ldrb	r3, [r3]	@ zero_extendqisi2
 4090 07ec 002B     		cmp	r3, #0
 4091 07ee 0ED0     		beq	.L211
 951:state_machine.c ****         View_Mode = !View_Mode;
 4092              		.loc 1 951 0
 4093 07f0 3B4B     		ldr	r3, .L230+56
 4094 07f2 1B78     		ldrb	r3, [r3]	@ zero_extendqisi2
 4095 07f4 002B     		cmp	r3, #0
 4096 07f6 0CBF     		ite	eq
 4097 07f8 0123     		moveq	r3, #1
 4098 07fa 0023     		movne	r3, #0
 4099 07fc DBB2     		uxtb	r3, r3
 4100 07fe 1A46     		mov	r2, r3
 4101 0800 374B     		ldr	r3, .L230+56
 4102 0802 1A70     		strb	r2, [r3]
 952:state_machine.c ****         Buzzer_Shot(Push_Buzzer__Default_Lenght);
 4103              		.loc 1 952 0
 4104 0804 314B     		ldr	r3, .L230+36
 4105 0806 1B68     		ldr	r3, [r3]
 4106 0808 1846     		mov	r0, r3
ARM GAS  C:\Users\KJA\AppData\Local\Temp\ccAyzU2h.s 			page 90


 4107 080a FFF7FEFF 		bl	Buzzer_Shot
 4108              	.L211:
 953:state_machine.c ****     }
 954:state_machine.c ****     
 955:state_machine.c **** //        
 956:state_machine.c **** //        Temporary = !Temporary;  
 957:state_machine.c **** //        
 958:state_machine.c **** //        if(Temporary == 1){
 959:state_machine.c **** //            
 960:state_machine.c **** //            DACValue = DACValue*2.5;
 961:state_machine.c **** //            DVDAC8_1_SetValue(DACValue);
 962:state_machine.c **** //            
 963:state_machine.c **** //            LEM_A_Write(0);     //160 Ohm - Range 2
 964:state_machine.c **** //            LEM_B_Write(0);   //60 Ohm - Range 3
 965:state_machine.c **** //            
 966:state_machine.c **** //
 967:state_machine.c **** //           
 968:state_machine.c **** //            Actual_Range = 1;       
 969:state_machine.c **** //        }
 970:state_machine.c **** //        else{
 971:state_machine.c **** //            DACValue = DACValue/2.5;
 972:state_machine.c **** //            DVDAC8_1_SetValue(DACValue);
 973:state_machine.c **** //            
 974:state_machine.c **** //            LEM_A_Write(1);     //160 Ohm - Range 2
 975:state_machine.c **** //            //LEM_B_Write(1);   //60 Ohm - Range 3
 976:state_machine.c **** //                        
 977:state_machine.c **** //            Actual_Range = 2; 
 978:state_machine.c **** //        }
 979:state_machine.c **** //        
 980:state_machine.c **** //        Buzzer_Shot(Push_Buzzer__Default_Lenght);
 981:state_machine.c **** //    }  
 982:state_machine.c ****     
 983:state_machine.c ****     if(!(button4 == 0)){    //Back Button
 4109              		.loc 1 983 0
 4110 080e 354B     		ldr	r3, .L230+60
 4111 0810 1B78     		ldrb	r3, [r3]	@ zero_extendqisi2
 4112 0812 002B     		cmp	r3, #0
 4113 0814 10D0     		beq	.L212
 984:state_machine.c ****         QD_SetCounter(3);
 4114              		.loc 1 984 0
 4115 0816 0320     		movs	r0, #3
 4116 0818 FFF7FEFF 		bl	QD_SetCounter
 985:state_machine.c ****         OutputEnable = 0;
 4117              		.loc 1 985 0
 4118 081c 284B     		ldr	r3, .L230+24
 4119 081e 0022     		movs	r2, #0
 4120 0820 1A70     		strb	r2, [r3]
 986:state_machine.c ****         Edit_Value_Mode = 0;
 4121              		.loc 1 986 0
 4122 0822 2B4B     		ldr	r3, .L230+40
 4123 0824 0022     		movs	r2, #0
 4124 0826 1A70     		strb	r2, [r3]
 987:state_machine.c ****         Current_State = ConstantMode;
 4125              		.loc 1 987 0
 4126 0828 2F4B     		ldr	r3, .L230+64
 4127 082a 0222     		movs	r2, #2
 4128 082c 1A70     		strb	r2, [r3]
ARM GAS  C:\Users\KJA\AppData\Local\Temp\ccAyzU2h.s 			page 91


 988:state_machine.c ****         Buzzer_Shot(Push_Buzzer__Default_Lenght);
 4129              		.loc 1 988 0
 4130 082e 274B     		ldr	r3, .L230+36
 4131 0830 1B68     		ldr	r3, [r3]
 4132 0832 1846     		mov	r0, r3
 4133 0834 FFF7FEFF 		bl	Buzzer_Shot
 4134              	.L212:
 989:state_machine.c ****     }
 990:state_machine.c ****     
 991:state_machine.c **** 
 992:state_machine.c ****     if(!(button6 == 0)){    // Shift Right Button
 4135              		.loc 1 992 0
 4136 0838 2C4B     		ldr	r3, .L230+68
 4137 083a 1B78     		ldrb	r3, [r3]	@ zero_extendqisi2
 4138 083c 002B     		cmp	r3, #0
 4139 083e 15D0     		beq	.L213
 993:state_machine.c ****         Position_Number++;
 4140              		.loc 1 993 0
 4141 0840 2B4B     		ldr	r3, .L230+72
 4142 0842 1B78     		ldrb	r3, [r3]	@ zero_extendqisi2
 4143 0844 DBB2     		uxtb	r3, r3
 4144 0846 DBB2     		uxtb	r3, r3
 4145 0848 0133     		adds	r3, r3, #1
 4146 084a DBB2     		uxtb	r3, r3
 4147 084c DAB2     		uxtb	r2, r3
 4148 084e 284B     		ldr	r3, .L230+72
 4149 0850 1A70     		strb	r2, [r3]
 994:state_machine.c ****         if(Position_Number >2) Position_Number = 2;
 4150              		.loc 1 994 0
 4151 0852 274B     		ldr	r3, .L230+72
 4152 0854 1B78     		ldrb	r3, [r3]	@ zero_extendqisi2
 4153 0856 5BB2     		sxtb	r3, r3
 4154 0858 022B     		cmp	r3, #2
 4155 085a 02DD     		ble	.L214
 4156              		.loc 1 994 0 is_stmt 0 discriminator 1
 4157 085c 244B     		ldr	r3, .L230+72
 4158 085e 0222     		movs	r2, #2
 4159 0860 1A70     		strb	r2, [r3]
 4160              	.L214:
 995:state_machine.c ****         Buzzer_Shot(Push_Buzzer__Default_Lenght);
 4161              		.loc 1 995 0 is_stmt 1
 4162 0862 1A4B     		ldr	r3, .L230+36
 4163 0864 1B68     		ldr	r3, [r3]
 4164 0866 1846     		mov	r0, r3
 4165 0868 FFF7FEFF 		bl	Buzzer_Shot
 4166              	.L213:
 996:state_machine.c ****     }
 997:state_machine.c ****     
 998:state_machine.c ****     if(!(button5 == 0)){    // Shift Left Button
 4167              		.loc 1 998 0
 4168 086c 214B     		ldr	r3, .L230+76
 4169 086e 1B78     		ldrb	r3, [r3]	@ zero_extendqisi2
 4170 0870 002B     		cmp	r3, #0
 4171 0872 15D0     		beq	.L174
 999:state_machine.c ****         Position_Number--;
 4172              		.loc 1 999 0
 4173 0874 1E4B     		ldr	r3, .L230+72
ARM GAS  C:\Users\KJA\AppData\Local\Temp\ccAyzU2h.s 			page 92


 4174 0876 1B78     		ldrb	r3, [r3]	@ zero_extendqisi2
 4175 0878 DBB2     		uxtb	r3, r3
 4176 087a DBB2     		uxtb	r3, r3
 4177 087c 013B     		subs	r3, r3, #1
 4178 087e DBB2     		uxtb	r3, r3
 4179 0880 DAB2     		uxtb	r2, r3
 4180 0882 1B4B     		ldr	r3, .L230+72
 4181 0884 1A70     		strb	r2, [r3]
1000:state_machine.c ****         if(Position_Number <0) Position_Number = 0;
 4182              		.loc 1 1000 0
 4183 0886 1A4B     		ldr	r3, .L230+72
 4184 0888 1B78     		ldrb	r3, [r3]	@ zero_extendqisi2
 4185 088a 5BB2     		sxtb	r3, r3
 4186 088c 002B     		cmp	r3, #0
 4187 088e 02DA     		bge	.L216
 4188              		.loc 1 1000 0 is_stmt 0 discriminator 1
 4189 0890 174B     		ldr	r3, .L230+72
 4190 0892 0022     		movs	r2, #0
 4191 0894 1A70     		strb	r2, [r3]
 4192              	.L216:
1001:state_machine.c ****         Buzzer_Shot(Push_Buzzer__Default_Lenght);
 4193              		.loc 1 1001 0 is_stmt 1
 4194 0896 0D4B     		ldr	r3, .L230+36
 4195 0898 1B68     		ldr	r3, [r3]
 4196 089a 1846     		mov	r0, r3
 4197 089c FFF7FEFF 		bl	Buzzer_Shot
 4198              	.L174:
1002:state_machine.c ****     }
1003:state_machine.c ****     
1004:state_machine.c ****  }
 4199              		.loc 1 1004 0
 4200 08a0 0C37     		adds	r7, r7, #12
 4201              		.cfi_def_cfa_offset 12
 4202 08a2 BD46     		mov	sp, r7
 4203              		.cfi_def_cfa_register 13
 4204              		@ sp needed
 4205 08a4 90BD     		pop	{r4, r7, pc}
 4206              	.L231:
 4207 08a6 00BF     		.align	3
 4208              	.L230:
 4209 08a8 7B14AE47 		.word	1202590843
 4210 08ac E17A843F 		.word	1065646817
 4211 08b0 00000000 		.word	Set_Current_Temporary_Value
 4212 08b4 00000000 		.word	Last_Counter
 4213 08b8 00000000 		.word	Current_Counter
 4214 08bc 00000000 		.word	Rotate_Buzzer__Default_Lenght
 4215 08c0 00000000 		.word	OutputEnable
 4216 08c4 00000000 		.word	Set_Current
 4217 08c8 00000000 		.word	button1
 4218 08cc 00000000 		.word	Push_Buzzer__Default_Lenght
 4219 08d0 00000000 		.word	Edit_Value_Mode
 4220 08d4 00000000 		.word	button2
 4221 08d8 00000000 		.word	Four_Wire_Method
 4222 08dc 00000000 		.word	button3
 4223 08e0 00000000 		.word	View_Mode
 4224 08e4 00000000 		.word	button4
 4225 08e8 00000000 		.word	Current_State
ARM GAS  C:\Users\KJA\AppData\Local\Temp\ccAyzU2h.s 			page 93


 4226 08ec 00000000 		.word	button6
 4227 08f0 00000000 		.word	Position_Number
 4228 08f4 00000000 		.word	button5
 4229              		.cfi_endproc
 4230              	.LFE75:
 4231              		.size	State_Machine_ConstantCurrent, .-State_Machine_ConstantCurrent
 4232              		.section	.text.State_Machine_ConstantPower,"ax",%progbits
 4233              		.align	2
 4234              		.global	State_Machine_ConstantPower
 4235              		.thumb
 4236              		.thumb_func
 4237              		.type	State_Machine_ConstantPower, %function
 4238              	State_Machine_ConstantPower:
 4239              	.LFB76:
1005:state_machine.c **** 
1006:state_machine.c **** void State_Machine_ConstantPower(){
 4240              		.loc 1 1006 0
 4241              		.cfi_startproc
 4242              		@ args = 0, pretend = 0, frame = 8
 4243              		@ frame_needed = 1, uses_anonymous_args = 0
 4244 0000 90B5     		push	{r4, r7, lr}
 4245              		.cfi_def_cfa_offset 12
 4246              		.cfi_offset 4, -12
 4247              		.cfi_offset 7, -8
 4248              		.cfi_offset 14, -4
 4249 0002 83B0     		sub	sp, sp, #12
 4250              		.cfi_def_cfa_offset 24
 4251 0004 00AF     		add	r7, sp, #0
 4252              		.cfi_def_cfa_register 7
1007:state_machine.c ****         
1008:state_machine.c ****     
1009:state_machine.c ****     
1010:state_machine.c ****     CAP_EN_Write(1);    // Enable 10nF Cap
 4253              		.loc 1 1010 0
 4254 0006 0120     		movs	r0, #1
 4255 0008 FFF7FEFF 		bl	CAP_EN_Write
1011:state_machine.c ****     PWM_Driver_Stop();     //Start PWM
 4256              		.loc 1 1011 0
 4257 000c FFF7FEFF 		bl	PWM_Driver_Stop
1012:state_machine.c ****     
1013:state_machine.c ****     float MaxSetValue = MaxPower;
 4258              		.loc 1 1013 0
 4259 0010 774B     		ldr	r3, .L281
 4260 0012 1B68     		ldr	r3, [r3]	@ float
 4261 0014 7B60     		str	r3, [r7, #4]	@ float
1014:state_machine.c ****     
1015:state_machine.c ****     // Secondary Loop Counter
1016:state_machine.c ****     Loop_Counter++;
 4262              		.loc 1 1016 0
 4263 0016 774B     		ldr	r3, .L281+4
 4264 0018 1B68     		ldr	r3, [r3]
 4265 001a 0133     		adds	r3, r3, #1
 4266 001c 754A     		ldr	r2, .L281+4
 4267 001e 1360     		str	r3, [r2]
1017:state_machine.c ****      
1018:state_machine.c ****     
1019:state_machine.c ****     // Voltage, Current, Power Measurement and Calculations
ARM GAS  C:\Users\KJA\AppData\Local\Temp\ccAyzU2h.s 			page 94


1020:state_machine.c ****     
1021:state_machine.c ****     MeasuredVoltage = ADC_SAR_1_GetResult16();   
 4268              		.loc 1 1021 0
 4269 0020 FFF7FEFF 		bl	ADC_SAR_1_GetResult16
 4270 0024 0346     		mov	r3, r0
 4271 0026 9AB2     		uxth	r2, r3
 4272 0028 734B     		ldr	r3, .L281+8
 4273 002a 1A80     		strh	r2, [r3]	@ movhi
1022:state_machine.c ****     MeasuredCurrent = ADC_SAR_2_GetResult16();  
 4274              		.loc 1 1022 0
 4275 002c FFF7FEFF 		bl	ADC_SAR_2_GetResult16
 4276 0030 0346     		mov	r3, r0
 4277 0032 1A46     		mov	r2, r3
 4278 0034 714B     		ldr	r3, .L281+12
 4279 0036 1A80     		strh	r2, [r3]	@ movhi
1023:state_machine.c ****     
1024:state_machine.c ****     if(Four_Wire_Method ==1){
 4280              		.loc 1 1024 0
 4281 0038 714B     		ldr	r3, .L281+16
 4282 003a 1B78     		ldrb	r3, [r3]	@ zero_extendqisi2
 4283 003c 012B     		cmp	r3, #1
 4284 003e 15D1     		bne	.L233
1025:state_machine.c ****         VOLTAGE_SELECT_Write(1);
 4285              		.loc 1 1025 0
 4286 0040 0120     		movs	r0, #1
 4287 0042 FFF7FEFF 		bl	VOLTAGE_SELECT_Write
1026:state_machine.c ****         fVoltage = Four_Wire_Range*ADC_SAR_1_CountsTo_Volts(MeasuredVoltage); 
 4288              		.loc 1 1026 0
 4289 0046 6C4B     		ldr	r3, .L281+8
 4290 0048 1B88     		ldrh	r3, [r3]
 4291 004a 9BB2     		uxth	r3, r3
 4292 004c 1BB2     		sxth	r3, r3
 4293 004e 1846     		mov	r0, r3
 4294 0050 FFF7FEFF 		bl	ADC_SAR_1_CountsTo_Volts
 4295 0054 0246     		mov	r2, r0
 4296 0056 6B4B     		ldr	r3, .L281+20
 4297 0058 1B68     		ldr	r3, [r3]	@ float
 4298 005a 1046     		mov	r0, r2
 4299 005c 1946     		mov	r1, r3
 4300 005e FFF7FEFF 		bl	__aeabi_fmul
 4301 0062 0346     		mov	r3, r0
 4302 0064 1A46     		mov	r2, r3
 4303 0066 684B     		ldr	r3, .L281+24
 4304 0068 1A60     		str	r2, [r3]	@ float
 4305 006a 14E0     		b	.L234
 4306              	.L233:
1027:state_machine.c ****     }
1028:state_machine.c ****     else{
1029:state_machine.c ****         VOLTAGE_SELECT_Write(0);
 4307              		.loc 1 1029 0
 4308 006c 0020     		movs	r0, #0
 4309 006e FFF7FEFF 		bl	VOLTAGE_SELECT_Write
1030:state_machine.c ****         fVoltage = Two_Wire_Range*ADC_SAR_1_CountsTo_Volts(MeasuredVoltage);        
 4310              		.loc 1 1030 0
 4311 0072 614B     		ldr	r3, .L281+8
 4312 0074 1B88     		ldrh	r3, [r3]
 4313 0076 9BB2     		uxth	r3, r3
ARM GAS  C:\Users\KJA\AppData\Local\Temp\ccAyzU2h.s 			page 95


 4314 0078 1BB2     		sxth	r3, r3
 4315 007a 1846     		mov	r0, r3
 4316 007c FFF7FEFF 		bl	ADC_SAR_1_CountsTo_Volts
 4317 0080 0246     		mov	r2, r0
 4318 0082 624B     		ldr	r3, .L281+28
 4319 0084 1B68     		ldr	r3, [r3]	@ float
 4320 0086 1046     		mov	r0, r2
 4321 0088 1946     		mov	r1, r3
 4322 008a FFF7FEFF 		bl	__aeabi_fmul
 4323 008e 0346     		mov	r3, r0
 4324 0090 1A46     		mov	r2, r3
 4325 0092 5D4B     		ldr	r3, .L281+24
 4326 0094 1A60     		str	r2, [r3]	@ float
 4327              	.L234:
1031:state_machine.c ****     }  
1032:state_machine.c ****     
1033:state_machine.c ****     SredniaV = SredniaV*dtV;
 4328              		.loc 1 1033 0
 4329 0096 5E4B     		ldr	r3, .L281+32
 4330 0098 1B78     		ldrb	r3, [r3]	@ zero_extendqisi2
 4331 009a 1846     		mov	r0, r3
 4332 009c FFF7FEFF 		bl	__aeabi_i2f
 4333 00a0 0246     		mov	r2, r0
 4334 00a2 5C4B     		ldr	r3, .L281+36
 4335 00a4 1B68     		ldr	r3, [r3]	@ float
 4336 00a6 1046     		mov	r0, r2
 4337 00a8 1946     		mov	r1, r3
 4338 00aa FFF7FEFF 		bl	__aeabi_fmul
 4339 00ae 0346     		mov	r3, r0
 4340 00b0 1A46     		mov	r2, r3
 4341 00b2 584B     		ldr	r3, .L281+36
 4342 00b4 1A60     		str	r2, [r3]	@ float
1034:state_machine.c ****     SredniaV = SredniaV + fVoltage;
 4343              		.loc 1 1034 0
 4344 00b6 574B     		ldr	r3, .L281+36
 4345 00b8 1A68     		ldr	r2, [r3]	@ float
 4346 00ba 534B     		ldr	r3, .L281+24
 4347 00bc 1B68     		ldr	r3, [r3]	@ float
 4348 00be 1046     		mov	r0, r2
 4349 00c0 1946     		mov	r1, r3
 4350 00c2 FFF7FEFF 		bl	__aeabi_fadd
 4351 00c6 0346     		mov	r3, r0
 4352 00c8 1A46     		mov	r2, r3
 4353 00ca 524B     		ldr	r3, .L281+36
 4354 00cc 1A60     		str	r2, [r3]	@ float
1035:state_machine.c ****     SredniaV = SredniaV / (dtV+1);
 4355              		.loc 1 1035 0
 4356 00ce 514B     		ldr	r3, .L281+36
 4357 00d0 1C68     		ldr	r4, [r3]	@ float
 4358 00d2 4F4B     		ldr	r3, .L281+32
 4359 00d4 1B78     		ldrb	r3, [r3]	@ zero_extendqisi2
 4360 00d6 0133     		adds	r3, r3, #1
 4361 00d8 1846     		mov	r0, r3
 4362 00da FFF7FEFF 		bl	__aeabi_i2f
 4363 00de 0346     		mov	r3, r0
 4364 00e0 2046     		mov	r0, r4
 4365 00e2 1946     		mov	r1, r3
ARM GAS  C:\Users\KJA\AppData\Local\Temp\ccAyzU2h.s 			page 96


 4366 00e4 FFF7FEFF 		bl	__aeabi_fdiv
 4367 00e8 0346     		mov	r3, r0
 4368 00ea 1A46     		mov	r2, r3
 4369 00ec 494B     		ldr	r3, .L281+36
 4370 00ee 1A60     		str	r2, [r3]	@ float
1036:state_machine.c ****     fVoltage = SredniaV;  
 4371              		.loc 1 1036 0
 4372 00f0 484B     		ldr	r3, .L281+36
 4373 00f2 1B68     		ldr	r3, [r3]	@ float
 4374 00f4 444A     		ldr	r2, .L281+24
 4375 00f6 1360     		str	r3, [r2]	@ float
1037:state_machine.c ****        
1038:state_machine.c ****     if(Actual_Range == 1) fCurrent = Current_Calibration_Range1 * ADC_SAR_2_CountsTo_Volts(Measured
 4376              		.loc 1 1038 0
 4377 00f8 474B     		ldr	r3, .L281+40
 4378 00fa 1B78     		ldrb	r3, [r3]	@ zero_extendqisi2
 4379 00fc 012B     		cmp	r3, #1
 4380 00fe 10D1     		bne	.L235
 4381              		.loc 1 1038 0 is_stmt 0 discriminator 1
 4382 0100 3E4B     		ldr	r3, .L281+12
 4383 0102 1B88     		ldrh	r3, [r3]
 4384 0104 1BB2     		sxth	r3, r3
 4385 0106 1846     		mov	r0, r3
 4386 0108 FFF7FEFF 		bl	ADC_SAR_2_CountsTo_Volts
 4387 010c 0246     		mov	r2, r0
 4388 010e 434B     		ldr	r3, .L281+44
 4389 0110 1B68     		ldr	r3, [r3]	@ float
 4390 0112 1046     		mov	r0, r2
 4391 0114 1946     		mov	r1, r3
 4392 0116 FFF7FEFF 		bl	__aeabi_fmul
 4393 011a 0346     		mov	r3, r0
 4394 011c 1A46     		mov	r2, r3
 4395 011e 404B     		ldr	r3, .L281+48
 4396 0120 1A60     		str	r2, [r3]	@ float
 4397              	.L235:
1039:state_machine.c ****     
1040:state_machine.c **** 
1041:state_machine.c ****     fPower = fVoltage*fCurrent;
 4398              		.loc 1 1041 0 is_stmt 1
 4399 0122 394B     		ldr	r3, .L281+24
 4400 0124 1A68     		ldr	r2, [r3]	@ float
 4401 0126 3E4B     		ldr	r3, .L281+48
 4402 0128 1B68     		ldr	r3, [r3]	@ float
 4403 012a 1046     		mov	r0, r2
 4404 012c 1946     		mov	r1, r3
 4405 012e FFF7FEFF 		bl	__aeabi_fmul
 4406 0132 0346     		mov	r3, r0
 4407 0134 1A46     		mov	r2, r3
 4408 0136 3B4B     		ldr	r3, .L281+52
 4409 0138 1A60     		str	r2, [r3]	@ float
1042:state_machine.c ****     Set_Current = Set_Power/fVoltage;
 4410              		.loc 1 1042 0
 4411 013a 3B4B     		ldr	r3, .L281+56
 4412 013c 1A68     		ldr	r2, [r3]	@ float
 4413 013e 324B     		ldr	r3, .L281+24
 4414 0140 1B68     		ldr	r3, [r3]	@ float
 4415 0142 1046     		mov	r0, r2
ARM GAS  C:\Users\KJA\AppData\Local\Temp\ccAyzU2h.s 			page 97


 4416 0144 1946     		mov	r1, r3
 4417 0146 FFF7FEFF 		bl	__aeabi_fdiv
 4418 014a 0346     		mov	r3, r0
 4419 014c 1A46     		mov	r2, r3
 4420 014e 374B     		ldr	r3, .L281+60
 4421 0150 1A60     		str	r2, [r3]	@ float
1043:state_machine.c ****             
1044:state_machine.c ****     
1045:state_machine.c ****     // Check for OverVoltage
1046:state_machine.c ****     if(fVoltage > MaxVoltage){
 4422              		.loc 1 1046 0
 4423 0152 2D4B     		ldr	r3, .L281+24
 4424 0154 1A68     		ldr	r2, [r3]	@ float
 4425 0156 364B     		ldr	r3, .L281+64
 4426 0158 1B68     		ldr	r3, [r3]	@ float
 4427 015a 1046     		mov	r0, r2
 4428 015c 1946     		mov	r1, r3
 4429 015e FFF7FEFF 		bl	__aeabi_fcmpgt
 4430 0162 0346     		mov	r3, r0
 4431 0164 002B     		cmp	r3, #0
 4432 0166 0CD0     		beq	.L236
1047:state_machine.c ****         OutputEnable = 0;
 4433              		.loc 1 1047 0
 4434 0168 324B     		ldr	r3, .L281+68
 4435 016a 0022     		movs	r2, #0
 4436 016c 1A70     		strb	r2, [r3]
1048:state_machine.c ****         Previous_State = Current_State;
 4437              		.loc 1 1048 0
 4438 016e 324B     		ldr	r3, .L281+72
 4439 0170 1A78     		ldrb	r2, [r3]	@ zero_extendqisi2
 4440 0172 324B     		ldr	r3, .L281+76
 4441 0174 1A70     		strb	r2, [r3]
1049:state_machine.c ****         Current_State = Error_OV;
 4442              		.loc 1 1049 0
 4443 0176 304B     		ldr	r3, .L281+72
 4444 0178 0C22     		movs	r2, #12
 4445 017a 1A70     		strb	r2, [r3]
1050:state_machine.c ****         Buzzer_Shot(500000);
 4446              		.loc 1 1050 0
 4447 017c 3048     		ldr	r0, .L281+80
 4448 017e FFF7FEFF 		bl	Buzzer_Shot
 4449              	.L236:
1051:state_machine.c ****     }
1052:state_machine.c ****     
1053:state_machine.c **** 
1054:state_machine.c ****     // Output Enable Case
1055:state_machine.c ****     if(OutputEnable == 1){
 4450              		.loc 1 1055 0
 4451 0182 2C4B     		ldr	r3, .L281+68
 4452 0184 1B78     		ldrb	r3, [r3]	@ zero_extendqisi2
 4453 0186 012B     		cmp	r3, #1
 4454 0188 40F02581 		bne	.L238
1056:state_machine.c ****         
1057:state_machine.c ****         if(!(Input_Reg_Read())){
 4455              		.loc 1 1057 0
 4456 018c FFF7FEFF 		bl	Input_Reg_Read
 4457 0190 0346     		mov	r3, r0
ARM GAS  C:\Users\KJA\AppData\Local\Temp\ccAyzU2h.s 			page 98


 4458 0192 002B     		cmp	r3, #0
 4459 0194 0DD1     		bne	.L239
1058:state_machine.c ****             OutputEnable = 0;
 4460              		.loc 1 1058 0
 4461 0196 274B     		ldr	r3, .L281+68
 4462 0198 0022     		movs	r2, #0
 4463 019a 1A70     		strb	r2, [r3]
1059:state_machine.c ****             Previous_State = Current_State;
 4464              		.loc 1 1059 0
 4465 019c 264B     		ldr	r3, .L281+72
 4466 019e 1A78     		ldrb	r2, [r3]	@ zero_extendqisi2
 4467 01a0 264B     		ldr	r3, .L281+76
 4468 01a2 1A70     		strb	r2, [r3]
1060:state_machine.c ****             Current_State = Error_OC;
 4469              		.loc 1 1060 0
 4470 01a4 244B     		ldr	r3, .L281+72
 4471 01a6 0F22     		movs	r2, #15
 4472 01a8 1A70     		strb	r2, [r3]
1061:state_machine.c ****             Buzzer_Shot(500000);
 4473              		.loc 1 1061 0
 4474 01aa 2548     		ldr	r0, .L281+80
 4475 01ac FFF7FEFF 		bl	Buzzer_Shot
 4476 01b0 11E1     		b	.L238
 4477              	.L239:
1062:state_machine.c ****         }
1063:state_machine.c ****         
1064:state_machine.c ****         else if(OverTemperature == 1){
 4478              		.loc 1 1064 0
 4479 01b2 244B     		ldr	r3, .L281+84
 4480 01b4 1B78     		ldrb	r3, [r3]	@ zero_extendqisi2
 4481 01b6 012B     		cmp	r3, #1
 4482 01b8 48D1     		bne	.L240
1065:state_machine.c **** 
1066:state_machine.c ****             DACValue = 0;
 4483              		.loc 1 1066 0
 4484 01ba 234B     		ldr	r3, .L281+88
 4485 01bc 0022     		movs	r2, #0
 4486 01be 1A80     		strh	r2, [r3]	@ movhi
1067:state_machine.c ****             DVDAC8_1_SetValue(0); 
 4487              		.loc 1 1067 0
 4488 01c0 0020     		movs	r0, #0
 4489 01c2 FFF7FEFF 		bl	DVDAC8_1_SetValue
1068:state_machine.c ****             DAC_MUX_Select(0);     
 4490              		.loc 1 1068 0
 4491 01c6 0020     		movs	r0, #0
 4492 01c8 FFF7FEFF 		bl	DAC_MUX_Select
1069:state_machine.c ****             
1070:state_machine.c ****             // Disable Relay
1071:state_machine.c ****             RELAY_Write(0);
 4493              		.loc 1 1071 0
 4494 01cc 0020     		movs	r0, #0
 4495 01ce FFF7FEFF 		bl	RELAY_Write
1072:state_machine.c ****             
1073:state_machine.c ****             Buzzer_Shot(500000);
 4496              		.loc 1 1073 0
 4497 01d2 1B48     		ldr	r0, .L281+80
 4498 01d4 FFF7FEFF 		bl	Buzzer_Shot
ARM GAS  C:\Users\KJA\AppData\Local\Temp\ccAyzU2h.s 			page 99


1074:state_machine.c ****             
1075:state_machine.c ****             OutputEnable = 0;
 4499              		.loc 1 1075 0
 4500 01d8 164B     		ldr	r3, .L281+68
 4501 01da 0022     		movs	r2, #0
 4502 01dc 1A70     		strb	r2, [r3]
1076:state_machine.c ****             Previous_State = Current_State;
 4503              		.loc 1 1076 0
 4504 01de 164B     		ldr	r3, .L281+72
 4505 01e0 1A78     		ldrb	r2, [r3]	@ zero_extendqisi2
 4506 01e2 164B     		ldr	r3, .L281+76
 4507 01e4 1A70     		strb	r2, [r3]
1077:state_machine.c ****             Current_State = Error_OT;   
 4508              		.loc 1 1077 0
 4509 01e6 144B     		ldr	r3, .L281+72
 4510 01e8 0E22     		movs	r2, #14
 4511 01ea 1A70     		strb	r2, [r3]
 4512 01ec F3E0     		b	.L238
 4513              	.L282:
 4514 01ee 00BF     		.align	2
 4515              	.L281:
 4516 01f0 00000000 		.word	MaxPower
 4517 01f4 00000000 		.word	Loop_Counter
 4518 01f8 00000000 		.word	MeasuredVoltage
 4519 01fc 00000000 		.word	MeasuredCurrent
 4520 0200 00000000 		.word	Four_Wire_Method
 4521 0204 00000000 		.word	Four_Wire_Range
 4522 0208 00000000 		.word	fVoltage
 4523 020c 00000000 		.word	Two_Wire_Range
 4524 0210 00000000 		.word	dtV
 4525 0214 00000000 		.word	SredniaV
 4526 0218 00000000 		.word	Actual_Range
 4527 021c 00000000 		.word	Current_Calibration_Range1
 4528 0220 00000000 		.word	fCurrent
 4529 0224 00000000 		.word	fPower
 4530 0228 00000000 		.word	Set_Power
 4531 022c 00000000 		.word	Set_Current
 4532 0230 00000000 		.word	MaxVoltage
 4533 0234 00000000 		.word	OutputEnable
 4534 0238 00000000 		.word	Current_State
 4535 023c 00000000 		.word	Previous_State
 4536 0240 20A10700 		.word	500000
 4537 0244 00000000 		.word	OverTemperature
 4538 0248 00000000 		.word	DACValue
 4539              	.L240:
1078:state_machine.c ****         } 
1079:state_machine.c ****         else{
1080:state_machine.c ****         
1081:state_machine.c ****             // Enable Relay if Input is OK
1082:state_machine.c ****             RELAY_Write(1);
 4540              		.loc 1 1082 0
 4541 024c 0120     		movs	r0, #1
 4542 024e FFF7FEFF 		bl	RELAY_Write
1083:state_machine.c ****                 
1084:state_machine.c ****             if(Loop_Counter >= 1000){                             
 4543              		.loc 1 1084 0
 4544 0252 394B     		ldr	r3, .L283+8
ARM GAS  C:\Users\KJA\AppData\Local\Temp\ccAyzU2h.s 			page 100


 4545 0254 1B68     		ldr	r3, [r3]
 4546 0256 B3F57A7F 		cmp	r3, #1000
 4547 025a 37D3     		bcc	.L241
1085:state_machine.c ****                 sprintf((char *)cVoltage_Actual,"%2.2fV",fVoltage);
 4548              		.loc 1 1085 0
 4549 025c 374B     		ldr	r3, .L283+12
 4550 025e 1B68     		ldr	r3, [r3]	@ float
 4551 0260 1846     		mov	r0, r3
 4552 0262 FFF7FEFF 		bl	__aeabi_f2d
 4553 0266 0246     		mov	r2, r0
 4554 0268 0B46     		mov	r3, r1
 4555 026a 3548     		ldr	r0, .L283+16
 4556 026c 3549     		ldr	r1, .L283+20
 4557 026e FFF7FEFF 		bl	sprintf
1086:state_machine.c ****                 sprintf((char *)cCurrent_Actual,"%2.2fA",fCurrent);
 4558              		.loc 1 1086 0
 4559 0272 354B     		ldr	r3, .L283+24
 4560 0274 1B68     		ldr	r3, [r3]	@ float
 4561 0276 1846     		mov	r0, r3
 4562 0278 FFF7FEFF 		bl	__aeabi_f2d
 4563 027c 0246     		mov	r2, r0
 4564 027e 0B46     		mov	r3, r1
 4565 0280 3248     		ldr	r0, .L283+28
 4566 0282 3349     		ldr	r1, .L283+32
 4567 0284 FFF7FEFF 		bl	sprintf
1087:state_machine.c ****                 sprintf((char *)cPower_Actual,"%3.2fW",fPower);
 4568              		.loc 1 1087 0
 4569 0288 324B     		ldr	r3, .L283+36
 4570 028a 1B68     		ldr	r3, [r3]	@ float
 4571 028c 1846     		mov	r0, r3
 4572 028e FFF7FEFF 		bl	__aeabi_f2d
 4573 0292 0246     		mov	r2, r0
 4574 0294 0B46     		mov	r3, r1
 4575 0296 3048     		ldr	r0, .L283+40
 4576 0298 3049     		ldr	r1, .L283+44
 4577 029a FFF7FEFF 		bl	sprintf
1088:state_machine.c ****                 sprintf((char *)cResist_Actual,"%4.1fohm",fResist);
 4578              		.loc 1 1088 0
 4579 029e 304B     		ldr	r3, .L283+48
 4580 02a0 1B68     		ldr	r3, [r3]	@ float
 4581 02a2 1846     		mov	r0, r3
 4582 02a4 FFF7FEFF 		bl	__aeabi_f2d
 4583 02a8 0246     		mov	r2, r0
 4584 02aa 0B46     		mov	r3, r1
 4585 02ac 2D48     		ldr	r0, .L283+52
 4586 02ae 2E49     		ldr	r1, .L283+56
 4587 02b0 FFF7FEFF 		bl	sprintf
1089:state_machine.c ****                 
1090:state_machine.c ****                 LCD_Draw(Current_State, Position_Number); 
 4588              		.loc 1 1090 0
 4589 02b4 2D4B     		ldr	r3, .L283+60
 4590 02b6 1A78     		ldrb	r2, [r3]	@ zero_extendqisi2
 4591 02b8 2D4B     		ldr	r3, .L283+64
 4592 02ba 1B78     		ldrb	r3, [r3]	@ zero_extendqisi2
 4593 02bc DBB2     		uxtb	r3, r3
 4594 02be 1046     		mov	r0, r2
 4595 02c0 1946     		mov	r1, r3
ARM GAS  C:\Users\KJA\AppData\Local\Temp\ccAyzU2h.s 			page 101


 4596 02c2 FFF7FEFF 		bl	LCD_Draw
1091:state_machine.c ****                 Loop_Counter = 0;
 4597              		.loc 1 1091 0
 4598 02c6 1C4B     		ldr	r3, .L283+8
 4599 02c8 0022     		movs	r2, #0
 4600 02ca 1A60     		str	r2, [r3]
 4601              	.L241:
1092:state_machine.c ****             }
1093:state_machine.c **** 
1094:state_machine.c ****             DAC_MUX_Select(2);
 4602              		.loc 1 1094 0
 4603 02cc 0220     		movs	r0, #2
 4604 02ce FFF7FEFF 		bl	DAC_MUX_Select
1095:state_machine.c ****             
1096:state_machine.c ****             //Regulator
1097:state_machine.c ****             if(Set_Power - fPower > 0.05){  // >=
 4605              		.loc 1 1097 0
 4606 02d2 284B     		ldr	r3, .L283+68
 4607 02d4 1A68     		ldr	r2, [r3]	@ float
 4608 02d6 1F4B     		ldr	r3, .L283+36
 4609 02d8 1B68     		ldr	r3, [r3]	@ float
 4610 02da 1046     		mov	r0, r2
 4611 02dc 1946     		mov	r1, r3
 4612 02de FFF7FEFF 		bl	__aeabi_fsub
 4613 02e2 0346     		mov	r3, r0
 4614 02e4 1846     		mov	r0, r3
 4615 02e6 FFF7FEFF 		bl	__aeabi_f2d
 4616 02ea 0246     		mov	r2, r0
 4617 02ec 0B46     		mov	r3, r1
 4618 02ee 1046     		mov	r0, r2
 4619 02f0 1946     		mov	r1, r3
 4620 02f2 0FA3     		adr	r3, .L283
 4621 02f4 D3E90023 		ldrd	r2, [r3]
 4622 02f8 FFF7FEFF 		bl	__aeabi_dcmpgt
 4623 02fc 0346     		mov	r3, r0
 4624 02fe 002B     		cmp	r3, #0
 4625 0300 3CD0     		beq	.L280
1098:state_machine.c ****                 DACValue++;
 4626              		.loc 1 1098 0
 4627 0302 1D4B     		ldr	r3, .L283+72
 4628 0304 1B88     		ldrh	r3, [r3]
 4629 0306 0133     		adds	r3, r3, #1
 4630 0308 9AB2     		uxth	r2, r3
 4631 030a 1B4B     		ldr	r3, .L283+72
 4632 030c 1A80     		strh	r2, [r3]	@ movhi
1099:state_machine.c ****                 if(DACValue > 4080) DACValue = 4080;
 4633              		.loc 1 1099 0
 4634 030e 1A4B     		ldr	r3, .L283+72
 4635 0310 1B88     		ldrh	r3, [r3]
 4636 0312 B3F57F6F 		cmp	r3, #4080
 4637 0316 03D9     		bls	.L244
 4638              		.loc 1 1099 0 is_stmt 0 discriminator 1
 4639 0318 174B     		ldr	r3, .L283+72
 4640 031a 4FF47F62 		mov	r2, #4080
 4641 031e 1A80     		strh	r2, [r3]	@ movhi
 4642              	.L244:
1100:state_machine.c ****                 DVDAC8_1_SetValue(DACValue);                
ARM GAS  C:\Users\KJA\AppData\Local\Temp\ccAyzU2h.s 			page 102


 4643              		.loc 1 1100 0 is_stmt 1
 4644 0320 154B     		ldr	r3, .L283+72
 4645 0322 1B88     		ldrh	r3, [r3]
 4646 0324 1846     		mov	r0, r3
 4647 0326 FFF7FEFF 		bl	DVDAC8_1_SetValue
 4648 032a 54E0     		b	.L238
 4649              	.L284:
 4650 032c AFF30080 		.align	3
 4651              	.L283:
 4652 0330 9A999999 		.word	-1717986918
 4653 0334 9999A93F 		.word	1068079513
 4654 0338 00000000 		.word	Loop_Counter
 4655 033c 00000000 		.word	fVoltage
 4656 0340 00000000 		.word	cVoltage_Actual
 4657 0344 20000000 		.word	.LC4
 4658 0348 00000000 		.word	fCurrent
 4659 034c 00000000 		.word	cCurrent_Actual
 4660 0350 28000000 		.word	.LC5
 4661 0354 00000000 		.word	fPower
 4662 0358 00000000 		.word	cPower_Actual
 4663 035c 30000000 		.word	.LC6
 4664 0360 00000000 		.word	fResist
 4665 0364 00000000 		.word	cResist_Actual
 4666 0368 38000000 		.word	.LC7
 4667 036c 00000000 		.word	Current_State
 4668 0370 00000000 		.word	Position_Number
 4669 0374 00000000 		.word	Set_Power
 4670 0378 00000000 		.word	DACValue
 4671              	.L280:
1101:state_machine.c ****             }
1102:state_machine.c ****             else if(fPower - Set_Power > 0.05){
 4672              		.loc 1 1102 0
 4673 037c A24B     		ldr	r3, .L285+16
 4674 037e 1A68     		ldr	r2, [r3]	@ float
 4675 0380 A24B     		ldr	r3, .L285+20
 4676 0382 1B68     		ldr	r3, [r3]	@ float
 4677 0384 1046     		mov	r0, r2
 4678 0386 1946     		mov	r1, r3
 4679 0388 FFF7FEFF 		bl	__aeabi_fsub
 4680 038c 0346     		mov	r3, r0
 4681 038e 1846     		mov	r0, r3
 4682 0390 FFF7FEFF 		bl	__aeabi_f2d
 4683 0394 0246     		mov	r2, r0
 4684 0396 0B46     		mov	r3, r1
 4685 0398 1046     		mov	r0, r2
 4686 039a 1946     		mov	r1, r3
 4687 039c 96A3     		adr	r3, .L285
 4688 039e D3E90023 		ldrd	r2, [r3]
 4689 03a2 FFF7FEFF 		bl	__aeabi_dcmpgt
 4690 03a6 0346     		mov	r3, r0
 4691 03a8 002B     		cmp	r3, #0
 4692 03aa 14D0     		beq	.L238
1103:state_machine.c ****                 DACValue--;
 4693              		.loc 1 1103 0
 4694 03ac 984B     		ldr	r3, .L285+24
 4695 03ae 1B88     		ldrh	r3, [r3]
 4696 03b0 013B     		subs	r3, r3, #1
ARM GAS  C:\Users\KJA\AppData\Local\Temp\ccAyzU2h.s 			page 103


 4697 03b2 9AB2     		uxth	r2, r3
 4698 03b4 964B     		ldr	r3, .L285+24
 4699 03b6 1A80     		strh	r2, [r3]	@ movhi
1104:state_machine.c ****                 if(DACValue <= 0){
 4700              		.loc 1 1104 0
 4701 03b8 954B     		ldr	r3, .L285+24
 4702 03ba 1B88     		ldrh	r3, [r3]
 4703 03bc 002B     		cmp	r3, #0
 4704 03be 05D1     		bne	.L246
1105:state_machine.c ****                     DACValue = 0;
 4705              		.loc 1 1105 0
 4706 03c0 934B     		ldr	r3, .L285+24
 4707 03c2 0022     		movs	r2, #0
 4708 03c4 1A80     		strh	r2, [r3]	@ movhi
1106:state_machine.c ****                     OutputEnable = 0;
 4709              		.loc 1 1106 0
 4710 03c6 934B     		ldr	r3, .L285+28
 4711 03c8 0022     		movs	r2, #0
 4712 03ca 1A70     		strb	r2, [r3]
 4713              	.L246:
1107:state_machine.c ****                 }
1108:state_machine.c ****                 DVDAC8_1_SetValue(DACValue);        
 4714              		.loc 1 1108 0
 4715 03cc 904B     		ldr	r3, .L285+24
 4716 03ce 1B88     		ldrh	r3, [r3]
 4717 03d0 1846     		mov	r0, r3
 4718 03d2 FFF7FEFF 		bl	DVDAC8_1_SetValue
 4719              	.L238:
1109:state_machine.c ****             }     
1110:state_machine.c ****         }
1111:state_machine.c ****     }
1112:state_machine.c ****     
1113:state_machine.c ****     // Output Disable Case
1114:state_machine.c ****     if(OutputEnable == 0){
 4720              		.loc 1 1114 0
 4721 03d6 8F4B     		ldr	r3, .L285+28
 4722 03d8 1B78     		ldrb	r3, [r3]	@ zero_extendqisi2
 4723 03da 002B     		cmp	r3, #0
 4724 03dc 48D1     		bne	.L247
1115:state_machine.c ****         
1116:state_machine.c ****         if(Loop_Counter >= 1000){
 4725              		.loc 1 1116 0
 4726 03de 8E4B     		ldr	r3, .L285+32
 4727 03e0 1B68     		ldr	r3, [r3]
 4728 03e2 B3F57A7F 		cmp	r3, #1000
 4729 03e6 37D3     		bcc	.L248
1117:state_machine.c ****             sprintf((char *)cVoltage_Set,"%2.2fV",fVoltage);
 4730              		.loc 1 1117 0
 4731 03e8 8C4B     		ldr	r3, .L285+36
 4732 03ea 1B68     		ldr	r3, [r3]	@ float
 4733 03ec 1846     		mov	r0, r3
 4734 03ee FFF7FEFF 		bl	__aeabi_f2d
 4735 03f2 0246     		mov	r2, r0
 4736 03f4 0B46     		mov	r3, r1
 4737 03f6 8A48     		ldr	r0, .L285+40
 4738 03f8 8A49     		ldr	r1, .L285+44
 4739 03fa FFF7FEFF 		bl	sprintf
ARM GAS  C:\Users\KJA\AppData\Local\Temp\ccAyzU2h.s 			page 104


1118:state_machine.c ****             sprintf((char *)cCurrent_Set,"%2.2fA",Set_Current);            
 4740              		.loc 1 1118 0
 4741 03fe 8A4B     		ldr	r3, .L285+48
 4742 0400 1B68     		ldr	r3, [r3]	@ float
 4743 0402 1846     		mov	r0, r3
 4744 0404 FFF7FEFF 		bl	__aeabi_f2d
 4745 0408 0246     		mov	r2, r0
 4746 040a 0B46     		mov	r3, r1
 4747 040c 8748     		ldr	r0, .L285+52
 4748 040e 8849     		ldr	r1, .L285+56
 4749 0410 FFF7FEFF 		bl	sprintf
1119:state_machine.c ****             sprintf((char *)cPower_Set,"%2.2fW",Set_Power);
 4750              		.loc 1 1119 0
 4751 0414 7D4B     		ldr	r3, .L285+20
 4752 0416 1B68     		ldr	r3, [r3]	@ float
 4753 0418 1846     		mov	r0, r3
 4754 041a FFF7FEFF 		bl	__aeabi_f2d
 4755 041e 0246     		mov	r2, r0
 4756 0420 0B46     		mov	r3, r1
 4757 0422 8448     		ldr	r0, .L285+60
 4758 0424 8449     		ldr	r1, .L285+64
 4759 0426 FFF7FEFF 		bl	sprintf
1120:state_machine.c ****             sprintf((char *)cResist_Set,"%4.1fohm",Set_Resist);
 4760              		.loc 1 1120 0
 4761 042a 844B     		ldr	r3, .L285+68
 4762 042c 1B68     		ldr	r3, [r3]	@ float
 4763 042e 1846     		mov	r0, r3
 4764 0430 FFF7FEFF 		bl	__aeabi_f2d
 4765 0434 0246     		mov	r2, r0
 4766 0436 0B46     		mov	r3, r1
 4767 0438 8148     		ldr	r0, .L285+72
 4768 043a 8249     		ldr	r1, .L285+76
 4769 043c FFF7FEFF 		bl	sprintf
1121:state_machine.c ****             LCD_Draw(Current_State, Position_Number); 
 4770              		.loc 1 1121 0
 4771 0440 814B     		ldr	r3, .L285+80
 4772 0442 1A78     		ldrb	r2, [r3]	@ zero_extendqisi2
 4773 0444 814B     		ldr	r3, .L285+84
 4774 0446 1B78     		ldrb	r3, [r3]	@ zero_extendqisi2
 4775 0448 DBB2     		uxtb	r3, r3
 4776 044a 1046     		mov	r0, r2
 4777 044c 1946     		mov	r1, r3
 4778 044e FFF7FEFF 		bl	LCD_Draw
1122:state_machine.c ****             Loop_Counter = 0;
 4779              		.loc 1 1122 0
 4780 0452 714B     		ldr	r3, .L285+32
 4781 0454 0022     		movs	r2, #0
 4782 0456 1A60     		str	r2, [r3]
 4783              	.L248:
1123:state_machine.c ****         }
1124:state_machine.c ****         DACValue = 0;
 4784              		.loc 1 1124 0
 4785 0458 6D4B     		ldr	r3, .L285+24
 4786 045a 0022     		movs	r2, #0
 4787 045c 1A80     		strh	r2, [r3]	@ movhi
1125:state_machine.c ****         DVDAC8_1_SetValue(0); 
 4788              		.loc 1 1125 0
ARM GAS  C:\Users\KJA\AppData\Local\Temp\ccAyzU2h.s 			page 105


 4789 045e 0020     		movs	r0, #0
 4790 0460 FFF7FEFF 		bl	DVDAC8_1_SetValue
1126:state_machine.c ****         DAC_MUX_Select(0);     
 4791              		.loc 1 1126 0
 4792 0464 0020     		movs	r0, #0
 4793 0466 FFF7FEFF 		bl	DAC_MUX_Select
1127:state_machine.c ****         
1128:state_machine.c ****         // Disable Relay
1129:state_machine.c ****         RELAY_Write(0);
 4794              		.loc 1 1129 0
 4795 046a 0020     		movs	r0, #0
 4796 046c FFF7FEFF 		bl	RELAY_Write
 4797              	.L247:
1130:state_machine.c ****     }
1131:state_machine.c ****     
1132:state_machine.c ****     
1133:state_machine.c ****     // Encoder Control
1134:state_machine.c ****     if(!(Push_Reg_Read() == 0)){
 4798              		.loc 1 1134 0
 4799 0470 FFF7FEFF 		bl	Push_Reg_Read
 4800 0474 0346     		mov	r3, r0
 4801 0476 002B     		cmp	r3, #0
 4802 0478 15D0     		beq	.L249
1135:state_machine.c ****         Edit_Value_Mode = !Edit_Value_Mode;
 4803              		.loc 1 1135 0
 4804 047a 754B     		ldr	r3, .L285+88
 4805 047c 1B78     		ldrb	r3, [r3]	@ zero_extendqisi2
 4806 047e 002B     		cmp	r3, #0
 4807 0480 0CBF     		ite	eq
 4808 0482 0123     		moveq	r3, #1
 4809 0484 0023     		movne	r3, #0
 4810 0486 DBB2     		uxtb	r3, r3
 4811 0488 1A46     		mov	r2, r3
 4812 048a 714B     		ldr	r3, .L285+88
 4813 048c 1A70     		strb	r2, [r3]
