ARM GAS  C:\Users\KJA\AppData\Local\Temp\ccAyzU2h.s 			page 1


   1              		.syntax unified
   2              		.cpu cortex-m3
   3              		.fpu softvfp
   4              		.eabi_attribute 20, 1
   5              		.eabi_attribute 21, 1
   6              		.eabi_attribute 23, 3
   7              		.eabi_attribute 24, 1
   8              		.eabi_attribute 25, 1
   9              		.eabi_attribute 26, 1
  10              		.eabi_attribute 30, 6
  11              		.eabi_attribute 34, 1
  12              		.eabi_attribute 18, 4
  13              		.thumb
  14              		.file	"state_machine.c"
  15              		.text
  16              	.Ltext0:
  17              		.cfi_sections	.debug_frame
  18              		.comm	Current_State,1,1
  19              		.comm	Previous_State,1,1
  20              		.comm	Sound_Enable,1,1
  21              		.comm	Current_Menu_Position,1,1
  22              		.comm	CurrentBacklightValue,1,1
  23              		.comm	CurrentBacklightValueString,8,4
  24              		.comm	CurrentVolumeValue,1,1
  25              		.comm	CurrentVolumeValueString,8,4
  26              		.comm	Current_Calibration_Range1,4,4
  27              		.comm	Current_Calibration_Range2,4,4
  28              		.comm	Current_Calibration_Range3,4,4
  29              		.comm	LEM_Offset_Value,1,1
  30              		.comm	Two_Wire_Range,4,4
  31              		.comm	Four_Wire_Range,4,4
  32              		.comm	Four_Wire_Method,1,1
  33              		.comm	Actual_Range,1,1
  34              		.comm	View_Mode,1,1
  35              		.comm	qdCount,2,2
  36              		.comm	Last_qdCount,2,2
  37              		.comm	button1,1,1
  38              		.comm	button2,1,1
  39              		.comm	button3,1,1
  40              		.comm	button4,1,1
  41              		.comm	button5,1,1
  42              		.comm	button6,1,1
  43              		.comm	push,1,1
  44              		.comm	OutputEnable,1,1
  45              		.comm	u8g,60,4
  46              		.comm	Push_Buzzer__Default_Lenght,4,4
  47              		.comm	Rotate_Buzzer__Default_Lenght,4,4
  48              		.comm	Edit_Value_Mode,1,1
  49              		.comm	cVoltage_Actual,16,4
  50              		.comm	cCurrent_Actual,16,4
  51              		.comm	cPower_Actual,16,4
  52              		.comm	cResist_Actual,16,4
  53              		.comm	cVoltage_Set,16,4
  54              		.comm	cCurrent_Set,16,4
  55              		.comm	cPower_Set,16,4
  56              		.comm	cResist_Set,16,4
  57              		.comm	TestChar,16,4
ARM GAS  C:\Users\KJA\AppData\Local\Temp\ccAyzU2h.s 			page 2


  58              		.comm	XPosition,2,2
  59              		.comm	cXPosition,16,4
  60              		.comm	YPosition,2,2
  61              		.comm	cYPosition,16,4
  62              		.comm	Touched,1,1
  63              		.comm	MeasuredVoltage,2,2
  64              		.comm	fVoltage,4,4
  65              		.comm	MeasuredCurrent,2,2
  66              		.comm	fCurrent,4,4
  67              		.comm	Power,2,2
  68              		.comm	fPower,4,4
  69              		.comm	Resist,2,2
  70              		.comm	fResist,4,4
  71              		.comm	Set_Voltage,4,4
  72              		.comm	Set_Current,4,4
  73              		.comm	Set_Current_Temporary_Value,4,4
  74              		.comm	Set_Power,4,4
  75              		.comm	Set_Power_Temporary_Value,4,4
  76              		.comm	Set_Resist,4,4
  77              		.comm	Set_Resist_Temporary_Value,4,4
  78              		.comm	Position_Number,1,1
  79              		.comm	MaxPower,4,4
  80              		.comm	MaxVoltage,4,4
  81              		.comm	MaxCurrent,4,4
  82              		.comm	MinResistance,4,4
  83              		.comm	MaxResistance,4,4
  84              		.comm	C_Kp,4,4
  85              		.comm	C_Ki,4,4
  86              		.comm	C_Kd,4,4
  87              		.comm	Max_FET_Temp,1,1
  88              		.comm	OverTemperature,1,1
  89              		.comm	Set_Ampl,2,2
  90              		.comm	Set_Ampl_Temporary_Value,2,2
  91              		.comm	Set_Freq,2,2
  92              		.comm	Set_Freq_Temporary_Value,4,4
  93              		.comm	Set_Duty,1,1
  94              		.comm	Set_Duty_Temporary_Value,1,1
  95              		.comm	cSet_Ampl,16,4
  96              		.comm	cSet_Freq,16,4
  97              		.comm	cSet_Duty,16,4
  98              		.comm	Current_Edit_Value,1,1
  99              		.comm	Actual_Multiplier_Value,1,1
 100              		.comm	cCounter,32,4
 101              		.comm	deltaT,1,1
 102              		.comm	Avarage_FET_Temp,4,4
 103              		.comm	Current_DIE_Temp,2,2
 104              		.comm	Current_DIE_TempString,8,4
 105              		.comm	Current_FET_Temp,1,1
 106              		.comm	Current_FET_TempString,8,4
 107              		.global	Temporary
 108              		.bss
 109              		.type	Temporary, %object
 110              		.size	Temporary, 1
 111              	Temporary:
 112 0000 00       		.space	1
 113              		.global	DACValue
 114 0001 00       		.align	1
ARM GAS  C:\Users\KJA\AppData\Local\Temp\ccAyzU2h.s 			page 3


 115              		.type	DACValue, %object
 116              		.size	DACValue, 2
 117              	DACValue:
 118 0002 0000     		.space	2
 119              		.global	Timer
 120              		.align	1
 121              		.type	Timer, %object
 122              		.size	Timer, 2
 123              	Timer:
 124 0004 0000     		.space	2
 125              		.global	Loop_Counter
 126 0006 0000     		.align	2
 127              		.type	Loop_Counter, %object
 128              		.size	Loop_Counter, 4
 129              	Loop_Counter:
 130 0008 00000000 		.space	4
 131              		.global	Last_Counter
 132              		.align	2
 133              		.type	Last_Counter, %object
 134              		.size	Last_Counter, 4
 135              	Last_Counter:
 136 000c 00000000 		.space	4
 137              		.global	Current_Counter
 138              		.align	2
 139              		.type	Current_Counter, %object
 140              		.size	Current_Counter, 4
 141              	Current_Counter:
 142 0010 00000000 		.space	4
 143              		.global	Testowy_Counter
 144              		.align	2
 145              		.type	Testowy_Counter, %object
 146              		.size	Testowy_Counter, 4
 147              	Testowy_Counter:
 148 0014 00000000 		.space	4
 149              		.comm	cTestowy_Counter,16,4
 150              		.comm	SredniaC,4,4
 151              		.global	dtC
 152              		.data
 153              		.type	dtC, %object
 154              		.size	dtC, 1
 155              	dtC:
 156 0000 28       		.byte	40
 157              		.comm	SredniaV,4,4
 158              		.global	dtV
 159              		.type	dtV, %object
 160              		.size	dtV, 1
 161              	dtV:
 162 0001 64       		.byte	100
 163              		.comm	SredniaP,4,4
 164              		.global	dtP
 165              		.type	dtP, %object
 166              		.size	dtP, 1
 167              	dtP:
 168 0002 0A       		.byte	10
 169              		.global	__aeabi_f2d
 170              		.section	.rodata
 171              		.align	2
ARM GAS  C:\Users\KJA\AppData\Local\Temp\ccAyzU2h.s 			page 4


 172              	.LC0:
 173 0000 2566322E 		.ascii	"%f2.4\000"
 173      3400
 174              		.section	.text.State_Machine,"ax",%progbits
 175              		.align	2
 176              		.global	State_Machine
 177              		.thumb
 178              		.thumb_func
 179              		.type	State_Machine, %function
 180              	State_Machine:
 181              	.LFB63:
 182              		.file 1 "state_machine.c"
   1:state_machine.c **** #include "state_machine.h"
   2:state_machine.c **** #include "global_variables.h"
   3:state_machine.c **** #include "LCD_Menu.h"
   4:state_machine.c **** #include "temp_manage.h"
   5:state_machine.c **** 
   6:state_machine.c **** 
   7:state_machine.c **** uint8 Temporary = 0;
   8:state_machine.c **** 
   9:state_machine.c **** 
  10:state_machine.c **** 
  11:state_machine.c **** uint16 DACValue = 0;
  12:state_machine.c **** int16 Timer = 0;
  13:state_machine.c **** 
  14:state_machine.c **** uint32 Loop_Counter = 0;
  15:state_machine.c **** 
  16:state_machine.c **** 
  17:state_machine.c **** int    Last_Counter = 0;
  18:state_machine.c **** int    Current_Counter = 0;
  19:state_machine.c **** 
  20:state_machine.c **** 
  21:state_machine.c **** 
  22:state_machine.c **** int Testowy_Counter = 0;
  23:state_machine.c **** char8 cTestowy_Counter[16u];
  24:state_machine.c **** 
  25:state_machine.c **** float SredniaC;
  26:state_machine.c **** uint8 dtC = 40;
  27:state_machine.c **** 
  28:state_machine.c **** float SredniaV;
  29:state_machine.c **** uint8 dtV = 100;
  30:state_machine.c **** 
  31:state_machine.c **** float SredniaP;
  32:state_machine.c **** uint8 dtP = 10;
  33:state_machine.c **** 
  34:state_machine.c **** 
  35:state_machine.c **** void State_Machine(){   
 183              		.loc 1 35 0
 184              		.cfi_startproc
 185              		@ args = 0, pretend = 0, frame = 0
 186              		@ frame_needed = 1, uses_anonymous_args = 0
 187 0000 80B5     		push	{r7, lr}
 188              		.cfi_def_cfa_offset 8
 189              		.cfi_offset 7, -8
 190              		.cfi_offset 14, -4
 191 0002 00AF     		add	r7, sp, #0
 192              		.cfi_def_cfa_register 7
ARM GAS  C:\Users\KJA\AppData\Local\Temp\ccAyzU2h.s 			page 5


  36:state_machine.c ****     switch(Current_State){
 193              		.loc 1 36 0
 194 0004 534B     		ldr	r3, .L27
 195 0006 1B78     		ldrb	r3, [r3]	@ zero_extendqisi2
 196 0008 122B     		cmp	r3, #18
 197 000a 00F2A080 		bhi	.L26
 198 000e 01A2     		adr	r2, .L4
 199 0010 52F823F0 		ldr	pc, [r2, r3, lsl #2]
 200              		.p2align 2
 201              	.L4:
 202 0014 CD000000 		.word	.L3+1
 203 0018 61000000 		.word	.L5+1
 204 001c 67000000 		.word	.L6+1
 205 0020 6D000000 		.word	.L7+1
 206 0024 73000000 		.word	.L8+1
 207 0028 97000000 		.word	.L9+1
 208 002c 9D000000 		.word	.L10+1
 209 0030 A3000000 		.word	.L11+1
 210 0034 A9000000 		.word	.L12+1
 211 0038 79000000 		.word	.L13+1
 212 003c 7F000000 		.word	.L14+1
 213 0040 C7000000 		.word	.L15+1
 214 0044 C1000000 		.word	.L16+1
 215 0048 AF000000 		.word	.L17+1
 216 004c BB000000 		.word	.L18+1
 217 0050 B5000000 		.word	.L19+1
 218 0054 85000000 		.word	.L20+1
 219 0058 8B000000 		.word	.L21+1
 220 005c 91000000 		.word	.L22+1
 221              		.p2align 1
 222              	.L5:
  37:state_machine.c ****         case Home:
  38:state_machine.c ****              State_Machine_Home();
 223              		.loc 1 38 0
 224 0060 FFF7FEFF 		bl	State_Machine_Home
  39:state_machine.c ****         break;
 225              		.loc 1 39 0
 226 0064 74E0     		b	.L1
 227              	.L6:
  40:state_machine.c ****     
  41:state_machine.c ****         case ConstantMode:
  42:state_machine.c ****              State_Machine_ConstantMode();  
 228              		.loc 1 42 0
 229 0066 FFF7FEFF 		bl	State_Machine_ConstantMode
  43:state_machine.c ****         break;
 230              		.loc 1 43 0
 231 006a 71E0     		b	.L1
 232              	.L7:
  44:state_machine.c ****             
  45:state_machine.c ****         case ArbitraryMode:
  46:state_machine.c ****              State_Machine_ArbitraryMode();  
 233              		.loc 1 46 0
 234 006c FFF7FEFF 		bl	State_Machine_ArbitraryMode
  47:state_machine.c ****         break;
 235              		.loc 1 47 0
 236 0070 6EE0     		b	.L1
 237              	.L8:
ARM GAS  C:\Users\KJA\AppData\Local\Temp\ccAyzU2h.s 			page 6


  48:state_machine.c ****             
  49:state_machine.c ****         case ConstantCurrent:
  50:state_machine.c ****              State_Machine_ConstantCurrent();  
 238              		.loc 1 50 0
 239 0072 FFF7FEFF 		bl	State_Machine_ConstantCurrent
  51:state_machine.c ****         break;
 240              		.loc 1 51 0
 241 0076 6BE0     		b	.L1
 242              	.L13:
  52:state_machine.c ****             
  53:state_machine.c ****         case ConstantPower:
  54:state_machine.c ****             State_Machine_ConstantPower();
 243              		.loc 1 54 0
 244 0078 FFF7FEFF 		bl	State_Machine_ConstantPower
  55:state_machine.c ****         break;
 245              		.loc 1 55 0
 246 007c 68E0     		b	.L1
 247              	.L14:
  56:state_machine.c ****             
  57:state_machine.c ****         case ConstantResistance:
  58:state_machine.c ****             State_Machine_ConstantResistance();
 248              		.loc 1 58 0
 249 007e FFF7FEFF 		bl	State_Machine_ConstantResistance
  59:state_machine.c ****         break;
 250              		.loc 1 59 0
 251 0082 65E0     		b	.L1
 252              	.L20:
  60:state_machine.c ****             
  61:state_machine.c ****         case WaveForm_Mode:
  62:state_machine.c ****             State_Machine_WaveForm_Mode();
 253              		.loc 1 62 0
 254 0084 FFF7FEFF 		bl	State_Machine_WaveForm_Mode
  63:state_machine.c ****         break;
 255              		.loc 1 63 0
 256 0088 62E0     		b	.L1
 257              	.L21:
  64:state_machine.c ****          
  65:state_machine.c ****         case PWM_Mode:
  66:state_machine.c ****             State_Machine_PWM_Mode();
 258              		.loc 1 66 0
 259 008a FFF7FEFF 		bl	State_Machine_PWM_Mode
  67:state_machine.c ****         break;
 260              		.loc 1 67 0
 261 008e 5FE0     		b	.L1
 262              	.L22:
  68:state_machine.c ****             
  69:state_machine.c ****         case External_Drive:
  70:state_machine.c ****             State_Machine_External_Drive();
 263              		.loc 1 70 0
 264 0090 FFF7FEFF 		bl	State_Machine_External_Drive
  71:state_machine.c ****         break;
 265              		.loc 1 71 0
 266 0094 5CE0     		b	.L1
 267              	.L9:
  72:state_machine.c ****             
  73:state_machine.c ****         case Settings:
  74:state_machine.c ****              State_Machine_Settings();
ARM GAS  C:\Users\KJA\AppData\Local\Temp\ccAyzU2h.s 			page 7


 268              		.loc 1 74 0
 269 0096 FFF7FEFF 		bl	State_Machine_Settings
  75:state_machine.c ****         break;
 270              		.loc 1 75 0
 271 009a 59E0     		b	.L1
 272              	.L10:
  76:state_machine.c ****             
  77:state_machine.c ****         case BacklightSetting:
  78:state_machine.c ****             State_Machine_BacklightSetting();
 273              		.loc 1 78 0
 274 009c FFF7FEFF 		bl	State_Machine_BacklightSetting
  79:state_machine.c ****         break;
 275              		.loc 1 79 0
 276 00a0 56E0     		b	.L1
 277              	.L11:
  80:state_machine.c ****             
  81:state_machine.c ****         case VolumeSetting:
  82:state_machine.c ****             State_Machine_VolumeSetting();
 278              		.loc 1 82 0
 279 00a2 FFF7FEFF 		bl	State_Machine_VolumeSetting
  83:state_machine.c ****         break;
 280              		.loc 1 83 0
 281 00a6 53E0     		b	.L1
 282              	.L12:
  84:state_machine.c ****             
  85:state_machine.c ****         case Information:
  86:state_machine.c ****             State_Machine_Information();  
 283              		.loc 1 86 0
 284 00a8 FFF7FEFF 		bl	State_Machine_Information
  87:state_machine.c ****         break;
 285              		.loc 1 87 0
 286 00ac 50E0     		b	.L1
 287              	.L17:
  88:state_machine.c **** 
  89:state_machine.c ****         case Error_NC:
  90:state_machine.c ****             State_Machine_Error_NC(); 
 288              		.loc 1 90 0
 289 00ae FFF7FEFF 		bl	State_Machine_Error_NC
  91:state_machine.c ****         break;
 290              		.loc 1 91 0
 291 00b2 4DE0     		b	.L1
 292              	.L19:
  92:state_machine.c ****             
  93:state_machine.c ****         case Error_OC:
  94:state_machine.c ****             State_Machine_Error_OC(); 
 293              		.loc 1 94 0
 294 00b4 FFF7FEFF 		bl	State_Machine_Error_OC
  95:state_machine.c ****         break;    
 295              		.loc 1 95 0
 296 00b8 4AE0     		b	.L1
 297              	.L18:
  96:state_machine.c ****             
  97:state_machine.c ****         case Error_OT:
  98:state_machine.c ****             State_Machine_Error_OT(); 
 298              		.loc 1 98 0
 299 00ba FFF7FEFF 		bl	State_Machine_Error_OT
  99:state_machine.c ****         break;            
ARM GAS  C:\Users\KJA\AppData\Local\Temp\ccAyzU2h.s 			page 8


 300              		.loc 1 99 0
 301 00be 47E0     		b	.L1
 302              	.L16:
 100:state_machine.c ****         
 101:state_machine.c ****         case Error_OV:
 102:state_machine.c ****             State_Machine_Error_OV(); 
 303              		.loc 1 102 0
 304 00c0 FFF7FEFF 		bl	State_Machine_Error_OV
 103:state_machine.c ****         break;            
 305              		.loc 1 103 0
 306 00c4 44E0     		b	.L1
 307              	.L15:
 104:state_machine.c ****           
 105:state_machine.c ****         case Error_RP:
 106:state_machine.c ****             State_Machine_Error_RP(); 
 308              		.loc 1 106 0
 309 00c6 FFF7FEFF 		bl	State_Machine_Error_RP
 107:state_machine.c ****         break;            
 310              		.loc 1 107 0
 311 00ca 41E0     		b	.L1
 312              	.L3:
 108:state_machine.c ****             
 109:state_machine.c ****         case Develop:     
 110:state_machine.c ****             
 111:state_machine.c ****             MeasuredCurrent = ADC_SAR_2_GetResult16()-33;      
 313              		.loc 1 111 0
 314 00cc FFF7FEFF 		bl	ADC_SAR_2_GetResult16
 315 00d0 0346     		mov	r3, r0
 316 00d2 9BB2     		uxth	r3, r3
 317 00d4 213B     		subs	r3, r3, #33
 318 00d6 9BB2     		uxth	r3, r3
 319 00d8 9AB2     		uxth	r2, r3
 320 00da 1F4B     		ldr	r3, .L27+4
 321 00dc 1A80     		strh	r2, [r3]	@ movhi
 112:state_machine.c ****             fCurrent = ADC_SAR_2_CountsTo_Volts(MeasuredCurrent);
 322              		.loc 1 112 0
 323 00de 1E4B     		ldr	r3, .L27+4
 324 00e0 1B88     		ldrh	r3, [r3]
 325 00e2 1BB2     		sxth	r3, r3
 326 00e4 1846     		mov	r0, r3
 327 00e6 FFF7FEFF 		bl	ADC_SAR_2_CountsTo_Volts
 328 00ea 0246     		mov	r2, r0
 329 00ec 1B4B     		ldr	r3, .L27+8
 330 00ee 1A60     		str	r2, [r3]	@ float
 113:state_machine.c ****             sprintf((char *)cCurrent_Actual,"%f2.4",fCurrent);
 331              		.loc 1 113 0
 332 00f0 1A4B     		ldr	r3, .L27+8
 333 00f2 1B68     		ldr	r3, [r3]	@ float
 334 00f4 1846     		mov	r0, r3
 335 00f6 FFF7FEFF 		bl	__aeabi_f2d
 336 00fa 0246     		mov	r2, r0
 337 00fc 0B46     		mov	r3, r1
 338 00fe 1848     		ldr	r0, .L27+12
 339 0100 1849     		ldr	r1, .L27+16
 340 0102 FFF7FEFF 		bl	sprintf
 114:state_machine.c ****                         
 115:state_machine.c ****             u8g_FirstPage(&u8g);
ARM GAS  C:\Users\KJA\AppData\Local\Temp\ccAyzU2h.s 			page 9


 341              		.loc 1 115 0
 342 0106 1848     		ldr	r0, .L27+20
 343 0108 FFF7FEFF 		bl	u8g_FirstPage
 344              	.L24:
 116:state_machine.c ****             do{
 117:state_machine.c ****                 u8g_SetDefaultForegroundColor(&u8g);         
 345              		.loc 1 117 0 discriminator 1
 346 010c 1648     		ldr	r0, .L27+20
 347 010e FFF7FEFF 		bl	u8g_SetDefaultForegroundColor
 118:state_machine.c ****                 u8g_SetFont(&u8g, u8g_font_unifont);                
 348              		.loc 1 118 0 discriminator 1
 349 0112 1548     		ldr	r0, .L27+20
 350 0114 1549     		ldr	r1, .L27+24
 351 0116 FFF7FEFF 		bl	u8g_SetFont
 119:state_machine.c ****                 u8g_DrawStr(&u8g,  40, 12, cCurrent_Actual);               
 352              		.loc 1 119 0 discriminator 1
 353 011a 1348     		ldr	r0, .L27+20
 354 011c 2821     		movs	r1, #40
 355 011e 0C22     		movs	r2, #12
 356 0120 0F4B     		ldr	r3, .L27+12
 357 0122 FFF7FEFF 		bl	u8g_DrawStr
 120:state_machine.c **** 
 121:state_machine.c ****             } while ( u8g_NextPage(&u8g) );
 358              		.loc 1 121 0 discriminator 1
 359 0126 1048     		ldr	r0, .L27+20
 360 0128 FFF7FEFF 		bl	u8g_NextPage
 361 012c 0346     		mov	r3, r0
 362 012e 002B     		cmp	r3, #0
 363 0130 ECD1     		bne	.L24
 122:state_machine.c ****             
 123:state_machine.c ****             if(!(button1 == 0)){    //Output Enable Button
 364              		.loc 1 123 0
 365 0132 0F4B     		ldr	r3, .L27+28
 366 0134 1B78     		ldrb	r3, [r3]	@ zero_extendqisi2
 367 0136 002B     		cmp	r3, #0
 368 0138 08D0     		beq	.L25
 124:state_machine.c ****                 Buzzer_Shot(Push_Buzzer__Default_Lenght);
 369              		.loc 1 124 0
 370 013a 0E4B     		ldr	r3, .L27+32
 371 013c 1B68     		ldr	r3, [r3]
 372 013e 1846     		mov	r0, r3
 373 0140 FFF7FEFF 		bl	Buzzer_Shot
 125:state_machine.c ****                 RELAY_Write(1);
 374              		.loc 1 125 0
 375 0144 0120     		movs	r0, #1
 376 0146 FFF7FEFF 		bl	RELAY_Write
 126:state_machine.c ****             }
 127:state_machine.c ****             
 128:state_machine.c ****         break;
 377              		.loc 1 128 0
 378 014a 01E0     		b	.L1
 379              	.L25:
 380 014c 00E0     		b	.L1
 381              	.L26:
 129:state_machine.c ****             
 130:state_machine.c ****         default:
 131:state_machine.c ****         break;
ARM GAS  C:\Users\KJA\AppData\Local\Temp\ccAyzU2h.s 			page 10


 382              		.loc 1 131 0
 383 014e 00BF     		nop
 384              	.L1:
 132:state_machine.c ****     }
 133:state_machine.c **** }
 385              		.loc 1 133 0
 386 0150 80BD     		pop	{r7, pc}
 387              	.L28:
 388 0152 00BF     		.align	2
 389              	.L27:
 390 0154 00000000 		.word	Current_State
 391 0158 00000000 		.word	MeasuredCurrent
 392 015c 00000000 		.word	fCurrent
 393 0160 00000000 		.word	cCurrent_Actual
 394 0164 00000000 		.word	.LC0
 395 0168 00000000 		.word	u8g
 396 016c 00000000 		.word	u8g_font_unifont
 397 0170 00000000 		.word	button1
 398 0174 00000000 		.word	Push_Buzzer__Default_Lenght
 399              		.cfi_endproc
 400              	.LFE63:
 401              		.size	State_Machine, .-State_Machine
 402              		.section	.text.State_Machine_Error_RP,"ax",%progbits
 403              		.align	2
 404              		.global	State_Machine_Error_RP
 405              		.thumb
 406              		.thumb_func
 407              		.type	State_Machine_Error_RP, %function
 408              	State_Machine_Error_RP:
 409              	.LFB64:
 134:state_machine.c **** 
 135:state_machine.c **** 
 136:state_machine.c **** void State_Machine_Error_RP(){
 410              		.loc 1 136 0
 411              		.cfi_startproc
 412              		@ args = 0, pretend = 0, frame = 0
 413              		@ frame_needed = 1, uses_anonymous_args = 0
 414 0000 80B5     		push	{r7, lr}
 415              		.cfi_def_cfa_offset 8
 416              		.cfi_offset 7, -8
 417              		.cfi_offset 14, -4
 418 0002 00AF     		add	r7, sp, #0
 419              		.cfi_def_cfa_register 7
 137:state_machine.c ****     
 138:state_machine.c ****     // Secondary Loop Counter
 139:state_machine.c ****     Loop_Counter++;
 420              		.loc 1 139 0
 421 0004 1C4B     		ldr	r3, .L33
 422 0006 1B68     		ldr	r3, [r3]
 423 0008 0133     		adds	r3, r3, #1
 424 000a 1B4A     		ldr	r2, .L33
 425 000c 1360     		str	r3, [r2]
 140:state_machine.c ****     if(Loop_Counter >= 1000){
 426              		.loc 1 140 0
 427 000e 1A4B     		ldr	r3, .L33
 428 0010 1B68     		ldr	r3, [r3]
 429 0012 B3F57A7F 		cmp	r3, #1000
ARM GAS  C:\Users\KJA\AppData\Local\Temp\ccAyzU2h.s 			page 11


 430 0016 08D3     		bcc	.L30
 141:state_machine.c ****         LCD_Draw(Current_State, 0);
 431              		.loc 1 141 0
 432 0018 184B     		ldr	r3, .L33+4
 433 001a 1B78     		ldrb	r3, [r3]	@ zero_extendqisi2
 434 001c 1846     		mov	r0, r3
 435 001e 0021     		movs	r1, #0
 436 0020 FFF7FEFF 		bl	LCD_Draw
 142:state_machine.c ****         Loop_Counter = 0;
 437              		.loc 1 142 0
 438 0024 144B     		ldr	r3, .L33
 439 0026 0022     		movs	r2, #0
 440 0028 1A60     		str	r2, [r3]
 441              	.L30:
 143:state_machine.c ****     }
 144:state_machine.c ****     
 145:state_machine.c ****     if((!(button1 == 0))||(!(button2 == 0))||(!(button3 == 0))||(!(button4 == 0))||
 442              		.loc 1 145 0
 443 002a 154B     		ldr	r3, .L33+8
 444 002c 1B78     		ldrb	r3, [r3]	@ zero_extendqisi2
 445 002e 002B     		cmp	r3, #0
 446 0030 18D1     		bne	.L31
 447              		.loc 1 145 0 is_stmt 0 discriminator 1
 448 0032 144B     		ldr	r3, .L33+12
 449 0034 1B78     		ldrb	r3, [r3]	@ zero_extendqisi2
 450 0036 002B     		cmp	r3, #0
 451 0038 14D1     		bne	.L31
 452              		.loc 1 145 0 discriminator 2
 453 003a 134B     		ldr	r3, .L33+16
 454 003c 1B78     		ldrb	r3, [r3]	@ zero_extendqisi2
 455 003e 002B     		cmp	r3, #0
 456 0040 10D1     		bne	.L31
 457              		.loc 1 145 0 discriminator 3
 458 0042 124B     		ldr	r3, .L33+20
 459 0044 1B78     		ldrb	r3, [r3]	@ zero_extendqisi2
 460 0046 002B     		cmp	r3, #0
 461 0048 0CD1     		bne	.L31
 146:state_machine.c ****        (!(button5 == 0))||(!(button6 == 0))||(!(Push_Reg_Read() == 0))){
 462              		.loc 1 146 0 is_stmt 1 discriminator 4
 463 004a 114B     		ldr	r3, .L33+24
 464 004c 1B78     		ldrb	r3, [r3]	@ zero_extendqisi2
 145:state_machine.c ****        (!(button5 == 0))||(!(button6 == 0))||(!(Push_Reg_Read() == 0))){
 465              		.loc 1 145 0 discriminator 4
 466 004e 002B     		cmp	r3, #0
 467 0050 08D1     		bne	.L31
 468              		.loc 1 146 0
 469 0052 104B     		ldr	r3, .L33+28
 470 0054 1B78     		ldrb	r3, [r3]	@ zero_extendqisi2
 471 0056 002B     		cmp	r3, #0
 472 0058 04D1     		bne	.L31
 473              		.loc 1 146 0 is_stmt 0 discriminator 1
 474 005a FFF7FEFF 		bl	Push_Reg_Read
 475 005e 0346     		mov	r3, r0
 476 0060 002B     		cmp	r3, #0
 477 0062 08D0     		beq	.L29
 478              	.L31:
 147:state_machine.c ****         Current_State = Previous_State;
ARM GAS  C:\Users\KJA\AppData\Local\Temp\ccAyzU2h.s 			page 12


 479              		.loc 1 147 0 is_stmt 1
 480 0064 0C4B     		ldr	r3, .L33+32
 481 0066 1A78     		ldrb	r2, [r3]	@ zero_extendqisi2
 482 0068 044B     		ldr	r3, .L33+4
 483 006a 1A70     		strb	r2, [r3]
 148:state_machine.c ****         Buzzer_Shot(Push_Buzzer__Default_Lenght);
 484              		.loc 1 148 0
 485 006c 0B4B     		ldr	r3, .L33+36
 486 006e 1B68     		ldr	r3, [r3]
 487 0070 1846     		mov	r0, r3
 488 0072 FFF7FEFF 		bl	Buzzer_Shot
 489              	.L29:
 149:state_machine.c ****     }
 150:state_machine.c **** }
 490              		.loc 1 150 0
 491 0076 80BD     		pop	{r7, pc}
 492              	.L34:
 493              		.align	2
 494              	.L33:
 495 0078 00000000 		.word	Loop_Counter
 496 007c 00000000 		.word	Current_State
 497 0080 00000000 		.word	button1
 498 0084 00000000 		.word	button2
 499 0088 00000000 		.word	button3
 500 008c 00000000 		.word	button4
 501 0090 00000000 		.word	button5
 502 0094 00000000 		.word	button6
 503 0098 00000000 		.word	Previous_State
 504 009c 00000000 		.word	Push_Buzzer__Default_Lenght
 505              		.cfi_endproc
 506              	.LFE64:
 507              		.size	State_Machine_Error_RP, .-State_Machine_Error_RP
 508              		.section	.text.State_Machine_Error_NC,"ax",%progbits
 509              		.align	2
 510              		.global	State_Machine_Error_NC
 511              		.thumb
 512              		.thumb_func
 513              		.type	State_Machine_Error_NC, %function
 514              	State_Machine_Error_NC:
 515              	.LFB65:
 151:state_machine.c **** void State_Machine_Error_NC(){
 516              		.loc 1 151 0
 517              		.cfi_startproc
 518              		@ args = 0, pretend = 0, frame = 0
 519              		@ frame_needed = 1, uses_anonymous_args = 0
 520 0000 80B5     		push	{r7, lr}
 521              		.cfi_def_cfa_offset 8
 522              		.cfi_offset 7, -8
 523              		.cfi_offset 14, -4
 524 0002 00AF     		add	r7, sp, #0
 525              		.cfi_def_cfa_register 7
 152:state_machine.c ****     
 153:state_machine.c ****     // Secondary Loop Counter
 154:state_machine.c ****     Loop_Counter++;
 526              		.loc 1 154 0
 527 0004 1C4B     		ldr	r3, .L39
 528 0006 1B68     		ldr	r3, [r3]
ARM GAS  C:\Users\KJA\AppData\Local\Temp\ccAyzU2h.s 			page 13


 529 0008 0133     		adds	r3, r3, #1
 530 000a 1B4A     		ldr	r2, .L39
 531 000c 1360     		str	r3, [r2]
 155:state_machine.c ****     if(Loop_Counter >= 1000){
 532              		.loc 1 155 0
 533 000e 1A4B     		ldr	r3, .L39
 534 0010 1B68     		ldr	r3, [r3]
 535 0012 B3F57A7F 		cmp	r3, #1000
 536 0016 08D3     		bcc	.L36
 156:state_machine.c ****         LCD_Draw(Current_State, 0);
 537              		.loc 1 156 0
 538 0018 184B     		ldr	r3, .L39+4
 539 001a 1B78     		ldrb	r3, [r3]	@ zero_extendqisi2
 540 001c 1846     		mov	r0, r3
 541 001e 0021     		movs	r1, #0
 542 0020 FFF7FEFF 		bl	LCD_Draw
 157:state_machine.c ****         Loop_Counter = 0;
 543              		.loc 1 157 0
 544 0024 144B     		ldr	r3, .L39
 545 0026 0022     		movs	r2, #0
 546 0028 1A60     		str	r2, [r3]
 547              	.L36:
 158:state_machine.c ****     }
 159:state_machine.c ****     
 160:state_machine.c ****     if((!(button1 == 0))||(!(button2 == 0))||(!(button3 == 0))||(!(button4 == 0))||
 548              		.loc 1 160 0
 549 002a 154B     		ldr	r3, .L39+8
 550 002c 1B78     		ldrb	r3, [r3]	@ zero_extendqisi2
 551 002e 002B     		cmp	r3, #0
 552 0030 18D1     		bne	.L37
 553              		.loc 1 160 0 is_stmt 0 discriminator 1
 554 0032 144B     		ldr	r3, .L39+12
 555 0034 1B78     		ldrb	r3, [r3]	@ zero_extendqisi2
 556 0036 002B     		cmp	r3, #0
 557 0038 14D1     		bne	.L37
 558              		.loc 1 160 0 discriminator 2
 559 003a 134B     		ldr	r3, .L39+16
 560 003c 1B78     		ldrb	r3, [r3]	@ zero_extendqisi2
 561 003e 002B     		cmp	r3, #0
 562 0040 10D1     		bne	.L37
 563              		.loc 1 160 0 discriminator 3
 564 0042 124B     		ldr	r3, .L39+20
 565 0044 1B78     		ldrb	r3, [r3]	@ zero_extendqisi2
 566 0046 002B     		cmp	r3, #0
 567 0048 0CD1     		bne	.L37
 161:state_machine.c ****        (!(button5 == 0))||(!(button6 == 0))||(!(Push_Reg_Read() == 0))){
 568              		.loc 1 161 0 is_stmt 1 discriminator 4
 569 004a 114B     		ldr	r3, .L39+24
 570 004c 1B78     		ldrb	r3, [r3]	@ zero_extendqisi2
 160:state_machine.c ****        (!(button5 == 0))||(!(button6 == 0))||(!(Push_Reg_Read() == 0))){
 571              		.loc 1 160 0 discriminator 4
 572 004e 002B     		cmp	r3, #0
 573 0050 08D1     		bne	.L37
 574              		.loc 1 161 0
 575 0052 104B     		ldr	r3, .L39+28
 576 0054 1B78     		ldrb	r3, [r3]	@ zero_extendqisi2
 577 0056 002B     		cmp	r3, #0
ARM GAS  C:\Users\KJA\AppData\Local\Temp\ccAyzU2h.s 			page 14


 578 0058 04D1     		bne	.L37
 579              		.loc 1 161 0 is_stmt 0 discriminator 1
 580 005a FFF7FEFF 		bl	Push_Reg_Read
 581 005e 0346     		mov	r3, r0
 582 0060 002B     		cmp	r3, #0
 583 0062 08D0     		beq	.L35
 584              	.L37:
 162:state_machine.c ****         Current_State = Previous_State;
 585              		.loc 1 162 0 is_stmt 1
 586 0064 0C4B     		ldr	r3, .L39+32
 587 0066 1A78     		ldrb	r2, [r3]	@ zero_extendqisi2
 588 0068 044B     		ldr	r3, .L39+4
 589 006a 1A70     		strb	r2, [r3]
 163:state_machine.c ****         Buzzer_Shot(Push_Buzzer__Default_Lenght);
 590              		.loc 1 163 0
 591 006c 0B4B     		ldr	r3, .L39+36
 592 006e 1B68     		ldr	r3, [r3]
 593 0070 1846     		mov	r0, r3
 594 0072 FFF7FEFF 		bl	Buzzer_Shot
 595              	.L35:
 164:state_machine.c ****     }
 165:state_machine.c **** }
 596              		.loc 1 165 0
 597 0076 80BD     		pop	{r7, pc}
 598              	.L40:
 599              		.align	2
 600              	.L39:
 601 0078 00000000 		.word	Loop_Counter
 602 007c 00000000 		.word	Current_State
 603 0080 00000000 		.word	button1
 604 0084 00000000 		.word	button2
 605 0088 00000000 		.word	button3
 606 008c 00000000 		.word	button4
 607 0090 00000000 		.word	button5
 608 0094 00000000 		.word	button6
 609 0098 00000000 		.word	Previous_State
 610 009c 00000000 		.word	Push_Buzzer__Default_Lenght
 611              		.cfi_endproc
 612              	.LFE65:
 613              		.size	State_Machine_Error_NC, .-State_Machine_Error_NC
 614              		.section	.text.State_Machine_Error_OC,"ax",%progbits
 615              		.align	2
 616              		.global	State_Machine_Error_OC
 617              		.thumb
 618              		.thumb_func
 619              		.type	State_Machine_Error_OC, %function
 620              	State_Machine_Error_OC:
 621              	.LFB66:
 166:state_machine.c **** void State_Machine_Error_OC(){
 622              		.loc 1 166 0
 623              		.cfi_startproc
 624              		@ args = 0, pretend = 0, frame = 0
 625              		@ frame_needed = 1, uses_anonymous_args = 0
 626 0000 80B5     		push	{r7, lr}
 627              		.cfi_def_cfa_offset 8
 628              		.cfi_offset 7, -8
 629              		.cfi_offset 14, -4
ARM GAS  C:\Users\KJA\AppData\Local\Temp\ccAyzU2h.s 			page 15


 630 0002 00AF     		add	r7, sp, #0
 631              		.cfi_def_cfa_register 7
 167:state_machine.c ****     
 168:state_machine.c ****     // Secondary Loop Counter
 169:state_machine.c ****     Loop_Counter++;
 632              		.loc 1 169 0
 633 0004 1C4B     		ldr	r3, .L45
 634 0006 1B68     		ldr	r3, [r3]
 635 0008 0133     		adds	r3, r3, #1
 636 000a 1B4A     		ldr	r2, .L45
 637 000c 1360     		str	r3, [r2]
 170:state_machine.c ****     if(Loop_Counter >= 1000){
 638              		.loc 1 170 0
 639 000e 1A4B     		ldr	r3, .L45
 640 0010 1B68     		ldr	r3, [r3]
 641 0012 B3F57A7F 		cmp	r3, #1000
 642 0016 08D3     		bcc	.L42
 171:state_machine.c ****         LCD_Draw(Current_State, 0);
 643              		.loc 1 171 0
 644 0018 184B     		ldr	r3, .L45+4
 645 001a 1B78     		ldrb	r3, [r3]	@ zero_extendqisi2
 646 001c 1846     		mov	r0, r3
 647 001e 0021     		movs	r1, #0
 648 0020 FFF7FEFF 		bl	LCD_Draw
 172:state_machine.c ****         Loop_Counter = 0;
 649              		.loc 1 172 0
 650 0024 144B     		ldr	r3, .L45
 651 0026 0022     		movs	r2, #0
 652 0028 1A60     		str	r2, [r3]
 653              	.L42:
 173:state_machine.c ****     }
 174:state_machine.c ****     
 175:state_machine.c ****     if((!(button1 == 0))||(!(button2 == 0))||(!(button3 == 0))||(!(button4 == 0))||
 654              		.loc 1 175 0
 655 002a 154B     		ldr	r3, .L45+8
 656 002c 1B78     		ldrb	r3, [r3]	@ zero_extendqisi2
 657 002e 002B     		cmp	r3, #0
 658 0030 18D1     		bne	.L43
 659              		.loc 1 175 0 is_stmt 0 discriminator 1
 660 0032 144B     		ldr	r3, .L45+12
 661 0034 1B78     		ldrb	r3, [r3]	@ zero_extendqisi2
 662 0036 002B     		cmp	r3, #0
 663 0038 14D1     		bne	.L43
 664              		.loc 1 175 0 discriminator 2
 665 003a 134B     		ldr	r3, .L45+16
 666 003c 1B78     		ldrb	r3, [r3]	@ zero_extendqisi2
 667 003e 002B     		cmp	r3, #0
 668 0040 10D1     		bne	.L43
 669              		.loc 1 175 0 discriminator 3
 670 0042 124B     		ldr	r3, .L45+20
 671 0044 1B78     		ldrb	r3, [r3]	@ zero_extendqisi2
 672 0046 002B     		cmp	r3, #0
 673 0048 0CD1     		bne	.L43
 176:state_machine.c ****        (!(button5 == 0))||(!(button6 == 0))||(!(Push_Reg_Read() == 0))){
 674              		.loc 1 176 0 is_stmt 1 discriminator 4
 675 004a 114B     		ldr	r3, .L45+24
 676 004c 1B78     		ldrb	r3, [r3]	@ zero_extendqisi2
ARM GAS  C:\Users\KJA\AppData\Local\Temp\ccAyzU2h.s 			page 16


 175:state_machine.c ****        (!(button5 == 0))||(!(button6 == 0))||(!(Push_Reg_Read() == 0))){
 677              		.loc 1 175 0 discriminator 4
 678 004e 002B     		cmp	r3, #0
 679 0050 08D1     		bne	.L43
 680              		.loc 1 176 0
 681 0052 104B     		ldr	r3, .L45+28
 682 0054 1B78     		ldrb	r3, [r3]	@ zero_extendqisi2
 683 0056 002B     		cmp	r3, #0
 684 0058 04D1     		bne	.L43
 685              		.loc 1 176 0 is_stmt 0 discriminator 1
 686 005a FFF7FEFF 		bl	Push_Reg_Read
 687 005e 0346     		mov	r3, r0
 688 0060 002B     		cmp	r3, #0
 689 0062 08D0     		beq	.L41
 690              	.L43:
 177:state_machine.c ****         Current_State = Previous_State;
 691              		.loc 1 177 0 is_stmt 1
 692 0064 0C4B     		ldr	r3, .L45+32
 693 0066 1A78     		ldrb	r2, [r3]	@ zero_extendqisi2
 694 0068 044B     		ldr	r3, .L45+4
 695 006a 1A70     		strb	r2, [r3]
 178:state_machine.c ****         Buzzer_Shot(Push_Buzzer__Default_Lenght);
 696              		.loc 1 178 0
 697 006c 0B4B     		ldr	r3, .L45+36
 698 006e 1B68     		ldr	r3, [r3]
 699 0070 1846     		mov	r0, r3
 700 0072 FFF7FEFF 		bl	Buzzer_Shot
 701              	.L41:
 179:state_machine.c ****     }
 180:state_machine.c **** }
 702              		.loc 1 180 0
 703 0076 80BD     		pop	{r7, pc}
 704              	.L46:
 705              		.align	2
 706              	.L45:
 707 0078 00000000 		.word	Loop_Counter
 708 007c 00000000 		.word	Current_State
 709 0080 00000000 		.word	button1
 710 0084 00000000 		.word	button2
 711 0088 00000000 		.word	button3
 712 008c 00000000 		.word	button4
 713 0090 00000000 		.word	button5
 714 0094 00000000 		.word	button6
 715 0098 00000000 		.word	Previous_State
 716 009c 00000000 		.word	Push_Buzzer__Default_Lenght
 717              		.cfi_endproc
 718              	.LFE66:
 719              		.size	State_Machine_Error_OC, .-State_Machine_Error_OC
 720              		.section	.text.State_Machine_Error_OT,"ax",%progbits
 721              		.align	2
 722              		.global	State_Machine_Error_OT
 723              		.thumb
 724              		.thumb_func
 725              		.type	State_Machine_Error_OT, %function
 726              	State_Machine_Error_OT:
 727              	.LFB67:
 181:state_machine.c **** void State_Machine_Error_OT(){
ARM GAS  C:\Users\KJA\AppData\Local\Temp\ccAyzU2h.s 			page 17


 728              		.loc 1 181 0
 729              		.cfi_startproc
 730              		@ args = 0, pretend = 0, frame = 0
 731              		@ frame_needed = 1, uses_anonymous_args = 0
 732 0000 80B5     		push	{r7, lr}
 733              		.cfi_def_cfa_offset 8
 734              		.cfi_offset 7, -8
 735              		.cfi_offset 14, -4
 736 0002 00AF     		add	r7, sp, #0
 737              		.cfi_def_cfa_register 7
 182:state_machine.c ****     
 183:state_machine.c ****     OutputEnable = 0;
 738              		.loc 1 183 0
 739 0004 1E4B     		ldr	r3, .L51
 740 0006 0022     		movs	r2, #0
 741 0008 1A70     		strb	r2, [r3]
 184:state_machine.c ****     
 185:state_machine.c ****     // Secondary Loop Counter
 186:state_machine.c ****     Loop_Counter++;
 742              		.loc 1 186 0
 743 000a 1E4B     		ldr	r3, .L51+4
 744 000c 1B68     		ldr	r3, [r3]
 745 000e 0133     		adds	r3, r3, #1
 746 0010 1C4A     		ldr	r2, .L51+4
 747 0012 1360     		str	r3, [r2]
 187:state_machine.c ****     if(Loop_Counter >= 1000){
 748              		.loc 1 187 0
 749 0014 1B4B     		ldr	r3, .L51+4
 750 0016 1B68     		ldr	r3, [r3]
 751 0018 B3F57A7F 		cmp	r3, #1000
 752 001c 08D3     		bcc	.L48
 188:state_machine.c ****         LCD_Draw(Current_State, 0);
 753              		.loc 1 188 0
 754 001e 1A4B     		ldr	r3, .L51+8
 755 0020 1B78     		ldrb	r3, [r3]	@ zero_extendqisi2
 756 0022 1846     		mov	r0, r3
 757 0024 0021     		movs	r1, #0
 758 0026 FFF7FEFF 		bl	LCD_Draw
 189:state_machine.c ****         Loop_Counter = 0;
 759              		.loc 1 189 0
 760 002a 164B     		ldr	r3, .L51+4
 761 002c 0022     		movs	r2, #0
 762 002e 1A60     		str	r2, [r3]
 763              	.L48:
 190:state_machine.c ****     }
 191:state_machine.c ****     
 192:state_machine.c ****     if((!(button1 == 0))||(!(button2 == 0))||(!(button3 == 0))||(!(button4 == 0))||
 764              		.loc 1 192 0
 765 0030 164B     		ldr	r3, .L51+12
 766 0032 1B78     		ldrb	r3, [r3]	@ zero_extendqisi2
 767 0034 002B     		cmp	r3, #0
 768 0036 18D1     		bne	.L49
 769              		.loc 1 192 0 is_stmt 0 discriminator 1
 770 0038 154B     		ldr	r3, .L51+16
 771 003a 1B78     		ldrb	r3, [r3]	@ zero_extendqisi2
 772 003c 002B     		cmp	r3, #0
 773 003e 14D1     		bne	.L49
ARM GAS  C:\Users\KJA\AppData\Local\Temp\ccAyzU2h.s 			page 18


 774              		.loc 1 192 0 discriminator 2
 775 0040 144B     		ldr	r3, .L51+20
 776 0042 1B78     		ldrb	r3, [r3]	@ zero_extendqisi2
 777 0044 002B     		cmp	r3, #0
 778 0046 10D1     		bne	.L49
 779              		.loc 1 192 0 discriminator 3
 780 0048 134B     		ldr	r3, .L51+24
 781 004a 1B78     		ldrb	r3, [r3]	@ zero_extendqisi2
 782 004c 002B     		cmp	r3, #0
 783 004e 0CD1     		bne	.L49
 193:state_machine.c ****        (!(button5 == 0))||(!(button6 == 0))||(!(Push_Reg_Read() == 0))){
 784              		.loc 1 193 0 is_stmt 1 discriminator 4
 785 0050 124B     		ldr	r3, .L51+28
 786 0052 1B78     		ldrb	r3, [r3]	@ zero_extendqisi2
 192:state_machine.c ****        (!(button5 == 0))||(!(button6 == 0))||(!(Push_Reg_Read() == 0))){
 787              		.loc 1 192 0 discriminator 4
 788 0054 002B     		cmp	r3, #0
 789 0056 08D1     		bne	.L49
 790              		.loc 1 193 0
 791 0058 114B     		ldr	r3, .L51+32
 792 005a 1B78     		ldrb	r3, [r3]	@ zero_extendqisi2
 793 005c 002B     		cmp	r3, #0
 794 005e 04D1     		bne	.L49
 795              		.loc 1 193 0 is_stmt 0 discriminator 1
 796 0060 FFF7FEFF 		bl	Push_Reg_Read
 797 0064 0346     		mov	r3, r0
 798 0066 002B     		cmp	r3, #0
 799 0068 08D0     		beq	.L47
 800              	.L49:
 194:state_machine.c ****         Current_State = Previous_State;
 801              		.loc 1 194 0 is_stmt 1
 802 006a 0E4B     		ldr	r3, .L51+36
 803 006c 1A78     		ldrb	r2, [r3]	@ zero_extendqisi2
 804 006e 064B     		ldr	r3, .L51+8
 805 0070 1A70     		strb	r2, [r3]
 195:state_machine.c ****         Buzzer_Shot(Push_Buzzer__Default_Lenght);
 806              		.loc 1 195 0
 807 0072 0D4B     		ldr	r3, .L51+40
 808 0074 1B68     		ldr	r3, [r3]
 809 0076 1846     		mov	r0, r3
 810 0078 FFF7FEFF 		bl	Buzzer_Shot
 811              	.L47:
 196:state_machine.c ****     }
 197:state_machine.c **** }
 812              		.loc 1 197 0
 813 007c 80BD     		pop	{r7, pc}
 814              	.L52:
 815 007e 00BF     		.align	2
 816              	.L51:
 817 0080 00000000 		.word	OutputEnable
 818 0084 00000000 		.word	Loop_Counter
 819 0088 00000000 		.word	Current_State
 820 008c 00000000 		.word	button1
 821 0090 00000000 		.word	button2
 822 0094 00000000 		.word	button3
 823 0098 00000000 		.word	button4
 824 009c 00000000 		.word	button5
ARM GAS  C:\Users\KJA\AppData\Local\Temp\ccAyzU2h.s 			page 19


 825 00a0 00000000 		.word	button6
 826 00a4 00000000 		.word	Previous_State
 827 00a8 00000000 		.word	Push_Buzzer__Default_Lenght
 828              		.cfi_endproc
 829              	.LFE67:
 830              		.size	State_Machine_Error_OT, .-State_Machine_Error_OT
 831              		.section	.text.State_Machine_Error_OV,"ax",%progbits
 832              		.align	2
 833              		.global	State_Machine_Error_OV
 834              		.thumb
 835              		.thumb_func
 836              		.type	State_Machine_Error_OV, %function
 837              	State_Machine_Error_OV:
 838              	.LFB68:
 198:state_machine.c **** void State_Machine_Error_OV(){
 839              		.loc 1 198 0
 840              		.cfi_startproc
 841              		@ args = 0, pretend = 0, frame = 0
 842              		@ frame_needed = 1, uses_anonymous_args = 0
 843 0000 80B5     		push	{r7, lr}
 844              		.cfi_def_cfa_offset 8
 845              		.cfi_offset 7, -8
 846              		.cfi_offset 14, -4
 847 0002 00AF     		add	r7, sp, #0
 848              		.cfi_def_cfa_register 7
 199:state_machine.c ****     
 200:state_machine.c ****     // Secondary Loop Counter
 201:state_machine.c ****     Loop_Counter++;
 849              		.loc 1 201 0
 850 0004 1C4B     		ldr	r3, .L57
 851 0006 1B68     		ldr	r3, [r3]
 852 0008 0133     		adds	r3, r3, #1
 853 000a 1B4A     		ldr	r2, .L57
 854 000c 1360     		str	r3, [r2]
 202:state_machine.c ****     if(Loop_Counter >= 1000){
 855              		.loc 1 202 0
 856 000e 1A4B     		ldr	r3, .L57
 857 0010 1B68     		ldr	r3, [r3]
 858 0012 B3F57A7F 		cmp	r3, #1000
 859 0016 08D3     		bcc	.L54
 203:state_machine.c ****         LCD_Draw(Current_State, 0);
 860              		.loc 1 203 0
 861 0018 184B     		ldr	r3, .L57+4
 862 001a 1B78     		ldrb	r3, [r3]	@ zero_extendqisi2
 863 001c 1846     		mov	r0, r3
 864 001e 0021     		movs	r1, #0
 865 0020 FFF7FEFF 		bl	LCD_Draw
 204:state_machine.c ****         Loop_Counter = 0;
 866              		.loc 1 204 0
 867 0024 144B     		ldr	r3, .L57
 868 0026 0022     		movs	r2, #0
 869 0028 1A60     		str	r2, [r3]
 870              	.L54:
 205:state_machine.c ****     }
 206:state_machine.c ****     
 207:state_machine.c ****     if((!(button1 == 0))||(!(button2 == 0))||(!(button3 == 0))||(!(button4 == 0))||
 871              		.loc 1 207 0
ARM GAS  C:\Users\KJA\AppData\Local\Temp\ccAyzU2h.s 			page 20


 872 002a 154B     		ldr	r3, .L57+8
 873 002c 1B78     		ldrb	r3, [r3]	@ zero_extendqisi2
 874 002e 002B     		cmp	r3, #0
 875 0030 18D1     		bne	.L55
 876              		.loc 1 207 0 is_stmt 0 discriminator 1
 877 0032 144B     		ldr	r3, .L57+12
 878 0034 1B78     		ldrb	r3, [r3]	@ zero_extendqisi2
 879 0036 002B     		cmp	r3, #0
 880 0038 14D1     		bne	.L55
 881              		.loc 1 207 0 discriminator 2
 882 003a 134B     		ldr	r3, .L57+16
 883 003c 1B78     		ldrb	r3, [r3]	@ zero_extendqisi2
 884 003e 002B     		cmp	r3, #0
 885 0040 10D1     		bne	.L55
 886              		.loc 1 207 0 discriminator 3
 887 0042 124B     		ldr	r3, .L57+20
 888 0044 1B78     		ldrb	r3, [r3]	@ zero_extendqisi2
 889 0046 002B     		cmp	r3, #0
 890 0048 0CD1     		bne	.L55
 208:state_machine.c ****        (!(button5 == 0))||(!(button6 == 0))||(!(Push_Reg_Read() == 0))){
 891              		.loc 1 208 0 is_stmt 1 discriminator 4
 892 004a 114B     		ldr	r3, .L57+24
 893 004c 1B78     		ldrb	r3, [r3]	@ zero_extendqisi2
 207:state_machine.c ****        (!(button5 == 0))||(!(button6 == 0))||(!(Push_Reg_Read() == 0))){
 894              		.loc 1 207 0 discriminator 4
 895 004e 002B     		cmp	r3, #0
 896 0050 08D1     		bne	.L55
 897              		.loc 1 208 0
 898 0052 104B     		ldr	r3, .L57+28
 899 0054 1B78     		ldrb	r3, [r3]	@ zero_extendqisi2
 900 0056 002B     		cmp	r3, #0
 901 0058 04D1     		bne	.L55
 902              		.loc 1 208 0 is_stmt 0 discriminator 1
 903 005a FFF7FEFF 		bl	Push_Reg_Read
 904 005e 0346     		mov	r3, r0
 905 0060 002B     		cmp	r3, #0
 906 0062 08D0     		beq	.L53
 907              	.L55:
 209:state_machine.c ****         Current_State = Previous_State;
 908              		.loc 1 209 0 is_stmt 1
 909 0064 0C4B     		ldr	r3, .L57+32
 910 0066 1A78     		ldrb	r2, [r3]	@ zero_extendqisi2
 911 0068 044B     		ldr	r3, .L57+4
 912 006a 1A70     		strb	r2, [r3]
 210:state_machine.c ****         Buzzer_Shot(Push_Buzzer__Default_Lenght);
 913              		.loc 1 210 0
 914 006c 0B4B     		ldr	r3, .L57+36
 915 006e 1B68     		ldr	r3, [r3]
 916 0070 1846     		mov	r0, r3
 917 0072 FFF7FEFF 		bl	Buzzer_Shot
 918              	.L53:
 211:state_machine.c ****     }
 212:state_machine.c **** }
 919              		.loc 1 212 0
 920 0076 80BD     		pop	{r7, pc}
 921              	.L58:
 922              		.align	2
ARM GAS  C:\Users\KJA\AppData\Local\Temp\ccAyzU2h.s 			page 21


 923              	.L57:
 924 0078 00000000 		.word	Loop_Counter
 925 007c 00000000 		.word	Current_State
 926 0080 00000000 		.word	button1
 927 0084 00000000 		.word	button2
 928 0088 00000000 		.word	button3
 929 008c 00000000 		.word	button4
 930 0090 00000000 		.word	button5
 931 0094 00000000 		.word	button6
 932 0098 00000000 		.word	Previous_State
 933 009c 00000000 		.word	Push_Buzzer__Default_Lenght
 934              		.cfi_endproc
 935              	.LFE68:
 936              		.size	State_Machine_Error_OV, .-State_Machine_Error_OV
 937              		.section	.text.State_Machine_Home,"ax",%progbits
 938              		.align	2
 939              		.global	State_Machine_Home
 940              		.thumb
 941              		.thumb_func
 942              		.type	State_Machine_Home, %function
 943              	State_Machine_Home:
 944              	.LFB69:
 213:state_machine.c **** 
 214:state_machine.c **** void State_Machine_Home(){  
 945              		.loc 1 214 0
 946              		.cfi_startproc
 947              		@ args = 0, pretend = 0, frame = 0
 948              		@ frame_needed = 1, uses_anonymous_args = 0
 949 0000 98B5     		push	{r3, r4, r7, lr}
 950              		.cfi_def_cfa_offset 16
 951              		.cfi_offset 3, -16
 952              		.cfi_offset 4, -12
 953              		.cfi_offset 7, -8
 954              		.cfi_offset 14, -4
 955 0002 00AF     		add	r7, sp, #0
 956              		.cfi_def_cfa_register 7
 215:state_machine.c ****     
 216:state_machine.c ****     // Secondary Loop Counter
 217:state_machine.c ****     Loop_Counter++;
 957              		.loc 1 217 0
 958 0004 2B4B     		ldr	r3, .L64
 959 0006 1B68     		ldr	r3, [r3]
 960 0008 0133     		adds	r3, r3, #1
 961 000a 2A4A     		ldr	r2, .L64
 962 000c 1360     		str	r3, [r2]
 218:state_machine.c ****     if(Loop_Counter >= 1000){
 963              		.loc 1 218 0
 964 000e 294B     		ldr	r3, .L64
 965 0010 1B68     		ldr	r3, [r3]
 966 0012 B3F57A7F 		cmp	r3, #1000
 967 0016 0ED3     		bcc	.L60
 219:state_machine.c ****         LCD_Draw(Current_State, Get_Encoder_Menu(0,3));
 968              		.loc 1 219 0
 969 0018 274B     		ldr	r3, .L64+4
 970 001a 1C78     		ldrb	r4, [r3]	@ zero_extendqisi2
 971 001c 0020     		movs	r0, #0
 972 001e 0321     		movs	r1, #3
ARM GAS  C:\Users\KJA\AppData\Local\Temp\ccAyzU2h.s 			page 22


 973 0020 FFF7FEFF 		bl	Get_Encoder_Menu
 974 0024 0346     		mov	r3, r0
 975 0026 DBB2     		uxtb	r3, r3
 976 0028 2046     		mov	r0, r4
 977 002a 1946     		mov	r1, r3
 978 002c FFF7FEFF 		bl	LCD_Draw
 220:state_machine.c ****         Loop_Counter = 0;
 979              		.loc 1 220 0
 980 0030 204B     		ldr	r3, .L64
 981 0032 0022     		movs	r2, #0
 982 0034 1A60     		str	r2, [r3]
 983              	.L60:
 221:state_machine.c ****     }
 222:state_machine.c ****     
 223:state_machine.c ****     if(!(Push_Reg_Read() == 0)){
 984              		.loc 1 223 0
 985 0036 FFF7FEFF 		bl	Push_Reg_Read
 986 003a 0346     		mov	r3, r0
 987 003c 002B     		cmp	r3, #0
 988 003e 37D0     		beq	.L59
 224:state_machine.c ****         if(Get_Encoder_Menu(0,3) == 3){
 989              		.loc 1 224 0
 990 0040 0020     		movs	r0, #0
 991 0042 0321     		movs	r1, #3
 992 0044 FFF7FEFF 		bl	Get_Encoder_Menu
 993 0048 0346     		mov	r3, r0
 994 004a 032B     		cmp	r3, #3
 995 004c 0BD1     		bne	.L62
 225:state_machine.c ****             QD_SetCounter(3);
 996              		.loc 1 225 0
 997 004e 0320     		movs	r0, #3
 998 0050 FFF7FEFF 		bl	QD_SetCounter
 226:state_machine.c ****             Current_State = ConstantMode;
 999              		.loc 1 226 0
 1000 0054 184B     		ldr	r3, .L64+4
 1001 0056 0222     		movs	r2, #2
 1002 0058 1A70     		strb	r2, [r3]
 227:state_machine.c ****             Buzzer_Shot(Push_Buzzer__Default_Lenght);
 1003              		.loc 1 227 0
 1004 005a 184B     		ldr	r3, .L64+8
 1005 005c 1B68     		ldr	r3, [r3]
 1006 005e 1846     		mov	r0, r3
 1007 0060 FFF7FEFF 		bl	Buzzer_Shot
 1008 0064 24E0     		b	.L59
 1009              	.L62:
 228:state_machine.c ****         }
 229:state_machine.c ****         else if(Get_Encoder_Menu(0,3) == 2){
 1010              		.loc 1 229 0
 1011 0066 0020     		movs	r0, #0
 1012 0068 0321     		movs	r1, #3
 1013 006a FFF7FEFF 		bl	Get_Encoder_Menu
 1014 006e 0346     		mov	r3, r0
 1015 0070 022B     		cmp	r3, #2
 1016 0072 0BD1     		bne	.L63
 230:state_machine.c ****             QD_SetCounter(3);
 1017              		.loc 1 230 0
 1018 0074 0320     		movs	r0, #3
ARM GAS  C:\Users\KJA\AppData\Local\Temp\ccAyzU2h.s 			page 23


 1019 0076 FFF7FEFF 		bl	QD_SetCounter
 231:state_machine.c ****             Current_State = ArbitraryMode;
 1020              		.loc 1 231 0
 1021 007a 0F4B     		ldr	r3, .L64+4
 1022 007c 0322     		movs	r2, #3
 1023 007e 1A70     		strb	r2, [r3]
 232:state_machine.c ****             Buzzer_Shot(Push_Buzzer__Default_Lenght);
 1024              		.loc 1 232 0
 1025 0080 0E4B     		ldr	r3, .L64+8
 1026 0082 1B68     		ldr	r3, [r3]
 1027 0084 1846     		mov	r0, r3
 1028 0086 FFF7FEFF 		bl	Buzzer_Shot
 1029 008a 11E0     		b	.L59
 1030              	.L63:
 233:state_machine.c ****         }
 234:state_machine.c ****         else if(Get_Encoder_Menu(0,3) == 0){   
 1031              		.loc 1 234 0
 1032 008c 0020     		movs	r0, #0
 1033 008e 0321     		movs	r1, #3
 1034 0090 FFF7FEFF 		bl	Get_Encoder_Menu
 1035 0094 0346     		mov	r3, r0
 1036 0096 002B     		cmp	r3, #0
 1037 0098 0AD1     		bne	.L59
 235:state_machine.c ****             QD_SetCounter(3);
 1038              		.loc 1 235 0
 1039 009a 0320     		movs	r0, #3
 1040 009c FFF7FEFF 		bl	QD_SetCounter
 236:state_machine.c ****             Current_State = Settings;
 1041              		.loc 1 236 0
 1042 00a0 054B     		ldr	r3, .L64+4
 1043 00a2 0522     		movs	r2, #5
 1044 00a4 1A70     		strb	r2, [r3]
 237:state_machine.c ****             Buzzer_Shot(Push_Buzzer__Default_Lenght);
 1045              		.loc 1 237 0
 1046 00a6 054B     		ldr	r3, .L64+8
 1047 00a8 1B68     		ldr	r3, [r3]
 1048 00aa 1846     		mov	r0, r3
 1049 00ac FFF7FEFF 		bl	Buzzer_Shot
 1050              	.L59:
 238:state_machine.c ****         }  
 239:state_machine.c ****     }
 240:state_machine.c **** }
 1051              		.loc 1 240 0
 1052 00b0 98BD     		pop	{r3, r4, r7, pc}
 1053              	.L65:
 1054 00b2 00BF     		.align	2
 1055              	.L64:
 1056 00b4 00000000 		.word	Loop_Counter
 1057 00b8 00000000 		.word	Current_State
 1058 00bc 00000000 		.word	Push_Buzzer__Default_Lenght
 1059              		.cfi_endproc
 1060              	.LFE69:
 1061              		.size	State_Machine_Home, .-State_Machine_Home
 1062              		.section	.text.State_Machine_ConstantMode,"ax",%progbits
 1063              		.align	2
 1064              		.global	State_Machine_ConstantMode
 1065              		.thumb
ARM GAS  C:\Users\KJA\AppData\Local\Temp\ccAyzU2h.s 			page 24


 1066              		.thumb_func
 1067              		.type	State_Machine_ConstantMode, %function
 1068              	State_Machine_ConstantMode:
 1069              	.LFB70:
 241:state_machine.c **** 
 242:state_machine.c **** void State_Machine_ConstantMode(){
 1070              		.loc 1 242 0
 1071              		.cfi_startproc
 1072              		@ args = 0, pretend = 0, frame = 0
 1073              		@ frame_needed = 1, uses_anonymous_args = 0
 1074 0000 98B5     		push	{r3, r4, r7, lr}
 1075              		.cfi_def_cfa_offset 16
 1076              		.cfi_offset 3, -16
 1077              		.cfi_offset 4, -12
 1078              		.cfi_offset 7, -8
 1079              		.cfi_offset 14, -4
 1080 0002 00AF     		add	r7, sp, #0
 1081              		.cfi_def_cfa_register 7
 243:state_machine.c ****     // Disable Output and Relay
 244:state_machine.c ****     OutputEnable = 0;
 1082              		.loc 1 244 0
 1083 0004 4D4B     		ldr	r3, .L73
 1084 0006 0022     		movs	r2, #0
 1085 0008 1A70     		strb	r2, [r3]
 245:state_machine.c ****     RELAY_Write(0);
 1086              		.loc 1 245 0
 1087 000a 0020     		movs	r0, #0
 1088 000c FFF7FEFF 		bl	RELAY_Write
 246:state_machine.c ****     
 247:state_machine.c ****     // Secondary Loop Counter
 248:state_machine.c ****     Loop_Counter++;
 1089              		.loc 1 248 0
 1090 0010 4B4B     		ldr	r3, .L73+4
 1091 0012 1B68     		ldr	r3, [r3]
 1092 0014 0133     		adds	r3, r3, #1
 1093 0016 4A4A     		ldr	r2, .L73+4
 1094 0018 1360     		str	r3, [r2]
 249:state_machine.c ****     if(Loop_Counter >= 1000){
 1095              		.loc 1 249 0
 1096 001a 494B     		ldr	r3, .L73+4
 1097 001c 1B68     		ldr	r3, [r3]
 1098 001e B3F57A7F 		cmp	r3, #1000
 1099 0022 0ED3     		bcc	.L67
 250:state_machine.c ****         LCD_Draw(Current_State, Get_Encoder_Menu(0,3));
 1100              		.loc 1 250 0
 1101 0024 474B     		ldr	r3, .L73+8
 1102 0026 1C78     		ldrb	r4, [r3]	@ zero_extendqisi2
 1103 0028 0020     		movs	r0, #0
 1104 002a 0321     		movs	r1, #3
 1105 002c FFF7FEFF 		bl	Get_Encoder_Menu
 1106 0030 0346     		mov	r3, r0
 1107 0032 DBB2     		uxtb	r3, r3
 1108 0034 2046     		mov	r0, r4
 1109 0036 1946     		mov	r1, r3
 1110 0038 FFF7FEFF 		bl	LCD_Draw
 251:state_machine.c ****         Loop_Counter = 0;
 1111              		.loc 1 251 0
ARM GAS  C:\Users\KJA\AppData\Local\Temp\ccAyzU2h.s 			page 25


 1112 003c 404B     		ldr	r3, .L73+4
 1113 003e 0022     		movs	r2, #0
 1114 0040 1A60     		str	r2, [r3]
 1115              	.L67:
 252:state_machine.c ****     }
 253:state_machine.c ****     
 254:state_machine.c ****     if(!(Push_Reg_Read() == 0)){
 1116              		.loc 1 254 0
 1117 0042 FFF7FEFF 		bl	Push_Reg_Read
 1118 0046 0346     		mov	r3, r0
 1119 0048 002B     		cmp	r3, #0
 1120 004a 67D0     		beq	.L68
 255:state_machine.c ****         if(Get_Encoder_Menu(2,3) == 3){
 1121              		.loc 1 255 0
 1122 004c 0220     		movs	r0, #2
 1123 004e 0321     		movs	r1, #3
 1124 0050 FFF7FEFF 		bl	Get_Encoder_Menu
 1125 0054 0346     		mov	r3, r0
 1126 0056 032B     		cmp	r3, #3
 1127 0058 16D1     		bne	.L69
 256:state_machine.c ****             QD_SetCounter(3);
 1128              		.loc 1 256 0
 1129 005a 0320     		movs	r0, #3
 1130 005c FFF7FEFF 		bl	QD_SetCounter
 257:state_machine.c ****             Current_State = ConstantCurrent;
 1131              		.loc 1 257 0
 1132 0060 384B     		ldr	r3, .L73+8
 1133 0062 0422     		movs	r2, #4
 1134 0064 1A70     		strb	r2, [r3]
 258:state_machine.c ****             Set_Current = 0.50;   // Initial Value
 1135              		.loc 1 258 0
 1136 0066 384B     		ldr	r3, .L73+12
 1137 0068 4FF07C52 		mov	r2, #1056964608
 1138 006c 1A60     		str	r2, [r3]	@ float
 259:state_machine.c ****             Set_Current_Temporary_Value = 0.50;
 1139              		.loc 1 259 0
 1140 006e 374B     		ldr	r3, .L73+16
 1141 0070 4FF07C52 		mov	r2, #1056964608
 1142 0074 1A60     		str	r2, [r3]	@ float
 260:state_machine.c ****             Position_Number = 1;
 1143              		.loc 1 260 0
 1144 0076 364B     		ldr	r3, .L73+20
 1145 0078 0122     		movs	r2, #1
 1146 007a 1A70     		strb	r2, [r3]
 261:state_machine.c ****             Buzzer_Shot(Push_Buzzer__Default_Lenght);
 1147              		.loc 1 261 0
 1148 007c 354B     		ldr	r3, .L73+24
 1149 007e 1B68     		ldr	r3, [r3]
 1150 0080 1846     		mov	r0, r3
 1151 0082 FFF7FEFF 		bl	Buzzer_Shot
 1152 0086 49E0     		b	.L68
 1153              	.L69:
 262:state_machine.c ****         }
 263:state_machine.c ****         else if(Get_Encoder_Menu(0,3) == 2){
 1154              		.loc 1 263 0
 1155 0088 0020     		movs	r0, #0
 1156 008a 0321     		movs	r1, #3
ARM GAS  C:\Users\KJA\AppData\Local\Temp\ccAyzU2h.s 			page 26


 1157 008c FFF7FEFF 		bl	Get_Encoder_Menu
 1158 0090 0346     		mov	r3, r0
 1159 0092 022B     		cmp	r3, #2
 1160 0094 14D1     		bne	.L70
 264:state_machine.c ****             QD_SetCounter(3);
 1161              		.loc 1 264 0
 1162 0096 0320     		movs	r0, #3
 1163 0098 FFF7FEFF 		bl	QD_SetCounter
 265:state_machine.c ****             Current_State = ConstantPower;
 1164              		.loc 1 265 0
 1165 009c 294B     		ldr	r3, .L73+8
 1166 009e 0922     		movs	r2, #9
 1167 00a0 1A70     		strb	r2, [r3]
 266:state_machine.c ****             Set_Power = 10.50;   // Initial Value
 1168              		.loc 1 266 0
 1169 00a2 2D4B     		ldr	r3, .L73+28
 1170 00a4 2D4A     		ldr	r2, .L73+32
 1171 00a6 1A60     		str	r2, [r3]	@ float
 267:state_machine.c ****             Set_Power_Temporary_Value = 10.50;
 1172              		.loc 1 267 0
 1173 00a8 2D4B     		ldr	r3, .L73+36
 1174 00aa 2C4A     		ldr	r2, .L73+32
 1175 00ac 1A60     		str	r2, [r3]	@ float
 268:state_machine.c ****             Position_Number = 1;
 1176              		.loc 1 268 0
 1177 00ae 284B     		ldr	r3, .L73+20
 1178 00b0 0122     		movs	r2, #1
 1179 00b2 1A70     		strb	r2, [r3]
 269:state_machine.c ****             Buzzer_Shot(Push_Buzzer__Default_Lenght);
 1180              		.loc 1 269 0
 1181 00b4 274B     		ldr	r3, .L73+24
 1182 00b6 1B68     		ldr	r3, [r3]
 1183 00b8 1846     		mov	r0, r3
 1184 00ba FFF7FEFF 		bl	Buzzer_Shot
 1185 00be 2DE0     		b	.L68
 1186              	.L70:
 270:state_machine.c ****         }
 271:state_machine.c ****         else if(Get_Encoder_Menu(0,3) == 1){
 1187              		.loc 1 271 0
 1188 00c0 0020     		movs	r0, #0
 1189 00c2 0321     		movs	r1, #3
 1190 00c4 FFF7FEFF 		bl	Get_Encoder_Menu
 1191 00c8 0346     		mov	r3, r0
 1192 00ca 012B     		cmp	r3, #1
 1193 00cc 14D1     		bne	.L71
 272:state_machine.c ****             QD_SetCounter(3);
 1194              		.loc 1 272 0
 1195 00ce 0320     		movs	r0, #3
 1196 00d0 FFF7FEFF 		bl	QD_SetCounter
 273:state_machine.c ****             Current_State = ConstantResistance;
 1197              		.loc 1 273 0
 1198 00d4 1B4B     		ldr	r3, .L73+8
 1199 00d6 0A22     		movs	r2, #10
 1200 00d8 1A70     		strb	r2, [r3]
 274:state_machine.c ****             Set_Resist = 25.0;   // Initial Value
 1201              		.loc 1 274 0
 1202 00da 224B     		ldr	r3, .L73+40
ARM GAS  C:\Users\KJA\AppData\Local\Temp\ccAyzU2h.s 			page 27


 1203 00dc 224A     		ldr	r2, .L73+44
 1204 00de 1A60     		str	r2, [r3]	@ float
 275:state_machine.c ****             Set_Resist_Temporary_Value = 25.0; 
 1205              		.loc 1 275 0
 1206 00e0 224B     		ldr	r3, .L73+48
 1207 00e2 214A     		ldr	r2, .L73+44
 1208 00e4 1A60     		str	r2, [r3]	@ float
 276:state_machine.c ****             Position_Number = 1;
 1209              		.loc 1 276 0
 1210 00e6 1A4B     		ldr	r3, .L73+20
 1211 00e8 0122     		movs	r2, #1
 1212 00ea 1A70     		strb	r2, [r3]
 277:state_machine.c ****             Buzzer_Shot(Push_Buzzer__Default_Lenght);
 1213              		.loc 1 277 0
 1214 00ec 194B     		ldr	r3, .L73+24
 1215 00ee 1B68     		ldr	r3, [r3]
 1216 00f0 1846     		mov	r0, r3
 1217 00f2 FFF7FEFF 		bl	Buzzer_Shot
 1218 00f6 11E0     		b	.L68
 1219              	.L71:
 278:state_machine.c ****         }
 279:state_machine.c ****         else if(Get_Encoder_Menu(0,3) == 0){ // Back
 1220              		.loc 1 279 0
 1221 00f8 0020     		movs	r0, #0
 1222 00fa 0321     		movs	r1, #3
 1223 00fc FFF7FEFF 		bl	Get_Encoder_Menu
 1224 0100 0346     		mov	r3, r0
 1225 0102 002B     		cmp	r3, #0
 1226 0104 0AD1     		bne	.L68
 280:state_machine.c ****             QD_SetCounter(3);
 1227              		.loc 1 280 0
 1228 0106 0320     		movs	r0, #3
 1229 0108 FFF7FEFF 		bl	QD_SetCounter
 281:state_machine.c ****             Current_State = Home;
 1230              		.loc 1 281 0
 1231 010c 0D4B     		ldr	r3, .L73+8
 1232 010e 0122     		movs	r2, #1
 1233 0110 1A70     		strb	r2, [r3]
 282:state_machine.c ****             Buzzer_Shot(Push_Buzzer__Default_Lenght);
 1234              		.loc 1 282 0
 1235 0112 104B     		ldr	r3, .L73+24
 1236 0114 1B68     		ldr	r3, [r3]
 1237 0116 1846     		mov	r0, r3
 1238 0118 FFF7FEFF 		bl	Buzzer_Shot
 1239              	.L68:
 283:state_machine.c ****         }
 284:state_machine.c ****     }
 285:state_machine.c **** 
 286:state_machine.c ****     if(!(button4 == 0)){    //Back
 1240              		.loc 1 286 0
 1241 011c 144B     		ldr	r3, .L73+52
 1242 011e 1B78     		ldrb	r3, [r3]	@ zero_extendqisi2
 1243 0120 002B     		cmp	r3, #0
 1244 0122 0AD0     		beq	.L66
 287:state_machine.c ****         QD_SetCounter(3);
 1245              		.loc 1 287 0
 1246 0124 0320     		movs	r0, #3
ARM GAS  C:\Users\KJA\AppData\Local\Temp\ccAyzU2h.s 			page 28


 1247 0126 FFF7FEFF 		bl	QD_SetCounter
 288:state_machine.c ****         Current_State = Home;
 1248              		.loc 1 288 0
 1249 012a 064B     		ldr	r3, .L73+8
 1250 012c 0122     		movs	r2, #1
 1251 012e 1A70     		strb	r2, [r3]
 289:state_machine.c ****         Buzzer_Shot(Push_Buzzer__Default_Lenght);
 1252              		.loc 1 289 0
 1253 0130 084B     		ldr	r3, .L73+24
 1254 0132 1B68     		ldr	r3, [r3]
 1255 0134 1846     		mov	r0, r3
 1256 0136 FFF7FEFF 		bl	Buzzer_Shot
 1257              	.L66:
 290:state_machine.c ****     }
 291:state_machine.c ****     
 292:state_machine.c ****     
 293:state_machine.c ****     
 294:state_machine.c **** }
 1258              		.loc 1 294 0
 1259 013a 98BD     		pop	{r3, r4, r7, pc}
 1260              	.L74:
 1261              		.align	2
 1262              	.L73:
 1263 013c 00000000 		.word	OutputEnable
 1264 0140 00000000 		.word	Loop_Counter
 1265 0144 00000000 		.word	Current_State
 1266 0148 00000000 		.word	Set_Current
 1267 014c 00000000 		.word	Set_Current_Temporary_Value
 1268 0150 00000000 		.word	Position_Number
 1269 0154 00000000 		.word	Push_Buzzer__Default_Lenght
 1270 0158 00000000 		.word	Set_Power
 1271 015c 00002841 		.word	1093140480
 1272 0160 00000000 		.word	Set_Power_Temporary_Value
 1273 0164 00000000 		.word	Set_Resist
 1274 0168 0000C841 		.word	1103626240
 1275 016c 00000000 		.word	Set_Resist_Temporary_Value
 1276 0170 00000000 		.word	button4
 1277              		.cfi_endproc
 1278              	.LFE70:
 1279              		.size	State_Machine_ConstantMode, .-State_Machine_ConstantMode
 1280              		.section	.text.State_Machine_ArbitraryMode,"ax",%progbits
 1281              		.align	2
 1282              		.global	State_Machine_ArbitraryMode
 1283              		.thumb
 1284              		.thumb_func
 1285              		.type	State_Machine_ArbitraryMode, %function
 1286              	State_Machine_ArbitraryMode:
 1287              	.LFB71:
 295:state_machine.c **** 
 296:state_machine.c **** void State_Machine_ArbitraryMode(){
 1288              		.loc 1 296 0
 1289              		.cfi_startproc
 1290              		@ args = 0, pretend = 0, frame = 0
 1291              		@ frame_needed = 1, uses_anonymous_args = 0
 1292 0000 98B5     		push	{r3, r4, r7, lr}
 1293              		.cfi_def_cfa_offset 16
 1294              		.cfi_offset 3, -16
ARM GAS  C:\Users\KJA\AppData\Local\Temp\ccAyzU2h.s 			page 29


 1295              		.cfi_offset 4, -12
 1296              		.cfi_offset 7, -8
 1297              		.cfi_offset 14, -4
 1298 0002 00AF     		add	r7, sp, #0
 1299              		.cfi_def_cfa_register 7
 297:state_machine.c ****     // Disable Output and Relay
 298:state_machine.c ****     OutputEnable = 0;
 1300              		.loc 1 298 0
 1301 0004 374B     		ldr	r3, .L80
 1302 0006 0022     		movs	r2, #0
 1303 0008 1A70     		strb	r2, [r3]
 299:state_machine.c ****     RELAY_Write(0);
 1304              		.loc 1 299 0
 1305 000a 0020     		movs	r0, #0
 1306 000c FFF7FEFF 		bl	RELAY_Write
 300:state_machine.c ****     
 301:state_machine.c ****     // Secondary Loop Counter
 302:state_machine.c ****     Loop_Counter++;
 1307              		.loc 1 302 0
 1308 0010 354B     		ldr	r3, .L80+4
 1309 0012 1B68     		ldr	r3, [r3]
 1310 0014 0133     		adds	r3, r3, #1
 1311 0016 344A     		ldr	r2, .L80+4
 1312 0018 1360     		str	r3, [r2]
 303:state_machine.c ****     if(Loop_Counter >= 1000){
 1313              		.loc 1 303 0
 1314 001a 334B     		ldr	r3, .L80+4
 1315 001c 1B68     		ldr	r3, [r3]
 1316 001e B3F57A7F 		cmp	r3, #1000
 1317 0022 0ED3     		bcc	.L76
 304:state_machine.c ****         LCD_Draw(Current_State, Get_Encoder_Menu(0,3));
 1318              		.loc 1 304 0
 1319 0024 314B     		ldr	r3, .L80+8
 1320 0026 1C78     		ldrb	r4, [r3]	@ zero_extendqisi2
 1321 0028 0020     		movs	r0, #0
 1322 002a 0321     		movs	r1, #3
 1323 002c FFF7FEFF 		bl	Get_Encoder_Menu
 1324 0030 0346     		mov	r3, r0
 1325 0032 DBB2     		uxtb	r3, r3
 1326 0034 2046     		mov	r0, r4
 1327 0036 1946     		mov	r1, r3
 1328 0038 FFF7FEFF 		bl	LCD_Draw
 305:state_machine.c ****         Loop_Counter = 0;
 1329              		.loc 1 305 0
 1330 003c 2A4B     		ldr	r3, .L80+4
 1331 003e 0022     		movs	r2, #0
 1332 0040 1A60     		str	r2, [r3]
 1333              	.L76:
 306:state_machine.c ****     }
 307:state_machine.c ****         
 308:state_machine.c ****     if(!(Push_Reg_Read() == 0)){
 1334              		.loc 1 308 0
 1335 0042 FFF7FEFF 		bl	Push_Reg_Read
 1336 0046 0346     		mov	r3, r0
 1337 0048 002B     		cmp	r3, #0
 1338 004a 3AD0     		beq	.L77
 309:state_machine.c **** //        if(Get_Encoder_Menu(2,3) == 3){
ARM GAS  C:\Users\KJA\AppData\Local\Temp\ccAyzU2h.s 			page 30


 310:state_machine.c **** //            QD_SetCounter(3);
 311:state_machine.c **** //            Current_State = WaveForm_Mode;
 312:state_machine.c **** //            Buzzer_Shot(Push_Buzzer__Default_Lenght);
 313:state_machine.c **** //        }
 314:state_machine.c ****         if(Get_Encoder_Menu(2,3) == 2){
 1339              		.loc 1 314 0
 1340 004c 0220     		movs	r0, #2
 1341 004e 0321     		movs	r1, #3
 1342 0050 FFF7FEFF 		bl	Get_Encoder_Menu
 1343 0054 0346     		mov	r3, r0
 1344 0056 022B     		cmp	r3, #2
 1345 0058 21D1     		bne	.L78
 315:state_machine.c ****             QD_SetCounter(3);
 1346              		.loc 1 315 0
 1347 005a 0320     		movs	r0, #3
 1348 005c FFF7FEFF 		bl	QD_SetCounter
 316:state_machine.c ****             Current_State = PWM_Mode;
 1349              		.loc 1 316 0
 1350 0060 224B     		ldr	r3, .L80+8
 1351 0062 1122     		movs	r2, #17
 1352 0064 1A70     		strb	r2, [r3]
 317:state_machine.c ****             Set_Ampl = 1000;
 1353              		.loc 1 317 0
 1354 0066 224B     		ldr	r3, .L80+12
 1355 0068 4FF47A72 		mov	r2, #1000
 1356 006c 1A80     		strh	r2, [r3]	@ movhi
 318:state_machine.c ****             Set_Ampl_Temporary_Value = 1000;
 1357              		.loc 1 318 0
 1358 006e 214B     		ldr	r3, .L80+16
 1359 0070 4FF47A72 		mov	r2, #1000
 1360 0074 1A80     		strh	r2, [r3]	@ movhi
 319:state_machine.c ****             Set_Freq = 25000;
 1361              		.loc 1 319 0
 1362 0076 204B     		ldr	r3, .L80+20
 1363 0078 46F2A812 		movw	r2, #25000
 1364 007c 1A80     		strh	r2, [r3]	@ movhi
 320:state_machine.c ****             Set_Freq_Temporary_Value = 25000;
 1365              		.loc 1 320 0
 1366 007e 1F4B     		ldr	r3, .L80+24
 1367 0080 46F2A812 		movw	r2, #25000
 1368 0084 1A60     		str	r2, [r3]
 321:state_machine.c ****             Set_Duty = 50;
 1369              		.loc 1 321 0
 1370 0086 1E4B     		ldr	r3, .L80+28
 1371 0088 3222     		movs	r2, #50
 1372 008a 1A70     		strb	r2, [r3]
 322:state_machine.c ****             Set_Duty_Temporary_Value = 50;
 1373              		.loc 1 322 0
 1374 008c 1D4B     		ldr	r3, .L80+32
 1375 008e 3222     		movs	r2, #50
 1376 0090 1A70     		strb	r2, [r3]
 323:state_machine.c ****             Buzzer_Shot(Push_Buzzer__Default_Lenght);
 1377              		.loc 1 323 0
 1378 0092 1D4B     		ldr	r3, .L80+36
 1379 0094 1B68     		ldr	r3, [r3]
 1380 0096 1846     		mov	r0, r3
 1381 0098 FFF7FEFF 		bl	Buzzer_Shot
ARM GAS  C:\Users\KJA\AppData\Local\Temp\ccAyzU2h.s 			page 31


 1382 009c 11E0     		b	.L77
 1383              	.L78:
 324:state_machine.c ****         }
 325:state_machine.c ****         
 326:state_machine.c ****         else if(Get_Encoder_Menu(0,3) == 0){ // Back
 1384              		.loc 1 326 0
 1385 009e 0020     		movs	r0, #0
 1386 00a0 0321     		movs	r1, #3
 1387 00a2 FFF7FEFF 		bl	Get_Encoder_Menu
 1388 00a6 0346     		mov	r3, r0
 1389 00a8 002B     		cmp	r3, #0
 1390 00aa 0AD1     		bne	.L77
 327:state_machine.c ****             QD_SetCounter(3);
 1391              		.loc 1 327 0
 1392 00ac 0320     		movs	r0, #3
 1393 00ae FFF7FEFF 		bl	QD_SetCounter
 328:state_machine.c ****             Current_State = Home;
 1394              		.loc 1 328 0
 1395 00b2 0E4B     		ldr	r3, .L80+8
 1396 00b4 0122     		movs	r2, #1
 1397 00b6 1A70     		strb	r2, [r3]
 329:state_machine.c ****             Buzzer_Shot(Push_Buzzer__Default_Lenght);
 1398              		.loc 1 329 0
 1399 00b8 134B     		ldr	r3, .L80+36
 1400 00ba 1B68     		ldr	r3, [r3]
 1401 00bc 1846     		mov	r0, r3
 1402 00be FFF7FEFF 		bl	Buzzer_Shot
 1403              	.L77:
 330:state_machine.c ****         }
 331:state_machine.c ****     }
 332:state_machine.c ****     if(!(button4 == 0)){    //Back
 1404              		.loc 1 332 0
 1405 00c2 124B     		ldr	r3, .L80+40
 1406 00c4 1B78     		ldrb	r3, [r3]	@ zero_extendqisi2
 1407 00c6 002B     		cmp	r3, #0
 1408 00c8 0AD0     		beq	.L75
 333:state_machine.c ****         QD_SetCounter(3);
 1409              		.loc 1 333 0
 1410 00ca 0320     		movs	r0, #3
 1411 00cc FFF7FEFF 		bl	QD_SetCounter
 334:state_machine.c ****         Current_State = Home;
 1412              		.loc 1 334 0
 1413 00d0 064B     		ldr	r3, .L80+8
 1414 00d2 0122     		movs	r2, #1
 1415 00d4 1A70     		strb	r2, [r3]
 335:state_machine.c ****         Buzzer_Shot(Push_Buzzer__Default_Lenght);
 1416              		.loc 1 335 0
 1417 00d6 0C4B     		ldr	r3, .L80+36
 1418 00d8 1B68     		ldr	r3, [r3]
 1419 00da 1846     		mov	r0, r3
 1420 00dc FFF7FEFF 		bl	Buzzer_Shot
 1421              	.L75:
 336:state_machine.c ****     }
 337:state_machine.c **** }
 1422              		.loc 1 337 0
 1423 00e0 98BD     		pop	{r3, r4, r7, pc}
 1424              	.L81:
ARM GAS  C:\Users\KJA\AppData\Local\Temp\ccAyzU2h.s 			page 32


 1425 00e2 00BF     		.align	2
 1426              	.L80:
 1427 00e4 00000000 		.word	OutputEnable
 1428 00e8 00000000 		.word	Loop_Counter
 1429 00ec 00000000 		.word	Current_State
 1430 00f0 00000000 		.word	Set_Ampl
 1431 00f4 00000000 		.word	Set_Ampl_Temporary_Value
 1432 00f8 00000000 		.word	Set_Freq
 1433 00fc 00000000 		.word	Set_Freq_Temporary_Value
 1434 0100 00000000 		.word	Set_Duty
 1435 0104 00000000 		.word	Set_Duty_Temporary_Value
 1436 0108 00000000 		.word	Push_Buzzer__Default_Lenght
 1437 010c 00000000 		.word	button4
 1438              		.cfi_endproc
 1439              	.LFE71:
 1440              		.size	State_Machine_ArbitraryMode, .-State_Machine_ArbitraryMode
 1441              		.section	.text.State_Machine_WaveForm_Mode,"ax",%progbits
 1442              		.align	2
 1443              		.global	State_Machine_WaveForm_Mode
 1444              		.thumb
 1445              		.thumb_func
 1446              		.type	State_Machine_WaveForm_Mode, %function
 1447              	State_Machine_WaveForm_Mode:
 1448              	.LFB72:
 338:state_machine.c **** 
 339:state_machine.c **** void State_Machine_WaveForm_Mode(){
 1449              		.loc 1 339 0
 1450              		.cfi_startproc
 1451              		@ args = 0, pretend = 0, frame = 0
 1452              		@ frame_needed = 1, uses_anonymous_args = 0
 1453 0000 98B5     		push	{r3, r4, r7, lr}
 1454              		.cfi_def_cfa_offset 16
 1455              		.cfi_offset 3, -16
 1456              		.cfi_offset 4, -12
 1457              		.cfi_offset 7, -8
 1458              		.cfi_offset 14, -4
 1459 0002 00AF     		add	r7, sp, #0
 1460              		.cfi_def_cfa_register 7
 340:state_machine.c ****     
 341:state_machine.c ****     // Secondary Loop Counter
 342:state_machine.c ****     Loop_Counter++;
 1461              		.loc 1 342 0
 1462 0004 184B     		ldr	r3, .L85
 1463 0006 1B68     		ldr	r3, [r3]
 1464 0008 0133     		adds	r3, r3, #1
 1465 000a 174A     		ldr	r2, .L85
 1466 000c 1360     		str	r3, [r2]
 343:state_machine.c ****     if(Loop_Counter >= 1000){
 1467              		.loc 1 343 0
 1468 000e 164B     		ldr	r3, .L85
 1469 0010 1B68     		ldr	r3, [r3]
 1470 0012 B3F57A7F 		cmp	r3, #1000
 1471 0016 0ED3     		bcc	.L83
 344:state_machine.c ****         LCD_Draw(Current_State, Get_Encoder_Menu(0,3));
 1472              		.loc 1 344 0
 1473 0018 144B     		ldr	r3, .L85+4
 1474 001a 1C78     		ldrb	r4, [r3]	@ zero_extendqisi2
ARM GAS  C:\Users\KJA\AppData\Local\Temp\ccAyzU2h.s 			page 33


 1475 001c 0020     		movs	r0, #0
 1476 001e 0321     		movs	r1, #3
 1477 0020 FFF7FEFF 		bl	Get_Encoder_Menu
 1478 0024 0346     		mov	r3, r0
 1479 0026 DBB2     		uxtb	r3, r3
 1480 0028 2046     		mov	r0, r4
 1481 002a 1946     		mov	r1, r3
 1482 002c FFF7FEFF 		bl	LCD_Draw
 345:state_machine.c ****         Loop_Counter = 0;
 1483              		.loc 1 345 0
 1484 0030 0D4B     		ldr	r3, .L85
 1485 0032 0022     		movs	r2, #0
 1486 0034 1A60     		str	r2, [r3]
 1487              	.L83:
 346:state_machine.c ****     }
 347:state_machine.c ****         
 348:state_machine.c ****     if(!(button4 == 0)){    //Back
 1488              		.loc 1 348 0
 1489 0036 0E4B     		ldr	r3, .L85+8
 1490 0038 1B78     		ldrb	r3, [r3]	@ zero_extendqisi2
 1491 003a 002B     		cmp	r3, #0
 1492 003c 13D0     		beq	.L82
 349:state_machine.c ****         QD_SetCounter(3);
 1493              		.loc 1 349 0
 1494 003e 0320     		movs	r0, #3
 1495 0040 FFF7FEFF 		bl	QD_SetCounter
 350:state_machine.c ****         DAC_MUX_Select(0);   // GND
 1496              		.loc 1 350 0
 1497 0044 0020     		movs	r0, #0
 1498 0046 FFF7FEFF 		bl	DAC_MUX_Select
 351:state_machine.c ****         OutputEnable = 0;
 1499              		.loc 1 351 0
 1500 004a 0A4B     		ldr	r3, .L85+12
 1501 004c 0022     		movs	r2, #0
 1502 004e 1A70     		strb	r2, [r3]
 352:state_machine.c ****         RELAY_Write(0);
 1503              		.loc 1 352 0
 1504 0050 0020     		movs	r0, #0
 1505 0052 FFF7FEFF 		bl	RELAY_Write
 353:state_machine.c ****         Current_State = ArbitraryMode;
 1506              		.loc 1 353 0
 1507 0056 054B     		ldr	r3, .L85+4
 1508 0058 0322     		movs	r2, #3
 1509 005a 1A70     		strb	r2, [r3]
 354:state_machine.c ****         Buzzer_Shot(Push_Buzzer__Default_Lenght);
 1510              		.loc 1 354 0
 1511 005c 064B     		ldr	r3, .L85+16
 1512 005e 1B68     		ldr	r3, [r3]
 1513 0060 1846     		mov	r0, r3
 1514 0062 FFF7FEFF 		bl	Buzzer_Shot
 1515              	.L82:
 355:state_machine.c ****     }
 356:state_machine.c ****     
 357:state_machine.c **** }
 1516              		.loc 1 357 0
 1517 0066 98BD     		pop	{r3, r4, r7, pc}
 1518              	.L86:
ARM GAS  C:\Users\KJA\AppData\Local\Temp\ccAyzU2h.s 			page 34


 1519              		.align	2
 1520              	.L85:
 1521 0068 00000000 		.word	Loop_Counter
 1522 006c 00000000 		.word	Current_State
 1523 0070 00000000 		.word	button4
 1524 0074 00000000 		.word	OutputEnable
 1525 0078 00000000 		.word	Push_Buzzer__Default_Lenght
 1526              		.cfi_endproc
 1527              	.LFE72:
 1528              		.size	State_Machine_WaveForm_Mode, .-State_Machine_WaveForm_Mode
 1529              		.section	.rodata
 1530 0006 0000     		.align	2
 1531              	.LC1:
 1532 0008 2564206D 		.ascii	"%d mA\000"
 1532      4100
 1533 000e 0000     		.align	2
 1534              	.LC2:
 1535 0010 25642048 		.ascii	"%d Hz\000"
 1535      7A00
 1536 0016 0000     		.align	2
 1537              	.LC3:
 1538 0018 25642025 		.ascii	"%d %%\000"
 1538      2500
 1539              		.global	__aeabi_i2f
 1540              		.global	__aeabi_fcmpgt
 1541              		.global	__aeabi_f2iz
 1542              		.section	.text.State_Machine_PWM_Mode,"ax",%progbits
 1543              		.align	2
 1544              		.global	State_Machine_PWM_Mode
 1545              		.thumb
 1546              		.thumb_func
 1547              		.type	State_Machine_PWM_Mode, %function
 1548              	State_Machine_PWM_Mode:
 1549              	.LFB73:
 358:state_machine.c **** 
 359:state_machine.c **** 
 360:state_machine.c **** 
 361:state_machine.c **** void State_Machine_PWM_Mode(){
 1550              		.loc 1 361 0
 1551              		.cfi_startproc
 1552              		@ args = 0, pretend = 0, frame = 8
 1553              		@ frame_needed = 1, uses_anonymous_args = 0
 1554 0000 90B5     		push	{r4, r7, lr}
 1555              		.cfi_def_cfa_offset 12
 1556              		.cfi_offset 4, -12
 1557              		.cfi_offset 7, -8
 1558              		.cfi_offset 14, -4
 1559 0002 83B0     		sub	sp, sp, #12
 1560              		.cfi_def_cfa_offset 24
 1561 0004 00AF     		add	r7, sp, #0
 1562              		.cfi_def_cfa_register 7
 362:state_machine.c ****     
 363:state_machine.c ****     float MaxSetValue;
 364:state_machine.c ****     
 365:state_machine.c ****     LEM_A_Write(0);     //160 Ohm - Range 2
 1563              		.loc 1 365 0
 1564 0006 0020     		movs	r0, #0
ARM GAS  C:\Users\KJA\AppData\Local\Temp\ccAyzU2h.s 			page 35


 1565 0008 FFF7FEFF 		bl	LEM_A_Write
 366:state_machine.c ****     LEM_B_Write(0);   //60 Ohm - Range 3
 1566              		.loc 1 366 0
 1567 000c 0020     		movs	r0, #0
 1568 000e FFF7FEFF 		bl	LEM_B_Write
 367:state_machine.c ****     CAP_EN_Write(1);    // Enable 10nF Cap
 1569              		.loc 1 367 0
 1570 0012 0120     		movs	r0, #1
 1571 0014 FFF7FEFF 		bl	CAP_EN_Write
 368:state_machine.c **** 
 369:state_machine.c ****     
 370:state_machine.c ****     // Secondary Loop Counter
 371:state_machine.c ****     Loop_Counter++;
 1572              		.loc 1 371 0
 1573 0018 A94B     		ldr	r3, .L160
 1574 001a 1B68     		ldr	r3, [r3]
 1575 001c 0133     		adds	r3, r3, #1
 1576 001e A84A     		ldr	r2, .L160
 1577 0020 1360     		str	r3, [r2]
 372:state_machine.c ****     
 373:state_machine.c ****     // Output Enable Case
 374:state_machine.c ****     if(OutputEnable == 1){
 1578              		.loc 1 374 0
 1579 0022 A84B     		ldr	r3, .L160+4
 1580 0024 1B78     		ldrb	r3, [r3]	@ zero_extendqisi2
 1581 0026 012B     		cmp	r3, #1
 1582 0028 5BD1     		bne	.L88
 375:state_machine.c ****         
 376:state_machine.c ****         if(!(Input_Reg_Read())){
 1583              		.loc 1 376 0
 1584 002a FFF7FEFF 		bl	Input_Reg_Read
 1585 002e 0346     		mov	r3, r0
 1586 0030 002B     		cmp	r3, #0
 1587 0032 0DD1     		bne	.L89
 377:state_machine.c ****             OutputEnable = 0;
 1588              		.loc 1 377 0
 1589 0034 A34B     		ldr	r3, .L160+4
 1590 0036 0022     		movs	r2, #0
 1591 0038 1A70     		strb	r2, [r3]
 378:state_machine.c ****             Previous_State = Current_State;
 1592              		.loc 1 378 0
 1593 003a A34B     		ldr	r3, .L160+8
 1594 003c 1A78     		ldrb	r2, [r3]	@ zero_extendqisi2
 1595 003e A34B     		ldr	r3, .L160+12
 1596 0040 1A70     		strb	r2, [r3]
 379:state_machine.c ****             Current_State = Error_OC;
 1597              		.loc 1 379 0
 1598 0042 A14B     		ldr	r3, .L160+8
 1599 0044 0F22     		movs	r2, #15
 1600 0046 1A70     		strb	r2, [r3]
 380:state_machine.c ****             Buzzer_Shot(500000);
 1601              		.loc 1 380 0
 1602 0048 A148     		ldr	r0, .L160+16
 1603 004a FFF7FEFF 		bl	Buzzer_Shot
 1604 004e 48E0     		b	.L88
 1605              	.L89:
 381:state_machine.c ****         }
ARM GAS  C:\Users\KJA\AppData\Local\Temp\ccAyzU2h.s 			page 36


 382:state_machine.c ****         else if(OverTemperature == 1){
 1606              		.loc 1 382 0
 1607 0050 A04B     		ldr	r3, .L160+20
 1608 0052 1B78     		ldrb	r3, [r3]	@ zero_extendqisi2
 1609 0054 012B     		cmp	r3, #1
 1610 0056 19D1     		bne	.L90
 383:state_machine.c **** 
 384:state_machine.c ****             DACValue = 0;
 1611              		.loc 1 384 0
 1612 0058 9F4B     		ldr	r3, .L160+24
 1613 005a 0022     		movs	r2, #0
 1614 005c 1A80     		strh	r2, [r3]	@ movhi
 385:state_machine.c ****             DVDAC8_1_SetValue(0); 
 1615              		.loc 1 385 0
 1616 005e 0020     		movs	r0, #0
 1617 0060 FFF7FEFF 		bl	DVDAC8_1_SetValue
 386:state_machine.c ****             DAC_MUX_Select(0);     
 1618              		.loc 1 386 0
 1619 0064 0020     		movs	r0, #0
 1620 0066 FFF7FEFF 		bl	DAC_MUX_Select
 387:state_machine.c ****             
 388:state_machine.c ****             // Disable Relay
 389:state_machine.c ****             RELAY_Write(0);
 1621              		.loc 1 389 0
 1622 006a 0020     		movs	r0, #0
 1623 006c FFF7FEFF 		bl	RELAY_Write
 390:state_machine.c ****             
 391:state_machine.c ****             Buzzer_Shot(500000);
 1624              		.loc 1 391 0
 1625 0070 9748     		ldr	r0, .L160+16
 1626 0072 FFF7FEFF 		bl	Buzzer_Shot
 392:state_machine.c ****             
 393:state_machine.c ****             OutputEnable = 0;
 1627              		.loc 1 393 0
 1628 0076 934B     		ldr	r3, .L160+4
 1629 0078 0022     		movs	r2, #0
 1630 007a 1A70     		strb	r2, [r3]
 394:state_machine.c ****             Previous_State = Current_State;
 1631              		.loc 1 394 0
 1632 007c 924B     		ldr	r3, .L160+8
 1633 007e 1A78     		ldrb	r2, [r3]	@ zero_extendqisi2
 1634 0080 924B     		ldr	r3, .L160+12
 1635 0082 1A70     		strb	r2, [r3]
 395:state_machine.c ****             Current_State = Error_OT;   
 1636              		.loc 1 395 0
 1637 0084 904B     		ldr	r3, .L160+8
 1638 0086 0E22     		movs	r2, #14
 1639 0088 1A70     		strb	r2, [r3]
 1640 008a 2AE0     		b	.L88
 1641              	.L90:
 1642              	.LBB2:
 396:state_machine.c ****         } 
 397:state_machine.c ****         else{       
 398:state_machine.c ****             // Enable Relay if Input is OK
 399:state_machine.c ****             RELAY_Write(1);
 1643              		.loc 1 399 0
 1644 008c 0120     		movs	r0, #1
ARM GAS  C:\Users\KJA\AppData\Local\Temp\ccAyzU2h.s 			page 37


 1645 008e FFF7FEFF 		bl	RELAY_Write
 400:state_machine.c ****             
 401:state_machine.c ****             
 402:state_machine.c ****             DVDAC8_1_SetValue(Set_Ampl);
 1646              		.loc 1 402 0
 1647 0092 924B     		ldr	r3, .L160+28
 1648 0094 1B88     		ldrh	r3, [r3]
 1649 0096 9BB2     		uxth	r3, r3
 1650 0098 1846     		mov	r0, r3
 1651 009a FFF7FEFF 		bl	DVDAC8_1_SetValue
 403:state_machine.c ****             
 404:state_machine.c ****             DAC_MUX_Select(2);      // ConstantDAC
 1652              		.loc 1 404 0
 1653 009e 0220     		movs	r0, #2
 1654 00a0 FFF7FEFF 		bl	DAC_MUX_Select
 405:state_machine.c ****             PWM_Driver_Start();     //Start PWM
 1655              		.loc 1 405 0
 1656 00a4 FFF7FEFF 		bl	PWM_Driver_Start
 406:state_machine.c ****             
 407:state_machine.c ****             PWM_Driver_WritePeriod(Set_Freq);
 1657              		.loc 1 407 0
 1658 00a8 8D4B     		ldr	r3, .L160+32
 1659 00aa 1B88     		ldrh	r3, [r3]
 1660 00ac 1846     		mov	r0, r3
 1661 00ae FFF7FEFF 		bl	PWM_Driver_WritePeriod
 408:state_machine.c ****                         
 409:state_machine.c ****             uint16 Actual_Period;
 410:state_machine.c ****             Actual_Period = PWM_Driver_ReadPeriod();
 1662              		.loc 1 410 0
 1663 00b2 FFF7FEFF 		bl	PWM_Driver_ReadPeriod
 1664 00b6 0346     		mov	r3, r0
 1665 00b8 FB80     		strh	r3, [r7, #6]	@ movhi
 411:state_machine.c ****             
 412:state_machine.c ****             uint16 Duty_to_Set;
 413:state_machine.c ****             Duty_to_Set = Actual_Period-(Set_Duty*Actual_Period/100);
 1666              		.loc 1 413 0
 1667 00ba 8A4B     		ldr	r3, .L160+36
 1668 00bc 1B78     		ldrb	r3, [r3]	@ zero_extendqisi2
 1669 00be 5BB2     		sxtb	r3, r3
 1670 00c0 FA88     		ldrh	r2, [r7, #6]
 1671 00c2 02FB03F3 		mul	r3, r2, r3
 1672 00c6 884A     		ldr	r2, .L160+40
 1673 00c8 82FB0312 		smull	r1, r2, r2, r3
 1674 00cc 5211     		asrs	r2, r2, #5
 1675 00ce DB17     		asrs	r3, r3, #31
 1676 00d0 D31A     		subs	r3, r2, r3
 1677 00d2 9BB2     		uxth	r3, r3
 1678 00d4 FA88     		ldrh	r2, [r7, #6]	@ movhi
 1679 00d6 D31A     		subs	r3, r2, r3
 1680 00d8 BB80     		strh	r3, [r7, #4]	@ movhi
 414:state_machine.c ****             PWM_Driver_WriteCompare(Duty_to_Set);
 1681              		.loc 1 414 0
 1682 00da BB88     		ldrh	r3, [r7, #4]
 1683 00dc 1846     		mov	r0, r3
 1684 00de FFF7FEFF 		bl	PWM_Driver_WriteCompare
 1685              	.L88:
 1686              	.LBE2:
ARM GAS  C:\Users\KJA\AppData\Local\Temp\ccAyzU2h.s 			page 38


 415:state_machine.c ****             
 416:state_machine.c **** 
 417:state_machine.c ****         }
 418:state_machine.c ****     }
 419:state_machine.c ****     
 420:state_machine.c ****     // Output Disable Case
 421:state_machine.c ****     if(OutputEnable == 0){
 1687              		.loc 1 421 0
 1688 00e2 784B     		ldr	r3, .L160+4
 1689 00e4 1B78     		ldrb	r3, [r3]	@ zero_extendqisi2
 1690 00e6 002B     		cmp	r3, #0
 1691 00e8 0DD1     		bne	.L91
 422:state_machine.c ****         
 423:state_machine.c ****         DACValue = 0;
 1692              		.loc 1 423 0
 1693 00ea 7B4B     		ldr	r3, .L160+24
 1694 00ec 0022     		movs	r2, #0
 1695 00ee 1A80     		strh	r2, [r3]	@ movhi
 424:state_machine.c ****         DVDAC8_1_SetValue(0); 
 1696              		.loc 1 424 0
 1697 00f0 0020     		movs	r0, #0
 1698 00f2 FFF7FEFF 		bl	DVDAC8_1_SetValue
 425:state_machine.c ****         DAC_MUX_Select(0);
 1699              		.loc 1 425 0
 1700 00f6 0020     		movs	r0, #0
 1701 00f8 FFF7FEFF 		bl	DAC_MUX_Select
 426:state_machine.c ****         PWM_Driver_Stop();
 1702              		.loc 1 426 0
 1703 00fc FFF7FEFF 		bl	PWM_Driver_Stop
 427:state_machine.c ****         
 428:state_machine.c ****         // Disable Relay
 429:state_machine.c ****         RELAY_Write(0);
 1704              		.loc 1 429 0
 1705 0100 0020     		movs	r0, #0
 1706 0102 FFF7FEFF 		bl	RELAY_Write
 1707              	.L91:
 430:state_machine.c ****     }
 431:state_machine.c ****     
 432:state_machine.c ****         
 433:state_machine.c ****     if(Edit_Value_Mode == 0){
 1708              		.loc 1 433 0
 1709 0106 794B     		ldr	r3, .L160+44
 1710 0108 1B78     		ldrb	r3, [r3]	@ zero_extendqisi2
 1711 010a 002B     		cmp	r3, #0
 1712 010c 40F08580 		bne	.L92
 434:state_machine.c ****         
 435:state_machine.c ****     if(Loop_Counter >= 1000){
 1713              		.loc 1 435 0
 1714 0110 6B4B     		ldr	r3, .L160
 1715 0112 1B68     		ldr	r3, [r3]
 1716 0114 B3F57A7F 		cmp	r3, #1000
 1717 0118 25D3     		bcc	.L93
 436:state_machine.c ****         sprintf((char *)cSet_Ampl,"%d mA",Set_Ampl);
 1718              		.loc 1 436 0
 1719 011a 704B     		ldr	r3, .L160+28
 1720 011c 1B88     		ldrh	r3, [r3]
 1721 011e 1BB2     		sxth	r3, r3
ARM GAS  C:\Users\KJA\AppData\Local\Temp\ccAyzU2h.s 			page 39


 1722 0120 7348     		ldr	r0, .L160+48
 1723 0122 7449     		ldr	r1, .L160+52
 1724 0124 1A46     		mov	r2, r3
 1725 0126 FFF7FEFF 		bl	sprintf
 437:state_machine.c ****         sprintf((char *)cSet_Freq,"%d Hz",Set_Freq);
 1726              		.loc 1 437 0
 1727 012a 6D4B     		ldr	r3, .L160+32
 1728 012c 1B88     		ldrh	r3, [r3]
 1729 012e 7248     		ldr	r0, .L160+56
 1730 0130 7249     		ldr	r1, .L160+60
 1731 0132 1A46     		mov	r2, r3
 1732 0134 FFF7FEFF 		bl	sprintf
 438:state_machine.c ****         sprintf((char *)cSet_Duty,"%d %%",Set_Duty);
 1733              		.loc 1 438 0
 1734 0138 6A4B     		ldr	r3, .L160+36
 1735 013a 1B78     		ldrb	r3, [r3]	@ zero_extendqisi2
 1736 013c 5BB2     		sxtb	r3, r3
 1737 013e 7048     		ldr	r0, .L160+64
 1738 0140 7049     		ldr	r1, .L160+68
 1739 0142 1A46     		mov	r2, r3
 1740 0144 FFF7FEFF 		bl	sprintf
 439:state_machine.c ****         
 440:state_machine.c ****         LCD_Draw(Current_State, Get_Encoder_Menu(0,2));
 1741              		.loc 1 440 0
 1742 0148 5F4B     		ldr	r3, .L160+8
 1743 014a 1C78     		ldrb	r4, [r3]	@ zero_extendqisi2
 1744 014c 0020     		movs	r0, #0
 1745 014e 0221     		movs	r1, #2
 1746 0150 FFF7FEFF 		bl	Get_Encoder_Menu
 1747 0154 0346     		mov	r3, r0
 1748 0156 DBB2     		uxtb	r3, r3
 1749 0158 2046     		mov	r0, r4
 1750 015a 1946     		mov	r1, r3
 1751 015c FFF7FEFF 		bl	LCD_Draw
 441:state_machine.c ****         
 442:state_machine.c ****         Loop_Counter = 0;
 1752              		.loc 1 442 0
 1753 0160 574B     		ldr	r3, .L160
 1754 0162 0022     		movs	r2, #0
 1755 0164 1A60     		str	r2, [r3]
 1756              	.L93:
 443:state_machine.c ****     }
 444:state_machine.c **** 
 445:state_machine.c ****         if(!(Push_Reg_Read() == 0)){
 1757              		.loc 1 445 0
 1758 0166 FFF7FEFF 		bl	Push_Reg_Read
 1759 016a 0346     		mov	r3, r0
 1760 016c 002B     		cmp	r3, #0
 1761 016e 54D0     		beq	.L92
 446:state_machine.c ****             Edit_Value_Mode = 1;
 1762              		.loc 1 446 0
 1763 0170 5E4B     		ldr	r3, .L160+44
 1764 0172 0122     		movs	r2, #1
 1765 0174 1A70     		strb	r2, [r3]
 447:state_machine.c ****             if(Get_Encoder_Menu(0,3) == 2){
 1766              		.loc 1 447 0
 1767 0176 0020     		movs	r0, #0
ARM GAS  C:\Users\KJA\AppData\Local\Temp\ccAyzU2h.s 			page 40


 1768 0178 0321     		movs	r1, #3
 1769 017a FFF7FEFF 		bl	Get_Encoder_Menu
 1770 017e 0346     		mov	r3, r0
 1771 0180 022B     		cmp	r3, #2
 1772 0182 11D1     		bne	.L94
 448:state_machine.c ****                 Current_Edit_Value = 2; //Amp
 1773              		.loc 1 448 0
 1774 0184 604B     		ldr	r3, .L160+72
 1775 0186 0222     		movs	r2, #2
 1776 0188 1A70     		strb	r2, [r3]
 449:state_machine.c ****                 QD_SetCounter(Set_Ampl);
 1777              		.loc 1 449 0
 1778 018a 544B     		ldr	r3, .L160+28
 1779 018c 1B88     		ldrh	r3, [r3]
 1780 018e 1BB2     		sxth	r3, r3
 1781 0190 1846     		mov	r0, r3
 1782 0192 FFF7FEFF 		bl	QD_SetCounter
 450:state_machine.c ****                 Last_Counter = Set_Ampl;
 1783              		.loc 1 450 0
 1784 0196 514B     		ldr	r3, .L160+28
 1785 0198 1B88     		ldrh	r3, [r3]
 1786 019a 1BB2     		sxth	r3, r3
 1787 019c 5B4A     		ldr	r2, .L160+76
 1788 019e 1360     		str	r3, [r2]
 451:state_machine.c ****                 Position_Number = 1;
 1789              		.loc 1 451 0
 1790 01a0 5B4B     		ldr	r3, .L160+80
 1791 01a2 0122     		movs	r2, #1
 1792 01a4 1A70     		strb	r2, [r3]
 1793 01a6 33E0     		b	.L95
 1794              	.L94:
 452:state_machine.c ****                 
 453:state_machine.c ****             }
 454:state_machine.c ****             else if(Get_Encoder_Menu(0,3) == 1){
 1795              		.loc 1 454 0
 1796 01a8 0020     		movs	r0, #0
 1797 01aa 0321     		movs	r1, #3
 1798 01ac FFF7FEFF 		bl	Get_Encoder_Menu
 1799 01b0 0346     		mov	r3, r0
 1800 01b2 012B     		cmp	r3, #1
 1801 01b4 12D1     		bne	.L96
 455:state_machine.c ****                 Current_Edit_Value = 1; //Freq
 1802              		.loc 1 455 0
 1803 01b6 544B     		ldr	r3, .L160+72
 1804 01b8 0122     		movs	r2, #1
 1805 01ba 1A70     		strb	r2, [r3]
 456:state_machine.c ****                 QD_SetCounter(Set_Freq);
 1806              		.loc 1 456 0
 1807 01bc 484B     		ldr	r3, .L160+32
 1808 01be 1B88     		ldrh	r3, [r3]
 1809 01c0 9BB2     		uxth	r3, r3
 1810 01c2 1BB2     		sxth	r3, r3
 1811 01c4 1846     		mov	r0, r3
 1812 01c6 FFF7FEFF 		bl	QD_SetCounter
 457:state_machine.c ****                 Last_Counter = Set_Freq;
 1813              		.loc 1 457 0
 1814 01ca 454B     		ldr	r3, .L160+32
ARM GAS  C:\Users\KJA\AppData\Local\Temp\ccAyzU2h.s 			page 41


 1815 01cc 1B88     		ldrh	r3, [r3]
 1816 01ce 1A46     		mov	r2, r3
 1817 01d0 4E4B     		ldr	r3, .L160+76
 1818 01d2 1A60     		str	r2, [r3]
 458:state_machine.c ****                 Position_Number = 1;
 1819              		.loc 1 458 0
 1820 01d4 4E4B     		ldr	r3, .L160+80
 1821 01d6 0122     		movs	r2, #1
 1822 01d8 1A70     		strb	r2, [r3]
 1823 01da 19E0     		b	.L95
 1824              	.L96:
 459:state_machine.c ****             }
 460:state_machine.c ****             else if(Get_Encoder_Menu(0,3) == 0){   
 1825              		.loc 1 460 0
 1826 01dc 0020     		movs	r0, #0
 1827 01de 0321     		movs	r1, #3
 1828 01e0 FFF7FEFF 		bl	Get_Encoder_Menu
 1829 01e4 0346     		mov	r3, r0
 1830 01e6 002B     		cmp	r3, #0
 1831 01e8 12D1     		bne	.L95
 461:state_machine.c ****                 Current_Edit_Value = 0; //Duty
 1832              		.loc 1 461 0
 1833 01ea 474B     		ldr	r3, .L160+72
 1834 01ec 0022     		movs	r2, #0
 1835 01ee 1A70     		strb	r2, [r3]
 462:state_machine.c ****                 QD_SetCounter(Set_Duty);
 1836              		.loc 1 462 0
 1837 01f0 3C4B     		ldr	r3, .L160+36
 1838 01f2 1B78     		ldrb	r3, [r3]	@ zero_extendqisi2
 1839 01f4 5BB2     		sxtb	r3, r3
 1840 01f6 9BB2     		uxth	r3, r3
 1841 01f8 1BB2     		sxth	r3, r3
 1842 01fa 1846     		mov	r0, r3
 1843 01fc FFF7FEFF 		bl	QD_SetCounter
 463:state_machine.c ****                 Last_Counter = Set_Duty;
 1844              		.loc 1 463 0
 1845 0200 384B     		ldr	r3, .L160+36
 1846 0202 1B78     		ldrb	r3, [r3]	@ zero_extendqisi2
 1847 0204 5BB2     		sxtb	r3, r3
 1848 0206 414A     		ldr	r2, .L160+76
 1849 0208 1360     		str	r3, [r2]
 464:state_machine.c ****                 Position_Number = 1;
 1850              		.loc 1 464 0
 1851 020a 414B     		ldr	r3, .L160+80
 1852 020c 0122     		movs	r2, #1
 1853 020e 1A70     		strb	r2, [r3]
 1854              	.L95:
 465:state_machine.c ****             } 
 466:state_machine.c ****             Buzzer_Shot(Push_Buzzer__Default_Lenght);
 1855              		.loc 1 466 0
 1856 0210 404B     		ldr	r3, .L160+84
 1857 0212 1B68     		ldr	r3, [r3]
 1858 0214 1846     		mov	r0, r3
 1859 0216 FFF7FEFF 		bl	Buzzer_Shot
 1860              	.L92:
 467:state_machine.c ****         }   
 468:state_machine.c ****  }
ARM GAS  C:\Users\KJA\AppData\Local\Temp\ccAyzU2h.s 			page 42


 469:state_machine.c ****     
 470:state_machine.c ****     if(Edit_Value_Mode == 1){
 1861              		.loc 1 470 0
 1862 021a 344B     		ldr	r3, .L160+44
 1863 021c 1B78     		ldrb	r3, [r3]	@ zero_extendqisi2
 1864 021e 012B     		cmp	r3, #1
 1865 0220 40F09783 		bne	.L97
 471:state_machine.c ****         
 472:state_machine.c ****         if(Loop_Counter >= 1000){
 1866              		.loc 1 472 0
 1867 0224 264B     		ldr	r3, .L160
 1868 0226 1B68     		ldr	r3, [r3]
 1869 0228 B3F57A7F 		cmp	r3, #1000
 1870 022c 21D3     		bcc	.L98
 473:state_machine.c ****             sprintf((char *)cSet_Ampl,"%d mA",Set_Ampl);
 1871              		.loc 1 473 0
 1872 022e 2B4B     		ldr	r3, .L160+28
 1873 0230 1B88     		ldrh	r3, [r3]
 1874 0232 1BB2     		sxth	r3, r3
 1875 0234 2E48     		ldr	r0, .L160+48
 1876 0236 2F49     		ldr	r1, .L160+52
 1877 0238 1A46     		mov	r2, r3
 1878 023a FFF7FEFF 		bl	sprintf
 474:state_machine.c ****             sprintf((char *)cSet_Freq,"%d Hz",Set_Freq);
 1879              		.loc 1 474 0
 1880 023e 284B     		ldr	r3, .L160+32
 1881 0240 1B88     		ldrh	r3, [r3]
 1882 0242 2D48     		ldr	r0, .L160+56
 1883 0244 2D49     		ldr	r1, .L160+60
 1884 0246 1A46     		mov	r2, r3
 1885 0248 FFF7FEFF 		bl	sprintf
 475:state_machine.c ****             sprintf((char *)cSet_Duty,"%d %%",Set_Duty);
 1886              		.loc 1 475 0
 1887 024c 254B     		ldr	r3, .L160+36
 1888 024e 1B78     		ldrb	r3, [r3]	@ zero_extendqisi2
 1889 0250 5BB2     		sxtb	r3, r3
 1890 0252 2B48     		ldr	r0, .L160+64
 1891 0254 2B49     		ldr	r1, .L160+68
 1892 0256 1A46     		mov	r2, r3
 1893 0258 FFF7FEFF 		bl	sprintf
 476:state_machine.c ****             LCD_Draw(Current_State, Current_Edit_Value);
 1894              		.loc 1 476 0
 1895 025c 1A4B     		ldr	r3, .L160+8
 1896 025e 1A78     		ldrb	r2, [r3]	@ zero_extendqisi2
 1897 0260 294B     		ldr	r3, .L160+72
 1898 0262 1B78     		ldrb	r3, [r3]	@ zero_extendqisi2
 1899 0264 1046     		mov	r0, r2
 1900 0266 1946     		mov	r1, r3
 1901 0268 FFF7FEFF 		bl	LCD_Draw
 477:state_machine.c ****             Loop_Counter = 0;
 1902              		.loc 1 477 0
 1903 026c 144B     		ldr	r3, .L160
 1904 026e 0022     		movs	r2, #0
 1905 0270 1A60     		str	r2, [r3]
 1906              	.L98:
 478:state_machine.c ****         }
 479:state_machine.c **** 
ARM GAS  C:\Users\KJA\AppData\Local\Temp\ccAyzU2h.s 			page 43


 480:state_machine.c ****                                
 481:state_machine.c ****         if(!(button6 == 0)){    // Shift Right Button
 1907              		.loc 1 481 0
 1908 0272 294B     		ldr	r3, .L160+88
 1909 0274 1B78     		ldrb	r3, [r3]	@ zero_extendqisi2
 1910 0276 002B     		cmp	r3, #0
 1911 0278 61D0     		beq	.L99
 482:state_machine.c ****             Position_Number++;
 1912              		.loc 1 482 0
 1913 027a 254B     		ldr	r3, .L160+80
 1914 027c 1B78     		ldrb	r3, [r3]	@ zero_extendqisi2
 1915 027e DBB2     		uxtb	r3, r3
 1916 0280 DBB2     		uxtb	r3, r3
 1917 0282 0133     		adds	r3, r3, #1
 1918 0284 DBB2     		uxtb	r3, r3
 1919 0286 DAB2     		uxtb	r2, r3
 1920 0288 214B     		ldr	r3, .L160+80
 1921 028a 1A70     		strb	r2, [r3]
 483:state_machine.c ****             if(Current_Edit_Value == 2){        //Ampl
 1922              		.loc 1 483 0
 1923 028c 1E4B     		ldr	r3, .L160+72
 1924 028e 1B78     		ldrb	r3, [r3]	@ zero_extendqisi2
 1925 0290 022B     		cmp	r3, #2
 1926 0292 08D1     		bne	.L100
 484:state_machine.c ****                 if(Position_Number >2) Position_Number = 3;
 1927              		.loc 1 484 0
 1928 0294 1E4B     		ldr	r3, .L160+80
 1929 0296 1B78     		ldrb	r3, [r3]	@ zero_extendqisi2
 1930 0298 5BB2     		sxtb	r3, r3
 1931 029a 022B     		cmp	r3, #2
 1932 029c 4ADD     		ble	.L102
 1933              		.loc 1 484 0 is_stmt 0 discriminator 1
 1934 029e 1C4B     		ldr	r3, .L160+80
 1935 02a0 0322     		movs	r2, #3
 1936 02a2 1A70     		strb	r2, [r3]
 1937 02a4 46E0     		b	.L102
 1938              	.L100:
 485:state_machine.c ****             }
 486:state_machine.c ****             else if(Current_Edit_Value == 1){    //Freq
 1939              		.loc 1 486 0 is_stmt 1
 1940 02a6 184B     		ldr	r3, .L160+72
 1941 02a8 1B78     		ldrb	r3, [r3]	@ zero_extendqisi2
 1942 02aa 012B     		cmp	r3, #1
 1943 02ac 36D1     		bne	.L103
 487:state_machine.c ****                 if(Position_Number >3) Position_Number = 4;
 1944              		.loc 1 487 0
 1945 02ae 184B     		ldr	r3, .L160+80
 1946 02b0 1B78     		ldrb	r3, [r3]	@ zero_extendqisi2
 1947 02b2 5BB2     		sxtb	r3, r3
 1948 02b4 032B     		cmp	r3, #3
 1949 02b6 3DDD     		ble	.L102
 1950              		.loc 1 487 0 is_stmt 0 discriminator 1
 1951 02b8 154B     		ldr	r3, .L160+80
 1952 02ba 0422     		movs	r2, #4
 1953 02bc 1A70     		strb	r2, [r3]
 1954 02be 39E0     		b	.L102
 1955              	.L161:
ARM GAS  C:\Users\KJA\AppData\Local\Temp\ccAyzU2h.s 			page 44


 1956              		.align	2
 1957              	.L160:
 1958 02c0 00000000 		.word	Loop_Counter
 1959 02c4 00000000 		.word	OutputEnable
 1960 02c8 00000000 		.word	Current_State
 1961 02cc 00000000 		.word	Previous_State
 1962 02d0 20A10700 		.word	500000
 1963 02d4 00000000 		.word	OverTemperature
 1964 02d8 00000000 		.word	DACValue
 1965 02dc 00000000 		.word	Set_Ampl
 1966 02e0 00000000 		.word	Set_Freq
 1967 02e4 00000000 		.word	Set_Duty
 1968 02e8 1F85EB51 		.word	1374389535
 1969 02ec 00000000 		.word	Edit_Value_Mode
 1970 02f0 00000000 		.word	cSet_Ampl
 1971 02f4 08000000 		.word	.LC1
 1972 02f8 00000000 		.word	cSet_Freq
 1973 02fc 10000000 		.word	.LC2
 1974 0300 00000000 		.word	cSet_Duty
 1975 0304 18000000 		.word	.LC3
 1976 0308 00000000 		.word	Current_Edit_Value
 1977 030c 00000000 		.word	Last_Counter
 1978 0310 00000000 		.word	Position_Number
 1979 0314 00000000 		.word	Push_Buzzer__Default_Lenght
 1980 0318 00000000 		.word	button6
 1981              	.L103:
 488:state_machine.c ****             }
 489:state_machine.c ****             else if(Current_Edit_Value == 0){    //Duty
 1982              		.loc 1 489 0 is_stmt 1
 1983 031c 654B     		ldr	r3, .L162
 1984 031e 1B78     		ldrb	r3, [r3]	@ zero_extendqisi2
 1985 0320 002B     		cmp	r3, #0
 1986 0322 07D1     		bne	.L102
 490:state_machine.c ****                 if(Position_Number >1) Position_Number = 1;
 1987              		.loc 1 490 0
 1988 0324 644B     		ldr	r3, .L162+4
 1989 0326 1B78     		ldrb	r3, [r3]	@ zero_extendqisi2
 1990 0328 5BB2     		sxtb	r3, r3
 1991 032a 012B     		cmp	r3, #1
 1992 032c 02DD     		ble	.L102
 1993              		.loc 1 490 0 is_stmt 0 discriminator 1
 1994 032e 624B     		ldr	r3, .L162+4
 1995 0330 0122     		movs	r2, #1
 1996 0332 1A70     		strb	r2, [r3]
 1997              	.L102:
 491:state_machine.c ****             }
 492:state_machine.c ****             Buzzer_Shot(Push_Buzzer__Default_Lenght);
 1998              		.loc 1 492 0 is_stmt 1
 1999 0334 614B     		ldr	r3, .L162+8
 2000 0336 1B68     		ldr	r3, [r3]
 2001 0338 1846     		mov	r0, r3
 2002 033a FFF7FEFF 		bl	Buzzer_Shot
 2003              	.L99:
 493:state_machine.c ****         }
 494:state_machine.c ****         
 495:state_machine.c ****         if(!(button5 == 0)){    // Shift Left Button
 2004              		.loc 1 495 0
ARM GAS  C:\Users\KJA\AppData\Local\Temp\ccAyzU2h.s 			page 45


 2005 033e 604B     		ldr	r3, .L162+12
 2006 0340 1B78     		ldrb	r3, [r3]	@ zero_extendqisi2
 2007 0342 002B     		cmp	r3, #0
 2008 0344 15D0     		beq	.L105
 496:state_machine.c ****             Position_Number--;
 2009              		.loc 1 496 0
 2010 0346 5C4B     		ldr	r3, .L162+4
 2011 0348 1B78     		ldrb	r3, [r3]	@ zero_extendqisi2
 2012 034a DBB2     		uxtb	r3, r3
 2013 034c DBB2     		uxtb	r3, r3
 2014 034e 013B     		subs	r3, r3, #1
 2015 0350 DBB2     		uxtb	r3, r3
 2016 0352 DAB2     		uxtb	r2, r3
 2017 0354 584B     		ldr	r3, .L162+4
 2018 0356 1A70     		strb	r2, [r3]
 497:state_machine.c ****             if(Position_Number <0) Position_Number = 0;
 2019              		.loc 1 497 0
 2020 0358 574B     		ldr	r3, .L162+4
 2021 035a 1B78     		ldrb	r3, [r3]	@ zero_extendqisi2
 2022 035c 5BB2     		sxtb	r3, r3
 2023 035e 002B     		cmp	r3, #0
 2024 0360 02DA     		bge	.L106
 2025              		.loc 1 497 0 is_stmt 0 discriminator 1
 2026 0362 554B     		ldr	r3, .L162+4
 2027 0364 0022     		movs	r2, #0
 2028 0366 1A70     		strb	r2, [r3]
 2029              	.L106:
 498:state_machine.c ****             Buzzer_Shot(Push_Buzzer__Default_Lenght);
 2030              		.loc 1 498 0 is_stmt 1
 2031 0368 544B     		ldr	r3, .L162+8
 2032 036a 1B68     		ldr	r3, [r3]
 2033 036c 1846     		mov	r0, r3
 2034 036e FFF7FEFF 		bl	Buzzer_Shot
 2035              	.L105:
 499:state_machine.c ****         }
 500:state_machine.c ****         
 501:state_machine.c ****         
 502:state_machine.c ****         if(Current_Edit_Value == 0){ //Duty           
 2036              		.loc 1 502 0
 2037 0372 504B     		ldr	r3, .L162
 2038 0374 1B78     		ldrb	r3, [r3]	@ zero_extendqisi2
 2039 0376 002B     		cmp	r3, #0
 2040 0378 40F0B080 		bne	.L107
 503:state_machine.c ****             MaxSetValue = 100;
 2041              		.loc 1 503 0
 2042 037c 514B     		ldr	r3, .L162+16
 2043 037e 3B60     		str	r3, [r7]	@ float
 504:state_machine.c ****                         
 505:state_machine.c ****             Current_Counter = QD_GetCounter();
 2044              		.loc 1 505 0
 2045 0380 FFF7FEFF 		bl	QD_GetCounter
 2046 0384 0346     		mov	r3, r0
 2047 0386 1A46     		mov	r2, r3
 2048 0388 4F4B     		ldr	r3, .L162+20
 2049 038a 1A60     		str	r2, [r3]
 506:state_machine.c ****             
 507:state_machine.c ****             if(Position_Number == 0){
ARM GAS  C:\Users\KJA\AppData\Local\Temp\ccAyzU2h.s 			page 46


 2050              		.loc 1 507 0
 2051 038c 4A4B     		ldr	r3, .L162+4
 2052 038e 1B78     		ldrb	r3, [r3]	@ zero_extendqisi2
 2053 0390 002B     		cmp	r3, #0
 2054 0392 2AD1     		bne	.L108
 508:state_machine.c ****                 if(!(Last_Counter == Current_Counter)){
 2055              		.loc 1 508 0
 2056 0394 4D4B     		ldr	r3, .L162+24
 2057 0396 1A68     		ldr	r2, [r3]
 2058 0398 4B4B     		ldr	r3, .L162+20
 2059 039a 1B68     		ldr	r3, [r3]
 2060 039c 9A42     		cmp	r2, r3
 2061 039e 24D0     		beq	.L108
 509:state_machine.c ****                     if(Last_Counter > Current_Counter){
 2062              		.loc 1 509 0
 2063 03a0 4A4B     		ldr	r3, .L162+24
 2064 03a2 1A68     		ldr	r2, [r3]
 2065 03a4 484B     		ldr	r3, .L162+20
 2066 03a6 1B68     		ldr	r3, [r3]
 2067 03a8 9A42     		cmp	r2, r3
 2068 03aa 07DD     		ble	.L109
 510:state_machine.c ****                         Set_Duty_Temporary_Value = Set_Duty_Temporary_Value - 10;
 2069              		.loc 1 510 0
 2070 03ac 484B     		ldr	r3, .L162+28
 2071 03ae 1B78     		ldrb	r3, [r3]	@ zero_extendqisi2
 2072 03b0 DBB2     		uxtb	r3, r3
 2073 03b2 0A3B     		subs	r3, r3, #10
 2074 03b4 DBB2     		uxtb	r3, r3
 2075 03b6 DAB2     		uxtb	r2, r3
 2076 03b8 454B     		ldr	r3, .L162+28
 2077 03ba 1A70     		strb	r2, [r3]
 2078              	.L109:
 511:state_machine.c ****                     }
 512:state_machine.c ****                     if(Last_Counter < Current_Counter){
 2079              		.loc 1 512 0
 2080 03bc 434B     		ldr	r3, .L162+24
 2081 03be 1A68     		ldr	r2, [r3]
 2082 03c0 414B     		ldr	r3, .L162+20
 2083 03c2 1B68     		ldr	r3, [r3]
 2084 03c4 9A42     		cmp	r2, r3
 2085 03c6 07DA     		bge	.L110
 513:state_machine.c ****                         Set_Duty_Temporary_Value = Set_Duty_Temporary_Value + 10;
 2086              		.loc 1 513 0
 2087 03c8 414B     		ldr	r3, .L162+28
 2088 03ca 1B78     		ldrb	r3, [r3]	@ zero_extendqisi2
 2089 03cc DBB2     		uxtb	r3, r3
 2090 03ce 0A33     		adds	r3, r3, #10
 2091 03d0 DBB2     		uxtb	r3, r3
 2092 03d2 DAB2     		uxtb	r2, r3
 2093 03d4 3E4B     		ldr	r3, .L162+28
 2094 03d6 1A70     		strb	r2, [r3]
 2095              	.L110:
 514:state_machine.c ****                     }
 515:state_machine.c ****                     Last_Counter = Current_Counter;   
 2096              		.loc 1 515 0
 2097 03d8 3B4B     		ldr	r3, .L162+20
 2098 03da 1B68     		ldr	r3, [r3]
ARM GAS  C:\Users\KJA\AppData\Local\Temp\ccAyzU2h.s 			page 47


 2099 03dc 3B4A     		ldr	r2, .L162+24
 2100 03de 1360     		str	r3, [r2]
 516:state_machine.c ****                     Buzzer_Shot(Rotate_Buzzer__Default_Lenght);
 2101              		.loc 1 516 0
 2102 03e0 3C4B     		ldr	r3, .L162+32
 2103 03e2 1B68     		ldr	r3, [r3]
 2104 03e4 1846     		mov	r0, r3
 2105 03e6 FFF7FEFF 		bl	Buzzer_Shot
 2106              	.L108:
 517:state_machine.c ****                 }      
 518:state_machine.c ****             }        
 519:state_machine.c ****             
 520:state_machine.c ****             if(Position_Number == 1){
 2107              		.loc 1 520 0
 2108 03ea 334B     		ldr	r3, .L162+4
 2109 03ec 1B78     		ldrb	r3, [r3]	@ zero_extendqisi2
 2110 03ee 5BB2     		sxtb	r3, r3
 2111 03f0 012B     		cmp	r3, #1
 2112 03f2 2AD1     		bne	.L111
 521:state_machine.c ****                 if(!(Last_Counter == Current_Counter)){
 2113              		.loc 1 521 0
 2114 03f4 354B     		ldr	r3, .L162+24
 2115 03f6 1A68     		ldr	r2, [r3]
 2116 03f8 334B     		ldr	r3, .L162+20
 2117 03fa 1B68     		ldr	r3, [r3]
 2118 03fc 9A42     		cmp	r2, r3
 2119 03fe 24D0     		beq	.L111
 522:state_machine.c ****                     if(Last_Counter > Current_Counter){
 2120              		.loc 1 522 0
 2121 0400 324B     		ldr	r3, .L162+24
 2122 0402 1A68     		ldr	r2, [r3]
 2123 0404 304B     		ldr	r3, .L162+20
 2124 0406 1B68     		ldr	r3, [r3]
 2125 0408 9A42     		cmp	r2, r3
 2126 040a 07DD     		ble	.L112
 523:state_machine.c ****                         Set_Duty_Temporary_Value = Set_Duty_Temporary_Value - 1;
 2127              		.loc 1 523 0
 2128 040c 304B     		ldr	r3, .L162+28
 2129 040e 1B78     		ldrb	r3, [r3]	@ zero_extendqisi2
 2130 0410 DBB2     		uxtb	r3, r3
 2131 0412 013B     		subs	r3, r3, #1
 2132 0414 DBB2     		uxtb	r3, r3
 2133 0416 DAB2     		uxtb	r2, r3
 2134 0418 2D4B     		ldr	r3, .L162+28
 2135 041a 1A70     		strb	r2, [r3]
 2136              	.L112:
 524:state_machine.c ****                     }
 525:state_machine.c ****                     if(Last_Counter < Current_Counter){
 2137              		.loc 1 525 0
 2138 041c 2B4B     		ldr	r3, .L162+24
 2139 041e 1A68     		ldr	r2, [r3]
 2140 0420 294B     		ldr	r3, .L162+20
 2141 0422 1B68     		ldr	r3, [r3]
 2142 0424 9A42     		cmp	r2, r3
 2143 0426 07DA     		bge	.L113
 526:state_machine.c ****                         Set_Duty_Temporary_Value = Set_Duty_Temporary_Value + 1;
 2144              		.loc 1 526 0
ARM GAS  C:\Users\KJA\AppData\Local\Temp\ccAyzU2h.s 			page 48


 2145 0428 294B     		ldr	r3, .L162+28
 2146 042a 1B78     		ldrb	r3, [r3]	@ zero_extendqisi2
 2147 042c DBB2     		uxtb	r3, r3
 2148 042e 0133     		adds	r3, r3, #1
 2149 0430 DBB2     		uxtb	r3, r3
 2150 0432 DAB2     		uxtb	r2, r3
 2151 0434 264B     		ldr	r3, .L162+28
 2152 0436 1A70     		strb	r2, [r3]
 2153              	.L113:
 527:state_machine.c ****                     }
 528:state_machine.c ****                     Last_Counter = Current_Counter;   
 2154              		.loc 1 528 0
 2155 0438 234B     		ldr	r3, .L162+20
 2156 043a 1B68     		ldr	r3, [r3]
 2157 043c 234A     		ldr	r2, .L162+24
 2158 043e 1360     		str	r3, [r2]
 529:state_machine.c ****                     Buzzer_Shot(Rotate_Buzzer__Default_Lenght);
 2159              		.loc 1 529 0
 2160 0440 244B     		ldr	r3, .L162+32
 2161 0442 1B68     		ldr	r3, [r3]
 2162 0444 1846     		mov	r0, r3
 2163 0446 FFF7FEFF 		bl	Buzzer_Shot
 2164              	.L111:
 530:state_machine.c ****                 }      
 531:state_machine.c ****             }
 532:state_machine.c **** 
 533:state_machine.c ****             if(Set_Duty_Temporary_Value > MaxSetValue){
 2165              		.loc 1 533 0
 2166 044a 214B     		ldr	r3, .L162+28
 2167 044c 1B78     		ldrb	r3, [r3]	@ zero_extendqisi2
 2168 044e 5BB2     		sxtb	r3, r3
 2169 0450 1846     		mov	r0, r3
 2170 0452 FFF7FEFF 		bl	__aeabi_i2f
 2171 0456 0346     		mov	r3, r0
 2172 0458 1846     		mov	r0, r3
 2173 045a 3968     		ldr	r1, [r7]	@ float
 2174 045c FFF7FEFF 		bl	__aeabi_fcmpgt
 2175 0460 0346     		mov	r3, r0
 2176 0462 002B     		cmp	r3, #0
 2177 0464 0FD0     		beq	.L114
 534:state_machine.c ****                 Set_Duty_Temporary_Value = MaxSetValue;
 2178              		.loc 1 534 0
 2179 0466 3868     		ldr	r0, [r7]	@ float
 2180 0468 FFF7FEFF 		bl	__aeabi_f2iz
 2181 046c 0346     		mov	r3, r0
 2182 046e DAB2     		uxtb	r2, r3
 2183 0470 174B     		ldr	r3, .L162+28
 2184 0472 1A70     		strb	r2, [r3]
 535:state_machine.c ****                 Buzzer_Shot(10*Rotate_Buzzer__Default_Lenght);
 2185              		.loc 1 535 0
 2186 0474 174B     		ldr	r3, .L162+32
 2187 0476 1A68     		ldr	r2, [r3]
 2188 0478 1346     		mov	r3, r2
 2189 047a 9B00     		lsls	r3, r3, #2
 2190 047c 1344     		add	r3, r3, r2
 2191 047e 5B00     		lsls	r3, r3, #1
 2192 0480 1846     		mov	r0, r3
ARM GAS  C:\Users\KJA\AppData\Local\Temp\ccAyzU2h.s 			page 49


 2193 0482 FFF7FEFF 		bl	Buzzer_Shot
 2194              	.L114:
 536:state_machine.c ****             }
 537:state_machine.c ****             if(Set_Duty_Temporary_Value < 0){
 2195              		.loc 1 537 0
 2196 0486 124B     		ldr	r3, .L162+28
 2197 0488 1B78     		ldrb	r3, [r3]	@ zero_extendqisi2
 2198 048a 5BB2     		sxtb	r3, r3
 2199 048c 002B     		cmp	r3, #0
 2200 048e 0BDA     		bge	.L116
 538:state_machine.c ****                 Set_Duty_Temporary_Value = 0;
 2201              		.loc 1 538 0
 2202 0490 0F4B     		ldr	r3, .L162+28
 2203 0492 0022     		movs	r2, #0
 2204 0494 1A70     		strb	r2, [r3]
 539:state_machine.c ****                 Buzzer_Shot(10*Rotate_Buzzer__Default_Lenght);
 2205              		.loc 1 539 0
 2206 0496 0F4B     		ldr	r3, .L162+32
 2207 0498 1A68     		ldr	r2, [r3]
 2208 049a 1346     		mov	r3, r2
 2209 049c 9B00     		lsls	r3, r3, #2
 2210 049e 1344     		add	r3, r3, r2
 2211 04a0 5B00     		lsls	r3, r3, #1
 2212 04a2 1846     		mov	r0, r3
 2213 04a4 FFF7FEFF 		bl	Buzzer_Shot
 2214              	.L116:
 540:state_machine.c ****             }
 541:state_machine.c ****             Set_Duty = Set_Duty_Temporary_Value;  
 2215              		.loc 1 541 0
 2216 04a8 094B     		ldr	r3, .L162+28
 2217 04aa 1A78     		ldrb	r2, [r3]	@ zero_extendqisi2
 2218 04ac 0A4B     		ldr	r3, .L162+36
 2219 04ae 1A70     		strb	r2, [r3]
 2220 04b0 3BE2     		b	.L117
 2221              	.L163:
 2222 04b2 00BF     		.align	2
 2223              	.L162:
 2224 04b4 00000000 		.word	Current_Edit_Value
 2225 04b8 00000000 		.word	Position_Number
 2226 04bc 00000000 		.word	Push_Buzzer__Default_Lenght
 2227 04c0 00000000 		.word	button5
 2228 04c4 0000C842 		.word	1120403456
 2229 04c8 00000000 		.word	Current_Counter
 2230 04cc 00000000 		.word	Last_Counter
 2231 04d0 00000000 		.word	Set_Duty_Temporary_Value
 2232 04d4 00000000 		.word	Rotate_Buzzer__Default_Lenght
 2233 04d8 00000000 		.word	Set_Duty
 2234              	.L107:
 542:state_machine.c ****         }   
 543:state_machine.c ****         
 544:state_machine.c ****         
 545:state_machine.c ****         
 546:state_machine.c ****         else if(Current_Edit_Value == 1){ //Freq          
 2235              		.loc 1 546 0
 2236 04dc 8A4B     		ldr	r3, .L164
 2237 04de 1B78     		ldrb	r3, [r3]	@ zero_extendqisi2
 2238 04e0 012B     		cmp	r3, #1
ARM GAS  C:\Users\KJA\AppData\Local\Temp\ccAyzU2h.s 			page 50


 2239 04e2 40F02181 		bne	.L118
 547:state_machine.c ****             MaxSetValue = 50000;
 2240              		.loc 1 547 0
 2241 04e6 894B     		ldr	r3, .L164+4
 2242 04e8 3B60     		str	r3, [r7]	@ float
 548:state_machine.c ****                         
 549:state_machine.c ****             Current_Counter = QD_GetCounter();
 2243              		.loc 1 549 0
 2244 04ea FFF7FEFF 		bl	QD_GetCounter
 2245 04ee 0346     		mov	r3, r0
 2246 04f0 1A46     		mov	r2, r3
 2247 04f2 874B     		ldr	r3, .L164+8
 2248 04f4 1A60     		str	r2, [r3]
 550:state_machine.c ****             
 551:state_machine.c ****             if(Position_Number == 0){
 2249              		.loc 1 551 0
 2250 04f6 874B     		ldr	r3, .L164+12
 2251 04f8 1B78     		ldrb	r3, [r3]	@ zero_extendqisi2
 2252 04fa 002B     		cmp	r3, #0
 2253 04fc 28D1     		bne	.L119
 552:state_machine.c ****                 if(!(Last_Counter == Current_Counter)){
 2254              		.loc 1 552 0
 2255 04fe 864B     		ldr	r3, .L164+16
 2256 0500 1A68     		ldr	r2, [r3]
 2257 0502 834B     		ldr	r3, .L164+8
 2258 0504 1B68     		ldr	r3, [r3]
 2259 0506 9A42     		cmp	r2, r3
 2260 0508 22D0     		beq	.L119
 553:state_machine.c ****                     if(Last_Counter > Current_Counter){
 2261              		.loc 1 553 0
 2262 050a 834B     		ldr	r3, .L164+16
 2263 050c 1A68     		ldr	r2, [r3]
 2264 050e 804B     		ldr	r3, .L164+8
 2265 0510 1B68     		ldr	r3, [r3]
 2266 0512 9A42     		cmp	r2, r3
 2267 0514 06DD     		ble	.L120
 554:state_machine.c ****                         Set_Freq_Temporary_Value = Set_Freq_Temporary_Value - 10000;
 2268              		.loc 1 554 0
 2269 0516 814B     		ldr	r3, .L164+20
 2270 0518 1B68     		ldr	r3, [r3]
 2271 051a A3F51C53 		sub	r3, r3, #9984
 2272 051e 103B     		subs	r3, r3, #16
 2273 0520 7E4A     		ldr	r2, .L164+20
 2274 0522 1360     		str	r3, [r2]
 2275              	.L120:
 555:state_machine.c ****                     }
 556:state_machine.c ****                     if(Last_Counter < Current_Counter){
 2276              		.loc 1 556 0
 2277 0524 7C4B     		ldr	r3, .L164+16
 2278 0526 1A68     		ldr	r2, [r3]
 2279 0528 794B     		ldr	r3, .L164+8
 2280 052a 1B68     		ldr	r3, [r3]
 2281 052c 9A42     		cmp	r2, r3
 2282 052e 06DA     		bge	.L121
 557:state_machine.c ****                         Set_Freq_Temporary_Value = Set_Freq_Temporary_Value + 10000;
 2283              		.loc 1 557 0
 2284 0530 7A4B     		ldr	r3, .L164+20
ARM GAS  C:\Users\KJA\AppData\Local\Temp\ccAyzU2h.s 			page 51


 2285 0532 1B68     		ldr	r3, [r3]
 2286 0534 03F51C53 		add	r3, r3, #9984
 2287 0538 1033     		adds	r3, r3, #16
 2288 053a 784A     		ldr	r2, .L164+20
 2289 053c 1360     		str	r3, [r2]
 2290              	.L121:
 558:state_machine.c ****                     }
 559:state_machine.c ****                     Last_Counter = Current_Counter;   
 2291              		.loc 1 559 0
 2292 053e 744B     		ldr	r3, .L164+8
 2293 0540 1B68     		ldr	r3, [r3]
 2294 0542 754A     		ldr	r2, .L164+16
 2295 0544 1360     		str	r3, [r2]
 560:state_machine.c ****                     Buzzer_Shot(Rotate_Buzzer__Default_Lenght);
 2296              		.loc 1 560 0
 2297 0546 764B     		ldr	r3, .L164+24
 2298 0548 1B68     		ldr	r3, [r3]
 2299 054a 1846     		mov	r0, r3
 2300 054c FFF7FEFF 		bl	Buzzer_Shot
 2301              	.L119:
 561:state_machine.c ****                 }      
 562:state_machine.c ****             }        
 563:state_machine.c ****             
 564:state_machine.c ****             if(Position_Number == 1){
 2302              		.loc 1 564 0
 2303 0550 704B     		ldr	r3, .L164+12
 2304 0552 1B78     		ldrb	r3, [r3]	@ zero_extendqisi2
 2305 0554 5BB2     		sxtb	r3, r3
 2306 0556 012B     		cmp	r3, #1
 2307 0558 26D1     		bne	.L122
 565:state_machine.c ****                 if(!(Last_Counter == Current_Counter)){
 2308              		.loc 1 565 0
 2309 055a 6F4B     		ldr	r3, .L164+16
 2310 055c 1A68     		ldr	r2, [r3]
 2311 055e 6C4B     		ldr	r3, .L164+8
 2312 0560 1B68     		ldr	r3, [r3]
 2313 0562 9A42     		cmp	r2, r3
 2314 0564 20D0     		beq	.L122
 566:state_machine.c ****                     if(Last_Counter > Current_Counter){
 2315              		.loc 1 566 0
 2316 0566 6C4B     		ldr	r3, .L164+16
 2317 0568 1A68     		ldr	r2, [r3]
 2318 056a 694B     		ldr	r3, .L164+8
 2319 056c 1B68     		ldr	r3, [r3]
 2320 056e 9A42     		cmp	r2, r3
 2321 0570 05DD     		ble	.L123
 567:state_machine.c ****                         Set_Freq_Temporary_Value = Set_Freq_Temporary_Value - 1000;
 2322              		.loc 1 567 0
 2323 0572 6A4B     		ldr	r3, .L164+20
 2324 0574 1B68     		ldr	r3, [r3]
 2325 0576 A3F57A73 		sub	r3, r3, #1000
 2326 057a 684A     		ldr	r2, .L164+20
 2327 057c 1360     		str	r3, [r2]
 2328              	.L123:
 568:state_machine.c ****                     }
 569:state_machine.c ****                     if(Last_Counter < Current_Counter){
 2329              		.loc 1 569 0
ARM GAS  C:\Users\KJA\AppData\Local\Temp\ccAyzU2h.s 			page 52


 2330 057e 664B     		ldr	r3, .L164+16
 2331 0580 1A68     		ldr	r2, [r3]
 2332 0582 634B     		ldr	r3, .L164+8
 2333 0584 1B68     		ldr	r3, [r3]
 2334 0586 9A42     		cmp	r2, r3
 2335 0588 05DA     		bge	.L124
 570:state_machine.c ****                         Set_Freq_Temporary_Value = Set_Freq_Temporary_Value + 1000;
 2336              		.loc 1 570 0
 2337 058a 644B     		ldr	r3, .L164+20
 2338 058c 1B68     		ldr	r3, [r3]
 2339 058e 03F57A73 		add	r3, r3, #1000
 2340 0592 624A     		ldr	r2, .L164+20
 2341 0594 1360     		str	r3, [r2]
 2342              	.L124:
 571:state_machine.c ****                     }
 572:state_machine.c ****                     Last_Counter = Current_Counter;   
 2343              		.loc 1 572 0
 2344 0596 5E4B     		ldr	r3, .L164+8
 2345 0598 1B68     		ldr	r3, [r3]
 2346 059a 5F4A     		ldr	r2, .L164+16
 2347 059c 1360     		str	r3, [r2]
 573:state_machine.c ****                     Buzzer_Shot(Rotate_Buzzer__Default_Lenght);
 2348              		.loc 1 573 0
 2349 059e 604B     		ldr	r3, .L164+24
 2350 05a0 1B68     		ldr	r3, [r3]
 2351 05a2 1846     		mov	r0, r3
 2352 05a4 FFF7FEFF 		bl	Buzzer_Shot
 2353              	.L122:
 574:state_machine.c ****                 }      
 575:state_machine.c ****             }            
 576:state_machine.c ****             if(Position_Number == 2){
 2354              		.loc 1 576 0
 2355 05a8 5A4B     		ldr	r3, .L164+12
 2356 05aa 1B78     		ldrb	r3, [r3]	@ zero_extendqisi2
 2357 05ac 5BB2     		sxtb	r3, r3
 2358 05ae 022B     		cmp	r3, #2
 2359 05b0 24D1     		bne	.L125
 577:state_machine.c ****                 if(!(Last_Counter == Current_Counter)){
 2360              		.loc 1 577 0
 2361 05b2 594B     		ldr	r3, .L164+16
 2362 05b4 1A68     		ldr	r2, [r3]
 2363 05b6 564B     		ldr	r3, .L164+8
 2364 05b8 1B68     		ldr	r3, [r3]
 2365 05ba 9A42     		cmp	r2, r3
 2366 05bc 1ED0     		beq	.L125
 578:state_machine.c ****                     if(Last_Counter > Current_Counter){
 2367              		.loc 1 578 0
 2368 05be 564B     		ldr	r3, .L164+16
 2369 05c0 1A68     		ldr	r2, [r3]
 2370 05c2 534B     		ldr	r3, .L164+8
 2371 05c4 1B68     		ldr	r3, [r3]
 2372 05c6 9A42     		cmp	r2, r3
 2373 05c8 04DD     		ble	.L126
 579:state_machine.c ****                         Set_Freq_Temporary_Value = Set_Freq_Temporary_Value - 100;
 2374              		.loc 1 579 0
 2375 05ca 544B     		ldr	r3, .L164+20
 2376 05cc 1B68     		ldr	r3, [r3]
ARM GAS  C:\Users\KJA\AppData\Local\Temp\ccAyzU2h.s 			page 53


 2377 05ce 643B     		subs	r3, r3, #100
 2378 05d0 524A     		ldr	r2, .L164+20
 2379 05d2 1360     		str	r3, [r2]
 2380              	.L126:
 580:state_machine.c ****                     }
 581:state_machine.c ****                     if(Last_Counter < Current_Counter){
 2381              		.loc 1 581 0
 2382 05d4 504B     		ldr	r3, .L164+16
 2383 05d6 1A68     		ldr	r2, [r3]
 2384 05d8 4D4B     		ldr	r3, .L164+8
 2385 05da 1B68     		ldr	r3, [r3]
 2386 05dc 9A42     		cmp	r2, r3
 2387 05de 04DA     		bge	.L127
 582:state_machine.c ****                         Set_Freq_Temporary_Value = Set_Freq_Temporary_Value + 100;
 2388              		.loc 1 582 0
 2389 05e0 4E4B     		ldr	r3, .L164+20
 2390 05e2 1B68     		ldr	r3, [r3]
 2391 05e4 6433     		adds	r3, r3, #100
 2392 05e6 4D4A     		ldr	r2, .L164+20
 2393 05e8 1360     		str	r3, [r2]
 2394              	.L127:
 583:state_machine.c ****                     }
 584:state_machine.c ****                     Last_Counter = Current_Counter;   
 2395              		.loc 1 584 0
 2396 05ea 494B     		ldr	r3, .L164+8
 2397 05ec 1B68     		ldr	r3, [r3]
 2398 05ee 4A4A     		ldr	r2, .L164+16
 2399 05f0 1360     		str	r3, [r2]
 585:state_machine.c ****                     Buzzer_Shot(Rotate_Buzzer__Default_Lenght);
 2400              		.loc 1 585 0
 2401 05f2 4B4B     		ldr	r3, .L164+24
 2402 05f4 1B68     		ldr	r3, [r3]
 2403 05f6 1846     		mov	r0, r3
 2404 05f8 FFF7FEFF 		bl	Buzzer_Shot
 2405              	.L125:
 586:state_machine.c ****                 }      
 587:state_machine.c ****             }
 588:state_machine.c ****             if(Position_Number == 3){
 2406              		.loc 1 588 0
 2407 05fc 454B     		ldr	r3, .L164+12
 2408 05fe 1B78     		ldrb	r3, [r3]	@ zero_extendqisi2
 2409 0600 5BB2     		sxtb	r3, r3
 2410 0602 032B     		cmp	r3, #3
 2411 0604 24D1     		bne	.L128
 589:state_machine.c ****                 if(!(Last_Counter == Current_Counter)){
 2412              		.loc 1 589 0
 2413 0606 444B     		ldr	r3, .L164+16
 2414 0608 1A68     		ldr	r2, [r3]
 2415 060a 414B     		ldr	r3, .L164+8
 2416 060c 1B68     		ldr	r3, [r3]
 2417 060e 9A42     		cmp	r2, r3
 2418 0610 1ED0     		beq	.L128
 590:state_machine.c ****                     if(Last_Counter > Current_Counter){
 2419              		.loc 1 590 0
 2420 0612 414B     		ldr	r3, .L164+16
 2421 0614 1A68     		ldr	r2, [r3]
 2422 0616 3E4B     		ldr	r3, .L164+8
ARM GAS  C:\Users\KJA\AppData\Local\Temp\ccAyzU2h.s 			page 54


 2423 0618 1B68     		ldr	r3, [r3]
 2424 061a 9A42     		cmp	r2, r3
 2425 061c 04DD     		ble	.L129
 591:state_machine.c ****                         Set_Freq_Temporary_Value = Set_Freq_Temporary_Value - 10;
 2426              		.loc 1 591 0
 2427 061e 3F4B     		ldr	r3, .L164+20
 2428 0620 1B68     		ldr	r3, [r3]
 2429 0622 0A3B     		subs	r3, r3, #10
 2430 0624 3D4A     		ldr	r2, .L164+20
 2431 0626 1360     		str	r3, [r2]
 2432              	.L129:
 592:state_machine.c ****                     }
 593:state_machine.c ****                     if(Last_Counter < Current_Counter){
 2433              		.loc 1 593 0
 2434 0628 3B4B     		ldr	r3, .L164+16
 2435 062a 1A68     		ldr	r2, [r3]
 2436 062c 384B     		ldr	r3, .L164+8
 2437 062e 1B68     		ldr	r3, [r3]
 2438 0630 9A42     		cmp	r2, r3
 2439 0632 04DA     		bge	.L130
 594:state_machine.c ****                         Set_Freq_Temporary_Value = Set_Freq_Temporary_Value + 10;
 2440              		.loc 1 594 0
 2441 0634 394B     		ldr	r3, .L164+20
 2442 0636 1B68     		ldr	r3, [r3]
 2443 0638 0A33     		adds	r3, r3, #10
 2444 063a 384A     		ldr	r2, .L164+20
 2445 063c 1360     		str	r3, [r2]
 2446              	.L130:
 595:state_machine.c ****                     }
 596:state_machine.c ****                     Last_Counter = Current_Counter;   
 2447              		.loc 1 596 0
 2448 063e 344B     		ldr	r3, .L164+8
 2449 0640 1B68     		ldr	r3, [r3]
 2450 0642 354A     		ldr	r2, .L164+16
 2451 0644 1360     		str	r3, [r2]
 597:state_machine.c ****                     Buzzer_Shot(Rotate_Buzzer__Default_Lenght);
 2452              		.loc 1 597 0
 2453 0646 364B     		ldr	r3, .L164+24
 2454 0648 1B68     		ldr	r3, [r3]
 2455 064a 1846     		mov	r0, r3
 2456 064c FFF7FEFF 		bl	Buzzer_Shot
 2457              	.L128:
 598:state_machine.c ****                 }      
 599:state_machine.c ****             }
 600:state_machine.c ****             if(Position_Number == 4){
 2458              		.loc 1 600 0
 2459 0650 304B     		ldr	r3, .L164+12
 2460 0652 1B78     		ldrb	r3, [r3]	@ zero_extendqisi2
 2461 0654 5BB2     		sxtb	r3, r3
 2462 0656 042B     		cmp	r3, #4
 2463 0658 24D1     		bne	.L131
 601:state_machine.c ****                 if(!(Last_Counter == Current_Counter)){
 2464              		.loc 1 601 0
 2465 065a 2F4B     		ldr	r3, .L164+16
 2466 065c 1A68     		ldr	r2, [r3]
 2467 065e 2C4B     		ldr	r3, .L164+8
 2468 0660 1B68     		ldr	r3, [r3]
ARM GAS  C:\Users\KJA\AppData\Local\Temp\ccAyzU2h.s 			page 55


 2469 0662 9A42     		cmp	r2, r3
 2470 0664 1ED0     		beq	.L131
 602:state_machine.c ****                     if(Last_Counter > Current_Counter){
 2471              		.loc 1 602 0
 2472 0666 2C4B     		ldr	r3, .L164+16
 2473 0668 1A68     		ldr	r2, [r3]
 2474 066a 294B     		ldr	r3, .L164+8
 2475 066c 1B68     		ldr	r3, [r3]
 2476 066e 9A42     		cmp	r2, r3
 2477 0670 04DD     		ble	.L132
 603:state_machine.c ****                         Set_Freq_Temporary_Value = Set_Freq_Temporary_Value - 1;
 2478              		.loc 1 603 0
 2479 0672 2A4B     		ldr	r3, .L164+20
 2480 0674 1B68     		ldr	r3, [r3]
 2481 0676 013B     		subs	r3, r3, #1
 2482 0678 284A     		ldr	r2, .L164+20
 2483 067a 1360     		str	r3, [r2]
 2484              	.L132:
 604:state_machine.c ****                     }
 605:state_machine.c ****                     if(Last_Counter < Current_Counter){
 2485              		.loc 1 605 0
 2486 067c 264B     		ldr	r3, .L164+16
 2487 067e 1A68     		ldr	r2, [r3]
 2488 0680 234B     		ldr	r3, .L164+8
 2489 0682 1B68     		ldr	r3, [r3]
 2490 0684 9A42     		cmp	r2, r3
 2491 0686 04DA     		bge	.L133
 606:state_machine.c ****                         Set_Freq_Temporary_Value = Set_Freq_Temporary_Value + 1;
 2492              		.loc 1 606 0
 2493 0688 244B     		ldr	r3, .L164+20
 2494 068a 1B68     		ldr	r3, [r3]
 2495 068c 0133     		adds	r3, r3, #1
 2496 068e 234A     		ldr	r2, .L164+20
 2497 0690 1360     		str	r3, [r2]
 2498              	.L133:
 607:state_machine.c ****                     }
 608:state_machine.c ****                     Last_Counter = Current_Counter;   
 2499              		.loc 1 608 0
 2500 0692 1F4B     		ldr	r3, .L164+8
 2501 0694 1B68     		ldr	r3, [r3]
 2502 0696 204A     		ldr	r2, .L164+16
 2503 0698 1360     		str	r3, [r2]
 609:state_machine.c ****                     Buzzer_Shot(Rotate_Buzzer__Default_Lenght);
 2504              		.loc 1 609 0
 2505 069a 214B     		ldr	r3, .L164+24
 2506 069c 1B68     		ldr	r3, [r3]
 2507 069e 1846     		mov	r0, r3
 2508 06a0 FFF7FEFF 		bl	Buzzer_Shot
 2509              	.L131:
 610:state_machine.c ****                 }      
 611:state_machine.c ****             }
 612:state_machine.c ****             
 613:state_machine.c **** 
 614:state_machine.c ****             if(Set_Freq_Temporary_Value > MaxSetValue){
 2510              		.loc 1 614 0
 2511 06a4 1D4B     		ldr	r3, .L164+20
 2512 06a6 1B68     		ldr	r3, [r3]
ARM GAS  C:\Users\KJA\AppData\Local\Temp\ccAyzU2h.s 			page 56


 2513 06a8 1846     		mov	r0, r3
 2514 06aa FFF7FEFF 		bl	__aeabi_i2f
 2515 06ae 0346     		mov	r3, r0
 2516 06b0 1846     		mov	r0, r3
 2517 06b2 3968     		ldr	r1, [r7]	@ float
 2518 06b4 FFF7FEFF 		bl	__aeabi_fcmpgt
 2519 06b8 0346     		mov	r3, r0
 2520 06ba 002B     		cmp	r3, #0
 2521 06bc 0ED0     		beq	.L134
 615:state_machine.c ****                 Set_Freq_Temporary_Value = MaxSetValue;
 2522              		.loc 1 615 0
 2523 06be 3868     		ldr	r0, [r7]	@ float
 2524 06c0 FFF7FEFF 		bl	__aeabi_f2iz
 2525 06c4 0246     		mov	r2, r0
 2526 06c6 154B     		ldr	r3, .L164+20
 2527 06c8 1A60     		str	r2, [r3]
 616:state_machine.c ****                 Buzzer_Shot(10*Rotate_Buzzer__Default_Lenght);
 2528              		.loc 1 616 0
 2529 06ca 154B     		ldr	r3, .L164+24
 2530 06cc 1A68     		ldr	r2, [r3]
 2531 06ce 1346     		mov	r3, r2
 2532 06d0 9B00     		lsls	r3, r3, #2
 2533 06d2 1344     		add	r3, r3, r2
 2534 06d4 5B00     		lsls	r3, r3, #1
 2535 06d6 1846     		mov	r0, r3
 2536 06d8 FFF7FEFF 		bl	Buzzer_Shot
 2537              	.L134:
 617:state_machine.c ****             }
 618:state_machine.c ****             if(Set_Freq_Temporary_Value < 0){
 2538              		.loc 1 618 0
 2539 06dc 0F4B     		ldr	r3, .L164+20
 2540 06de 1B68     		ldr	r3, [r3]
 2541 06e0 002B     		cmp	r3, #0
 2542 06e2 0BDA     		bge	.L136
 619:state_machine.c ****                 Set_Freq_Temporary_Value = 0;
 2543              		.loc 1 619 0
 2544 06e4 0D4B     		ldr	r3, .L164+20
 2545 06e6 0022     		movs	r2, #0
 2546 06e8 1A60     		str	r2, [r3]
 620:state_machine.c ****                 Buzzer_Shot(10*Rotate_Buzzer__Default_Lenght);
 2547              		.loc 1 620 0
 2548 06ea 0D4B     		ldr	r3, .L164+24
 2549 06ec 1A68     		ldr	r2, [r3]
 2550 06ee 1346     		mov	r3, r2
 2551 06f0 9B00     		lsls	r3, r3, #2
 2552 06f2 1344     		add	r3, r3, r2
 2553 06f4 5B00     		lsls	r3, r3, #1
 2554 06f6 1846     		mov	r0, r3
 2555 06f8 FFF7FEFF 		bl	Buzzer_Shot
 2556              	.L136:
 621:state_machine.c ****             }
 622:state_machine.c ****             Set_Freq = Set_Freq_Temporary_Value;  
 2557              		.loc 1 622 0
 2558 06fc 074B     		ldr	r3, .L164+20
 2559 06fe 1B68     		ldr	r3, [r3]
 2560 0700 9AB2     		uxth	r2, r3
 2561 0702 084B     		ldr	r3, .L164+28
ARM GAS  C:\Users\KJA\AppData\Local\Temp\ccAyzU2h.s 			page 57


 2562 0704 1A80     		strh	r2, [r3]	@ movhi
 2563 0706 10E1     		b	.L117
 2564              	.L165:
 2565              		.align	2
 2566              	.L164:
 2567 0708 00000000 		.word	Current_Edit_Value
 2568 070c 00504347 		.word	1195593728
 2569 0710 00000000 		.word	Current_Counter
 2570 0714 00000000 		.word	Position_Number
 2571 0718 00000000 		.word	Last_Counter
 2572 071c 00000000 		.word	Set_Freq_Temporary_Value
 2573 0720 00000000 		.word	Rotate_Buzzer__Default_Lenght
 2574 0724 00000000 		.word	Set_Freq
 2575              	.L118:
 623:state_machine.c ****         }  
 624:state_machine.c ****         
 625:state_machine.c ****         else if(Current_Edit_Value == 2){ //Ampl       
 2576              		.loc 1 625 0
 2577 0728 954B     		ldr	r3, .L166
 2578 072a 1B78     		ldrb	r3, [r3]	@ zero_extendqisi2
 2579 072c 022B     		cmp	r3, #2
 2580 072e 40F0FC80 		bne	.L117
 626:state_machine.c ****             MaxSetValue = 2000;
 2581              		.loc 1 626 0
 2582 0732 944B     		ldr	r3, .L166+4
 2583 0734 3B60     		str	r3, [r7]	@ float
 627:state_machine.c ****                         
 628:state_machine.c ****             Current_Counter = QD_GetCounter();
 2584              		.loc 1 628 0
 2585 0736 FFF7FEFF 		bl	QD_GetCounter
 2586 073a 0346     		mov	r3, r0
 2587 073c 1A46     		mov	r2, r3
 2588 073e 924B     		ldr	r3, .L166+8
 2589 0740 1A60     		str	r2, [r3]
 629:state_machine.c ****             
 630:state_machine.c ****             if(Position_Number == 0){
 2590              		.loc 1 630 0
 2591 0742 924B     		ldr	r3, .L166+12
 2592 0744 1B78     		ldrb	r3, [r3]	@ zero_extendqisi2
 2593 0746 002B     		cmp	r3, #0
 2594 0748 2CD1     		bne	.L137
 631:state_machine.c ****                 if(!(Last_Counter == Current_Counter)){
 2595              		.loc 1 631 0
 2596 074a 914B     		ldr	r3, .L166+16
 2597 074c 1A68     		ldr	r2, [r3]
 2598 074e 8E4B     		ldr	r3, .L166+8
 2599 0750 1B68     		ldr	r3, [r3]
 2600 0752 9A42     		cmp	r2, r3
 2601 0754 26D0     		beq	.L137
 632:state_machine.c ****                     if(Last_Counter > Current_Counter){
 2602              		.loc 1 632 0
 2603 0756 8E4B     		ldr	r3, .L166+16
 2604 0758 1A68     		ldr	r2, [r3]
 2605 075a 8B4B     		ldr	r3, .L166+8
 2606 075c 1B68     		ldr	r3, [r3]
 2607 075e 9A42     		cmp	r2, r3
 2608 0760 08DD     		ble	.L138
ARM GAS  C:\Users\KJA\AppData\Local\Temp\ccAyzU2h.s 			page 58


 633:state_machine.c ****                         Set_Ampl_Temporary_Value = Set_Ampl_Temporary_Value - 1000;
 2609              		.loc 1 633 0
 2610 0762 8C4B     		ldr	r3, .L166+20
 2611 0764 1B88     		ldrh	r3, [r3]
 2612 0766 9BB2     		uxth	r3, r3
 2613 0768 A3F57A73 		sub	r3, r3, #1000
 2614 076c 9BB2     		uxth	r3, r3
 2615 076e 9AB2     		uxth	r2, r3
 2616 0770 884B     		ldr	r3, .L166+20
 2617 0772 1A80     		strh	r2, [r3]	@ movhi
 2618              	.L138:
 634:state_machine.c ****                     }
 635:state_machine.c ****                     if(Last_Counter < Current_Counter){
 2619              		.loc 1 635 0
 2620 0774 864B     		ldr	r3, .L166+16
 2621 0776 1A68     		ldr	r2, [r3]
 2622 0778 834B     		ldr	r3, .L166+8
 2623 077a 1B68     		ldr	r3, [r3]
 2624 077c 9A42     		cmp	r2, r3
 2625 077e 08DA     		bge	.L139
 636:state_machine.c ****                         Set_Ampl_Temporary_Value = Set_Ampl_Temporary_Value + 1000;
 2626              		.loc 1 636 0
 2627 0780 844B     		ldr	r3, .L166+20
 2628 0782 1B88     		ldrh	r3, [r3]
 2629 0784 9BB2     		uxth	r3, r3
 2630 0786 03F57A73 		add	r3, r3, #1000
 2631 078a 9BB2     		uxth	r3, r3
 2632 078c 9AB2     		uxth	r2, r3
 2633 078e 814B     		ldr	r3, .L166+20
 2634 0790 1A80     		strh	r2, [r3]	@ movhi
 2635              	.L139:
 637:state_machine.c ****                     }
 638:state_machine.c ****                     Last_Counter = Current_Counter;   
 2636              		.loc 1 638 0
 2637 0792 7D4B     		ldr	r3, .L166+8
 2638 0794 1B68     		ldr	r3, [r3]
 2639 0796 7E4A     		ldr	r2, .L166+16
 2640 0798 1360     		str	r3, [r2]
 639:state_machine.c ****                     Buzzer_Shot(Rotate_Buzzer__Default_Lenght);
 2641              		.loc 1 639 0
 2642 079a 7F4B     		ldr	r3, .L166+24
 2643 079c 1B68     		ldr	r3, [r3]
 2644 079e 1846     		mov	r0, r3
 2645 07a0 FFF7FEFF 		bl	Buzzer_Shot
 2646              	.L137:
 640:state_machine.c ****                 }      
 641:state_machine.c ****             }        
 642:state_machine.c ****             
 643:state_machine.c ****             if(Position_Number == 1){
 2647              		.loc 1 643 0
 2648 07a4 794B     		ldr	r3, .L166+12
 2649 07a6 1B78     		ldrb	r3, [r3]	@ zero_extendqisi2
 2650 07a8 5BB2     		sxtb	r3, r3
 2651 07aa 012B     		cmp	r3, #1
 2652 07ac 2AD1     		bne	.L140
 644:state_machine.c ****                 if(!(Last_Counter == Current_Counter)){
 2653              		.loc 1 644 0
ARM GAS  C:\Users\KJA\AppData\Local\Temp\ccAyzU2h.s 			page 59


 2654 07ae 784B     		ldr	r3, .L166+16
 2655 07b0 1A68     		ldr	r2, [r3]
 2656 07b2 754B     		ldr	r3, .L166+8
 2657 07b4 1B68     		ldr	r3, [r3]
 2658 07b6 9A42     		cmp	r2, r3
 2659 07b8 24D0     		beq	.L140
 645:state_machine.c ****                     if(Last_Counter > Current_Counter){
 2660              		.loc 1 645 0
 2661 07ba 754B     		ldr	r3, .L166+16
 2662 07bc 1A68     		ldr	r2, [r3]
 2663 07be 724B     		ldr	r3, .L166+8
 2664 07c0 1B68     		ldr	r3, [r3]
 2665 07c2 9A42     		cmp	r2, r3
 2666 07c4 07DD     		ble	.L141
 646:state_machine.c ****                         Set_Ampl_Temporary_Value = Set_Ampl_Temporary_Value - 100;
 2667              		.loc 1 646 0
 2668 07c6 734B     		ldr	r3, .L166+20
 2669 07c8 1B88     		ldrh	r3, [r3]
 2670 07ca 9BB2     		uxth	r3, r3
 2671 07cc 643B     		subs	r3, r3, #100
 2672 07ce 9BB2     		uxth	r3, r3
 2673 07d0 9AB2     		uxth	r2, r3
 2674 07d2 704B     		ldr	r3, .L166+20
 2675 07d4 1A80     		strh	r2, [r3]	@ movhi
 2676              	.L141:
 647:state_machine.c ****                     }
 648:state_machine.c ****                     if(Last_Counter < Current_Counter){
 2677              		.loc 1 648 0
 2678 07d6 6E4B     		ldr	r3, .L166+16
 2679 07d8 1A68     		ldr	r2, [r3]
 2680 07da 6B4B     		ldr	r3, .L166+8
 2681 07dc 1B68     		ldr	r3, [r3]
 2682 07de 9A42     		cmp	r2, r3
 2683 07e0 07DA     		bge	.L142
 649:state_machine.c ****                         Set_Ampl_Temporary_Value = Set_Ampl_Temporary_Value + 100;
 2684              		.loc 1 649 0
 2685 07e2 6C4B     		ldr	r3, .L166+20
 2686 07e4 1B88     		ldrh	r3, [r3]
 2687 07e6 9BB2     		uxth	r3, r3
 2688 07e8 6433     		adds	r3, r3, #100
 2689 07ea 9BB2     		uxth	r3, r3
 2690 07ec 9AB2     		uxth	r2, r3
 2691 07ee 694B     		ldr	r3, .L166+20
 2692 07f0 1A80     		strh	r2, [r3]	@ movhi
 2693              	.L142:
 650:state_machine.c ****                     }
 651:state_machine.c ****                     Last_Counter = Current_Counter;   
 2694              		.loc 1 651 0
 2695 07f2 654B     		ldr	r3, .L166+8
 2696 07f4 1B68     		ldr	r3, [r3]
 2697 07f6 664A     		ldr	r2, .L166+16
 2698 07f8 1360     		str	r3, [r2]
 652:state_machine.c ****                     Buzzer_Shot(Rotate_Buzzer__Default_Lenght);
 2699              		.loc 1 652 0
 2700 07fa 674B     		ldr	r3, .L166+24
 2701 07fc 1B68     		ldr	r3, [r3]
 2702 07fe 1846     		mov	r0, r3
ARM GAS  C:\Users\KJA\AppData\Local\Temp\ccAyzU2h.s 			page 60


 2703 0800 FFF7FEFF 		bl	Buzzer_Shot
 2704              	.L140:
 653:state_machine.c ****                 }      
 654:state_machine.c ****             }
 655:state_machine.c ****             if(Position_Number == 2){
 2705              		.loc 1 655 0
 2706 0804 614B     		ldr	r3, .L166+12
 2707 0806 1B78     		ldrb	r3, [r3]	@ zero_extendqisi2
 2708 0808 5BB2     		sxtb	r3, r3
 2709 080a 022B     		cmp	r3, #2
 2710 080c 2AD1     		bne	.L143
 656:state_machine.c ****                 if(!(Last_Counter == Current_Counter)){
 2711              		.loc 1 656 0
 2712 080e 604B     		ldr	r3, .L166+16
 2713 0810 1A68     		ldr	r2, [r3]
 2714 0812 5D4B     		ldr	r3, .L166+8
 2715 0814 1B68     		ldr	r3, [r3]
 2716 0816 9A42     		cmp	r2, r3
 2717 0818 24D0     		beq	.L143
 657:state_machine.c ****                     if(Last_Counter > Current_Counter){
 2718              		.loc 1 657 0
 2719 081a 5D4B     		ldr	r3, .L166+16
 2720 081c 1A68     		ldr	r2, [r3]
 2721 081e 5A4B     		ldr	r3, .L166+8
 2722 0820 1B68     		ldr	r3, [r3]
 2723 0822 9A42     		cmp	r2, r3
 2724 0824 07DD     		ble	.L144
 658:state_machine.c ****                         Set_Ampl_Temporary_Value = Set_Ampl_Temporary_Value - 10;
 2725              		.loc 1 658 0
 2726 0826 5B4B     		ldr	r3, .L166+20
 2727 0828 1B88     		ldrh	r3, [r3]
 2728 082a 9BB2     		uxth	r3, r3
 2729 082c 0A3B     		subs	r3, r3, #10
 2730 082e 9BB2     		uxth	r3, r3
 2731 0830 9AB2     		uxth	r2, r3
 2732 0832 584B     		ldr	r3, .L166+20
 2733 0834 1A80     		strh	r2, [r3]	@ movhi
 2734              	.L144:
 659:state_machine.c ****                     }
 660:state_machine.c ****                     if(Last_Counter < Current_Counter){
 2735              		.loc 1 660 0
 2736 0836 564B     		ldr	r3, .L166+16
 2737 0838 1A68     		ldr	r2, [r3]
 2738 083a 534B     		ldr	r3, .L166+8
 2739 083c 1B68     		ldr	r3, [r3]
 2740 083e 9A42     		cmp	r2, r3
 2741 0840 07DA     		bge	.L145
 661:state_machine.c ****                         Set_Ampl_Temporary_Value = Set_Ampl_Temporary_Value + 10;
 2742              		.loc 1 661 0
 2743 0842 544B     		ldr	r3, .L166+20
 2744 0844 1B88     		ldrh	r3, [r3]
 2745 0846 9BB2     		uxth	r3, r3
 2746 0848 0A33     		adds	r3, r3, #10
 2747 084a 9BB2     		uxth	r3, r3
 2748 084c 9AB2     		uxth	r2, r3
 2749 084e 514B     		ldr	r3, .L166+20
 2750 0850 1A80     		strh	r2, [r3]	@ movhi
ARM GAS  C:\Users\KJA\AppData\Local\Temp\ccAyzU2h.s 			page 61


 2751              	.L145:
 662:state_machine.c ****                     }
 663:state_machine.c ****                     Last_Counter = Current_Counter;   
 2752              		.loc 1 663 0
 2753 0852 4D4B     		ldr	r3, .L166+8
 2754 0854 1B68     		ldr	r3, [r3]
 2755 0856 4E4A     		ldr	r2, .L166+16
 2756 0858 1360     		str	r3, [r2]
 664:state_machine.c ****                     Buzzer_Shot(Rotate_Buzzer__Default_Lenght);
 2757              		.loc 1 664 0
 2758 085a 4F4B     		ldr	r3, .L166+24
 2759 085c 1B68     		ldr	r3, [r3]
 2760 085e 1846     		mov	r0, r3
 2761 0860 FFF7FEFF 		bl	Buzzer_Shot
 2762              	.L143:
 665:state_machine.c ****                 }      
 666:state_machine.c ****             } 
 667:state_machine.c ****             if(Position_Number == 3){
 2763              		.loc 1 667 0
 2764 0864 494B     		ldr	r3, .L166+12
 2765 0866 1B78     		ldrb	r3, [r3]	@ zero_extendqisi2
 2766 0868 5BB2     		sxtb	r3, r3
 2767 086a 032B     		cmp	r3, #3
 2768 086c 2AD1     		bne	.L146
 668:state_machine.c ****                 if(!(Last_Counter == Current_Counter)){
 2769              		.loc 1 668 0
 2770 086e 484B     		ldr	r3, .L166+16
 2771 0870 1A68     		ldr	r2, [r3]
 2772 0872 454B     		ldr	r3, .L166+8
 2773 0874 1B68     		ldr	r3, [r3]
 2774 0876 9A42     		cmp	r2, r3
 2775 0878 24D0     		beq	.L146
 669:state_machine.c ****                     if(Last_Counter > Current_Counter){
 2776              		.loc 1 669 0
 2777 087a 454B     		ldr	r3, .L166+16
 2778 087c 1A68     		ldr	r2, [r3]
 2779 087e 424B     		ldr	r3, .L166+8
 2780 0880 1B68     		ldr	r3, [r3]
 2781 0882 9A42     		cmp	r2, r3
 2782 0884 07DD     		ble	.L147
 670:state_machine.c ****                         Set_Ampl_Temporary_Value = Set_Ampl_Temporary_Value - 1;
 2783              		.loc 1 670 0
 2784 0886 434B     		ldr	r3, .L166+20
 2785 0888 1B88     		ldrh	r3, [r3]
 2786 088a 9BB2     		uxth	r3, r3
 2787 088c 013B     		subs	r3, r3, #1
 2788 088e 9BB2     		uxth	r3, r3
 2789 0890 9AB2     		uxth	r2, r3
 2790 0892 404B     		ldr	r3, .L166+20
 2791 0894 1A80     		strh	r2, [r3]	@ movhi
 2792              	.L147:
 671:state_machine.c ****                     }
 672:state_machine.c ****                     if(Last_Counter < Current_Counter){
 2793              		.loc 1 672 0
 2794 0896 3E4B     		ldr	r3, .L166+16
 2795 0898 1A68     		ldr	r2, [r3]
 2796 089a 3B4B     		ldr	r3, .L166+8
ARM GAS  C:\Users\KJA\AppData\Local\Temp\ccAyzU2h.s 			page 62


 2797 089c 1B68     		ldr	r3, [r3]
 2798 089e 9A42     		cmp	r2, r3
 2799 08a0 07DA     		bge	.L148
 673:state_machine.c ****                         Set_Ampl_Temporary_Value = Set_Ampl_Temporary_Value + 1;
 2800              		.loc 1 673 0
 2801 08a2 3C4B     		ldr	r3, .L166+20
 2802 08a4 1B88     		ldrh	r3, [r3]
 2803 08a6 9BB2     		uxth	r3, r3
 2804 08a8 0133     		adds	r3, r3, #1
 2805 08aa 9BB2     		uxth	r3, r3
 2806 08ac 9AB2     		uxth	r2, r3
 2807 08ae 394B     		ldr	r3, .L166+20
 2808 08b0 1A80     		strh	r2, [r3]	@ movhi
 2809              	.L148:
 674:state_machine.c ****                     }
 675:state_machine.c ****                     Last_Counter = Current_Counter;   
 2810              		.loc 1 675 0
 2811 08b2 354B     		ldr	r3, .L166+8
 2812 08b4 1B68     		ldr	r3, [r3]
 2813 08b6 364A     		ldr	r2, .L166+16
 2814 08b8 1360     		str	r3, [r2]
 676:state_machine.c ****                     Buzzer_Shot(Rotate_Buzzer__Default_Lenght);
 2815              		.loc 1 676 0
 2816 08ba 374B     		ldr	r3, .L166+24
 2817 08bc 1B68     		ldr	r3, [r3]
 2818 08be 1846     		mov	r0, r3
 2819 08c0 FFF7FEFF 		bl	Buzzer_Shot
 2820              	.L146:
 677:state_machine.c ****                 }      
 678:state_machine.c ****             } 
 679:state_machine.c **** 
 680:state_machine.c ****             if(Set_Ampl_Temporary_Value > MaxSetValue){
 2821              		.loc 1 680 0
 2822 08c4 334B     		ldr	r3, .L166+20
 2823 08c6 1B88     		ldrh	r3, [r3]
 2824 08c8 1BB2     		sxth	r3, r3
 2825 08ca 1846     		mov	r0, r3
 2826 08cc FFF7FEFF 		bl	__aeabi_i2f
 2827 08d0 0346     		mov	r3, r0
 2828 08d2 1846     		mov	r0, r3
 2829 08d4 3968     		ldr	r1, [r7]	@ float
 2830 08d6 FFF7FEFF 		bl	__aeabi_fcmpgt
 2831 08da 0346     		mov	r3, r0
 2832 08dc 002B     		cmp	r3, #0
 2833 08de 0FD0     		beq	.L149
 681:state_machine.c ****                 Set_Ampl_Temporary_Value = MaxSetValue;
 2834              		.loc 1 681 0
 2835 08e0 3868     		ldr	r0, [r7]	@ float
 2836 08e2 FFF7FEFF 		bl	__aeabi_f2iz
 2837 08e6 0346     		mov	r3, r0
 2838 08e8 9AB2     		uxth	r2, r3
 2839 08ea 2A4B     		ldr	r3, .L166+20
 2840 08ec 1A80     		strh	r2, [r3]	@ movhi
 682:state_machine.c ****                 Buzzer_Shot(10*Rotate_Buzzer__Default_Lenght);
 2841              		.loc 1 682 0
 2842 08ee 2A4B     		ldr	r3, .L166+24
 2843 08f0 1A68     		ldr	r2, [r3]
ARM GAS  C:\Users\KJA\AppData\Local\Temp\ccAyzU2h.s 			page 63


 2844 08f2 1346     		mov	r3, r2
 2845 08f4 9B00     		lsls	r3, r3, #2
 2846 08f6 1344     		add	r3, r3, r2
 2847 08f8 5B00     		lsls	r3, r3, #1
 2848 08fa 1846     		mov	r0, r3
 2849 08fc FFF7FEFF 		bl	Buzzer_Shot
 2850              	.L149:
 683:state_machine.c ****             }
 684:state_machine.c ****             if(Set_Ampl_Temporary_Value < 0){
 2851              		.loc 1 684 0
 2852 0900 244B     		ldr	r3, .L166+20
 2853 0902 1B88     		ldrh	r3, [r3]
 2854 0904 1BB2     		sxth	r3, r3
 2855 0906 002B     		cmp	r3, #0
 2856 0908 0BDA     		bge	.L151
 685:state_machine.c ****                 Set_Ampl_Temporary_Value = 0;
 2857              		.loc 1 685 0
 2858 090a 224B     		ldr	r3, .L166+20
 2859 090c 0022     		movs	r2, #0
 2860 090e 1A80     		strh	r2, [r3]	@ movhi
 686:state_machine.c ****                 Buzzer_Shot(10*Rotate_Buzzer__Default_Lenght);
 2861              		.loc 1 686 0
 2862 0910 214B     		ldr	r3, .L166+24
 2863 0912 1A68     		ldr	r2, [r3]
 2864 0914 1346     		mov	r3, r2
 2865 0916 9B00     		lsls	r3, r3, #2
 2866 0918 1344     		add	r3, r3, r2
 2867 091a 5B00     		lsls	r3, r3, #1
 2868 091c 1846     		mov	r0, r3
 2869 091e FFF7FEFF 		bl	Buzzer_Shot
 2870              	.L151:
 687:state_machine.c ****             }
 688:state_machine.c ****             Set_Ampl = Set_Ampl_Temporary_Value;  
 2871              		.loc 1 688 0
 2872 0922 1C4B     		ldr	r3, .L166+20
 2873 0924 1A88     		ldrh	r2, [r3]
 2874 0926 1D4B     		ldr	r3, .L166+28
 2875 0928 1A80     		strh	r2, [r3]	@ movhi
 2876              	.L117:
 689:state_machine.c ****         } 
 690:state_machine.c ****         
 691:state_machine.c ****         
 692:state_machine.c ****         // Encoder Push
 693:state_machine.c ****         if(!(Push_Reg_Read() == 0)){
 2877              		.loc 1 693 0
 2878 092a FFF7FEFF 		bl	Push_Reg_Read
 2879 092e 0346     		mov	r3, r0
 2880 0930 002B     		cmp	r3, #0
 2881 0932 0ED0     		beq	.L97
 694:state_machine.c ****             Edit_Value_Mode = 0;
 2882              		.loc 1 694 0
 2883 0934 1A4B     		ldr	r3, .L166+32
 2884 0936 0022     		movs	r2, #0
 2885 0938 1A70     		strb	r2, [r3]
 695:state_machine.c ****             QD_SetCounter(Current_Edit_Value);
 2886              		.loc 1 695 0
 2887 093a 114B     		ldr	r3, .L166
ARM GAS  C:\Users\KJA\AppData\Local\Temp\ccAyzU2h.s 			page 64


 2888 093c 1B78     		ldrb	r3, [r3]	@ zero_extendqisi2
 2889 093e 9BB2     		uxth	r3, r3
 2890 0940 1BB2     		sxth	r3, r3
 2891 0942 1846     		mov	r0, r3
 2892 0944 FFF7FEFF 		bl	QD_SetCounter
 696:state_machine.c ****             Buzzer_Shot(Push_Buzzer__Default_Lenght);
 2893              		.loc 1 696 0
 2894 0948 164B     		ldr	r3, .L166+36
 2895 094a 1B68     		ldr	r3, [r3]
 2896 094c 1846     		mov	r0, r3
 2897 094e FFF7FEFF 		bl	Buzzer_Shot
 2898              	.L97:
 697:state_machine.c ****         }  
 698:state_machine.c ****         
 699:state_machine.c ****     }
 700:state_machine.c ****         
 701:state_machine.c ****             
 702:state_machine.c ****     if(!(button1 == 0)){    //Output Enable Button
 2899              		.loc 1 702 0
 2900 0952 154B     		ldr	r3, .L166+40
 2901 0954 1B78     		ldrb	r3, [r3]	@ zero_extendqisi2
 2902 0956 002B     		cmp	r3, #0
 2903 0958 30D0     		beq	.L152
 703:state_machine.c ****         Buzzer_Shot(Push_Buzzer__Default_Lenght);
 2904              		.loc 1 703 0
 2905 095a 124B     		ldr	r3, .L166+36
 2906 095c 1B68     		ldr	r3, [r3]
 2907 095e 1846     		mov	r0, r3
 2908 0960 FFF7FEFF 		bl	Buzzer_Shot
 704:state_machine.c ****         if(OutputEnable == 0){
 2909              		.loc 1 704 0
 2910 0964 114B     		ldr	r3, .L166+44
 2911 0966 1B78     		ldrb	r3, [r3]	@ zero_extendqisi2
 2912 0968 002B     		cmp	r3, #0
 2913 096a 21D1     		bne	.L153
 705:state_machine.c ****             if(Check_Input() == 1){
 2914              		.loc 1 705 0
 2915 096c FFF7FEFF 		bl	Check_Input
 2916 0970 0346     		mov	r3, r0
 2917 0972 012B     		cmp	r3, #1
 2918 0974 1FD1     		bne	.L155
 706:state_machine.c ****                 OutputEnable = 1;
 2919              		.loc 1 706 0
 2920 0976 0D4B     		ldr	r3, .L166+44
 2921 0978 0122     		movs	r2, #1
 2922 097a 1A70     		strb	r2, [r3]
 2923 097c 1BE0     		b	.L155
 2924              	.L167:
 2925 097e 00BF     		.align	2
 2926              	.L166:
 2927 0980 00000000 		.word	Current_Edit_Value
 2928 0984 0000FA44 		.word	1157234688
 2929 0988 00000000 		.word	Current_Counter
 2930 098c 00000000 		.word	Position_Number
 2931 0990 00000000 		.word	Last_Counter
 2932 0994 00000000 		.word	Set_Ampl_Temporary_Value
 2933 0998 00000000 		.word	Rotate_Buzzer__Default_Lenght
ARM GAS  C:\Users\KJA\AppData\Local\Temp\ccAyzU2h.s 			page 65


 2934 099c 00000000 		.word	Set_Ampl
 2935 09a0 00000000 		.word	Edit_Value_Mode
 2936 09a4 00000000 		.word	Push_Buzzer__Default_Lenght
 2937 09a8 00000000 		.word	button1
 2938 09ac 00000000 		.word	OutputEnable
 2939              	.L153:
 707:state_machine.c ****             }
 708:state_machine.c ****         }
 709:state_machine.c ****         else OutputEnable = 0;
 2940              		.loc 1 709 0
 2941 09b0 114B     		ldr	r3, .L168
 2942 09b2 0022     		movs	r2, #0
 2943 09b4 1A70     		strb	r2, [r3]
 2944              	.L155:
 710:state_machine.c ****         Edit_Value_Mode = 0;      
 2945              		.loc 1 710 0
 2946 09b6 114B     		ldr	r3, .L168+4
 2947 09b8 0022     		movs	r2, #0
 2948 09ba 1A70     		strb	r2, [r3]
 2949              	.L152:
 711:state_machine.c ****     }
 712:state_machine.c ****     
 713:state_machine.c ****     
 714:state_machine.c ****     if(!(button4 == 0)){    //Back
 2950              		.loc 1 714 0
 2951 09bc 104B     		ldr	r3, .L168+8
 2952 09be 1B78     		ldrb	r3, [r3]	@ zero_extendqisi2
 2953 09c0 002B     		cmp	r3, #0
 2954 09c2 15D0     		beq	.L87
 715:state_machine.c ****         QD_SetCounter(3);
 2955              		.loc 1 715 0
 2956 09c4 0320     		movs	r0, #3
 2957 09c6 FFF7FEFF 		bl	QD_SetCounter
 716:state_machine.c ****         DAC_MUX_Select(0);   // GND
 2958              		.loc 1 716 0
 2959 09ca 0020     		movs	r0, #0
 2960 09cc FFF7FEFF 		bl	DAC_MUX_Select
 717:state_machine.c ****         OutputEnable = 0;
 2961              		.loc 1 717 0
 2962 09d0 094B     		ldr	r3, .L168
 2963 09d2 0022     		movs	r2, #0
 2964 09d4 1A70     		strb	r2, [r3]
 718:state_machine.c ****         RELAY_Write(0);
 2965              		.loc 1 718 0
 2966 09d6 0020     		movs	r0, #0
 2967 09d8 FFF7FEFF 		bl	RELAY_Write
 719:state_machine.c ****         PWM_Driver_Stop();     //Stop PWM
 2968              		.loc 1 719 0
 2969 09dc FFF7FEFF 		bl	PWM_Driver_Stop
 720:state_machine.c ****         Current_State = ArbitraryMode;
 2970              		.loc 1 720 0
 2971 09e0 084B     		ldr	r3, .L168+12
 2972 09e2 0322     		movs	r2, #3
 2973 09e4 1A70     		strb	r2, [r3]
 721:state_machine.c ****         Buzzer_Shot(Push_Buzzer__Default_Lenght);
 2974              		.loc 1 721 0
 2975 09e6 084B     		ldr	r3, .L168+16
ARM GAS  C:\Users\KJA\AppData\Local\Temp\ccAyzU2h.s 			page 66


 2976 09e8 1B68     		ldr	r3, [r3]
 2977 09ea 1846     		mov	r0, r3
 2978 09ec FFF7FEFF 		bl	Buzzer_Shot
 2979              	.L87:
 722:state_machine.c ****     }
 723:state_machine.c ****     
 724:state_machine.c **** }
 2980              		.loc 1 724 0
 2981 09f0 0C37     		adds	r7, r7, #12
 2982              		.cfi_def_cfa_offset 12
 2983 09f2 BD46     		mov	sp, r7
 2984              		.cfi_def_cfa_register 13
 2985              		@ sp needed
 2986 09f4 90BD     		pop	{r4, r7, pc}
 2987              	.L169:
 2988 09f6 00BF     		.align	2
 2989              	.L168:
 2990 09f8 00000000 		.word	OutputEnable
 2991 09fc 00000000 		.word	Edit_Value_Mode
 2992 0a00 00000000 		.word	button4
 2993 0a04 00000000 		.word	Current_State
 2994 0a08 00000000 		.word	Push_Buzzer__Default_Lenght
 2995              		.cfi_endproc
 2996              	.LFE73:
 2997              		.size	State_Machine_PWM_Mode, .-State_Machine_PWM_Mode
 2998              		.section	.text.State_Machine_External_Drive,"ax",%progbits
 2999              		.align	2
 3000              		.global	State_Machine_External_Drive
 3001              		.thumb
 3002              		.thumb_func
 3003              		.type	State_Machine_External_Drive, %function
 3004              	State_Machine_External_Drive:
 3005              	.LFB74:
 725:state_machine.c **** 
 726:state_machine.c **** 
 727:state_machine.c **** void State_Machine_External_Drive(){
 3006              		.loc 1 727 0
 3007              		.cfi_startproc
 3008              		@ args = 0, pretend = 0, frame = 0
 3009              		@ frame_needed = 1, uses_anonymous_args = 0
 3010 0000 98B5     		push	{r3, r4, r7, lr}
 3011              		.cfi_def_cfa_offset 16
 3012              		.cfi_offset 3, -16
 3013              		.cfi_offset 4, -12
 3014              		.cfi_offset 7, -8
 3015              		.cfi_offset 14, -4
 3016 0002 00AF     		add	r7, sp, #0
 3017              		.cfi_def_cfa_register 7
 728:state_machine.c ****     
 729:state_machine.c ****     // Secondary Loop Counter
 730:state_machine.c ****     Loop_Counter++;
 3018              		.loc 1 730 0
 3019 0004 0C4B     		ldr	r3, .L172
 3020 0006 1B68     		ldr	r3, [r3]
 3021 0008 0133     		adds	r3, r3, #1
 3022 000a 0B4A     		ldr	r2, .L172
 3023 000c 1360     		str	r3, [r2]
ARM GAS  C:\Users\KJA\AppData\Local\Temp\ccAyzU2h.s 			page 67


 731:state_machine.c ****     if(Loop_Counter >= 1000){
 3024              		.loc 1 731 0
 3025 000e 0A4B     		ldr	r3, .L172
 3026 0010 1B68     		ldr	r3, [r3]
 3027 0012 B3F57A7F 		cmp	r3, #1000
 3028 0016 0ED3     		bcc	.L170
 732:state_machine.c ****         LCD_Draw(Current_State, Get_Encoder_Menu(0,3));
 3029              		.loc 1 732 0
 3030 0018 084B     		ldr	r3, .L172+4
 3031 001a 1C78     		ldrb	r4, [r3]	@ zero_extendqisi2
 3032 001c 0020     		movs	r0, #0
 3033 001e 0321     		movs	r1, #3
 3034 0020 FFF7FEFF 		bl	Get_Encoder_Menu
 3035 0024 0346     		mov	r3, r0
 3036 0026 DBB2     		uxtb	r3, r3
 3037 0028 2046     		mov	r0, r4
 3038 002a 1946     		mov	r1, r3
 3039 002c FFF7FEFF 		bl	LCD_Draw
 733:state_machine.c ****         Loop_Counter = 0;
 3040              		.loc 1 733 0
 3041 0030 014B     		ldr	r3, .L172
 3042 0032 0022     		movs	r2, #0
 3043 0034 1A60     		str	r2, [r3]
 3044              	.L170:
 734:state_machine.c ****     }
 735:state_machine.c ****     
 736:state_machine.c **** }
 3045              		.loc 1 736 0
 3046 0036 98BD     		pop	{r3, r4, r7, pc}
 3047              	.L173:
 3048              		.align	2
 3049              	.L172:
 3050 0038 00000000 		.word	Loop_Counter
 3051 003c 00000000 		.word	Current_State
 3052              		.cfi_endproc
 3053              	.LFE74:
 3054              		.size	State_Machine_External_Drive, .-State_Machine_External_Drive
 3055              		.global	__aeabi_fmul
 3056              		.global	__aeabi_fadd
 3057              		.global	__aeabi_fdiv
 3058              		.section	.rodata
 3059 001e 0000     		.align	2
 3060              	.LC4:
 3061 0020 25322E32 		.ascii	"%2.2fV\000"
 3061      665600
 3062 0027 00       		.align	2
 3063              	.LC5:
 3064 0028 25322E32 		.ascii	"%2.2fA\000"
 3064      664100
 3065 002f 00       		.align	2
 3066              	.LC6:
 3067 0030 25332E32 		.ascii	"%3.2fW\000"
 3067      665700
 3068 0037 00       		.align	2
 3069              	.LC7:
 3070 0038 25342E31 		.ascii	"%4.1fohm\000"
 3070      666F686D 
ARM GAS  C:\Users\KJA\AppData\Local\Temp\ccAyzU2h.s 			page 68


 3070      00
 3071              		.global	__aeabi_fsub
 3072              		.global	__aeabi_dcmpgt
 3073 0041 000000   		.align	2
 3074              	.LC8:
 3075 0044 25322E32 		.ascii	"%2.2fW\000"
 3075      665700
 3076              		.global	__aeabi_dsub
 3077              		.global	__aeabi_d2f
 3078              		.global	__aeabi_dadd
 3079              		.global	__aeabi_fcmplt
 3080              		.section	.text.State_Machine_ConstantCurrent,"ax",%progbits
 3081              		.align	2
 3082              		.global	State_Machine_ConstantCurrent
 3083              		.thumb
 3084              		.thumb_func
 3085              		.type	State_Machine_ConstantCurrent, %function
 3086              	State_Machine_ConstantCurrent:
 3087              	.LFB75:
 737:state_machine.c **** 
 738:state_machine.c **** 
 739:state_machine.c **** void State_Machine_ConstantCurrent(){
 3088              		.loc 1 739 0
 3089              		.cfi_startproc
 3090              		@ args = 0, pretend = 0, frame = 8
 3091              		@ frame_needed = 1, uses_anonymous_args = 0
 3092 0000 90B5     		push	{r4, r7, lr}
 3093              		.cfi_def_cfa_offset 12
 3094              		.cfi_offset 4, -12
 3095              		.cfi_offset 7, -8
 3096              		.cfi_offset 14, -4
 3097 0002 83B0     		sub	sp, sp, #12
 3098              		.cfi_def_cfa_offset 24
 3099 0004 00AF     		add	r7, sp, #0
 3100              		.cfi_def_cfa_register 7
 740:state_machine.c ****     
 741:state_machine.c ****     CAP_EN_Write(1);    // Enable 10nF Cap
 3101              		.loc 1 741 0
 3102 0006 0120     		movs	r0, #1
 3103 0008 FFF7FEFF 		bl	CAP_EN_Write
 742:state_machine.c ****     PWM_Driver_Stop();     //Stop PWM
 3104              		.loc 1 742 0
 3105 000c FFF7FEFF 		bl	PWM_Driver_Stop
 743:state_machine.c ****     
 744:state_machine.c ****     float MaxSetValue = MaxCurrent;
 3106              		.loc 1 744 0
 3107 0010 864B     		ldr	r3, .L223
 3108 0012 1B68     		ldr	r3, [r3]	@ float
 3109 0014 7B60     		str	r3, [r7, #4]	@ float
 745:state_machine.c ****            
 746:state_machine.c ****     // Secondary Loop Counter
 747:state_machine.c ****     Loop_Counter++;
 3110              		.loc 1 747 0
 3111 0016 864B     		ldr	r3, .L223+4
 3112 0018 1B68     		ldr	r3, [r3]
 3113 001a 0133     		adds	r3, r3, #1
 3114 001c 844A     		ldr	r2, .L223+4
ARM GAS  C:\Users\KJA\AppData\Local\Temp\ccAyzU2h.s 			page 69


 3115 001e 1360     		str	r3, [r2]
 748:state_machine.c ****     
 749:state_machine.c ****      
 750:state_machine.c ****     // Voltage, Current, Power Measurement and Calculations
 751:state_machine.c ****     MeasuredVoltage = ADC_SAR_1_GetResult16();
 3116              		.loc 1 751 0
 3117 0020 FFF7FEFF 		bl	ADC_SAR_1_GetResult16
 3118 0024 0346     		mov	r3, r0
 3119 0026 9AB2     		uxth	r2, r3
 3120 0028 824B     		ldr	r3, .L223+8
 3121 002a 1A80     		strh	r2, [r3]	@ movhi
 752:state_machine.c ****     MeasuredCurrent = ADC_SAR_2_GetResult16() - LEM_Offset_Value;      
 3122              		.loc 1 752 0
 3123 002c FFF7FEFF 		bl	ADC_SAR_2_GetResult16
 3124 0030 0346     		mov	r3, r0
 3125 0032 9AB2     		uxth	r2, r3
 3126 0034 804B     		ldr	r3, .L223+12
 3127 0036 1B78     		ldrb	r3, [r3]	@ zero_extendqisi2
 3128 0038 9BB2     		uxth	r3, r3
 3129 003a D31A     		subs	r3, r2, r3
 3130 003c 9BB2     		uxth	r3, r3
 3131 003e 9AB2     		uxth	r2, r3
 3132 0040 7E4B     		ldr	r3, .L223+16
 3133 0042 1A80     		strh	r2, [r3]	@ movhi
 753:state_machine.c ****     
 754:state_machine.c ****     if(Four_Wire_Method ==1){
 3134              		.loc 1 754 0
 3135 0044 7E4B     		ldr	r3, .L223+20
 3136 0046 1B78     		ldrb	r3, [r3]	@ zero_extendqisi2
 3137 0048 012B     		cmp	r3, #1
 3138 004a 15D1     		bne	.L175
 755:state_machine.c ****         VOLTAGE_SELECT_Write(1);
 3139              		.loc 1 755 0
 3140 004c 0120     		movs	r0, #1
 3141 004e FFF7FEFF 		bl	VOLTAGE_SELECT_Write
 756:state_machine.c ****         fVoltage = Four_Wire_Range*ADC_SAR_1_CountsTo_Volts(MeasuredVoltage); 
 3142              		.loc 1 756 0
 3143 0052 784B     		ldr	r3, .L223+8
 3144 0054 1B88     		ldrh	r3, [r3]
 3145 0056 9BB2     		uxth	r3, r3
 3146 0058 1BB2     		sxth	r3, r3
 3147 005a 1846     		mov	r0, r3
 3148 005c FFF7FEFF 		bl	ADC_SAR_1_CountsTo_Volts
 3149 0060 0246     		mov	r2, r0
 3150 0062 784B     		ldr	r3, .L223+24
 3151 0064 1B68     		ldr	r3, [r3]	@ float
 3152 0066 1046     		mov	r0, r2
 3153 0068 1946     		mov	r1, r3
 3154 006a FFF7FEFF 		bl	__aeabi_fmul
 3155 006e 0346     		mov	r3, r0
 3156 0070 1A46     		mov	r2, r3
 3157 0072 754B     		ldr	r3, .L223+28
 3158 0074 1A60     		str	r2, [r3]	@ float
 3159 0076 14E0     		b	.L176
 3160              	.L175:
 757:state_machine.c ****     }
 758:state_machine.c ****     else{
ARM GAS  C:\Users\KJA\AppData\Local\Temp\ccAyzU2h.s 			page 70


 759:state_machine.c ****         VOLTAGE_SELECT_Write(0);
 3161              		.loc 1 759 0
 3162 0078 0020     		movs	r0, #0
 3163 007a FFF7FEFF 		bl	VOLTAGE_SELECT_Write
 760:state_machine.c ****         fVoltage = Two_Wire_Range*ADC_SAR_1_CountsTo_Volts(MeasuredVoltage);        
 3164              		.loc 1 760 0
 3165 007e 6D4B     		ldr	r3, .L223+8
 3166 0080 1B88     		ldrh	r3, [r3]
 3167 0082 9BB2     		uxth	r3, r3
 3168 0084 1BB2     		sxth	r3, r3
 3169 0086 1846     		mov	r0, r3
 3170 0088 FFF7FEFF 		bl	ADC_SAR_1_CountsTo_Volts
 3171 008c 0246     		mov	r2, r0
 3172 008e 6F4B     		ldr	r3, .L223+32
 3173 0090 1B68     		ldr	r3, [r3]	@ float
 3174 0092 1046     		mov	r0, r2
 3175 0094 1946     		mov	r1, r3
 3176 0096 FFF7FEFF 		bl	__aeabi_fmul
 3177 009a 0346     		mov	r3, r0
 3178 009c 1A46     		mov	r2, r3
 3179 009e 6A4B     		ldr	r3, .L223+28
 3180 00a0 1A60     		str	r2, [r3]	@ float
 3181              	.L176:
 761:state_machine.c ****     }
 762:state_machine.c ****     
 763:state_machine.c ****     SredniaV = SredniaV*dtV;
 3182              		.loc 1 763 0
 3183 00a2 6B4B     		ldr	r3, .L223+36
 3184 00a4 1B78     		ldrb	r3, [r3]	@ zero_extendqisi2
 3185 00a6 1846     		mov	r0, r3
 3186 00a8 FFF7FEFF 		bl	__aeabi_i2f
 3187 00ac 0246     		mov	r2, r0
 3188 00ae 694B     		ldr	r3, .L223+40
 3189 00b0 1B68     		ldr	r3, [r3]	@ float
 3190 00b2 1046     		mov	r0, r2
 3191 00b4 1946     		mov	r1, r3
 3192 00b6 FFF7FEFF 		bl	__aeabi_fmul
 3193 00ba 0346     		mov	r3, r0
 3194 00bc 1A46     		mov	r2, r3
 3195 00be 654B     		ldr	r3, .L223+40
 3196 00c0 1A60     		str	r2, [r3]	@ float
 764:state_machine.c ****     SredniaV = SredniaV + fVoltage;
 3197              		.loc 1 764 0
 3198 00c2 644B     		ldr	r3, .L223+40
 3199 00c4 1A68     		ldr	r2, [r3]	@ float
 3200 00c6 604B     		ldr	r3, .L223+28
 3201 00c8 1B68     		ldr	r3, [r3]	@ float
 3202 00ca 1046     		mov	r0, r2
 3203 00cc 1946     		mov	r1, r3
 3204 00ce FFF7FEFF 		bl	__aeabi_fadd
 3205 00d2 0346     		mov	r3, r0
 3206 00d4 1A46     		mov	r2, r3
 3207 00d6 5F4B     		ldr	r3, .L223+40
 3208 00d8 1A60     		str	r2, [r3]	@ float
 765:state_machine.c ****     SredniaV = SredniaV / (dtV+1);
 3209              		.loc 1 765 0
 3210 00da 5E4B     		ldr	r3, .L223+40
ARM GAS  C:\Users\KJA\AppData\Local\Temp\ccAyzU2h.s 			page 71


 3211 00dc 1C68     		ldr	r4, [r3]	@ float
 3212 00de 5C4B     		ldr	r3, .L223+36
 3213 00e0 1B78     		ldrb	r3, [r3]	@ zero_extendqisi2
 3214 00e2 0133     		adds	r3, r3, #1
 3215 00e4 1846     		mov	r0, r3
 3216 00e6 FFF7FEFF 		bl	__aeabi_i2f
 3217 00ea 0346     		mov	r3, r0
 3218 00ec 2046     		mov	r0, r4
 3219 00ee 1946     		mov	r1, r3
 3220 00f0 FFF7FEFF 		bl	__aeabi_fdiv
 3221 00f4 0346     		mov	r3, r0
 3222 00f6 1A46     		mov	r2, r3
 3223 00f8 564B     		ldr	r3, .L223+40
 3224 00fa 1A60     		str	r2, [r3]	@ float
 766:state_machine.c ****     fVoltage = SredniaV;
 3225              		.loc 1 766 0
 3226 00fc 554B     		ldr	r3, .L223+40
 3227 00fe 1B68     		ldr	r3, [r3]	@ float
 3228 0100 514A     		ldr	r2, .L223+28
 3229 0102 1360     		str	r3, [r2]	@ float
 767:state_machine.c ****     
 768:state_machine.c ****     
 769:state_machine.c ****     
 770:state_machine.c ****     if(Actual_Range == 1) fCurrent = Current_Calibration_Range1 * ADC_SAR_2_CountsTo_Volts(Measured
 3230              		.loc 1 770 0
 3231 0104 544B     		ldr	r3, .L223+44
 3232 0106 1B78     		ldrb	r3, [r3]	@ zero_extendqisi2
 3233 0108 012B     		cmp	r3, #1
 3234 010a 10D1     		bne	.L177
 3235              		.loc 1 770 0 is_stmt 0 discriminator 1
 3236 010c 4B4B     		ldr	r3, .L223+16
 3237 010e 1B88     		ldrh	r3, [r3]
 3238 0110 1BB2     		sxth	r3, r3
 3239 0112 1846     		mov	r0, r3
 3240 0114 FFF7FEFF 		bl	ADC_SAR_2_CountsTo_Volts
 3241 0118 0246     		mov	r2, r0
 3242 011a 504B     		ldr	r3, .L223+48
 3243 011c 1B68     		ldr	r3, [r3]	@ float
 3244 011e 1046     		mov	r0, r2
 3245 0120 1946     		mov	r1, r3
 3246 0122 FFF7FEFF 		bl	__aeabi_fmul
 3247 0126 0346     		mov	r3, r0
 3248 0128 1A46     		mov	r2, r3
 3249 012a 4D4B     		ldr	r3, .L223+52
 3250 012c 1A60     		str	r2, [r3]	@ float
 3251              	.L177:
 771:state_machine.c **** //    else if (Actual_Range == 2) fCurrent = Current_Calibration_Range2*ADC_SAR_2_CountsTo_Volts(Me
 772:state_machine.c **** //    else if (Actual_Range == 3) fCurrent = Current_Calibration_Range3*ADC_SAR_2_CountsTo_Volts(Me
 773:state_machine.c ****     
 774:state_machine.c ****     fPower = fVoltage*fCurrent;
 3252              		.loc 1 774 0 is_stmt 1
 3253 012e 464B     		ldr	r3, .L223+28
 3254 0130 1A68     		ldr	r2, [r3]	@ float
 3255 0132 4B4B     		ldr	r3, .L223+52
 3256 0134 1B68     		ldr	r3, [r3]	@ float
 3257 0136 1046     		mov	r0, r2
 3258 0138 1946     		mov	r1, r3
ARM GAS  C:\Users\KJA\AppData\Local\Temp\ccAyzU2h.s 			page 72


 3259 013a FFF7FEFF 		bl	__aeabi_fmul
 3260 013e 0346     		mov	r3, r0
 3261 0140 1A46     		mov	r2, r3
 3262 0142 484B     		ldr	r3, .L223+56
 3263 0144 1A60     		str	r2, [r3]	@ float
 775:state_machine.c ****     
 776:state_machine.c ****     Set_Power = fVoltage*Set_Current;
 3264              		.loc 1 776 0
 3265 0146 404B     		ldr	r3, .L223+28
 3266 0148 1A68     		ldr	r2, [r3]	@ float
 3267 014a 474B     		ldr	r3, .L223+60
 3268 014c 1B68     		ldr	r3, [r3]	@ float
 3269 014e 1046     		mov	r0, r2
 3270 0150 1946     		mov	r1, r3
 3271 0152 FFF7FEFF 		bl	__aeabi_fmul
 3272 0156 0346     		mov	r3, r0
 3273 0158 1A46     		mov	r2, r3
 3274 015a 444B     		ldr	r3, .L223+64
 3275 015c 1A60     		str	r2, [r3]	@ float
 777:state_machine.c ****     Set_Resist = fVoltage/Set_Current; 
 3276              		.loc 1 777 0
 3277 015e 3A4B     		ldr	r3, .L223+28
 3278 0160 1A68     		ldr	r2, [r3]	@ float
 3279 0162 414B     		ldr	r3, .L223+60
 3280 0164 1B68     		ldr	r3, [r3]	@ float
 3281 0166 1046     		mov	r0, r2
 3282 0168 1946     		mov	r1, r3
 3283 016a FFF7FEFF 		bl	__aeabi_fdiv
 3284 016e 0346     		mov	r3, r0
 3285 0170 1A46     		mov	r2, r3
 3286 0172 3F4B     		ldr	r3, .L223+68
 3287 0174 1A60     		str	r2, [r3]	@ float
 778:state_machine.c ****     fResist = fVoltage/fCurrent;
 3288              		.loc 1 778 0
 3289 0176 344B     		ldr	r3, .L223+28
 3290 0178 1A68     		ldr	r2, [r3]	@ float
 3291 017a 394B     		ldr	r3, .L223+52
 3292 017c 1B68     		ldr	r3, [r3]	@ float
 3293 017e 1046     		mov	r0, r2
 3294 0180 1946     		mov	r1, r3
 3295 0182 FFF7FEFF 		bl	__aeabi_fdiv
 3296 0186 0346     		mov	r3, r0
 3297 0188 1A46     		mov	r2, r3
 3298 018a 3A4B     		ldr	r3, .L223+72
 3299 018c 1A60     		str	r2, [r3]	@ float
 779:state_machine.c ****     
 780:state_machine.c ****     
 781:state_machine.c ****     
 782:state_machine.c ****     
 783:state_machine.c ****     // Check for OverVoltage
 784:state_machine.c ****     if(fVoltage > MaxVoltage){
 3300              		.loc 1 784 0
 3301 018e 2E4B     		ldr	r3, .L223+28
 3302 0190 1A68     		ldr	r2, [r3]	@ float
 3303 0192 394B     		ldr	r3, .L223+76
 3304 0194 1B68     		ldr	r3, [r3]	@ float
 3305 0196 1046     		mov	r0, r2
ARM GAS  C:\Users\KJA\AppData\Local\Temp\ccAyzU2h.s 			page 73


 3306 0198 1946     		mov	r1, r3
 3307 019a FFF7FEFF 		bl	__aeabi_fcmpgt
 3308 019e 0346     		mov	r3, r0
 3309 01a0 002B     		cmp	r3, #0
 3310 01a2 0CD0     		beq	.L178
 785:state_machine.c ****         OutputEnable = 0;
 3311              		.loc 1 785 0
 3312 01a4 354B     		ldr	r3, .L223+80
 3313 01a6 0022     		movs	r2, #0
 3314 01a8 1A70     		strb	r2, [r3]
 786:state_machine.c ****         Previous_State = Current_State;
 3315              		.loc 1 786 0
 3316 01aa 354B     		ldr	r3, .L223+84
 3317 01ac 1A78     		ldrb	r2, [r3]	@ zero_extendqisi2
 3318 01ae 354B     		ldr	r3, .L223+88
 3319 01b0 1A70     		strb	r2, [r3]
 787:state_machine.c ****         Current_State = Error_OV;
 3320              		.loc 1 787 0
 3321 01b2 334B     		ldr	r3, .L223+84
 3322 01b4 0C22     		movs	r2, #12
 3323 01b6 1A70     		strb	r2, [r3]
 788:state_machine.c ****         Buzzer_Shot(500000);
 3324              		.loc 1 788 0
 3325 01b8 3348     		ldr	r0, .L223+92
 3326 01ba FFF7FEFF 		bl	Buzzer_Shot
 3327              	.L178:
 789:state_machine.c ****     }
 790:state_machine.c ****     
 791:state_machine.c **** 
 792:state_machine.c ****     // Output Enable Case
 793:state_machine.c ****     if(OutputEnable == 1){
 3328              		.loc 1 793 0
 3329 01be 2F4B     		ldr	r3, .L223+80
 3330 01c0 1B78     		ldrb	r3, [r3]	@ zero_extendqisi2
 3331 01c2 012B     		cmp	r3, #1
 3332 01c4 40F02B81 		bne	.L180
 794:state_machine.c ****         
 795:state_machine.c ****         if(!(Input_Reg_Read())){
 3333              		.loc 1 795 0
 3334 01c8 FFF7FEFF 		bl	Input_Reg_Read
 3335 01cc 0346     		mov	r3, r0
 3336 01ce 002B     		cmp	r3, #0
 3337 01d0 0DD1     		bne	.L181
 796:state_machine.c ****             OutputEnable = 0;
 3338              		.loc 1 796 0
 3339 01d2 2A4B     		ldr	r3, .L223+80
 3340 01d4 0022     		movs	r2, #0
 3341 01d6 1A70     		strb	r2, [r3]
 797:state_machine.c ****             Previous_State = Current_State;
 3342              		.loc 1 797 0
 3343 01d8 294B     		ldr	r3, .L223+84
 3344 01da 1A78     		ldrb	r2, [r3]	@ zero_extendqisi2
 3345 01dc 294B     		ldr	r3, .L223+88
 3346 01de 1A70     		strb	r2, [r3]
 798:state_machine.c ****             Current_State = Error_OC;
 3347              		.loc 1 798 0
 3348 01e0 274B     		ldr	r3, .L223+84
ARM GAS  C:\Users\KJA\AppData\Local\Temp\ccAyzU2h.s 			page 74


 3349 01e2 0F22     		movs	r2, #15
 3350 01e4 1A70     		strb	r2, [r3]
 799:state_machine.c ****             Buzzer_Shot(500000);
 3351              		.loc 1 799 0
 3352 01e6 2848     		ldr	r0, .L223+92
 3353 01e8 FFF7FEFF 		bl	Buzzer_Shot
 3354 01ec 17E1     		b	.L180
 3355              	.L181:
 800:state_machine.c ****         }
 801:state_machine.c ****         else if(OverTemperature == 1){
 3356              		.loc 1 801 0
 3357 01ee 274B     		ldr	r3, .L223+96
 3358 01f0 1B78     		ldrb	r3, [r3]	@ zero_extendqisi2
 3359 01f2 012B     		cmp	r3, #1
 3360 01f4 4ED1     		bne	.L182
 802:state_machine.c **** 
 803:state_machine.c ****             DACValue = 0;
 3361              		.loc 1 803 0
 3362 01f6 264B     		ldr	r3, .L223+100
 3363 01f8 0022     		movs	r2, #0
 3364 01fa 1A80     		strh	r2, [r3]	@ movhi
 804:state_machine.c ****             DVDAC8_1_SetValue(0); 
 3365              		.loc 1 804 0
 3366 01fc 0020     		movs	r0, #0
 3367 01fe FFF7FEFF 		bl	DVDAC8_1_SetValue
 805:state_machine.c ****             DAC_MUX_Select(0);     
 3368              		.loc 1 805 0
 3369 0202 0020     		movs	r0, #0
 3370 0204 FFF7FEFF 		bl	DAC_MUX_Select
 806:state_machine.c ****             
 807:state_machine.c ****             // Disable Relay
 808:state_machine.c ****             RELAY_Write(0);
 3371              		.loc 1 808 0
 3372 0208 0020     		movs	r0, #0
 3373 020a FFF7FEFF 		bl	RELAY_Write
 809:state_machine.c ****             
 810:state_machine.c ****             Buzzer_Shot(500000);
 3374              		.loc 1 810 0
 3375 020e 1E48     		ldr	r0, .L223+92
 3376 0210 FFF7FEFF 		bl	Buzzer_Shot
 811:state_machine.c ****             
 812:state_machine.c ****             OutputEnable = 0;
 3377              		.loc 1 812 0
 3378 0214 194B     		ldr	r3, .L223+80
 3379 0216 0022     		movs	r2, #0
 3380 0218 1A70     		strb	r2, [r3]
 813:state_machine.c ****             Previous_State = Current_State;
 3381              		.loc 1 813 0
 3382 021a 194B     		ldr	r3, .L223+84
 3383 021c 1A78     		ldrb	r2, [r3]	@ zero_extendqisi2
 3384 021e 194B     		ldr	r3, .L223+88
 3385 0220 1A70     		strb	r2, [r3]
 814:state_machine.c ****             Current_State = Error_OT;   
 3386              		.loc 1 814 0
 3387 0222 174B     		ldr	r3, .L223+84
 3388 0224 0E22     		movs	r2, #14
 3389 0226 1A70     		strb	r2, [r3]
ARM GAS  C:\Users\KJA\AppData\Local\Temp\ccAyzU2h.s 			page 75


 3390 0228 F9E0     		b	.L180
 3391              	.L224:
 3392 022a 00BF     		.align	2
 3393              	.L223:
 3394 022c 00000000 		.word	MaxCurrent
 3395 0230 00000000 		.word	Loop_Counter
 3396 0234 00000000 		.word	MeasuredVoltage
 3397 0238 00000000 		.word	LEM_Offset_Value
 3398 023c 00000000 		.word	MeasuredCurrent
 3399 0240 00000000 		.word	Four_Wire_Method
 3400 0244 00000000 		.word	Four_Wire_Range
 3401 0248 00000000 		.word	fVoltage
 3402 024c 00000000 		.word	Two_Wire_Range
 3403 0250 00000000 		.word	dtV
 3404 0254 00000000 		.word	SredniaV
 3405 0258 00000000 		.word	Actual_Range
 3406 025c 00000000 		.word	Current_Calibration_Range1
 3407 0260 00000000 		.word	fCurrent
 3408 0264 00000000 		.word	fPower
 3409 0268 00000000 		.word	Set_Current
 3410 026c 00000000 		.word	Set_Power
 3411 0270 00000000 		.word	Set_Resist
 3412 0274 00000000 		.word	fResist
 3413 0278 00000000 		.word	MaxVoltage
 3414 027c 00000000 		.word	OutputEnable
 3415 0280 00000000 		.word	Current_State
 3416 0284 00000000 		.word	Previous_State
 3417 0288 20A10700 		.word	500000
 3418 028c 00000000 		.word	OverTemperature
 3419 0290 00000000 		.word	DACValue
 3420              	.L182:
 815:state_machine.c ****         } 
 816:state_machine.c ****         else{       
 817:state_machine.c ****             // Enable Relay if Input is OK
 818:state_machine.c ****             RELAY_Write(1);
 3421              		.loc 1 818 0
 3422 0294 0120     		movs	r0, #1
 3423 0296 FFF7FEFF 		bl	RELAY_Write
 819:state_machine.c ****                 
 820:state_machine.c ****             if(Loop_Counter >= 1000){
 3424              		.loc 1 820 0
 3425 029a 394B     		ldr	r3, .L225+8
 3426 029c 1B68     		ldr	r3, [r3]
 3427 029e B3F57A7F 		cmp	r3, #1000
 3428 02a2 37D3     		bcc	.L183
 821:state_machine.c ****                 sprintf((char *)cVoltage_Actual,"%2.2fV",fVoltage);
 3429              		.loc 1 821 0
 3430 02a4 374B     		ldr	r3, .L225+12
 3431 02a6 1B68     		ldr	r3, [r3]	@ float
 3432 02a8 1846     		mov	r0, r3
 3433 02aa FFF7FEFF 		bl	__aeabi_f2d
 3434 02ae 0246     		mov	r2, r0
 3435 02b0 0B46     		mov	r3, r1
 3436 02b2 3548     		ldr	r0, .L225+16
 3437 02b4 3549     		ldr	r1, .L225+20
 3438 02b6 FFF7FEFF 		bl	sprintf
 822:state_machine.c ****                 sprintf((char *)cCurrent_Actual,"%2.2fA",fCurrent);
ARM GAS  C:\Users\KJA\AppData\Local\Temp\ccAyzU2h.s 			page 76


 3439              		.loc 1 822 0
 3440 02ba 354B     		ldr	r3, .L225+24
 3441 02bc 1B68     		ldr	r3, [r3]	@ float
 3442 02be 1846     		mov	r0, r3
 3443 02c0 FFF7FEFF 		bl	__aeabi_f2d
 3444 02c4 0246     		mov	r2, r0
 3445 02c6 0B46     		mov	r3, r1
 3446 02c8 3248     		ldr	r0, .L225+28
 3447 02ca 3349     		ldr	r1, .L225+32
 3448 02cc FFF7FEFF 		bl	sprintf
 823:state_machine.c ****                 sprintf((char *)cPower_Actual,"%3.2fW",fPower);
 3449              		.loc 1 823 0
 3450 02d0 324B     		ldr	r3, .L225+36
 3451 02d2 1B68     		ldr	r3, [r3]	@ float
 3452 02d4 1846     		mov	r0, r3
 3453 02d6 FFF7FEFF 		bl	__aeabi_f2d
 3454 02da 0246     		mov	r2, r0
 3455 02dc 0B46     		mov	r3, r1
 3456 02de 3048     		ldr	r0, .L225+40
 3457 02e0 3049     		ldr	r1, .L225+44
 3458 02e2 FFF7FEFF 		bl	sprintf
 824:state_machine.c ****                 sprintf((char *)cResist_Actual,"%4.1fohm",fResist);
 3459              		.loc 1 824 0
 3460 02e6 304B     		ldr	r3, .L225+48
 3461 02e8 1B68     		ldr	r3, [r3]	@ float
 3462 02ea 1846     		mov	r0, r3
 3463 02ec FFF7FEFF 		bl	__aeabi_f2d
 3464 02f0 0246     		mov	r2, r0
 3465 02f2 0B46     		mov	r3, r1
 3466 02f4 2D48     		ldr	r0, .L225+52
 3467 02f6 2E49     		ldr	r1, .L225+56
 3468 02f8 FFF7FEFF 		bl	sprintf
 825:state_machine.c ****                 LCD_Draw(Current_State, Position_Number); 
 3469              		.loc 1 825 0
 3470 02fc 2D4B     		ldr	r3, .L225+60
 3471 02fe 1A78     		ldrb	r2, [r3]	@ zero_extendqisi2
 3472 0300 2D4B     		ldr	r3, .L225+64
 3473 0302 1B78     		ldrb	r3, [r3]	@ zero_extendqisi2
 3474 0304 DBB2     		uxtb	r3, r3
 3475 0306 1046     		mov	r0, r2
 3476 0308 1946     		mov	r1, r3
 3477 030a FFF7FEFF 		bl	LCD_Draw
 826:state_machine.c ****                 Loop_Counter = 0;
 3478              		.loc 1 826 0
 3479 030e 1C4B     		ldr	r3, .L225+8
 3480 0310 0022     		movs	r2, #0
 3481 0312 1A60     		str	r2, [r3]
 3482              	.L183:
 827:state_machine.c ****             }
 828:state_machine.c **** 
 829:state_machine.c ****             DAC_MUX_Select(2);   // ConstantDAC
 3483              		.loc 1 829 0
 3484 0314 0220     		movs	r0, #2
 3485 0316 FFF7FEFF 		bl	DAC_MUX_Select
 830:state_machine.c ****             
 831:state_machine.c ****             //Regulator
 832:state_machine.c ****             if(Set_Current - fCurrent > 0.005){
ARM GAS  C:\Users\KJA\AppData\Local\Temp\ccAyzU2h.s 			page 77


 3486              		.loc 1 832 0
 3487 031a 284B     		ldr	r3, .L225+68
 3488 031c 1A68     		ldr	r2, [r3]	@ float
 3489 031e 1C4B     		ldr	r3, .L225+24
 3490 0320 1B68     		ldr	r3, [r3]	@ float
 3491 0322 1046     		mov	r0, r2
 3492 0324 1946     		mov	r1, r3
 3493 0326 FFF7FEFF 		bl	__aeabi_fsub
 3494 032a 0346     		mov	r3, r0
 3495 032c 1846     		mov	r0, r3
 3496 032e FFF7FEFF 		bl	__aeabi_f2d
 3497 0332 0246     		mov	r2, r0
 3498 0334 0B46     		mov	r3, r1
 3499 0336 1046     		mov	r0, r2
 3500 0338 1946     		mov	r1, r3
 3501 033a 0FA3     		adr	r3, .L225
 3502 033c D3E90023 		ldrd	r2, [r3]
 3503 0340 FFF7FEFF 		bl	__aeabi_dcmpgt
 3504 0344 0346     		mov	r3, r0
 3505 0346 002B     		cmp	r3, #0
 3506 0348 3CD0     		beq	.L222
 833:state_machine.c ****                 DACValue++;
 3507              		.loc 1 833 0
 3508 034a 1D4B     		ldr	r3, .L225+72
 3509 034c 1B88     		ldrh	r3, [r3]
 3510 034e 0133     		adds	r3, r3, #1
 3511 0350 9AB2     		uxth	r2, r3
 3512 0352 1B4B     		ldr	r3, .L225+72
 3513 0354 1A80     		strh	r2, [r3]	@ movhi
 834:state_machine.c ****                 if(DACValue > 4080) DACValue = 4080;
 3514              		.loc 1 834 0
 3515 0356 1A4B     		ldr	r3, .L225+72
 3516 0358 1B88     		ldrh	r3, [r3]
 3517 035a B3F57F6F 		cmp	r3, #4080
 3518 035e 03D9     		bls	.L186
 3519              		.loc 1 834 0 is_stmt 0 discriminator 1
 3520 0360 174B     		ldr	r3, .L225+72
 3521 0362 4FF47F62 		mov	r2, #4080
 3522 0366 1A80     		strh	r2, [r3]	@ movhi
 3523              	.L186:
 835:state_machine.c ****                 DVDAC8_1_SetValue(DACValue);                
 3524              		.loc 1 835 0 is_stmt 1
 3525 0368 154B     		ldr	r3, .L225+72
 3526 036a 1B88     		ldrh	r3, [r3]
 3527 036c 1846     		mov	r0, r3
 3528 036e FFF7FEFF 		bl	DVDAC8_1_SetValue
 3529 0372 54E0     		b	.L180
 3530              	.L226:
 3531 0374 AFF30080 		.align	3
 3532              	.L225:
 3533 0378 7B14AE47 		.word	1202590843
 3534 037c E17A743F 		.word	1064598241
 3535 0380 00000000 		.word	Loop_Counter
 3536 0384 00000000 		.word	fVoltage
 3537 0388 00000000 		.word	cVoltage_Actual
 3538 038c 20000000 		.word	.LC4
 3539 0390 00000000 		.word	fCurrent
ARM GAS  C:\Users\KJA\AppData\Local\Temp\ccAyzU2h.s 			page 78


 3540 0394 00000000 		.word	cCurrent_Actual
 3541 0398 28000000 		.word	.LC5
 3542 039c 00000000 		.word	fPower
 3543 03a0 00000000 		.word	cPower_Actual
 3544 03a4 30000000 		.word	.LC6
 3545 03a8 00000000 		.word	fResist
 3546 03ac 00000000 		.word	cResist_Actual
 3547 03b0 38000000 		.word	.LC7
 3548 03b4 00000000 		.word	Current_State
 3549 03b8 00000000 		.word	Position_Number
 3550 03bc 00000000 		.word	Set_Current
 3551 03c0 00000000 		.word	DACValue
 3552              	.L222:
 836:state_machine.c ****             }
 837:state_machine.c ****             else if(fCurrent - Set_Current > 0.005){
 3553              		.loc 1 837 0
 3554 03c4 A84B     		ldr	r3, .L227+24
 3555 03c6 1A68     		ldr	r2, [r3]	@ float
 3556 03c8 A84B     		ldr	r3, .L227+28
 3557 03ca 1B68     		ldr	r3, [r3]	@ float
 3558 03cc 1046     		mov	r0, r2
 3559 03ce 1946     		mov	r1, r3
 3560 03d0 FFF7FEFF 		bl	__aeabi_fsub
 3561 03d4 0346     		mov	r3, r0
 3562 03d6 1846     		mov	r0, r3
 3563 03d8 FFF7FEFF 		bl	__aeabi_f2d
 3564 03dc 0246     		mov	r2, r0
 3565 03de 0B46     		mov	r3, r1
 3566 03e0 1046     		mov	r0, r2
 3567 03e2 1946     		mov	r1, r3
 3568 03e4 9AA3     		adr	r3, .L227
 3569 03e6 D3E90023 		ldrd	r2, [r3]
 3570 03ea FFF7FEFF 		bl	__aeabi_dcmpgt
 3571 03ee 0346     		mov	r3, r0
 3572 03f0 002B     		cmp	r3, #0
 3573 03f2 14D0     		beq	.L180
 838:state_machine.c ****                 DACValue--;
 3574              		.loc 1 838 0
 3575 03f4 9E4B     		ldr	r3, .L227+32
 3576 03f6 1B88     		ldrh	r3, [r3]
 3577 03f8 013B     		subs	r3, r3, #1
 3578 03fa 9AB2     		uxth	r2, r3
 3579 03fc 9C4B     		ldr	r3, .L227+32
 3580 03fe 1A80     		strh	r2, [r3]	@ movhi
 839:state_machine.c ****                 if(DACValue <= 0){
 3581              		.loc 1 839 0
 3582 0400 9B4B     		ldr	r3, .L227+32
 3583 0402 1B88     		ldrh	r3, [r3]
 3584 0404 002B     		cmp	r3, #0
 3585 0406 05D1     		bne	.L188
 840:state_machine.c ****                     DACValue = 0;
 3586              		.loc 1 840 0
 3587 0408 994B     		ldr	r3, .L227+32
 3588 040a 0022     		movs	r2, #0
 3589 040c 1A80     		strh	r2, [r3]	@ movhi
 841:state_machine.c ****                     OutputEnable = 0;
 3590              		.loc 1 841 0
ARM GAS  C:\Users\KJA\AppData\Local\Temp\ccAyzU2h.s 			page 79


 3591 040e 994B     		ldr	r3, .L227+36
 3592 0410 0022     		movs	r2, #0
 3593 0412 1A70     		strb	r2, [r3]
 3594              	.L188:
 842:state_machine.c ****                 }
 843:state_machine.c ****                 DVDAC8_1_SetValue(DACValue);        
 3595              		.loc 1 843 0
 3596 0414 964B     		ldr	r3, .L227+32
 3597 0416 1B88     		ldrh	r3, [r3]
 3598 0418 1846     		mov	r0, r3
 3599 041a FFF7FEFF 		bl	DVDAC8_1_SetValue
 3600              	.L180:
 844:state_machine.c ****             }
 845:state_machine.c ****         }
 846:state_machine.c ****     }
 847:state_machine.c ****     
 848:state_machine.c ****     // Output Disable Case
 849:state_machine.c ****     if(OutputEnable == 0){
 3601              		.loc 1 849 0
 3602 041e 954B     		ldr	r3, .L227+36
 3603 0420 1B78     		ldrb	r3, [r3]	@ zero_extendqisi2
 3604 0422 002B     		cmp	r3, #0
 3605 0424 48D1     		bne	.L189
 850:state_machine.c ****         
 851:state_machine.c ****         if(Loop_Counter >= 1000){
 3606              		.loc 1 851 0
 3607 0426 944B     		ldr	r3, .L227+40
 3608 0428 1B68     		ldr	r3, [r3]
 3609 042a B3F57A7F 		cmp	r3, #1000
 3610 042e 37D3     		bcc	.L190
 852:state_machine.c ****             sprintf((char *)cVoltage_Set,"%2.2fV",fVoltage);
 3611              		.loc 1 852 0
 3612 0430 924B     		ldr	r3, .L227+44
 3613 0432 1B68     		ldr	r3, [r3]	@ float
 3614 0434 1846     		mov	r0, r3
 3615 0436 FFF7FEFF 		bl	__aeabi_f2d
 3616 043a 0246     		mov	r2, r0
 3617 043c 0B46     		mov	r3, r1
 3618 043e 9048     		ldr	r0, .L227+48
 3619 0440 9049     		ldr	r1, .L227+52
 3620 0442 FFF7FEFF 		bl	sprintf
 853:state_machine.c ****             sprintf((char *)cCurrent_Set,"%2.2fA",Set_Current);            
 3621              		.loc 1 853 0
 3622 0446 894B     		ldr	r3, .L227+28
 3623 0448 1B68     		ldr	r3, [r3]	@ float
 3624 044a 1846     		mov	r0, r3
 3625 044c FFF7FEFF 		bl	__aeabi_f2d
 3626 0450 0246     		mov	r2, r0
 3627 0452 0B46     		mov	r3, r1
 3628 0454 8C48     		ldr	r0, .L227+56
 3629 0456 8D49     		ldr	r1, .L227+60
 3630 0458 FFF7FEFF 		bl	sprintf
 854:state_machine.c ****             sprintf((char *)cPower_Set,"%2.2fW",Set_Power);
 3631              		.loc 1 854 0
 3632 045c 8C4B     		ldr	r3, .L227+64
 3633 045e 1B68     		ldr	r3, [r3]	@ float
 3634 0460 1846     		mov	r0, r3
ARM GAS  C:\Users\KJA\AppData\Local\Temp\ccAyzU2h.s 			page 80


 3635 0462 FFF7FEFF 		bl	__aeabi_f2d
 3636 0466 0246     		mov	r2, r0
 3637 0468 0B46     		mov	r3, r1
 3638 046a 8A48     		ldr	r0, .L227+68
 3639 046c 8A49     		ldr	r1, .L227+72
 3640 046e FFF7FEFF 		bl	sprintf
 855:state_machine.c ****             sprintf((char *)cResist_Set,"%4.1fohm",Set_Resist);
 3641              		.loc 1 855 0
 3642 0472 8A4B     		ldr	r3, .L227+76
 3643 0474 1B68     		ldr	r3, [r3]	@ float
 3644 0476 1846     		mov	r0, r3
 3645 0478 FFF7FEFF 		bl	__aeabi_f2d
 3646 047c 0246     		mov	r2, r0
 3647 047e 0B46     		mov	r3, r1
 3648 0480 8748     		ldr	r0, .L227+80
 3649 0482 8849     		ldr	r1, .L227+84
 3650 0484 FFF7FEFF 		bl	sprintf
 856:state_machine.c ****             LCD_Draw(Current_State, Position_Number); 
 3651              		.loc 1 856 0
 3652 0488 874B     		ldr	r3, .L227+88
 3653 048a 1A78     		ldrb	r2, [r3]	@ zero_extendqisi2
 3654 048c 874B     		ldr	r3, .L227+92
 3655 048e 1B78     		ldrb	r3, [r3]	@ zero_extendqisi2
 3656 0490 DBB2     		uxtb	r3, r3
 3657 0492 1046     		mov	r0, r2
 3658 0494 1946     		mov	r1, r3
 3659 0496 FFF7FEFF 		bl	LCD_Draw
 857:state_machine.c ****             Loop_Counter = 0;
 3660              		.loc 1 857 0
 3661 049a 774B     		ldr	r3, .L227+40
 3662 049c 0022     		movs	r2, #0
 3663 049e 1A60     		str	r2, [r3]
 3664              	.L190:
 858:state_machine.c ****         }
 859:state_machine.c ****         DACValue = 0;
 3665              		.loc 1 859 0
 3666 04a0 734B     		ldr	r3, .L227+32
 3667 04a2 0022     		movs	r2, #0
 3668 04a4 1A80     		strh	r2, [r3]	@ movhi
 860:state_machine.c ****         DVDAC8_1_SetValue(0); 
 3669              		.loc 1 860 0
 3670 04a6 0020     		movs	r0, #0
 3671 04a8 FFF7FEFF 		bl	DVDAC8_1_SetValue
 861:state_machine.c ****         DAC_MUX_Select(0);     
 3672              		.loc 1 861 0
 3673 04ac 0020     		movs	r0, #0
 3674 04ae FFF7FEFF 		bl	DAC_MUX_Select
 862:state_machine.c ****         
 863:state_machine.c ****         // Disable Relay
 864:state_machine.c ****         RELAY_Write(0);
 3675              		.loc 1 864 0
 3676 04b2 0020     		movs	r0, #0
 3677 04b4 FFF7FEFF 		bl	RELAY_Write
 3678              	.L189:
 865:state_machine.c ****     }
 866:state_machine.c ****     
 867:state_machine.c ****     
ARM GAS  C:\Users\KJA\AppData\Local\Temp\ccAyzU2h.s 			page 81


 868:state_machine.c ****     // Encoder Control
 869:state_machine.c ****     if(!(Push_Reg_Read() == 0)){
 3679              		.loc 1 869 0
 3680 04b8 FFF7FEFF 		bl	Push_Reg_Read
 3681 04bc 0346     		mov	r3, r0
 3682 04be 002B     		cmp	r3, #0
 3683 04c0 15D0     		beq	.L191
 870:state_machine.c ****         Edit_Value_Mode = !Edit_Value_Mode;
 3684              		.loc 1 870 0
 3685 04c2 7B4B     		ldr	r3, .L227+96
 3686 04c4 1B78     		ldrb	r3, [r3]	@ zero_extendqisi2
 3687 04c6 002B     		cmp	r3, #0
 3688 04c8 0CBF     		ite	eq
 3689 04ca 0123     		moveq	r3, #1
 3690 04cc 0023     		movne	r3, #0
 3691 04ce DBB2     		uxtb	r3, r3
 3692 04d0 1A46     		mov	r2, r3
 3693 04d2 774B     		ldr	r3, .L227+96
 3694 04d4 1A70     		strb	r2, [r3]
 871:state_machine.c ****         QD_SetCounter(Current_Counter);
 3695              		.loc 1 871 0
 3696 04d6 774B     		ldr	r3, .L227+100
 3697 04d8 1B68     		ldr	r3, [r3]
 3698 04da 9BB2     		uxth	r3, r3
 3699 04dc 1BB2     		sxth	r3, r3
 3700 04de 1846     		mov	r0, r3
 3701 04e0 FFF7FEFF 		bl	QD_SetCounter
 872:state_machine.c ****         Buzzer_Shot(Push_Buzzer__Default_Lenght);
 3702              		.loc 1 872 0
 3703 04e4 744B     		ldr	r3, .L227+104
 3704 04e6 1B68     		ldr	r3, [r3]
 3705 04e8 1846     		mov	r0, r3
 3706 04ea FFF7FEFF 		bl	Buzzer_Shot
 3707              	.L191:
 873:state_machine.c ****     }
 874:state_machine.c ****     
 875:state_machine.c **** 
 876:state_machine.c ****     if(Edit_Value_Mode == 1){ 
 3708              		.loc 1 876 0
 3709 04ee 704B     		ldr	r3, .L227+96
 3710 04f0 1B78     		ldrb	r3, [r3]	@ zero_extendqisi2
 3711 04f2 012B     		cmp	r3, #1
 3712 04f4 40F04981 		bne	.L192
 877:state_machine.c ****         Current_Counter = QD_GetCounter();
 3713              		.loc 1 877 0
 3714 04f8 FFF7FEFF 		bl	QD_GetCounter
 3715 04fc 0346     		mov	r3, r0
 3716 04fe 1A46     		mov	r2, r3
 3717 0500 6C4B     		ldr	r3, .L227+100
 3718 0502 1A60     		str	r2, [r3]
 878:state_machine.c ****         
 879:state_machine.c ****         if(Position_Number == 0){
 3719              		.loc 1 879 0
 3720 0504 694B     		ldr	r3, .L227+92
 3721 0506 1B78     		ldrb	r3, [r3]	@ zero_extendqisi2
 3722 0508 002B     		cmp	r3, #0
 3723 050a 30D1     		bne	.L193
ARM GAS  C:\Users\KJA\AppData\Local\Temp\ccAyzU2h.s 			page 82


 880:state_machine.c ****             if(!(Last_Counter == Current_Counter)){
 3724              		.loc 1 880 0
 3725 050c 6B4B     		ldr	r3, .L227+108
 3726 050e 1A68     		ldr	r2, [r3]
 3727 0510 684B     		ldr	r3, .L227+100
 3728 0512 1B68     		ldr	r3, [r3]
 3729 0514 9A42     		cmp	r2, r3
 3730 0516 2AD0     		beq	.L193
 881:state_machine.c ****                 if(Last_Counter > Current_Counter){
 3731              		.loc 1 881 0
 3732 0518 684B     		ldr	r3, .L227+108
 3733 051a 1A68     		ldr	r2, [r3]
 3734 051c 654B     		ldr	r3, .L227+100
 3735 051e 1B68     		ldr	r3, [r3]
 3736 0520 9A42     		cmp	r2, r3
 3737 0522 0ADD     		ble	.L194
 882:state_machine.c ****                     Set_Current_Temporary_Value = Set_Current_Temporary_Value - 1;
 3738              		.loc 1 882 0
 3739 0524 664B     		ldr	r3, .L227+112
 3740 0526 1B68     		ldr	r3, [r3]	@ float
 3741 0528 1846     		mov	r0, r3
 3742 052a 4FF07E51 		mov	r1, #1065353216
 3743 052e FFF7FEFF 		bl	__aeabi_fsub
 3744 0532 0346     		mov	r3, r0
 3745 0534 1A46     		mov	r2, r3
 3746 0536 624B     		ldr	r3, .L227+112
 3747 0538 1A60     		str	r2, [r3]	@ float
 3748              	.L194:
 883:state_machine.c ****                 }
 884:state_machine.c ****                 if(Last_Counter < Current_Counter){
 3749              		.loc 1 884 0
 3750 053a 604B     		ldr	r3, .L227+108
 3751 053c 1A68     		ldr	r2, [r3]
 3752 053e 5D4B     		ldr	r3, .L227+100
 3753 0540 1B68     		ldr	r3, [r3]
 3754 0542 9A42     		cmp	r2, r3
 3755 0544 0ADA     		bge	.L195
 885:state_machine.c ****                     Set_Current_Temporary_Value = Set_Current_Temporary_Value + 1;
 3756              		.loc 1 885 0
 3757 0546 5E4B     		ldr	r3, .L227+112
 3758 0548 1B68     		ldr	r3, [r3]	@ float
 3759 054a 1846     		mov	r0, r3
 3760 054c 4FF07E51 		mov	r1, #1065353216
 3761 0550 FFF7FEFF 		bl	__aeabi_fadd
 3762 0554 0346     		mov	r3, r0
 3763 0556 1A46     		mov	r2, r3
 3764 0558 594B     		ldr	r3, .L227+112
 3765 055a 1A60     		str	r2, [r3]	@ float
 3766              	.L195:
 886:state_machine.c ****                 }
 887:state_machine.c ****                 Last_Counter = Current_Counter;   
 3767              		.loc 1 887 0
 3768 055c 554B     		ldr	r3, .L227+100
 3769 055e 1B68     		ldr	r3, [r3]
 3770 0560 564A     		ldr	r2, .L227+108
 3771 0562 1360     		str	r3, [r2]
 888:state_machine.c ****                 Buzzer_Shot(Rotate_Buzzer__Default_Lenght);
ARM GAS  C:\Users\KJA\AppData\Local\Temp\ccAyzU2h.s 			page 83


 3772              		.loc 1 888 0
 3773 0564 574B     		ldr	r3, .L227+116
 3774 0566 1B68     		ldr	r3, [r3]
 3775 0568 1846     		mov	r0, r3
 3776 056a FFF7FEFF 		bl	Buzzer_Shot
 3777              	.L193:
 889:state_machine.c ****             }      
 890:state_machine.c ****         }        
 891:state_machine.c ****         
 892:state_machine.c ****         if(Position_Number == 1){
 3778              		.loc 1 892 0
 3779 056e 4F4B     		ldr	r3, .L227+92
 3780 0570 1B78     		ldrb	r3, [r3]	@ zero_extendqisi2
 3781 0572 5BB2     		sxtb	r3, r3
 3782 0574 012B     		cmp	r3, #1
 3783 0576 48D1     		bne	.L196
 893:state_machine.c ****             if(!(Last_Counter == Current_Counter)){
 3784              		.loc 1 893 0
 3785 0578 504B     		ldr	r3, .L227+108
 3786 057a 1A68     		ldr	r2, [r3]
 3787 057c 4D4B     		ldr	r3, .L227+100
 3788 057e 1B68     		ldr	r3, [r3]
 3789 0580 9A42     		cmp	r2, r3
 3790 0582 42D0     		beq	.L196
 894:state_machine.c ****                 if(Last_Counter > Current_Counter){
 3791              		.loc 1 894 0
 3792 0584 4D4B     		ldr	r3, .L227+108
 3793 0586 1A68     		ldr	r2, [r3]
 3794 0588 4A4B     		ldr	r3, .L227+100
 3795 058a 1B68     		ldr	r3, [r3]
 3796 058c 9A42     		cmp	r2, r3
 3797 058e 16DD     		ble	.L197
 895:state_machine.c ****                     Set_Current_Temporary_Value = Set_Current_Temporary_Value - 0.1;
 3798              		.loc 1 895 0
 3799 0590 4B4B     		ldr	r3, .L227+112
 3800 0592 1B68     		ldr	r3, [r3]	@ float
 3801 0594 1846     		mov	r0, r3
 3802 0596 FFF7FEFF 		bl	__aeabi_f2d
 3803 059a 0246     		mov	r2, r0
 3804 059c 0B46     		mov	r3, r1
 3805 059e 1046     		mov	r0, r2
 3806 05a0 1946     		mov	r1, r3
 3807 05a2 2DA3     		adr	r3, .L227+8
 3808 05a4 D3E90023 		ldrd	r2, [r3]
 3809 05a8 FFF7FEFF 		bl	__aeabi_dsub
 3810 05ac 0246     		mov	r2, r0
 3811 05ae 0B46     		mov	r3, r1
 3812 05b0 1046     		mov	r0, r2
 3813 05b2 1946     		mov	r1, r3
 3814 05b4 FFF7FEFF 		bl	__aeabi_d2f
 3815 05b8 0246     		mov	r2, r0
 3816 05ba 414B     		ldr	r3, .L227+112
 3817 05bc 1A60     		str	r2, [r3]	@ float
 3818              	.L197:
 896:state_machine.c ****                 }
 897:state_machine.c ****                 if(Last_Counter < Current_Counter){
 3819              		.loc 1 897 0
ARM GAS  C:\Users\KJA\AppData\Local\Temp\ccAyzU2h.s 			page 84


 3820 05be 3F4B     		ldr	r3, .L227+108
 3821 05c0 1A68     		ldr	r2, [r3]
 3822 05c2 3C4B     		ldr	r3, .L227+100
 3823 05c4 1B68     		ldr	r3, [r3]
 3824 05c6 9A42     		cmp	r2, r3
 3825 05c8 16DA     		bge	.L198
 898:state_machine.c ****                     Set_Current_Temporary_Value = Set_Current_Temporary_Value + 0.1;
 3826              		.loc 1 898 0
 3827 05ca 3D4B     		ldr	r3, .L227+112
 3828 05cc 1B68     		ldr	r3, [r3]	@ float
 3829 05ce 1846     		mov	r0, r3
 3830 05d0 FFF7FEFF 		bl	__aeabi_f2d
 3831 05d4 0246     		mov	r2, r0
 3832 05d6 0B46     		mov	r3, r1
 3833 05d8 1046     		mov	r0, r2
 3834 05da 1946     		mov	r1, r3
 3835 05dc 1EA3     		adr	r3, .L227+8
 3836 05de D3E90023 		ldrd	r2, [r3]
 3837 05e2 FFF7FEFF 		bl	__aeabi_dadd
 3838 05e6 0246     		mov	r2, r0
 3839 05e8 0B46     		mov	r3, r1
 3840 05ea 1046     		mov	r0, r2
 3841 05ec 1946     		mov	r1, r3
 3842 05ee FFF7FEFF 		bl	__aeabi_d2f
 3843 05f2 0246     		mov	r2, r0
 3844 05f4 324B     		ldr	r3, .L227+112
 3845 05f6 1A60     		str	r2, [r3]	@ float
 3846              	.L198:
 899:state_machine.c ****                 }
 900:state_machine.c ****                 Last_Counter = Current_Counter;   
 3847              		.loc 1 900 0
 3848 05f8 2E4B     		ldr	r3, .L227+100
 3849 05fa 1B68     		ldr	r3, [r3]
 3850 05fc 2F4A     		ldr	r2, .L227+108
 3851 05fe 1360     		str	r3, [r2]
 901:state_machine.c ****                 Buzzer_Shot(Rotate_Buzzer__Default_Lenght);
 3852              		.loc 1 901 0
 3853 0600 304B     		ldr	r3, .L227+116
 3854 0602 1B68     		ldr	r3, [r3]
 3855 0604 1846     		mov	r0, r3
 3856 0606 FFF7FEFF 		bl	Buzzer_Shot
 3857              	.L196:
 902:state_machine.c ****             }      
 903:state_machine.c ****         }
 904:state_machine.c ****         if(Position_Number == 2){
 3858              		.loc 1 904 0
 3859 060a 284B     		ldr	r3, .L227+92
 3860 060c 1B78     		ldrb	r3, [r3]	@ zero_extendqisi2
 3861 060e 5BB2     		sxtb	r3, r3
 3862 0610 022B     		cmp	r3, #2
 3863 0612 40F08780 		bne	.L199
 905:state_machine.c ****             if(!(Last_Counter == Current_Counter)){
 3864              		.loc 1 905 0
 3865 0616 294B     		ldr	r3, .L227+108
 3866 0618 1A68     		ldr	r2, [r3]
 3867 061a 264B     		ldr	r3, .L227+100
 3868 061c 1B68     		ldr	r3, [r3]
ARM GAS  C:\Users\KJA\AppData\Local\Temp\ccAyzU2h.s 			page 85


 3869 061e 9A42     		cmp	r2, r3
 3870 0620 00F08080 		beq	.L199
 906:state_machine.c ****                 if(Last_Counter > Current_Counter){
 3871              		.loc 1 906 0
 3872 0624 254B     		ldr	r3, .L227+108
 3873 0626 1A68     		ldr	r2, [r3]
 3874 0628 224B     		ldr	r3, .L227+100
 3875 062a 1B68     		ldr	r3, [r3]
 3876 062c 9A42     		cmp	r2, r3
 3877 062e 53DD     		ble	.L200
 907:state_machine.c ****                     Set_Current_Temporary_Value = Set_Current_Temporary_Value - 0.01;
 3878              		.loc 1 907 0
 3879 0630 234B     		ldr	r3, .L227+112
 3880 0632 1B68     		ldr	r3, [r3]	@ float
 3881 0634 1846     		mov	r0, r3
 3882 0636 FFF7FEFF 		bl	__aeabi_f2d
 3883 063a 0246     		mov	r2, r0
 3884 063c 0B46     		mov	r3, r1
 3885 063e 1046     		mov	r0, r2
 3886 0640 1946     		mov	r1, r3
 3887 0642 07A3     		adr	r3, .L227+16
 3888 0644 D3E90023 		ldrd	r2, [r3]
 3889 0648 FFF7FEFF 		bl	__aeabi_dsub
 3890 064c 0246     		mov	r2, r0
 3891 064e 3BE0     		b	.L228
 3892              	.L229:
 3893              		.align	3
 3894              	.L227:
 3895 0650 7B14AE47 		.word	1202590843
 3896 0654 E17A743F 		.word	1064598241
 3897 0658 9A999999 		.word	-1717986918
 3898 065c 9999B93F 		.word	1069128089
 3899 0660 7B14AE47 		.word	1202590843
 3900 0664 E17A843F 		.word	1065646817
 3901 0668 00000000 		.word	fCurrent
 3902 066c 00000000 		.word	Set_Current
 3903 0670 00000000 		.word	DACValue
 3904 0674 00000000 		.word	OutputEnable
 3905 0678 00000000 		.word	Loop_Counter
 3906 067c 00000000 		.word	fVoltage
 3907 0680 00000000 		.word	cVoltage_Set
 3908 0684 20000000 		.word	.LC4
 3909 0688 00000000 		.word	cCurrent_Set
 3910 068c 28000000 		.word	.LC5
 3911 0690 00000000 		.word	Set_Power
 3912 0694 00000000 		.word	cPower_Set
 3913 0698 44000000 		.word	.LC8
 3914 069c 00000000 		.word	Set_Resist
 3915 06a0 00000000 		.word	cResist_Set
 3916 06a4 38000000 		.word	.LC7
 3917 06a8 00000000 		.word	Current_State
 3918 06ac 00000000 		.word	Position_Number
 3919 06b0 00000000 		.word	Edit_Value_Mode
 3920 06b4 00000000 		.word	Current_Counter
 3921 06b8 00000000 		.word	Push_Buzzer__Default_Lenght
 3922 06bc 00000000 		.word	Last_Counter
 3923 06c0 00000000 		.word	Set_Current_Temporary_Value
ARM GAS  C:\Users\KJA\AppData\Local\Temp\ccAyzU2h.s 			page 86


 3924 06c4 00000000 		.word	Rotate_Buzzer__Default_Lenght
 3925              	.L228:
 3926 06c8 0B46     		mov	r3, r1
 3927 06ca 1046     		mov	r0, r2
 3928 06cc 1946     		mov	r1, r3
 3929 06ce FFF7FEFF 		bl	__aeabi_d2f
 3930 06d2 0246     		mov	r2, r0
 3931 06d4 764B     		ldr	r3, .L230+8
 3932 06d6 1A60     		str	r2, [r3]	@ float
 3933              	.L200:
 908:state_machine.c ****                 }
 909:state_machine.c ****                 if(Last_Counter < Current_Counter){
 3934              		.loc 1 909 0
 3935 06d8 764B     		ldr	r3, .L230+12
 3936 06da 1A68     		ldr	r2, [r3]
 3937 06dc 764B     		ldr	r3, .L230+16
 3938 06de 1B68     		ldr	r3, [r3]
 3939 06e0 9A42     		cmp	r2, r3
 3940 06e2 16DA     		bge	.L201
 910:state_machine.c ****                     Set_Current_Temporary_Value = Set_Current_Temporary_Value + 0.01;
 3941              		.loc 1 910 0
 3942 06e4 724B     		ldr	r3, .L230+8
 3943 06e6 1B68     		ldr	r3, [r3]	@ float
 3944 06e8 1846     		mov	r0, r3
 3945 06ea FFF7FEFF 		bl	__aeabi_f2d
 3946 06ee 0246     		mov	r2, r0
 3947 06f0 0B46     		mov	r3, r1
 3948 06f2 1046     		mov	r0, r2
 3949 06f4 1946     		mov	r1, r3
 3950 06f6 6CA3     		adr	r3, .L230
 3951 06f8 D3E90023 		ldrd	r2, [r3]
 3952 06fc FFF7FEFF 		bl	__aeabi_dadd
 3953 0700 0246     		mov	r2, r0
 3954 0702 0B46     		mov	r3, r1
 3955 0704 1046     		mov	r0, r2
 3956 0706 1946     		mov	r1, r3
 3957 0708 FFF7FEFF 		bl	__aeabi_d2f
 3958 070c 0246     		mov	r2, r0
 3959 070e 684B     		ldr	r3, .L230+8
 3960 0710 1A60     		str	r2, [r3]	@ float
 3961              	.L201:
 911:state_machine.c ****                 }
 912:state_machine.c ****                 Last_Counter = Current_Counter;   
 3962              		.loc 1 912 0
 3963 0712 694B     		ldr	r3, .L230+16
 3964 0714 1B68     		ldr	r3, [r3]
 3965 0716 674A     		ldr	r2, .L230+12
 3966 0718 1360     		str	r3, [r2]
 913:state_machine.c ****                 Buzzer_Shot(Rotate_Buzzer__Default_Lenght);
 3967              		.loc 1 913 0
 3968 071a 684B     		ldr	r3, .L230+20
 3969 071c 1B68     		ldr	r3, [r3]
 3970 071e 1846     		mov	r0, r3
 3971 0720 FFF7FEFF 		bl	Buzzer_Shot
 3972              	.L199:
 914:state_machine.c ****             }      
 915:state_machine.c ****         }
ARM GAS  C:\Users\KJA\AppData\Local\Temp\ccAyzU2h.s 			page 87


 916:state_machine.c ****           
 917:state_machine.c ****         if(Set_Current_Temporary_Value > MaxSetValue){
 3973              		.loc 1 917 0
 3974 0724 624B     		ldr	r3, .L230+8
 3975 0726 1B68     		ldr	r3, [r3]	@ float
 3976 0728 1846     		mov	r0, r3
 3977 072a 7968     		ldr	r1, [r7, #4]	@ float
 3978 072c FFF7FEFF 		bl	__aeabi_fcmpgt
 3979 0730 0346     		mov	r3, r0
 3980 0732 002B     		cmp	r3, #0
 3981 0734 0BD0     		beq	.L202
 918:state_machine.c ****             Set_Current_Temporary_Value = MaxSetValue;
 3982              		.loc 1 918 0
 3983 0736 5E4A     		ldr	r2, .L230+8
 3984 0738 7B68     		ldr	r3, [r7, #4]	@ float
 3985 073a 1360     		str	r3, [r2]	@ float
 919:state_machine.c ****             Buzzer_Shot(10*Rotate_Buzzer__Default_Lenght);
 3986              		.loc 1 919 0
 3987 073c 5F4B     		ldr	r3, .L230+20
 3988 073e 1A68     		ldr	r2, [r3]
 3989 0740 1346     		mov	r3, r2
 3990 0742 9B00     		lsls	r3, r3, #2
 3991 0744 1344     		add	r3, r3, r2
 3992 0746 5B00     		lsls	r3, r3, #1
 3993 0748 1846     		mov	r0, r3
 3994 074a FFF7FEFF 		bl	Buzzer_Shot
 3995              	.L202:
 920:state_machine.c ****         }
 921:state_machine.c ****         if(Set_Current_Temporary_Value < 0){
 3996              		.loc 1 921 0
 3997 074e 584B     		ldr	r3, .L230+8
 3998 0750 1B68     		ldr	r3, [r3]	@ float
 3999 0752 1846     		mov	r0, r3
 4000 0754 4FF00001 		mov	r1, #0
 4001 0758 FFF7FEFF 		bl	__aeabi_fcmplt
 4002 075c 0346     		mov	r3, r0
 4003 075e 002B     		cmp	r3, #0
 4004 0760 0FD0     		beq	.L204
 922:state_machine.c ****             OutputEnable = 0;
 4005              		.loc 1 922 0
 4006 0762 574B     		ldr	r3, .L230+24
 4007 0764 0022     		movs	r2, #0
 4008 0766 1A70     		strb	r2, [r3]
 923:state_machine.c ****             Set_Current_Temporary_Value = 0;
 4009              		.loc 1 923 0
 4010 0768 514B     		ldr	r3, .L230+8
 4011 076a 4FF00002 		mov	r2, #0
 4012 076e 1A60     		str	r2, [r3]	@ float
 924:state_machine.c ****             Buzzer_Shot(10*Rotate_Buzzer__Default_Lenght);
 4013              		.loc 1 924 0
 4014 0770 524B     		ldr	r3, .L230+20
 4015 0772 1A68     		ldr	r2, [r3]
 4016 0774 1346     		mov	r3, r2
 4017 0776 9B00     		lsls	r3, r3, #2
 4018 0778 1344     		add	r3, r3, r2
 4019 077a 5B00     		lsls	r3, r3, #1
 4020 077c 1846     		mov	r0, r3
ARM GAS  C:\Users\KJA\AppData\Local\Temp\ccAyzU2h.s 			page 88


 4021 077e FFF7FEFF 		bl	Buzzer_Shot
 4022              	.L204:
 925:state_machine.c ****         }
 926:state_machine.c ****         Set_Current = Set_Current_Temporary_Value;  
 4023              		.loc 1 926 0
 4024 0782 4B4B     		ldr	r3, .L230+8
 4025 0784 1B68     		ldr	r3, [r3]	@ float
 4026 0786 4F4A     		ldr	r2, .L230+28
 4027 0788 1360     		str	r3, [r2]	@ float
 4028              	.L192:
 927:state_machine.c ****        
 928:state_machine.c ****         
 929:state_machine.c ****     }
 930:state_machine.c ****  
 931:state_machine.c ****     //Buttons Control
 932:state_machine.c ****     if(!(button1 == 0)){    //Output Enable Button
 4029              		.loc 1 932 0
 4030 078a 4F4B     		ldr	r3, .L230+32
 4031 078c 1B78     		ldrb	r3, [r3]	@ zero_extendqisi2
 4032 078e 002B     		cmp	r3, #0
 4033 0790 17D0     		beq	.L206
 933:state_machine.c ****         Buzzer_Shot(Push_Buzzer__Default_Lenght);
 4034              		.loc 1 933 0
 4035 0792 4E4B     		ldr	r3, .L230+36
 4036 0794 1B68     		ldr	r3, [r3]
 4037 0796 1846     		mov	r0, r3
 4038 0798 FFF7FEFF 		bl	Buzzer_Shot
 934:state_machine.c ****         if(OutputEnable == 0){
 4039              		.loc 1 934 0
 4040 079c 484B     		ldr	r3, .L230+24
 4041 079e 1B78     		ldrb	r3, [r3]	@ zero_extendqisi2
 4042 07a0 002B     		cmp	r3, #0
 4043 07a2 08D1     		bne	.L207
 935:state_machine.c ****             if(Check_Input() == 1){
 4044              		.loc 1 935 0
 4045 07a4 FFF7FEFF 		bl	Check_Input
 4046 07a8 0346     		mov	r3, r0
 4047 07aa 012B     		cmp	r3, #1
 4048 07ac 06D1     		bne	.L209
 936:state_machine.c ****                 OutputEnable = 1;
 4049              		.loc 1 936 0
 4050 07ae 444B     		ldr	r3, .L230+24
 4051 07b0 0122     		movs	r2, #1
 4052 07b2 1A70     		strb	r2, [r3]
 4053 07b4 02E0     		b	.L209
 4054              	.L207:
 937:state_machine.c ****             }
 938:state_machine.c ****         }
 939:state_machine.c ****         else OutputEnable = 0;
 4055              		.loc 1 939 0
 4056 07b6 424B     		ldr	r3, .L230+24
 4057 07b8 0022     		movs	r2, #0
 4058 07ba 1A70     		strb	r2, [r3]
 4059              	.L209:
 940:state_machine.c ****         Edit_Value_Mode = 0;      
 4060              		.loc 1 940 0
 4061 07bc 444B     		ldr	r3, .L230+40
ARM GAS  C:\Users\KJA\AppData\Local\Temp\ccAyzU2h.s 			page 89


 4062 07be 0022     		movs	r2, #0
 4063 07c0 1A70     		strb	r2, [r3]
 4064              	.L206:
 941:state_machine.c ****     }
 942:state_machine.c ****     
 943:state_machine.c ****     if(!(button2 == 0)){    //Four/Two Wire Select
 4065              		.loc 1 943 0
 4066 07c2 444B     		ldr	r3, .L230+44
 4067 07c4 1B78     		ldrb	r3, [r3]	@ zero_extendqisi2
 4068 07c6 002B     		cmp	r3, #0
 4069 07c8 0ED0     		beq	.L210
 944:state_machine.c ****         Four_Wire_Method = !Four_Wire_Method;
 4070              		.loc 1 944 0
 4071 07ca 434B     		ldr	r3, .L230+48
 4072 07cc 1B78     		ldrb	r3, [r3]	@ zero_extendqisi2
 4073 07ce 002B     		cmp	r3, #0
 4074 07d0 0CBF     		ite	eq
 4075 07d2 0123     		moveq	r3, #1
 4076 07d4 0023     		movne	r3, #0
 4077 07d6 DBB2     		uxtb	r3, r3
 4078 07d8 1A46     		mov	r2, r3
 4079 07da 3F4B     		ldr	r3, .L230+48
 4080 07dc 1A70     		strb	r2, [r3]
 945:state_machine.c ****         Buzzer_Shot(Push_Buzzer__Default_Lenght);
 4081              		.loc 1 945 0
 4082 07de 3B4B     		ldr	r3, .L230+36
 4083 07e0 1B68     		ldr	r3, [r3]
 4084 07e2 1846     		mov	r0, r3
 4085 07e4 FFF7FEFF 		bl	Buzzer_Shot
 4086              	.L210:
 946:state_machine.c ****     }
 947:state_machine.c ****     
 948:state_machine.c ****     
 949:state_machine.c ****     
 950:state_machine.c ****     if(!(button3 == 0)){    //Four/Two Wire Select
 4087              		.loc 1 950 0
 4088 07e8 3C4B     		ldr	r3, .L230+52
 4089 07ea 1B78     		ldrb	r3, [r3]	@ zero_extendqisi2
 4090 07ec 002B     		cmp	r3, #0
 4091 07ee 0ED0     		beq	.L211
 951:state_machine.c ****         View_Mode = !View_Mode;
 4092              		.loc 1 951 0
 4093 07f0 3B4B     		ldr	r3, .L230+56
 4094 07f2 1B78     		ldrb	r3, [r3]	@ zero_extendqisi2
 4095 07f4 002B     		cmp	r3, #0
 4096 07f6 0CBF     		ite	eq
 4097 07f8 0123     		moveq	r3, #1
 4098 07fa 0023     		movne	r3, #0
 4099 07fc DBB2     		uxtb	r3, r3
 4100 07fe 1A46     		mov	r2, r3
 4101 0800 374B     		ldr	r3, .L230+56
 4102 0802 1A70     		strb	r2, [r3]
 952:state_machine.c ****         Buzzer_Shot(Push_Buzzer__Default_Lenght);
 4103              		.loc 1 952 0
 4104 0804 314B     		ldr	r3, .L230+36
 4105 0806 1B68     		ldr	r3, [r3]
 4106 0808 1846     		mov	r0, r3
ARM GAS  C:\Users\KJA\AppData\Local\Temp\ccAyzU2h.s 			page 90


 4107 080a FFF7FEFF 		bl	Buzzer_Shot
 4108              	.L211:
 953:state_machine.c ****     }
 954:state_machine.c ****     
 955:state_machine.c **** //        
 956:state_machine.c **** //        Temporary = !Temporary;  
 957:state_machine.c **** //        
 958:state_machine.c **** //        if(Temporary == 1){
 959:state_machine.c **** //            
 960:state_machine.c **** //            DACValue = DACValue*2.5;
 961:state_machine.c **** //            DVDAC8_1_SetValue(DACValue);
 962:state_machine.c **** //            
 963:state_machine.c **** //            LEM_A_Write(0);     //160 Ohm - Range 2
 964:state_machine.c **** //            LEM_B_Write(0);   //60 Ohm - Range 3
 965:state_machine.c **** //            
 966:state_machine.c **** //
 967:state_machine.c **** //           
 968:state_machine.c **** //            Actual_Range = 1;       
 969:state_machine.c **** //        }
 970:state_machine.c **** //        else{
 971:state_machine.c **** //            DACValue = DACValue/2.5;
 972:state_machine.c **** //            DVDAC8_1_SetValue(DACValue);
 973:state_machine.c **** //            
 974:state_machine.c **** //            LEM_A_Write(1);     //160 Ohm - Range 2
 975:state_machine.c **** //            //LEM_B_Write(1);   //60 Ohm - Range 3
 976:state_machine.c **** //                        
 977:state_machine.c **** //            Actual_Range = 2; 
 978:state_machine.c **** //        }
 979:state_machine.c **** //        
 980:state_machine.c **** //        Buzzer_Shot(Push_Buzzer__Default_Lenght);
 981:state_machine.c **** //    }  
 982:state_machine.c ****     
 983:state_machine.c ****     if(!(button4 == 0)){    //Back Button
 4109              		.loc 1 983 0
 4110 080e 354B     		ldr	r3, .L230+60
 4111 0810 1B78     		ldrb	r3, [r3]	@ zero_extendqisi2
 4112 0812 002B     		cmp	r3, #0
 4113 0814 10D0     		beq	.L212
 984:state_machine.c ****         QD_SetCounter(3);
 4114              		.loc 1 984 0
 4115 0816 0320     		movs	r0, #3
 4116 0818 FFF7FEFF 		bl	QD_SetCounter
 985:state_machine.c ****         OutputEnable = 0;
 4117              		.loc 1 985 0
 4118 081c 284B     		ldr	r3, .L230+24
 4119 081e 0022     		movs	r2, #0
 4120 0820 1A70     		strb	r2, [r3]
 986:state_machine.c ****         Edit_Value_Mode = 0;
 4121              		.loc 1 986 0
 4122 0822 2B4B     		ldr	r3, .L230+40
 4123 0824 0022     		movs	r2, #0
 4124 0826 1A70     		strb	r2, [r3]
 987:state_machine.c ****         Current_State = ConstantMode;
 4125              		.loc 1 987 0
 4126 0828 2F4B     		ldr	r3, .L230+64
 4127 082a 0222     		movs	r2, #2
 4128 082c 1A70     		strb	r2, [r3]
ARM GAS  C:\Users\KJA\AppData\Local\Temp\ccAyzU2h.s 			page 91


 988:state_machine.c ****         Buzzer_Shot(Push_Buzzer__Default_Lenght);
 4129              		.loc 1 988 0
 4130 082e 274B     		ldr	r3, .L230+36
 4131 0830 1B68     		ldr	r3, [r3]
 4132 0832 1846     		mov	r0, r3
 4133 0834 FFF7FEFF 		bl	Buzzer_Shot
 4134              	.L212:
 989:state_machine.c ****     }
 990:state_machine.c ****     
 991:state_machine.c **** 
 992:state_machine.c ****     if(!(button6 == 0)){    // Shift Right Button
 4135              		.loc 1 992 0
 4136 0838 2C4B     		ldr	r3, .L230+68
 4137 083a 1B78     		ldrb	r3, [r3]	@ zero_extendqisi2
 4138 083c 002B     		cmp	r3, #0
 4139 083e 15D0     		beq	.L213
 993:state_machine.c ****         Position_Number++;
 4140              		.loc 1 993 0
 4141 0840 2B4B     		ldr	r3, .L230+72
 4142 0842 1B78     		ldrb	r3, [r3]	@ zero_extendqisi2
 4143 0844 DBB2     		uxtb	r3, r3
 4144 0846 DBB2     		uxtb	r3, r3
 4145 0848 0133     		adds	r3, r3, #1
 4146 084a DBB2     		uxtb	r3, r3
 4147 084c DAB2     		uxtb	r2, r3
 4148 084e 284B     		ldr	r3, .L230+72
 4149 0850 1A70     		strb	r2, [r3]
 994:state_machine.c ****         if(Position_Number >2) Position_Number = 2;
 4150              		.loc 1 994 0
 4151 0852 274B     		ldr	r3, .L230+72
 4152 0854 1B78     		ldrb	r3, [r3]	@ zero_extendqisi2
 4153 0856 5BB2     		sxtb	r3, r3
 4154 0858 022B     		cmp	r3, #2
 4155 085a 02DD     		ble	.L214
 4156              		.loc 1 994 0 is_stmt 0 discriminator 1
 4157 085c 244B     		ldr	r3, .L230+72
 4158 085e 0222     		movs	r2, #2
 4159 0860 1A70     		strb	r2, [r3]
 4160              	.L214:
 995:state_machine.c ****         Buzzer_Shot(Push_Buzzer__Default_Lenght);
 4161              		.loc 1 995 0 is_stmt 1
 4162 0862 1A4B     		ldr	r3, .L230+36
 4163 0864 1B68     		ldr	r3, [r3]
 4164 0866 1846     		mov	r0, r3
 4165 0868 FFF7FEFF 		bl	Buzzer_Shot
 4166              	.L213:
 996:state_machine.c ****     }
 997:state_machine.c ****     
 998:state_machine.c ****     if(!(button5 == 0)){    // Shift Left Button
 4167              		.loc 1 998 0
 4168 086c 214B     		ldr	r3, .L230+76
 4169 086e 1B78     		ldrb	r3, [r3]	@ zero_extendqisi2
 4170 0870 002B     		cmp	r3, #0
 4171 0872 15D0     		beq	.L174
 999:state_machine.c ****         Position_Number--;
 4172              		.loc 1 999 0
 4173 0874 1E4B     		ldr	r3, .L230+72
ARM GAS  C:\Users\KJA\AppData\Local\Temp\ccAyzU2h.s 			page 92


 4174 0876 1B78     		ldrb	r3, [r3]	@ zero_extendqisi2
 4175 0878 DBB2     		uxtb	r3, r3
 4176 087a DBB2     		uxtb	r3, r3
 4177 087c 013B     		subs	r3, r3, #1
 4178 087e DBB2     		uxtb	r3, r3
 4179 0880 DAB2     		uxtb	r2, r3
 4180 0882 1B4B     		ldr	r3, .L230+72
 4181 0884 1A70     		strb	r2, [r3]
1000:state_machine.c ****         if(Position_Number <0) Position_Number = 0;
 4182              		.loc 1 1000 0
 4183 0886 1A4B     		ldr	r3, .L230+72
 4184 0888 1B78     		ldrb	r3, [r3]	@ zero_extendqisi2
 4185 088a 5BB2     		sxtb	r3, r3
 4186 088c 002B     		cmp	r3, #0
 4187 088e 02DA     		bge	.L216
 4188              		.loc 1 1000 0 is_stmt 0 discriminator 1
 4189 0890 174B     		ldr	r3, .L230+72
 4190 0892 0022     		movs	r2, #0
 4191 0894 1A70     		strb	r2, [r3]
 4192              	.L216:
1001:state_machine.c ****         Buzzer_Shot(Push_Buzzer__Default_Lenght);
 4193              		.loc 1 1001 0 is_stmt 1
 4194 0896 0D4B     		ldr	r3, .L230+36
 4195 0898 1B68     		ldr	r3, [r3]
 4196 089a 1846     		mov	r0, r3
 4197 089c FFF7FEFF 		bl	Buzzer_Shot
 4198              	.L174:
1002:state_machine.c ****     }
1003:state_machine.c ****     
1004:state_machine.c ****  }
 4199              		.loc 1 1004 0
 4200 08a0 0C37     		adds	r7, r7, #12
 4201              		.cfi_def_cfa_offset 12
 4202 08a2 BD46     		mov	sp, r7
 4203              		.cfi_def_cfa_register 13
 4204              		@ sp needed
 4205 08a4 90BD     		pop	{r4, r7, pc}
 4206              	.L231:
 4207 08a6 00BF     		.align	3
 4208              	.L230:
 4209 08a8 7B14AE47 		.word	1202590843
 4210 08ac E17A843F 		.word	1065646817
 4211 08b0 00000000 		.word	Set_Current_Temporary_Value
 4212 08b4 00000000 		.word	Last_Counter
 4213 08b8 00000000 		.word	Current_Counter
 4214 08bc 00000000 		.word	Rotate_Buzzer__Default_Lenght
 4215 08c0 00000000 		.word	OutputEnable
 4216 08c4 00000000 		.word	Set_Current
 4217 08c8 00000000 		.word	button1
 4218 08cc 00000000 		.word	Push_Buzzer__Default_Lenght
 4219 08d0 00000000 		.word	Edit_Value_Mode
 4220 08d4 00000000 		.word	button2
 4221 08d8 00000000 		.word	Four_Wire_Method
 4222 08dc 00000000 		.word	button3
 4223 08e0 00000000 		.word	View_Mode
 4224 08e4 00000000 		.word	button4
 4225 08e8 00000000 		.word	Current_State
ARM GAS  C:\Users\KJA\AppData\Local\Temp\ccAyzU2h.s 			page 93


 4226 08ec 00000000 		.word	button6
 4227 08f0 00000000 		.word	Position_Number
 4228 08f4 00000000 		.word	button5
 4229              		.cfi_endproc
 4230              	.LFE75:
 4231              		.size	State_Machine_ConstantCurrent, .-State_Machine_ConstantCurrent
 4232              		.section	.text.State_Machine_ConstantPower,"ax",%progbits
 4233              		.align	2
 4234              		.global	State_Machine_ConstantPower
 4235              		.thumb
 4236              		.thumb_func
 4237              		.type	State_Machine_ConstantPower, %function
 4238              	State_Machine_ConstantPower:
 4239              	.LFB76:
1005:state_machine.c **** 
1006:state_machine.c **** void State_Machine_ConstantPower(){
 4240              		.loc 1 1006 0
 4241              		.cfi_startproc
 4242              		@ args = 0, pretend = 0, frame = 8
 4243              		@ frame_needed = 1, uses_anonymous_args = 0
 4244 0000 90B5     		push	{r4, r7, lr}
 4245              		.cfi_def_cfa_offset 12
 4246              		.cfi_offset 4, -12
 4247              		.cfi_offset 7, -8
 4248              		.cfi_offset 14, -4
 4249 0002 83B0     		sub	sp, sp, #12
 4250              		.cfi_def_cfa_offset 24
 4251 0004 00AF     		add	r7, sp, #0
 4252              		.cfi_def_cfa_register 7
1007:state_machine.c ****         
1008:state_machine.c ****     
1009:state_machine.c ****     
1010:state_machine.c ****     CAP_EN_Write(1);    // Enable 10nF Cap
 4253              		.loc 1 1010 0
 4254 0006 0120     		movs	r0, #1
 4255 0008 FFF7FEFF 		bl	CAP_EN_Write
1011:state_machine.c ****     PWM_Driver_Stop();     //Start PWM
 4256              		.loc 1 1011 0
 4257 000c FFF7FEFF 		bl	PWM_Driver_Stop
1012:state_machine.c ****     
1013:state_machine.c ****     float MaxSetValue = MaxPower;
 4258              		.loc 1 1013 0
 4259 0010 774B     		ldr	r3, .L281
 4260 0012 1B68     		ldr	r3, [r3]	@ float
 4261 0014 7B60     		str	r3, [r7, #4]	@ float
1014:state_machine.c ****     
1015:state_machine.c ****     // Secondary Loop Counter
1016:state_machine.c ****     Loop_Counter++;
 4262              		.loc 1 1016 0
 4263 0016 774B     		ldr	r3, .L281+4
 4264 0018 1B68     		ldr	r3, [r3]
 4265 001a 0133     		adds	r3, r3, #1
 4266 001c 754A     		ldr	r2, .L281+4
 4267 001e 1360     		str	r3, [r2]
1017:state_machine.c ****      
1018:state_machine.c ****     
1019:state_machine.c ****     // Voltage, Current, Power Measurement and Calculations
ARM GAS  C:\Users\KJA\AppData\Local\Temp\ccAyzU2h.s 			page 94


1020:state_machine.c ****     
1021:state_machine.c ****     MeasuredVoltage = ADC_SAR_1_GetResult16();   
 4268              		.loc 1 1021 0
 4269 0020 FFF7FEFF 		bl	ADC_SAR_1_GetResult16
 4270 0024 0346     		mov	r3, r0
 4271 0026 9AB2     		uxth	r2, r3
 4272 0028 734B     		ldr	r3, .L281+8
 4273 002a 1A80     		strh	r2, [r3]	@ movhi
1022:state_machine.c ****     MeasuredCurrent = ADC_SAR_2_GetResult16();  
 4274              		.loc 1 1022 0
 4275 002c FFF7FEFF 		bl	ADC_SAR_2_GetResult16
 4276 0030 0346     		mov	r3, r0
 4277 0032 1A46     		mov	r2, r3
 4278 0034 714B     		ldr	r3, .L281+12
 4279 0036 1A80     		strh	r2, [r3]	@ movhi
1023:state_machine.c ****     
1024:state_machine.c ****     if(Four_Wire_Method ==1){
 4280              		.loc 1 1024 0
 4281 0038 714B     		ldr	r3, .L281+16
 4282 003a 1B78     		ldrb	r3, [r3]	@ zero_extendqisi2
 4283 003c 012B     		cmp	r3, #1
 4284 003e 15D1     		bne	.L233
1025:state_machine.c ****         VOLTAGE_SELECT_Write(1);
 4285              		.loc 1 1025 0
 4286 0040 0120     		movs	r0, #1
 4287 0042 FFF7FEFF 		bl	VOLTAGE_SELECT_Write
1026:state_machine.c ****         fVoltage = Four_Wire_Range*ADC_SAR_1_CountsTo_Volts(MeasuredVoltage); 
 4288              		.loc 1 1026 0
 4289 0046 6C4B     		ldr	r3, .L281+8
 4290 0048 1B88     		ldrh	r3, [r3]
 4291 004a 9BB2     		uxth	r3, r3
 4292 004c 1BB2     		sxth	r3, r3
 4293 004e 1846     		mov	r0, r3
 4294 0050 FFF7FEFF 		bl	ADC_SAR_1_CountsTo_Volts
 4295 0054 0246     		mov	r2, r0
 4296 0056 6B4B     		ldr	r3, .L281+20
 4297 0058 1B68     		ldr	r3, [r3]	@ float
 4298 005a 1046     		mov	r0, r2
 4299 005c 1946     		mov	r1, r3
 4300 005e FFF7FEFF 		bl	__aeabi_fmul
 4301 0062 0346     		mov	r3, r0
 4302 0064 1A46     		mov	r2, r3
 4303 0066 684B     		ldr	r3, .L281+24
 4304 0068 1A60     		str	r2, [r3]	@ float
 4305 006a 14E0     		b	.L234
 4306              	.L233:
1027:state_machine.c ****     }
1028:state_machine.c ****     else{
1029:state_machine.c ****         VOLTAGE_SELECT_Write(0);
 4307              		.loc 1 1029 0
 4308 006c 0020     		movs	r0, #0
 4309 006e FFF7FEFF 		bl	VOLTAGE_SELECT_Write
1030:state_machine.c ****         fVoltage = Two_Wire_Range*ADC_SAR_1_CountsTo_Volts(MeasuredVoltage);        
 4310              		.loc 1 1030 0
 4311 0072 614B     		ldr	r3, .L281+8
 4312 0074 1B88     		ldrh	r3, [r3]
 4313 0076 9BB2     		uxth	r3, r3
ARM GAS  C:\Users\KJA\AppData\Local\Temp\ccAyzU2h.s 			page 95


 4314 0078 1BB2     		sxth	r3, r3
 4315 007a 1846     		mov	r0, r3
 4316 007c FFF7FEFF 		bl	ADC_SAR_1_CountsTo_Volts
 4317 0080 0246     		mov	r2, r0
 4318 0082 624B     		ldr	r3, .L281+28
 4319 0084 1B68     		ldr	r3, [r3]	@ float
 4320 0086 1046     		mov	r0, r2
 4321 0088 1946     		mov	r1, r3
 4322 008a FFF7FEFF 		bl	__aeabi_fmul
 4323 008e 0346     		mov	r3, r0
 4324 0090 1A46     		mov	r2, r3
 4325 0092 5D4B     		ldr	r3, .L281+24
 4326 0094 1A60     		str	r2, [r3]	@ float
 4327              	.L234:
1031:state_machine.c ****     }  
1032:state_machine.c ****     
1033:state_machine.c ****     SredniaV = SredniaV*dtV;
 4328              		.loc 1 1033 0
 4329 0096 5E4B     		ldr	r3, .L281+32
 4330 0098 1B78     		ldrb	r3, [r3]	@ zero_extendqisi2
 4331 009a 1846     		mov	r0, r3
 4332 009c FFF7FEFF 		bl	__aeabi_i2f
 4333 00a0 0246     		mov	r2, r0
 4334 00a2 5C4B     		ldr	r3, .L281+36
 4335 00a4 1B68     		ldr	r3, [r3]	@ float
 4336 00a6 1046     		mov	r0, r2
 4337 00a8 1946     		mov	r1, r3
 4338 00aa FFF7FEFF 		bl	__aeabi_fmul
 4339 00ae 0346     		mov	r3, r0
 4340 00b0 1A46     		mov	r2, r3
 4341 00b2 584B     		ldr	r3, .L281+36
 4342 00b4 1A60     		str	r2, [r3]	@ float
1034:state_machine.c ****     SredniaV = SredniaV + fVoltage;
 4343              		.loc 1 1034 0
 4344 00b6 574B     		ldr	r3, .L281+36
 4345 00b8 1A68     		ldr	r2, [r3]	@ float
 4346 00ba 534B     		ldr	r3, .L281+24
 4347 00bc 1B68     		ldr	r3, [r3]	@ float
 4348 00be 1046     		mov	r0, r2
 4349 00c0 1946     		mov	r1, r3
 4350 00c2 FFF7FEFF 		bl	__aeabi_fadd
 4351 00c6 0346     		mov	r3, r0
 4352 00c8 1A46     		mov	r2, r3
 4353 00ca 524B     		ldr	r3, .L281+36
 4354 00cc 1A60     		str	r2, [r3]	@ float
1035:state_machine.c ****     SredniaV = SredniaV / (dtV+1);
 4355              		.loc 1 1035 0
 4356 00ce 514B     		ldr	r3, .L281+36
 4357 00d0 1C68     		ldr	r4, [r3]	@ float
 4358 00d2 4F4B     		ldr	r3, .L281+32
 4359 00d4 1B78     		ldrb	r3, [r3]	@ zero_extendqisi2
 4360 00d6 0133     		adds	r3, r3, #1
 4361 00d8 1846     		mov	r0, r3
 4362 00da FFF7FEFF 		bl	__aeabi_i2f
 4363 00de 0346     		mov	r3, r0
 4364 00e0 2046     		mov	r0, r4
 4365 00e2 1946     		mov	r1, r3
ARM GAS  C:\Users\KJA\AppData\Local\Temp\ccAyzU2h.s 			page 96


 4366 00e4 FFF7FEFF 		bl	__aeabi_fdiv
 4367 00e8 0346     		mov	r3, r0
 4368 00ea 1A46     		mov	r2, r3
 4369 00ec 494B     		ldr	r3, .L281+36
 4370 00ee 1A60     		str	r2, [r3]	@ float
1036:state_machine.c ****     fVoltage = SredniaV;  
 4371              		.loc 1 1036 0
 4372 00f0 484B     		ldr	r3, .L281+36
 4373 00f2 1B68     		ldr	r3, [r3]	@ float
 4374 00f4 444A     		ldr	r2, .L281+24
 4375 00f6 1360     		str	r3, [r2]	@ float
1037:state_machine.c ****        
1038:state_machine.c ****     if(Actual_Range == 1) fCurrent = Current_Calibration_Range1 * ADC_SAR_2_CountsTo_Volts(Measured
 4376              		.loc 1 1038 0
 4377 00f8 474B     		ldr	r3, .L281+40
 4378 00fa 1B78     		ldrb	r3, [r3]	@ zero_extendqisi2
 4379 00fc 012B     		cmp	r3, #1
 4380 00fe 10D1     		bne	.L235
 4381              		.loc 1 1038 0 is_stmt 0 discriminator 1
 4382 0100 3E4B     		ldr	r3, .L281+12
 4383 0102 1B88     		ldrh	r3, [r3]
 4384 0104 1BB2     		sxth	r3, r3
 4385 0106 1846     		mov	r0, r3
 4386 0108 FFF7FEFF 		bl	ADC_SAR_2_CountsTo_Volts
 4387 010c 0246     		mov	r2, r0
 4388 010e 434B     		ldr	r3, .L281+44
 4389 0110 1B68     		ldr	r3, [r3]	@ float
 4390 0112 1046     		mov	r0, r2
 4391 0114 1946     		mov	r1, r3
 4392 0116 FFF7FEFF 		bl	__aeabi_fmul
 4393 011a 0346     		mov	r3, r0
 4394 011c 1A46     		mov	r2, r3
 4395 011e 404B     		ldr	r3, .L281+48
 4396 0120 1A60     		str	r2, [r3]	@ float
 4397              	.L235:
1039:state_machine.c ****     
1040:state_machine.c **** 
1041:state_machine.c ****     fPower = fVoltage*fCurrent;
 4398              		.loc 1 1041 0 is_stmt 1
 4399 0122 394B     		ldr	r3, .L281+24
 4400 0124 1A68     		ldr	r2, [r3]	@ float
 4401 0126 3E4B     		ldr	r3, .L281+48
 4402 0128 1B68     		ldr	r3, [r3]	@ float
 4403 012a 1046     		mov	r0, r2
 4404 012c 1946     		mov	r1, r3
 4405 012e FFF7FEFF 		bl	__aeabi_fmul
 4406 0132 0346     		mov	r3, r0
 4407 0134 1A46     		mov	r2, r3
 4408 0136 3B4B     		ldr	r3, .L281+52
 4409 0138 1A60     		str	r2, [r3]	@ float
1042:state_machine.c ****     Set_Current = Set_Power/fVoltage;
 4410              		.loc 1 1042 0
 4411 013a 3B4B     		ldr	r3, .L281+56
 4412 013c 1A68     		ldr	r2, [r3]	@ float
 4413 013e 324B     		ldr	r3, .L281+24
 4414 0140 1B68     		ldr	r3, [r3]	@ float
 4415 0142 1046     		mov	r0, r2
ARM GAS  C:\Users\KJA\AppData\Local\Temp\ccAyzU2h.s 			page 97


 4416 0144 1946     		mov	r1, r3
 4417 0146 FFF7FEFF 		bl	__aeabi_fdiv
 4418 014a 0346     		mov	r3, r0
 4419 014c 1A46     		mov	r2, r3
 4420 014e 374B     		ldr	r3, .L281+60
 4421 0150 1A60     		str	r2, [r3]	@ float
1043:state_machine.c ****             
1044:state_machine.c ****     
1045:state_machine.c ****     // Check for OverVoltage
1046:state_machine.c ****     if(fVoltage > MaxVoltage){
 4422              		.loc 1 1046 0
 4423 0152 2D4B     		ldr	r3, .L281+24
 4424 0154 1A68     		ldr	r2, [r3]	@ float
 4425 0156 364B     		ldr	r3, .L281+64
 4426 0158 1B68     		ldr	r3, [r3]	@ float
 4427 015a 1046     		mov	r0, r2
 4428 015c 1946     		mov	r1, r3
 4429 015e FFF7FEFF 		bl	__aeabi_fcmpgt
 4430 0162 0346     		mov	r3, r0
 4431 0164 002B     		cmp	r3, #0
 4432 0166 0CD0     		beq	.L236
1047:state_machine.c ****         OutputEnable = 0;
 4433              		.loc 1 1047 0
 4434 0168 324B     		ldr	r3, .L281+68
 4435 016a 0022     		movs	r2, #0
 4436 016c 1A70     		strb	r2, [r3]
1048:state_machine.c ****         Previous_State = Current_State;
 4437              		.loc 1 1048 0
 4438 016e 324B     		ldr	r3, .L281+72
 4439 0170 1A78     		ldrb	r2, [r3]	@ zero_extendqisi2
 4440 0172 324B     		ldr	r3, .L281+76
 4441 0174 1A70     		strb	r2, [r3]
1049:state_machine.c ****         Current_State = Error_OV;
 4442              		.loc 1 1049 0
 4443 0176 304B     		ldr	r3, .L281+72
 4444 0178 0C22     		movs	r2, #12
 4445 017a 1A70     		strb	r2, [r3]
1050:state_machine.c ****         Buzzer_Shot(500000);
 4446              		.loc 1 1050 0
 4447 017c 3048     		ldr	r0, .L281+80
 4448 017e FFF7FEFF 		bl	Buzzer_Shot
 4449              	.L236:
1051:state_machine.c ****     }
1052:state_machine.c ****     
1053:state_machine.c **** 
1054:state_machine.c ****     // Output Enable Case
1055:state_machine.c ****     if(OutputEnable == 1){
 4450              		.loc 1 1055 0
 4451 0182 2C4B     		ldr	r3, .L281+68
 4452 0184 1B78     		ldrb	r3, [r3]	@ zero_extendqisi2
 4453 0186 012B     		cmp	r3, #1
 4454 0188 40F02581 		bne	.L238
1056:state_machine.c ****         
1057:state_machine.c ****         if(!(Input_Reg_Read())){
 4455              		.loc 1 1057 0
 4456 018c FFF7FEFF 		bl	Input_Reg_Read
 4457 0190 0346     		mov	r3, r0
ARM GAS  C:\Users\KJA\AppData\Local\Temp\ccAyzU2h.s 			page 98


 4458 0192 002B     		cmp	r3, #0
 4459 0194 0DD1     		bne	.L239
1058:state_machine.c ****             OutputEnable = 0;
 4460              		.loc 1 1058 0
 4461 0196 274B     		ldr	r3, .L281+68
 4462 0198 0022     		movs	r2, #0
 4463 019a 1A70     		strb	r2, [r3]
1059:state_machine.c ****             Previous_State = Current_State;
 4464              		.loc 1 1059 0
 4465 019c 264B     		ldr	r3, .L281+72
 4466 019e 1A78     		ldrb	r2, [r3]	@ zero_extendqisi2
 4467 01a0 264B     		ldr	r3, .L281+76
 4468 01a2 1A70     		strb	r2, [r3]
1060:state_machine.c ****             Current_State = Error_OC;
 4469              		.loc 1 1060 0
 4470 01a4 244B     		ldr	r3, .L281+72
 4471 01a6 0F22     		movs	r2, #15
 4472 01a8 1A70     		strb	r2, [r3]
1061:state_machine.c ****             Buzzer_Shot(500000);
 4473              		.loc 1 1061 0
 4474 01aa 2548     		ldr	r0, .L281+80
 4475 01ac FFF7FEFF 		bl	Buzzer_Shot
 4476 01b0 11E1     		b	.L238
 4477              	.L239:
1062:state_machine.c ****         }
1063:state_machine.c ****         
1064:state_machine.c ****         else if(OverTemperature == 1){
 4478              		.loc 1 1064 0
 4479 01b2 244B     		ldr	r3, .L281+84
 4480 01b4 1B78     		ldrb	r3, [r3]	@ zero_extendqisi2
 4481 01b6 012B     		cmp	r3, #1
 4482 01b8 48D1     		bne	.L240
1065:state_machine.c **** 
1066:state_machine.c ****             DACValue = 0;
 4483              		.loc 1 1066 0
 4484 01ba 234B     		ldr	r3, .L281+88
 4485 01bc 0022     		movs	r2, #0
 4486 01be 1A80     		strh	r2, [r3]	@ movhi
1067:state_machine.c ****             DVDAC8_1_SetValue(0); 
 4487              		.loc 1 1067 0
 4488 01c0 0020     		movs	r0, #0
 4489 01c2 FFF7FEFF 		bl	DVDAC8_1_SetValue
1068:state_machine.c ****             DAC_MUX_Select(0);     
 4490              		.loc 1 1068 0
 4491 01c6 0020     		movs	r0, #0
 4492 01c8 FFF7FEFF 		bl	DAC_MUX_Select
1069:state_machine.c ****             
1070:state_machine.c ****             // Disable Relay
1071:state_machine.c ****             RELAY_Write(0);
 4493              		.loc 1 1071 0
 4494 01cc 0020     		movs	r0, #0
 4495 01ce FFF7FEFF 		bl	RELAY_Write
1072:state_machine.c ****             
1073:state_machine.c ****             Buzzer_Shot(500000);
 4496              		.loc 1 1073 0
 4497 01d2 1B48     		ldr	r0, .L281+80
 4498 01d4 FFF7FEFF 		bl	Buzzer_Shot
ARM GAS  C:\Users\KJA\AppData\Local\Temp\ccAyzU2h.s 			page 99


1074:state_machine.c ****             
1075:state_machine.c ****             OutputEnable = 0;
 4499              		.loc 1 1075 0
 4500 01d8 164B     		ldr	r3, .L281+68
 4501 01da 0022     		movs	r2, #0
 4502 01dc 1A70     		strb	r2, [r3]
1076:state_machine.c ****             Previous_State = Current_State;
 4503              		.loc 1 1076 0
 4504 01de 164B     		ldr	r3, .L281+72
 4505 01e0 1A78     		ldrb	r2, [r3]	@ zero_extendqisi2
 4506 01e2 164B     		ldr	r3, .L281+76
 4507 01e4 1A70     		strb	r2, [r3]
1077:state_machine.c ****             Current_State = Error_OT;   
 4508              		.loc 1 1077 0
 4509 01e6 144B     		ldr	r3, .L281+72
 4510 01e8 0E22     		movs	r2, #14
 4511 01ea 1A70     		strb	r2, [r3]
 4512 01ec F3E0     		b	.L238
 4513              	.L282:
 4514 01ee 00BF     		.align	2
 4515              	.L281:
 4516 01f0 00000000 		.word	MaxPower
 4517 01f4 00000000 		.word	Loop_Counter
 4518 01f8 00000000 		.word	MeasuredVoltage
 4519 01fc 00000000 		.word	MeasuredCurrent
 4520 0200 00000000 		.word	Four_Wire_Method
 4521 0204 00000000 		.word	Four_Wire_Range
 4522 0208 00000000 		.word	fVoltage
 4523 020c 00000000 		.word	Two_Wire_Range
 4524 0210 00000000 		.word	dtV
 4525 0214 00000000 		.word	SredniaV
 4526 0218 00000000 		.word	Actual_Range
 4527 021c 00000000 		.word	Current_Calibration_Range1
 4528 0220 00000000 		.word	fCurrent
 4529 0224 00000000 		.word	fPower
 4530 0228 00000000 		.word	Set_Power
 4531 022c 00000000 		.word	Set_Current
 4532 0230 00000000 		.word	MaxVoltage
 4533 0234 00000000 		.word	OutputEnable
 4534 0238 00000000 		.word	Current_State
 4535 023c 00000000 		.word	Previous_State
 4536 0240 20A10700 		.word	500000
 4537 0244 00000000 		.word	OverTemperature
 4538 0248 00000000 		.word	DACValue
 4539              	.L240:
1078:state_machine.c ****         } 
1079:state_machine.c ****         else{
1080:state_machine.c ****         
1081:state_machine.c ****             // Enable Relay if Input is OK
1082:state_machine.c ****             RELAY_Write(1);
 4540              		.loc 1 1082 0
 4541 024c 0120     		movs	r0, #1
 4542 024e FFF7FEFF 		bl	RELAY_Write
1083:state_machine.c ****                 
1084:state_machine.c ****             if(Loop_Counter >= 1000){                             
 4543              		.loc 1 1084 0
 4544 0252 394B     		ldr	r3, .L283+8
ARM GAS  C:\Users\KJA\AppData\Local\Temp\ccAyzU2h.s 			page 100


 4545 0254 1B68     		ldr	r3, [r3]
 4546 0256 B3F57A7F 		cmp	r3, #1000
 4547 025a 37D3     		bcc	.L241
1085:state_machine.c ****                 sprintf((char *)cVoltage_Actual,"%2.2fV",fVoltage);
 4548              		.loc 1 1085 0
 4549 025c 374B     		ldr	r3, .L283+12
 4550 025e 1B68     		ldr	r3, [r3]	@ float
 4551 0260 1846     		mov	r0, r3
 4552 0262 FFF7FEFF 		bl	__aeabi_f2d
 4553 0266 0246     		mov	r2, r0
 4554 0268 0B46     		mov	r3, r1
 4555 026a 3548     		ldr	r0, .L283+16
 4556 026c 3549     		ldr	r1, .L283+20
 4557 026e FFF7FEFF 		bl	sprintf
1086:state_machine.c ****                 sprintf((char *)cCurrent_Actual,"%2.2fA",fCurrent);
 4558              		.loc 1 1086 0
 4559 0272 354B     		ldr	r3, .L283+24
 4560 0274 1B68     		ldr	r3, [r3]	@ float
 4561 0276 1846     		mov	r0, r3
 4562 0278 FFF7FEFF 		bl	__aeabi_f2d
 4563 027c 0246     		mov	r2, r0
 4564 027e 0B46     		mov	r3, r1
 4565 0280 3248     		ldr	r0, .L283+28
 4566 0282 3349     		ldr	r1, .L283+32
 4567 0284 FFF7FEFF 		bl	sprintf
1087:state_machine.c ****                 sprintf((char *)cPower_Actual,"%3.2fW",fPower);
 4568              		.loc 1 1087 0
 4569 0288 324B     		ldr	r3, .L283+36
 4570 028a 1B68     		ldr	r3, [r3]	@ float
 4571 028c 1846     		mov	r0, r3
 4572 028e FFF7FEFF 		bl	__aeabi_f2d
 4573 0292 0246     		mov	r2, r0
 4574 0294 0B46     		mov	r3, r1
 4575 0296 3048     		ldr	r0, .L283+40
 4576 0298 3049     		ldr	r1, .L283+44
 4577 029a FFF7FEFF 		bl	sprintf
1088:state_machine.c ****                 sprintf((char *)cResist_Actual,"%4.1fohm",fResist);
 4578              		.loc 1 1088 0
 4579 029e 304B     		ldr	r3, .L283+48
 4580 02a0 1B68     		ldr	r3, [r3]	@ float
 4581 02a2 1846     		mov	r0, r3
 4582 02a4 FFF7FEFF 		bl	__aeabi_f2d
 4583 02a8 0246     		mov	r2, r0
 4584 02aa 0B46     		mov	r3, r1
 4585 02ac 2D48     		ldr	r0, .L283+52
 4586 02ae 2E49     		ldr	r1, .L283+56
 4587 02b0 FFF7FEFF 		bl	sprintf
1089:state_machine.c ****                 
1090:state_machine.c ****                 LCD_Draw(Current_State, Position_Number); 
 4588              		.loc 1 1090 0
 4589 02b4 2D4B     		ldr	r3, .L283+60
 4590 02b6 1A78     		ldrb	r2, [r3]	@ zero_extendqisi2
 4591 02b8 2D4B     		ldr	r3, .L283+64
 4592 02ba 1B78     		ldrb	r3, [r3]	@ zero_extendqisi2
 4593 02bc DBB2     		uxtb	r3, r3
 4594 02be 1046     		mov	r0, r2
 4595 02c0 1946     		mov	r1, r3
ARM GAS  C:\Users\KJA\AppData\Local\Temp\ccAyzU2h.s 			page 101


 4596 02c2 FFF7FEFF 		bl	LCD_Draw
1091:state_machine.c ****                 Loop_Counter = 0;
 4597              		.loc 1 1091 0
 4598 02c6 1C4B     		ldr	r3, .L283+8
 4599 02c8 0022     		movs	r2, #0
 4600 02ca 1A60     		str	r2, [r3]
 4601              	.L241:
1092:state_machine.c ****             }
1093:state_machine.c **** 
1094:state_machine.c ****             DAC_MUX_Select(2);
 4602              		.loc 1 1094 0
 4603 02cc 0220     		movs	r0, #2
 4604 02ce FFF7FEFF 		bl	DAC_MUX_Select
1095:state_machine.c ****             
1096:state_machine.c ****             //Regulator
1097:state_machine.c ****             if(Set_Power - fPower > 0.05){  // >=
 4605              		.loc 1 1097 0
 4606 02d2 284B     		ldr	r3, .L283+68
 4607 02d4 1A68     		ldr	r2, [r3]	@ float
 4608 02d6 1F4B     		ldr	r3, .L283+36
 4609 02d8 1B68     		ldr	r3, [r3]	@ float
 4610 02da 1046     		mov	r0, r2
 4611 02dc 1946     		mov	r1, r3
 4612 02de FFF7FEFF 		bl	__aeabi_fsub
 4613 02e2 0346     		mov	r3, r0
 4614 02e4 1846     		mov	r0, r3
 4615 02e6 FFF7FEFF 		bl	__aeabi_f2d
 4616 02ea 0246     		mov	r2, r0
 4617 02ec 0B46     		mov	r3, r1
 4618 02ee 1046     		mov	r0, r2
 4619 02f0 1946     		mov	r1, r3
 4620 02f2 0FA3     		adr	r3, .L283
 4621 02f4 D3E90023 		ldrd	r2, [r3]
 4622 02f8 FFF7FEFF 		bl	__aeabi_dcmpgt
 4623 02fc 0346     		mov	r3, r0
 4624 02fe 002B     		cmp	r3, #0
 4625 0300 3CD0     		beq	.L280
1098:state_machine.c ****                 DACValue++;
 4626              		.loc 1 1098 0
 4627 0302 1D4B     		ldr	r3, .L283+72
 4628 0304 1B88     		ldrh	r3, [r3]
 4629 0306 0133     		adds	r3, r3, #1
 4630 0308 9AB2     		uxth	r2, r3
 4631 030a 1B4B     		ldr	r3, .L283+72
 4632 030c 1A80     		strh	r2, [r3]	@ movhi
1099:state_machine.c ****                 if(DACValue > 4080) DACValue = 4080;
 4633              		.loc 1 1099 0
 4634 030e 1A4B     		ldr	r3, .L283+72
 4635 0310 1B88     		ldrh	r3, [r3]
 4636 0312 B3F57F6F 		cmp	r3, #4080
 4637 0316 03D9     		bls	.L244
 4638              		.loc 1 1099 0 is_stmt 0 discriminator 1
 4639 0318 174B     		ldr	r3, .L283+72
 4640 031a 4FF47F62 		mov	r2, #4080
 4641 031e 1A80     		strh	r2, [r3]	@ movhi
 4642              	.L244:
1100:state_machine.c ****                 DVDAC8_1_SetValue(DACValue);                
ARM GAS  C:\Users\KJA\AppData\Local\Temp\ccAyzU2h.s 			page 102


 4643              		.loc 1 1100 0 is_stmt 1
 4644 0320 154B     		ldr	r3, .L283+72
 4645 0322 1B88     		ldrh	r3, [r3]
 4646 0324 1846     		mov	r0, r3
 4647 0326 FFF7FEFF 		bl	DVDAC8_1_SetValue
 4648 032a 54E0     		b	.L238
 4649              	.L284:
 4650 032c AFF30080 		.align	3
 4651              	.L283:
 4652 0330 9A999999 		.word	-1717986918
 4653 0334 9999A93F 		.word	1068079513
 4654 0338 00000000 		.word	Loop_Counter
 4655 033c 00000000 		.word	fVoltage
 4656 0340 00000000 		.word	cVoltage_Actual
 4657 0344 20000000 		.word	.LC4
 4658 0348 00000000 		.word	fCurrent
 4659 034c 00000000 		.word	cCurrent_Actual
 4660 0350 28000000 		.word	.LC5
 4661 0354 00000000 		.word	fPower
 4662 0358 00000000 		.word	cPower_Actual
 4663 035c 30000000 		.word	.LC6
 4664 0360 00000000 		.word	fResist
 4665 0364 00000000 		.word	cResist_Actual
 4666 0368 38000000 		.word	.LC7
 4667 036c 00000000 		.word	Current_State
 4668 0370 00000000 		.word	Position_Number
 4669 0374 00000000 		.word	Set_Power
 4670 0378 00000000 		.word	DACValue
 4671              	.L280:
1101:state_machine.c ****             }
1102:state_machine.c ****             else if(fPower - Set_Power > 0.05){
 4672              		.loc 1 1102 0
 4673 037c A24B     		ldr	r3, .L285+16
 4674 037e 1A68     		ldr	r2, [r3]	@ float
 4675 0380 A24B     		ldr	r3, .L285+20
 4676 0382 1B68     		ldr	r3, [r3]	@ float
 4677 0384 1046     		mov	r0, r2
 4678 0386 1946     		mov	r1, r3
 4679 0388 FFF7FEFF 		bl	__aeabi_fsub
 4680 038c 0346     		mov	r3, r0
 4681 038e 1846     		mov	r0, r3
 4682 0390 FFF7FEFF 		bl	__aeabi_f2d
 4683 0394 0246     		mov	r2, r0
 4684 0396 0B46     		mov	r3, r1
 4685 0398 1046     		mov	r0, r2
 4686 039a 1946     		mov	r1, r3
 4687 039c 96A3     		adr	r3, .L285
 4688 039e D3E90023 		ldrd	r2, [r3]
 4689 03a2 FFF7FEFF 		bl	__aeabi_dcmpgt
 4690 03a6 0346     		mov	r3, r0
 4691 03a8 002B     		cmp	r3, #0
 4692 03aa 14D0     		beq	.L238
1103:state_machine.c ****                 DACValue--;
 4693              		.loc 1 1103 0
 4694 03ac 984B     		ldr	r3, .L285+24
 4695 03ae 1B88     		ldrh	r3, [r3]
 4696 03b0 013B     		subs	r3, r3, #1
ARM GAS  C:\Users\KJA\AppData\Local\Temp\ccAyzU2h.s 			page 103


 4697 03b2 9AB2     		uxth	r2, r3
 4698 03b4 964B     		ldr	r3, .L285+24
 4699 03b6 1A80     		strh	r2, [r3]	@ movhi
1104:state_machine.c ****                 if(DACValue <= 0){
 4700              		.loc 1 1104 0
 4701 03b8 954B     		ldr	r3, .L285+24
 4702 03ba 1B88     		ldrh	r3, [r3]
 4703 03bc 002B     		cmp	r3, #0
 4704 03be 05D1     		bne	.L246
1105:state_machine.c ****                     DACValue = 0;
 4705              		.loc 1 1105 0
 4706 03c0 934B     		ldr	r3, .L285+24
 4707 03c2 0022     		movs	r2, #0
 4708 03c4 1A80     		strh	r2, [r3]	@ movhi
1106:state_machine.c ****                     OutputEnable = 0;
 4709              		.loc 1 1106 0
 4710 03c6 934B     		ldr	r3, .L285+28
 4711 03c8 0022     		movs	r2, #0
 4712 03ca 1A70     		strb	r2, [r3]
 4713              	.L246:
1107:state_machine.c ****                 }
1108:state_machine.c ****                 DVDAC8_1_SetValue(DACValue);        
 4714              		.loc 1 1108 0
 4715 03cc 904B     		ldr	r3, .L285+24
 4716 03ce 1B88     		ldrh	r3, [r3]
 4717 03d0 1846     		mov	r0, r3
 4718 03d2 FFF7FEFF 		bl	DVDAC8_1_SetValue
 4719              	.L238:
1109:state_machine.c ****             }     
1110:state_machine.c ****         }
1111:state_machine.c ****     }
1112:state_machine.c ****     
1113:state_machine.c ****     // Output Disable Case
1114:state_machine.c ****     if(OutputEnable == 0){
 4720              		.loc 1 1114 0
 4721 03d6 8F4B     		ldr	r3, .L285+28
 4722 03d8 1B78     		ldrb	r3, [r3]	@ zero_extendqisi2
 4723 03da 002B     		cmp	r3, #0
 4724 03dc 48D1     		bne	.L247
1115:state_machine.c ****         
1116:state_machine.c ****         if(Loop_Counter >= 1000){
 4725              		.loc 1 1116 0
 4726 03de 8E4B     		ldr	r3, .L285+32
 4727 03e0 1B68     		ldr	r3, [r3]
 4728 03e2 B3F57A7F 		cmp	r3, #1000
 4729 03e6 37D3     		bcc	.L248
1117:state_machine.c ****             sprintf((char *)cVoltage_Set,"%2.2fV",fVoltage);
 4730              		.loc 1 1117 0
 4731 03e8 8C4B     		ldr	r3, .L285+36
 4732 03ea 1B68     		ldr	r3, [r3]	@ float
 4733 03ec 1846     		mov	r0, r3
 4734 03ee FFF7FEFF 		bl	__aeabi_f2d
 4735 03f2 0246     		mov	r2, r0
 4736 03f4 0B46     		mov	r3, r1
 4737 03f6 8A48     		ldr	r0, .L285+40
 4738 03f8 8A49     		ldr	r1, .L285+44
 4739 03fa FFF7FEFF 		bl	sprintf
ARM GAS  C:\Users\KJA\AppData\Local\Temp\ccAyzU2h.s 			page 104


1118:state_machine.c ****             sprintf((char *)cCurrent_Set,"%2.2fA",Set_Current);            
 4740              		.loc 1 1118 0
 4741 03fe 8A4B     		ldr	r3, .L285+48
 4742 0400 1B68     		ldr	r3, [r3]	@ float
 4743 0402 1846     		mov	r0, r3
 4744 0404 FFF7FEFF 		bl	__aeabi_f2d
 4745 0408 0246     		mov	r2, r0
 4746 040a 0B46     		mov	r3, r1
 4747 040c 8748     		ldr	r0, .L285+52
 4748 040e 8849     		ldr	r1, .L285+56
 4749 0410 FFF7FEFF 		bl	sprintf
1119:state_machine.c ****             sprintf((char *)cPower_Set,"%2.2fW",Set_Power);
 4750              		.loc 1 1119 0
 4751 0414 7D4B     		ldr	r3, .L285+20
 4752 0416 1B68     		ldr	r3, [r3]	@ float
 4753 0418 1846     		mov	r0, r3
 4754 041a FFF7FEFF 		bl	__aeabi_f2d
 4755 041e 0246     		mov	r2, r0
 4756 0420 0B46     		mov	r3, r1
 4757 0422 8448     		ldr	r0, .L285+60
 4758 0424 8449     		ldr	r1, .L285+64
 4759 0426 FFF7FEFF 		bl	sprintf
1120:state_machine.c ****             sprintf((char *)cResist_Set,"%4.1fohm",Set_Resist);
 4760              		.loc 1 1120 0
 4761 042a 844B     		ldr	r3, .L285+68
 4762 042c 1B68     		ldr	r3, [r3]	@ float
 4763 042e 1846     		mov	r0, r3
 4764 0430 FFF7FEFF 		bl	__aeabi_f2d
 4765 0434 0246     		mov	r2, r0
 4766 0436 0B46     		mov	r3, r1
 4767 0438 8148     		ldr	r0, .L285+72
 4768 043a 8249     		ldr	r1, .L285+76
 4769 043c FFF7FEFF 		bl	sprintf
1121:state_machine.c ****             LCD_Draw(Current_State, Position_Number); 
 4770              		.loc 1 1121 0
 4771 0440 814B     		ldr	r3, .L285+80
 4772 0442 1A78     		ldrb	r2, [r3]	@ zero_extendqisi2
 4773 0444 814B     		ldr	r3, .L285+84
 4774 0446 1B78     		ldrb	r3, [r3]	@ zero_extendqisi2
 4775 0448 DBB2     		uxtb	r3, r3
 4776 044a 1046     		mov	r0, r2
 4777 044c 1946     		mov	r1, r3
 4778 044e FFF7FEFF 		bl	LCD_Draw
1122:state_machine.c ****             Loop_Counter = 0;
 4779              		.loc 1 1122 0
 4780 0452 714B     		ldr	r3, .L285+32
 4781 0454 0022     		movs	r2, #0
 4782 0456 1A60     		str	r2, [r3]
 4783              	.L248:
1123:state_machine.c ****         }
1124:state_machine.c ****         DACValue = 0;
 4784              		.loc 1 1124 0
 4785 0458 6D4B     		ldr	r3, .L285+24
 4786 045a 0022     		movs	r2, #0
 4787 045c 1A80     		strh	r2, [r3]	@ movhi
1125:state_machine.c ****         DVDAC8_1_SetValue(0); 
 4788              		.loc 1 1125 0
ARM GAS  C:\Users\KJA\AppData\Local\Temp\ccAyzU2h.s 			page 105


 4789 045e 0020     		movs	r0, #0
 4790 0460 FFF7FEFF 		bl	DVDAC8_1_SetValue
1126:state_machine.c ****         DAC_MUX_Select(0);     
 4791              		.loc 1 1126 0
 4792 0464 0020     		movs	r0, #0
 4793 0466 FFF7FEFF 		bl	DAC_MUX_Select
1127:state_machine.c ****         
1128:state_machine.c ****         // Disable Relay
1129:state_machine.c ****         RELAY_Write(0);
 4794              		.loc 1 1129 0
 4795 046a 0020     		movs	r0, #0
 4796 046c FFF7FEFF 		bl	RELAY_Write
 4797              	.L247:
1130:state_machine.c ****     }
1131:state_machine.c ****     
1132:state_machine.c ****     
1133:state_machine.c ****     // Encoder Control
1134:state_machine.c ****     if(!(Push_Reg_Read() == 0)){
 4798              		.loc 1 1134 0
 4799 0470 FFF7FEFF 		bl	Push_Reg_Read
 4800 0474 0346     		mov	r3, r0
 4801 0476 002B     		cmp	r3, #0
 4802 0478 15D0     		beq	.L249
1135:state_machine.c ****         Edit_Value_Mode = !Edit_Value_Mode;
 4803              		.loc 1 1135 0
 4804 047a 754B     		ldr	r3, .L285+88
 4805 047c 1B78     		ldrb	r3, [r3]	@ zero_extendqisi2
 4806 047e 002B     		cmp	r3, #0
 4807 0480 0CBF     		ite	eq
 4808 0482 0123     		moveq	r3, #1
 4809 0484 0023     		movne	r3, #0
 4810 0486 DBB2     		uxtb	r3, r3
 4811 0488 1A46     		mov	r2, r3
 4812 048a 714B     		ldr	r3, .L285+88
 4813 048c 1A70     		strb	r2, [r3]
1136:state_machine.c ****         QD_SetCounter(Current_Counter);
 4814              		.loc 1 1136 0
 4815 048e 714B     		ldr	r3, .L285+92
 4816 0490 1B68     		ldr	r3, [r3]
 4817 0492 9BB2     		uxth	r3, r3
 4818 0494 1BB2     		sxth	r3, r3
 4819 0496 1846     		mov	r0, r3
 4820 0498 FFF7FEFF 		bl	QD_SetCounter
1137:state_machine.c ****         Buzzer_Shot(Push_Buzzer__Default_Lenght);
 4821              		.loc 1 1137 0
 4822 049c 6E4B     		ldr	r3, .L285+96
 4823 049e 1B68     		ldr	r3, [r3]
 4824 04a0 1846     		mov	r0, r3
 4825 04a2 FFF7FEFF 		bl	Buzzer_Shot
 4826              	.L249:
1138:state_machine.c ****     }
1139:state_machine.c ****     
1140:state_machine.c **** 
1141:state_machine.c ****     if(Edit_Value_Mode == 1){ 
 4827              		.loc 1 1141 0
 4828 04a6 6A4B     		ldr	r3, .L285+88
 4829 04a8 1B78     		ldrb	r3, [r3]	@ zero_extendqisi2
ARM GAS  C:\Users\KJA\AppData\Local\Temp\ccAyzU2h.s 			page 106


 4830 04aa 012B     		cmp	r3, #1
 4831 04ac 40F00881 		bne	.L250
1142:state_machine.c ****         Current_Counter = QD_GetCounter();
 4832              		.loc 1 1142 0
 4833 04b0 FFF7FEFF 		bl	QD_GetCounter
 4834 04b4 0346     		mov	r3, r0
 4835 04b6 1A46     		mov	r2, r3
 4836 04b8 664B     		ldr	r3, .L285+92
 4837 04ba 1A60     		str	r2, [r3]
1143:state_machine.c ****         
1144:state_machine.c ****         if(Position_Number == 0){
 4838              		.loc 1 1144 0
 4839 04bc 634B     		ldr	r3, .L285+84
 4840 04be 1B78     		ldrb	r3, [r3]	@ zero_extendqisi2
 4841 04c0 002B     		cmp	r3, #0
 4842 04c2 29D1     		bne	.L251
1145:state_machine.c ****             if(!(Last_Counter == Current_Counter)){
 4843              		.loc 1 1145 0
 4844 04c4 654B     		ldr	r3, .L285+100
 4845 04c6 1A68     		ldr	r2, [r3]
 4846 04c8 624B     		ldr	r3, .L285+92
 4847 04ca 1B68     		ldr	r3, [r3]
 4848 04cc 9A42     		cmp	r2, r3
 4849 04ce 23D0     		beq	.L251
1146:state_machine.c ****                 if(Last_Counter > Current_Counter){
 4850              		.loc 1 1146 0
 4851 04d0 624B     		ldr	r3, .L285+100
 4852 04d2 1A68     		ldr	r2, [r3]
 4853 04d4 5F4B     		ldr	r3, .L285+92
 4854 04d6 1B68     		ldr	r3, [r3]
 4855 04d8 9A42     		cmp	r2, r3
 4856 04da 09DD     		ble	.L252
1147:state_machine.c ****                     Set_Power_Temporary_Value = Set_Power_Temporary_Value - 10;
 4857              		.loc 1 1147 0
 4858 04dc 604B     		ldr	r3, .L285+104
 4859 04de 1B68     		ldr	r3, [r3]	@ float
 4860 04e0 1846     		mov	r0, r3
 4861 04e2 6049     		ldr	r1, .L285+108
 4862 04e4 FFF7FEFF 		bl	__aeabi_fsub
 4863 04e8 0346     		mov	r3, r0
 4864 04ea 1A46     		mov	r2, r3
 4865 04ec 5C4B     		ldr	r3, .L285+104
 4866 04ee 1A60     		str	r2, [r3]	@ float
 4867              	.L252:
1148:state_machine.c ****                 }
1149:state_machine.c ****                 if(Last_Counter < Current_Counter){
 4868              		.loc 1 1149 0
 4869 04f0 5A4B     		ldr	r3, .L285+100
 4870 04f2 1A68     		ldr	r2, [r3]
 4871 04f4 574B     		ldr	r3, .L285+92
 4872 04f6 1B68     		ldr	r3, [r3]
 4873 04f8 9A42     		cmp	r2, r3
 4874 04fa 09DA     		bge	.L253
1150:state_machine.c ****                     Set_Power_Temporary_Value = Set_Power_Temporary_Value + 10;
 4875              		.loc 1 1150 0
 4876 04fc 584B     		ldr	r3, .L285+104
 4877 04fe 1B68     		ldr	r3, [r3]	@ float
ARM GAS  C:\Users\KJA\AppData\Local\Temp\ccAyzU2h.s 			page 107


 4878 0500 1846     		mov	r0, r3
 4879 0502 5849     		ldr	r1, .L285+108
 4880 0504 FFF7FEFF 		bl	__aeabi_fadd
 4881 0508 0346     		mov	r3, r0
 4882 050a 1A46     		mov	r2, r3
 4883 050c 544B     		ldr	r3, .L285+104
 4884 050e 1A60     		str	r2, [r3]	@ float
 4885              	.L253:
1151:state_machine.c ****                 }
1152:state_machine.c ****                 Last_Counter = Current_Counter;   
 4886              		.loc 1 1152 0
 4887 0510 504B     		ldr	r3, .L285+92
 4888 0512 1B68     		ldr	r3, [r3]
 4889 0514 514A     		ldr	r2, .L285+100
 4890 0516 1360     		str	r3, [r2]
 4891              	.L251:
1153:state_machine.c ****             }      
1154:state_machine.c ****         }        
1155:state_machine.c ****         
1156:state_machine.c ****         if(Position_Number == 1){
 4892              		.loc 1 1156 0
 4893 0518 4C4B     		ldr	r3, .L285+84
 4894 051a 1B78     		ldrb	r3, [r3]	@ zero_extendqisi2
 4895 051c 5BB2     		sxtb	r3, r3
 4896 051e 012B     		cmp	r3, #1
 4897 0520 2BD1     		bne	.L254
1157:state_machine.c ****             if(!(Last_Counter == Current_Counter)){
 4898              		.loc 1 1157 0
 4899 0522 4E4B     		ldr	r3, .L285+100
 4900 0524 1A68     		ldr	r2, [r3]
 4901 0526 4B4B     		ldr	r3, .L285+92
 4902 0528 1B68     		ldr	r3, [r3]
 4903 052a 9A42     		cmp	r2, r3
 4904 052c 25D0     		beq	.L254
1158:state_machine.c ****                 if(Last_Counter > Current_Counter){
 4905              		.loc 1 1158 0
 4906 052e 4B4B     		ldr	r3, .L285+100
 4907 0530 1A68     		ldr	r2, [r3]
 4908 0532 484B     		ldr	r3, .L285+92
 4909 0534 1B68     		ldr	r3, [r3]
 4910 0536 9A42     		cmp	r2, r3
 4911 0538 0ADD     		ble	.L255
1159:state_machine.c ****                     Set_Power_Temporary_Value = Set_Power_Temporary_Value - 1;
 4912              		.loc 1 1159 0
 4913 053a 494B     		ldr	r3, .L285+104
 4914 053c 1B68     		ldr	r3, [r3]	@ float
 4915 053e 1846     		mov	r0, r3
 4916 0540 4FF07E51 		mov	r1, #1065353216
 4917 0544 FFF7FEFF 		bl	__aeabi_fsub
 4918 0548 0346     		mov	r3, r0
 4919 054a 1A46     		mov	r2, r3
 4920 054c 444B     		ldr	r3, .L285+104
 4921 054e 1A60     		str	r2, [r3]	@ float
 4922              	.L255:
1160:state_machine.c ****                 }
1161:state_machine.c ****                 if(Last_Counter < Current_Counter){
 4923              		.loc 1 1161 0
ARM GAS  C:\Users\KJA\AppData\Local\Temp\ccAyzU2h.s 			page 108


 4924 0550 424B     		ldr	r3, .L285+100
 4925 0552 1A68     		ldr	r2, [r3]
 4926 0554 3F4B     		ldr	r3, .L285+92
 4927 0556 1B68     		ldr	r3, [r3]
 4928 0558 9A42     		cmp	r2, r3
 4929 055a 0ADA     		bge	.L256
1162:state_machine.c ****                     Set_Power_Temporary_Value = Set_Power_Temporary_Value + 1;
 4930              		.loc 1 1162 0
 4931 055c 404B     		ldr	r3, .L285+104
 4932 055e 1B68     		ldr	r3, [r3]	@ float
 4933 0560 1846     		mov	r0, r3
 4934 0562 4FF07E51 		mov	r1, #1065353216
 4935 0566 FFF7FEFF 		bl	__aeabi_fadd
 4936 056a 0346     		mov	r3, r0
 4937 056c 1A46     		mov	r2, r3
 4938 056e 3C4B     		ldr	r3, .L285+104
 4939 0570 1A60     		str	r2, [r3]	@ float
 4940              	.L256:
1163:state_machine.c ****                 }
1164:state_machine.c ****                 Last_Counter = Current_Counter;   
 4941              		.loc 1 1164 0
 4942 0572 384B     		ldr	r3, .L285+92
 4943 0574 1B68     		ldr	r3, [r3]
 4944 0576 394A     		ldr	r2, .L285+100
 4945 0578 1360     		str	r3, [r2]
 4946              	.L254:
1165:state_machine.c ****             }      
1166:state_machine.c ****         }
1167:state_machine.c ****         if(Position_Number == 2){
 4947              		.loc 1 1167 0
 4948 057a 344B     		ldr	r3, .L285+84
 4949 057c 1B78     		ldrb	r3, [r3]	@ zero_extendqisi2
 4950 057e 5BB2     		sxtb	r3, r3
 4951 0580 022B     		cmp	r3, #2
 4952 0582 7CD1     		bne	.L257
1168:state_machine.c ****             if(!(Last_Counter == Current_Counter)){
 4953              		.loc 1 1168 0
 4954 0584 354B     		ldr	r3, .L285+100
 4955 0586 1A68     		ldr	r2, [r3]
 4956 0588 324B     		ldr	r3, .L285+92
 4957 058a 1B68     		ldr	r3, [r3]
 4958 058c 9A42     		cmp	r2, r3
 4959 058e 76D0     		beq	.L257
1169:state_machine.c ****                 if(Last_Counter > Current_Counter){
 4960              		.loc 1 1169 0
 4961 0590 324B     		ldr	r3, .L285+100
 4962 0592 1A68     		ldr	r2, [r3]
 4963 0594 2F4B     		ldr	r3, .L285+92
 4964 0596 1B68     		ldr	r3, [r3]
 4965 0598 9A42     		cmp	r2, r3
 4966 059a 16DD     		ble	.L258
1170:state_machine.c ****                     Set_Power_Temporary_Value = Set_Power_Temporary_Value - 0.1;
 4967              		.loc 1 1170 0
 4968 059c 304B     		ldr	r3, .L285+104
 4969 059e 1B68     		ldr	r3, [r3]	@ float
 4970 05a0 1846     		mov	r0, r3
 4971 05a2 FFF7FEFF 		bl	__aeabi_f2d
ARM GAS  C:\Users\KJA\AppData\Local\Temp\ccAyzU2h.s 			page 109


 4972 05a6 0246     		mov	r2, r0
 4973 05a8 0B46     		mov	r3, r1
 4974 05aa 1046     		mov	r0, r2
 4975 05ac 1946     		mov	r1, r3
 4976 05ae 14A3     		adr	r3, .L285+8
 4977 05b0 D3E90023 		ldrd	r2, [r3]
 4978 05b4 FFF7FEFF 		bl	__aeabi_dsub
 4979 05b8 0246     		mov	r2, r0
 4980 05ba 0B46     		mov	r3, r1
 4981 05bc 1046     		mov	r0, r2
 4982 05be 1946     		mov	r1, r3
 4983 05c0 FFF7FEFF 		bl	__aeabi_d2f
 4984 05c4 0246     		mov	r2, r0
 4985 05c6 264B     		ldr	r3, .L285+104
 4986 05c8 1A60     		str	r2, [r3]	@ float
 4987              	.L258:
1171:state_machine.c ****                 }
1172:state_machine.c ****                 if(Last_Counter < Current_Counter){
 4988              		.loc 1 1172 0
 4989 05ca 244B     		ldr	r3, .L285+100
 4990 05cc 1A68     		ldr	r2, [r3]
 4991 05ce 214B     		ldr	r3, .L285+92
 4992 05d0 1B68     		ldr	r3, [r3]
 4993 05d2 9A42     		cmp	r2, r3
 4994 05d4 4FDA     		bge	.L259
1173:state_machine.c ****                     Set_Power_Temporary_Value = Set_Power_Temporary_Value + 0.1;
 4995              		.loc 1 1173 0
 4996 05d6 224B     		ldr	r3, .L285+104
 4997 05d8 1B68     		ldr	r3, [r3]	@ float
 4998 05da 1846     		mov	r0, r3
 4999 05dc FFF7FEFF 		bl	__aeabi_f2d
 5000 05e0 0246     		mov	r2, r0
 5001 05e2 0B46     		mov	r3, r1
 5002 05e4 1046     		mov	r0, r2
 5003 05e6 1946     		mov	r1, r3
 5004 05e8 05A3     		adr	r3, .L285+8
 5005 05ea D3E90023 		ldrd	r2, [r3]
 5006 05ee FFF7FEFF 		bl	__aeabi_dadd
 5007 05f2 0246     		mov	r2, r0
 5008 05f4 0B46     		mov	r3, r1
 5009 05f6 37E0     		b	.L286
 5010              	.L287:
 5011              		.align	3
 5012              	.L285:
 5013 05f8 9A999999 		.word	-1717986918
 5014 05fc 9999A93F 		.word	1068079513
 5015 0600 9A999999 		.word	-1717986918
 5016 0604 9999B93F 		.word	1069128089
 5017 0608 00000000 		.word	fPower
 5018 060c 00000000 		.word	Set_Power
 5019 0610 00000000 		.word	DACValue
 5020 0614 00000000 		.word	OutputEnable
 5021 0618 00000000 		.word	Loop_Counter
 5022 061c 00000000 		.word	fVoltage
 5023 0620 00000000 		.word	cVoltage_Set
 5024 0624 20000000 		.word	.LC4
 5025 0628 00000000 		.word	Set_Current
ARM GAS  C:\Users\KJA\AppData\Local\Temp\ccAyzU2h.s 			page 110


 5026 062c 00000000 		.word	cCurrent_Set
 5027 0630 28000000 		.word	.LC5
 5028 0634 00000000 		.word	cPower_Set
 5029 0638 44000000 		.word	.LC8
 5030 063c 00000000 		.word	Set_Resist
 5031 0640 00000000 		.word	cResist_Set
 5032 0644 38000000 		.word	.LC7
 5033 0648 00000000 		.word	Current_State
 5034 064c 00000000 		.word	Position_Number
 5035 0650 00000000 		.word	Edit_Value_Mode
 5036 0654 00000000 		.word	Current_Counter
 5037 0658 00000000 		.word	Push_Buzzer__Default_Lenght
 5038 065c 00000000 		.word	Last_Counter
 5039 0660 00000000 		.word	Set_Power_Temporary_Value
 5040 0664 00002041 		.word	1092616192
 5041              	.L286:
 5042 0668 1046     		mov	r0, r2
 5043 066a 1946     		mov	r1, r3
 5044 066c FFF7FEFF 		bl	__aeabi_d2f
 5045 0670 0246     		mov	r2, r0
 5046 0672 5A4B     		ldr	r3, .L288
 5047 0674 1A60     		str	r2, [r3]	@ float
 5048              	.L259:
1174:state_machine.c ****                 }
1175:state_machine.c ****                 Last_Counter = Current_Counter;   
 5049              		.loc 1 1175 0
 5050 0676 5A4B     		ldr	r3, .L288+4
 5051 0678 1B68     		ldr	r3, [r3]
 5052 067a 5A4A     		ldr	r2, .L288+8
 5053 067c 1360     		str	r3, [r2]
 5054              	.L257:
1176:state_machine.c ****             }      
1177:state_machine.c ****         }
1178:state_machine.c ****           
1179:state_machine.c ****         if(Set_Power_Temporary_Value > MaxSetValue){
 5055              		.loc 1 1179 0
 5056 067e 574B     		ldr	r3, .L288
 5057 0680 1B68     		ldr	r3, [r3]	@ float
 5058 0682 1846     		mov	r0, r3
 5059 0684 7968     		ldr	r1, [r7, #4]	@ float
 5060 0686 FFF7FEFF 		bl	__aeabi_fcmpgt
 5061 068a 0346     		mov	r3, r0
 5062 068c 002B     		cmp	r3, #0
 5063 068e 02D0     		beq	.L260
1180:state_machine.c ****             Set_Power_Temporary_Value = MaxSetValue;
 5064              		.loc 1 1180 0
 5065 0690 524A     		ldr	r2, .L288
 5066 0692 7B68     		ldr	r3, [r7, #4]	@ float
 5067 0694 1360     		str	r3, [r2]	@ float
 5068              	.L260:
1181:state_machine.c ****         }
1182:state_machine.c ****         if(Set_Power_Temporary_Value < 0){
 5069              		.loc 1 1182 0
 5070 0696 514B     		ldr	r3, .L288
 5071 0698 1B68     		ldr	r3, [r3]	@ float
 5072 069a 1846     		mov	r0, r3
 5073 069c 4FF00001 		mov	r1, #0
ARM GAS  C:\Users\KJA\AppData\Local\Temp\ccAyzU2h.s 			page 111


 5074 06a0 FFF7FEFF 		bl	__aeabi_fcmplt
 5075 06a4 0346     		mov	r3, r0
 5076 06a6 002B     		cmp	r3, #0
 5077 06a8 06D0     		beq	.L262
1183:state_machine.c ****             OutputEnable = 0;
 5078              		.loc 1 1183 0
 5079 06aa 4F4B     		ldr	r3, .L288+12
 5080 06ac 0022     		movs	r2, #0
 5081 06ae 1A70     		strb	r2, [r3]
1184:state_machine.c ****             Set_Power_Temporary_Value = 0;
 5082              		.loc 1 1184 0
 5083 06b0 4A4B     		ldr	r3, .L288
 5084 06b2 4FF00002 		mov	r2, #0
 5085 06b6 1A60     		str	r2, [r3]	@ float
 5086              	.L262:
1185:state_machine.c ****         }
1186:state_machine.c ****         Set_Power = Set_Power_Temporary_Value;  
 5087              		.loc 1 1186 0
 5088 06b8 484B     		ldr	r3, .L288
 5089 06ba 1B68     		ldr	r3, [r3]	@ float
 5090 06bc 4B4A     		ldr	r2, .L288+16
 5091 06be 1360     		str	r3, [r2]	@ float
 5092              	.L250:
1187:state_machine.c ****     }
1188:state_machine.c ****  
1189:state_machine.c ****     //Buttons Control
1190:state_machine.c ****     if(!(button1 == 0)){    //Output Enable Button
 5093              		.loc 1 1190 0
 5094 06c0 4B4B     		ldr	r3, .L288+20
 5095 06c2 1B78     		ldrb	r3, [r3]	@ zero_extendqisi2
 5096 06c4 002B     		cmp	r3, #0
 5097 06c6 17D0     		beq	.L264
1191:state_machine.c ****         Buzzer_Shot(Push_Buzzer__Default_Lenght);
 5098              		.loc 1 1191 0
 5099 06c8 4A4B     		ldr	r3, .L288+24
 5100 06ca 1B68     		ldr	r3, [r3]
 5101 06cc 1846     		mov	r0, r3
 5102 06ce FFF7FEFF 		bl	Buzzer_Shot
1192:state_machine.c ****         if(OutputEnable == 0){
 5103              		.loc 1 1192 0
 5104 06d2 454B     		ldr	r3, .L288+12
 5105 06d4 1B78     		ldrb	r3, [r3]	@ zero_extendqisi2
 5106 06d6 002B     		cmp	r3, #0
 5107 06d8 08D1     		bne	.L265
1193:state_machine.c ****             if(Check_Input() == 1){
 5108              		.loc 1 1193 0
 5109 06da FFF7FEFF 		bl	Check_Input
 5110 06de 0346     		mov	r3, r0
 5111 06e0 012B     		cmp	r3, #1
 5112 06e2 06D1     		bne	.L267
1194:state_machine.c ****                 OutputEnable = 1;
 5113              		.loc 1 1194 0
 5114 06e4 404B     		ldr	r3, .L288+12
 5115 06e6 0122     		movs	r2, #1
 5116 06e8 1A70     		strb	r2, [r3]
 5117 06ea 02E0     		b	.L267
 5118              	.L265:
ARM GAS  C:\Users\KJA\AppData\Local\Temp\ccAyzU2h.s 			page 112


1195:state_machine.c ****             }
1196:state_machine.c ****         }
1197:state_machine.c ****         else OutputEnable = 0;
 5119              		.loc 1 1197 0
 5120 06ec 3E4B     		ldr	r3, .L288+12
 5121 06ee 0022     		movs	r2, #0
 5122 06f0 1A70     		strb	r2, [r3]
 5123              	.L267:
1198:state_machine.c ****         Edit_Value_Mode = 0;      
 5124              		.loc 1 1198 0
 5125 06f2 414B     		ldr	r3, .L288+28
 5126 06f4 0022     		movs	r2, #0
 5127 06f6 1A70     		strb	r2, [r3]
 5128              	.L264:
1199:state_machine.c ****     }
1200:state_machine.c ****     
1201:state_machine.c ****     if(!(button2 == 0)){    //Four/Two Wire Select
 5129              		.loc 1 1201 0
 5130 06f8 404B     		ldr	r3, .L288+32
 5131 06fa 1B78     		ldrb	r3, [r3]	@ zero_extendqisi2
 5132 06fc 002B     		cmp	r3, #0
 5133 06fe 0ED0     		beq	.L268
1202:state_machine.c ****         Four_Wire_Method = !Four_Wire_Method;
 5134              		.loc 1 1202 0
 5135 0700 3F4B     		ldr	r3, .L288+36
 5136 0702 1B78     		ldrb	r3, [r3]	@ zero_extendqisi2
 5137 0704 002B     		cmp	r3, #0
 5138 0706 0CBF     		ite	eq
 5139 0708 0123     		moveq	r3, #1
 5140 070a 0023     		movne	r3, #0
 5141 070c DBB2     		uxtb	r3, r3
 5142 070e 1A46     		mov	r2, r3
 5143 0710 3B4B     		ldr	r3, .L288+36
 5144 0712 1A70     		strb	r2, [r3]
1203:state_machine.c ****         Buzzer_Shot(Push_Buzzer__Default_Lenght);
 5145              		.loc 1 1203 0
 5146 0714 374B     		ldr	r3, .L288+24
 5147 0716 1B68     		ldr	r3, [r3]
 5148 0718 1846     		mov	r0, r3
 5149 071a FFF7FEFF 		bl	Buzzer_Shot
 5150              	.L268:
1204:state_machine.c ****     }
1205:state_machine.c ****     
1206:state_machine.c ****     if(!(button3 == 0)){    //Four/Two Wire Select
 5151              		.loc 1 1206 0
 5152 071e 394B     		ldr	r3, .L288+40
 5153 0720 1B78     		ldrb	r3, [r3]	@ zero_extendqisi2
 5154 0722 002B     		cmp	r3, #0
 5155 0724 0ED0     		beq	.L269
1207:state_machine.c ****         View_Mode = !View_Mode;
 5156              		.loc 1 1207 0
 5157 0726 384B     		ldr	r3, .L288+44
 5158 0728 1B78     		ldrb	r3, [r3]	@ zero_extendqisi2
 5159 072a 002B     		cmp	r3, #0
 5160 072c 0CBF     		ite	eq
 5161 072e 0123     		moveq	r3, #1
 5162 0730 0023     		movne	r3, #0
ARM GAS  C:\Users\KJA\AppData\Local\Temp\ccAyzU2h.s 			page 113


 5163 0732 DBB2     		uxtb	r3, r3
 5164 0734 1A46     		mov	r2, r3
 5165 0736 344B     		ldr	r3, .L288+44
 5166 0738 1A70     		strb	r2, [r3]
1208:state_machine.c ****         Buzzer_Shot(Push_Buzzer__Default_Lenght);
 5167              		.loc 1 1208 0
 5168 073a 2E4B     		ldr	r3, .L288+24
 5169 073c 1B68     		ldr	r3, [r3]
 5170 073e 1846     		mov	r0, r3
 5171 0740 FFF7FEFF 		bl	Buzzer_Shot
 5172              	.L269:
1209:state_machine.c ****     }
1210:state_machine.c ****     
1211:state_machine.c ****     if(!(button4 == 0)){    //Back Button
 5173              		.loc 1 1211 0
 5174 0744 314B     		ldr	r3, .L288+48
 5175 0746 1B78     		ldrb	r3, [r3]	@ zero_extendqisi2
 5176 0748 002B     		cmp	r3, #0
 5177 074a 10D0     		beq	.L270
1212:state_machine.c ****         QD_SetCounter(3);
 5178              		.loc 1 1212 0
 5179 074c 0320     		movs	r0, #3
 5180 074e FFF7FEFF 		bl	QD_SetCounter
1213:state_machine.c ****         OutputEnable = 0;
 5181              		.loc 1 1213 0
 5182 0752 254B     		ldr	r3, .L288+12
 5183 0754 0022     		movs	r2, #0
 5184 0756 1A70     		strb	r2, [r3]
1214:state_machine.c ****         Edit_Value_Mode = 0;
 5185              		.loc 1 1214 0
 5186 0758 274B     		ldr	r3, .L288+28
 5187 075a 0022     		movs	r2, #0
 5188 075c 1A70     		strb	r2, [r3]
1215:state_machine.c ****         Current_State = ConstantMode;
 5189              		.loc 1 1215 0
 5190 075e 2C4B     		ldr	r3, .L288+52
 5191 0760 0222     		movs	r2, #2
 5192 0762 1A70     		strb	r2, [r3]
1216:state_machine.c ****         Buzzer_Shot(Push_Buzzer__Default_Lenght);
 5193              		.loc 1 1216 0
 5194 0764 234B     		ldr	r3, .L288+24
 5195 0766 1B68     		ldr	r3, [r3]
 5196 0768 1846     		mov	r0, r3
 5197 076a FFF7FEFF 		bl	Buzzer_Shot
 5198              	.L270:
1217:state_machine.c ****     }
1218:state_machine.c ****     
1219:state_machine.c **** 
1220:state_machine.c ****     if(!(button6 == 0)){    // Shift Right Button
 5199              		.loc 1 1220 0
 5200 076e 294B     		ldr	r3, .L288+56
 5201 0770 1B78     		ldrb	r3, [r3]	@ zero_extendqisi2
 5202 0772 002B     		cmp	r3, #0
 5203 0774 15D0     		beq	.L271
1221:state_machine.c ****         Position_Number++;
 5204              		.loc 1 1221 0
 5205 0776 284B     		ldr	r3, .L288+60
ARM GAS  C:\Users\KJA\AppData\Local\Temp\ccAyzU2h.s 			page 114


 5206 0778 1B78     		ldrb	r3, [r3]	@ zero_extendqisi2
 5207 077a DBB2     		uxtb	r3, r3
 5208 077c DBB2     		uxtb	r3, r3
 5209 077e 0133     		adds	r3, r3, #1
 5210 0780 DBB2     		uxtb	r3, r3
 5211 0782 DAB2     		uxtb	r2, r3
 5212 0784 244B     		ldr	r3, .L288+60
 5213 0786 1A70     		strb	r2, [r3]
1222:state_machine.c ****         if(Position_Number >2) Position_Number = 2;
 5214              		.loc 1 1222 0
 5215 0788 234B     		ldr	r3, .L288+60
 5216 078a 1B78     		ldrb	r3, [r3]	@ zero_extendqisi2
 5217 078c 5BB2     		sxtb	r3, r3
 5218 078e 022B     		cmp	r3, #2
 5219 0790 02DD     		ble	.L272
 5220              		.loc 1 1222 0 is_stmt 0 discriminator 1
 5221 0792 214B     		ldr	r3, .L288+60
 5222 0794 0222     		movs	r2, #2
 5223 0796 1A70     		strb	r2, [r3]
 5224              	.L272:
1223:state_machine.c ****         Buzzer_Shot(Push_Buzzer__Default_Lenght);
 5225              		.loc 1 1223 0 is_stmt 1
 5226 0798 164B     		ldr	r3, .L288+24
 5227 079a 1B68     		ldr	r3, [r3]
 5228 079c 1846     		mov	r0, r3
 5229 079e FFF7FEFF 		bl	Buzzer_Shot
 5230              	.L271:
1224:state_machine.c ****     }
1225:state_machine.c ****     
1226:state_machine.c ****     if(!(button5 == 0)){    // Shift Left Button
 5231              		.loc 1 1226 0
 5232 07a2 1E4B     		ldr	r3, .L288+64
 5233 07a4 1B78     		ldrb	r3, [r3]	@ zero_extendqisi2
 5234 07a6 002B     		cmp	r3, #0
 5235 07a8 15D0     		beq	.L232
1227:state_machine.c ****         Position_Number--;
 5236              		.loc 1 1227 0
 5237 07aa 1B4B     		ldr	r3, .L288+60
 5238 07ac 1B78     		ldrb	r3, [r3]	@ zero_extendqisi2
 5239 07ae DBB2     		uxtb	r3, r3
 5240 07b0 DBB2     		uxtb	r3, r3
 5241 07b2 013B     		subs	r3, r3, #1
 5242 07b4 DBB2     		uxtb	r3, r3
 5243 07b6 DAB2     		uxtb	r2, r3
 5244 07b8 174B     		ldr	r3, .L288+60
 5245 07ba 1A70     		strb	r2, [r3]
1228:state_machine.c ****         if(Position_Number <0) Position_Number = 0;
 5246              		.loc 1 1228 0
 5247 07bc 164B     		ldr	r3, .L288+60
 5248 07be 1B78     		ldrb	r3, [r3]	@ zero_extendqisi2
 5249 07c0 5BB2     		sxtb	r3, r3
 5250 07c2 002B     		cmp	r3, #0
 5251 07c4 02DA     		bge	.L274
 5252              		.loc 1 1228 0 is_stmt 0 discriminator 1
 5253 07c6 144B     		ldr	r3, .L288+60
 5254 07c8 0022     		movs	r2, #0
 5255 07ca 1A70     		strb	r2, [r3]
ARM GAS  C:\Users\KJA\AppData\Local\Temp\ccAyzU2h.s 			page 115


 5256              	.L274:
1229:state_machine.c ****         Buzzer_Shot(Push_Buzzer__Default_Lenght);
 5257              		.loc 1 1229 0 is_stmt 1
 5258 07cc 094B     		ldr	r3, .L288+24
 5259 07ce 1B68     		ldr	r3, [r3]
 5260 07d0 1846     		mov	r0, r3
 5261 07d2 FFF7FEFF 		bl	Buzzer_Shot
 5262              	.L232:
1230:state_machine.c ****     }
1231:state_machine.c ****     
1232:state_machine.c ****  }
 5263              		.loc 1 1232 0
 5264 07d6 0C37     		adds	r7, r7, #12
 5265              		.cfi_def_cfa_offset 12
 5266 07d8 BD46     		mov	sp, r7
 5267              		.cfi_def_cfa_register 13
 5268              		@ sp needed
 5269 07da 90BD     		pop	{r4, r7, pc}
 5270              	.L289:
 5271              		.align	2
 5272              	.L288:
 5273 07dc 00000000 		.word	Set_Power_Temporary_Value
 5274 07e0 00000000 		.word	Current_Counter
 5275 07e4 00000000 		.word	Last_Counter
 5276 07e8 00000000 		.word	OutputEnable
 5277 07ec 00000000 		.word	Set_Power
 5278 07f0 00000000 		.word	button1
 5279 07f4 00000000 		.word	Push_Buzzer__Default_Lenght
 5280 07f8 00000000 		.word	Edit_Value_Mode
 5281 07fc 00000000 		.word	button2
 5282 0800 00000000 		.word	Four_Wire_Method
 5283 0804 00000000 		.word	button3
 5284 0808 00000000 		.word	View_Mode
 5285 080c 00000000 		.word	button4
 5286 0810 00000000 		.word	Current_State
 5287 0814 00000000 		.word	button6
 5288 0818 00000000 		.word	Position_Number
 5289 081c 00000000 		.word	button5
 5290              		.cfi_endproc
 5291              	.LFE76:
 5292              		.size	State_Machine_ConstantPower, .-State_Machine_ConstantPower
 5293              		.section	.rodata
 5294 004b 00       		.align	2
 5295              	.LC9:
 5296 004c 25342E31 		.ascii	"%4.1f\000"
 5296      6600
 5297 0052 0000     		.section	.text.State_Machine_ConstantResistance,"ax",%progbits
 5298              		.align	2
 5299              		.global	State_Machine_ConstantResistance
 5300              		.thumb
 5301              		.thumb_func
 5302              		.type	State_Machine_ConstantResistance, %function
 5303              	State_Machine_ConstantResistance:
 5304              	.LFB77:
1233:state_machine.c **** 
1234:state_machine.c **** void State_Machine_ConstantResistance(){
 5305              		.loc 1 1234 0
ARM GAS  C:\Users\KJA\AppData\Local\Temp\ccAyzU2h.s 			page 116


 5306              		.cfi_startproc
 5307              		@ args = 0, pretend = 0, frame = 8
 5308              		@ frame_needed = 1, uses_anonymous_args = 0
 5309 0000 90B5     		push	{r4, r7, lr}
 5310              		.cfi_def_cfa_offset 12
 5311              		.cfi_offset 4, -12
 5312              		.cfi_offset 7, -8
 5313              		.cfi_offset 14, -4
 5314 0002 83B0     		sub	sp, sp, #12
 5315              		.cfi_def_cfa_offset 24
 5316 0004 00AF     		add	r7, sp, #0
 5317              		.cfi_def_cfa_register 7
1235:state_machine.c ****     
1236:state_machine.c ****     
1237:state_machine.c ****     
1238:state_machine.c ****     CAP_EN_Write(1);    // Enable 10nF Cap
 5318              		.loc 1 1238 0
 5319 0006 0120     		movs	r0, #1
 5320 0008 FFF7FEFF 		bl	CAP_EN_Write
1239:state_machine.c ****     PWM_Driver_Stop();     //Stop PWM
 5321              		.loc 1 1239 0
 5322 000c FFF7FEFF 		bl	PWM_Driver_Stop
1240:state_machine.c ****     
1241:state_machine.c ****     float MaxSetValue = MaxResistance;
 5323              		.loc 1 1241 0
 5324 0010 184B     		ldr	r3, .L345
 5325 0012 1B68     		ldr	r3, [r3]	@ float
 5326 0014 7B60     		str	r3, [r7, #4]	@ float
1242:state_machine.c ****     float MinSetValue = MinResistance;
 5327              		.loc 1 1242 0
 5328 0016 184B     		ldr	r3, .L345+4
 5329 0018 1B68     		ldr	r3, [r3]	@ float
 5330 001a 3B60     		str	r3, [r7]	@ float
1243:state_machine.c ****         
1244:state_machine.c ****     
1245:state_machine.c ****     // Secondary Loop Counter
1246:state_machine.c ****     Loop_Counter++;
 5331              		.loc 1 1246 0
 5332 001c 174B     		ldr	r3, .L345+8
 5333 001e 1B68     		ldr	r3, [r3]
 5334 0020 0133     		adds	r3, r3, #1
 5335 0022 164A     		ldr	r2, .L345+8
 5336 0024 1360     		str	r3, [r2]
1247:state_machine.c ****     
1248:state_machine.c ****     
1249:state_machine.c ****     // Voltage, Current, Power Measurement and Calculations
1250:state_machine.c ****     
1251:state_machine.c ****     MeasuredVoltage = ADC_SAR_1_GetResult16();   
 5337              		.loc 1 1251 0
 5338 0026 FFF7FEFF 		bl	ADC_SAR_1_GetResult16
 5339 002a 0346     		mov	r3, r0
 5340 002c 9AB2     		uxth	r2, r3
 5341 002e 144B     		ldr	r3, .L345+12
 5342 0030 1A80     		strh	r2, [r3]	@ movhi
1252:state_machine.c ****     MeasuredCurrent = ADC_SAR_2_GetResult16();  
 5343              		.loc 1 1252 0
 5344 0032 FFF7FEFF 		bl	ADC_SAR_2_GetResult16
ARM GAS  C:\Users\KJA\AppData\Local\Temp\ccAyzU2h.s 			page 117


 5345 0036 0346     		mov	r3, r0
 5346 0038 1A46     		mov	r2, r3
 5347 003a 124B     		ldr	r3, .L345+16
 5348 003c 1A80     		strh	r2, [r3]	@ movhi
1253:state_machine.c ****     
1254:state_machine.c ****     if(Four_Wire_Method ==1){
 5349              		.loc 1 1254 0
 5350 003e 124B     		ldr	r3, .L345+20
 5351 0040 1B78     		ldrb	r3, [r3]	@ zero_extendqisi2
 5352 0042 012B     		cmp	r3, #1
 5353 0044 26D1     		bne	.L291
1255:state_machine.c ****         VOLTAGE_SELECT_Write(1);
 5354              		.loc 1 1255 0
 5355 0046 0120     		movs	r0, #1
 5356 0048 FFF7FEFF 		bl	VOLTAGE_SELECT_Write
1256:state_machine.c ****         fVoltage = Four_Wire_Range*ADC_SAR_1_CountsTo_Volts(MeasuredVoltage); 
 5357              		.loc 1 1256 0
 5358 004c 0C4B     		ldr	r3, .L345+12
 5359 004e 1B88     		ldrh	r3, [r3]
 5360 0050 9BB2     		uxth	r3, r3
 5361 0052 1BB2     		sxth	r3, r3
 5362 0054 1846     		mov	r0, r3
 5363 0056 FFF7FEFF 		bl	ADC_SAR_1_CountsTo_Volts
 5364 005a 0246     		mov	r2, r0
 5365 005c 0B4B     		ldr	r3, .L345+24
 5366 005e 1B68     		ldr	r3, [r3]	@ float
 5367 0060 1046     		mov	r0, r2
 5368 0062 1946     		mov	r1, r3
 5369 0064 FFF7FEFF 		bl	__aeabi_fmul
 5370 0068 0346     		mov	r3, r0
 5371 006a 1A46     		mov	r2, r3
 5372 006c 084B     		ldr	r3, .L345+28
 5373 006e 1A60     		str	r2, [r3]	@ float
 5374 0070 25E0     		b	.L292
 5375              	.L346:
 5376 0072 00BF     		.align	2
 5377              	.L345:
 5378 0074 00000000 		.word	MaxResistance
 5379 0078 00000000 		.word	MinResistance
 5380 007c 00000000 		.word	Loop_Counter
 5381 0080 00000000 		.word	MeasuredVoltage
 5382 0084 00000000 		.word	MeasuredCurrent
 5383 0088 00000000 		.word	Four_Wire_Method
 5384 008c 00000000 		.word	Four_Wire_Range
 5385 0090 00000000 		.word	fVoltage
 5386              	.L291:
1257:state_machine.c ****     }
1258:state_machine.c ****     else{
1259:state_machine.c ****         VOLTAGE_SELECT_Write(0);
 5387              		.loc 1 1259 0
 5388 0094 0020     		movs	r0, #0
 5389 0096 FFF7FEFF 		bl	VOLTAGE_SELECT_Write
1260:state_machine.c ****         fVoltage = Two_Wire_Range*ADC_SAR_1_CountsTo_Volts(MeasuredVoltage);        
 5390              		.loc 1 1260 0
 5391 009a A14B     		ldr	r3, .L347+8
 5392 009c 1B88     		ldrh	r3, [r3]
 5393 009e 9BB2     		uxth	r3, r3
ARM GAS  C:\Users\KJA\AppData\Local\Temp\ccAyzU2h.s 			page 118


 5394 00a0 1BB2     		sxth	r3, r3
 5395 00a2 1846     		mov	r0, r3
 5396 00a4 FFF7FEFF 		bl	ADC_SAR_1_CountsTo_Volts
 5397 00a8 0246     		mov	r2, r0
 5398 00aa 9E4B     		ldr	r3, .L347+12
 5399 00ac 1B68     		ldr	r3, [r3]	@ float
 5400 00ae 1046     		mov	r0, r2
 5401 00b0 1946     		mov	r1, r3
 5402 00b2 FFF7FEFF 		bl	__aeabi_fmul
 5403 00b6 0346     		mov	r3, r0
 5404 00b8 1A46     		mov	r2, r3
 5405 00ba 9B4B     		ldr	r3, .L347+16
 5406 00bc 1A60     		str	r2, [r3]	@ float
 5407              	.L292:
1261:state_machine.c ****     } 
1262:state_machine.c ****     
1263:state_machine.c ****     SredniaV = SredniaV*dtV;
 5408              		.loc 1 1263 0
 5409 00be 9B4B     		ldr	r3, .L347+20
 5410 00c0 1B78     		ldrb	r3, [r3]	@ zero_extendqisi2
 5411 00c2 1846     		mov	r0, r3
 5412 00c4 FFF7FEFF 		bl	__aeabi_i2f
 5413 00c8 0246     		mov	r2, r0
 5414 00ca 994B     		ldr	r3, .L347+24
 5415 00cc 1B68     		ldr	r3, [r3]	@ float
 5416 00ce 1046     		mov	r0, r2
 5417 00d0 1946     		mov	r1, r3
 5418 00d2 FFF7FEFF 		bl	__aeabi_fmul
 5419 00d6 0346     		mov	r3, r0
 5420 00d8 1A46     		mov	r2, r3
 5421 00da 954B     		ldr	r3, .L347+24
 5422 00dc 1A60     		str	r2, [r3]	@ float
1264:state_machine.c ****     SredniaV = SredniaV + fVoltage;
 5423              		.loc 1 1264 0
 5424 00de 944B     		ldr	r3, .L347+24
 5425 00e0 1A68     		ldr	r2, [r3]	@ float
 5426 00e2 914B     		ldr	r3, .L347+16
 5427 00e4 1B68     		ldr	r3, [r3]	@ float
 5428 00e6 1046     		mov	r0, r2
 5429 00e8 1946     		mov	r1, r3
 5430 00ea FFF7FEFF 		bl	__aeabi_fadd
 5431 00ee 0346     		mov	r3, r0
 5432 00f0 1A46     		mov	r2, r3
 5433 00f2 8F4B     		ldr	r3, .L347+24
 5434 00f4 1A60     		str	r2, [r3]	@ float
1265:state_machine.c ****     SredniaV = SredniaV / (dtV+1);
 5435              		.loc 1 1265 0
 5436 00f6 8E4B     		ldr	r3, .L347+24
 5437 00f8 1C68     		ldr	r4, [r3]	@ float
 5438 00fa 8C4B     		ldr	r3, .L347+20
 5439 00fc 1B78     		ldrb	r3, [r3]	@ zero_extendqisi2
 5440 00fe 0133     		adds	r3, r3, #1
 5441 0100 1846     		mov	r0, r3
 5442 0102 FFF7FEFF 		bl	__aeabi_i2f
 5443 0106 0346     		mov	r3, r0
 5444 0108 2046     		mov	r0, r4
 5445 010a 1946     		mov	r1, r3
ARM GAS  C:\Users\KJA\AppData\Local\Temp\ccAyzU2h.s 			page 119


 5446 010c FFF7FEFF 		bl	__aeabi_fdiv
 5447 0110 0346     		mov	r3, r0
 5448 0112 1A46     		mov	r2, r3
 5449 0114 864B     		ldr	r3, .L347+24
 5450 0116 1A60     		str	r2, [r3]	@ float
1266:state_machine.c ****     fVoltage = SredniaV;  
 5451              		.loc 1 1266 0
 5452 0118 854B     		ldr	r3, .L347+24
 5453 011a 1B68     		ldr	r3, [r3]	@ float
 5454 011c 824A     		ldr	r2, .L347+16
 5455 011e 1360     		str	r3, [r2]	@ float
1267:state_machine.c ****        
1268:state_machine.c ****     if(Actual_Range == 1) fCurrent = Current_Calibration_Range1 * ADC_SAR_2_CountsTo_Volts(Measured
 5456              		.loc 1 1268 0
 5457 0120 844B     		ldr	r3, .L347+28
 5458 0122 1B78     		ldrb	r3, [r3]	@ zero_extendqisi2
 5459 0124 012B     		cmp	r3, #1
 5460 0126 10D1     		bne	.L293
 5461              		.loc 1 1268 0 is_stmt 0 discriminator 1
 5462 0128 834B     		ldr	r3, .L347+32
 5463 012a 1B88     		ldrh	r3, [r3]
 5464 012c 1BB2     		sxth	r3, r3
 5465 012e 1846     		mov	r0, r3
 5466 0130 FFF7FEFF 		bl	ADC_SAR_2_CountsTo_Volts
 5467 0134 0246     		mov	r2, r0
 5468 0136 814B     		ldr	r3, .L347+36
 5469 0138 1B68     		ldr	r3, [r3]	@ float
 5470 013a 1046     		mov	r0, r2
 5471 013c 1946     		mov	r1, r3
 5472 013e FFF7FEFF 		bl	__aeabi_fmul
 5473 0142 0346     		mov	r3, r0
 5474 0144 1A46     		mov	r2, r3
 5475 0146 7E4B     		ldr	r3, .L347+40
 5476 0148 1A60     		str	r2, [r3]	@ float
 5477              	.L293:
1269:state_machine.c ****     
1270:state_machine.c **** //    fPower = fVoltage*fCurrent;
1271:state_machine.c ****     
1272:state_machine.c ****     fResist = fVoltage/fCurrent;     
 5478              		.loc 1 1272 0 is_stmt 1
 5479 014a 774B     		ldr	r3, .L347+16
 5480 014c 1A68     		ldr	r2, [r3]	@ float
 5481 014e 7C4B     		ldr	r3, .L347+40
 5482 0150 1B68     		ldr	r3, [r3]	@ float
 5483 0152 1046     		mov	r0, r2
 5484 0154 1946     		mov	r1, r3
 5485 0156 FFF7FEFF 		bl	__aeabi_fdiv
 5486 015a 0346     		mov	r3, r0
 5487 015c 1A46     		mov	r2, r3
 5488 015e 794B     		ldr	r3, .L347+44
 5489 0160 1A60     		str	r2, [r3]	@ float
1273:state_machine.c ****     Set_Current = fVoltage/Set_Resist;
 5490              		.loc 1 1273 0
 5491 0162 714B     		ldr	r3, .L347+16
 5492 0164 1A68     		ldr	r2, [r3]	@ float
 5493 0166 784B     		ldr	r3, .L347+48
 5494 0168 1B68     		ldr	r3, [r3]	@ float
ARM GAS  C:\Users\KJA\AppData\Local\Temp\ccAyzU2h.s 			page 120


 5495 016a 1046     		mov	r0, r2
 5496 016c 1946     		mov	r1, r3
 5497 016e FFF7FEFF 		bl	__aeabi_fdiv
 5498 0172 0346     		mov	r3, r0
 5499 0174 1A46     		mov	r2, r3
 5500 0176 754B     		ldr	r3, .L347+52
 5501 0178 1A60     		str	r2, [r3]	@ float
1274:state_machine.c ****     Set_Power = fVoltage*fVoltage/Set_Resist;
 5502              		.loc 1 1274 0
 5503 017a 6B4B     		ldr	r3, .L347+16
 5504 017c 1A68     		ldr	r2, [r3]	@ float
 5505 017e 6A4B     		ldr	r3, .L347+16
 5506 0180 1B68     		ldr	r3, [r3]	@ float
 5507 0182 1046     		mov	r0, r2
 5508 0184 1946     		mov	r1, r3
 5509 0186 FFF7FEFF 		bl	__aeabi_fmul
 5510 018a 0346     		mov	r3, r0
 5511 018c 1A46     		mov	r2, r3
 5512 018e 6E4B     		ldr	r3, .L347+48
 5513 0190 1B68     		ldr	r3, [r3]	@ float
 5514 0192 1046     		mov	r0, r2
 5515 0194 1946     		mov	r1, r3
 5516 0196 FFF7FEFF 		bl	__aeabi_fdiv
 5517 019a 0346     		mov	r3, r0
 5518 019c 1A46     		mov	r2, r3
 5519 019e 6C4B     		ldr	r3, .L347+56
 5520 01a0 1A60     		str	r2, [r3]	@ float
1275:state_machine.c ****     fPower = fVoltage*fCurrent;
 5521              		.loc 1 1275 0
 5522 01a2 614B     		ldr	r3, .L347+16
 5523 01a4 1A68     		ldr	r2, [r3]	@ float
 5524 01a6 664B     		ldr	r3, .L347+40
 5525 01a8 1B68     		ldr	r3, [r3]	@ float
 5526 01aa 1046     		mov	r0, r2
 5527 01ac 1946     		mov	r1, r3
 5528 01ae FFF7FEFF 		bl	__aeabi_fmul
 5529 01b2 0346     		mov	r3, r0
 5530 01b4 1A46     		mov	r2, r3
 5531 01b6 674B     		ldr	r3, .L347+60
 5532 01b8 1A60     		str	r2, [r3]	@ float
1276:state_machine.c ****     
1277:state_machine.c ****     
1278:state_machine.c ****         // Check for OverVoltage
1279:state_machine.c ****     if(fVoltage > MaxVoltage){
 5533              		.loc 1 1279 0
 5534 01ba 5B4B     		ldr	r3, .L347+16
 5535 01bc 1A68     		ldr	r2, [r3]	@ float
 5536 01be 664B     		ldr	r3, .L347+64
 5537 01c0 1B68     		ldr	r3, [r3]	@ float
 5538 01c2 1046     		mov	r0, r2
 5539 01c4 1946     		mov	r1, r3
 5540 01c6 FFF7FEFF 		bl	__aeabi_fcmpgt
 5541 01ca 0346     		mov	r3, r0
 5542 01cc 002B     		cmp	r3, #0
 5543 01ce 0CD0     		beq	.L294
1280:state_machine.c ****         OutputEnable = 0;
 5544              		.loc 1 1280 0
ARM GAS  C:\Users\KJA\AppData\Local\Temp\ccAyzU2h.s 			page 121


 5545 01d0 624B     		ldr	r3, .L347+68
 5546 01d2 0022     		movs	r2, #0
 5547 01d4 1A70     		strb	r2, [r3]
1281:state_machine.c ****         Previous_State = Current_State;
 5548              		.loc 1 1281 0
 5549 01d6 624B     		ldr	r3, .L347+72
 5550 01d8 1A78     		ldrb	r2, [r3]	@ zero_extendqisi2
 5551 01da 624B     		ldr	r3, .L347+76
 5552 01dc 1A70     		strb	r2, [r3]
1282:state_machine.c ****         Current_State = Error_OV;
 5553              		.loc 1 1282 0
 5554 01de 604B     		ldr	r3, .L347+72
 5555 01e0 0C22     		movs	r2, #12
 5556 01e2 1A70     		strb	r2, [r3]
1283:state_machine.c ****         Buzzer_Shot(500000);
 5557              		.loc 1 1283 0
 5558 01e4 6048     		ldr	r0, .L347+80
 5559 01e6 FFF7FEFF 		bl	Buzzer_Shot
 5560              	.L294:
1284:state_machine.c ****     }
1285:state_machine.c ****     
1286:state_machine.c **** 
1287:state_machine.c ****     // Output Enable Case
1288:state_machine.c ****     if(OutputEnable == 1){
 5561              		.loc 1 1288 0
 5562 01ea 5C4B     		ldr	r3, .L347+68
 5563 01ec 1B78     		ldrb	r3, [r3]	@ zero_extendqisi2
 5564 01ee 012B     		cmp	r3, #1
 5565 01f0 40F01581 		bne	.L296
1289:state_machine.c ****         
1290:state_machine.c ****         if(!(Input_Reg_Read())){
 5566              		.loc 1 1290 0
 5567 01f4 FFF7FEFF 		bl	Input_Reg_Read
 5568 01f8 0346     		mov	r3, r0
 5569 01fa 002B     		cmp	r3, #0
 5570 01fc 0CD1     		bne	.L297
1291:state_machine.c ****             OutputEnable = 0;
 5571              		.loc 1 1291 0
 5572 01fe 574B     		ldr	r3, .L347+68
 5573 0200 0022     		movs	r2, #0
 5574 0202 1A70     		strb	r2, [r3]
1292:state_machine.c ****             Previous_State = Current_State;
 5575              		.loc 1 1292 0
 5576 0204 564B     		ldr	r3, .L347+72
 5577 0206 1A78     		ldrb	r2, [r3]	@ zero_extendqisi2
 5578 0208 564B     		ldr	r3, .L347+76
 5579 020a 1A70     		strb	r2, [r3]
1293:state_machine.c ****             Current_State = Error_OC;
 5580              		.loc 1 1293 0
 5581 020c 544B     		ldr	r3, .L347+72
 5582 020e 0F22     		movs	r2, #15
 5583 0210 1A70     		strb	r2, [r3]
1294:state_machine.c ****             Buzzer_Shot(500000);
 5584              		.loc 1 1294 0
 5585 0212 5548     		ldr	r0, .L347+80
 5586 0214 FFF7FEFF 		bl	Buzzer_Shot
 5587              	.L297:
ARM GAS  C:\Users\KJA\AppData\Local\Temp\ccAyzU2h.s 			page 122


1295:state_machine.c ****         }
1296:state_machine.c ****         
1297:state_machine.c ****         if(OverTemperature){
 5588              		.loc 1 1297 0
 5589 0218 544B     		ldr	r3, .L347+84
 5590 021a 1B78     		ldrb	r3, [r3]	@ zero_extendqisi2
 5591 021c 002B     		cmp	r3, #0
 5592 021e 18D0     		beq	.L298
1298:state_machine.c ****             OutputEnable = 0;
 5593              		.loc 1 1298 0
 5594 0220 4E4B     		ldr	r3, .L347+68
 5595 0222 0022     		movs	r2, #0
 5596 0224 1A70     		strb	r2, [r3]
1299:state_machine.c ****             Previous_State = Current_State;
 5597              		.loc 1 1299 0
 5598 0226 4E4B     		ldr	r3, .L347+72
 5599 0228 1A78     		ldrb	r2, [r3]	@ zero_extendqisi2
 5600 022a 4E4B     		ldr	r3, .L347+76
 5601 022c 1A70     		strb	r2, [r3]
1300:state_machine.c ****             Current_State = Error_OT;
 5602              		.loc 1 1300 0
 5603 022e 4C4B     		ldr	r3, .L347+72
 5604 0230 0E22     		movs	r2, #14
 5605 0232 1A70     		strb	r2, [r3]
1301:state_machine.c ****             
1302:state_machine.c ****             DACValue = 0;
 5606              		.loc 1 1302 0
 5607 0234 4E4B     		ldr	r3, .L347+88
 5608 0236 0022     		movs	r2, #0
 5609 0238 1A80     		strh	r2, [r3]	@ movhi
1303:state_machine.c ****             DVDAC8_1_SetValue(0); 
 5610              		.loc 1 1303 0
 5611 023a 0020     		movs	r0, #0
 5612 023c FFF7FEFF 		bl	DVDAC8_1_SetValue
1304:state_machine.c ****             DAC_MUX_Select(0);     
 5613              		.loc 1 1304 0
 5614 0240 0020     		movs	r0, #0
 5615 0242 FFF7FEFF 		bl	DAC_MUX_Select
1305:state_machine.c ****             
1306:state_machine.c ****             // Disable Relay
1307:state_machine.c ****             RELAY_Write(0);
 5616              		.loc 1 1307 0
 5617 0246 0020     		movs	r0, #0
 5618 0248 FFF7FEFF 		bl	RELAY_Write
1308:state_machine.c ****             
1309:state_machine.c ****             Buzzer_Shot(500000);
 5619              		.loc 1 1309 0
 5620 024c 4648     		ldr	r0, .L347+80
 5621 024e FFF7FEFF 		bl	Buzzer_Shot
 5622              	.L298:
1310:state_machine.c ****         }
1311:state_machine.c ****         
1312:state_machine.c ****         // Enable Relay if Input is OK
1313:state_machine.c ****         RELAY_Write(1);
 5623              		.loc 1 1313 0
 5624 0252 0120     		movs	r0, #1
 5625 0254 FFF7FEFF 		bl	RELAY_Write
ARM GAS  C:\Users\KJA\AppData\Local\Temp\ccAyzU2h.s 			page 123


1314:state_machine.c ****             
1315:state_machine.c ****         if(Loop_Counter >= 1000){
 5626              		.loc 1 1315 0
 5627 0258 464B     		ldr	r3, .L347+92
 5628 025a 1B68     		ldr	r3, [r3]
 5629 025c B3F57A7F 		cmp	r3, #1000
 5630 0260 37D3     		bcc	.L299
1316:state_machine.c ****             sprintf((char *)cVoltage_Actual,"%2.2fV",fVoltage);
 5631              		.loc 1 1316 0
 5632 0262 314B     		ldr	r3, .L347+16
 5633 0264 1B68     		ldr	r3, [r3]	@ float
 5634 0266 1846     		mov	r0, r3
 5635 0268 FFF7FEFF 		bl	__aeabi_f2d
 5636 026c 0246     		mov	r2, r0
 5637 026e 0B46     		mov	r3, r1
 5638 0270 4148     		ldr	r0, .L347+96
 5639 0272 4249     		ldr	r1, .L347+100
 5640 0274 FFF7FEFF 		bl	sprintf
1317:state_machine.c ****             sprintf((char *)cCurrent_Actual,"%2.2fA",fCurrent);
 5641              		.loc 1 1317 0
 5642 0278 314B     		ldr	r3, .L347+40
 5643 027a 1B68     		ldr	r3, [r3]	@ float
 5644 027c 1846     		mov	r0, r3
 5645 027e FFF7FEFF 		bl	__aeabi_f2d
 5646 0282 0246     		mov	r2, r0
 5647 0284 0B46     		mov	r3, r1
 5648 0286 3E48     		ldr	r0, .L347+104
 5649 0288 3E49     		ldr	r1, .L347+108
 5650 028a FFF7FEFF 		bl	sprintf
1318:state_machine.c ****             sprintf((char *)cPower_Actual,"%3.2fW",fPower);
 5651              		.loc 1 1318 0
 5652 028e 314B     		ldr	r3, .L347+60
 5653 0290 1B68     		ldr	r3, [r3]	@ float
 5654 0292 1846     		mov	r0, r3
 5655 0294 FFF7FEFF 		bl	__aeabi_f2d
 5656 0298 0246     		mov	r2, r0
 5657 029a 0B46     		mov	r3, r1
 5658 029c 3A48     		ldr	r0, .L347+112
 5659 029e 3B49     		ldr	r1, .L347+116
 5660 02a0 FFF7FEFF 		bl	sprintf
1319:state_machine.c ****             sprintf((char *)cResist_Actual,"%4.1f",fResist);
 5661              		.loc 1 1319 0
 5662 02a4 274B     		ldr	r3, .L347+44
 5663 02a6 1B68     		ldr	r3, [r3]	@ float
 5664 02a8 1846     		mov	r0, r3
 5665 02aa FFF7FEFF 		bl	__aeabi_f2d
 5666 02ae 0246     		mov	r2, r0
 5667 02b0 0B46     		mov	r3, r1
 5668 02b2 3748     		ldr	r0, .L347+120
 5669 02b4 3749     		ldr	r1, .L347+124
 5670 02b6 FFF7FEFF 		bl	sprintf
1320:state_machine.c ****             LCD_Draw(Current_State, Position_Number); 
 5671              		.loc 1 1320 0
 5672 02ba 294B     		ldr	r3, .L347+72
 5673 02bc 1A78     		ldrb	r2, [r3]	@ zero_extendqisi2
 5674 02be 364B     		ldr	r3, .L347+128
 5675 02c0 1B78     		ldrb	r3, [r3]	@ zero_extendqisi2
ARM GAS  C:\Users\KJA\AppData\Local\Temp\ccAyzU2h.s 			page 124


 5676 02c2 DBB2     		uxtb	r3, r3
 5677 02c4 1046     		mov	r0, r2
 5678 02c6 1946     		mov	r1, r3
 5679 02c8 FFF7FEFF 		bl	LCD_Draw
1321:state_machine.c ****             Loop_Counter = 0;
 5680              		.loc 1 1321 0
 5681 02cc 294B     		ldr	r3, .L347+92
 5682 02ce 0022     		movs	r2, #0
 5683 02d0 1A60     		str	r2, [r3]
 5684              	.L299:
1322:state_machine.c ****         }
1323:state_machine.c **** 
1324:state_machine.c ****         DAC_MUX_Select(2);
 5685              		.loc 1 1324 0
 5686 02d2 0220     		movs	r0, #2
 5687 02d4 FFF7FEFF 		bl	DAC_MUX_Select
1325:state_machine.c ****         
1326:state_machine.c ****         //Regulator
1327:state_machine.c ****         if(Set_Resist - fResist > 0.05){  // >=
 5688              		.loc 1 1327 0
 5689 02d8 1B4B     		ldr	r3, .L347+48
 5690 02da 1A68     		ldr	r2, [r3]	@ float
 5691 02dc 194B     		ldr	r3, .L347+44
 5692 02de 1B68     		ldr	r3, [r3]	@ float
 5693 02e0 1046     		mov	r0, r2
 5694 02e2 1946     		mov	r1, r3
 5695 02e4 FFF7FEFF 		bl	__aeabi_fsub
 5696 02e8 0346     		mov	r3, r0
 5697 02ea 1846     		mov	r0, r3
 5698 02ec FFF7FEFF 		bl	__aeabi_f2d
 5699 02f0 0246     		mov	r2, r0
 5700 02f2 0B46     		mov	r3, r1
 5701 02f4 1046     		mov	r0, r2
 5702 02f6 1946     		mov	r1, r3
 5703 02f8 07A3     		adr	r3, .L347
 5704 02fa D3E90023 		ldrd	r2, [r3]
 5705 02fe FFF7FEFF 		bl	__aeabi_dcmpgt
 5706 0302 0346     		mov	r3, r0
 5707 0304 002B     		cmp	r3, #0
 5708 0306 5DD0     		beq	.L344
1328:state_machine.c ****             DACValue--;
 5709              		.loc 1 1328 0
 5710 0308 194B     		ldr	r3, .L347+88
 5711 030a 1B88     		ldrh	r3, [r3]
 5712 030c 013B     		subs	r3, r3, #1
 5713 030e 9AB2     		uxth	r2, r3
 5714 0310 44E0     		b	.L348
 5715              	.L349:
 5716 0312 00BFAFF3 		.align	3
 5716      0080
 5717              	.L347:
 5718 0318 9A999999 		.word	-1717986918
 5719 031c 9999A93F 		.word	1068079513
 5720 0320 00000000 		.word	MeasuredVoltage
 5721 0324 00000000 		.word	Two_Wire_Range
 5722 0328 00000000 		.word	fVoltage
 5723 032c 00000000 		.word	dtV
ARM GAS  C:\Users\KJA\AppData\Local\Temp\ccAyzU2h.s 			page 125


 5724 0330 00000000 		.word	SredniaV
 5725 0334 00000000 		.word	Actual_Range
 5726 0338 00000000 		.word	MeasuredCurrent
 5727 033c 00000000 		.word	Current_Calibration_Range1
 5728 0340 00000000 		.word	fCurrent
 5729 0344 00000000 		.word	fResist
 5730 0348 00000000 		.word	Set_Resist
 5731 034c 00000000 		.word	Set_Current
 5732 0350 00000000 		.word	Set_Power
 5733 0354 00000000 		.word	fPower
 5734 0358 00000000 		.word	MaxVoltage
 5735 035c 00000000 		.word	OutputEnable
 5736 0360 00000000 		.word	Current_State
 5737 0364 00000000 		.word	Previous_State
 5738 0368 20A10700 		.word	500000
 5739 036c 00000000 		.word	OverTemperature
 5740 0370 00000000 		.word	DACValue
 5741 0374 00000000 		.word	Loop_Counter
 5742 0378 00000000 		.word	cVoltage_Actual
 5743 037c 20000000 		.word	.LC4
 5744 0380 00000000 		.word	cCurrent_Actual
 5745 0384 28000000 		.word	.LC5
 5746 0388 00000000 		.word	cPower_Actual
 5747 038c 30000000 		.word	.LC6
 5748 0390 00000000 		.word	cResist_Actual
 5749 0394 4C000000 		.word	.LC9
 5750 0398 00000000 		.word	Position_Number
 5751              	.L348:
 5752 039c 084B     		ldr	r3, .L350
 5753 039e 1A80     		strh	r2, [r3]	@ movhi
1329:state_machine.c ****             if(DACValue > 4080) DACValue = 4080;
 5754              		.loc 1 1329 0
 5755 03a0 074B     		ldr	r3, .L350
 5756 03a2 1B88     		ldrh	r3, [r3]
 5757 03a4 B3F57F6F 		cmp	r3, #4080
 5758 03a8 03D9     		bls	.L302
 5759              		.loc 1 1329 0 is_stmt 0 discriminator 1
 5760 03aa 054B     		ldr	r3, .L350
 5761 03ac 4FF47F62 		mov	r2, #4080
 5762 03b0 1A80     		strh	r2, [r3]	@ movhi
 5763              	.L302:
1330:state_machine.c ****             DVDAC8_1_SetValue(DACValue);                
 5764              		.loc 1 1330 0 is_stmt 1
 5765 03b2 034B     		ldr	r3, .L350
 5766 03b4 1B88     		ldrh	r3, [r3]
 5767 03b6 1846     		mov	r0, r3
 5768 03b8 FFF7FEFF 		bl	DVDAC8_1_SetValue
 5769 03bc 2FE0     		b	.L296
 5770              	.L351:
 5771 03be 00BF     		.align	2
 5772              	.L350:
 5773 03c0 00000000 		.word	DACValue
 5774              	.L344:
1331:state_machine.c ****         }
1332:state_machine.c ****         else if(fResist - Set_Resist > 0.05){
 5775              		.loc 1 1332 0
 5776 03c4 9A4B     		ldr	r3, .L352+8
ARM GAS  C:\Users\KJA\AppData\Local\Temp\ccAyzU2h.s 			page 126


 5777 03c6 1A68     		ldr	r2, [r3]	@ float
 5778 03c8 9A4B     		ldr	r3, .L352+12
 5779 03ca 1B68     		ldr	r3, [r3]	@ float
 5780 03cc 1046     		mov	r0, r2
 5781 03ce 1946     		mov	r1, r3
 5782 03d0 FFF7FEFF 		bl	__aeabi_fsub
 5783 03d4 0346     		mov	r3, r0
 5784 03d6 1846     		mov	r0, r3
 5785 03d8 FFF7FEFF 		bl	__aeabi_f2d
 5786 03dc 0246     		mov	r2, r0
 5787 03de 0B46     		mov	r3, r1
 5788 03e0 1046     		mov	r0, r2
 5789 03e2 1946     		mov	r1, r3
 5790 03e4 90A3     		adr	r3, .L352
 5791 03e6 D3E90023 		ldrd	r2, [r3]
 5792 03ea FFF7FEFF 		bl	__aeabi_dcmpgt
 5793 03ee 0346     		mov	r3, r0
 5794 03f0 002B     		cmp	r3, #0
 5795 03f2 14D0     		beq	.L296
1333:state_machine.c ****             DACValue++;
 5796              		.loc 1 1333 0
 5797 03f4 904B     		ldr	r3, .L352+16
 5798 03f6 1B88     		ldrh	r3, [r3]
 5799 03f8 0133     		adds	r3, r3, #1
 5800 03fa 9AB2     		uxth	r2, r3
 5801 03fc 8E4B     		ldr	r3, .L352+16
 5802 03fe 1A80     		strh	r2, [r3]	@ movhi
1334:state_machine.c ****             if(DACValue <= 0){
 5803              		.loc 1 1334 0
 5804 0400 8D4B     		ldr	r3, .L352+16
 5805 0402 1B88     		ldrh	r3, [r3]
 5806 0404 002B     		cmp	r3, #0
 5807 0406 05D1     		bne	.L304
1335:state_machine.c ****                 DACValue = 0;
 5808              		.loc 1 1335 0
 5809 0408 8B4B     		ldr	r3, .L352+16
 5810 040a 0022     		movs	r2, #0
 5811 040c 1A80     		strh	r2, [r3]	@ movhi
1336:state_machine.c ****                 OutputEnable = 0;
 5812              		.loc 1 1336 0
 5813 040e 8B4B     		ldr	r3, .L352+20
 5814 0410 0022     		movs	r2, #0
 5815 0412 1A70     		strb	r2, [r3]
 5816              	.L304:
1337:state_machine.c ****             }
1338:state_machine.c ****             DVDAC8_1_SetValue(DACValue);        
 5817              		.loc 1 1338 0
 5818 0414 884B     		ldr	r3, .L352+16
 5819 0416 1B88     		ldrh	r3, [r3]
 5820 0418 1846     		mov	r0, r3
 5821 041a FFF7FEFF 		bl	DVDAC8_1_SetValue
 5822              	.L296:
1339:state_machine.c ****         }     
1340:state_machine.c ****     }
1341:state_machine.c ****     
1342:state_machine.c ****     // Output Disable Case
1343:state_machine.c ****     if(OutputEnable == 0){
ARM GAS  C:\Users\KJA\AppData\Local\Temp\ccAyzU2h.s 			page 127


 5823              		.loc 1 1343 0
 5824 041e 874B     		ldr	r3, .L352+20
 5825 0420 1B78     		ldrb	r3, [r3]	@ zero_extendqisi2
 5826 0422 002B     		cmp	r3, #0
 5827 0424 48D1     		bne	.L305
1344:state_machine.c ****         
1345:state_machine.c ****         if(Loop_Counter >= 1000){
 5828              		.loc 1 1345 0
 5829 0426 864B     		ldr	r3, .L352+24
 5830 0428 1B68     		ldr	r3, [r3]
 5831 042a B3F57A7F 		cmp	r3, #1000
 5832 042e 37D3     		bcc	.L306
1346:state_machine.c ****             sprintf((char *)cVoltage_Actual,"%2.2fV",fVoltage);
 5833              		.loc 1 1346 0
 5834 0430 844B     		ldr	r3, .L352+28
 5835 0432 1B68     		ldr	r3, [r3]	@ float
 5836 0434 1846     		mov	r0, r3
 5837 0436 FFF7FEFF 		bl	__aeabi_f2d
 5838 043a 0246     		mov	r2, r0
 5839 043c 0B46     		mov	r3, r1
 5840 043e 8248     		ldr	r0, .L352+32
 5841 0440 8249     		ldr	r1, .L352+36
 5842 0442 FFF7FEFF 		bl	sprintf
1347:state_machine.c ****             sprintf((char *)cCurrent_Set,"%2.2fA",Set_Current);            
 5843              		.loc 1 1347 0
 5844 0446 824B     		ldr	r3, .L352+40
 5845 0448 1B68     		ldr	r3, [r3]	@ float
 5846 044a 1846     		mov	r0, r3
 5847 044c FFF7FEFF 		bl	__aeabi_f2d
 5848 0450 0246     		mov	r2, r0
 5849 0452 0B46     		mov	r3, r1
 5850 0454 7F48     		ldr	r0, .L352+44
 5851 0456 8049     		ldr	r1, .L352+48
 5852 0458 FFF7FEFF 		bl	sprintf
1348:state_machine.c ****             sprintf((char *)cPower_Set,"%2.2fW",Set_Power);
 5853              		.loc 1 1348 0
 5854 045c 7F4B     		ldr	r3, .L352+52
 5855 045e 1B68     		ldr	r3, [r3]	@ float
 5856 0460 1846     		mov	r0, r3
 5857 0462 FFF7FEFF 		bl	__aeabi_f2d
 5858 0466 0246     		mov	r2, r0
 5859 0468 0B46     		mov	r3, r1
 5860 046a 7D48     		ldr	r0, .L352+56
 5861 046c 7D49     		ldr	r1, .L352+60
 5862 046e FFF7FEFF 		bl	sprintf
1349:state_machine.c ****             sprintf((char *)cResist_Set,"%4.1f",Set_Resist);
 5863              		.loc 1 1349 0
 5864 0472 704B     		ldr	r3, .L352+12
 5865 0474 1B68     		ldr	r3, [r3]	@ float
 5866 0476 1846     		mov	r0, r3
 5867 0478 FFF7FEFF 		bl	__aeabi_f2d
 5868 047c 0246     		mov	r2, r0
 5869 047e 0B46     		mov	r3, r1
 5870 0480 7948     		ldr	r0, .L352+64
 5871 0482 7A49     		ldr	r1, .L352+68
 5872 0484 FFF7FEFF 		bl	sprintf
1350:state_machine.c ****             LCD_Draw(Current_State, Position_Number); 
ARM GAS  C:\Users\KJA\AppData\Local\Temp\ccAyzU2h.s 			page 128


 5873              		.loc 1 1350 0
 5874 0488 794B     		ldr	r3, .L352+72
 5875 048a 1A78     		ldrb	r2, [r3]	@ zero_extendqisi2
 5876 048c 794B     		ldr	r3, .L352+76
 5877 048e 1B78     		ldrb	r3, [r3]	@ zero_extendqisi2
 5878 0490 DBB2     		uxtb	r3, r3
 5879 0492 1046     		mov	r0, r2
 5880 0494 1946     		mov	r1, r3
 5881 0496 FFF7FEFF 		bl	LCD_Draw
1351:state_machine.c ****             Loop_Counter = 0;
 5882              		.loc 1 1351 0
 5883 049a 694B     		ldr	r3, .L352+24
 5884 049c 0022     		movs	r2, #0
 5885 049e 1A60     		str	r2, [r3]
 5886              	.L306:
1352:state_machine.c ****         }
1353:state_machine.c ****         DACValue = 0;
 5887              		.loc 1 1353 0
 5888 04a0 654B     		ldr	r3, .L352+16
 5889 04a2 0022     		movs	r2, #0
 5890 04a4 1A80     		strh	r2, [r3]	@ movhi
1354:state_machine.c ****         DVDAC8_1_SetValue(0); 
 5891              		.loc 1 1354 0
 5892 04a6 0020     		movs	r0, #0
 5893 04a8 FFF7FEFF 		bl	DVDAC8_1_SetValue
1355:state_machine.c ****         DAC_MUX_Select(0);     
 5894              		.loc 1 1355 0
 5895 04ac 0020     		movs	r0, #0
 5896 04ae FFF7FEFF 		bl	DAC_MUX_Select
1356:state_machine.c ****         
1357:state_machine.c ****         // Disable Relay
1358:state_machine.c ****         RELAY_Write(0);
 5897              		.loc 1 1358 0
 5898 04b2 0020     		movs	r0, #0
 5899 04b4 FFF7FEFF 		bl	RELAY_Write
 5900              	.L305:
1359:state_machine.c ****     }
1360:state_machine.c ****     
1361:state_machine.c ****     
1362:state_machine.c ****     // Encoder Control
1363:state_machine.c ****     if(!(Push_Reg_Read() == 0)){
 5901              		.loc 1 1363 0
 5902 04b8 FFF7FEFF 		bl	Push_Reg_Read
 5903 04bc 0346     		mov	r3, r0
 5904 04be 002B     		cmp	r3, #0
 5905 04c0 10D0     		beq	.L307
1364:state_machine.c ****         Edit_Value_Mode = !Edit_Value_Mode;
 5906              		.loc 1 1364 0
 5907 04c2 6D4B     		ldr	r3, .L352+80
 5908 04c4 1B78     		ldrb	r3, [r3]	@ zero_extendqisi2
 5909 04c6 002B     		cmp	r3, #0
 5910 04c8 0CBF     		ite	eq
 5911 04ca 0123     		moveq	r3, #1
 5912 04cc 0023     		movne	r3, #0
 5913 04ce DBB2     		uxtb	r3, r3
 5914 04d0 1A46     		mov	r2, r3
 5915 04d2 694B     		ldr	r3, .L352+80
ARM GAS  C:\Users\KJA\AppData\Local\Temp\ccAyzU2h.s 			page 129


 5916 04d4 1A70     		strb	r2, [r3]
1365:state_machine.c ****         QD_SetCounter(Current_Counter);
 5917              		.loc 1 1365 0
 5918 04d6 694B     		ldr	r3, .L352+84
 5919 04d8 1B68     		ldr	r3, [r3]
 5920 04da 9BB2     		uxth	r3, r3
 5921 04dc 1BB2     		sxth	r3, r3
 5922 04de 1846     		mov	r0, r3
 5923 04e0 FFF7FEFF 		bl	QD_SetCounter
 5924              	.L307:
1366:state_machine.c ****     }
1367:state_machine.c ****     
1368:state_machine.c **** 
1369:state_machine.c ****     if(Edit_Value_Mode == 1){ 
 5925              		.loc 1 1369 0
 5926 04e4 644B     		ldr	r3, .L352+80
 5927 04e6 1B78     		ldrb	r3, [r3]	@ zero_extendqisi2
 5928 04e8 012B     		cmp	r3, #1
 5929 04ea 40F06381 		bne	.L308
1370:state_machine.c ****         Current_Counter = QD_GetCounter();
 5930              		.loc 1 1370 0
 5931 04ee FFF7FEFF 		bl	QD_GetCounter
 5932 04f2 0346     		mov	r3, r0
 5933 04f4 1A46     		mov	r2, r3
 5934 04f6 614B     		ldr	r3, .L352+84
 5935 04f8 1A60     		str	r2, [r3]
1371:state_machine.c ****         
1372:state_machine.c ****         if(Position_Number == 0){
 5936              		.loc 1 1372 0
 5937 04fa 5E4B     		ldr	r3, .L352+76
 5938 04fc 1B78     		ldrb	r3, [r3]	@ zero_extendqisi2
 5939 04fe 002B     		cmp	r3, #0
 5940 0500 29D1     		bne	.L309
1373:state_machine.c ****             if(!(Last_Counter == Current_Counter)){
 5941              		.loc 1 1373 0
 5942 0502 5F4B     		ldr	r3, .L352+88
 5943 0504 1A68     		ldr	r2, [r3]
 5944 0506 5D4B     		ldr	r3, .L352+84
 5945 0508 1B68     		ldr	r3, [r3]
 5946 050a 9A42     		cmp	r2, r3
 5947 050c 23D0     		beq	.L309
1374:state_machine.c ****                 if(Last_Counter > Current_Counter){
 5948              		.loc 1 1374 0
 5949 050e 5C4B     		ldr	r3, .L352+88
 5950 0510 1A68     		ldr	r2, [r3]
 5951 0512 5A4B     		ldr	r3, .L352+84
 5952 0514 1B68     		ldr	r3, [r3]
 5953 0516 9A42     		cmp	r2, r3
 5954 0518 09DD     		ble	.L310
1375:state_machine.c ****                     Set_Resist_Temporary_Value = Set_Resist_Temporary_Value - 1000;
 5955              		.loc 1 1375 0
 5956 051a 5A4B     		ldr	r3, .L352+92
 5957 051c 1B68     		ldr	r3, [r3]	@ float
 5958 051e 1846     		mov	r0, r3
 5959 0520 5949     		ldr	r1, .L352+96
 5960 0522 FFF7FEFF 		bl	__aeabi_fsub
 5961 0526 0346     		mov	r3, r0
ARM GAS  C:\Users\KJA\AppData\Local\Temp\ccAyzU2h.s 			page 130


 5962 0528 1A46     		mov	r2, r3
 5963 052a 564B     		ldr	r3, .L352+92
 5964 052c 1A60     		str	r2, [r3]	@ float
 5965              	.L310:
1376:state_machine.c ****                 }
1377:state_machine.c ****                 if(Last_Counter < Current_Counter){
 5966              		.loc 1 1377 0
 5967 052e 544B     		ldr	r3, .L352+88
 5968 0530 1A68     		ldr	r2, [r3]
 5969 0532 524B     		ldr	r3, .L352+84
 5970 0534 1B68     		ldr	r3, [r3]
 5971 0536 9A42     		cmp	r2, r3
 5972 0538 09DA     		bge	.L311
1378:state_machine.c ****                     Set_Resist_Temporary_Value = Set_Resist_Temporary_Value + 1000;
 5973              		.loc 1 1378 0
 5974 053a 524B     		ldr	r3, .L352+92
 5975 053c 1B68     		ldr	r3, [r3]	@ float
 5976 053e 1846     		mov	r0, r3
 5977 0540 5149     		ldr	r1, .L352+96
 5978 0542 FFF7FEFF 		bl	__aeabi_fadd
 5979 0546 0346     		mov	r3, r0
 5980 0548 1A46     		mov	r2, r3
 5981 054a 4E4B     		ldr	r3, .L352+92
 5982 054c 1A60     		str	r2, [r3]	@ float
 5983              	.L311:
1379:state_machine.c ****                 }
1380:state_machine.c ****                 Last_Counter = Current_Counter;   
 5984              		.loc 1 1380 0
 5985 054e 4B4B     		ldr	r3, .L352+84
 5986 0550 1B68     		ldr	r3, [r3]
 5987 0552 4B4A     		ldr	r2, .L352+88
 5988 0554 1360     		str	r3, [r2]
 5989              	.L309:
1381:state_machine.c ****             }      
1382:state_machine.c ****         }        
1383:state_machine.c ****         
1384:state_machine.c ****         if(Position_Number == 1){
 5990              		.loc 1 1384 0
 5991 0556 474B     		ldr	r3, .L352+76
 5992 0558 1B78     		ldrb	r3, [r3]	@ zero_extendqisi2
 5993 055a 5BB2     		sxtb	r3, r3
 5994 055c 012B     		cmp	r3, #1
 5995 055e 29D1     		bne	.L312
1385:state_machine.c ****             if(!(Last_Counter == Current_Counter)){
 5996              		.loc 1 1385 0
 5997 0560 474B     		ldr	r3, .L352+88
 5998 0562 1A68     		ldr	r2, [r3]
 5999 0564 454B     		ldr	r3, .L352+84
 6000 0566 1B68     		ldr	r3, [r3]
 6001 0568 9A42     		cmp	r2, r3
 6002 056a 23D0     		beq	.L312
1386:state_machine.c ****                 if(Last_Counter > Current_Counter){
 6003              		.loc 1 1386 0
 6004 056c 444B     		ldr	r3, .L352+88
 6005 056e 1A68     		ldr	r2, [r3]
 6006 0570 424B     		ldr	r3, .L352+84
 6007 0572 1B68     		ldr	r3, [r3]
ARM GAS  C:\Users\KJA\AppData\Local\Temp\ccAyzU2h.s 			page 131


 6008 0574 9A42     		cmp	r2, r3
 6009 0576 09DD     		ble	.L313
1387:state_machine.c ****                     Set_Resist_Temporary_Value = Set_Resist_Temporary_Value - 100;
 6010              		.loc 1 1387 0
 6011 0578 424B     		ldr	r3, .L352+92
 6012 057a 1B68     		ldr	r3, [r3]	@ float
 6013 057c 1846     		mov	r0, r3
 6014 057e 4349     		ldr	r1, .L352+100
 6015 0580 FFF7FEFF 		bl	__aeabi_fsub
 6016 0584 0346     		mov	r3, r0
 6017 0586 1A46     		mov	r2, r3
 6018 0588 3E4B     		ldr	r3, .L352+92
 6019 058a 1A60     		str	r2, [r3]	@ float
 6020              	.L313:
1388:state_machine.c ****                 }
1389:state_machine.c ****                 if(Last_Counter < Current_Counter){
 6021              		.loc 1 1389 0
 6022 058c 3C4B     		ldr	r3, .L352+88
 6023 058e 1A68     		ldr	r2, [r3]
 6024 0590 3A4B     		ldr	r3, .L352+84
 6025 0592 1B68     		ldr	r3, [r3]
 6026 0594 9A42     		cmp	r2, r3
 6027 0596 09DA     		bge	.L314
1390:state_machine.c ****                     Set_Resist_Temporary_Value = Set_Resist_Temporary_Value + 100;
 6028              		.loc 1 1390 0
 6029 0598 3A4B     		ldr	r3, .L352+92
 6030 059a 1B68     		ldr	r3, [r3]	@ float
 6031 059c 1846     		mov	r0, r3
 6032 059e 3B49     		ldr	r1, .L352+100
 6033 05a0 FFF7FEFF 		bl	__aeabi_fadd
 6034 05a4 0346     		mov	r3, r0
 6035 05a6 1A46     		mov	r2, r3
 6036 05a8 364B     		ldr	r3, .L352+92
 6037 05aa 1A60     		str	r2, [r3]	@ float
 6038              	.L314:
1391:state_machine.c ****                 }
1392:state_machine.c ****                 Last_Counter = Current_Counter;   
 6039              		.loc 1 1392 0
 6040 05ac 334B     		ldr	r3, .L352+84
 6041 05ae 1B68     		ldr	r3, [r3]
 6042 05b0 334A     		ldr	r2, .L352+88
 6043 05b2 1360     		str	r3, [r2]
 6044              	.L312:
1393:state_machine.c ****             }      
1394:state_machine.c ****         }
1395:state_machine.c ****         if(Position_Number == 2){
 6045              		.loc 1 1395 0
 6046 05b4 2F4B     		ldr	r3, .L352+76
 6047 05b6 1B78     		ldrb	r3, [r3]	@ zero_extendqisi2
 6048 05b8 5BB2     		sxtb	r3, r3
 6049 05ba 022B     		cmp	r3, #2
 6050 05bc 29D1     		bne	.L315
1396:state_machine.c ****             if(!(Last_Counter == Current_Counter)){
 6051              		.loc 1 1396 0
 6052 05be 304B     		ldr	r3, .L352+88
 6053 05c0 1A68     		ldr	r2, [r3]
 6054 05c2 2E4B     		ldr	r3, .L352+84
ARM GAS  C:\Users\KJA\AppData\Local\Temp\ccAyzU2h.s 			page 132


 6055 05c4 1B68     		ldr	r3, [r3]
 6056 05c6 9A42     		cmp	r2, r3
 6057 05c8 23D0     		beq	.L315
1397:state_machine.c ****                 if(Last_Counter > Current_Counter){
 6058              		.loc 1 1397 0
 6059 05ca 2D4B     		ldr	r3, .L352+88
 6060 05cc 1A68     		ldr	r2, [r3]
 6061 05ce 2B4B     		ldr	r3, .L352+84
 6062 05d0 1B68     		ldr	r3, [r3]
 6063 05d2 9A42     		cmp	r2, r3
 6064 05d4 09DD     		ble	.L316
1398:state_machine.c ****                     Set_Resist_Temporary_Value = Set_Resist_Temporary_Value - 10;
 6065              		.loc 1 1398 0
 6066 05d6 2B4B     		ldr	r3, .L352+92
 6067 05d8 1B68     		ldr	r3, [r3]	@ float
 6068 05da 1846     		mov	r0, r3
 6069 05dc 2C49     		ldr	r1, .L352+104
 6070 05de FFF7FEFF 		bl	__aeabi_fsub
 6071 05e2 0346     		mov	r3, r0
 6072 05e4 1A46     		mov	r2, r3
 6073 05e6 274B     		ldr	r3, .L352+92
 6074 05e8 1A60     		str	r2, [r3]	@ float
 6075              	.L316:
1399:state_machine.c ****                 }
1400:state_machine.c ****                 if(Last_Counter < Current_Counter){
 6076              		.loc 1 1400 0
 6077 05ea 254B     		ldr	r3, .L352+88
 6078 05ec 1A68     		ldr	r2, [r3]
 6079 05ee 234B     		ldr	r3, .L352+84
 6080 05f0 1B68     		ldr	r3, [r3]
 6081 05f2 9A42     		cmp	r2, r3
 6082 05f4 09DA     		bge	.L317
1401:state_machine.c ****                     Set_Resist_Temporary_Value = Set_Resist_Temporary_Value + 10;
 6083              		.loc 1 1401 0
 6084 05f6 234B     		ldr	r3, .L352+92
 6085 05f8 1B68     		ldr	r3, [r3]	@ float
 6086 05fa 1846     		mov	r0, r3
 6087 05fc 2449     		ldr	r1, .L352+104
 6088 05fe FFF7FEFF 		bl	__aeabi_fadd
 6089 0602 0346     		mov	r3, r0
 6090 0604 1A46     		mov	r2, r3
 6091 0606 1F4B     		ldr	r3, .L352+92
 6092 0608 1A60     		str	r2, [r3]	@ float
 6093              	.L317:
1402:state_machine.c ****                 }
1403:state_machine.c ****                 Last_Counter = Current_Counter;   
 6094              		.loc 1 1403 0
 6095 060a 1C4B     		ldr	r3, .L352+84
 6096 060c 1B68     		ldr	r3, [r3]
 6097 060e 1C4A     		ldr	r2, .L352+88
 6098 0610 1360     		str	r3, [r2]
 6099              	.L315:
1404:state_machine.c ****             }      
1405:state_machine.c ****         }
1406:state_machine.c ****         if(Position_Number == 3){
 6100              		.loc 1 1406 0
 6101 0612 184B     		ldr	r3, .L352+76
ARM GAS  C:\Users\KJA\AppData\Local\Temp\ccAyzU2h.s 			page 133


 6102 0614 1B78     		ldrb	r3, [r3]	@ zero_extendqisi2
 6103 0616 5BB2     		sxtb	r3, r3
 6104 0618 032B     		cmp	r3, #3
 6105 061a 63D1     		bne	.L318
1407:state_machine.c ****             if(!(Last_Counter == Current_Counter)){
 6106              		.loc 1 1407 0
 6107 061c 184B     		ldr	r3, .L352+88
 6108 061e 1A68     		ldr	r2, [r3]
 6109 0620 164B     		ldr	r3, .L352+84
 6110 0622 1B68     		ldr	r3, [r3]
 6111 0624 36E0     		b	.L353
 6112              	.L354:
 6113 0626 00BF     		.align	3
 6114              	.L352:
 6115 0628 9A999999 		.word	-1717986918
 6116 062c 9999A93F 		.word	1068079513
 6117 0630 00000000 		.word	fResist
 6118 0634 00000000 		.word	Set_Resist
 6119 0638 00000000 		.word	DACValue
 6120 063c 00000000 		.word	OutputEnable
 6121 0640 00000000 		.word	Loop_Counter
 6122 0644 00000000 		.word	fVoltage
 6123 0648 00000000 		.word	cVoltage_Actual
 6124 064c 20000000 		.word	.LC4
 6125 0650 00000000 		.word	Set_Current
 6126 0654 00000000 		.word	cCurrent_Set
 6127 0658 28000000 		.word	.LC5
 6128 065c 00000000 		.word	Set_Power
 6129 0660 00000000 		.word	cPower_Set
 6130 0664 44000000 		.word	.LC8
 6131 0668 00000000 		.word	cResist_Set
 6132 066c 4C000000 		.word	.LC9
 6133 0670 00000000 		.word	Current_State
 6134 0674 00000000 		.word	Position_Number
 6135 0678 00000000 		.word	Edit_Value_Mode
 6136 067c 00000000 		.word	Current_Counter
 6137 0680 00000000 		.word	Last_Counter
 6138 0684 00000000 		.word	Set_Resist_Temporary_Value
 6139 0688 00007A44 		.word	1148846080
 6140 068c 0000C842 		.word	1120403456
 6141 0690 00002041 		.word	1092616192
 6142              	.L353:
 6143 0694 9A42     		cmp	r2, r3
 6144 0696 25D0     		beq	.L318
1408:state_machine.c ****                 if(Last_Counter > Current_Counter){
 6145              		.loc 1 1408 0
 6146 0698 8F4B     		ldr	r3, .L355+8
 6147 069a 1A68     		ldr	r2, [r3]
 6148 069c 8F4B     		ldr	r3, .L355+12
 6149 069e 1B68     		ldr	r3, [r3]
 6150 06a0 9A42     		cmp	r2, r3
 6151 06a2 0ADD     		ble	.L319
1409:state_machine.c ****                     Set_Resist_Temporary_Value = Set_Resist_Temporary_Value - 1;
 6152              		.loc 1 1409 0
 6153 06a4 8E4B     		ldr	r3, .L355+16
 6154 06a6 1B68     		ldr	r3, [r3]	@ float
 6155 06a8 1846     		mov	r0, r3
ARM GAS  C:\Users\KJA\AppData\Local\Temp\ccAyzU2h.s 			page 134


 6156 06aa 4FF07E51 		mov	r1, #1065353216
 6157 06ae FFF7FEFF 		bl	__aeabi_fsub
 6158 06b2 0346     		mov	r3, r0
 6159 06b4 1A46     		mov	r2, r3
 6160 06b6 8A4B     		ldr	r3, .L355+16
 6161 06b8 1A60     		str	r2, [r3]	@ float
 6162              	.L319:
1410:state_machine.c ****                 }
1411:state_machine.c ****                 if(Last_Counter < Current_Counter){
 6163              		.loc 1 1411 0
 6164 06ba 874B     		ldr	r3, .L355+8
 6165 06bc 1A68     		ldr	r2, [r3]
 6166 06be 874B     		ldr	r3, .L355+12
 6167 06c0 1B68     		ldr	r3, [r3]
 6168 06c2 9A42     		cmp	r2, r3
 6169 06c4 0ADA     		bge	.L320
1412:state_machine.c ****                     Set_Resist_Temporary_Value = Set_Resist_Temporary_Value + 1;
 6170              		.loc 1 1412 0
 6171 06c6 864B     		ldr	r3, .L355+16
 6172 06c8 1B68     		ldr	r3, [r3]	@ float
 6173 06ca 1846     		mov	r0, r3
 6174 06cc 4FF07E51 		mov	r1, #1065353216
 6175 06d0 FFF7FEFF 		bl	__aeabi_fadd
 6176 06d4 0346     		mov	r3, r0
 6177 06d6 1A46     		mov	r2, r3
 6178 06d8 814B     		ldr	r3, .L355+16
 6179 06da 1A60     		str	r2, [r3]	@ float
 6180              	.L320:
1413:state_machine.c ****                 }
1414:state_machine.c ****                 Last_Counter = Current_Counter;   
 6181              		.loc 1 1414 0
 6182 06dc 7F4B     		ldr	r3, .L355+12
 6183 06de 1B68     		ldr	r3, [r3]
 6184 06e0 7D4A     		ldr	r2, .L355+8
 6185 06e2 1360     		str	r3, [r2]
 6186              	.L318:
1415:state_machine.c ****             }      
1416:state_machine.c ****         }
1417:state_machine.c ****         if(Position_Number == 4){
 6187              		.loc 1 1417 0
 6188 06e4 7F4B     		ldr	r3, .L355+20
 6189 06e6 1B78     		ldrb	r3, [r3]	@ zero_extendqisi2
 6190 06e8 5BB2     		sxtb	r3, r3
 6191 06ea 042B     		cmp	r3, #4
 6192 06ec 43D1     		bne	.L321
1418:state_machine.c ****             if(!(Last_Counter == Current_Counter)){
 6193              		.loc 1 1418 0
 6194 06ee 7A4B     		ldr	r3, .L355+8
 6195 06f0 1A68     		ldr	r2, [r3]
 6196 06f2 7A4B     		ldr	r3, .L355+12
 6197 06f4 1B68     		ldr	r3, [r3]
 6198 06f6 9A42     		cmp	r2, r3
 6199 06f8 3DD0     		beq	.L321
1419:state_machine.c ****                 if(Last_Counter > Current_Counter){
 6200              		.loc 1 1419 0
 6201 06fa 774B     		ldr	r3, .L355+8
 6202 06fc 1A68     		ldr	r2, [r3]
ARM GAS  C:\Users\KJA\AppData\Local\Temp\ccAyzU2h.s 			page 135


 6203 06fe 774B     		ldr	r3, .L355+12
 6204 0700 1B68     		ldr	r3, [r3]
 6205 0702 9A42     		cmp	r2, r3
 6206 0704 16DD     		ble	.L322
1420:state_machine.c ****                     Set_Resist_Temporary_Value = Set_Resist_Temporary_Value - 0.1;
 6207              		.loc 1 1420 0
 6208 0706 764B     		ldr	r3, .L355+16
 6209 0708 1B68     		ldr	r3, [r3]	@ float
 6210 070a 1846     		mov	r0, r3
 6211 070c FFF7FEFF 		bl	__aeabi_f2d
 6212 0710 0246     		mov	r2, r0
 6213 0712 0B46     		mov	r3, r1
 6214 0714 1046     		mov	r0, r2
 6215 0716 1946     		mov	r1, r3
 6216 0718 6DA3     		adr	r3, .L355
 6217 071a D3E90023 		ldrd	r2, [r3]
 6218 071e FFF7FEFF 		bl	__aeabi_dsub
 6219 0722 0246     		mov	r2, r0
 6220 0724 0B46     		mov	r3, r1
 6221 0726 1046     		mov	r0, r2
 6222 0728 1946     		mov	r1, r3
 6223 072a FFF7FEFF 		bl	__aeabi_d2f
 6224 072e 0246     		mov	r2, r0
 6225 0730 6B4B     		ldr	r3, .L355+16
 6226 0732 1A60     		str	r2, [r3]	@ float
 6227              	.L322:
1421:state_machine.c ****                 }
1422:state_machine.c ****                 if(Last_Counter < Current_Counter){
 6228              		.loc 1 1422 0
 6229 0734 684B     		ldr	r3, .L355+8
 6230 0736 1A68     		ldr	r2, [r3]
 6231 0738 684B     		ldr	r3, .L355+12
 6232 073a 1B68     		ldr	r3, [r3]
 6233 073c 9A42     		cmp	r2, r3
 6234 073e 16DA     		bge	.L323
1423:state_machine.c ****                     Set_Resist_Temporary_Value = Set_Resist_Temporary_Value + 0.1;
 6235              		.loc 1 1423 0
 6236 0740 674B     		ldr	r3, .L355+16
 6237 0742 1B68     		ldr	r3, [r3]	@ float
 6238 0744 1846     		mov	r0, r3
 6239 0746 FFF7FEFF 		bl	__aeabi_f2d
 6240 074a 0246     		mov	r2, r0
 6241 074c 0B46     		mov	r3, r1
 6242 074e 1046     		mov	r0, r2
 6243 0750 1946     		mov	r1, r3
 6244 0752 5FA3     		adr	r3, .L355
 6245 0754 D3E90023 		ldrd	r2, [r3]
 6246 0758 FFF7FEFF 		bl	__aeabi_dadd
 6247 075c 0246     		mov	r2, r0
 6248 075e 0B46     		mov	r3, r1
 6249 0760 1046     		mov	r0, r2
 6250 0762 1946     		mov	r1, r3
 6251 0764 FFF7FEFF 		bl	__aeabi_d2f
 6252 0768 0246     		mov	r2, r0
 6253 076a 5D4B     		ldr	r3, .L355+16
 6254 076c 1A60     		str	r2, [r3]	@ float
 6255              	.L323:
ARM GAS  C:\Users\KJA\AppData\Local\Temp\ccAyzU2h.s 			page 136


1424:state_machine.c ****                 }
1425:state_machine.c ****                 Last_Counter = Current_Counter;   
 6256              		.loc 1 1425 0
 6257 076e 5B4B     		ldr	r3, .L355+12
 6258 0770 1B68     		ldr	r3, [r3]
 6259 0772 594A     		ldr	r2, .L355+8
 6260 0774 1360     		str	r3, [r2]
 6261              	.L321:
1426:state_machine.c ****             }      
1427:state_machine.c ****         }
1428:state_machine.c ****         
1429:state_machine.c ****           
1430:state_machine.c ****         if(Set_Resist_Temporary_Value > MaxSetValue){
 6262              		.loc 1 1430 0
 6263 0776 5A4B     		ldr	r3, .L355+16
 6264 0778 1B68     		ldr	r3, [r3]	@ float
 6265 077a 1846     		mov	r0, r3
 6266 077c 7968     		ldr	r1, [r7, #4]	@ float
 6267 077e FFF7FEFF 		bl	__aeabi_fcmpgt
 6268 0782 0346     		mov	r3, r0
 6269 0784 002B     		cmp	r3, #0
 6270 0786 02D0     		beq	.L324
1431:state_machine.c ****             Set_Resist_Temporary_Value = MaxSetValue;
 6271              		.loc 1 1431 0
 6272 0788 554A     		ldr	r2, .L355+16
 6273 078a 7B68     		ldr	r3, [r7, #4]	@ float
 6274 078c 1360     		str	r3, [r2]	@ float
 6275              	.L324:
1432:state_machine.c ****         }
1433:state_machine.c ****         if(Set_Resist_Temporary_Value < MinSetValue){
 6276              		.loc 1 1433 0
 6277 078e 544B     		ldr	r3, .L355+16
 6278 0790 1B68     		ldr	r3, [r3]	@ float
 6279 0792 1846     		mov	r0, r3
 6280 0794 3968     		ldr	r1, [r7]	@ float
 6281 0796 FFF7FEFF 		bl	__aeabi_fcmplt
 6282 079a 0346     		mov	r3, r0
 6283 079c 002B     		cmp	r3, #0
 6284 079e 05D0     		beq	.L326
1434:state_machine.c ****             OutputEnable = 0;
 6285              		.loc 1 1434 0
 6286 07a0 514B     		ldr	r3, .L355+24
 6287 07a2 0022     		movs	r2, #0
 6288 07a4 1A70     		strb	r2, [r3]
1435:state_machine.c ****             Set_Resist_Temporary_Value = MinSetValue;
 6289              		.loc 1 1435 0
 6290 07a6 4E4A     		ldr	r2, .L355+16
 6291 07a8 3B68     		ldr	r3, [r7]	@ float
 6292 07aa 1360     		str	r3, [r2]	@ float
 6293              	.L326:
1436:state_machine.c ****         }
1437:state_machine.c ****         Set_Resist = Set_Resist_Temporary_Value;  
 6294              		.loc 1 1437 0
 6295 07ac 4C4B     		ldr	r3, .L355+16
 6296 07ae 1B68     		ldr	r3, [r3]	@ float
 6297 07b0 4E4A     		ldr	r2, .L355+28
 6298 07b2 1360     		str	r3, [r2]	@ float
ARM GAS  C:\Users\KJA\AppData\Local\Temp\ccAyzU2h.s 			page 137


 6299              	.L308:
1438:state_machine.c ****     }
1439:state_machine.c ****  
1440:state_machine.c ****     //Buttons Control
1441:state_machine.c ****     if(!(button1 == 0)){    //Output Enable Button
 6300              		.loc 1 1441 0
 6301 07b4 4E4B     		ldr	r3, .L355+32
 6302 07b6 1B78     		ldrb	r3, [r3]	@ zero_extendqisi2
 6303 07b8 002B     		cmp	r3, #0
 6304 07ba 17D0     		beq	.L328
1442:state_machine.c ****         Buzzer_Shot(Push_Buzzer__Default_Lenght);
 6305              		.loc 1 1442 0
 6306 07bc 4D4B     		ldr	r3, .L355+36
 6307 07be 1B68     		ldr	r3, [r3]
 6308 07c0 1846     		mov	r0, r3
 6309 07c2 FFF7FEFF 		bl	Buzzer_Shot
1443:state_machine.c ****         if(OutputEnable == 0){
 6310              		.loc 1 1443 0
 6311 07c6 484B     		ldr	r3, .L355+24
 6312 07c8 1B78     		ldrb	r3, [r3]	@ zero_extendqisi2
 6313 07ca 002B     		cmp	r3, #0
 6314 07cc 08D1     		bne	.L329
1444:state_machine.c ****             if(Check_Input() == 1){
 6315              		.loc 1 1444 0
 6316 07ce FFF7FEFF 		bl	Check_Input
 6317 07d2 0346     		mov	r3, r0
 6318 07d4 012B     		cmp	r3, #1
 6319 07d6 06D1     		bne	.L331
1445:state_machine.c ****                 OutputEnable = 1;
 6320              		.loc 1 1445 0
 6321 07d8 434B     		ldr	r3, .L355+24
 6322 07da 0122     		movs	r2, #1
 6323 07dc 1A70     		strb	r2, [r3]
 6324 07de 02E0     		b	.L331
 6325              	.L329:
1446:state_machine.c ****             }
1447:state_machine.c ****         }
1448:state_machine.c ****         else OutputEnable = 0;
 6326              		.loc 1 1448 0
 6327 07e0 414B     		ldr	r3, .L355+24
 6328 07e2 0022     		movs	r2, #0
 6329 07e4 1A70     		strb	r2, [r3]
 6330              	.L331:
1449:state_machine.c ****         Edit_Value_Mode = 0;      
 6331              		.loc 1 1449 0
 6332 07e6 444B     		ldr	r3, .L355+40
 6333 07e8 0022     		movs	r2, #0
 6334 07ea 1A70     		strb	r2, [r3]
 6335              	.L328:
1450:state_machine.c ****     }
1451:state_machine.c ****     
1452:state_machine.c ****     if(!(button2 == 0)){    //Four/Two Wire Select
 6336              		.loc 1 1452 0
 6337 07ec 434B     		ldr	r3, .L355+44
 6338 07ee 1B78     		ldrb	r3, [r3]	@ zero_extendqisi2
 6339 07f0 002B     		cmp	r3, #0
 6340 07f2 0ED0     		beq	.L332
ARM GAS  C:\Users\KJA\AppData\Local\Temp\ccAyzU2h.s 			page 138


1453:state_machine.c ****         Four_Wire_Method = !Four_Wire_Method;
 6341              		.loc 1 1453 0
 6342 07f4 424B     		ldr	r3, .L355+48
 6343 07f6 1B78     		ldrb	r3, [r3]	@ zero_extendqisi2
 6344 07f8 002B     		cmp	r3, #0
 6345 07fa 0CBF     		ite	eq
 6346 07fc 0123     		moveq	r3, #1
 6347 07fe 0023     		movne	r3, #0
 6348 0800 DBB2     		uxtb	r3, r3
 6349 0802 1A46     		mov	r2, r3
 6350 0804 3E4B     		ldr	r3, .L355+48
 6351 0806 1A70     		strb	r2, [r3]
1454:state_machine.c ****         Buzzer_Shot(Push_Buzzer__Default_Lenght);
 6352              		.loc 1 1454 0
 6353 0808 3A4B     		ldr	r3, .L355+36
 6354 080a 1B68     		ldr	r3, [r3]
 6355 080c 1846     		mov	r0, r3
 6356 080e FFF7FEFF 		bl	Buzzer_Shot
 6357              	.L332:
1455:state_machine.c ****     }
1456:state_machine.c ****     
1457:state_machine.c ****     if(!(button3 == 0)){    //Four/Two Wire Select
 6358              		.loc 1 1457 0
 6359 0812 3C4B     		ldr	r3, .L355+52
 6360 0814 1B78     		ldrb	r3, [r3]	@ zero_extendqisi2
 6361 0816 002B     		cmp	r3, #0
 6362 0818 0ED0     		beq	.L333
1458:state_machine.c ****         View_Mode = !View_Mode;
 6363              		.loc 1 1458 0
 6364 081a 3B4B     		ldr	r3, .L355+56
 6365 081c 1B78     		ldrb	r3, [r3]	@ zero_extendqisi2
 6366 081e 002B     		cmp	r3, #0
 6367 0820 0CBF     		ite	eq
 6368 0822 0123     		moveq	r3, #1
 6369 0824 0023     		movne	r3, #0
 6370 0826 DBB2     		uxtb	r3, r3
 6371 0828 1A46     		mov	r2, r3
 6372 082a 374B     		ldr	r3, .L355+56
 6373 082c 1A70     		strb	r2, [r3]
1459:state_machine.c ****         Buzzer_Shot(Push_Buzzer__Default_Lenght);
 6374              		.loc 1 1459 0
 6375 082e 314B     		ldr	r3, .L355+36
 6376 0830 1B68     		ldr	r3, [r3]
 6377 0832 1846     		mov	r0, r3
 6378 0834 FFF7FEFF 		bl	Buzzer_Shot
 6379              	.L333:
1460:state_machine.c ****     }
1461:state_machine.c ****     
1462:state_machine.c ****     if(!(button4 == 0)){    //Back Button
 6380              		.loc 1 1462 0
 6381 0838 344B     		ldr	r3, .L355+60
 6382 083a 1B78     		ldrb	r3, [r3]	@ zero_extendqisi2
 6383 083c 002B     		cmp	r3, #0
 6384 083e 10D0     		beq	.L334
1463:state_machine.c ****         QD_SetCounter(3);
 6385              		.loc 1 1463 0
 6386 0840 0320     		movs	r0, #3
ARM GAS  C:\Users\KJA\AppData\Local\Temp\ccAyzU2h.s 			page 139


 6387 0842 FFF7FEFF 		bl	QD_SetCounter
1464:state_machine.c ****         OutputEnable = 0;
 6388              		.loc 1 1464 0
 6389 0846 284B     		ldr	r3, .L355+24
 6390 0848 0022     		movs	r2, #0
 6391 084a 1A70     		strb	r2, [r3]
1465:state_machine.c ****         Edit_Value_Mode = 0;
 6392              		.loc 1 1465 0
 6393 084c 2A4B     		ldr	r3, .L355+40
 6394 084e 0022     		movs	r2, #0
 6395 0850 1A70     		strb	r2, [r3]
1466:state_machine.c ****         Current_State = ConstantMode;
 6396              		.loc 1 1466 0
 6397 0852 2F4B     		ldr	r3, .L355+64
 6398 0854 0222     		movs	r2, #2
 6399 0856 1A70     		strb	r2, [r3]
1467:state_machine.c ****         Buzzer_Shot(Push_Buzzer__Default_Lenght);
 6400              		.loc 1 1467 0
 6401 0858 264B     		ldr	r3, .L355+36
 6402 085a 1B68     		ldr	r3, [r3]
 6403 085c 1846     		mov	r0, r3
 6404 085e FFF7FEFF 		bl	Buzzer_Shot
 6405              	.L334:
1468:state_machine.c ****     }
1469:state_machine.c ****     
1470:state_machine.c **** 
1471:state_machine.c ****     if(!(button6 == 0)){    // Shift Right Button
 6406              		.loc 1 1471 0
 6407 0862 2C4B     		ldr	r3, .L355+68
 6408 0864 1B78     		ldrb	r3, [r3]	@ zero_extendqisi2
 6409 0866 002B     		cmp	r3, #0
 6410 0868 15D0     		beq	.L335
1472:state_machine.c ****         Position_Number++;
 6411              		.loc 1 1472 0
 6412 086a 1E4B     		ldr	r3, .L355+20
 6413 086c 1B78     		ldrb	r3, [r3]	@ zero_extendqisi2
 6414 086e DBB2     		uxtb	r3, r3
 6415 0870 DBB2     		uxtb	r3, r3
 6416 0872 0133     		adds	r3, r3, #1
 6417 0874 DBB2     		uxtb	r3, r3
 6418 0876 DAB2     		uxtb	r2, r3
 6419 0878 1A4B     		ldr	r3, .L355+20
 6420 087a 1A70     		strb	r2, [r3]
1473:state_machine.c ****         if(Position_Number >4) Position_Number = 4;
 6421              		.loc 1 1473 0
 6422 087c 194B     		ldr	r3, .L355+20
 6423 087e 1B78     		ldrb	r3, [r3]	@ zero_extendqisi2
 6424 0880 5BB2     		sxtb	r3, r3
 6425 0882 042B     		cmp	r3, #4
 6426 0884 02DD     		ble	.L336
 6427              		.loc 1 1473 0 is_stmt 0 discriminator 1
 6428 0886 174B     		ldr	r3, .L355+20
 6429 0888 0422     		movs	r2, #4
 6430 088a 1A70     		strb	r2, [r3]
 6431              	.L336:
1474:state_machine.c ****         Buzzer_Shot(Push_Buzzer__Default_Lenght);
 6432              		.loc 1 1474 0 is_stmt 1
ARM GAS  C:\Users\KJA\AppData\Local\Temp\ccAyzU2h.s 			page 140


 6433 088c 194B     		ldr	r3, .L355+36
 6434 088e 1B68     		ldr	r3, [r3]
 6435 0890 1846     		mov	r0, r3
 6436 0892 FFF7FEFF 		bl	Buzzer_Shot
 6437              	.L335:
1475:state_machine.c ****     }
1476:state_machine.c ****     
1477:state_machine.c ****     if(!(button5 == 0)){    // Shift Left Button
 6438              		.loc 1 1477 0
 6439 0896 204B     		ldr	r3, .L355+72
 6440 0898 1B78     		ldrb	r3, [r3]	@ zero_extendqisi2
 6441 089a 002B     		cmp	r3, #0
 6442 089c 15D0     		beq	.L290
1478:state_machine.c ****         Position_Number--;
 6443              		.loc 1 1478 0
 6444 089e 114B     		ldr	r3, .L355+20
 6445 08a0 1B78     		ldrb	r3, [r3]	@ zero_extendqisi2
 6446 08a2 DBB2     		uxtb	r3, r3
 6447 08a4 DBB2     		uxtb	r3, r3
 6448 08a6 013B     		subs	r3, r3, #1
 6449 08a8 DBB2     		uxtb	r3, r3
 6450 08aa DAB2     		uxtb	r2, r3
 6451 08ac 0D4B     		ldr	r3, .L355+20
 6452 08ae 1A70     		strb	r2, [r3]
1479:state_machine.c ****         if(Position_Number <0) Position_Number = 0;
 6453              		.loc 1 1479 0
 6454 08b0 0C4B     		ldr	r3, .L355+20
 6455 08b2 1B78     		ldrb	r3, [r3]	@ zero_extendqisi2
 6456 08b4 5BB2     		sxtb	r3, r3
 6457 08b6 002B     		cmp	r3, #0
 6458 08b8 02DA     		bge	.L338
 6459              		.loc 1 1479 0 is_stmt 0 discriminator 1
 6460 08ba 0A4B     		ldr	r3, .L355+20
 6461 08bc 0022     		movs	r2, #0
 6462 08be 1A70     		strb	r2, [r3]
 6463              	.L338:
1480:state_machine.c ****         Buzzer_Shot(Push_Buzzer__Default_Lenght);
 6464              		.loc 1 1480 0 is_stmt 1
 6465 08c0 0C4B     		ldr	r3, .L355+36
 6466 08c2 1B68     		ldr	r3, [r3]
 6467 08c4 1846     		mov	r0, r3
 6468 08c6 FFF7FEFF 		bl	Buzzer_Shot
 6469              	.L290:
1481:state_machine.c ****     }
1482:state_machine.c ****     
1483:state_machine.c ****  }
 6470              		.loc 1 1483 0
 6471 08ca 0C37     		adds	r7, r7, #12
 6472              		.cfi_def_cfa_offset 12
 6473 08cc BD46     		mov	sp, r7
 6474              		.cfi_def_cfa_register 13
 6475              		@ sp needed
 6476 08ce 90BD     		pop	{r4, r7, pc}
 6477              	.L356:
 6478              		.align	3
 6479              	.L355:
 6480 08d0 9A999999 		.word	-1717986918
ARM GAS  C:\Users\KJA\AppData\Local\Temp\ccAyzU2h.s 			page 141


 6481 08d4 9999B93F 		.word	1069128089
 6482 08d8 00000000 		.word	Last_Counter
 6483 08dc 00000000 		.word	Current_Counter
 6484 08e0 00000000 		.word	Set_Resist_Temporary_Value
 6485 08e4 00000000 		.word	Position_Number
 6486 08e8 00000000 		.word	OutputEnable
 6487 08ec 00000000 		.word	Set_Resist
 6488 08f0 00000000 		.word	button1
 6489 08f4 00000000 		.word	Push_Buzzer__Default_Lenght
 6490 08f8 00000000 		.word	Edit_Value_Mode
 6491 08fc 00000000 		.word	button2
 6492 0900 00000000 		.word	Four_Wire_Method
 6493 0904 00000000 		.word	button3
 6494 0908 00000000 		.word	View_Mode
 6495 090c 00000000 		.word	button4
 6496 0910 00000000 		.word	Current_State
 6497 0914 00000000 		.word	button6
 6498 0918 00000000 		.word	button5
 6499              		.cfi_endproc
 6500              	.LFE77:
 6501              		.size	State_Machine_ConstantResistance, .-State_Machine_ConstantResistance
 6502 091c AFF30080 		.section	.text.State_Machine_Settings,"ax",%progbits
 6503              		.align	2
 6504              		.global	State_Machine_Settings
 6505              		.thumb
 6506              		.thumb_func
 6507              		.type	State_Machine_Settings, %function
 6508              	State_Machine_Settings:
 6509              	.LFB78:
1484:state_machine.c **** 
1485:state_machine.c **** 
1486:state_machine.c **** void State_Machine_Settings(){
 6510              		.loc 1 1486 0
 6511              		.cfi_startproc
 6512              		@ args = 0, pretend = 0, frame = 0
 6513              		@ frame_needed = 1, uses_anonymous_args = 0
 6514 0000 98B5     		push	{r3, r4, r7, lr}
 6515              		.cfi_def_cfa_offset 16
 6516              		.cfi_offset 3, -16
 6517              		.cfi_offset 4, -12
 6518              		.cfi_offset 7, -8
 6519              		.cfi_offset 14, -4
 6520 0002 00AF     		add	r7, sp, #0
 6521              		.cfi_def_cfa_register 7
1487:state_machine.c ****     
1488:state_machine.c ****     // Secondary Loop Counter
1489:state_machine.c ****     Loop_Counter++;
 6522              		.loc 1 1489 0
 6523 0004 404B     		ldr	r3, .L364
 6524 0006 1B68     		ldr	r3, [r3]
 6525 0008 0133     		adds	r3, r3, #1
 6526 000a 3F4A     		ldr	r2, .L364
 6527 000c 1360     		str	r3, [r2]
1490:state_machine.c ****     if(Loop_Counter >= 1000){
 6528              		.loc 1 1490 0
 6529 000e 3E4B     		ldr	r3, .L364
 6530 0010 1B68     		ldr	r3, [r3]
ARM GAS  C:\Users\KJA\AppData\Local\Temp\ccAyzU2h.s 			page 142


 6531 0012 B3F57A7F 		cmp	r3, #1000
 6532 0016 0ED3     		bcc	.L358
1491:state_machine.c ****         LCD_Draw(Current_State, Get_Encoder_Menu(0,3));
 6533              		.loc 1 1491 0
 6534 0018 3C4B     		ldr	r3, .L364+4
 6535 001a 1C78     		ldrb	r4, [r3]	@ zero_extendqisi2
 6536 001c 0020     		movs	r0, #0
 6537 001e 0321     		movs	r1, #3
 6538 0020 FFF7FEFF 		bl	Get_Encoder_Menu
 6539 0024 0346     		mov	r3, r0
 6540 0026 DBB2     		uxtb	r3, r3
 6541 0028 2046     		mov	r0, r4
 6542 002a 1946     		mov	r1, r3
 6543 002c FFF7FEFF 		bl	LCD_Draw
1492:state_machine.c ****         Loop_Counter = 0;
 6544              		.loc 1 1492 0
 6545 0030 354B     		ldr	r3, .L364
 6546 0032 0022     		movs	r2, #0
 6547 0034 1A60     		str	r2, [r3]
 6548              	.L358:
1493:state_machine.c ****     } 
1494:state_machine.c ****     
1495:state_machine.c ****     
1496:state_machine.c ****     if(!(Push_Reg_Read() == 0)){
 6549              		.loc 1 1496 0
 6550 0036 FFF7FEFF 		bl	Push_Reg_Read
 6551 003a 0346     		mov	r3, r0
 6552 003c 002B     		cmp	r3, #0
 6553 003e 52D0     		beq	.L359
1497:state_machine.c ****         if(Get_Encoder_Menu(0,3) == 3){
 6554              		.loc 1 1497 0
 6555 0040 0020     		movs	r0, #0
 6556 0042 0321     		movs	r1, #3
 6557 0044 FFF7FEFF 		bl	Get_Encoder_Menu
 6558 0048 0346     		mov	r3, r0
 6559 004a 032B     		cmp	r3, #3
 6560 004c 0FD1     		bne	.L360
1498:state_machine.c ****             QD_SetCounter(CurrentBacklightValue);
 6561              		.loc 1 1498 0
 6562 004e 304B     		ldr	r3, .L364+8
 6563 0050 1B78     		ldrb	r3, [r3]	@ zero_extendqisi2
 6564 0052 9BB2     		uxth	r3, r3
 6565 0054 1BB2     		sxth	r3, r3
 6566 0056 1846     		mov	r0, r3
 6567 0058 FFF7FEFF 		bl	QD_SetCounter
1499:state_machine.c ****             Current_State = BacklightSetting;  
 6568              		.loc 1 1499 0
 6569 005c 2B4B     		ldr	r3, .L364+4
 6570 005e 0622     		movs	r2, #6
 6571 0060 1A70     		strb	r2, [r3]
1500:state_machine.c ****             Buzzer_Shot(Push_Buzzer__Default_Lenght);
 6572              		.loc 1 1500 0
 6573 0062 2C4B     		ldr	r3, .L364+12
 6574 0064 1B68     		ldr	r3, [r3]
 6575 0066 1846     		mov	r0, r3
 6576 0068 FFF7FEFF 		bl	Buzzer_Shot
 6577 006c 3BE0     		b	.L359
ARM GAS  C:\Users\KJA\AppData\Local\Temp\ccAyzU2h.s 			page 143


 6578              	.L360:
1501:state_machine.c ****         }
1502:state_machine.c ****         else if(Get_Encoder_Menu(0,3) == 2){
 6579              		.loc 1 1502 0
 6580 006e 0020     		movs	r0, #0
 6581 0070 0321     		movs	r1, #3
 6582 0072 FFF7FEFF 		bl	Get_Encoder_Menu
 6583 0076 0346     		mov	r3, r0
 6584 0078 022B     		cmp	r3, #2
 6585 007a 0FD1     		bne	.L361
1503:state_machine.c ****             QD_SetCounter(CurrentVolumeValue);
 6586              		.loc 1 1503 0
 6587 007c 264B     		ldr	r3, .L364+16
 6588 007e 1B78     		ldrb	r3, [r3]	@ zero_extendqisi2
 6589 0080 9BB2     		uxth	r3, r3
 6590 0082 1BB2     		sxth	r3, r3
 6591 0084 1846     		mov	r0, r3
 6592 0086 FFF7FEFF 		bl	QD_SetCounter
1504:state_machine.c ****             Current_State = VolumeSetting;  
 6593              		.loc 1 1504 0
 6594 008a 204B     		ldr	r3, .L364+4
 6595 008c 0722     		movs	r2, #7
 6596 008e 1A70     		strb	r2, [r3]
1505:state_machine.c ****             Buzzer_Shot(Push_Buzzer__Default_Lenght);
 6597              		.loc 1 1505 0
 6598 0090 204B     		ldr	r3, .L364+12
 6599 0092 1B68     		ldr	r3, [r3]
 6600 0094 1846     		mov	r0, r3
 6601 0096 FFF7FEFF 		bl	Buzzer_Shot
 6602 009a 24E0     		b	.L359
 6603              	.L361:
1506:state_machine.c ****         }
1507:state_machine.c ****         else if(Get_Encoder_Menu(0,3) == 1){
 6604              		.loc 1 1507 0
 6605 009c 0020     		movs	r0, #0
 6606 009e 0321     		movs	r1, #3
 6607 00a0 FFF7FEFF 		bl	Get_Encoder_Menu
 6608 00a4 0346     		mov	r3, r0
 6609 00a6 012B     		cmp	r3, #1
 6610 00a8 0BD1     		bne	.L362
1508:state_machine.c ****             QD_SetCounter(3);
 6611              		.loc 1 1508 0
 6612 00aa 0320     		movs	r0, #3
 6613 00ac FFF7FEFF 		bl	QD_SetCounter
1509:state_machine.c ****             Current_State = Information;
 6614              		.loc 1 1509 0
 6615 00b0 164B     		ldr	r3, .L364+4
 6616 00b2 0822     		movs	r2, #8
 6617 00b4 1A70     		strb	r2, [r3]
1510:state_machine.c ****             Buzzer_Shot(Push_Buzzer__Default_Lenght);
 6618              		.loc 1 1510 0
 6619 00b6 174B     		ldr	r3, .L364+12
 6620 00b8 1B68     		ldr	r3, [r3]
 6621 00ba 1846     		mov	r0, r3
 6622 00bc FFF7FEFF 		bl	Buzzer_Shot
 6623 00c0 11E0     		b	.L359
 6624              	.L362:
ARM GAS  C:\Users\KJA\AppData\Local\Temp\ccAyzU2h.s 			page 144


1511:state_machine.c ****         } 
1512:state_machine.c ****         else if(Get_Encoder_Menu(0,3) == 0){
 6625              		.loc 1 1512 0
 6626 00c2 0020     		movs	r0, #0
 6627 00c4 0321     		movs	r1, #3
 6628 00c6 FFF7FEFF 		bl	Get_Encoder_Menu
 6629 00ca 0346     		mov	r3, r0
 6630 00cc 002B     		cmp	r3, #0
 6631 00ce 0AD1     		bne	.L359
1513:state_machine.c ****             QD_SetCounter(3);
 6632              		.loc 1 1513 0
 6633 00d0 0320     		movs	r0, #3
 6634 00d2 FFF7FEFF 		bl	QD_SetCounter
1514:state_machine.c ****             Current_State = Home;
 6635              		.loc 1 1514 0
 6636 00d6 0D4B     		ldr	r3, .L364+4
 6637 00d8 0122     		movs	r2, #1
 6638 00da 1A70     		strb	r2, [r3]
1515:state_machine.c ****             Buzzer_Shot(Push_Buzzer__Default_Lenght);
 6639              		.loc 1 1515 0
 6640 00dc 0D4B     		ldr	r3, .L364+12
 6641 00de 1B68     		ldr	r3, [r3]
 6642 00e0 1846     		mov	r0, r3
 6643 00e2 FFF7FEFF 		bl	Buzzer_Shot
 6644              	.L359:
1516:state_machine.c ****         } 
1517:state_machine.c ****     }   
1518:state_machine.c ****     if(!(button4 == 0)){    //Back
 6645              		.loc 1 1518 0
 6646 00e6 0D4B     		ldr	r3, .L364+20
 6647 00e8 1B78     		ldrb	r3, [r3]	@ zero_extendqisi2
 6648 00ea 002B     		cmp	r3, #0
 6649 00ec 0AD0     		beq	.L357
1519:state_machine.c ****         QD_SetCounter(3);
 6650              		.loc 1 1519 0
 6651 00ee 0320     		movs	r0, #3
 6652 00f0 FFF7FEFF 		bl	QD_SetCounter
1520:state_machine.c ****         Current_State = Home;
 6653              		.loc 1 1520 0
 6654 00f4 054B     		ldr	r3, .L364+4
 6655 00f6 0122     		movs	r2, #1
 6656 00f8 1A70     		strb	r2, [r3]
1521:state_machine.c ****         Buzzer_Shot(Push_Buzzer__Default_Lenght);
 6657              		.loc 1 1521 0
 6658 00fa 064B     		ldr	r3, .L364+12
 6659 00fc 1B68     		ldr	r3, [r3]
 6660 00fe 1846     		mov	r0, r3
 6661 0100 FFF7FEFF 		bl	Buzzer_Shot
 6662              	.L357:
1522:state_machine.c ****     }
1523:state_machine.c **** }
 6663              		.loc 1 1523 0
 6664 0104 98BD     		pop	{r3, r4, r7, pc}
 6665              	.L365:
 6666 0106 00BF     		.align	2
 6667              	.L364:
 6668 0108 00000000 		.word	Loop_Counter
ARM GAS  C:\Users\KJA\AppData\Local\Temp\ccAyzU2h.s 			page 145


 6669 010c 00000000 		.word	Current_State
 6670 0110 00000000 		.word	CurrentBacklightValue
 6671 0114 00000000 		.word	Push_Buzzer__Default_Lenght
 6672 0118 00000000 		.word	CurrentVolumeValue
 6673 011c 00000000 		.word	button4
 6674              		.cfi_endproc
 6675              	.LFE78:
 6676              		.size	State_Machine_Settings, .-State_Machine_Settings
 6677              		.section	.text.State_Machine_BacklightSetting,"ax",%progbits
 6678              		.align	2
 6679              		.global	State_Machine_BacklightSetting
 6680              		.thumb
 6681              		.thumb_func
 6682              		.type	State_Machine_BacklightSetting, %function
 6683              	State_Machine_BacklightSetting:
 6684              	.LFB79:
1524:state_machine.c **** 
1525:state_machine.c **** 
1526:state_machine.c **** void State_Machine_BacklightSetting(){
 6685              		.loc 1 1526 0
 6686              		.cfi_startproc
 6687              		@ args = 0, pretend = 0, frame = 0
 6688              		@ frame_needed = 1, uses_anonymous_args = 0
 6689 0000 80B5     		push	{r7, lr}
 6690              		.cfi_def_cfa_offset 8
 6691              		.cfi_offset 7, -8
 6692              		.cfi_offset 14, -4
 6693 0002 00AF     		add	r7, sp, #0
 6694              		.cfi_def_cfa_register 7
1527:state_machine.c ****     
1528:state_machine.c ****     // Secondary Loop Counter
1529:state_machine.c ****     Loop_Counter++;
 6695              		.loc 1 1529 0
 6696 0004 1D4B     		ldr	r3, .L370
 6697 0006 1B68     		ldr	r3, [r3]
 6698 0008 0133     		adds	r3, r3, #1
 6699 000a 1C4A     		ldr	r2, .L370
 6700 000c 1360     		str	r3, [r2]
1530:state_machine.c ****     if(Loop_Counter >= 1000){
 6701              		.loc 1 1530 0
 6702 000e 1B4B     		ldr	r3, .L370
 6703 0010 1B68     		ldr	r3, [r3]
 6704 0012 B3F57A7F 		cmp	r3, #1000
 6705 0016 10D3     		bcc	.L367
1531:state_machine.c ****         SetBacklight(Get_Encoder(11));
 6706              		.loc 1 1531 0
 6707 0018 0B20     		movs	r0, #11
 6708 001a FFF7FEFF 		bl	Get_Encoder
 6709 001e 0346     		mov	r3, r0
 6710 0020 DBB2     		uxtb	r3, r3
 6711 0022 1846     		mov	r0, r3
 6712 0024 FFF7FEFF 		bl	SetBacklight
1532:state_machine.c ****         LCD_Draw(Current_State, 3);
 6713              		.loc 1 1532 0
 6714 0028 154B     		ldr	r3, .L370+4
 6715 002a 1B78     		ldrb	r3, [r3]	@ zero_extendqisi2
 6716 002c 1846     		mov	r0, r3
ARM GAS  C:\Users\KJA\AppData\Local\Temp\ccAyzU2h.s 			page 146


 6717 002e 0321     		movs	r1, #3
 6718 0030 FFF7FEFF 		bl	LCD_Draw
1533:state_machine.c ****         Loop_Counter = 0;
 6719              		.loc 1 1533 0
 6720 0034 114B     		ldr	r3, .L370
 6721 0036 0022     		movs	r2, #0
 6722 0038 1A60     		str	r2, [r3]
 6723              	.L367:
1534:state_machine.c ****     } 
1535:state_machine.c ****     
1536:state_machine.c ****     if(!(Push_Reg_Read() == 0)){
 6724              		.loc 1 1536 0
 6725 003a FFF7FEFF 		bl	Push_Reg_Read
 6726 003e 0346     		mov	r3, r0
 6727 0040 002B     		cmp	r3, #0
 6728 0042 0AD0     		beq	.L368
1537:state_machine.c ****         QD_SetCounter(3);
 6729              		.loc 1 1537 0
 6730 0044 0320     		movs	r0, #3
 6731 0046 FFF7FEFF 		bl	QD_SetCounter
1538:state_machine.c ****         Current_State = Settings;
 6732              		.loc 1 1538 0
 6733 004a 0D4B     		ldr	r3, .L370+4
 6734 004c 0522     		movs	r2, #5
 6735 004e 1A70     		strb	r2, [r3]
1539:state_machine.c ****         Buzzer_Shot(Push_Buzzer__Default_Lenght);
 6736              		.loc 1 1539 0
 6737 0050 0C4B     		ldr	r3, .L370+8
 6738 0052 1B68     		ldr	r3, [r3]
 6739 0054 1846     		mov	r0, r3
 6740 0056 FFF7FEFF 		bl	Buzzer_Shot
 6741              	.L368:
1540:state_machine.c ****     }
1541:state_machine.c ****     
1542:state_machine.c ****     if(!(button1 == 0)){    //Back
 6742              		.loc 1 1542 0
 6743 005a 0B4B     		ldr	r3, .L370+12
 6744 005c 1B78     		ldrb	r3, [r3]	@ zero_extendqisi2
 6745 005e 002B     		cmp	r3, #0
 6746 0060 0AD0     		beq	.L366
1543:state_machine.c ****         QD_SetCounter(3);
 6747              		.loc 1 1543 0
 6748 0062 0320     		movs	r0, #3
 6749 0064 FFF7FEFF 		bl	QD_SetCounter
1544:state_machine.c ****         Current_State = Settings;
 6750              		.loc 1 1544 0
 6751 0068 054B     		ldr	r3, .L370+4
 6752 006a 0522     		movs	r2, #5
 6753 006c 1A70     		strb	r2, [r3]
1545:state_machine.c ****         Buzzer_Shot(Push_Buzzer__Default_Lenght);
 6754              		.loc 1 1545 0
 6755 006e 054B     		ldr	r3, .L370+8
 6756 0070 1B68     		ldr	r3, [r3]
 6757 0072 1846     		mov	r0, r3
 6758 0074 FFF7FEFF 		bl	Buzzer_Shot
 6759              	.L366:
1546:state_machine.c ****     }
ARM GAS  C:\Users\KJA\AppData\Local\Temp\ccAyzU2h.s 			page 147


1547:state_machine.c **** }
 6760              		.loc 1 1547 0
 6761 0078 80BD     		pop	{r7, pc}
 6762              	.L371:
 6763 007a 00BF     		.align	2
 6764              	.L370:
 6765 007c 00000000 		.word	Loop_Counter
 6766 0080 00000000 		.word	Current_State
 6767 0084 00000000 		.word	Push_Buzzer__Default_Lenght
 6768 0088 00000000 		.word	button1
 6769              		.cfi_endproc
 6770              	.LFE79:
 6771              		.size	State_Machine_BacklightSetting, .-State_Machine_BacklightSetting
 6772              		.section	.text.State_Machine_VolumeSetting,"ax",%progbits
 6773              		.align	2
 6774              		.global	State_Machine_VolumeSetting
 6775              		.thumb
 6776              		.thumb_func
 6777              		.type	State_Machine_VolumeSetting, %function
 6778              	State_Machine_VolumeSetting:
 6779              	.LFB80:
1548:state_machine.c **** 
1549:state_machine.c **** void State_Machine_VolumeSetting(){
 6780              		.loc 1 1549 0
 6781              		.cfi_startproc
 6782              		@ args = 0, pretend = 0, frame = 0
 6783              		@ frame_needed = 1, uses_anonymous_args = 0
 6784 0000 80B5     		push	{r7, lr}
 6785              		.cfi_def_cfa_offset 8
 6786              		.cfi_offset 7, -8
 6787              		.cfi_offset 14, -4
 6788 0002 00AF     		add	r7, sp, #0
 6789              		.cfi_def_cfa_register 7
1550:state_machine.c ****     
1551:state_machine.c ****     // Secondary Loop Counter
1552:state_machine.c ****     Loop_Counter++;
 6790              		.loc 1 1552 0
 6791 0004 1D4B     		ldr	r3, .L376
 6792 0006 1B68     		ldr	r3, [r3]
 6793 0008 0133     		adds	r3, r3, #1
 6794 000a 1C4A     		ldr	r2, .L376
 6795 000c 1360     		str	r3, [r2]
1553:state_machine.c ****     if(Loop_Counter >= 1000){
 6796              		.loc 1 1553 0
 6797 000e 1B4B     		ldr	r3, .L376
 6798 0010 1B68     		ldr	r3, [r3]
 6799 0012 B3F57A7F 		cmp	r3, #1000
 6800 0016 10D3     		bcc	.L373
1554:state_machine.c ****         SetVolume(Get_Encoder(11));
 6801              		.loc 1 1554 0
 6802 0018 0B20     		movs	r0, #11
 6803 001a FFF7FEFF 		bl	Get_Encoder
 6804 001e 0346     		mov	r3, r0
 6805 0020 DBB2     		uxtb	r3, r3
 6806 0022 1846     		mov	r0, r3
 6807 0024 FFF7FEFF 		bl	SetVolume
1555:state_machine.c ****         LCD_Draw(Current_State, 2);
ARM GAS  C:\Users\KJA\AppData\Local\Temp\ccAyzU2h.s 			page 148


 6808              		.loc 1 1555 0
 6809 0028 154B     		ldr	r3, .L376+4
 6810 002a 1B78     		ldrb	r3, [r3]	@ zero_extendqisi2
 6811 002c 1846     		mov	r0, r3
 6812 002e 0221     		movs	r1, #2
 6813 0030 FFF7FEFF 		bl	LCD_Draw
1556:state_machine.c ****         Loop_Counter = 0;
 6814              		.loc 1 1556 0
 6815 0034 114B     		ldr	r3, .L376
 6816 0036 0022     		movs	r2, #0
 6817 0038 1A60     		str	r2, [r3]
 6818              	.L373:
1557:state_machine.c ****     } 
1558:state_machine.c ****     
1559:state_machine.c ****     if(!(Push_Reg_Read() == 0)){
 6819              		.loc 1 1559 0
 6820 003a FFF7FEFF 		bl	Push_Reg_Read
 6821 003e 0346     		mov	r3, r0
 6822 0040 002B     		cmp	r3, #0
 6823 0042 0AD0     		beq	.L374
1560:state_machine.c ****         QD_SetCounter(2);
 6824              		.loc 1 1560 0
 6825 0044 0220     		movs	r0, #2
 6826 0046 FFF7FEFF 		bl	QD_SetCounter
1561:state_machine.c ****         Current_State = Settings;
 6827              		.loc 1 1561 0
 6828 004a 0D4B     		ldr	r3, .L376+4
 6829 004c 0522     		movs	r2, #5
 6830 004e 1A70     		strb	r2, [r3]
1562:state_machine.c ****         Buzzer_Shot(Push_Buzzer__Default_Lenght);
 6831              		.loc 1 1562 0
 6832 0050 0C4B     		ldr	r3, .L376+8
 6833 0052 1B68     		ldr	r3, [r3]
 6834 0054 1846     		mov	r0, r3
 6835 0056 FFF7FEFF 		bl	Buzzer_Shot
 6836              	.L374:
1563:state_machine.c ****     }
1564:state_machine.c ****     
1565:state_machine.c ****     if(!(button1 == 0)){    //Back
 6837              		.loc 1 1565 0
 6838 005a 0B4B     		ldr	r3, .L376+12
 6839 005c 1B78     		ldrb	r3, [r3]	@ zero_extendqisi2
 6840 005e 002B     		cmp	r3, #0
 6841 0060 0AD0     		beq	.L372
1566:state_machine.c ****         QD_SetCounter(2);
 6842              		.loc 1 1566 0
 6843 0062 0220     		movs	r0, #2
 6844 0064 FFF7FEFF 		bl	QD_SetCounter
1567:state_machine.c ****         Current_State = Settings;
 6845              		.loc 1 1567 0
 6846 0068 054B     		ldr	r3, .L376+4
 6847 006a 0522     		movs	r2, #5
 6848 006c 1A70     		strb	r2, [r3]
1568:state_machine.c ****         Buzzer_Shot(Push_Buzzer__Default_Lenght);
 6849              		.loc 1 1568 0
 6850 006e 054B     		ldr	r3, .L376+8
 6851 0070 1B68     		ldr	r3, [r3]
ARM GAS  C:\Users\KJA\AppData\Local\Temp\ccAyzU2h.s 			page 149


 6852 0072 1846     		mov	r0, r3
 6853 0074 FFF7FEFF 		bl	Buzzer_Shot
 6854              	.L372:
1569:state_machine.c ****     }    
1570:state_machine.c **** }
 6855              		.loc 1 1570 0
 6856 0078 80BD     		pop	{r7, pc}
 6857              	.L377:
 6858 007a 00BF     		.align	2
 6859              	.L376:
 6860 007c 00000000 		.word	Loop_Counter
 6861 0080 00000000 		.word	Current_State
 6862 0084 00000000 		.word	Push_Buzzer__Default_Lenght
 6863 0088 00000000 		.word	button1
 6864              		.cfi_endproc
 6865              	.LFE80:
 6866              		.size	State_Machine_VolumeSetting, .-State_Machine_VolumeSetting
 6867              		.section	.text.State_Machine_Information,"ax",%progbits
 6868              		.align	2
 6869              		.global	State_Machine_Information
 6870              		.thumb
 6871              		.thumb_func
 6872              		.type	State_Machine_Information, %function
 6873              	State_Machine_Information:
 6874              	.LFB81:
1571:state_machine.c **** 
1572:state_machine.c **** void State_Machine_Information(){
 6875              		.loc 1 1572 0
 6876              		.cfi_startproc
 6877              		@ args = 0, pretend = 0, frame = 0
 6878              		@ frame_needed = 1, uses_anonymous_args = 0
 6879 0000 80B5     		push	{r7, lr}
 6880              		.cfi_def_cfa_offset 8
 6881              		.cfi_offset 7, -8
 6882              		.cfi_offset 14, -4
 6883 0002 00AF     		add	r7, sp, #0
 6884              		.cfi_def_cfa_register 7
1573:state_machine.c ****     
1574:state_machine.c ****     // Secondary Loop Counter
1575:state_machine.c ****     Loop_Counter++;
 6885              		.loc 1 1575 0
 6886 0004 1A4B     		ldr	r3, .L382
 6887 0006 1B68     		ldr	r3, [r3]
 6888 0008 0133     		adds	r3, r3, #1
 6889 000a 194A     		ldr	r2, .L382
 6890 000c 1360     		str	r3, [r2]
1576:state_machine.c ****     if(Loop_Counter >= 1000){
 6891              		.loc 1 1576 0
 6892 000e 184B     		ldr	r3, .L382
 6893 0010 1B68     		ldr	r3, [r3]
 6894 0012 B3F57A7F 		cmp	r3, #1000
 6895 0016 0AD3     		bcc	.L379
1577:state_machine.c ****         TempRead_DIE();
 6896              		.loc 1 1577 0
 6897 0018 FFF7FEFF 		bl	TempRead_DIE
1578:state_machine.c ****         LCD_Draw(Current_State, 3);
 6898              		.loc 1 1578 0
ARM GAS  C:\Users\KJA\AppData\Local\Temp\ccAyzU2h.s 			page 150


 6899 001c 154B     		ldr	r3, .L382+4
 6900 001e 1B78     		ldrb	r3, [r3]	@ zero_extendqisi2
 6901 0020 1846     		mov	r0, r3
 6902 0022 0321     		movs	r1, #3
 6903 0024 FFF7FEFF 		bl	LCD_Draw
1579:state_machine.c ****         Loop_Counter = 0;
 6904              		.loc 1 1579 0
 6905 0028 114B     		ldr	r3, .L382
 6906 002a 0022     		movs	r2, #0
 6907 002c 1A60     		str	r2, [r3]
 6908              	.L379:
1580:state_machine.c ****     } 
1581:state_machine.c ****     
1582:state_machine.c ****     if(!(Push_Reg_Read() == 0)){    //Back
 6909              		.loc 1 1582 0
 6910 002e FFF7FEFF 		bl	Push_Reg_Read
 6911 0032 0346     		mov	r3, r0
 6912 0034 002B     		cmp	r3, #0
 6913 0036 0AD0     		beq	.L380
1583:state_machine.c ****             QD_SetCounter(1);
 6914              		.loc 1 1583 0
 6915 0038 0120     		movs	r0, #1
 6916 003a FFF7FEFF 		bl	QD_SetCounter
1584:state_machine.c ****             Current_State = Settings;
 6917              		.loc 1 1584 0
 6918 003e 0D4B     		ldr	r3, .L382+4
 6919 0040 0522     		movs	r2, #5
 6920 0042 1A70     		strb	r2, [r3]
1585:state_machine.c ****             Buzzer_Shot(Push_Buzzer__Default_Lenght);
 6921              		.loc 1 1585 0
 6922 0044 0C4B     		ldr	r3, .L382+8
 6923 0046 1B68     		ldr	r3, [r3]
 6924 0048 1846     		mov	r0, r3
 6925 004a FFF7FEFF 		bl	Buzzer_Shot
 6926              	.L380:
1586:state_machine.c ****     }
1587:state_machine.c ****     if(!(button4 == 0)){    //Back
 6927              		.loc 1 1587 0
 6928 004e 0B4B     		ldr	r3, .L382+12
 6929 0050 1B78     		ldrb	r3, [r3]	@ zero_extendqisi2
 6930 0052 002B     		cmp	r3, #0
 6931 0054 0AD0     		beq	.L378
1588:state_machine.c ****         QD_SetCounter(1);
 6932              		.loc 1 1588 0
 6933 0056 0120     		movs	r0, #1
 6934 0058 FFF7FEFF 		bl	QD_SetCounter
1589:state_machine.c ****         Current_State = Settings;
 6935              		.loc 1 1589 0
 6936 005c 054B     		ldr	r3, .L382+4
 6937 005e 0522     		movs	r2, #5
 6938 0060 1A70     		strb	r2, [r3]
1590:state_machine.c ****         Buzzer_Shot(Push_Buzzer__Default_Lenght);
 6939              		.loc 1 1590 0
 6940 0062 054B     		ldr	r3, .L382+8
 6941 0064 1B68     		ldr	r3, [r3]
 6942 0066 1846     		mov	r0, r3
 6943 0068 FFF7FEFF 		bl	Buzzer_Shot
ARM GAS  C:\Users\KJA\AppData\Local\Temp\ccAyzU2h.s 			page 151


 6944              	.L378:
1591:state_machine.c ****     } 
1592:state_machine.c **** }...
 6945              		.loc 1 1592 0
 6946 006c 80BD     		pop	{r7, pc}
 6947              	.L383:
 6948 006e 00BF     		.align	2
 6949              	.L382:
 6950 0070 00000000 		.word	Loop_Counter
 6951 0074 00000000 		.word	Current_State
 6952 0078 00000000 		.word	Push_Buzzer__Default_Lenght
 6953 007c 00000000 		.word	button4
 6954              		.cfi_endproc
 6955              	.LFE81:
 6956              		.size	State_Machine_Information, .-State_Machine_Information
 6957              		.text
 6958              	.Letext0:
 6959              		.file 2 "c:\\program files (x86)\\cypress\\psoc creator\\4.0\\psoc creator\\import\\gnu\\arm\\4.9.
 6960              		.file 3 "c:\\program files (x86)\\cypress\\psoc creator\\4.0\\psoc creator\\import\\gnu\\arm\\4.9.
 6961              		.file 4 "Generated_Source\\PSoC5/cytypes.h"
 6962              		.file 5 "u8g.h"
 6963              		.file 6 "Generated_Source\\PSoC5/core_cm3.h"
 6964              		.file 7 "global_variables.h"
 6965              		.file 8 "temp_manage.h"
 6966              		.section	.debug_info,"",%progbits
 6967              	.Ldebug_info0:
 6968 0000 FE0D0000 		.4byte	0xdfe
 6969 0004 0400     		.2byte	0x4
 6970 0006 00000000 		.4byte	.Ldebug_abbrev0
 6971 000a 04       		.byte	0x4
 6972 000b 01       		.uleb128 0x1
 6973 000c 87060000 		.4byte	.LASF217
 6974 0010 01       		.byte	0x1
 6975 0011 21070000 		.4byte	.LASF218
 6976 0015 46020000 		.4byte	.LASF219
 6977 0019 00000000 		.4byte	.Ldebug_ranges0+0
 6978 001d 00000000 		.4byte	0
 6979 0021 00000000 		.4byte	.Ldebug_line0
 6980 0025 02       		.uleb128 0x2
 6981 0026 6B070000 		.4byte	.LASF0
 6982 002a 02       		.byte	0x2
 6983 002b 1B       		.byte	0x1b
 6984 002c 30000000 		.4byte	0x30
 6985 0030 03       		.uleb128 0x3
 6986 0031 01       		.byte	0x1
 6987 0032 06       		.byte	0x6
 6988 0033 4D0B0000 		.4byte	.LASF2
 6989 0037 02       		.uleb128 0x2
 6990 0038 3B090000 		.4byte	.LASF1
 6991 003c 02       		.byte	0x2
 6992 003d 1D       		.byte	0x1d
 6993 003e 42000000 		.4byte	0x42
 6994 0042 03       		.uleb128 0x3
 6995 0043 01       		.byte	0x1
 6996 0044 08       		.byte	0x8
 6997 0045 6E0A0000 		.4byte	.LASF3
 6998 0049 03       		.uleb128 0x3
ARM GAS  C:\Users\KJA\AppData\Local\Temp\ccAyzU2h.s 			page 152


 6999 004a 02       		.byte	0x2
 7000 004b 05       		.byte	0x5
 7001 004c FC070000 		.4byte	.LASF4
 7002 0050 03       		.uleb128 0x3
 7003 0051 02       		.byte	0x2
 7004 0052 07       		.byte	0x7
 7005 0053 590B0000 		.4byte	.LASF5
 7006 0057 02       		.uleb128 0x2
 7007 0058 34010000 		.4byte	.LASF6
 7008 005c 02       		.byte	0x2
 7009 005d 3F       		.byte	0x3f
 7010 005e 62000000 		.4byte	0x62
 7011 0062 03       		.uleb128 0x3
 7012 0063 04       		.byte	0x4
 7013 0064 05       		.byte	0x5
 7014 0065 06080000 		.4byte	.LASF7
 7015 0069 03       		.uleb128 0x3
 7016 006a 04       		.byte	0x4
 7017 006b 07       		.byte	0x7
 7018 006c C8090000 		.4byte	.LASF8
 7019 0070 03       		.uleb128 0x3
 7020 0071 08       		.byte	0x8
 7021 0072 05       		.byte	0x5
 7022 0073 DC050000 		.4byte	.LASF9
 7023 0077 03       		.uleb128 0x3
 7024 0078 08       		.byte	0x8
 7025 0079 07       		.byte	0x7
 7026 007a 49030000 		.4byte	.LASF10
 7027 007e 04       		.uleb128 0x4
 7028 007f 04       		.byte	0x4
 7029 0080 05       		.byte	0x5
 7030 0081 696E7400 		.ascii	"int\000"
 7031 0085 03       		.uleb128 0x3
 7032 0086 04       		.byte	0x4
 7033 0087 07       		.byte	0x7
 7034 0088 EC000000 		.4byte	.LASF11
 7035 008c 02       		.uleb128 0x2
 7036 008d 9D020000 		.4byte	.LASF12
 7037 0091 03       		.byte	0x3
 7038 0092 14       		.byte	0x14
 7039 0093 25000000 		.4byte	0x25
 7040 0097 02       		.uleb128 0x2
 7041 0098 5A050000 		.4byte	.LASF13
 7042 009c 03       		.byte	0x3
 7043 009d 15       		.byte	0x15
 7044 009e 37000000 		.4byte	0x37
 7045 00a2 02       		.uleb128 0x2
 7046 00a3 EB090000 		.4byte	.LASF14
 7047 00a7 03       		.byte	0x3
 7048 00a8 2C       		.byte	0x2c
 7049 00a9 57000000 		.4byte	0x57
 7050 00ad 02       		.uleb128 0x2
 7051 00ae 9B0B0000 		.4byte	.LASF15
 7052 00b2 04       		.byte	0x4
 7053 00b3 C2       		.byte	0xc2
 7054 00b4 42000000 		.4byte	0x42
 7055 00b8 02       		.uleb128 0x2
ARM GAS  C:\Users\KJA\AppData\Local\Temp\ccAyzU2h.s 			page 153


 7056 00b9 4E050000 		.4byte	.LASF16
 7057 00bd 04       		.byte	0x4
 7058 00be C3       		.byte	0xc3
 7059 00bf 50000000 		.4byte	0x50
 7060 00c3 02       		.uleb128 0x2
 7061 00c4 4E070000 		.4byte	.LASF17
 7062 00c8 04       		.byte	0x4
 7063 00c9 C4       		.byte	0xc4
 7064 00ca 69000000 		.4byte	0x69
 7065 00ce 02       		.uleb128 0x2
 7066 00cf 55050000 		.4byte	.LASF18
 7067 00d3 04       		.byte	0x4
 7068 00d4 C5       		.byte	0xc5
 7069 00d5 30000000 		.4byte	0x30
 7070 00d9 02       		.uleb128 0x2
 7071 00da 3E010000 		.4byte	.LASF19
 7072 00de 04       		.byte	0x4
 7073 00df C6       		.byte	0xc6
 7074 00e0 49000000 		.4byte	0x49
 7075 00e4 02       		.uleb128 0x2
 7076 00e5 F6020000 		.4byte	.LASF20
 7077 00e9 04       		.byte	0x4
 7078 00ea C7       		.byte	0xc7
 7079 00eb 62000000 		.4byte	0x62
 7080 00ef 03       		.uleb128 0x3
 7081 00f0 04       		.byte	0x4
 7082 00f1 04       		.byte	0x4
 7083 00f2 D9020000 		.4byte	.LASF21
 7084 00f6 03       		.uleb128 0x3
 7085 00f7 08       		.byte	0x8
 7086 00f8 04       		.byte	0x4
 7087 00f9 A10B0000 		.4byte	.LASF22
 7088 00fd 02       		.uleb128 0x2
 7089 00fe 72050000 		.4byte	.LASF23
 7090 0102 04       		.byte	0x4
 7091 0103 D3       		.byte	0xd3
 7092 0104 08010000 		.4byte	0x108
 7093 0108 03       		.uleb128 0x3
 7094 0109 01       		.byte	0x1
 7095 010a 08       		.byte	0x8
 7096 010b 07050000 		.4byte	.LASF24
 7097 010f 03       		.uleb128 0x3
 7098 0110 04       		.byte	0x4
 7099 0111 07       		.byte	0x7
 7100 0112 B5090000 		.4byte	.LASF25
 7101 0116 05       		.uleb128 0x5
 7102 0117 04       		.byte	0x4
 7103 0118 02       		.uleb128 0x2
 7104 0119 00000000 		.4byte	.LASF26
 7105 011d 05       		.byte	0x5
 7106 011e 80       		.byte	0x80
 7107 011f 97000000 		.4byte	0x97
 7108 0123 02       		.uleb128 0x2
 7109 0124 2E0A0000 		.4byte	.LASF27
 7110 0128 05       		.byte	0x5
 7111 0129 81       		.byte	0x81
 7112 012a 97000000 		.4byte	0x97
ARM GAS  C:\Users\KJA\AppData\Local\Temp\ccAyzU2h.s 			page 154


 7113 012e 02       		.uleb128 0x2
 7114 012f 55070000 		.4byte	.LASF28
 7115 0133 05       		.byte	0x5
 7116 0134 A0       		.byte	0xa0
 7117 0135 39010000 		.4byte	0x139
 7118 0139 06       		.uleb128 0x6
 7119 013a B1080000 		.4byte	.LASF55
 7120 013e 3C       		.byte	0x3c
 7121 013f 05       		.byte	0x5
 7122 0140 4B04     		.2byte	0x44b
 7123 0142 99020000 		.4byte	0x299
 7124 0146 07       		.uleb128 0x7
 7125 0147 50040000 		.4byte	.LASF29
 7126 014b 05       		.byte	0x5
 7127 014c 4D04     		.2byte	0x44d
 7128 014e 8E030000 		.4byte	0x38e
 7129 0152 00       		.byte	0
 7130 0153 07       		.uleb128 0x7
 7131 0154 5B070000 		.4byte	.LASF30
 7132 0158 05       		.byte	0x5
 7133 0159 4E04     		.2byte	0x44e
 7134 015b 8E030000 		.4byte	0x38e
 7135 015f 01       		.byte	0x1
 7136 0160 08       		.uleb128 0x8
 7137 0161 64657600 		.ascii	"dev\000"
 7138 0165 05       		.byte	0x5
 7139 0166 5104     		.2byte	0x451
 7140 0168 CE030000 		.4byte	0x3ce
 7141 016c 04       		.byte	0x4
 7142 016d 07       		.uleb128 0x7
 7143 016e 95090000 		.4byte	.LASF31
 7144 0172 05       		.byte	0x5
 7145 0173 5204     		.2byte	0x452
 7146 0175 5E040000 		.4byte	0x45e
 7147 0179 08       		.byte	0x8
 7148 017a 07       		.uleb128 0x7
 7149 017b 230B0000 		.4byte	.LASF32
 7150 017f 05       		.byte	0x5
 7151 0180 5304     		.2byte	0x453
 7152 0182 5E040000 		.4byte	0x45e
 7153 0186 0C       		.byte	0xc
 7154 0187 07       		.uleb128 0x7
 7155 0188 EA050000 		.4byte	.LASF33
 7156 018c 05       		.byte	0x5
 7157 018d 5404     		.2byte	0x454
 7158 018f 97000000 		.4byte	0x97
 7159 0193 10       		.byte	0x10
 7160 0194 07       		.uleb128 0x7
 7161 0195 67010000 		.4byte	.LASF34
 7162 0199 05       		.byte	0x5
 7163 019a 5404     		.2byte	0x454
 7164 019c 97000000 		.4byte	0x97
 7165 01a0 11       		.byte	0x11
 7166 01a1 07       		.uleb128 0x7
 7167 01a2 CE080000 		.4byte	.LASF35
 7168 01a6 05       		.byte	0x5
 7169 01a7 5504     		.2byte	0x455
ARM GAS  C:\Users\KJA\AppData\Local\Temp\ccAyzU2h.s 			page 155


 7170 01a9 97000000 		.4byte	0x97
 7171 01ad 12       		.byte	0x12
 7172 01ae 07       		.uleb128 0x7
 7173 01af FB010000 		.4byte	.LASF36
 7174 01b3 05       		.byte	0x5
 7175 01b4 5604     		.2byte	0x456
 7176 01b6 97000000 		.4byte	0x97
 7177 01ba 13       		.byte	0x13
 7178 01bb 07       		.uleb128 0x7
 7179 01bc FC020000 		.4byte	.LASF37
 7180 01c0 05       		.byte	0x5
 7181 01c1 5704     		.2byte	0x457
 7182 01c3 8E030000 		.4byte	0x38e
 7183 01c7 14       		.byte	0x14
 7184 01c8 07       		.uleb128 0x7
 7185 01c9 05030000 		.4byte	.LASF38
 7186 01cd 05       		.byte	0x5
 7187 01ce 5804     		.2byte	0x458
 7188 01d0 8E030000 		.4byte	0x38e
 7189 01d4 15       		.byte	0x15
 7190 01d5 07       		.uleb128 0x7
 7191 01d6 7D070000 		.4byte	.LASF39
 7192 01da 05       		.byte	0x5
 7193 01db 5904     		.2byte	0x459
 7194 01dd 03040000 		.4byte	0x403
 7195 01e1 18       		.byte	0x18
 7196 01e2 07       		.uleb128 0x7
 7197 01e3 62070000 		.4byte	.LASF40
 7198 01e7 05       		.byte	0x5
 7199 01e8 5B04     		.2byte	0x45b
 7200 01ea 8C000000 		.4byte	0x8c
 7201 01ee 1C       		.byte	0x1c
 7202 01ef 07       		.uleb128 0x7
 7203 01f0 93040000 		.4byte	.LASF41
 7204 01f4 05       		.byte	0x5
 7205 01f5 5C04     		.2byte	0x45c
 7206 01f7 8C000000 		.4byte	0x8c
 7207 01fb 1D       		.byte	0x1d
 7208 01fc 07       		.uleb128 0x7
 7209 01fd 9B040000 		.4byte	.LASF42
 7210 0201 05       		.byte	0x5
 7211 0202 5D04     		.2byte	0x45d
 7212 0204 8C000000 		.4byte	0x8c
 7213 0208 1E       		.byte	0x1e
 7214 0209 07       		.uleb128 0x7
 7215 020a 070B0000 		.4byte	.LASF43
 7216 020e 05       		.byte	0x5
 7217 020f 5E04     		.2byte	0x45e
 7218 0211 97000000 		.4byte	0x97
 7219 0215 1F       		.byte	0x1f
 7220 0216 07       		.uleb128 0x7
 7221 0217 43040000 		.4byte	.LASF44
 7222 021b 05       		.byte	0x5
 7223 021c 5F04     		.2byte	0x45f
 7224 021e 97000000 		.4byte	0x97
 7225 0222 20       		.byte	0x20
 7226 0223 07       		.uleb128 0x7
ARM GAS  C:\Users\KJA\AppData\Local\Temp\ccAyzU2h.s 			page 156


 7227 0224 00020000 		.4byte	.LASF45
 7228 0228 05       		.byte	0x5
 7229 0229 6104     		.2byte	0x461
 7230 022b 20040000 		.4byte	0x420
 7231 022f 24       		.byte	0x24
 7232 0230 07       		.uleb128 0x7
 7233 0231 EB070000 		.4byte	.LASF46
 7234 0235 05       		.byte	0x5
 7235 0236 6204     		.2byte	0x462
 7236 0238 97000000 		.4byte	0x97
 7237 023c 28       		.byte	0x28
 7238 023d 07       		.uleb128 0x7
 7239 023e 54000000 		.4byte	.LASF47
 7240 0242 05       		.byte	0x5
 7241 0243 6304     		.2byte	0x463
 7242 0245 8C000000 		.4byte	0x8c
 7243 0249 29       		.byte	0x29
 7244 024a 07       		.uleb128 0x7
 7245 024b 1A090000 		.4byte	.LASF48
 7246 024f 05       		.byte	0x5
 7247 0250 6404     		.2byte	0x464
 7248 0252 8C000000 		.4byte	0x8c
 7249 0256 2A       		.byte	0x2a
 7250 0257 07       		.uleb128 0x7
 7251 0258 410A0000 		.4byte	.LASF49
 7252 025c 05       		.byte	0x5
 7253 025d 6504     		.2byte	0x465
 7254 025f 97000000 		.4byte	0x97
 7255 0263 2B       		.byte	0x2b
 7256 0264 07       		.uleb128 0x7
 7257 0265 AA070000 		.4byte	.LASF50
 7258 0269 05       		.byte	0x5
 7259 026a 6604     		.2byte	0x466
 7260 026c 97000000 		.4byte	0x97
 7261 0270 2C       		.byte	0x2c
 7262 0271 07       		.uleb128 0x7
 7263 0272 77010000 		.4byte	.LASF51
 7264 0276 05       		.byte	0x5
 7265 0277 6804     		.2byte	0x468
 7266 0279 D5020000 		.4byte	0x2d5
 7267 027d 2D       		.byte	0x2d
 7268 027e 07       		.uleb128 0x7
 7269 027f 97080000 		.4byte	.LASF52
 7270 0283 05       		.byte	0x5
 7271 0284 6F04     		.2byte	0x46f
 7272 0286 41040000 		.4byte	0x441
 7273 028a 34       		.byte	0x34
 7274 028b 07       		.uleb128 0x7
 7275 028c 38050000 		.4byte	.LASF53
 7276 0290 05       		.byte	0x5
 7277 0291 7104     		.2byte	0x471
 7278 0293 45030000 		.4byte	0x345
 7279 0297 38       		.byte	0x38
 7280 0298 00       		.byte	0
 7281 0299 02       		.uleb128 0x2
 7282 029a 34060000 		.4byte	.LASF54
 7283 029e 05       		.byte	0x5
ARM GAS  C:\Users\KJA\AppData\Local\Temp\ccAyzU2h.s 			page 157


 7284 029f A1       		.byte	0xa1
 7285 02a0 A4020000 		.4byte	0x2a4
 7286 02a4 09       		.uleb128 0x9
 7287 02a5 45090000 		.4byte	.LASF56
 7288 02a9 0C       		.byte	0xc
 7289 02aa 05       		.byte	0x5
 7290 02ab CF       		.byte	0xcf
 7291 02ac D5020000 		.4byte	0x2d5
 7292 02b0 0A       		.uleb128 0xa
 7293 02b1 31050000 		.4byte	.LASF57
 7294 02b5 05       		.byte	0x5
 7295 02b6 D1       		.byte	0xd1
 7296 02b7 99030000 		.4byte	0x399
 7297 02bb 00       		.byte	0
 7298 02bc 0A       		.uleb128 0xa
 7299 02bd 25000000 		.4byte	.LASF58
 7300 02c1 05       		.byte	0x5
 7301 02c2 D2       		.byte	0xd2
 7302 02c3 16010000 		.4byte	0x116
 7303 02c7 04       		.byte	0x4
 7304 02c8 0A       		.uleb128 0xa
 7305 02c9 A9010000 		.4byte	.LASF59
 7306 02cd 05       		.byte	0x5
 7307 02ce D3       		.byte	0xd3
 7308 02cf D4030000 		.4byte	0x3d4
 7309 02d3 08       		.byte	0x8
 7310 02d4 00       		.byte	0
 7311 02d5 02       		.uleb128 0x2
 7312 02d6 73060000 		.4byte	.LASF60
 7313 02da 05       		.byte	0x5
 7314 02db A3       		.byte	0xa3
 7315 02dc E0020000 		.4byte	0x2e0
 7316 02e0 06       		.uleb128 0x6
 7317 02e1 B1020000 		.4byte	.LASF61
 7318 02e5 07       		.byte	0x7
 7319 02e6 05       		.byte	0x5
 7320 02e7 1D02     		.2byte	0x21d
 7321 02e9 45030000 		.4byte	0x345
 7322 02ed 08       		.uleb128 0x8
 7323 02ee 7800     		.ascii	"x\000"
 7324 02f0 05       		.byte	0x5
 7325 02f1 1F02     		.2byte	0x21f
 7326 02f3 8E030000 		.4byte	0x38e
 7327 02f7 00       		.byte	0
 7328 02f8 08       		.uleb128 0x8
 7329 02f9 7900     		.ascii	"y\000"
 7330 02fb 05       		.byte	0x5
 7331 02fc 1F02     		.2byte	0x21f
 7332 02fe 8E030000 		.4byte	0x38e
 7333 0302 01       		.byte	0x1
 7334 0303 07       		.uleb128 0x7
 7335 0304 5A0A0000 		.4byte	.LASF62
 7336 0308 05       		.byte	0x5
 7337 0309 2002     		.2byte	0x220
 7338 030b 97000000 		.4byte	0x97
 7339 030f 02       		.byte	0x2
 7340 0310 08       		.uleb128 0x8
ARM GAS  C:\Users\KJA\AppData\Local\Temp\ccAyzU2h.s 			page 158


 7341 0311 64697200 		.ascii	"dir\000"
 7342 0315 05       		.byte	0x5
 7343 0316 2102     		.2byte	0x221
 7344 0318 97000000 		.4byte	0x97
 7345 031c 03       		.byte	0x3
 7346 031d 07       		.uleb128 0x7
 7347 031e B8080000 		.4byte	.LASF63
 7348 0322 05       		.byte	0x5
 7349 0323 2202     		.2byte	0x222
 7350 0325 97000000 		.4byte	0x97
 7351 0329 04       		.byte	0x4
 7352 032a 07       		.uleb128 0x7
 7353 032b F9000000 		.4byte	.LASF64
 7354 032f 05       		.byte	0x5
 7355 0330 2302     		.2byte	0x223
 7356 0332 97000000 		.4byte	0x97
 7357 0336 05       		.byte	0x5
 7358 0337 07       		.uleb128 0x7
 7359 0338 A4010000 		.4byte	.LASF65
 7360 033c 05       		.byte	0x5
 7361 033d 2402     		.2byte	0x224
 7362 033f 97000000 		.4byte	0x97
 7363 0343 06       		.byte	0x6
 7364 0344 00       		.byte	0
 7365 0345 02       		.uleb128 0x2
 7366 0346 BE090000 		.4byte	.LASF66
 7367 034a 05       		.byte	0x5
 7368 034b A5       		.byte	0xa5
 7369 034c 50030000 		.4byte	0x350
 7370 0350 06       		.uleb128 0x6
 7371 0351 D1050000 		.4byte	.LASF67
 7372 0355 04       		.byte	0x4
 7373 0356 05       		.byte	0x5
 7374 0357 3102     		.2byte	0x231
 7375 0359 8E030000 		.4byte	0x38e
 7376 035d 08       		.uleb128 0x8
 7377 035e 783000   		.ascii	"x0\000"
 7378 0361 05       		.byte	0x5
 7379 0362 3302     		.2byte	0x233
 7380 0364 8E030000 		.4byte	0x38e
 7381 0368 00       		.byte	0
 7382 0369 08       		.uleb128 0x8
 7383 036a 793000   		.ascii	"y0\000"
 7384 036d 05       		.byte	0x5
 7385 036e 3302     		.2byte	0x233
 7386 0370 8E030000 		.4byte	0x38e
 7387 0374 01       		.byte	0x1
 7388 0375 08       		.uleb128 0x8
 7389 0376 783100   		.ascii	"x1\000"
 7390 0379 05       		.byte	0x5
 7391 037a 3302     		.2byte	0x233
 7392 037c 8E030000 		.4byte	0x38e
 7393 0380 02       		.byte	0x2
 7394 0381 08       		.uleb128 0x8
 7395 0382 793100   		.ascii	"y1\000"
 7396 0385 05       		.byte	0x5
 7397 0386 3302     		.2byte	0x233
ARM GAS  C:\Users\KJA\AppData\Local\Temp\ccAyzU2h.s 			page 159


 7398 0388 8E030000 		.4byte	0x38e
 7399 038c 03       		.byte	0x3
 7400 038d 00       		.byte	0
 7401 038e 02       		.uleb128 0x2
 7402 038f C6050000 		.4byte	.LASF68
 7403 0393 05       		.byte	0x5
 7404 0394 AF       		.byte	0xaf
 7405 0395 97000000 		.4byte	0x97
 7406 0399 02       		.uleb128 0x2
 7407 039a A3030000 		.4byte	.LASF69
 7408 039e 05       		.byte	0x5
 7409 039f C7       		.byte	0xc7
 7410 03a0 A4030000 		.4byte	0x3a4
 7411 03a4 0B       		.uleb128 0xb
 7412 03a5 04       		.byte	0x4
 7413 03a6 AA030000 		.4byte	0x3aa
 7414 03aa 0C       		.uleb128 0xc
 7415 03ab 97000000 		.4byte	0x97
 7416 03af C8030000 		.4byte	0x3c8
 7417 03b3 0D       		.uleb128 0xd
 7418 03b4 C8030000 		.4byte	0x3c8
 7419 03b8 0D       		.uleb128 0xd
 7420 03b9 CE030000 		.4byte	0x3ce
 7421 03bd 0D       		.uleb128 0xd
 7422 03be 97000000 		.4byte	0x97
 7423 03c2 0D       		.uleb128 0xd
 7424 03c3 16010000 		.4byte	0x116
 7425 03c7 00       		.byte	0
 7426 03c8 0B       		.uleb128 0xb
 7427 03c9 04       		.byte	0x4
 7428 03ca 2E010000 		.4byte	0x12e
 7429 03ce 0B       		.uleb128 0xb
 7430 03cf 04       		.byte	0x4
 7431 03d0 99020000 		.4byte	0x299
 7432 03d4 02       		.uleb128 0x2
 7433 03d5 C2030000 		.4byte	.LASF70
 7434 03d9 05       		.byte	0x5
 7435 03da CA       		.byte	0xca
 7436 03db DF030000 		.4byte	0x3df
 7437 03df 0B       		.uleb128 0xb
 7438 03e0 04       		.byte	0x4
 7439 03e1 E5030000 		.4byte	0x3e5
 7440 03e5 0C       		.uleb128 0xc
 7441 03e6 97000000 		.4byte	0x97
 7442 03ea 03040000 		.4byte	0x403
 7443 03ee 0D       		.uleb128 0xd
 7444 03ef C8030000 		.4byte	0x3c8
 7445 03f3 0D       		.uleb128 0xd
 7446 03f4 97000000 		.4byte	0x97
 7447 03f8 0D       		.uleb128 0xd
 7448 03f9 97000000 		.4byte	0x97
 7449 03fd 0D       		.uleb128 0xd
 7450 03fe 16010000 		.4byte	0x116
 7451 0402 00       		.byte	0
 7452 0403 0E       		.uleb128 0xe
 7453 0404 0B0C0000 		.4byte	.LASF71
 7454 0408 05       		.byte	0x5
ARM GAS  C:\Users\KJA\AppData\Local\Temp\ccAyzU2h.s 			page 160


 7455 0409 0D04     		.2byte	0x40d
 7456 040b 0F040000 		.4byte	0x40f
 7457 040f 0B       		.uleb128 0xb
 7458 0410 04       		.byte	0x4
 7459 0411 15040000 		.4byte	0x415
 7460 0415 0F       		.uleb128 0xf
 7461 0416 20040000 		.4byte	0x420
 7462 041a 0D       		.uleb128 0xd
 7463 041b C8030000 		.4byte	0x3c8
 7464 041f 00       		.byte	0
 7465 0420 0E       		.uleb128 0xe
 7466 0421 C20A0000 		.4byte	.LASF72
 7467 0425 05       		.byte	0x5
 7468 0426 1004     		.2byte	0x410
 7469 0428 2C040000 		.4byte	0x42c
 7470 042c 0B       		.uleb128 0xb
 7471 042d 04       		.byte	0x4
 7472 042e 32040000 		.4byte	0x432
 7473 0432 0C       		.uleb128 0xc
 7474 0433 8E030000 		.4byte	0x38e
 7475 0437 41040000 		.4byte	0x441
 7476 043b 0D       		.uleb128 0xd
 7477 043c C8030000 		.4byte	0x3c8
 7478 0440 00       		.byte	0
 7479 0441 0E       		.uleb128 0xe
 7480 0442 66060000 		.4byte	.LASF73
 7481 0446 05       		.byte	0x5
 7482 0447 1304     		.2byte	0x413
 7483 0449 4D040000 		.4byte	0x44d
 7484 044d 0B       		.uleb128 0xb
 7485 044e 04       		.byte	0x4
 7486 044f 53040000 		.4byte	0x453
 7487 0453 0F       		.uleb128 0xf
 7488 0454 5E040000 		.4byte	0x45e
 7489 0458 0D       		.uleb128 0xd
 7490 0459 97000000 		.4byte	0x97
 7491 045d 00       		.byte	0
 7492 045e 0B       		.uleb128 0xb
 7493 045f 04       		.byte	0x4
 7494 0460 64040000 		.4byte	0x464
 7495 0464 10       		.uleb128 0x10
 7496 0465 18010000 		.4byte	0x118
 7497 0469 11       		.uleb128 0x11
 7498 046a F5010000 		.4byte	.LASF220
 7499 046e 01       		.byte	0x1
 7500 046f 07       		.byte	0x7
 7501 0470 05       		.byte	0x5
 7502 0471 E8040000 		.4byte	0x4e8
 7503 0475 12       		.uleb128 0x12
 7504 0476 450B0000 		.4byte	.LASF74
 7505 047a 00       		.sleb128 0
 7506 047b 12       		.uleb128 0x12
 7507 047c AD040000 		.4byte	.LASF75
 7508 0480 01       		.sleb128 1
 7509 0481 12       		.uleb128 0x12
 7510 0482 1E0C0000 		.4byte	.LASF76
 7511 0486 02       		.sleb128 2
ARM GAS  C:\Users\KJA\AppData\Local\Temp\ccAyzU2h.s 			page 161


 7512 0487 12       		.uleb128 0x12
 7513 0488 38020000 		.4byte	.LASF77
 7514 048c 03       		.sleb128 3
 7515 048d 12       		.uleb128 0x12
 7516 048e B7070000 		.4byte	.LASF78
 7517 0492 04       		.sleb128 4
 7518 0493 12       		.uleb128 0x12
 7519 0494 040A0000 		.4byte	.LASF79
 7520 0498 05       		.sleb128 5
 7521 0499 12       		.uleb128 0x12
 7522 049a 8A0B0000 		.4byte	.LASF80
 7523 049e 06       		.sleb128 6
 7524 049f 12       		.uleb128 0x12
 7525 04a0 DE080000 		.4byte	.LASF81
 7526 04a4 07       		.sleb128 7
 7527 04a5 12       		.uleb128 0x12
 7528 04a6 15070000 		.4byte	.LASF82
 7529 04aa 08       		.sleb128 8
 7530 04ab 12       		.uleb128 0x12
 7531 04ac DB0A0000 		.4byte	.LASF83
 7532 04b0 09       		.sleb128 9
 7533 04b1 12       		.uleb128 0x12
 7534 04b2 D0030000 		.4byte	.LASF84
 7535 04b6 0A       		.sleb128 10
 7536 04b7 12       		.uleb128 0x12
 7537 04b8 06040000 		.4byte	.LASF85
 7538 04bc 0B       		.sleb128 11
 7539 04bd 12       		.uleb128 0x12
 7540 04be 5E010000 		.4byte	.LASF86
 7541 04c2 0C       		.sleb128 12
 7542 04c3 12       		.uleb128 0x12
 7543 04c4 1C000000 		.4byte	.LASF87
 7544 04c8 0D       		.sleb128 13
 7545 04c9 12       		.uleb128 0x12
 7546 04ca 55010000 		.4byte	.LASF88
 7547 04ce 0E       		.sleb128 14
 7548 04cf 12       		.uleb128 0x12
 7549 04d0 2B010000 		.4byte	.LASF89
 7550 04d4 0F       		.sleb128 15
 7551 04d5 12       		.uleb128 0x12
 7552 04d6 600A0000 		.4byte	.LASF90
 7553 04da 10       		.sleb128 16
 7554 04db 12       		.uleb128 0x12
 7555 04dc 74070000 		.4byte	.LASF91
 7556 04e0 11       		.sleb128 17
 7557 04e1 12       		.uleb128 0x12
 7558 04e2 4F080000 		.4byte	.LASF92
 7559 04e6 12       		.sleb128 18
 7560 04e7 00       		.byte	0
 7561 04e8 13       		.uleb128 0x13
 7562 04e9 85040000 		.4byte	.LASF93
 7563 04ed 01       		.byte	0x1
 7564 04ee 23       		.byte	0x23
 7565 04ef 00000000 		.4byte	.LFB63
 7566 04f3 78010000 		.4byte	.LFE63-.LFB63
 7567 04f7 01       		.uleb128 0x1
 7568 04f8 9C       		.byte	0x9c
ARM GAS  C:\Users\KJA\AppData\Local\Temp\ccAyzU2h.s 			page 162


 7569 04f9 13       		.uleb128 0x13
 7570 04fa DD0B0000 		.4byte	.LASF94
 7571 04fe 01       		.byte	0x1
 7572 04ff 88       		.byte	0x88
 7573 0500 00000000 		.4byte	.LFB64
 7574 0504 A0000000 		.4byte	.LFE64-.LFB64
 7575 0508 01       		.uleb128 0x1
 7576 0509 9C       		.byte	0x9c
 7577 050a 13       		.uleb128 0x13
 7578 050b 0F080000 		.4byte	.LASF95
 7579 050f 01       		.byte	0x1
 7580 0510 97       		.byte	0x97
 7581 0511 00000000 		.4byte	.LFB65
 7582 0515 A0000000 		.4byte	.LFE65-.LFB65
 7583 0519 01       		.uleb128 0x1
 7584 051a 9C       		.byte	0x9c
 7585 051b 13       		.uleb128 0x13
 7586 051c 50090000 		.4byte	.LASF96
 7587 0520 01       		.byte	0x1
 7588 0521 A6       		.byte	0xa6
 7589 0522 00000000 		.4byte	.LFB66
 7590 0526 A0000000 		.4byte	.LFE66-.LFB66
 7591 052a 01       		.uleb128 0x1
 7592 052b 9C       		.byte	0x9c
 7593 052c 13       		.uleb128 0x13
 7594 052d 67090000 		.4byte	.LASF97
 7595 0531 01       		.byte	0x1
 7596 0532 B5       		.byte	0xb5
 7597 0533 00000000 		.4byte	.LFB67
 7598 0537 AC000000 		.4byte	.LFE67-.LFB67
 7599 053b 01       		.uleb128 0x1
 7600 053c 9C       		.byte	0x9c
 7601 053d 13       		.uleb128 0x13
 7602 053e 7E090000 		.4byte	.LASF98
 7603 0542 01       		.byte	0x1
 7604 0543 C6       		.byte	0xc6
 7605 0544 00000000 		.4byte	.LFB68
 7606 0548 A0000000 		.4byte	.LFE68-.LFB68
 7607 054c 01       		.uleb128 0x1
 7608 054d 9C       		.byte	0x9c
 7609 054e 13       		.uleb128 0x13
 7610 054f 8A0C0000 		.4byte	.LASF99
 7611 0553 01       		.byte	0x1
 7612 0554 D6       		.byte	0xd6
 7613 0555 00000000 		.4byte	.LFB69
 7614 0559 C0000000 		.4byte	.LFE69-.LFB69
 7615 055d 01       		.uleb128 0x1
 7616 055e 9C       		.byte	0x9c
 7617 055f 13       		.uleb128 0x13
 7618 0560 9A090000 		.4byte	.LASF100
 7619 0564 01       		.byte	0x1
 7620 0565 F2       		.byte	0xf2
 7621 0566 00000000 		.4byte	.LFB70
 7622 056a 74010000 		.4byte	.LFE70-.LFB70
 7623 056e 01       		.uleb128 0x1
 7624 056f 9C       		.byte	0x9c
 7625 0570 14       		.uleb128 0x14
ARM GAS  C:\Users\KJA\AppData\Local\Temp\ccAyzU2h.s 			page 163


 7626 0571 C10B0000 		.4byte	.LASF101
 7627 0575 01       		.byte	0x1
 7628 0576 2801     		.2byte	0x128
 7629 0578 00000000 		.4byte	.LFB71
 7630 057c 10010000 		.4byte	.LFE71-.LFB71
 7631 0580 01       		.uleb128 0x1
 7632 0581 9C       		.byte	0x9c
 7633 0582 14       		.uleb128 0x14
 7634 0583 1E040000 		.4byte	.LASF102
 7635 0587 01       		.byte	0x1
 7636 0588 5301     		.2byte	0x153
 7637 058a 00000000 		.4byte	.LFB72
 7638 058e 7C000000 		.4byte	.LFE72-.LFB72
 7639 0592 01       		.uleb128 0x1
 7640 0593 9C       		.byte	0x9c
 7641 0594 15       		.uleb128 0x15
 7642 0595 EF030000 		.4byte	.LASF107
 7643 0599 01       		.byte	0x1
 7644 059a 6901     		.2byte	0x169
 7645 059c 00000000 		.4byte	.LFB73
 7646 05a0 0C0A0000 		.4byte	.LFE73-.LFB73
 7647 05a4 01       		.uleb128 0x1
 7648 05a5 9C       		.byte	0x9c
 7649 05a6 E2050000 		.4byte	0x5e2
 7650 05aa 16       		.uleb128 0x16
 7651 05ab E3030000 		.4byte	.LASF103
 7652 05af 01       		.byte	0x1
 7653 05b0 6B01     		.2byte	0x16b
 7654 05b2 EF000000 		.4byte	0xef
 7655 05b6 02       		.uleb128 0x2
 7656 05b7 91       		.byte	0x91
 7657 05b8 68       		.sleb128 -24
 7658 05b9 17       		.uleb128 0x17
 7659 05ba 8C000000 		.4byte	.LBB2
 7660 05be 56000000 		.4byte	.LBE2-.LBB2
 7661 05c2 16       		.uleb128 0x16
 7662 05c3 A80B0000 		.4byte	.LASF104
 7663 05c7 01       		.byte	0x1
 7664 05c8 9901     		.2byte	0x199
 7665 05ca B8000000 		.4byte	0xb8
 7666 05ce 02       		.uleb128 0x2
 7667 05cf 91       		.byte	0x91
 7668 05d0 6E       		.sleb128 -18
 7669 05d1 16       		.uleb128 0x16
 7670 05d2 620C0000 		.4byte	.LASF105
 7671 05d6 01       		.byte	0x1
 7672 05d7 9C01     		.2byte	0x19c
 7673 05d9 B8000000 		.4byte	0xb8
 7674 05dd 02       		.uleb128 0x2
 7675 05de 91       		.byte	0x91
 7676 05df 6C       		.sleb128 -20
 7677 05e0 00       		.byte	0
 7678 05e1 00       		.byte	0
 7679 05e2 14       		.uleb128 0x14
 7680 05e3 CF000000 		.4byte	.LASF106
 7681 05e7 01       		.byte	0x1
 7682 05e8 D702     		.2byte	0x2d7
ARM GAS  C:\Users\KJA\AppData\Local\Temp\ccAyzU2h.s 			page 164


 7683 05ea 00000000 		.4byte	.LFB74
 7684 05ee 40000000 		.4byte	.LFE74-.LFB74
 7685 05f2 01       		.uleb128 0x1
 7686 05f3 9C       		.byte	0x9c
 7687 05f4 15       		.uleb128 0x15
 7688 05f5 A8050000 		.4byte	.LASF108
 7689 05f9 01       		.byte	0x1
 7690 05fa E302     		.2byte	0x2e3
 7691 05fc 00000000 		.4byte	.LFB75
 7692 0600 F8080000 		.4byte	.LFE75-.LFB75
 7693 0604 01       		.uleb128 0x1
 7694 0605 9C       		.byte	0x9c
 7695 0606 1A060000 		.4byte	0x61a
 7696 060a 16       		.uleb128 0x16
 7697 060b E3030000 		.4byte	.LASF103
 7698 060f 01       		.byte	0x1
 7699 0610 E802     		.2byte	0x2e8
 7700 0612 EF000000 		.4byte	0xef
 7701 0616 02       		.uleb128 0x2
 7702 0617 91       		.byte	0x91
 7703 0618 6C       		.sleb128 -20
 7704 0619 00       		.byte	0
 7705 061a 15       		.uleb128 0x15
 7706 061b 26080000 		.4byte	.LASF109
 7707 061f 01       		.byte	0x1
 7708 0620 EE03     		.2byte	0x3ee
 7709 0622 00000000 		.4byte	.LFB76
 7710 0626 20080000 		.4byte	.LFE76-.LFB76
 7711 062a 01       		.uleb128 0x1
 7712 062b 9C       		.byte	0x9c
 7713 062c 40060000 		.4byte	0x640
 7714 0630 16       		.uleb128 0x16
 7715 0631 E3030000 		.4byte	.LASF103
 7716 0635 01       		.byte	0x1
 7717 0636 F503     		.2byte	0x3f5
 7718 0638 EF000000 		.4byte	0xef
 7719 063c 02       		.uleb128 0x2
 7720 063d 91       		.byte	0x91
 7721 063e 6C       		.sleb128 -20
 7722 063f 00       		.byte	0
 7723 0640 15       		.uleb128 0x15
 7724 0641 0D0A0000 		.4byte	.LASF110
 7725 0645 01       		.byte	0x1
 7726 0646 D204     		.2byte	0x4d2
 7727 0648 00000000 		.4byte	.LFB77
 7728 064c 1C090000 		.4byte	.LFE77-.LFB77
 7729 0650 01       		.uleb128 0x1
 7730 0651 9C       		.byte	0x9c
 7731 0652 75060000 		.4byte	0x675
 7732 0656 16       		.uleb128 0x16
 7733 0657 E3030000 		.4byte	.LASF103
 7734 065b 01       		.byte	0x1
 7735 065c D904     		.2byte	0x4d9
 7736 065e EF000000 		.4byte	0xef
 7737 0662 02       		.uleb128 0x2
 7738 0663 91       		.byte	0x91
 7739 0664 6C       		.sleb128 -20
ARM GAS  C:\Users\KJA\AppData\Local\Temp\ccAyzU2h.s 			page 165


 7740 0665 16       		.uleb128 0x16
 7741 0666 EA020000 		.4byte	.LASF111
 7742 066a 01       		.byte	0x1
 7743 066b DA04     		.2byte	0x4da
 7744 066d EF000000 		.4byte	0xef
 7745 0671 02       		.uleb128 0x2
 7746 0672 91       		.byte	0x91
 7747 0673 68       		.sleb128 -24
 7748 0674 00       		.byte	0
 7749 0675 14       		.uleb128 0x14
 7750 0676 91050000 		.4byte	.LASF112
 7751 067a 01       		.byte	0x1
 7752 067b CE05     		.2byte	0x5ce
 7753 067d 00000000 		.4byte	.LFB78
 7754 0681 20010000 		.4byte	.LFE78-.LFB78
 7755 0685 01       		.uleb128 0x1
 7756 0686 9C       		.byte	0x9c
 7757 0687 14       		.uleb128 0x14
 7758 0688 84030000 		.4byte	.LASF113
 7759 068c 01       		.byte	0x1
 7760 068d F605     		.2byte	0x5f6
 7761 068f 00000000 		.4byte	.LFB79
 7762 0693 8C000000 		.4byte	.LFE79-.LFB79
 7763 0697 01       		.uleb128 0x1
 7764 0698 9C       		.byte	0x9c
 7765 0699 14       		.uleb128 0x14
 7766 069a 15050000 		.4byte	.LASF114
 7767 069e 01       		.byte	0x1
 7768 069f 0D06     		.2byte	0x60d
 7769 06a1 00000000 		.4byte	.LFB80
 7770 06a5 8C000000 		.4byte	.LFE80-.LFB80
 7771 06a9 01       		.uleb128 0x1
 7772 06aa 9C       		.byte	0x9c
 7773 06ab 14       		.uleb128 0x14
 7774 06ac D1070000 		.4byte	.LASF115
 7775 06b0 01       		.byte	0x1
 7776 06b1 2406     		.2byte	0x624
 7777 06b3 00000000 		.4byte	.LFB81
 7778 06b7 80000000 		.4byte	.LFE81-.LFB81
 7779 06bb 01       		.uleb128 0x1
 7780 06bc 9C       		.byte	0x9c
 7781 06bd 18       		.uleb128 0x18
 7782 06be 42080000 		.4byte	.LASF116
 7783 06c2 06       		.byte	0x6
 7784 06c3 2A06     		.2byte	0x62a
 7785 06c5 C9060000 		.4byte	0x6c9
 7786 06c9 19       		.uleb128 0x19
 7787 06ca A2000000 		.4byte	0xa2
 7788 06ce 1A       		.uleb128 0x1a
 7789 06cf 23010000 		.4byte	0x123
 7790 06d3 D9060000 		.4byte	0x6d9
 7791 06d7 1B       		.uleb128 0x1b
 7792 06d8 00       		.byte	0
 7793 06d9 18       		.uleb128 0x18
 7794 06da 80050000 		.4byte	.LASF117
 7795 06de 05       		.byte	0x5
 7796 06df 0107     		.2byte	0x701
ARM GAS  C:\Users\KJA\AppData\Local\Temp\ccAyzU2h.s 			page 166


 7797 06e1 E5060000 		.4byte	0x6e5
 7798 06e5 10       		.uleb128 0x10
 7799 06e6 CE060000 		.4byte	0x6ce
 7800 06ea 1C       		.uleb128 0x1c
 7801 06eb BD010000 		.4byte	.LASF118
 7802 06ef 07       		.byte	0x7
 7803 06f0 09       		.byte	0x9
 7804 06f1 69040000 		.4byte	0x469
 7805 06f5 05       		.uleb128 0x5
 7806 06f6 03       		.byte	0x3
 7807 06f7 00000000 		.4byte	Current_State
 7808 06fb 1C       		.uleb128 0x1c
 7809 06fc 23030000 		.4byte	.LASF119
 7810 0700 07       		.byte	0x7
 7811 0701 0A       		.byte	0xa
 7812 0702 69040000 		.4byte	0x469
 7813 0706 05       		.uleb128 0x5
 7814 0707 03       		.byte	0x3
 7815 0708 00000000 		.4byte	Previous_State
 7816 070c 1C       		.uleb128 0x1c
 7817 070d CB010000 		.4byte	.LASF120
 7818 0711 07       		.byte	0x7
 7819 0712 0C       		.byte	0xc
 7820 0713 AD000000 		.4byte	0xad
 7821 0717 05       		.uleb128 0x5
 7822 0718 03       		.byte	0x3
 7823 0719 00000000 		.4byte	Sound_Enable
 7824 071d 1C       		.uleb128 0x1c
 7825 071e E7040000 		.4byte	.LASF121
 7826 0722 07       		.byte	0x7
 7827 0723 0E       		.byte	0xe
 7828 0724 AD000000 		.4byte	0xad
 7829 0728 05       		.uleb128 0x5
 7830 0729 03       		.byte	0x3
 7831 072a 00000000 		.4byte	Current_Menu_Position
 7832 072e 1C       		.uleb128 0x1c
 7833 072f 2F0B0000 		.4byte	.LASF122
 7834 0733 07       		.byte	0x7
 7835 0734 11       		.byte	0x11
 7836 0735 AD000000 		.4byte	0xad
 7837 0739 05       		.uleb128 0x5
 7838 073a 03       		.byte	0x3
 7839 073b 00000000 		.4byte	CurrentBacklightValue
 7840 073f 1A       		.uleb128 0x1a
 7841 0740 FD000000 		.4byte	0xfd
 7842 0744 4F070000 		.4byte	0x74f
 7843 0748 1D       		.uleb128 0x1d
 7844 0749 0F010000 		.4byte	0x10f
 7845 074d 07       		.byte	0x7
 7846 074e 00       		.byte	0
 7847 074f 1C       		.uleb128 0x1c
 7848 0750 0F020000 		.4byte	.LASF123
 7849 0754 07       		.byte	0x7
 7850 0755 12       		.byte	0x12
 7851 0756 3F070000 		.4byte	0x73f
 7852 075a 05       		.uleb128 0x5
 7853 075b 03       		.byte	0x3
ARM GAS  C:\Users\KJA\AppData\Local\Temp\ccAyzU2h.s 			page 167


 7854 075c 00000000 		.4byte	CurrentBacklightValueString
 7855 0760 1C       		.uleb128 0x1c
 7856 0761 C6020000 		.4byte	.LASF124
 7857 0765 07       		.byte	0x7
 7858 0766 14       		.byte	0x14
 7859 0767 AD000000 		.4byte	0xad
 7860 076b 05       		.uleb128 0x5
 7861 076c 03       		.byte	0x3
 7862 076d 00000000 		.4byte	CurrentVolumeValue
 7863 0771 1C       		.uleb128 0x1c
 7864 0772 7C0A0000 		.4byte	.LASF125
 7865 0776 07       		.byte	0x7
 7866 0777 15       		.byte	0x15
 7867 0778 3F070000 		.4byte	0x73f
 7868 077c 05       		.uleb128 0x5
 7869 077d 03       		.byte	0x3
 7870 077e 00000000 		.4byte	CurrentVolumeValueString
 7871 0782 1C       		.uleb128 0x1c
 7872 0783 75000000 		.4byte	.LASF126
 7873 0787 07       		.byte	0x7
 7874 0788 17       		.byte	0x17
 7875 0789 EF000000 		.4byte	0xef
 7876 078d 05       		.uleb128 0x5
 7877 078e 03       		.byte	0x3
 7878 078f 00000000 		.4byte	Current_Calibration_Range1
 7879 0793 1C       		.uleb128 0x1c
 7880 0794 90000000 		.4byte	.LASF127
 7881 0798 07       		.byte	0x7
 7882 0799 18       		.byte	0x18
 7883 079a EF000000 		.4byte	0xef
 7884 079e 05       		.uleb128 0x5
 7885 079f 03       		.byte	0x3
 7886 07a0 00000000 		.4byte	Current_Calibration_Range2
 7887 07a4 1C       		.uleb128 0x1c
 7888 07a5 AB000000 		.4byte	.LASF128
 7889 07a9 07       		.byte	0x7
 7890 07aa 19       		.byte	0x19
 7891 07ab EF000000 		.4byte	0xef
 7892 07af 05       		.uleb128 0x5
 7893 07b0 03       		.byte	0x3
 7894 07b1 00000000 		.4byte	Current_Calibration_Range3
 7895 07b5 1C       		.uleb128 0x1c
 7896 07b6 44010000 		.4byte	.LASF129
 7897 07ba 07       		.byte	0x7
 7898 07bb 1B       		.byte	0x1b
 7899 07bc AD000000 		.4byte	0xad
 7900 07c0 05       		.uleb128 0x5
 7901 07c1 03       		.byte	0x3
 7902 07c2 00000000 		.4byte	LEM_Offset_Value
 7903 07c6 1C       		.uleb128 0x1c
 7904 07c7 2B0C0000 		.4byte	.LASF130
 7905 07cb 07       		.byte	0x7
 7906 07cc 1D       		.byte	0x1d
 7907 07cd EF000000 		.4byte	0xef
 7908 07d1 05       		.uleb128 0x5
 7909 07d2 03       		.byte	0x3
 7910 07d3 00000000 		.4byte	Two_Wire_Range
ARM GAS  C:\Users\KJA\AppData\Local\Temp\ccAyzU2h.s 			page 168


 7911 07d7 1C       		.uleb128 0x1c
 7912 07d8 520C0000 		.4byte	.LASF131
 7913 07dc 07       		.byte	0x7
 7914 07dd 1E       		.byte	0x1e
 7915 07de EF000000 		.4byte	0xef
 7916 07e2 05       		.uleb128 0x5
 7917 07e3 03       		.byte	0x3
 7918 07e4 00000000 		.4byte	Four_Wire_Range
 7919 07e8 1C       		.uleb128 0x1c
 7920 07e9 DA090000 		.4byte	.LASF132
 7921 07ed 07       		.byte	0x7
 7922 07ee 1F       		.byte	0x1f
 7923 07ef AD000000 		.4byte	0xad
 7924 07f3 05       		.uleb128 0x5
 7925 07f4 03       		.byte	0x3
 7926 07f5 00000000 		.4byte	Four_Wire_Method
 7927 07f9 1C       		.uleb128 0x1c
 7928 07fa F4080000 		.4byte	.LASF133
 7929 07fe 07       		.byte	0x7
 7930 07ff 21       		.byte	0x21
 7931 0800 AD000000 		.4byte	0xad
 7932 0804 05       		.uleb128 0x5
 7933 0805 03       		.byte	0x3
 7934 0806 00000000 		.4byte	Actual_Range
 7935 080a 1C       		.uleb128 0x1c
 7936 080b 81020000 		.4byte	.LASF134
 7937 080f 07       		.byte	0x7
 7938 0810 22       		.byte	0x22
 7939 0811 AD000000 		.4byte	0xad
 7940 0815 05       		.uleb128 0x5
 7941 0816 03       		.byte	0x3
 7942 0817 00000000 		.4byte	View_Mode
 7943 081b 1C       		.uleb128 0x1c
 7944 081c FA050000 		.4byte	.LASF135
 7945 0820 07       		.byte	0x7
 7946 0821 25       		.byte	0x25
 7947 0822 B8000000 		.4byte	0xb8
 7948 0826 05       		.uleb128 0x5
 7949 0827 03       		.byte	0x3
 7950 0828 00000000 		.4byte	qdCount
 7951 082c 1C       		.uleb128 0x1c
 7952 082d 2B020000 		.4byte	.LASF136
 7953 0831 07       		.byte	0x7
 7954 0832 26       		.byte	0x26
 7955 0833 B8000000 		.4byte	0xb8
 7956 0837 05       		.uleb128 0x5
 7957 0838 03       		.byte	0x3
 7958 0839 00000000 		.4byte	Last_qdCount
 7959 083d 1C       		.uleb128 0x1c
 7960 083e BE080000 		.4byte	.LASF137
 7961 0842 07       		.byte	0x7
 7962 0843 28       		.byte	0x28
 7963 0844 AD000000 		.4byte	0xad
 7964 0848 05       		.uleb128 0x5
 7965 0849 03       		.byte	0x3
 7966 084a 00000000 		.4byte	button1
 7967 084e 1C       		.uleb128 0x1c
ARM GAS  C:\Users\KJA\AppData\Local\Temp\ccAyzU2h.s 			page 169


 7968 084f C6080000 		.4byte	.LASF138
 7969 0853 07       		.byte	0x7
 7970 0854 28       		.byte	0x28
 7971 0855 AD000000 		.4byte	0xad
 7972 0859 05       		.uleb128 0x5
 7973 085a 03       		.byte	0x3
 7974 085b 00000000 		.4byte	button2
 7975 085f 1C       		.uleb128 0x1c
 7976 0860 24060000 		.4byte	.LASF139
 7977 0864 07       		.byte	0x7
 7978 0865 28       		.byte	0x28
 7979 0866 AD000000 		.4byte	0xad
 7980 086a 05       		.uleb128 0x5
 7981 086b 03       		.byte	0x3
 7982 086c 00000000 		.4byte	button3
 7983 0870 1C       		.uleb128 0x1c
 7984 0871 2C060000 		.4byte	.LASF140
 7985 0875 07       		.byte	0x7
 7986 0876 28       		.byte	0x28
 7987 0877 AD000000 		.4byte	0xad
 7988 087b 05       		.uleb128 0x5
 7989 087c 03       		.byte	0x3
 7990 087d 00000000 		.4byte	button4
 7991 0881 1C       		.uleb128 0x1c
 7992 0882 EC080000 		.4byte	.LASF141
 7993 0886 07       		.byte	0x7
 7994 0887 28       		.byte	0x28
 7995 0888 AD000000 		.4byte	0xad
 7996 088c 05       		.uleb128 0x5
 7997 088d 03       		.byte	0x3
 7998 088e 00000000 		.4byte	button5
 7999 0892 1C       		.uleb128 0x1c
 8000 0893 4E060000 		.4byte	.LASF142
 8001 0897 07       		.byte	0x7
 8002 0898 28       		.byte	0x28
 8003 0899 AD000000 		.4byte	0xad
 8004 089d 05       		.uleb128 0x5
 8005 089e 03       		.byte	0x3
 8006 089f 00000000 		.4byte	button6
 8007 08a3 1C       		.uleb128 0x1c
 8008 08a4 1E030000 		.4byte	.LASF143
 8009 08a8 07       		.byte	0x7
 8010 08a9 28       		.byte	0x28
 8011 08aa AD000000 		.4byte	0xad
 8012 08ae 05       		.uleb128 0x5
 8013 08af 03       		.byte	0x3
 8014 08b0 00000000 		.4byte	push
 8015 08b4 1C       		.uleb128 0x1c
 8016 08b5 FA0A0000 		.4byte	.LASF144
 8017 08b9 07       		.byte	0x7
 8018 08ba 2A       		.byte	0x2a
 8019 08bb AD000000 		.4byte	0xad
 8020 08bf 05       		.uleb128 0x5
 8021 08c0 03       		.byte	0x3
 8022 08c1 00000000 		.4byte	OutputEnable
 8023 08c5 1E       		.uleb128 0x1e
 8024 08c6 75386700 		.ascii	"u8g\000"
ARM GAS  C:\Users\KJA\AppData\Local\Temp\ccAyzU2h.s 			page 170


 8025 08ca 07       		.byte	0x7
 8026 08cb 2C       		.byte	0x2c
 8027 08cc 2E010000 		.4byte	0x12e
 8028 08d0 05       		.uleb128 0x5
 8029 08d1 03       		.byte	0x3
 8030 08d2 00000000 		.4byte	u8g
 8031 08d6 1C       		.uleb128 0x1c
 8032 08d7 6E0C0000 		.4byte	.LASF145
 8033 08db 07       		.byte	0x7
 8034 08dc 2E       		.byte	0x2e
 8035 08dd C3000000 		.4byte	0xc3
 8036 08e1 05       		.uleb128 0x5
 8037 08e2 03       		.byte	0x3
 8038 08e3 00000000 		.4byte	Push_Buzzer__Default_Lenght
 8039 08e7 1C       		.uleb128 0x1c
 8040 08e8 69080000 		.4byte	.LASF146
 8041 08ec 07       		.byte	0x7
 8042 08ed 2F       		.byte	0x2f
 8043 08ee C3000000 		.4byte	0xc3
 8044 08f2 05       		.uleb128 0x5
 8045 08f3 03       		.byte	0x3
 8046 08f4 00000000 		.4byte	Rotate_Buzzer__Default_Lenght
 8047 08f8 1C       		.uleb128 0x1c
 8048 08f9 36000000 		.4byte	.LASF147
 8049 08fd 07       		.byte	0x7
 8050 08fe 3C       		.byte	0x3c
 8051 08ff AD000000 		.4byte	0xad
 8052 0903 05       		.uleb128 0x5
 8053 0904 03       		.byte	0x3
 8054 0905 00000000 		.4byte	Edit_Value_Mode
 8055 0909 1A       		.uleb128 0x1a
 8056 090a FD000000 		.4byte	0xfd
 8057 090e 19090000 		.4byte	0x919
 8058 0912 1D       		.uleb128 0x1d
 8059 0913 0F010000 		.4byte	0x10f
 8060 0917 0F       		.byte	0xf
 8061 0918 00       		.byte	0
 8062 0919 1C       		.uleb128 0x1c
 8063 091a 02010000 		.4byte	.LASF148
 8064 091e 07       		.byte	0x7
 8065 091f 3E       		.byte	0x3e
 8066 0920 09090000 		.4byte	0x909
 8067 0924 05       		.uleb128 0x5
 8068 0925 03       		.byte	0x3
 8069 0926 00000000 		.4byte	cVoltage_Actual
 8070 092a 1C       		.uleb128 0x1c
 8071 092b D8010000 		.4byte	.LASF149
 8072 092f 07       		.byte	0x7
 8073 0930 3F       		.byte	0x3f
 8074 0931 09090000 		.4byte	0x909
 8075 0935 05       		.uleb128 0x5
 8076 0936 03       		.byte	0x3
 8077 0937 00000000 		.4byte	cCurrent_Actual
 8078 093b 1C       		.uleb128 0x1c
 8079 093c 56040000 		.4byte	.LASF150
 8080 0940 07       		.byte	0x7
 8081 0941 40       		.byte	0x40
ARM GAS  C:\Users\KJA\AppData\Local\Temp\ccAyzU2h.s 			page 171


 8082 0942 09090000 		.4byte	0x909
 8083 0946 05       		.uleb128 0x5
 8084 0947 03       		.byte	0x3
 8085 0948 00000000 		.4byte	cPower_Actual
 8086 094c 1A       		.uleb128 0x1a
 8087 094d 08010000 		.4byte	0x108
 8088 0951 5C090000 		.4byte	0x95c
 8089 0955 1D       		.uleb128 0x1d
 8090 0956 0F010000 		.4byte	0x10f
 8091 095a 0F       		.byte	0xf
 8092 095b 00       		.byte	0
 8093 095c 1C       		.uleb128 0x1c
 8094 095d 0F040000 		.4byte	.LASF151
 8095 0961 07       		.byte	0x7
 8096 0962 41       		.byte	0x41
 8097 0963 4C090000 		.4byte	0x94c
 8098 0967 05       		.uleb128 0x5
 8099 0968 03       		.byte	0x3
 8100 0969 00000000 		.4byte	cResist_Actual
 8101 096d 1C       		.uleb128 0x1c
 8102 096e A4020000 		.4byte	.LASF152
 8103 0972 07       		.byte	0x7
 8104 0973 43       		.byte	0x43
 8105 0974 09090000 		.4byte	0x909
 8106 0978 05       		.uleb128 0x5
 8107 0979 03       		.byte	0x3
 8108 097a 00000000 		.4byte	cVoltage_Set
 8109 097e 1C       		.uleb128 0x1c
 8110 097f E8010000 		.4byte	.LASF153
 8111 0983 07       		.byte	0x7
 8112 0984 44       		.byte	0x44
 8113 0985 09090000 		.4byte	0x909
 8114 0989 05       		.uleb128 0x5
 8115 098a 03       		.byte	0x3
 8116 098b 00000000 		.4byte	cCurrent_Set
 8117 098f 1C       		.uleb128 0x1c
 8118 0990 DF020000 		.4byte	.LASF154
 8119 0994 07       		.byte	0x7
 8120 0995 45       		.byte	0x45
 8121 0996 09090000 		.4byte	0x909
 8122 099a 05       		.uleb128 0x5
 8123 099b 03       		.byte	0x3
 8124 099c 00000000 		.4byte	cPower_Set
 8125 09a0 1C       		.uleb128 0x1c
 8126 09a1 10000000 		.4byte	.LASF155
 8127 09a5 07       		.byte	0x7
 8128 09a6 46       		.byte	0x46
 8129 09a7 09090000 		.4byte	0x909
 8130 09ab 05       		.uleb128 0x5
 8131 09ac 03       		.byte	0x3
 8132 09ad 00000000 		.4byte	cResist_Set
 8133 09b1 1C       		.uleb128 0x1c
 8134 09b2 950A0000 		.4byte	.LASF156
 8135 09b6 07       		.byte	0x7
 8136 09b7 48       		.byte	0x48
 8137 09b8 09090000 		.4byte	0x909
 8138 09bc 05       		.uleb128 0x5
ARM GAS  C:\Users\KJA\AppData\Local\Temp\ccAyzU2h.s 			page 172


 8139 09bd 03       		.byte	0x3
 8140 09be 00000000 		.4byte	TestChar
 8141 09c2 1C       		.uleb128 0x1c
 8142 09c3 14030000 		.4byte	.LASF157
 8143 09c7 07       		.byte	0x7
 8144 09c8 4C       		.byte	0x4c
 8145 09c9 D9000000 		.4byte	0xd9
 8146 09cd 05       		.uleb128 0x5
 8147 09ce 03       		.byte	0x3
 8148 09cf 00000000 		.4byte	XPosition
 8149 09d3 1C       		.uleb128 0x1c
 8150 09d4 B60B0000 		.4byte	.LASF158
 8151 09d8 07       		.byte	0x7
 8152 09d9 4D       		.byte	0x4d
 8153 09da 09090000 		.4byte	0x909
 8154 09de 05       		.uleb128 0x5
 8155 09df 03       		.byte	0x3
 8156 09e0 00000000 		.4byte	cXPosition
 8157 09e4 1C       		.uleb128 0x1c
 8158 09e5 0F060000 		.4byte	.LASF159
 8159 09e9 07       		.byte	0x7
 8160 09ea 4E       		.byte	0x4e
 8161 09eb D9000000 		.4byte	0xd9
 8162 09ef 05       		.uleb128 0x5
 8163 09f0 03       		.byte	0x3
 8164 09f1 00000000 		.4byte	YPosition
 8165 09f5 1C       		.uleb128 0x1c
 8166 09f6 BB040000 		.4byte	.LASF160
 8167 09fa 07       		.byte	0x7
 8168 09fb 4F       		.byte	0x4f
 8169 09fc 09090000 		.4byte	0x909
 8170 0a00 05       		.uleb128 0x5
 8171 0a01 03       		.byte	0x3
 8172 0a02 00000000 		.4byte	cYPosition
 8173 0a06 1C       		.uleb128 0x1c
 8174 0a07 710B0000 		.4byte	.LASF161
 8175 0a0b 07       		.byte	0x7
 8176 0a0c 50       		.byte	0x50
 8177 0a0d AD000000 		.4byte	0xad
 8178 0a11 05       		.uleb128 0x5
 8179 0a12 03       		.byte	0x3
 8180 0a13 00000000 		.4byte	Touched
 8181 0a17 1C       		.uleb128 0x1c
 8182 0a18 87080000 		.4byte	.LASF162
 8183 0a1c 07       		.byte	0x7
 8184 0a1d 52       		.byte	0x52
 8185 0a1e B8000000 		.4byte	0xb8
 8186 0a22 05       		.uleb128 0x5
 8187 0a23 03       		.byte	0x3
 8188 0a24 00000000 		.4byte	MeasuredVoltage
 8189 0a28 1C       		.uleb128 0x1c
 8190 0a29 60030000 		.4byte	.LASF163
 8191 0a2d 07       		.byte	0x7
 8192 0a2e 53       		.byte	0x53
 8193 0a2f EF000000 		.4byte	0xef
 8194 0a33 05       		.uleb128 0x5
 8195 0a34 03       		.byte	0x3
ARM GAS  C:\Users\KJA\AppData\Local\Temp\ccAyzU2h.s 			page 173


 8196 0a35 00000000 		.4byte	fVoltage
 8197 0a39 1C       		.uleb128 0x1c
 8198 0a3a 3E060000 		.4byte	.LASF164
 8199 0a3e 07       		.byte	0x7
 8200 0a3f 54       		.byte	0x54
 8201 0a40 D9000000 		.4byte	0xd9
 8202 0a44 05       		.uleb128 0x5
 8203 0a45 03       		.byte	0x3
 8204 0a46 00000000 		.4byte	MeasuredCurrent
 8205 0a4a 1C       		.uleb128 0x1c
 8206 0a4b C6000000 		.4byte	.LASF165
 8207 0a4f 07       		.byte	0x7
 8208 0a50 55       		.byte	0x55
 8209 0a51 EF000000 		.4byte	0xef
 8210 0a55 05       		.uleb128 0x5
 8211 0a56 03       		.byte	0x3
 8212 0a57 00000000 		.4byte	fCurrent
 8213 0a5b 1C       		.uleb128 0x1c
 8214 0a5c 64000000 		.4byte	.LASF166
 8215 0a60 07       		.byte	0x7
 8216 0a61 56       		.byte	0x56
 8217 0a62 D9000000 		.4byte	0xd9
 8218 0a66 05       		.uleb128 0x5
 8219 0a67 03       		.byte	0x3
 8220 0a68 00000000 		.4byte	Power
 8221 0a6c 1C       		.uleb128 0x1c
 8222 0a6d 7E040000 		.4byte	.LASF167
 8223 0a71 07       		.byte	0x7
 8224 0a72 57       		.byte	0x57
 8225 0a73 EF000000 		.4byte	0xef
 8226 0a77 05       		.uleb128 0x5
 8227 0a78 03       		.byte	0x3
 8228 0a79 00000000 		.4byte	fPower
 8229 0a7d 1C       		.uleb128 0x1c
 8230 0a7e 47070000 		.4byte	.LASF168
 8231 0a82 07       		.byte	0x7
 8232 0a83 58       		.byte	0x58
 8233 0a84 D9000000 		.4byte	0xd9
 8234 0a88 05       		.uleb128 0x5
 8235 0a89 03       		.byte	0x3
 8236 0a8a 00000000 		.4byte	Resist
 8237 0a8e 1C       		.uleb128 0x1c
 8238 0a8f 78050000 		.4byte	.LASF169
 8239 0a93 07       		.byte	0x7
 8240 0a94 59       		.byte	0x59
 8241 0a95 EF000000 		.4byte	0xef
 8242 0a99 05       		.uleb128 0x5
 8243 0a9a 03       		.byte	0x3
 8244 0a9b 00000000 		.4byte	fResist
 8245 0a9f 1C       		.uleb128 0x1c
 8246 0aa0 7E0B0000 		.4byte	.LASF170
 8247 0aa4 07       		.byte	0x7
 8248 0aa5 5C       		.byte	0x5c
 8249 0aa6 EF000000 		.4byte	0xef
 8250 0aaa 05       		.uleb128 0x5
 8251 0aab 03       		.byte	0x3
 8252 0aac 00000000 		.4byte	Set_Voltage
ARM GAS  C:\Users\KJA\AppData\Local\Temp\ccAyzU2h.s 			page 174


 8253 0ab0 1C       		.uleb128 0x1c
 8254 0ab1 9E0A0000 		.4byte	.LASF171
 8255 0ab5 07       		.byte	0x7
 8256 0ab6 5D       		.byte	0x5d
 8257 0ab7 EF000000 		.4byte	0xef
 8258 0abb 05       		.uleb128 0x5
 8259 0abc 03       		.byte	0x3
 8260 0abd 00000000 		.4byte	Set_Current
 8261 0ac1 1C       		.uleb128 0x1c
 8262 0ac2 87070000 		.4byte	.LASF172
 8263 0ac6 07       		.byte	0x7
 8264 0ac7 5E       		.byte	0x5e
 8265 0ac8 EF000000 		.4byte	0xef
 8266 0acc 05       		.uleb128 0x5
 8267 0acd 03       		.byte	0x3
 8268 0ace 00000000 		.4byte	Set_Current_Temporary_Value
 8269 0ad2 1C       		.uleb128 0x1c
 8270 0ad3 B80A0000 		.4byte	.LASF173
 8271 0ad7 07       		.byte	0x7
 8272 0ad8 5F       		.byte	0x5f
 8273 0ad9 EF000000 		.4byte	0xef
 8274 0add 05       		.uleb128 0x5
 8275 0ade 03       		.byte	0x3
 8276 0adf 00000000 		.4byte	Set_Power
 8277 0ae3 1C       		.uleb128 0x1c
 8278 0ae4 64040000 		.4byte	.LASF174
 8279 0ae8 07       		.byte	0x7
 8280 0ae9 60       		.byte	0x60
 8281 0aea EF000000 		.4byte	0xef
 8282 0aee 05       		.uleb128 0x5
 8283 0aef 03       		.byte	0x3
 8284 0af0 00000000 		.4byte	Set_Power_Temporary_Value
 8285 0af4 1C       		.uleb128 0x1c
 8286 0af5 6A000000 		.4byte	.LASF175
 8287 0af9 07       		.byte	0x7
 8288 0afa 61       		.byte	0x61
 8289 0afb EF000000 		.4byte	0xef
 8290 0aff 05       		.uleb128 0x5
 8291 0b00 03       		.byte	0x3
 8292 0b01 00000000 		.4byte	Set_Resist
 8293 0b05 1C       		.uleb128 0x1c
 8294 0b06 69030000 		.4byte	.LASF176
 8295 0b0a 07       		.byte	0x7
 8296 0b0b 62       		.byte	0x62
 8297 0b0c EF000000 		.4byte	0xef
 8298 0b10 05       		.uleb128 0x5
 8299 0b11 03       		.byte	0x3
 8300 0b12 00000000 		.4byte	Set_Resist_Temporary_Value
 8301 0b16 1C       		.uleb128 0x1c
 8302 0b17 62050000 		.4byte	.LASF177
 8303 0b1b 07       		.byte	0x7
 8304 0b1c 64       		.byte	0x64
 8305 0b1d CE000000 		.4byte	0xce
 8306 0b21 05       		.uleb128 0x5
 8307 0b22 03       		.byte	0x3
 8308 0b23 00000000 		.4byte	Position_Number
 8309 0b27 1C       		.uleb128 0x1c
ARM GAS  C:\Users\KJA\AppData\Local\Temp\ccAyzU2h.s 			page 175


 8310 0b28 3A040000 		.4byte	.LASF178
 8311 0b2c 07       		.byte	0x7
 8312 0b2d 68       		.byte	0x68
 8313 0b2e EF000000 		.4byte	0xef
 8314 0b32 05       		.uleb128 0x5
 8315 0b33 03       		.byte	0x3
 8316 0b34 00000000 		.4byte	MaxPower
 8317 0b38 1C       		.uleb128 0x1c
 8318 0b39 5E080000 		.4byte	.LASF179
 8319 0b3d 07       		.byte	0x7
 8320 0b3e 69       		.byte	0x69
 8321 0b3f EF000000 		.4byte	0xef
 8322 0b43 05       		.uleb128 0x5
 8323 0b44 03       		.byte	0x3
 8324 0b45 00000000 		.4byte	MaxVoltage
 8325 0b49 1C       		.uleb128 0x1c
 8326 0b4a 19060000 		.4byte	.LASF180
 8327 0b4e 07       		.byte	0x7
 8328 0b4f 6A       		.byte	0x6a
 8329 0b50 EF000000 		.4byte	0xef
 8330 0b54 05       		.uleb128 0x5
 8331 0b55 03       		.byte	0x3
 8332 0b56 00000000 		.4byte	MaxCurrent
 8333 0b5a 1C       		.uleb128 0x1c
 8334 0b5b D9040000 		.4byte	.LASF181
 8335 0b5f 07       		.byte	0x7
 8336 0b60 6B       		.byte	0x6b
 8337 0b61 EF000000 		.4byte	0xef
 8338 0b65 05       		.uleb128 0x5
 8339 0b66 03       		.byte	0x3
 8340 0b67 00000000 		.4byte	MinResistance
 8341 0b6b 1C       		.uleb128 0x1c
 8342 0b6c AA0A0000 		.4byte	.LASF182
 8343 0b70 07       		.byte	0x7
 8344 0b71 6C       		.byte	0x6c
 8345 0b72 EF000000 		.4byte	0xef
 8346 0b76 05       		.uleb128 0x5
 8347 0b77 03       		.byte	0x3
 8348 0b78 00000000 		.4byte	MaxResistance
 8349 0b7c 1C       		.uleb128 0x1c
 8350 0b7d 790B0000 		.4byte	.LASF183
 8351 0b81 07       		.byte	0x7
 8352 0b82 6D       		.byte	0x6d
 8353 0b83 EF000000 		.4byte	0xef
 8354 0b87 05       		.uleb128 0x5
 8355 0b88 03       		.byte	0x3
 8356 0b89 00000000 		.4byte	C_Kp
 8357 0b8d 1C       		.uleb128 0x1c
 8358 0b8e 46000000 		.4byte	.LASF184
 8359 0b92 07       		.byte	0x7
 8360 0b93 6E       		.byte	0x6e
 8361 0b94 EF000000 		.4byte	0xef
 8362 0b98 05       		.uleb128 0x5
 8363 0b99 03       		.byte	0x3
 8364 0b9a 00000000 		.4byte	C_Ki
 8365 0b9e 1C       		.uleb128 0x1c
 8366 0b9f 6C0B0000 		.4byte	.LASF185
ARM GAS  C:\Users\KJA\AppData\Local\Temp\ccAyzU2h.s 			page 176


 8367 0ba3 07       		.byte	0x7
 8368 0ba4 6F       		.byte	0x6f
 8369 0ba5 EF000000 		.4byte	0xef
 8370 0ba9 05       		.uleb128 0x5
 8371 0baa 03       		.byte	0x3
 8372 0bab 00000000 		.4byte	C_Kd
 8373 0baf 1C       		.uleb128 0x1c
 8374 0bb0 02060000 		.4byte	.LASF186
 8375 0bb4 07       		.byte	0x7
 8376 0bb5 70       		.byte	0x70
 8377 0bb6 CE000000 		.4byte	0xce
 8378 0bba 05       		.uleb128 0x5
 8379 0bbb 03       		.byte	0x3
 8380 0bbc 00000000 		.4byte	Max_FET_Temp
 8381 0bc0 1C       		.uleb128 0x1c
 8382 0bc1 2B090000 		.4byte	.LASF187
 8383 0bc5 07       		.byte	0x7
 8384 0bc6 71       		.byte	0x71
 8385 0bc7 AD000000 		.4byte	0xad
 8386 0bcb 05       		.uleb128 0x5
 8387 0bcc 03       		.byte	0x3
 8388 0bcd 00000000 		.4byte	OverTemperature
 8389 0bd1 1C       		.uleb128 0x1c
 8390 0bd2 8B020000 		.4byte	.LASF188
 8391 0bd6 07       		.byte	0x7
 8392 0bd7 74       		.byte	0x74
 8393 0bd8 D9000000 		.4byte	0xd9
 8394 0bdc 05       		.uleb128 0x5
 8395 0bdd 03       		.byte	0x3
 8396 0bde 00000000 		.4byte	Set_Ampl
 8397 0be2 1C       		.uleb128 0x1c
 8398 0be3 01090000 		.4byte	.LASF189
 8399 0be7 07       		.byte	0x7
 8400 0be8 75       		.byte	0x75
 8401 0be9 D9000000 		.4byte	0xd9
 8402 0bed 05       		.uleb128 0x5
 8403 0bee 03       		.byte	0x3
 8404 0bef 00000000 		.4byte	Set_Ampl_Temporary_Value
 8405 0bf3 1C       		.uleb128 0x1c
 8406 0bf4 B2040000 		.4byte	.LASF190
 8407 0bf8 07       		.byte	0x7
 8408 0bf9 76       		.byte	0x76
 8409 0bfa B8000000 		.4byte	0xb8
 8410 0bfe 05       		.uleb128 0x5
 8411 0bff 03       		.byte	0x3
 8412 0c00 00000000 		.4byte	Set_Freq
 8413 0c04 1C       		.uleb128 0x1c
 8414 0c05 8B010000 		.4byte	.LASF191
 8415 0c09 07       		.byte	0x7
 8416 0c0a 77       		.byte	0x77
 8417 0c0b E4000000 		.4byte	0xe4
 8418 0c0f 05       		.uleb128 0x5
 8419 0c10 03       		.byte	0x3
 8420 0c11 00000000 		.4byte	Set_Freq_Temporary_Value
 8421 0c15 1C       		.uleb128 0x1c
 8422 0c16 0C050000 		.4byte	.LASF192
 8423 0c1a 07       		.byte	0x7
ARM GAS  C:\Users\KJA\AppData\Local\Temp\ccAyzU2h.s 			page 177


 8424 0c1b 78       		.byte	0x78
 8425 0c1c CE000000 		.4byte	0xce
 8426 0c20 05       		.uleb128 0x5
 8427 0c21 03       		.byte	0x3
 8428 0c22 00000000 		.4byte	Set_Duty
 8429 0c26 1C       		.uleb128 0x1c
 8430 0c27 12010000 		.4byte	.LASF193
 8431 0c2b 07       		.byte	0x7
 8432 0c2c 79       		.byte	0x79
 8433 0c2d CE000000 		.4byte	0xce
 8434 0c31 05       		.uleb128 0x5
 8435 0c32 03       		.byte	0x3
 8436 0c33 00000000 		.4byte	Set_Duty_Temporary_Value
 8437 0c37 1C       		.uleb128 0x1c
 8438 0c38 C7070000 		.4byte	.LASF194
 8439 0c3c 07       		.byte	0x7
 8440 0c3d 7A       		.byte	0x7a
 8441 0c3e 09090000 		.4byte	0x909
 8442 0c42 05       		.uleb128 0x5
 8443 0c43 03       		.byte	0x3
 8444 0c44 00000000 		.4byte	cSet_Ampl
 8445 0c48 1C       		.uleb128 0x1c
 8446 0c49 A3040000 		.4byte	.LASF195
 8447 0c4d 07       		.byte	0x7
 8448 0c4e 7B       		.byte	0x7b
 8449 0c4f 09090000 		.4byte	0x909
 8450 0c53 05       		.uleb128 0x5
 8451 0c54 03       		.byte	0x3
 8452 0c55 00000000 		.4byte	cSet_Freq
 8453 0c59 1C       		.uleb128 0x1c
 8454 0c5a FD040000 		.4byte	.LASF196
 8455 0c5e 07       		.byte	0x7
 8456 0c5f 7C       		.byte	0x7c
 8457 0c60 09090000 		.4byte	0x909
 8458 0c64 05       		.uleb128 0x5
 8459 0c65 03       		.byte	0x3
 8460 0c66 00000000 		.4byte	cSet_Duty
 8461 0c6a 1C       		.uleb128 0x1c
 8462 0c6b C6040000 		.4byte	.LASF197
 8463 0c6f 07       		.byte	0x7
 8464 0c70 7E       		.byte	0x7e
 8465 0c71 AD000000 		.4byte	0xad
 8466 0c75 05       		.uleb128 0x5
 8467 0c76 03       		.byte	0x3
 8468 0c77 00000000 		.4byte	Current_Edit_Value
 8469 0c7b 1C       		.uleb128 0x1c
 8470 0c7c 3A0C0000 		.4byte	.LASF198
 8471 0c80 07       		.byte	0x7
 8472 0c81 7F       		.byte	0x7f
 8473 0c82 AD000000 		.4byte	0xad
 8474 0c86 05       		.uleb128 0x5
 8475 0c87 03       		.byte	0x3
 8476 0c88 00000000 		.4byte	Actual_Multiplier_Value
 8477 0c8c 1A       		.uleb128 0x1a
 8478 0c8d FD000000 		.4byte	0xfd
 8479 0c91 9C0C0000 		.4byte	0xc9c
 8480 0c95 1D       		.uleb128 0x1d
ARM GAS  C:\Users\KJA\AppData\Local\Temp\ccAyzU2h.s 			page 178


 8481 0c96 0F010000 		.4byte	0x10f
 8482 0c9a 1F       		.byte	0x1f
 8483 0c9b 00       		.byte	0
 8484 0c9c 1C       		.uleb128 0x1c
 8485 0c9d 45050000 		.4byte	.LASF199
 8486 0ca1 07       		.byte	0x7
 8487 0ca2 83       		.byte	0x83
 8488 0ca3 8C0C0000 		.4byte	0xc8c
 8489 0ca7 05       		.uleb128 0x5
 8490 0ca8 03       		.byte	0x3
 8491 0ca9 00000000 		.4byte	cCounter
 8492 0cad 1C       		.uleb128 0x1c
 8493 0cae A3070000 		.4byte	.LASF200
 8494 0cb2 08       		.byte	0x8
 8495 0cb3 0D       		.byte	0xd
 8496 0cb4 AD000000 		.4byte	0xad
 8497 0cb8 05       		.uleb128 0x5
 8498 0cb9 03       		.byte	0x3
 8499 0cba 00000000 		.4byte	deltaT
 8500 0cbe 1C       		.uleb128 0x1c
 8501 0cbf E90A0000 		.4byte	.LASF201
 8502 0cc3 08       		.byte	0x8
 8503 0cc4 0E       		.byte	0xe
 8504 0cc5 C3000000 		.4byte	0xc3
 8505 0cc9 05       		.uleb128 0x5
 8506 0cca 03       		.byte	0x3
 8507 0ccb 00000000 		.4byte	Avarage_FET_Temp
 8508 0ccf 1C       		.uleb128 0x1c
 8509 0cd0 B1030000 		.4byte	.LASF202
 8510 0cd4 08       		.byte	0x8
 8511 0cd5 0F       		.byte	0xf
 8512 0cd6 D9000000 		.4byte	0xd9
 8513 0cda 05       		.uleb128 0x5
 8514 0cdb 03       		.byte	0x3
 8515 0cdc 00000000 		.4byte	Current_DIE_Temp
 8516 0ce0 1C       		.uleb128 0x1c
 8517 0ce1 F40B0000 		.4byte	.LASF203
 8518 0ce5 08       		.byte	0x8
 8519 0ce6 10       		.byte	0x10
 8520 0ce7 3F070000 		.4byte	0x73f
 8521 0ceb 05       		.uleb128 0x5
 8522 0cec 03       		.byte	0x3
 8523 0ced 00000000 		.4byte	Current_DIE_TempString
 8524 0cf1 1C       		.uleb128 0x1c
 8525 0cf2 F3090000 		.4byte	.LASF204
 8526 0cf6 08       		.byte	0x8
 8527 0cf7 11       		.byte	0x11
 8528 0cf8 CE000000 		.4byte	0xce
 8529 0cfc 05       		.uleb128 0x5
 8530 0cfd 03       		.byte	0x3
 8531 0cfe 00000000 		.4byte	Current_FET_Temp
 8532 0d02 1C       		.uleb128 0x1c
 8533 0d03 32030000 		.4byte	.LASF205
 8534 0d07 08       		.byte	0x8
 8535 0d08 12       		.byte	0x12
 8536 0d09 3F070000 		.4byte	0x73f
 8537 0d0d 05       		.uleb128 0x5
ARM GAS  C:\Users\KJA\AppData\Local\Temp\ccAyzU2h.s 			page 179


 8538 0d0e 03       		.byte	0x3
 8539 0d0f 00000000 		.4byte	Current_FET_TempString
 8540 0d13 1C       		.uleb128 0x1c
 8541 0d14 81010000 		.4byte	.LASF206
 8542 0d18 01       		.byte	0x1
 8543 0d19 07       		.byte	0x7
 8544 0d1a AD000000 		.4byte	0xad
 8545 0d1e 05       		.uleb128 0x5
 8546 0d1f 03       		.byte	0x3
 8547 0d20 00000000 		.4byte	Temporary
 8548 0d24 1C       		.uleb128 0x1c
 8549 0d25 31070000 		.4byte	.LASF207
 8550 0d29 01       		.byte	0x1
 8551 0d2a 0B       		.byte	0xb
 8552 0d2b B8000000 		.4byte	0xb8
 8553 0d2f 05       		.uleb128 0x5
 8554 0d30 03       		.byte	0x3
 8555 0d31 00000000 		.4byte	DACValue
 8556 0d35 1C       		.uleb128 0x1c
 8557 0d36 0E030000 		.4byte	.LASF208
 8558 0d3a 01       		.byte	0x1
 8559 0d3b 0C       		.byte	0xc
 8560 0d3c D9000000 		.4byte	0xd9
 8561 0d40 05       		.uleb128 0x5
 8562 0d41 03       		.byte	0x3
 8563 0d42 00000000 		.4byte	Timer
 8564 0d46 1C       		.uleb128 0x1c
 8565 0d47 3A070000 		.4byte	.LASF209
 8566 0d4b 01       		.byte	0x1
 8567 0d4c 0E       		.byte	0xe
 8568 0d4d C3000000 		.4byte	0xc3
 8569 0d51 05       		.uleb128 0x5
 8570 0d52 03       		.byte	0x3
 8571 0d53 00000000 		.4byte	Loop_Counter
 8572 0d57 1C       		.uleb128 0x1c
 8573 0d58 B0010000 		.4byte	.LASF210
 8574 0d5c 01       		.byte	0x1
 8575 0d5d 11       		.byte	0x11
 8576 0d5e 7E000000 		.4byte	0x7e
 8577 0d62 05       		.uleb128 0x5
 8578 0d63 03       		.byte	0x3
 8579 0d64 00000000 		.4byte	Last_Counter
 8580 0d68 1C       		.uleb128 0x1c
 8581 0d69 56060000 		.4byte	.LASF211
 8582 0d6d 01       		.byte	0x1
 8583 0d6e 12       		.byte	0x12
 8584 0d6f 7E000000 		.4byte	0x7e
 8585 0d73 05       		.uleb128 0x5
 8586 0d74 03       		.byte	0x3
 8587 0d75 00000000 		.4byte	Current_Counter
 8588 0d79 1C       		.uleb128 0x1c
 8589 0d7a 130B0000 		.4byte	.LASF212
 8590 0d7e 01       		.byte	0x1
 8591 0d7f 16       		.byte	0x16
 8592 0d80 7E000000 		.4byte	0x7e
 8593 0d84 05       		.uleb128 0x5
 8594 0d85 03       		.byte	0x3
ARM GAS  C:\Users\KJA\AppData\Local\Temp\ccAyzU2h.s 			page 180


 8595 0d86 00000000 		.4byte	Testowy_Counter
 8596 0d8a 1C       		.uleb128 0x1c
 8597 0d8b A0080000 		.4byte	.LASF213
 8598 0d8f 01       		.byte	0x1
 8599 0d90 17       		.byte	0x17
 8600 0d91 09090000 		.4byte	0x909
 8601 0d95 05       		.uleb128 0x5
 8602 0d96 03       		.byte	0x3
 8603 0d97 00000000 		.4byte	cTestowy_Counter
 8604 0d9b 1C       		.uleb128 0x1c
 8605 0d9c 2D000000 		.4byte	.LASF214
 8606 0da0 01       		.byte	0x1
 8607 0da1 19       		.byte	0x19
 8608 0da2 EF000000 		.4byte	0xef
 8609 0da6 05       		.uleb128 0x5
 8610 0da7 03       		.byte	0x3
 8611 0da8 00000000 		.4byte	SredniaC
 8612 0dac 1E       		.uleb128 0x1e
 8613 0dad 64744300 		.ascii	"dtC\000"
 8614 0db1 01       		.byte	0x1
 8615 0db2 1A       		.byte	0x1a
 8616 0db3 AD000000 		.4byte	0xad
 8617 0db7 05       		.uleb128 0x5
 8618 0db8 03       		.byte	0x3
 8619 0db9 00000000 		.4byte	dtC
 8620 0dbd 1C       		.uleb128 0x1c
 8621 0dbe 4B000000 		.4byte	.LASF215
 8622 0dc2 01       		.byte	0x1
 8623 0dc3 1C       		.byte	0x1c
 8624 0dc4 EF000000 		.4byte	0xef
 8625 0dc8 05       		.uleb128 0x5
 8626 0dc9 03       		.byte	0x3
 8627 0dca 00000000 		.4byte	SredniaV
 8628 0dce 1E       		.uleb128 0x1e
 8629 0dcf 64745600 		.ascii	"dtV\000"
 8630 0dd3 01       		.byte	0x1
 8631 0dd4 1D       		.byte	0x1d
 8632 0dd5 AD000000 		.4byte	0xad
 8633 0dd9 05       		.uleb128 0x5
 8634 0dda 03       		.byte	0x3
 8635 0ddb 00000000 		.4byte	dtV
 8636 0ddf 1C       		.uleb128 0x1c
 8637 0de0 94020000 		.4byte	.LASF216
 8638 0de4 01       		.byte	0x1
 8639 0de5 1F       		.byte	0x1f
 8640 0de6 EF000000 		.4byte	0xef
 8641 0dea 05       		.uleb128 0x5
 8642 0deb 03       		.byte	0x3
 8643 0dec 00000000 		.4byte	SredniaP
 8644 0df0 1E       		.uleb128 0x1e
 8645 0df1 64745000 		.ascii	"dtP\000"
 8646 0df5 01       		.byte	0x1
 8647 0df6 20       		.byte	0x20
 8648 0df7 AD000000 		.4byte	0xad
 8649 0dfb 05       		.uleb128 0x5
 8650 0dfc 03       		.byte	0x3
 8651 0dfd 00000000 		.4byte	dtP
ARM GAS  C:\Users\KJA\AppData\Local\Temp\ccAyzU2h.s 			page 181


 8652 0e01 00       		.byte	0
 8653              		.section	.debug_abbrev,"",%progbits
 8654              	.Ldebug_abbrev0:
 8655 0000 01       		.uleb128 0x1
 8656 0001 11       		.uleb128 0x11
 8657 0002 01       		.byte	0x1
 8658 0003 25       		.uleb128 0x25
 8659 0004 0E       		.uleb128 0xe
 8660 0005 13       		.uleb128 0x13
 8661 0006 0B       		.uleb128 0xb
 8662 0007 03       		.uleb128 0x3
 8663 0008 0E       		.uleb128 0xe
 8664 0009 1B       		.uleb128 0x1b
 8665 000a 0E       		.uleb128 0xe
 8666 000b 55       		.uleb128 0x55
 8667 000c 17       		.uleb128 0x17
 8668 000d 11       		.uleb128 0x11
 8669 000e 01       		.uleb128 0x1
 8670 000f 10       		.uleb128 0x10
 8671 0010 17       		.uleb128 0x17
 8672 0011 00       		.byte	0
 8673 0012 00       		.byte	0
 8674 0013 02       		.uleb128 0x2
 8675 0014 16       		.uleb128 0x16
 8676 0015 00       		.byte	0
 8677 0016 03       		.uleb128 0x3
 8678 0017 0E       		.uleb128 0xe
 8679 0018 3A       		.uleb128 0x3a
 8680 0019 0B       		.uleb128 0xb
 8681 001a 3B       		.uleb128 0x3b
 8682 001b 0B       		.uleb128 0xb
 8683 001c 49       		.uleb128 0x49
 8684 001d 13       		.uleb128 0x13
 8685 001e 00       		.byte	0
 8686 001f 00       		.byte	0
 8687 0020 03       		.uleb128 0x3
 8688 0021 24       		.uleb128 0x24
 8689 0022 00       		.byte	0
 8690 0023 0B       		.uleb128 0xb
 8691 0024 0B       		.uleb128 0xb
 8692 0025 3E       		.uleb128 0x3e
 8693 0026 0B       		.uleb128 0xb
 8694 0027 03       		.uleb128 0x3
 8695 0028 0E       		.uleb128 0xe
 8696 0029 00       		.byte	0
 8697 002a 00       		.byte	0
 8698 002b 04       		.uleb128 0x4
 8699 002c 24       		.uleb128 0x24
 8700 002d 00       		.byte	0
 8701 002e 0B       		.uleb128 0xb
 8702 002f 0B       		.uleb128 0xb
 8703 0030 3E       		.uleb128 0x3e
 8704 0031 0B       		.uleb128 0xb
 8705 0032 03       		.uleb128 0x3
 8706 0033 08       		.uleb128 0x8
 8707 0034 00       		.byte	0
 8708 0035 00       		.byte	0
ARM GAS  C:\Users\KJA\AppData\Local\Temp\ccAyzU2h.s 			page 182


 8709 0036 05       		.uleb128 0x5
 8710 0037 0F       		.uleb128 0xf
 8711 0038 00       		.byte	0
 8712 0039 0B       		.uleb128 0xb
 8713 003a 0B       		.uleb128 0xb
 8714 003b 00       		.byte	0
 8715 003c 00       		.byte	0
 8716 003d 06       		.uleb128 0x6
 8717 003e 13       		.uleb128 0x13
 8718 003f 01       		.byte	0x1
 8719 0040 03       		.uleb128 0x3
 8720 0041 0E       		.uleb128 0xe
 8721 0042 0B       		.uleb128 0xb
 8722 0043 0B       		.uleb128 0xb
 8723 0044 3A       		.uleb128 0x3a
 8724 0045 0B       		.uleb128 0xb
 8725 0046 3B       		.uleb128 0x3b
 8726 0047 05       		.uleb128 0x5
 8727 0048 01       		.uleb128 0x1
 8728 0049 13       		.uleb128 0x13
 8729 004a 00       		.byte	0
 8730 004b 00       		.byte	0
 8731 004c 07       		.uleb128 0x7
 8732 004d 0D       		.uleb128 0xd
 8733 004e 00       		.byte	0
 8734 004f 03       		.uleb128 0x3
 8735 0050 0E       		.uleb128 0xe
 8736 0051 3A       		.uleb128 0x3a
 8737 0052 0B       		.uleb128 0xb
 8738 0053 3B       		.uleb128 0x3b
 8739 0054 05       		.uleb128 0x5
 8740 0055 49       		.uleb128 0x49
 8741 0056 13       		.uleb128 0x13
 8742 0057 38       		.uleb128 0x38
 8743 0058 0B       		.uleb128 0xb
 8744 0059 00       		.byte	0
 8745 005a 00       		.byte	0
 8746 005b 08       		.uleb128 0x8
 8747 005c 0D       		.uleb128 0xd
 8748 005d 00       		.byte	0
 8749 005e 03       		.uleb128 0x3
 8750 005f 08       		.uleb128 0x8
 8751 0060 3A       		.uleb128 0x3a
 8752 0061 0B       		.uleb128 0xb
 8753 0062 3B       		.uleb128 0x3b
 8754 0063 05       		.uleb128 0x5
 8755 0064 49       		.uleb128 0x49
 8756 0065 13       		.uleb128 0x13
 8757 0066 38       		.uleb128 0x38
 8758 0067 0B       		.uleb128 0xb
 8759 0068 00       		.byte	0
 8760 0069 00       		.byte	0
 8761 006a 09       		.uleb128 0x9
 8762 006b 13       		.uleb128 0x13
 8763 006c 01       		.byte	0x1
 8764 006d 03       		.uleb128 0x3
 8765 006e 0E       		.uleb128 0xe
ARM GAS  C:\Users\KJA\AppData\Local\Temp\ccAyzU2h.s 			page 183


 8766 006f 0B       		.uleb128 0xb
 8767 0070 0B       		.uleb128 0xb
 8768 0071 3A       		.uleb128 0x3a
 8769 0072 0B       		.uleb128 0xb
 8770 0073 3B       		.uleb128 0x3b
 8771 0074 0B       		.uleb128 0xb
 8772 0075 01       		.uleb128 0x1
 8773 0076 13       		.uleb128 0x13
 8774 0077 00       		.byte	0
 8775 0078 00       		.byte	0
 8776 0079 0A       		.uleb128 0xa
 8777 007a 0D       		.uleb128 0xd
 8778 007b 00       		.byte	0
 8779 007c 03       		.uleb128 0x3
 8780 007d 0E       		.uleb128 0xe
 8781 007e 3A       		.uleb128 0x3a
 8782 007f 0B       		.uleb128 0xb
 8783 0080 3B       		.uleb128 0x3b
 8784 0081 0B       		.uleb128 0xb
 8785 0082 49       		.uleb128 0x49
 8786 0083 13       		.uleb128 0x13
 8787 0084 38       		.uleb128 0x38
 8788 0085 0B       		.uleb128 0xb
 8789 0086 00       		.byte	0
 8790 0087 00       		.byte	0
 8791 0088 0B       		.uleb128 0xb
 8792 0089 0F       		.uleb128 0xf
 8793 008a 00       		.byte	0
 8794 008b 0B       		.uleb128 0xb
 8795 008c 0B       		.uleb128 0xb
 8796 008d 49       		.uleb128 0x49
 8797 008e 13       		.uleb128 0x13
 8798 008f 00       		.byte	0
 8799 0090 00       		.byte	0
 8800 0091 0C       		.uleb128 0xc
 8801 0092 15       		.uleb128 0x15
 8802 0093 01       		.byte	0x1
 8803 0094 27       		.uleb128 0x27
 8804 0095 19       		.uleb128 0x19
 8805 0096 49       		.uleb128 0x49
 8806 0097 13       		.uleb128 0x13
 8807 0098 01       		.uleb128 0x1
 8808 0099 13       		.uleb128 0x13
 8809 009a 00       		.byte	0
 8810 009b 00       		.byte	0
 8811 009c 0D       		.uleb128 0xd
 8812 009d 05       		.uleb128 0x5
 8813 009e 00       		.byte	0
 8814 009f 49       		.uleb128 0x49
 8815 00a0 13       		.uleb128 0x13
 8816 00a1 00       		.byte	0
 8817 00a2 00       		.byte	0
 8818 00a3 0E       		.uleb128 0xe
 8819 00a4 16       		.uleb128 0x16
 8820 00a5 00       		.byte	0
 8821 00a6 03       		.uleb128 0x3
 8822 00a7 0E       		.uleb128 0xe
ARM GAS  C:\Users\KJA\AppData\Local\Temp\ccAyzU2h.s 			page 184


 8823 00a8 3A       		.uleb128 0x3a
 8824 00a9 0B       		.uleb128 0xb
 8825 00aa 3B       		.uleb128 0x3b
 8826 00ab 05       		.uleb128 0x5
 8827 00ac 49       		.uleb128 0x49
 8828 00ad 13       		.uleb128 0x13
 8829 00ae 00       		.byte	0
 8830 00af 00       		.byte	0
 8831 00b0 0F       		.uleb128 0xf
 8832 00b1 15       		.uleb128 0x15
 8833 00b2 01       		.byte	0x1
 8834 00b3 27       		.uleb128 0x27
 8835 00b4 19       		.uleb128 0x19
 8836 00b5 01       		.uleb128 0x1
 8837 00b6 13       		.uleb128 0x13
 8838 00b7 00       		.byte	0
 8839 00b8 00       		.byte	0
 8840 00b9 10       		.uleb128 0x10
 8841 00ba 26       		.uleb128 0x26
 8842 00bb 00       		.byte	0
 8843 00bc 49       		.uleb128 0x49
 8844 00bd 13       		.uleb128 0x13
 8845 00be 00       		.byte	0
 8846 00bf 00       		.byte	0
 8847 00c0 11       		.uleb128 0x11
 8848 00c1 04       		.uleb128 0x4
 8849 00c2 01       		.byte	0x1
 8850 00c3 03       		.uleb128 0x3
 8851 00c4 0E       		.uleb128 0xe
 8852 00c5 0B       		.uleb128 0xb
 8853 00c6 0B       		.uleb128 0xb
 8854 00c7 3A       		.uleb128 0x3a
 8855 00c8 0B       		.uleb128 0xb
 8856 00c9 3B       		.uleb128 0x3b
 8857 00ca 0B       		.uleb128 0xb
 8858 00cb 01       		.uleb128 0x1
 8859 00cc 13       		.uleb128 0x13
 8860 00cd 00       		.byte	0
 8861 00ce 00       		.byte	0
 8862 00cf 12       		.uleb128 0x12
 8863 00d0 28       		.uleb128 0x28
 8864 00d1 00       		.byte	0
 8865 00d2 03       		.uleb128 0x3
 8866 00d3 0E       		.uleb128 0xe
 8867 00d4 1C       		.uleb128 0x1c
 8868 00d5 0D       		.uleb128 0xd
 8869 00d6 00       		.byte	0
 8870 00d7 00       		.byte	0
 8871 00d8 13       		.uleb128 0x13
 8872 00d9 2E       		.uleb128 0x2e
 8873 00da 00       		.byte	0
 8874 00db 3F       		.uleb128 0x3f
 8875 00dc 19       		.uleb128 0x19
 8876 00dd 03       		.uleb128 0x3
 8877 00de 0E       		.uleb128 0xe
 8878 00df 3A       		.uleb128 0x3a
 8879 00e0 0B       		.uleb128 0xb
ARM GAS  C:\Users\KJA\AppData\Local\Temp\ccAyzU2h.s 			page 185


 8880 00e1 3B       		.uleb128 0x3b
 8881 00e2 0B       		.uleb128 0xb
 8882 00e3 11       		.uleb128 0x11
 8883 00e4 01       		.uleb128 0x1
 8884 00e5 12       		.uleb128 0x12
 8885 00e6 06       		.uleb128 0x6
 8886 00e7 40       		.uleb128 0x40
 8887 00e8 18       		.uleb128 0x18
 8888 00e9 9642     		.uleb128 0x2116
 8889 00eb 19       		.uleb128 0x19
 8890 00ec 00       		.byte	0
 8891 00ed 00       		.byte	0
 8892 00ee 14       		.uleb128 0x14
 8893 00ef 2E       		.uleb128 0x2e
 8894 00f0 00       		.byte	0
 8895 00f1 3F       		.uleb128 0x3f
 8896 00f2 19       		.uleb128 0x19
 8897 00f3 03       		.uleb128 0x3
 8898 00f4 0E       		.uleb128 0xe
 8899 00f5 3A       		.uleb128 0x3a
 8900 00f6 0B       		.uleb128 0xb
 8901 00f7 3B       		.uleb128 0x3b
 8902 00f8 05       		.uleb128 0x5
 8903 00f9 11       		.uleb128 0x11
 8904 00fa 01       		.uleb128 0x1
 8905 00fb 12       		.uleb128 0x12
 8906 00fc 06       		.uleb128 0x6
 8907 00fd 40       		.uleb128 0x40
 8908 00fe 18       		.uleb128 0x18
 8909 00ff 9642     		.uleb128 0x2116
 8910 0101 19       		.uleb128 0x19
 8911 0102 00       		.byte	0
 8912 0103 00       		.byte	0
 8913 0104 15       		.uleb128 0x15
 8914 0105 2E       		.uleb128 0x2e
 8915 0106 01       		.byte	0x1
 8916 0107 3F       		.uleb128 0x3f
 8917 0108 19       		.uleb128 0x19
 8918 0109 03       		.uleb128 0x3
 8919 010a 0E       		.uleb128 0xe
 8920 010b 3A       		.uleb128 0x3a
 8921 010c 0B       		.uleb128 0xb
 8922 010d 3B       		.uleb128 0x3b
 8923 010e 05       		.uleb128 0x5
 8924 010f 11       		.uleb128 0x11
 8925 0110 01       		.uleb128 0x1
 8926 0111 12       		.uleb128 0x12
 8927 0112 06       		.uleb128 0x6
 8928 0113 40       		.uleb128 0x40
 8929 0114 18       		.uleb128 0x18
 8930 0115 9642     		.uleb128 0x2116
 8931 0117 19       		.uleb128 0x19
 8932 0118 01       		.uleb128 0x1
 8933 0119 13       		.uleb128 0x13
 8934 011a 00       		.byte	0
 8935 011b 00       		.byte	0
 8936 011c 16       		.uleb128 0x16
ARM GAS  C:\Users\KJA\AppData\Local\Temp\ccAyzU2h.s 			page 186


 8937 011d 34       		.uleb128 0x34
 8938 011e 00       		.byte	0
 8939 011f 03       		.uleb128 0x3
 8940 0120 0E       		.uleb128 0xe
 8941 0121 3A       		.uleb128 0x3a
 8942 0122 0B       		.uleb128 0xb
 8943 0123 3B       		.uleb128 0x3b
 8944 0124 05       		.uleb128 0x5
 8945 0125 49       		.uleb128 0x49
 8946 0126 13       		.uleb128 0x13
 8947 0127 02       		.uleb128 0x2
 8948 0128 18       		.uleb128 0x18
 8949 0129 00       		.byte	0
 8950 012a 00       		.byte	0
 8951 012b 17       		.uleb128 0x17
 8952 012c 0B       		.uleb128 0xb
 8953 012d 01       		.byte	0x1
 8954 012e 11       		.uleb128 0x11
 8955 012f 01       		.uleb128 0x1
 8956 0130 12       		.uleb128 0x12
 8957 0131 06       		.uleb128 0x6
 8958 0132 00       		.byte	0
 8959 0133 00       		.byte	0
 8960 0134 18       		.uleb128 0x18
 8961 0135 34       		.uleb128 0x34
 8962 0136 00       		.byte	0
 8963 0137 03       		.uleb128 0x3
 8964 0138 0E       		.uleb128 0xe
 8965 0139 3A       		.uleb128 0x3a
 8966 013a 0B       		.uleb128 0xb
 8967 013b 3B       		.uleb128 0x3b
 8968 013c 05       		.uleb128 0x5
 8969 013d 49       		.uleb128 0x49
 8970 013e 13       		.uleb128 0x13
 8971 013f 3F       		.uleb128 0x3f
 8972 0140 19       		.uleb128 0x19
 8973 0141 3C       		.uleb128 0x3c
 8974 0142 19       		.uleb128 0x19
 8975 0143 00       		.byte	0
 8976 0144 00       		.byte	0
 8977 0145 19       		.uleb128 0x19
 8978 0146 35       		.uleb128 0x35
 8979 0147 00       		.byte	0
 8980 0148 49       		.uleb128 0x49
 8981 0149 13       		.uleb128 0x13
 8982 014a 00       		.byte	0
 8983 014b 00       		.byte	0
 8984 014c 1A       		.uleb128 0x1a
 8985 014d 01       		.uleb128 0x1
 8986 014e 01       		.byte	0x1
 8987 014f 49       		.uleb128 0x49
 8988 0150 13       		.uleb128 0x13
 8989 0151 01       		.uleb128 0x1
 8990 0152 13       		.uleb128 0x13
 8991 0153 00       		.byte	0
 8992 0154 00       		.byte	0
 8993 0155 1B       		.uleb128 0x1b
ARM GAS  C:\Users\KJA\AppData\Local\Temp\ccAyzU2h.s 			page 187


 8994 0156 21       		.uleb128 0x21
 8995 0157 00       		.byte	0
 8996 0158 00       		.byte	0
 8997 0159 00       		.byte	0
 8998 015a 1C       		.uleb128 0x1c
 8999 015b 34       		.uleb128 0x34
 9000 015c 00       		.byte	0
 9001 015d 03       		.uleb128 0x3
 9002 015e 0E       		.uleb128 0xe
 9003 015f 3A       		.uleb128 0x3a
 9004 0160 0B       		.uleb128 0xb
 9005 0161 3B       		.uleb128 0x3b
 9006 0162 0B       		.uleb128 0xb
 9007 0163 49       		.uleb128 0x49
 9008 0164 13       		.uleb128 0x13
 9009 0165 3F       		.uleb128 0x3f
 9010 0166 19       		.uleb128 0x19
 9011 0167 02       		.uleb128 0x2
 9012 0168 18       		.uleb128 0x18
 9013 0169 00       		.byte	0
 9014 016a 00       		.byte	0
 9015 016b 1D       		.uleb128 0x1d
 9016 016c 21       		.uleb128 0x21
 9017 016d 00       		.byte	0
 9018 016e 49       		.uleb128 0x49
 9019 016f 13       		.uleb128 0x13
 9020 0170 2F       		.uleb128 0x2f
 9021 0171 0B       		.uleb128 0xb
 9022 0172 00       		.byte	0
 9023 0173 00       		.byte	0
 9024 0174 1E       		.uleb128 0x1e
 9025 0175 34       		.uleb128 0x34
 9026 0176 00       		.byte	0
 9027 0177 03       		.uleb128 0x3
 9028 0178 08       		.uleb128 0x8
 9029 0179 3A       		.uleb128 0x3a
 9030 017a 0B       		.uleb128 0xb
 9031 017b 3B       		.uleb128 0x3b
 9032 017c 0B       		.uleb128 0xb
 9033 017d 49       		.uleb128 0x49
 9034 017e 13       		.uleb128 0x13
 9035 017f 3F       		.uleb128 0x3f
 9036 0180 19       		.uleb128 0x19
 9037 0181 02       		.uleb128 0x2
 9038 0182 18       		.uleb128 0x18
 9039 0183 00       		.byte	0
 9040 0184 00       		.byte	0
 9041 0185 00       		.byte	0
 9042              		.section	.debug_aranges,"",%progbits
 9043 0000 AC000000 		.4byte	0xac
 9044 0004 0200     		.2byte	0x2
 9045 0006 00000000 		.4byte	.Ldebug_info0
 9046 000a 04       		.byte	0x4
 9047 000b 00       		.byte	0
 9048 000c 0000     		.2byte	0
 9049 000e 0000     		.2byte	0
 9050 0010 00000000 		.4byte	.LFB63
ARM GAS  C:\Users\KJA\AppData\Local\Temp\ccAyzU2h.s 			page 188


 9051 0014 78010000 		.4byte	.LFE63-.LFB63
 9052 0018 00000000 		.4byte	.LFB64
 9053 001c A0000000 		.4byte	.LFE64-.LFB64
 9054 0020 00000000 		.4byte	.LFB65
 9055 0024 A0000000 		.4byte	.LFE65-.LFB65
 9056 0028 00000000 		.4byte	.LFB66
 9057 002c A0000000 		.4byte	.LFE66-.LFB66
 9058 0030 00000000 		.4byte	.LFB67
 9059 0034 AC000000 		.4byte	.LFE67-.LFB67
 9060 0038 00000000 		.4byte	.LFB68
 9061 003c A0000000 		.4byte	.LFE68-.LFB68
 9062 0040 00000000 		.4byte	.LFB69
 9063 0044 C0000000 		.4byte	.LFE69-.LFB69
 9064 0048 00000000 		.4byte	.LFB70
 9065 004c 74010000 		.4byte	.LFE70-.LFB70
 9066 0050 00000000 		.4byte	.LFB71
 9067 0054 10010000 		.4byte	.LFE71-.LFB71
 9068 0058 00000000 		.4byte	.LFB72
 9069 005c 7C000000 		.4byte	.LFE72-.LFB72
 9070 0060 00000000 		.4byte	.LFB73
 9071 0064 0C0A0000 		.4byte	.LFE73-.LFB73
 9072 0068 00000000 		.4byte	.LFB74
 9073 006c 40000000 		.4byte	.LFE74-.LFB74
 9074 0070 00000000 		.4byte	.LFB75
 9075 0074 F8080000 		.4byte	.LFE75-.LFB75
 9076 0078 00000000 		.4byte	.LFB76
 9077 007c 20080000 		.4byte	.LFE76-.LFB76
 9078 0080 00000000 		.4byte	.LFB77
 9079 0084 1C090000 		.4byte	.LFE77-.LFB77
 9080 0088 00000000 		.4byte	.LFB78
 9081 008c 20010000 		.4byte	.LFE78-.LFB78
 9082 0090 00000000 		.4byte	.LFB79
 9083 0094 8C000000 		.4byte	.LFE79-.LFB79
 9084 0098 00000000 		.4byte	.LFB80
 9085 009c 8C000000 		.4byte	.LFE80-.LFB80
 9086 00a0 00000000 		.4byte	.LFB81
 9087 00a4 80000000 		.4byte	.LFE81-.LFB81
 9088 00a8 00000000 		.4byte	0
 9089 00ac 00000000 		.4byte	0
 9090              		.section	.debug_ranges,"",%progbits
 9091              	.Ldebug_ranges0:
 9092 0000 00000000 		.4byte	.LFB63
 9093 0004 78010000 		.4byte	.LFE63
 9094 0008 00000000 		.4byte	.LFB64
 9095 000c A0000000 		.4byte	.LFE64
 9096 0010 00000000 		.4byte	.LFB65
 9097 0014 A0000000 		.4byte	.LFE65
 9098 0018 00000000 		.4byte	.LFB66
 9099 001c A0000000 		.4byte	.LFE66
 9100 0020 00000000 		.4byte	.LFB67
 9101 0024 AC000000 		.4byte	.LFE67
 9102 0028 00000000 		.4byte	.LFB68
 9103 002c A0000000 		.4byte	.LFE68
 9104 0030 00000000 		.4byte	.LFB69
 9105 0034 C0000000 		.4byte	.LFE69
 9106 0038 00000000 		.4byte	.LFB70
 9107 003c 74010000 		.4byte	.LFE70
ARM GAS  C:\Users\KJA\AppData\Local\Temp\ccAyzU2h.s 			page 189


 9108 0040 00000000 		.4byte	.LFB71
 9109 0044 10010000 		.4byte	.LFE71
 9110 0048 00000000 		.4byte	.LFB72
 9111 004c 7C000000 		.4byte	.LFE72
 9112 0050 00000000 		.4byte	.LFB73
 9113 0054 0C0A0000 		.4byte	.LFE73
 9114 0058 00000000 		.4byte	.LFB74
 9115 005c 40000000 		.4byte	.LFE74
 9116 0060 00000000 		.4byte	.LFB75
 9117 0064 F8080000 		.4byte	.LFE75
 9118 0068 00000000 		.4byte	.LFB76
 9119 006c 20080000 		.4byte	.LFE76
 9120 0070 00000000 		.4byte	.LFB77
 9121 0074 1C090000 		.4byte	.LFE77
 9122 0078 00000000 		.4byte	.LFB78
 9123 007c 20010000 		.4byte	.LFE78
 9124 0080 00000000 		.4byte	.LFB79
 9125 0084 8C000000 		.4byte	.LFE79
 9126 0088 00000000 		.4byte	.LFB80
 9127 008c 8C000000 		.4byte	.LFE80
 9128 0090 00000000 		.4byte	.LFB81
 9129 0094 80000000 		.4byte	.LFE81
 9130 0098 00000000 		.4byte	0
 9131 009c 00000000 		.4byte	0
 9132              		.section	.debug_line,"",%progbits
 9133              	.Ldebug_line0:
 9134 0000 8E070000 		.section	.debug_str,"MS",%progbits,1
 9134      02008001 
 9134      00000201 
 9134      FB0E0D00 
 9134      01010101 
 9135              	.LASF26:
 9136 0000 7538675F 		.ascii	"u8g_pgm_uint8_t\000"
 9136      70676D5F 
 9136      75696E74 
 9136      385F7400 
 9137              	.LASF155:
 9138 0010 63526573 		.ascii	"cResist_Set\000"
 9138      6973745F 
 9138      53657400 
 9139              	.LASF87:
 9140 001c 4572726F 		.ascii	"Error_NC\000"
 9140      725F4E43 
 9140      00
 9141              	.LASF58:
 9142 0025 6465765F 		.ascii	"dev_mem\000"
 9142      6D656D00 
 9143              	.LASF214:
 9144 002d 53726564 		.ascii	"SredniaC\000"
 9144      6E696143 
 9144      00
 9145              	.LASF147:
 9146 0036 45646974 		.ascii	"Edit_Value_Mode\000"
 9146      5F56616C 
 9146      75655F4D 
 9146      6F646500 
 9147              	.LASF184:
ARM GAS  C:\Users\KJA\AppData\Local\Temp\ccAyzU2h.s 			page 190


 9148 0046 435F4B69 		.ascii	"C_Ki\000"
 9148      00
 9149              	.LASF215:
 9150 004b 53726564 		.ascii	"SredniaV\000"
 9150      6E696156 
 9150      00
 9151              	.LASF47:
 9152 0054 666F6E74 		.ascii	"font_ref_ascent\000"
 9152      5F726566 
 9152      5F617363 
 9152      656E7400 
 9153              	.LASF166:
 9154 0064 506F7765 		.ascii	"Power\000"
 9154      7200
 9155              	.LASF175:
 9156 006a 5365745F 		.ascii	"Set_Resist\000"
 9156      52657369 
 9156      737400
 9157              	.LASF126:
 9158 0075 43757272 		.ascii	"Current_Calibration_Range1\000"
 9158      656E745F 
 9158      43616C69 
 9158      62726174 
 9158      696F6E5F 
 9159              	.LASF127:
 9160 0090 43757272 		.ascii	"Current_Calibration_Range2\000"
 9160      656E745F 
 9160      43616C69 
 9160      62726174 
 9160      696F6E5F 
 9161              	.LASF128:
 9162 00ab 43757272 		.ascii	"Current_Calibration_Range3\000"
 9162      656E745F 
 9162      43616C69 
 9162      62726174 
 9162      696F6E5F 
 9163              	.LASF165:
 9164 00c6 66437572 		.ascii	"fCurrent\000"
 9164      72656E74 
 9164      00
 9165              	.LASF106:
 9166 00cf 53746174 		.ascii	"State_Machine_External_Drive\000"
 9166      655F4D61 
 9166      6368696E 
 9166      655F4578 
 9166      7465726E 
 9167              	.LASF11:
 9168 00ec 756E7369 		.ascii	"unsigned int\000"
 9168      676E6564 
 9168      20696E74 
 9168      00
 9169              	.LASF64:
 9170 00f9 68695F63 		.ascii	"hi_color\000"
 9170      6F6C6F72 
 9170      00
 9171              	.LASF148:
 9172 0102 63566F6C 		.ascii	"cVoltage_Actual\000"
ARM GAS  C:\Users\KJA\AppData\Local\Temp\ccAyzU2h.s 			page 191


 9172      74616765 
 9172      5F416374 
 9172      75616C00 
 9173              	.LASF193:
 9174 0112 5365745F 		.ascii	"Set_Duty_Temporary_Value\000"
 9174      44757479 
 9174      5F54656D 
 9174      706F7261 
 9174      72795F56 
 9175              	.LASF89:
 9176 012b 4572726F 		.ascii	"Error_OC\000"
 9176      725F4F43 
 9176      00
 9177              	.LASF6:
 9178 0134 5F5F696E 		.ascii	"__int32_t\000"
 9178      7433325F 
 9178      7400
 9179              	.LASF19:
 9180 013e 696E7431 		.ascii	"int16\000"
 9180      3600
 9181              	.LASF129:
 9182 0144 4C454D5F 		.ascii	"LEM_Offset_Value\000"
 9182      4F666673 
 9182      65745F56 
 9182      616C7565 
 9182      00
 9183              	.LASF88:
 9184 0155 4572726F 		.ascii	"Error_OT\000"
 9184      725F4F54 
 9184      00
 9185              	.LASF86:
 9186 015e 4572726F 		.ascii	"Error_OV\000"
 9186      725F4F56 
 9186      00
 9187              	.LASF34:
 9188 0167 63757273 		.ascii	"cursor_bg_color\000"
 9188      6F725F62 
 9188      675F636F 
 9188      6C6F7200 
 9189              	.LASF51:
 9190 0177 6172675F 		.ascii	"arg_pixel\000"
 9190      70697865 
 9190      6C00
 9191              	.LASF206:
 9192 0181 54656D70 		.ascii	"Temporary\000"
 9192      6F726172 
 9192      7900
 9193              	.LASF191:
 9194 018b 5365745F 		.ascii	"Set_Freq_Temporary_Value\000"
 9194      46726571 
 9194      5F54656D 
 9194      706F7261 
 9194      72795F56 
 9195              	.LASF65:
 9196 01a4 626C7565 		.ascii	"blue\000"
 9196      00
 9197              	.LASF59:
ARM GAS  C:\Users\KJA\AppData\Local\Temp\ccAyzU2h.s 			page 192


 9198 01a9 636F6D5F 		.ascii	"com_fn\000"
 9198      666E00
 9199              	.LASF210:
 9200 01b0 4C617374 		.ascii	"Last_Counter\000"
 9200      5F436F75 
 9200      6E746572 
 9200      00
 9201              	.LASF118:
 9202 01bd 43757272 		.ascii	"Current_State\000"
 9202      656E745F 
 9202      53746174 
 9202      6500
 9203              	.LASF120:
 9204 01cb 536F756E 		.ascii	"Sound_Enable\000"
 9204      645F456E 
 9204      61626C65 
 9204      00
 9205              	.LASF149:
 9206 01d8 63437572 		.ascii	"cCurrent_Actual\000"
 9206      72656E74 
 9206      5F416374 
 9206      75616C00 
 9207              	.LASF153:
 9208 01e8 63437572 		.ascii	"cCurrent_Set\000"
 9208      72656E74 
 9208      5F536574 
 9208      00
 9209              	.LASF220:
 9210 01f5 53746174 		.ascii	"State\000"
 9210      6500
 9211              	.LASF36:
 9212 01fb 6D6F6465 		.ascii	"mode\000"
 9212      00
 9213              	.LASF45:
 9214 0200 666F6E74 		.ascii	"font_calc_vref\000"
 9214      5F63616C 
 9214      635F7672 
 9214      656600
 9215              	.LASF123:
 9216 020f 43757272 		.ascii	"CurrentBacklightValueString\000"
 9216      656E7442 
 9216      61636B6C 
 9216      69676874 
 9216      56616C75 
 9217              	.LASF136:
 9218 022b 4C617374 		.ascii	"Last_qdCount\000"
 9218      5F716443 
 9218      6F756E74 
 9218      00
 9219              	.LASF77:
 9220 0238 41726269 		.ascii	"ArbitraryMode\000"
 9220      74726172 
 9220      794D6F64 
 9220      6500
 9221              	.LASF219:
 9222 0246 443A5C57 		.ascii	"D:\\Workspace\\PSoC_Creator\\Active_Load\\Active_Lo"
 9222      6F726B73 
ARM GAS  C:\Users\KJA\AppData\Local\Temp\ccAyzU2h.s 			page 193


 9222      70616365 
 9222      5C50536F 
 9222      435F4372 
 9223 0275 61645F76 		.ascii	"ad_v9.cydsn\000"
 9223      392E6379 
 9223      64736E00 
 9224              	.LASF134:
 9225 0281 56696577 		.ascii	"View_Mode\000"
 9225      5F4D6F64 
 9225      6500
 9226              	.LASF188:
 9227 028b 5365745F 		.ascii	"Set_Ampl\000"
 9227      416D706C 
 9227      00
 9228              	.LASF216:
 9229 0294 53726564 		.ascii	"SredniaP\000"
 9229      6E696150 
 9229      00
 9230              	.LASF12:
 9231 029d 696E7438 		.ascii	"int8_t\000"
 9231      5F7400
 9232              	.LASF152:
 9233 02a4 63566F6C 		.ascii	"cVoltage_Set\000"
 9233      74616765 
 9233      5F536574 
 9233      00
 9234              	.LASF61:
 9235 02b1 5F753867 		.ascii	"_u8g_dev_arg_pixel_t\000"
 9235      5F646576 
 9235      5F617267 
 9235      5F706978 
 9235      656C5F74 
 9236              	.LASF124:
 9237 02c6 43757272 		.ascii	"CurrentVolumeValue\000"
 9237      656E7456 
 9237      6F6C756D 
 9237      6556616C 
 9237      756500
 9238              	.LASF21:
 9239 02d9 666C6F61 		.ascii	"float\000"
 9239      7400
 9240              	.LASF154:
 9241 02df 63506F77 		.ascii	"cPower_Set\000"
 9241      65725F53 
 9241      657400
 9242              	.LASF111:
 9243 02ea 4D696E53 		.ascii	"MinSetValue\000"
 9243      65745661 
 9243      6C756500 
 9244              	.LASF20:
 9245 02f6 696E7433 		.ascii	"int32\000"
 9245      3200
 9246              	.LASF37:
 9247 02fc 63757273 		.ascii	"cursor_x\000"
 9247      6F725F78 
 9247      00
 9248              	.LASF38:
ARM GAS  C:\Users\KJA\AppData\Local\Temp\ccAyzU2h.s 			page 194


 9249 0305 63757273 		.ascii	"cursor_y\000"
 9249      6F725F79 
 9249      00
 9250              	.LASF208:
 9251 030e 54696D65 		.ascii	"Timer\000"
 9251      7200
 9252              	.LASF157:
 9253 0314 58506F73 		.ascii	"XPosition\000"
 9253      6974696F 
 9253      6E00
 9254              	.LASF143:
 9255 031e 70757368 		.ascii	"push\000"
 9255      00
 9256              	.LASF119:
 9257 0323 50726576 		.ascii	"Previous_State\000"
 9257      696F7573 
 9257      5F537461 
 9257      746500
 9258              	.LASF205:
 9259 0332 43757272 		.ascii	"Current_FET_TempString\000"
 9259      656E745F 
 9259      4645545F 
 9259      54656D70 
 9259      53747269 
 9260              	.LASF10:
 9261 0349 6C6F6E67 		.ascii	"long long unsigned int\000"
 9261      206C6F6E 
 9261      6720756E 
 9261      7369676E 
 9261      65642069 
 9262              	.LASF163:
 9263 0360 66566F6C 		.ascii	"fVoltage\000"
 9263      74616765 
 9263      00
 9264              	.LASF176:
 9265 0369 5365745F 		.ascii	"Set_Resist_Temporary_Value\000"
 9265      52657369 
 9265      73745F54 
 9265      656D706F 
 9265      72617279 
 9266              	.LASF113:
 9267 0384 53746174 		.ascii	"State_Machine_BacklightSetting\000"
 9267      655F4D61 
 9267      6368696E 
 9267      655F4261 
 9267      636B6C69 
 9268              	.LASF69:
 9269 03a3 7538675F 		.ascii	"u8g_dev_fnptr\000"
 9269      6465765F 
 9269      666E7074 
 9269      7200
 9270              	.LASF202:
 9271 03b1 43757272 		.ascii	"Current_DIE_Temp\000"
 9271      656E745F 
 9271      4449455F 
 9271      54656D70 
 9271      00
ARM GAS  C:\Users\KJA\AppData\Local\Temp\ccAyzU2h.s 			page 195


 9272              	.LASF70:
 9273 03c2 7538675F 		.ascii	"u8g_com_fnptr\000"
 9273      636F6D5F 
 9273      666E7074 
 9273      7200
 9274              	.LASF84:
 9275 03d0 436F6E73 		.ascii	"ConstantResistance\000"
 9275      74616E74 
 9275      52657369 
 9275      7374616E 
 9275      636500
 9276              	.LASF103:
 9277 03e3 4D617853 		.ascii	"MaxSetValue\000"
 9277      65745661 
 9277      6C756500 
 9278              	.LASF107:
 9279 03ef 53746174 		.ascii	"State_Machine_PWM_Mode\000"
 9279      655F4D61 
 9279      6368696E 
 9279      655F5057 
 9279      4D5F4D6F 
 9280              	.LASF85:
 9281 0406 4572726F 		.ascii	"Error_RP\000"
 9281      725F5250 
 9281      00
 9282              	.LASF151:
 9283 040f 63526573 		.ascii	"cResist_Actual\000"
 9283      6973745F 
 9283      41637475 
 9283      616C00
 9284              	.LASF102:
 9285 041e 53746174 		.ascii	"State_Machine_WaveForm_Mode\000"
 9285      655F4D61 
 9285      6368696E 
 9285      655F5761 
 9285      7665466F 
 9286              	.LASF178:
 9287 043a 4D617850 		.ascii	"MaxPower\000"
 9287      6F776572 
 9287      00
 9288              	.LASF44:
 9289 0443 676C7970 		.ascii	"glyph_height\000"
 9289      685F6865 
 9289      69676874 
 9289      00
 9290              	.LASF29:
 9291 0450 77696474 		.ascii	"width\000"
 9291      6800
 9292              	.LASF150:
 9293 0456 63506F77 		.ascii	"cPower_Actual\000"
 9293      65725F41 
 9293      63747561 
 9293      6C00
 9294              	.LASF174:
 9295 0464 5365745F 		.ascii	"Set_Power_Temporary_Value\000"
 9295      506F7765 
 9295      725F5465 
ARM GAS  C:\Users\KJA\AppData\Local\Temp\ccAyzU2h.s 			page 196


 9295      6D706F72 
 9295      6172795F 
 9296              	.LASF167:
 9297 047e 66506F77 		.ascii	"fPower\000"
 9297      657200
 9298              	.LASF93:
 9299 0485 53746174 		.ascii	"State_Machine\000"
 9299      655F4D61 
 9299      6368696E 
 9299      6500
 9300              	.LASF41:
 9301 0493 676C7970 		.ascii	"glyph_x\000"
 9301      685F7800 
 9302              	.LASF42:
 9303 049b 676C7970 		.ascii	"glyph_y\000"
 9303      685F7900 
 9304              	.LASF195:
 9305 04a3 63536574 		.ascii	"cSet_Freq\000"
 9305      5F467265 
 9305      7100
 9306              	.LASF75:
 9307 04ad 486F6D65 		.ascii	"Home\000"
 9307      00
 9308              	.LASF190:
 9309 04b2 5365745F 		.ascii	"Set_Freq\000"
 9309      46726571 
 9309      00
 9310              	.LASF160:
 9311 04bb 6359506F 		.ascii	"cYPosition\000"
 9311      73697469 
 9311      6F6E00
 9312              	.LASF197:
 9313 04c6 43757272 		.ascii	"Current_Edit_Value\000"
 9313      656E745F 
 9313      45646974 
 9313      5F56616C 
 9313      756500
 9314              	.LASF181:
 9315 04d9 4D696E52 		.ascii	"MinResistance\000"
 9315      65736973 
 9315      74616E63 
 9315      6500
 9316              	.LASF121:
 9317 04e7 43757272 		.ascii	"Current_Menu_Position\000"
 9317      656E745F 
 9317      4D656E75 
 9317      5F506F73 
 9317      6974696F 
 9318              	.LASF196:
 9319 04fd 63536574 		.ascii	"cSet_Duty\000"
 9319      5F447574 
 9319      7900
 9320              	.LASF24:
 9321 0507 63686172 		.ascii	"char\000"
 9321      00
 9322              	.LASF192:
 9323 050c 5365745F 		.ascii	"Set_Duty\000"
ARM GAS  C:\Users\KJA\AppData\Local\Temp\ccAyzU2h.s 			page 197


 9323      44757479 
 9323      00
 9324              	.LASF114:
 9325 0515 53746174 		.ascii	"State_Machine_VolumeSetting\000"
 9325      655F4D61 
 9325      6368696E 
 9325      655F566F 
 9325      6C756D65 
 9326              	.LASF57:
 9327 0531 6465765F 		.ascii	"dev_fn\000"
 9327      666E00
 9328              	.LASF53:
 9329 0538 63757272 		.ascii	"current_page\000"
 9329      656E745F 
 9329      70616765 
 9329      00
 9330              	.LASF199:
 9331 0545 63436F75 		.ascii	"cCounter\000"
 9331      6E746572 
 9331      00
 9332              	.LASF16:
 9333 054e 75696E74 		.ascii	"uint16\000"
 9333      313600
 9334              	.LASF18:
 9335 0555 696E7438 		.ascii	"int8\000"
 9335      00
 9336              	.LASF13:
 9337 055a 75696E74 		.ascii	"uint8_t\000"
 9337      385F7400 
 9338              	.LASF177:
 9339 0562 506F7369 		.ascii	"Position_Number\000"
 9339      74696F6E 
 9339      5F4E756D 
 9339      62657200 
 9340              	.LASF23:
 9341 0572 63686172 		.ascii	"char8\000"
 9341      3800
 9342              	.LASF169:
 9343 0578 66526573 		.ascii	"fResist\000"
 9343      69737400 
 9344              	.LASF117:
 9345 0580 7538675F 		.ascii	"u8g_font_unifont\000"
 9345      666F6E74 
 9345      5F756E69 
 9345      666F6E74 
 9345      00
 9346              	.LASF112:
 9347 0591 53746174 		.ascii	"State_Machine_Settings\000"
 9347      655F4D61 
 9347      6368696E 
 9347      655F5365 
 9347      7474696E 
 9348              	.LASF108:
 9349 05a8 53746174 		.ascii	"State_Machine_ConstantCurrent\000"
 9349      655F4D61 
 9349      6368696E 
 9349      655F436F 
ARM GAS  C:\Users\KJA\AppData\Local\Temp\ccAyzU2h.s 			page 198


 9349      6E737461 
 9350              	.LASF68:
 9351 05c6 7538675F 		.ascii	"u8g_uint_t\000"
 9351      75696E74 
 9351      5F7400
 9352              	.LASF67:
 9353 05d1 5F753867 		.ascii	"_u8g_box_t\000"
 9353      5F626F78 
 9353      5F7400
 9354              	.LASF9:
 9355 05dc 6C6F6E67 		.ascii	"long long int\000"
 9355      206C6F6E 
 9355      6720696E 
 9355      7400
 9356              	.LASF33:
 9357 05ea 63757273 		.ascii	"cursor_fg_color\000"
 9357      6F725F66 
 9357      675F636F 
 9357      6C6F7200 
 9358              	.LASF135:
 9359 05fa 7164436F 		.ascii	"qdCount\000"
 9359      756E7400 
 9360              	.LASF186:
 9361 0602 4D61785F 		.ascii	"Max_FET_Temp\000"
 9361      4645545F 
 9361      54656D70 
 9361      00
 9362              	.LASF159:
 9363 060f 59506F73 		.ascii	"YPosition\000"
 9363      6974696F 
 9363      6E00
 9364              	.LASF180:
 9365 0619 4D617843 		.ascii	"MaxCurrent\000"
 9365      75727265 
 9365      6E7400
 9366              	.LASF139:
 9367 0624 62757474 		.ascii	"button3\000"
 9367      6F6E3300 
 9368              	.LASF140:
 9369 062c 62757474 		.ascii	"button4\000"
 9369      6F6E3400 
 9370              	.LASF54:
 9371 0634 7538675F 		.ascii	"u8g_dev_t\000"
 9371      6465765F 
 9371      7400
 9372              	.LASF164:
 9373 063e 4D656173 		.ascii	"MeasuredCurrent\000"
 9373      75726564 
 9373      43757272 
 9373      656E7400 
 9374              	.LASF142:
 9375 064e 62757474 		.ascii	"button6\000"
 9375      6F6E3600 
 9376              	.LASF211:
 9377 0656 43757272 		.ascii	"Current_Counter\000"
 9377      656E745F 
 9377      436F756E 
ARM GAS  C:\Users\KJA\AppData\Local\Temp\ccAyzU2h.s 			page 199


 9377      74657200 
 9378              	.LASF73:
 9379 0666 7538675F 		.ascii	"u8g_state_cb\000"
 9379      73746174 
 9379      655F6362 
 9379      00
 9380              	.LASF60:
 9381 0673 7538675F 		.ascii	"u8g_dev_arg_pixel_t\000"
 9381      6465765F 
 9381      6172675F 
 9381      70697865 
 9381      6C5F7400 
 9382              	.LASF217:
 9383 0687 474E5520 		.ascii	"GNU C 4.9.3 20150303 (release) [ARM/embedded-4_9-br"
 9383      4320342E 
 9383      392E3320 
 9383      32303135 
 9383      30333033 
 9384 06ba 616E6368 		.ascii	"anch revision 221220] -mcpu=cortex-m3 -mthumb -g -O"
 9384      20726576 
 9384      6973696F 
 9384      6E203232 
 9384      31323230 
 9385 06ed 30202D66 		.ascii	"0 -ffunction-sections -ffat-lto-objects\000"
 9385      66756E63 
 9385      74696F6E 
 9385      2D736563 
 9385      74696F6E 
 9386              	.LASF82:
 9387 0715 496E666F 		.ascii	"Information\000"
 9387      726D6174 
 9387      696F6E00 
 9388              	.LASF218:
 9389 0721 73746174 		.ascii	"state_machine.c\000"
 9389      655F6D61 
 9389      6368696E 
 9389      652E6300 
 9390              	.LASF207:
 9391 0731 44414356 		.ascii	"DACValue\000"
 9391      616C7565 
 9391      00
 9392              	.LASF209:
 9393 073a 4C6F6F70 		.ascii	"Loop_Counter\000"
 9393      5F436F75 
 9393      6E746572 
 9393      00
 9394              	.LASF168:
 9395 0747 52657369 		.ascii	"Resist\000"
 9395      737400
 9396              	.LASF17:
 9397 074e 75696E74 		.ascii	"uint32\000"
 9397      333200
 9398              	.LASF28:
 9399 0755 7538675F 		.ascii	"u8g_t\000"
 9399      7400
 9400              	.LASF30:
 9401 075b 68656967 		.ascii	"height\000"
ARM GAS  C:\Users\KJA\AppData\Local\Temp\ccAyzU2h.s 			page 200


 9401      687400
 9402              	.LASF40:
 9403 0762 676C7970 		.ascii	"glyph_dx\000"
 9403      685F6478 
 9403      00
 9404              	.LASF0:
 9405 076b 5F5F696E 		.ascii	"__int8_t\000"
 9405      74385F74 
 9405      00
 9406              	.LASF91:
 9407 0774 50574D5F 		.ascii	"PWM_Mode\000"
 9407      4D6F6465 
 9407      00
 9408              	.LASF39:
 9409 077d 63757273 		.ascii	"cursor_fn\000"
 9409      6F725F66 
 9409      6E00
 9410              	.LASF172:
 9411 0787 5365745F 		.ascii	"Set_Current_Temporary_Value\000"
 9411      43757272 
 9411      656E745F 
 9411      54656D70 
 9411      6F726172 
 9412              	.LASF200:
 9413 07a3 64656C74 		.ascii	"deltaT\000"
 9413      615400
 9414              	.LASF50:
 9415 07aa 6C696E65 		.ascii	"line_spacing\000"
 9415      5F737061 
 9415      63696E67 
 9415      00
 9416              	.LASF78:
 9417 07b7 436F6E73 		.ascii	"ConstantCurrent\000"
 9417      74616E74 
 9417      43757272 
 9417      656E7400 
 9418              	.LASF194:
 9419 07c7 63536574 		.ascii	"cSet_Ampl\000"
 9419      5F416D70 
 9419      6C00
 9420              	.LASF115:
 9421 07d1 53746174 		.ascii	"State_Machine_Information\000"
 9421      655F4D61 
 9421      6368696E 
 9421      655F496E 
 9421      666F726D 
 9422              	.LASF46:
 9423 07eb 666F6E74 		.ascii	"font_height_mode\000"
 9423      5F686569 
 9423      6768745F 
 9423      6D6F6465 
 9423      00
 9424              	.LASF4:
 9425 07fc 73686F72 		.ascii	"short int\000"
 9425      7420696E 
 9425      7400
 9426              	.LASF7:
ARM GAS  C:\Users\KJA\AppData\Local\Temp\ccAyzU2h.s 			page 201


 9427 0806 6C6F6E67 		.ascii	"long int\000"
 9427      20696E74 
 9427      00
 9428              	.LASF95:
 9429 080f 53746174 		.ascii	"State_Machine_Error_NC\000"
 9429      655F4D61 
 9429      6368696E 
 9429      655F4572 
 9429      726F725F 
 9430              	.LASF109:
 9431 0826 53746174 		.ascii	"State_Machine_ConstantPower\000"
 9431      655F4D61 
 9431      6368696E 
 9431      655F436F 
 9431      6E737461 
 9432              	.LASF116:
 9433 0842 49544D5F 		.ascii	"ITM_RxBuffer\000"
 9433      52784275 
 9433      66666572 
 9433      00
 9434              	.LASF92:
 9435 084f 45787465 		.ascii	"External_Drive\000"
 9435      726E616C 
 9435      5F447269 
 9435      766500
 9436              	.LASF179:
 9437 085e 4D617856 		.ascii	"MaxVoltage\000"
 9437      6F6C7461 
 9437      676500
 9438              	.LASF146:
 9439 0869 526F7461 		.ascii	"Rotate_Buzzer__Default_Lenght\000"
 9439      74655F42 
 9439      757A7A65 
 9439      725F5F44 
 9439      65666175 
 9440              	.LASF162:
 9441 0887 4D656173 		.ascii	"MeasuredVoltage\000"
 9441      75726564 
 9441      566F6C74 
 9441      61676500 
 9442              	.LASF52:
 9443 0897 73746174 		.ascii	"state_cb\000"
 9443      655F6362 
 9443      00
 9444              	.LASF213:
 9445 08a0 63546573 		.ascii	"cTestowy_Counter\000"
 9445      746F7779 
 9445      5F436F75 
 9445      6E746572 
 9445      00
 9446              	.LASF55:
 9447 08b1 5F753867 		.ascii	"_u8g_t\000"
 9447      5F7400
 9448              	.LASF63:
 9449 08b8 636F6C6F 		.ascii	"color\000"
 9449      7200
 9450              	.LASF137:
ARM GAS  C:\Users\KJA\AppData\Local\Temp\ccAyzU2h.s 			page 202


 9451 08be 62757474 		.ascii	"button1\000"
 9451      6F6E3100 
 9452              	.LASF138:
 9453 08c6 62757474 		.ascii	"button2\000"
 9453      6F6E3200 
 9454              	.LASF35:
 9455 08ce 63757273 		.ascii	"cursor_encoding\000"
 9455      6F725F65 
 9455      6E636F64 
 9455      696E6700 
 9456              	.LASF81:
 9457 08de 566F6C75 		.ascii	"VolumeSetting\000"
 9457      6D655365 
 9457      7474696E 
 9457      6700
 9458              	.LASF141:
 9459 08ec 62757474 		.ascii	"button5\000"
 9459      6F6E3500 
 9460              	.LASF133:
 9461 08f4 41637475 		.ascii	"Actual_Range\000"
 9461      616C5F52 
 9461      616E6765 
 9461      00
 9462              	.LASF189:
 9463 0901 5365745F 		.ascii	"Set_Ampl_Temporary_Value\000"
 9463      416D706C 
 9463      5F54656D 
 9463      706F7261 
 9463      72795F56 
 9464              	.LASF48:
 9465 091a 666F6E74 		.ascii	"font_ref_descent\000"
 9465      5F726566 
 9465      5F646573 
 9465      63656E74 
 9465      00
 9466              	.LASF187:
 9467 092b 4F766572 		.ascii	"OverTemperature\000"
 9467      54656D70 
 9467      65726174 
 9467      75726500 
 9468              	.LASF1:
 9469 093b 5F5F7569 		.ascii	"__uint8_t\000"
 9469      6E74385F 
 9469      7400
 9470              	.LASF56:
 9471 0945 5F753867 		.ascii	"_u8g_dev_t\000"
 9471      5F646576 
 9471      5F7400
 9472              	.LASF96:
 9473 0950 53746174 		.ascii	"State_Machine_Error_OC\000"
 9473      655F4D61 
 9473      6368696E 
 9473      655F4572 
 9473      726F725F 
 9474              	.LASF97:
 9475 0967 53746174 		.ascii	"State_Machine_Error_OT\000"
 9475      655F4D61 
ARM GAS  C:\Users\KJA\AppData\Local\Temp\ccAyzU2h.s 			page 203


 9475      6368696E 
 9475      655F4572 
 9475      726F725F 
 9476              	.LASF98:
 9477 097e 53746174 		.ascii	"State_Machine_Error_OV\000"
 9477      655F4D61 
 9477      6368696E 
 9477      655F4572 
 9477      726F725F 
 9478              	.LASF31:
 9479 0995 666F6E74 		.ascii	"font\000"
 9479      00
 9480              	.LASF100:
 9481 099a 53746174 		.ascii	"State_Machine_ConstantMode\000"
 9481      655F4D61 
 9481      6368696E 
 9481      655F436F 
 9481      6E737461 
 9482              	.LASF25:
 9483 09b5 73697A65 		.ascii	"sizetype\000"
 9483      74797065 
 9483      00
 9484              	.LASF66:
 9485 09be 7538675F 		.ascii	"u8g_box_t\000"
 9485      626F785F 
 9485      7400
 9486              	.LASF8:
 9487 09c8 6C6F6E67 		.ascii	"long unsigned int\000"
 9487      20756E73 
 9487      69676E65 
 9487      6420696E 
 9487      7400
 9488              	.LASF132:
 9489 09da 466F7572 		.ascii	"Four_Wire_Method\000"
 9489      5F576972 
 9489      655F4D65 
 9489      74686F64 
 9489      00
 9490              	.LASF14:
 9491 09eb 696E7433 		.ascii	"int32_t\000"
 9491      325F7400 
 9492              	.LASF204:
 9493 09f3 43757272 		.ascii	"Current_FET_Temp\000"
 9493      656E745F 
 9493      4645545F 
 9493      54656D70 
 9493      00
 9494              	.LASF79:
 9495 0a04 53657474 		.ascii	"Settings\000"
 9495      696E6773 
 9495      00
 9496              	.LASF110:
 9497 0a0d 53746174 		.ascii	"State_Machine_ConstantResistance\000"
 9497      655F4D61 
 9497      6368696E 
 9497      655F436F 
 9497      6E737461 
ARM GAS  C:\Users\KJA\AppData\Local\Temp\ccAyzU2h.s 			page 204


 9498              	.LASF27:
 9499 0a2e 7538675F 		.ascii	"u8g_fntpgm_uint8_t\000"
 9499      666E7470 
 9499      676D5F75 
 9499      696E7438 
 9499      5F7400
 9500              	.LASF49:
 9501 0a41 666F6E74 		.ascii	"font_line_spacing_factor\000"
 9501      5F6C696E 
 9501      655F7370 
 9501      6163696E 
 9501      675F6661 
 9502              	.LASF62:
 9503 0a5a 70697865 		.ascii	"pixel\000"
 9503      6C00
 9504              	.LASF90:
 9505 0a60 57617665 		.ascii	"WaveForm_Mode\000"
 9505      466F726D 
 9505      5F4D6F64 
 9505      6500
 9506              	.LASF3:
 9507 0a6e 756E7369 		.ascii	"unsigned char\000"
 9507      676E6564 
 9507      20636861 
 9507      7200
 9508              	.LASF125:
 9509 0a7c 43757272 		.ascii	"CurrentVolumeValueString\000"
 9509      656E7456 
 9509      6F6C756D 
 9509      6556616C 
 9509      75655374 
 9510              	.LASF156:
 9511 0a95 54657374 		.ascii	"TestChar\000"
 9511      43686172 
 9511      00
 9512              	.LASF171:
 9513 0a9e 5365745F 		.ascii	"Set_Current\000"
 9513      43757272 
 9513      656E7400 
 9514              	.LASF182:
 9515 0aaa 4D617852 		.ascii	"MaxResistance\000"
 9515      65736973 
 9515      74616E63 
 9515      6500
 9516              	.LASF173:
 9517 0ab8 5365745F 		.ascii	"Set_Power\000"
 9517      506F7765 
 9517      7200
 9518              	.LASF72:
 9519 0ac2 7538675F 		.ascii	"u8g_font_calc_vref_fnptr\000"
 9519      666F6E74 
 9519      5F63616C 
 9519      635F7672 
 9519      65665F66 
 9520              	.LASF83:
 9521 0adb 436F6E73 		.ascii	"ConstantPower\000"
 9521      74616E74 
ARM GAS  C:\Users\KJA\AppData\Local\Temp\ccAyzU2h.s 			page 205


 9521      506F7765 
 9521      7200
 9522              	.LASF201:
 9523 0ae9 41766172 		.ascii	"Avarage_FET_Temp\000"
 9523      6167655F 
 9523      4645545F 
 9523      54656D70 
 9523      00
 9524              	.LASF144:
 9525 0afa 4F757470 		.ascii	"OutputEnable\000"
 9525      7574456E 
 9525      61626C65 
 9525      00
 9526              	.LASF43:
 9527 0b07 676C7970 		.ascii	"glyph_width\000"
 9527      685F7769 
 9527      64746800 
 9528              	.LASF212:
 9529 0b13 54657374 		.ascii	"Testowy_Counter\000"
 9529      6F77795F 
 9529      436F756E 
 9529      74657200 
 9530              	.LASF32:
 9531 0b23 63757273 		.ascii	"cursor_font\000"
 9531      6F725F66 
 9531      6F6E7400 
 9532              	.LASF122:
 9533 0b2f 43757272 		.ascii	"CurrentBacklightValue\000"
 9533      656E7442 
 9533      61636B6C 
 9533      69676874 
 9533      56616C75 
 9534              	.LASF74:
 9535 0b45 44657665 		.ascii	"Develop\000"
 9535      6C6F7000 
 9536              	.LASF2:
 9537 0b4d 7369676E 		.ascii	"signed char\000"
 9537      65642063 
 9537      68617200 
 9538              	.LASF5:
 9539 0b59 73686F72 		.ascii	"short unsigned int\000"
 9539      7420756E 
 9539      7369676E 
 9539      65642069 
 9539      6E7400
 9540              	.LASF185:
 9541 0b6c 435F4B64 		.ascii	"C_Kd\000"
 9541      00
 9542              	.LASF161:
 9543 0b71 546F7563 		.ascii	"Touched\000"
 9543      68656400 
 9544              	.LASF183:
 9545 0b79 435F4B70 		.ascii	"C_Kp\000"
 9545      00
 9546              	.LASF170:
 9547 0b7e 5365745F 		.ascii	"Set_Voltage\000"
 9547      566F6C74 
ARM GAS  C:\Users\KJA\AppData\Local\Temp\ccAyzU2h.s 			page 206


 9547      61676500 
 9548              	.LASF80:
 9549 0b8a 4261636B 		.ascii	"BacklightSetting\000"
 9549      6C696768 
 9549      74536574 
 9549      74696E67 
 9549      00
 9550              	.LASF15:
 9551 0b9b 75696E74 		.ascii	"uint8\000"
 9551      3800
 9552              	.LASF22:
 9553 0ba1 646F7562 		.ascii	"double\000"
 9553      6C6500
 9554              	.LASF104:
 9555 0ba8 41637475 		.ascii	"Actual_Period\000"
 9555      616C5F50 
 9555      6572696F 
 9555      6400
 9556              	.LASF158:
 9557 0bb6 6358506F 		.ascii	"cXPosition\000"
 9557      73697469 
 9557      6F6E00
 9558              	.LASF101:
 9559 0bc1 53746174 		.ascii	"State_Machine_ArbitraryMode\000"
 9559      655F4D61 
 9559      6368696E 
 9559      655F4172 
 9559      62697472 
 9560              	.LASF94:
 9561 0bdd 53746174 		.ascii	"State_Machine_Error_RP\000"
 9561      655F4D61 
 9561      6368696E 
 9561      655F4572 
 9561      726F725F 
 9562              	.LASF203:
 9563 0bf4 43757272 		.ascii	"Current_DIE_TempString\000"
 9563      656E745F 
 9563      4449455F 
 9563      54656D70 
 9563      53747269 
 9564              	.LASF71:
 9565 0c0b 7538675F 		.ascii	"u8g_draw_cursor_fn\000"
 9565      64726177 
 9565      5F637572 
 9565      736F725F 
 9565      666E00
 9566              	.LASF76:
 9567 0c1e 436F6E73 		.ascii	"ConstantMode\000"
 9567      74616E74 
 9567      4D6F6465 
 9567      00
 9568              	.LASF130:
 9569 0c2b 54776F5F 		.ascii	"Two_Wire_Range\000"
 9569      57697265 
 9569      5F52616E 
 9569      676500
 9570              	.LASF198:
ARM GAS  C:\Users\KJA\AppData\Local\Temp\ccAyzU2h.s 			page 207


 9571 0c3a 41637475 		.ascii	"Actual_Multiplier_Value\000"
 9571      616C5F4D 
 9571      756C7469 
 9571      706C6965 
 9571      725F5661 
 9572              	.LASF131:
 9573 0c52 466F7572 		.ascii	"Four_Wire_Range\000"
 9573      5F576972 
 9573      655F5261 
 9573      6E676500 
 9574              	.LASF105:
 9575 0c62 44757479 		.ascii	"Duty_to_Set\000"
 9575      5F746F5F 
 9575      53657400 
 9576              	.LASF145:
 9577 0c6e 50757368 		.ascii	"Push_Buzzer__Default_Lenght\000"
 9577      5F42757A 
 9577      7A65725F 
 9577      5F446566 
 9577      61756C74 
 9578              	.LASF99:
 9579 0c8a 53746174 		.ascii	"State_Machine_Home\000"
 9579      655F4D61 
 9579      6368696E 
 9579      655F486F 
 9579      6D6500
 9580              		.ident	"GCC: (GNU Tools for ARM Embedded Processors) 4.9.3 20150303 (release) [ARM/embedded-4_9-br
