ARM GAS  C:\Users\KJA\AppData\Local\Temp\ccRuNJLT.s 			page 1


   1              		.syntax unified
   2              		.cpu cortex-m3
   3              		.fpu softvfp
   4              		.eabi_attribute 20, 1
   5              		.eabi_attribute 21, 1
   6              		.eabi_attribute 23, 3
   7              		.eabi_attribute 24, 1
   8              		.eabi_attribute 25, 1
   9              		.eabi_attribute 26, 1
  10              		.eabi_attribute 30, 6
  11              		.eabi_attribute 34, 1
  12              		.eabi_attribute 18, 4
  13              		.thumb
  14              		.file	"temp_manage.c"
  15              		.text
  16              	.Ltext0:
  17              		.cfi_sections	.debug_frame
  18              		.comm	deltaT,1,1
  19              		.comm	Avarage_FET_Temp,4,4
  20              		.comm	Current_DIE_Temp,2,2
  21              		.comm	Current_DIE_TempString,8,4
  22              		.comm	Current_FET_Temp,1,1
  23              		.comm	Current_FET_TempString,8,4
  24              		.comm	Current_State,1,1
  25              		.comm	Previous_State,1,1
  26              		.comm	Sound_Enable,1,1
  27              		.comm	Current_Menu_Position,1,1
  28              		.comm	CurrentBacklightValue,1,1
  29              		.comm	CurrentBacklightValueString,8,4
  30              		.comm	CurrentVolumeValue,1,1
  31              		.comm	CurrentVolumeValueString,8,4
  32              		.comm	Current_Calibration_Range1,4,4
  33              		.comm	Current_Calibration_Range2,4,4
  34              		.comm	Current_Calibration_Range3,4,4
  35              		.comm	LEM_Offset_Value,1,1
  36              		.comm	Two_Wire_Range,4,4
  37              		.comm	Four_Wire_Range,4,4
  38              		.comm	Four_Wire_Method,1,1
  39              		.comm	Actual_Range,1,1
  40              		.comm	View_Mode,1,1
  41              		.comm	qdCount,2,2
  42              		.comm	Last_qdCount,2,2
  43              		.comm	button1,1,1
  44              		.comm	button2,1,1
  45              		.comm	button3,1,1
  46              		.comm	button4,1,1
  47              		.comm	button5,1,1
  48              		.comm	button6,1,1
  49              		.comm	push,1,1
  50              		.comm	OutputEnable,1,1
  51              		.comm	u8g,60,4
  52              		.comm	Push_Buzzer__Default_Lenght,4,4
  53              		.comm	Rotate_Buzzer__Default_Lenght,4,4
  54              		.comm	Edit_Value_Mode,1,1
  55              		.comm	cVoltage_Actual,16,4
  56              		.comm	cCurrent_Actual,16,4
  57              		.comm	cPower_Actual,16,4
ARM GAS  C:\Users\KJA\AppData\Local\Temp\ccRuNJLT.s 			page 2


  58              		.comm	cResist_Actual,16,4
  59              		.comm	cVoltage_Set,16,4
  60              		.comm	cCurrent_Set,16,4
  61              		.comm	cPower_Set,16,4
  62              		.comm	cResist_Set,16,4
  63              		.comm	TestChar,16,4
  64              		.comm	XPosition,2,2
  65              		.comm	cXPosition,16,4
  66              		.comm	YPosition,2,2
  67              		.comm	cYPosition,16,4
  68              		.comm	Touched,1,1
  69              		.comm	MeasuredVoltage,2,2
  70              		.comm	fVoltage,4,4
  71              		.comm	MeasuredCurrent,2,2
  72              		.comm	fCurrent,4,4
  73              		.comm	Power,2,2
  74              		.comm	fPower,4,4
  75              		.comm	Resist,2,2
  76              		.comm	fResist,4,4
  77              		.comm	Set_Voltage,4,4
  78              		.comm	Set_Current,4,4
  79              		.comm	Set_Current_Temporary_Value,4,4
  80              		.comm	Set_Power,4,4
  81              		.comm	Set_Power_Temporary_Value,4,4
  82              		.comm	Set_Resist,4,4
  83              		.comm	Set_Resist_Temporary_Value,4,4
  84              		.comm	Position_Number,1,1
  85              		.comm	MaxPower,4,4
  86              		.comm	MaxVoltage,4,4
  87              		.comm	MaxCurrent,4,4
  88              		.comm	MinResistance,4,4
  89              		.comm	MaxResistance,4,4
  90              		.comm	C_Kp,4,4
  91              		.comm	C_Ki,4,4
  92              		.comm	C_Kd,4,4
  93              		.comm	Max_FET_Temp,1,1
  94              		.comm	OverTemperature,1,1
  95              		.comm	Set_Ampl,2,2
  96              		.comm	Set_Ampl_Temporary_Value,2,2
  97              		.comm	Set_Freq,2,2
  98              		.comm	Set_Freq_Temporary_Value,4,4
  99              		.comm	Set_Duty,1,1
 100              		.comm	Set_Duty_Temporary_Value,1,1
 101              		.comm	cSet_Ampl,16,4
 102              		.comm	cSet_Freq,16,4
 103              		.comm	cSet_Duty,16,4
 104              		.comm	Current_Edit_Value,1,1
 105              		.comm	Actual_Multiplier_Value,1,1
 106              		.comm	cCounter,32,4
 107              		.comm	Status,4,4
 108              		.section	.text.Temp_Management,"ax",%progbits
 109              		.align	2
 110              		.global	Temp_Management
 111              		.thumb
 112              		.thumb_func
 113              		.type	Temp_Management, %function
 114              	Temp_Management:
ARM GAS  C:\Users\KJA\AppData\Local\Temp\ccRuNJLT.s 			page 3


 115              	.LFB63:
 116              		.file 1 "temp_manage.c"
   1:temp_manage.c **** #include "temp_manage.h"
   2:temp_manage.c **** #include "global_variables.h"
   3:temp_manage.c **** #include "state_machine.h"
   4:temp_manage.c **** 
   5:temp_manage.c **** 
   6:temp_manage.c **** cystatus Status;
   7:temp_manage.c **** 
   8:temp_manage.c **** 
   9:temp_manage.c **** void Temp_Management(uint8 MaxTemp){
 117              		.loc 1 9 0
 118              		.cfi_startproc
 119              		@ args = 0, pretend = 0, frame = 8
 120              		@ frame_needed = 1, uses_anonymous_args = 0
 121 0000 80B5     		push	{r7, lr}
 122              		.cfi_def_cfa_offset 8
 123              		.cfi_offset 7, -8
 124              		.cfi_offset 14, -4
 125 0002 82B0     		sub	sp, sp, #8
 126              		.cfi_def_cfa_offset 16
 127 0004 00AF     		add	r7, sp, #0
 128              		.cfi_def_cfa_register 7
 129 0006 0346     		mov	r3, r0
 130 0008 FB71     		strb	r3, [r7, #7]
  10:temp_manage.c ****     TempRead_FET();
 131              		.loc 1 10 0
 132 000a FFF7FEFF 		bl	TempRead_FET
  11:temp_manage.c ****     if(Current_FET_Temp == 0){
 133              		.loc 1 11 0
 134 000e 114B     		ldr	r3, .L5
 135 0010 1B78     		ldrb	r3, [r3]	@ zero_extendqisi2
 136 0012 002B     		cmp	r3, #0
 137 0014 03D1     		bne	.L2
  12:temp_manage.c ****         OverTemperature = 1;  
 138              		.loc 1 12 0
 139 0016 104B     		ldr	r3, .L5+4
 140 0018 0122     		movs	r2, #1
 141 001a 1A70     		strb	r2, [r3]
 142 001c 0CE0     		b	.L3
 143              	.L2:
  13:temp_manage.c ****     }
  14:temp_manage.c ****     else if(Current_FET_Temp >= MaxTemp){
 144              		.loc 1 14 0
 145 001e 0D4B     		ldr	r3, .L5
 146 0020 1B78     		ldrb	r3, [r3]	@ zero_extendqisi2
 147 0022 5AB2     		sxtb	r2, r3
 148 0024 FB79     		ldrb	r3, [r7, #7]	@ zero_extendqisi2
 149 0026 9A42     		cmp	r2, r3
 150 0028 03DB     		blt	.L4
  15:temp_manage.c ****         OverTemperature = 1;
 151              		.loc 1 15 0
 152 002a 0B4B     		ldr	r3, .L5+4
 153 002c 0122     		movs	r2, #1
 154 002e 1A70     		strb	r2, [r3]
 155 0030 02E0     		b	.L3
 156              	.L4:
ARM GAS  C:\Users\KJA\AppData\Local\Temp\ccRuNJLT.s 			page 4


  16:temp_manage.c ****     }
  17:temp_manage.c ****     else OverTemperature = 0;
 157              		.loc 1 17 0
 158 0032 094B     		ldr	r3, .L5+4
 159 0034 0022     		movs	r2, #0
 160 0036 1A70     		strb	r2, [r3]
 161              	.L3:
  18:temp_manage.c **** 
  19:temp_manage.c ****     Temp_Regulator(MaxTemp-20, Current_FET_Temp);
 162              		.loc 1 19 0
 163 0038 FB79     		ldrb	r3, [r7, #7]
 164 003a 143B     		subs	r3, r3, #20
 165 003c DAB2     		uxtb	r2, r3
 166 003e 054B     		ldr	r3, .L5
 167 0040 1B78     		ldrb	r3, [r3]	@ zero_extendqisi2
 168 0042 DBB2     		uxtb	r3, r3
 169 0044 1046     		mov	r0, r2
 170 0046 1946     		mov	r1, r3
 171 0048 FFF7FEFF 		bl	Temp_Regulator
  20:temp_manage.c ****     
  21:temp_manage.c **** }
 172              		.loc 1 21 0
 173 004c 0837     		adds	r7, r7, #8
 174              		.cfi_def_cfa_offset 8
 175 004e BD46     		mov	sp, r7
 176              		.cfi_def_cfa_register 13
 177              		@ sp needed
 178 0050 80BD     		pop	{r7, pc}
 179              	.L6:
 180 0052 00BF     		.align	2
 181              	.L5:
 182 0054 00000000 		.word	Current_FET_Temp
 183 0058 00000000 		.word	OverTemperature
 184              		.cfi_endproc
 185              	.LFE63:
 186              		.size	Temp_Management, .-Temp_Management
 187              		.section	.rodata
 188              		.align	2
 189              	.LC0:
 190 0000 25642043 		.ascii	"%d C\000"
 190      00
 191 0005 000000   		.section	.text.TempRead_FET,"ax",%progbits
 192              		.align	2
 193              		.global	TempRead_FET
 194              		.thumb
 195              		.thumb_func
 196              		.type	TempRead_FET, %function
 197              	TempRead_FET:
 198              	.LFB64:
  22:temp_manage.c **** 
  23:temp_manage.c **** 
  24:temp_manage.c **** void TempRead_FET(void){
 199              		.loc 1 24 0
 200              		.cfi_startproc
 201              		@ args = 0, pretend = 0, frame = 0
 202              		@ frame_needed = 1, uses_anonymous_args = 0
 203 0000 80B5     		push	{r7, lr}
ARM GAS  C:\Users\KJA\AppData\Local\Temp\ccRuNJLT.s 			page 5


 204              		.cfi_def_cfa_offset 8
 205              		.cfi_offset 7, -8
 206              		.cfi_offset 14, -4
 207 0002 00AF     		add	r7, sp, #0
 208              		.cfi_def_cfa_register 7
  25:temp_manage.c ****         deltaT = 10;
 209              		.loc 1 25 0
 210 0004 1F4B     		ldr	r3, .L9
 211 0006 0A22     		movs	r2, #10
 212 0008 1A70     		strb	r2, [r3]
  26:temp_manage.c ****         Status = I2C_MasterSendStart(I2C_SLAVE_ADDRESS, I2C_READ_XFER_MODE);
 213              		.loc 1 26 0
 214 000a 4820     		movs	r0, #72
 215 000c 0121     		movs	r1, #1
 216 000e FFF7FEFF 		bl	I2C_MasterSendStart
 217 0012 0346     		mov	r3, r0
 218 0014 1A46     		mov	r2, r3
 219 0016 1C4B     		ldr	r3, .L9+4
 220 0018 1A60     		str	r2, [r3]
  27:temp_manage.c ****         if(I2C_MSTR_NO_ERROR == Status) /* Check if transfer completed without errors */
 221              		.loc 1 27 0
 222 001a 1B4B     		ldr	r3, .L9+4
 223 001c 1B68     		ldr	r3, [r3]
 224 001e 002B     		cmp	r3, #0
 225 0020 06D1     		bne	.L8
  28:temp_manage.c ****         Current_FET_Temp = I2C_MasterReadByte(I2C_NAK_DATA);
 226              		.loc 1 28 0
 227 0022 0020     		movs	r0, #0
 228 0024 FFF7FEFF 		bl	I2C_MasterReadByte
 229 0028 0346     		mov	r3, r0
 230 002a DAB2     		uxtb	r2, r3
 231 002c 174B     		ldr	r3, .L9+8
 232 002e 1A70     		strb	r2, [r3]
 233              	.L8:
  29:temp_manage.c ****         I2C_MasterSendStop(); /* Send Stop */
 234              		.loc 1 29 0
 235 0030 FFF7FEFF 		bl	I2C_MasterSendStop
  30:temp_manage.c ****         
  31:temp_manage.c ****         Avarage_FET_Temp = Avarage_FET_Temp*deltaT;
 236              		.loc 1 31 0
 237 0034 134B     		ldr	r3, .L9
 238 0036 1B78     		ldrb	r3, [r3]	@ zero_extendqisi2
 239 0038 1A46     		mov	r2, r3
 240 003a 154B     		ldr	r3, .L9+12
 241 003c 1B68     		ldr	r3, [r3]
 242 003e 03FB02F3 		mul	r3, r3, r2
 243 0042 134A     		ldr	r2, .L9+12
 244 0044 1360     		str	r3, [r2]
  32:temp_manage.c ****         Avarage_FET_Temp = Avarage_FET_Temp + Current_FET_Temp;
 245              		.loc 1 32 0
 246 0046 114B     		ldr	r3, .L9+8
 247 0048 1B78     		ldrb	r3, [r3]	@ zero_extendqisi2
 248 004a 5AB2     		sxtb	r2, r3
 249 004c 104B     		ldr	r3, .L9+12
 250 004e 1B68     		ldr	r3, [r3]
 251 0050 1344     		add	r3, r3, r2
 252 0052 0F4A     		ldr	r2, .L9+12
ARM GAS  C:\Users\KJA\AppData\Local\Temp\ccRuNJLT.s 			page 6


 253 0054 1360     		str	r3, [r2]
  33:temp_manage.c ****         Avarage_FET_Temp = Avarage_FET_Temp / (deltaT+1);
 254              		.loc 1 33 0
 255 0056 0E4B     		ldr	r3, .L9+12
 256 0058 1B68     		ldr	r3, [r3]
 257 005a 0A4A     		ldr	r2, .L9
 258 005c 1278     		ldrb	r2, [r2]	@ zero_extendqisi2
 259 005e 0132     		adds	r2, r2, #1
 260 0060 B3FBF2F3 		udiv	r3, r3, r2
 261 0064 0A4A     		ldr	r2, .L9+12
 262 0066 1360     		str	r3, [r2]
  34:temp_manage.c ****         Current_FET_Temp = Avarage_FET_Temp;
 263              		.loc 1 34 0
 264 0068 094B     		ldr	r3, .L9+12
 265 006a 1B68     		ldr	r3, [r3]
 266 006c DAB2     		uxtb	r2, r3
 267 006e 074B     		ldr	r3, .L9+8
 268 0070 1A70     		strb	r2, [r3]
  35:temp_manage.c ****         
  36:temp_manage.c ****         sprintf((char *)Current_FET_TempString,"%d C",Current_FET_Temp); 
 269              		.loc 1 36 0
 270 0072 064B     		ldr	r3, .L9+8
 271 0074 1B78     		ldrb	r3, [r3]	@ zero_extendqisi2
 272 0076 5BB2     		sxtb	r3, r3
 273 0078 0648     		ldr	r0, .L9+16
 274 007a 0749     		ldr	r1, .L9+20
 275 007c 1A46     		mov	r2, r3
 276 007e FFF7FEFF 		bl	sprintf
  37:temp_manage.c **** }
 277              		.loc 1 37 0
 278 0082 80BD     		pop	{r7, pc}
 279              	.L10:
 280              		.align	2
 281              	.L9:
 282 0084 00000000 		.word	deltaT
 283 0088 00000000 		.word	Status
 284 008c 00000000 		.word	Current_FET_Temp
 285 0090 00000000 		.word	Avarage_FET_Temp
 286 0094 00000000 		.word	Current_FET_TempString
 287 0098 00000000 		.word	.LC0
 288              		.cfi_endproc
 289              	.LFE64:
 290              		.size	TempRead_FET, .-TempRead_FET
 291              		.section	.text.TempRead_DIE,"ax",%progbits
 292              		.align	2
 293              		.global	TempRead_DIE
 294              		.thumb
 295              		.thumb_func
 296              		.type	TempRead_DIE, %function
 297              	TempRead_DIE:
 298              	.LFB65:
  38:temp_manage.c **** 
  39:temp_manage.c **** void TempRead_DIE(void){  
 299              		.loc 1 39 0
 300              		.cfi_startproc
 301              		@ args = 0, pretend = 0, frame = 0
 302              		@ frame_needed = 1, uses_anonymous_args = 0
ARM GAS  C:\Users\KJA\AppData\Local\Temp\ccRuNJLT.s 			page 7


 303 0000 80B5     		push	{r7, lr}
 304              		.cfi_def_cfa_offset 8
 305              		.cfi_offset 7, -8
 306              		.cfi_offset 14, -4
 307 0002 00AF     		add	r7, sp, #0
 308              		.cfi_def_cfa_register 7
  40:temp_manage.c ****     Status = DieTemp_GetTemp(&Current_DIE_Temp);
 309              		.loc 1 40 0
 310 0004 0748     		ldr	r0, .L12
 311 0006 FFF7FEFF 		bl	DieTemp_GetTemp
 312 000a 0246     		mov	r2, r0
 313 000c 064B     		ldr	r3, .L12+4
 314 000e 1A60     		str	r2, [r3]
  41:temp_manage.c ****     sprintf((char *)Current_DIE_TempString,"%d C",Current_DIE_Temp); 
 315              		.loc 1 41 0
 316 0010 044B     		ldr	r3, .L12
 317 0012 1B88     		ldrh	r3, [r3]
 318 0014 1BB2     		sxth	r3, r3
 319 0016 0548     		ldr	r0, .L12+8
 320 0018 0549     		ldr	r1, .L12+12
 321 001a 1A46     		mov	r2, r3
 322 001c FFF7FEFF 		bl	sprintf
  42:temp_manage.c **** }
 323              		.loc 1 42 0
 324 0020 80BD     		pop	{r7, pc}
 325              	.L13:
 326 0022 00BF     		.align	2
 327              	.L12:
 328 0024 00000000 		.word	Current_DIE_Temp
 329 0028 00000000 		.word	Status
 330 002c 00000000 		.word	Current_DIE_TempString
 331 0030 00000000 		.word	.LC0
 332              		.cfi_endproc
 333              	.LFE65:
 334              		.size	TempRead_DIE, .-TempRead_DIE
 335              		.section	.text.FAN_Speed,"ax",%progbits
 336              		.align	2
 337              		.global	FAN_Speed
 338              		.thumb
 339              		.thumb_func
 340              		.type	FAN_Speed, %function
 341              	FAN_Speed:
 342              	.LFB66:
  43:temp_manage.c **** 
  44:temp_manage.c **** void FAN_Speed(uint8 Speed){    
 343              		.loc 1 44 0
 344              		.cfi_startproc
 345              		@ args = 0, pretend = 0, frame = 8
 346              		@ frame_needed = 1, uses_anonymous_args = 0
 347 0000 80B5     		push	{r7, lr}
 348              		.cfi_def_cfa_offset 8
 349              		.cfi_offset 7, -8
 350              		.cfi_offset 14, -4
 351 0002 82B0     		sub	sp, sp, #8
 352              		.cfi_def_cfa_offset 16
 353 0004 00AF     		add	r7, sp, #0
 354              		.cfi_def_cfa_register 7
ARM GAS  C:\Users\KJA\AppData\Local\Temp\ccRuNJLT.s 			page 8


 355 0006 0346     		mov	r3, r0
 356 0008 FB71     		strb	r3, [r7, #7]
  45:temp_manage.c ****     if(Speed == 0){
 357              		.loc 1 45 0
 358 000a FB79     		ldrb	r3, [r7, #7]	@ zero_extendqisi2
 359 000c 002B     		cmp	r3, #0
 360 000e 02D1     		bne	.L15
  46:temp_manage.c ****         PWM_Fan_Stop();
 361              		.loc 1 46 0
 362 0010 FFF7FEFF 		bl	PWM_Fan_Stop
 363 0014 05E0     		b	.L14
 364              	.L15:
  47:temp_manage.c ****     }
  48:temp_manage.c ****     else{
  49:temp_manage.c ****         PWM_Fan_Start();
 365              		.loc 1 49 0
 366 0016 FFF7FEFF 		bl	PWM_Fan_Start
  50:temp_manage.c ****         PWM_Fan_WriteCompare(Speed);
 367              		.loc 1 50 0
 368 001a FB79     		ldrb	r3, [r7, #7]	@ zero_extendqisi2
 369 001c 1846     		mov	r0, r3
 370 001e FFF7FEFF 		bl	PWM_Fan_WriteCompare
 371              	.L14:
  51:temp_manage.c ****     }
  52:temp_manage.c **** }
 372              		.loc 1 52 0
 373 0022 0837     		adds	r7, r7, #8
 374              		.cfi_def_cfa_offset 8
 375 0024 BD46     		mov	sp, r7
 376              		.cfi_def_cfa_register 13
 377              		@ sp needed
 378 0026 80BD     		pop	{r7, pc}
 379              		.cfi_endproc
 380              	.LFE66:
 381              		.size	FAN_Speed, .-FAN_Speed
 382              		.section	.text.Temp_Regulator,"ax",%progbits
 383              		.align	2
 384              		.global	Temp_Regulator
 385              		.thumb
 386              		.thumb_func
 387              		.type	Temp_Regulator, %function
 388              	Temp_Regulator:
 389              	.LFB67:
  53:temp_manage.c **** 
  54:temp_manage.c **** void Temp_Regulator(uint8 Set_Temp_Value, uint8 Actual_Temp_Value){
 390              		.loc 1 54 0
 391              		.cfi_startproc
 392              		@ args = 0, pretend = 0, frame = 16
 393              		@ frame_needed = 1, uses_anonymous_args = 0
 394 0000 80B5     		push	{r7, lr}
 395              		.cfi_def_cfa_offset 8
 396              		.cfi_offset 7, -8
 397              		.cfi_offset 14, -4
 398 0002 84B0     		sub	sp, sp, #16
 399              		.cfi_def_cfa_offset 24
 400 0004 00AF     		add	r7, sp, #0
 401              		.cfi_def_cfa_register 7
ARM GAS  C:\Users\KJA\AppData\Local\Temp\ccRuNJLT.s 			page 9


 402 0006 0346     		mov	r3, r0
 403 0008 0A46     		mov	r2, r1
 404 000a FB71     		strb	r3, [r7, #7]
 405 000c 1346     		mov	r3, r2
 406 000e BB71     		strb	r3, [r7, #6]
  55:temp_manage.c ****     
  56:temp_manage.c ****     uint16 Hist = 2;
 407              		.loc 1 56 0
 408 0010 0223     		movs	r3, #2
 409 0012 7B81     		strh	r3, [r7, #10]	@ movhi
  57:temp_manage.c ****     uint8 K = 30;
 410              		.loc 1 57 0
 411 0014 1E23     		movs	r3, #30
 412 0016 7B72     		strb	r3, [r7, #9]
  58:temp_manage.c ****     
  59:temp_manage.c ****     int16  Error = Actual_Temp_Value - Set_Temp_Value;
 413              		.loc 1 59 0
 414 0018 BB79     		ldrb	r3, [r7, #6]	@ zero_extendqisi2
 415 001a 9AB2     		uxth	r2, r3
 416 001c FB79     		ldrb	r3, [r7, #7]	@ zero_extendqisi2
 417 001e 9BB2     		uxth	r3, r3
 418 0020 D31A     		subs	r3, r2, r3
 419 0022 9BB2     		uxth	r3, r3
 420 0024 FB81     		strh	r3, [r7, #14]	@ movhi
  60:temp_manage.c ****     
  61:temp_manage.c ****     if(Error < Hist) Error = 0;
 421              		.loc 1 61 0
 422 0026 B7F90E20 		ldrsh	r2, [r7, #14]
 423 002a 7B89     		ldrh	r3, [r7, #10]
 424 002c 9A42     		cmp	r2, r3
 425 002e 01DA     		bge	.L18
 426              		.loc 1 61 0 is_stmt 0 discriminator 1
 427 0030 0023     		movs	r3, #0
 428 0032 FB81     		strh	r3, [r7, #14]	@ movhi
 429              	.L18:
  62:temp_manage.c ****     if(Error > 255) Error = 255;
 430              		.loc 1 62 0 is_stmt 1
 431 0034 B7F90E30 		ldrsh	r3, [r7, #14]
 432 0038 FF2B     		cmp	r3, #255
 433 003a 01DD     		ble	.L19
 434              		.loc 1 62 0 is_stmt 0 discriminator 1
 435 003c FF23     		movs	r3, #255
 436 003e FB81     		strh	r3, [r7, #14]	@ movhi
 437              	.L19:
  63:temp_manage.c ****     
  64:temp_manage.c ****     uint16 Drive = Error*K;
 438              		.loc 1 64 0 is_stmt 1
 439 0040 7B7A     		ldrb	r3, [r7, #9]	@ zero_extendqisi2
 440 0042 9BB2     		uxth	r3, r3
 441 0044 FA89     		ldrh	r2, [r7, #14]
 442 0046 02FB03F3 		mul	r3, r2, r3
 443 004a BB81     		strh	r3, [r7, #12]	@ movhi
  65:temp_manage.c ****     
  66:temp_manage.c ****     if(Drive >255) Drive = 255;
 444              		.loc 1 66 0
 445 004c BB89     		ldrh	r3, [r7, #12]
 446 004e FF2B     		cmp	r3, #255
ARM GAS  C:\Users\KJA\AppData\Local\Temp\ccRuNJLT.s 			page 10


 447 0050 01D9     		bls	.L20
 448              		.loc 1 66 0 is_stmt 0 discriminator 1
 449 0052 FF23     		movs	r3, #255
 450 0054 BB81     		strh	r3, [r7, #12]	@ movhi
 451              	.L20:
  67:temp_manage.c ****     if(Drive <35) Drive = 0;
 452              		.loc 1 67 0 is_stmt 1
 453 0056 BB89     		ldrh	r3, [r7, #12]
 454 0058 222B     		cmp	r3, #34
 455 005a 01D8     		bhi	.L21
 456              		.loc 1 67 0 is_stmt 0 discriminator 1
 457 005c 0023     		movs	r3, #0
 458 005e BB81     		strh	r3, [r7, #12]	@ movhi
 459              	.L21:
  68:temp_manage.c ****     
  69:temp_manage.c ****     FAN_Speed(Drive);        
 460              		.loc 1 69 0 is_stmt 1
 461 0060 BB89     		ldrh	r3, [r7, #12]	@ movhi
 462 0062 DBB2     		uxtb	r3, r3
 463 0064 1846     		mov	r0, r3
 464 0066 FFF7FEFF 		bl	FAN_Speed
  70:temp_manage.c **** }...
 465              		.loc 1 70 0
 466 006a 1037     		adds	r7, r7, #16
 467              		.cfi_def_cfa_offset 8
 468 006c BD46     		mov	sp, r7
 469              		.cfi_def_cfa_register 13
 470              		@ sp needed
 471 006e 80BD     		pop	{r7, pc}
 472              		.cfi_endproc
 473              	.LFE67:
 474              		.size	Temp_Regulator, .-Temp_Regulator
 475              		.text
 476              	.Letext0:
 477              		.file 2 "c:\\program files (x86)\\cypress\\psoc creator\\4.0\\psoc creator\\import\\gnu\\arm\\4.9.
 478              		.file 3 "c:\\program files (x86)\\cypress\\psoc creator\\4.0\\psoc creator\\import\\gnu\\arm\\4.9.
 479              		.file 4 "Generated_Source\\PSoC5/cytypes.h"
 480              		.file 5 "u8g.h"
 481              		.file 6 "Generated_Source\\PSoC5/core_cm3.h"
 482              		.file 7 "temp_manage.h"
 483              		.file 8 "global_variables.h"