ARM GAS  C:\Users\KJA\AppData\Local\Temp\ccDXwrPm.s 			page 1


   1              		.syntax unified
   2              		.cpu cortex-m3
   3              		.fpu softvfp
   4              		.eabi_attribute 20, 1
   5              		.eabi_attribute 21, 1
   6              		.eabi_attribute 23, 3
   7              		.eabi_attribute 24, 1
   8              		.eabi_attribute 25, 1
   9              		.eabi_attribute 26, 1
  10              		.eabi_attribute 30, 6
  11              		.eabi_attribute 34, 1
  12              		.eabi_attribute 18, 4
  13              		.thumb
  14              		.file	"u8g_pb.c"
  15              		.text
  16              	.Ltext0:
  17              		.cfi_sections	.debug_frame
  18              		.section	.text.u8g_pb_Clear,"ax",%progbits
  19              		.align	2
  20              		.global	u8g_pb_Clear
  21              		.thumb
  22              		.thumb_func
  23              		.type	u8g_pb_Clear, %function
  24              	u8g_pb_Clear:
  25              	.LFB0:
  26              		.file 1 "u8glib_arm_v1.18.1\\src\\u8g_pb.c"
   1:u8glib_arm_v1.18.1\src/u8g_pb.c **** /*
   2:u8glib_arm_v1.18.1\src/u8g_pb.c **** 
   3:u8glib_arm_v1.18.1\src/u8g_pb.c ****   u8g_pb.c
   4:u8glib_arm_v1.18.1\src/u8g_pb.c ****   
   5:u8glib_arm_v1.18.1\src/u8g_pb.c ****   common procedures for the page buffer
   6:u8glib_arm_v1.18.1\src/u8g_pb.c **** 
   7:u8glib_arm_v1.18.1\src/u8g_pb.c ****   Universal 8bit Graphics Library
   8:u8glib_arm_v1.18.1\src/u8g_pb.c ****   
   9:u8glib_arm_v1.18.1\src/u8g_pb.c ****   Copyright (c) 2011, olikraus@gmail.com
  10:u8glib_arm_v1.18.1\src/u8g_pb.c ****   All rights reserved.
  11:u8glib_arm_v1.18.1\src/u8g_pb.c **** 
  12:u8glib_arm_v1.18.1\src/u8g_pb.c ****   Redistribution and use in source and binary forms, with or without modification, 
  13:u8glib_arm_v1.18.1\src/u8g_pb.c ****   are permitted provided that the following conditions are met:
  14:u8glib_arm_v1.18.1\src/u8g_pb.c **** 
  15:u8glib_arm_v1.18.1\src/u8g_pb.c ****   * Redistributions of source code must retain the above copyright notice, this list 
  16:u8glib_arm_v1.18.1\src/u8g_pb.c ****     of conditions and the following disclaimer.
  17:u8glib_arm_v1.18.1\src/u8g_pb.c ****     
  18:u8glib_arm_v1.18.1\src/u8g_pb.c ****   * Redistributions in binary form must reproduce the above copyright notice, this 
  19:u8glib_arm_v1.18.1\src/u8g_pb.c ****     list of conditions and the following disclaimer in the documentation and/or other 
  20:u8glib_arm_v1.18.1\src/u8g_pb.c ****     materials provided with the distribution.
  21:u8glib_arm_v1.18.1\src/u8g_pb.c **** 
  22:u8glib_arm_v1.18.1\src/u8g_pb.c ****   THIS SOFTWARE IS PROVIDED BY THE COPYRIGHT HOLDERS AND 
  23:u8glib_arm_v1.18.1\src/u8g_pb.c ****   CONTRIBUTORS "AS IS" AND ANY EXPRESS OR IMPLIED WARRANTIES, 
  24:u8glib_arm_v1.18.1\src/u8g_pb.c ****   INCLUDING, BUT NOT LIMITED TO, THE IMPLIED WARRANTIES OF 
  25:u8glib_arm_v1.18.1\src/u8g_pb.c ****   MERCHANTABILITY AND FITNESS FOR A PARTICULAR PURPOSE ARE 
  26:u8glib_arm_v1.18.1\src/u8g_pb.c ****   DISCLAIMED. IN NO EVENT SHALL THE COPYRIGHT HOLDER OR 
  27:u8glib_arm_v1.18.1\src/u8g_pb.c ****   CONTRIBUTORS BE LIABLE FOR ANY DIRECT, INDIRECT, INCIDENTAL, 
  28:u8glib_arm_v1.18.1\src/u8g_pb.c ****   SPECIAL, EXEMPLARY, OR CONSEQUENTIAL DAMAGES (INCLUDING, BUT 
  29:u8glib_arm_v1.18.1\src/u8g_pb.c ****   NOT LIMITED TO, PROCUREMENT OF SUBSTITUTE GOODS OR SERVICES; 
  30:u8glib_arm_v1.18.1\src/u8g_pb.c ****   LOSS OF USE, DATA, OR PROFITS; OR BUSINESS INTERRUPTION) HOWEVER 
  31:u8glib_arm_v1.18.1\src/u8g_pb.c ****   CAUSED AND ON ANY THEORY OF LIABILITY, WHETHER IN CONTRACT, 
ARM GAS  C:\Users\KJA\AppData\Local\Temp\ccDXwrPm.s 			page 2


  32:u8glib_arm_v1.18.1\src/u8g_pb.c ****   STRICT LIABILITY, OR TORT (INCLUDING NEGLIGENCE OR OTHERWISE) 
  33:u8glib_arm_v1.18.1\src/u8g_pb.c ****   ARISING IN ANY WAY OUT OF THE USE OF THIS SOFTWARE, EVEN IF 
  34:u8glib_arm_v1.18.1\src/u8g_pb.c ****   ADVISED OF THE POSSIBILITY OF SUCH DAMAGE.  
  35:u8glib_arm_v1.18.1\src/u8g_pb.c ****   
  36:u8glib_arm_v1.18.1\src/u8g_pb.c ****   
  37:u8glib_arm_v1.18.1\src/u8g_pb.c **** */
  38:u8glib_arm_v1.18.1\src/u8g_pb.c **** 
  39:u8glib_arm_v1.18.1\src/u8g_pb.c **** #include "u8g.h"
  40:u8glib_arm_v1.18.1\src/u8g_pb.c **** 
  41:u8glib_arm_v1.18.1\src/u8g_pb.c **** void u8g_pb_Clear(u8g_pb_t *b)
  42:u8glib_arm_v1.18.1\src/u8g_pb.c **** {
  27              		.loc 1 42 0
  28              		.cfi_startproc
  29              		@ args = 0, pretend = 0, frame = 16
  30              		@ frame_needed = 1, uses_anonymous_args = 0
  31              		@ link register save eliminated.
  32 0000 80B4     		push	{r7}
  33              		.cfi_def_cfa_offset 4
  34              		.cfi_offset 7, -4
  35 0002 85B0     		sub	sp, sp, #20
  36              		.cfi_def_cfa_offset 24
  37 0004 00AF     		add	r7, sp, #0
  38              		.cfi_def_cfa_register 7
  39 0006 7860     		str	r0, [r7, #4]
  43:u8glib_arm_v1.18.1\src/u8g_pb.c ****   uint8_t *ptr = (uint8_t *)b->buf;
  40              		.loc 1 43 0
  41 0008 7B68     		ldr	r3, [r7, #4]
  42 000a 9B68     		ldr	r3, [r3, #8]
  43 000c FB60     		str	r3, [r7, #12]
  44:u8glib_arm_v1.18.1\src/u8g_pb.c ****   uint8_t *end_ptr = ptr;
  44              		.loc 1 44 0
  45 000e FB68     		ldr	r3, [r7, #12]
  46 0010 BB60     		str	r3, [r7, #8]
  45:u8glib_arm_v1.18.1\src/u8g_pb.c ****   end_ptr += b->width;
  47              		.loc 1 45 0
  48 0012 7B68     		ldr	r3, [r7, #4]
  49 0014 5B79     		ldrb	r3, [r3, #5]	@ zero_extendqisi2
  50 0016 1A46     		mov	r2, r3
  51 0018 BB68     		ldr	r3, [r7, #8]
  52 001a 1344     		add	r3, r3, r2
  53 001c BB60     		str	r3, [r7, #8]
  54              	.L2:
  46:u8glib_arm_v1.18.1\src/u8g_pb.c ****   do
  47:u8glib_arm_v1.18.1\src/u8g_pb.c ****   {
  48:u8glib_arm_v1.18.1\src/u8g_pb.c ****     *ptr++ = 0;
  55              		.loc 1 48 0 discriminator 1
  56 001e FB68     		ldr	r3, [r7, #12]
  57 0020 5A1C     		adds	r2, r3, #1
  58 0022 FA60     		str	r2, [r7, #12]
  59 0024 0022     		movs	r2, #0
  60 0026 1A70     		strb	r2, [r3]
  49:u8glib_arm_v1.18.1\src/u8g_pb.c ****   } while( ptr != end_ptr );
  61              		.loc 1 49 0 discriminator 1
  62 0028 FA68     		ldr	r2, [r7, #12]
  63 002a BB68     		ldr	r3, [r7, #8]
  64 002c 9A42     		cmp	r2, r3
  65 002e F6D1     		bne	.L2
ARM GAS  C:\Users\KJA\AppData\Local\Temp\ccDXwrPm.s 			page 3


  50:u8glib_arm_v1.18.1\src/u8g_pb.c **** }
  66              		.loc 1 50 0
  67 0030 1437     		adds	r7, r7, #20
  68              		.cfi_def_cfa_offset 4
  69 0032 BD46     		mov	sp, r7
  70              		.cfi_def_cfa_register 13
  71              		@ sp needed
  72 0034 5DF8047B 		ldr	r7, [sp], #4
  73              		.cfi_restore 7
  74              		.cfi_def_cfa_offset 0
  75 0038 7047     		bx	lr
  76              		.cfi_endproc
  77              	.LFE0:
  78              		.size	u8g_pb_Clear, .-u8g_pb_Clear
  79 003a 00BF     		.section	.text.u8g_pb_IsYIntersection,"ax",%progbits
  80              		.align	2
  81              		.global	u8g_pb_IsYIntersection
  82              		.thumb
  83              		.thumb_func
  84              		.type	u8g_pb_IsYIntersection, %function
  85              	u8g_pb_IsYIntersection:
  86              	.LFB1:
  51:u8glib_arm_v1.18.1\src/u8g_pb.c **** 
  52:u8glib_arm_v1.18.1\src/u8g_pb.c **** /* the following procedure does not work. why? Can be checked with descpic */
  53:u8glib_arm_v1.18.1\src/u8g_pb.c **** /*
  54:u8glib_arm_v1.18.1\src/u8g_pb.c **** void u8g_pb_Clear(u8g_pb_t *b)
  55:u8glib_arm_v1.18.1\src/u8g_pb.c **** {
  56:u8glib_arm_v1.18.1\src/u8g_pb.c ****   uint8_t *ptr = (uint8_t *)b->buf;
  57:u8glib_arm_v1.18.1\src/u8g_pb.c ****   uint8_t cnt = b->width;
  58:u8glib_arm_v1.18.1\src/u8g_pb.c ****   do
  59:u8glib_arm_v1.18.1\src/u8g_pb.c ****   {
  60:u8glib_arm_v1.18.1\src/u8g_pb.c ****     *ptr++ = 0;
  61:u8glib_arm_v1.18.1\src/u8g_pb.c ****     cnt--;
  62:u8glib_arm_v1.18.1\src/u8g_pb.c ****   } while( cnt != 0 );
  63:u8glib_arm_v1.18.1\src/u8g_pb.c **** }
  64:u8glib_arm_v1.18.1\src/u8g_pb.c **** */
  65:u8glib_arm_v1.18.1\src/u8g_pb.c **** 
  66:u8glib_arm_v1.18.1\src/u8g_pb.c **** /*
  67:u8glib_arm_v1.18.1\src/u8g_pb.c ****   intersection assumptions:
  68:u8glib_arm_v1.18.1\src/u8g_pb.c ****     a1 <= a2 is always true    
  69:u8glib_arm_v1.18.1\src/u8g_pb.c **** */
  70:u8glib_arm_v1.18.1\src/u8g_pb.c ****   /*
  71:u8glib_arm_v1.18.1\src/u8g_pb.c ****     minimized version
  72:u8glib_arm_v1.18.1\src/u8g_pb.c ****     ---1----0 1             b1 <= a2 && b1 > b2
  73:u8glib_arm_v1.18.1\src/u8g_pb.c ****     -----1--0 1             b2 >= a1 && b1 > b2
  74:u8glib_arm_v1.18.1\src/u8g_pb.c ****     ---1-1--- 1             b1 <= a2 && b2 >= a1
  75:u8glib_arm_v1.18.1\src/u8g_pb.c ****   */
  76:u8glib_arm_v1.18.1\src/u8g_pb.c **** /*
  77:u8glib_arm_v1.18.1\src/u8g_pb.c **** uint8_t u8g_pb8v1_IsYIntersection___Old(u8g_pb_t *b, u8g_uint_t v0, u8g_uint_t v1)
  78:u8glib_arm_v1.18.1\src/u8g_pb.c **** {
  79:u8glib_arm_v1.18.1\src/u8g_pb.c ****   uint8_t c0, c1, c;
  80:u8glib_arm_v1.18.1\src/u8g_pb.c ****   c0 = v0 <= b->p.page_y1;
  81:u8glib_arm_v1.18.1\src/u8g_pb.c ****   c1 = v1 >= b->p.page_y0;
  82:u8glib_arm_v1.18.1\src/u8g_pb.c ****   c = v0 > v1;
  83:u8glib_arm_v1.18.1\src/u8g_pb.c ****   if ( c0 && c1 ) return 1;
  84:u8glib_arm_v1.18.1\src/u8g_pb.c ****   if ( c0 && c ) return 1;
  85:u8glib_arm_v1.18.1\src/u8g_pb.c ****   if ( c1 && c ) return 1;
ARM GAS  C:\Users\KJA\AppData\Local\Temp\ccDXwrPm.s 			page 4


  86:u8glib_arm_v1.18.1\src/u8g_pb.c ****   return 0;
  87:u8glib_arm_v1.18.1\src/u8g_pb.c **** }
  88:u8glib_arm_v1.18.1\src/u8g_pb.c **** */
  89:u8glib_arm_v1.18.1\src/u8g_pb.c **** 
  90:u8glib_arm_v1.18.1\src/u8g_pb.c **** uint8_t u8g_pb_IsYIntersection(u8g_pb_t *pb, u8g_uint_t v0, u8g_uint_t v1)
  91:u8glib_arm_v1.18.1\src/u8g_pb.c **** {
  87              		.loc 1 91 0
  88              		.cfi_startproc
  89              		@ args = 0, pretend = 0, frame = 16
  90              		@ frame_needed = 1, uses_anonymous_args = 0
  91              		@ link register save eliminated.
  92 0000 80B4     		push	{r7}
  93              		.cfi_def_cfa_offset 4
  94              		.cfi_offset 7, -4
  95 0002 85B0     		sub	sp, sp, #20
  96              		.cfi_def_cfa_offset 24
  97 0004 00AF     		add	r7, sp, #0
  98              		.cfi_def_cfa_register 7
  99 0006 7860     		str	r0, [r7, #4]
 100 0008 0B46     		mov	r3, r1
 101 000a FB70     		strb	r3, [r7, #3]
 102 000c 1346     		mov	r3, r2
 103 000e BB70     		strb	r3, [r7, #2]
  92:u8glib_arm_v1.18.1\src/u8g_pb.c ****   uint8_t c1, c2, c3, tmp;
  93:u8glib_arm_v1.18.1\src/u8g_pb.c ****   c1 = v0 <= pb->p.page_y1;
 104              		.loc 1 93 0
 105 0010 7B68     		ldr	r3, [r7, #4]
 106 0012 DB78     		ldrb	r3, [r3, #3]	@ zero_extendqisi2
 107 0014 FA78     		ldrb	r2, [r7, #3]	@ zero_extendqisi2
 108 0016 9A42     		cmp	r2, r3
 109 0018 94BF     		ite	ls
 110 001a 0123     		movls	r3, #1
 111 001c 0023     		movhi	r3, #0
 112 001e DBB2     		uxtb	r3, r3
 113 0020 FB73     		strb	r3, [r7, #15]
  94:u8glib_arm_v1.18.1\src/u8g_pb.c ****   c2 = v1 >= pb->p.page_y0;
 114              		.loc 1 94 0
 115 0022 7B68     		ldr	r3, [r7, #4]
 116 0024 9B78     		ldrb	r3, [r3, #2]	@ zero_extendqisi2
 117 0026 BA78     		ldrb	r2, [r7, #2]	@ zero_extendqisi2
 118 0028 9A42     		cmp	r2, r3
 119 002a 2CBF     		ite	cs
 120 002c 0123     		movcs	r3, #1
 121 002e 0023     		movcc	r3, #0
 122 0030 DBB2     		uxtb	r3, r3
 123 0032 BB73     		strb	r3, [r7, #14]
  95:u8glib_arm_v1.18.1\src/u8g_pb.c ****   c3 = v0 > v1;
 124              		.loc 1 95 0
 125 0034 FA78     		ldrb	r2, [r7, #3]	@ zero_extendqisi2
 126 0036 BB78     		ldrb	r3, [r7, #2]	@ zero_extendqisi2
 127 0038 9A42     		cmp	r2, r3
 128 003a 8CBF     		ite	hi
 129 003c 0123     		movhi	r3, #1
 130 003e 0023     		movls	r3, #0
 131 0040 DBB2     		uxtb	r3, r3
 132 0042 7B73     		strb	r3, [r7, #13]
  96:u8glib_arm_v1.18.1\src/u8g_pb.c ****   /*
ARM GAS  C:\Users\KJA\AppData\Local\Temp\ccDXwrPm.s 			page 5


  97:u8glib_arm_v1.18.1\src/u8g_pb.c ****   if ( c1 && c2 )
  98:u8glib_arm_v1.18.1\src/u8g_pb.c ****     return 1;
  99:u8glib_arm_v1.18.1\src/u8g_pb.c ****   if ( c1 && c3 )
 100:u8glib_arm_v1.18.1\src/u8g_pb.c ****     return 1;
 101:u8glib_arm_v1.18.1\src/u8g_pb.c ****   if ( c2 && c3 )
 102:u8glib_arm_v1.18.1\src/u8g_pb.c ****     return 1;
 103:u8glib_arm_v1.18.1\src/u8g_pb.c ****   return 0;
 104:u8glib_arm_v1.18.1\src/u8g_pb.c ****   */
 105:u8glib_arm_v1.18.1\src/u8g_pb.c ****   
 106:u8glib_arm_v1.18.1\src/u8g_pb.c ****   tmp = c1;
 133              		.loc 1 106 0
 134 0044 FB7B     		ldrb	r3, [r7, #15]
 135 0046 3B73     		strb	r3, [r7, #12]
 107:u8glib_arm_v1.18.1\src/u8g_pb.c ****   c1 &= c2;
 136              		.loc 1 107 0
 137 0048 FA7B     		ldrb	r2, [r7, #15]
 138 004a BB7B     		ldrb	r3, [r7, #14]
 139 004c 1340     		ands	r3, r3, r2
 140 004e FB73     		strb	r3, [r7, #15]
 108:u8glib_arm_v1.18.1\src/u8g_pb.c ****   c2 &= c3;
 141              		.loc 1 108 0
 142 0050 BA7B     		ldrb	r2, [r7, #14]
 143 0052 7B7B     		ldrb	r3, [r7, #13]
 144 0054 1340     		ands	r3, r3, r2
 145 0056 BB73     		strb	r3, [r7, #14]
 109:u8glib_arm_v1.18.1\src/u8g_pb.c ****   c3 &= tmp;
 146              		.loc 1 109 0
 147 0058 7A7B     		ldrb	r2, [r7, #13]
 148 005a 3B7B     		ldrb	r3, [r7, #12]
 149 005c 1340     		ands	r3, r3, r2
 150 005e 7B73     		strb	r3, [r7, #13]
 110:u8glib_arm_v1.18.1\src/u8g_pb.c ****   c1 |= c2;
 151              		.loc 1 110 0
 152 0060 FA7B     		ldrb	r2, [r7, #15]
 153 0062 BB7B     		ldrb	r3, [r7, #14]
 154 0064 1343     		orrs	r3, r3, r2
 155 0066 FB73     		strb	r3, [r7, #15]
 111:u8glib_arm_v1.18.1\src/u8g_pb.c ****   c1 |= c3;
 156              		.loc 1 111 0
 157 0068 FA7B     		ldrb	r2, [r7, #15]
 158 006a 7B7B     		ldrb	r3, [r7, #13]
 159 006c 1343     		orrs	r3, r3, r2
 160 006e FB73     		strb	r3, [r7, #15]
 112:u8glib_arm_v1.18.1\src/u8g_pb.c ****   return c1 & 1;
 161              		.loc 1 112 0
 162 0070 FB7B     		ldrb	r3, [r7, #15]
 163 0072 03F00103 		and	r3, r3, #1
 164 0076 DBB2     		uxtb	r3, r3
 113:u8glib_arm_v1.18.1\src/u8g_pb.c **** }
 165              		.loc 1 113 0
 166 0078 1846     		mov	r0, r3
 167 007a 1437     		adds	r7, r7, #20
 168              		.cfi_def_cfa_offset 4
 169 007c BD46     		mov	sp, r7
 170              		.cfi_def_cfa_register 13
 171              		@ sp needed
 172 007e 5DF8047B 		ldr	r7, [sp], #4
ARM GAS  C:\Users\KJA\AppData\Local\Temp\ccDXwrPm.s 			page 6


 173              		.cfi_restore 7
 174              		.cfi_def_cfa_offset 0
 175 0082 7047     		bx	lr
 176              		.cfi_endproc
 177              	.LFE1:
 178              		.size	u8g_pb_IsYIntersection, .-u8g_pb_IsYIntersection
 179              		.section	.text.u8g_pb_IsXIntersection,"ax",%progbits
 180              		.align	2
 181              		.global	u8g_pb_IsXIntersection
 182              		.thumb
 183              		.thumb_func
 184              		.type	u8g_pb_IsXIntersection, %function
 185              	u8g_pb_IsXIntersection:
 186              	.LFB2:
 114:u8glib_arm_v1.18.1\src/u8g_pb.c **** 
 115:u8glib_arm_v1.18.1\src/u8g_pb.c **** 
 116:u8glib_arm_v1.18.1\src/u8g_pb.c **** uint8_t u8g_pb_IsXIntersection(u8g_pb_t *b, u8g_uint_t v0, u8g_uint_t v1)
 117:u8glib_arm_v1.18.1\src/u8g_pb.c **** {
 187              		.loc 1 117 0
 188              		.cfi_startproc
 189              		@ args = 0, pretend = 0, frame = 16
 190              		@ frame_needed = 1, uses_anonymous_args = 0
 191              		@ link register save eliminated.
 192 0000 80B4     		push	{r7}
 193              		.cfi_def_cfa_offset 4
 194              		.cfi_offset 7, -4
 195 0002 85B0     		sub	sp, sp, #20
 196              		.cfi_def_cfa_offset 24
 197 0004 00AF     		add	r7, sp, #0
 198              		.cfi_def_cfa_register 7
 199 0006 7860     		str	r0, [r7, #4]
 200 0008 0B46     		mov	r3, r1
 201 000a FB70     		strb	r3, [r7, #3]
 202 000c 1346     		mov	r3, r2
 203 000e BB70     		strb	r3, [r7, #2]
 118:u8glib_arm_v1.18.1\src/u8g_pb.c ****   uint8_t /*c0, c1, */ c2, c3;
 119:u8glib_arm_v1.18.1\src/u8g_pb.c ****   /*
 120:u8glib_arm_v1.18.1\src/u8g_pb.c ****     conditions: b->p.page_y0 < b->p.page_y1
 121:u8glib_arm_v1.18.1\src/u8g_pb.c ****     there are no restriction on v0 and v1. If v0 > v1, then warp around unsigned is assumed
 122:u8glib_arm_v1.18.1\src/u8g_pb.c ****   */
 123:u8glib_arm_v1.18.1\src/u8g_pb.c ****   /*
 124:u8glib_arm_v1.18.1\src/u8g_pb.c ****   c0 = v0 < 0;
 125:u8glib_arm_v1.18.1\src/u8g_pb.c ****   c1 = v1 < 0;
 126:u8glib_arm_v1.18.1\src/u8g_pb.c ****   */
 127:u8glib_arm_v1.18.1\src/u8g_pb.c ****   c2 = v0 > b->width;
 204              		.loc 1 127 0
 205 0010 7B68     		ldr	r3, [r7, #4]
 206 0012 5B79     		ldrb	r3, [r3, #5]	@ zero_extendqisi2
 207 0014 FA78     		ldrb	r2, [r7, #3]	@ zero_extendqisi2
 208 0016 9A42     		cmp	r2, r3
 209 0018 8CBF     		ite	hi
 210 001a 0123     		movhi	r3, #1
 211 001c 0023     		movls	r3, #0
 212 001e DBB2     		uxtb	r3, r3
 213 0020 FB73     		strb	r3, [r7, #15]
 128:u8glib_arm_v1.18.1\src/u8g_pb.c ****   c3 = v1 > b->width;
 214              		.loc 1 128 0
ARM GAS  C:\Users\KJA\AppData\Local\Temp\ccDXwrPm.s 			page 7


 215 0022 7B68     		ldr	r3, [r7, #4]
 216 0024 5B79     		ldrb	r3, [r3, #5]	@ zero_extendqisi2
 217 0026 BA78     		ldrb	r2, [r7, #2]	@ zero_extendqisi2
 218 0028 9A42     		cmp	r2, r3
 219 002a 8CBF     		ite	hi
 220 002c 0123     		movhi	r3, #1
 221 002e 0023     		movls	r3, #0
 222 0030 DBB2     		uxtb	r3, r3
 223 0032 BB73     		strb	r3, [r7, #14]
 129:u8glib_arm_v1.18.1\src/u8g_pb.c ****   /*if ( c0 && c1 ) return 0;*/
 130:u8glib_arm_v1.18.1\src/u8g_pb.c ****   if ( c2 && c3 ) return 0;
 224              		.loc 1 130 0
 225 0034 FB7B     		ldrb	r3, [r7, #15]	@ zero_extendqisi2
 226 0036 002B     		cmp	r3, #0
 227 0038 04D0     		beq	.L6
 228              		.loc 1 130 0 is_stmt 0 discriminator 1
 229 003a BB7B     		ldrb	r3, [r7, #14]	@ zero_extendqisi2
 230 003c 002B     		cmp	r3, #0
 231 003e 01D0     		beq	.L6
 232              		.loc 1 130 0 discriminator 2
 233 0040 0023     		movs	r3, #0
 234 0042 00E0     		b	.L7
 235              	.L6:
 131:u8glib_arm_v1.18.1\src/u8g_pb.c ****   /*if ( c1 && c2 ) return 0;*/
 132:u8glib_arm_v1.18.1\src/u8g_pb.c ****   return 1;
 236              		.loc 1 132 0 is_stmt 1
 237 0044 0123     		movs	r3, #1
 238              	.L7:
 133:u8glib_arm_v1.18.1\src/u8g_pb.c **** }
 239              		.loc 1 133 0
 240 0046 1846     		mov	r0, r3
 241 0048 1437     		adds	r7, r7, #20
 242              		.cfi_def_cfa_offset 4
 243 004a BD46     		mov	sp, r7
 244              		.cfi_def_cfa_register 13
 245              		@ sp needed
 246 004c 5DF8047B 		ldr	r7, [sp], #4
 247              		.cfi_restore 7
 248              		.cfi_def_cfa_offset 0
 249 0050 7047     		bx	lr
 250              		.cfi_endproc
 251              	.LFE2:
 252              		.size	u8g_pb_IsXIntersection, .-u8g_pb_IsXIntersection
 253 0052 00BF     		.section	.text.u8g_pb_IsIntersection,"ax",%progbits
 254              		.align	2
 255              		.global	u8g_pb_IsIntersection
 256              		.thumb
 257              		.thumb_func
 258              		.type	u8g_pb_IsIntersection, %function
 259              	u8g_pb_IsIntersection:
 260              	.LFB3:
 134:u8glib_arm_v1.18.1\src/u8g_pb.c **** 
 135:u8glib_arm_v1.18.1\src/u8g_pb.c **** uint8_t u8g_pb_IsIntersection(u8g_pb_t *pb, u8g_dev_arg_bbx_t *bbx)
 136:u8glib_arm_v1.18.1\src/u8g_pb.c **** {
 261              		.loc 1 136 0
 262              		.cfi_startproc
 263              		@ args = 0, pretend = 0, frame = 16
ARM GAS  C:\Users\KJA\AppData\Local\Temp\ccDXwrPm.s 			page 8


 264              		@ frame_needed = 1, uses_anonymous_args = 0
 265 0000 80B5     		push	{r7, lr}
 266              		.cfi_def_cfa_offset 8
 267              		.cfi_offset 7, -8
 268              		.cfi_offset 14, -4
 269 0002 84B0     		sub	sp, sp, #16
 270              		.cfi_def_cfa_offset 24
 271 0004 00AF     		add	r7, sp, #0
 272              		.cfi_def_cfa_register 7
 273 0006 7860     		str	r0, [r7, #4]
 274 0008 3960     		str	r1, [r7]
 137:u8glib_arm_v1.18.1\src/u8g_pb.c ****   u8g_uint_t tmp;
 138:u8glib_arm_v1.18.1\src/u8g_pb.c **** 
 139:u8glib_arm_v1.18.1\src/u8g_pb.c ****   tmp = bbx->y;
 275              		.loc 1 139 0
 276 000a 3B68     		ldr	r3, [r7]
 277 000c 5B78     		ldrb	r3, [r3, #1]
 278 000e FB73     		strb	r3, [r7, #15]
 140:u8glib_arm_v1.18.1\src/u8g_pb.c ****   tmp += bbx->h;
 279              		.loc 1 140 0
 280 0010 3B68     		ldr	r3, [r7]
 281 0012 DA78     		ldrb	r2, [r3, #3]	@ zero_extendqisi2
 282 0014 FB7B     		ldrb	r3, [r7, #15]
 283 0016 1344     		add	r3, r3, r2
 284 0018 FB73     		strb	r3, [r7, #15]
 141:u8glib_arm_v1.18.1\src/u8g_pb.c ****   tmp--;
 285              		.loc 1 141 0
 286 001a FB7B     		ldrb	r3, [r7, #15]	@ zero_extendqisi2
 287 001c 013B     		subs	r3, r3, #1
 288 001e FB73     		strb	r3, [r7, #15]
 142:u8glib_arm_v1.18.1\src/u8g_pb.c ****   
 143:u8glib_arm_v1.18.1\src/u8g_pb.c ****   if ( u8g_pb_IsYIntersection(pb, bbx->y, tmp) == 0 )
 289              		.loc 1 143 0
 290 0020 3B68     		ldr	r3, [r7]
 291 0022 5A78     		ldrb	r2, [r3, #1]	@ zero_extendqisi2
 292 0024 FB7B     		ldrb	r3, [r7, #15]	@ zero_extendqisi2
 293 0026 7868     		ldr	r0, [r7, #4]
 294 0028 1146     		mov	r1, r2
 295 002a 1A46     		mov	r2, r3
 296 002c FFF7FEFF 		bl	u8g_pb_IsYIntersection
 297 0030 0346     		mov	r3, r0
 298 0032 002B     		cmp	r3, #0
 299 0034 01D1     		bne	.L9
 144:u8glib_arm_v1.18.1\src/u8g_pb.c ****     return 0;
 300              		.loc 1 144 0
 301 0036 0023     		movs	r3, #0
 302 0038 13E0     		b	.L10
 303              	.L9:
 145:u8glib_arm_v1.18.1\src/u8g_pb.c ****   
 146:u8glib_arm_v1.18.1\src/u8g_pb.c ****   /* maybe this one can be skiped... probability is very high to have an intersection, so it would 
 147:u8glib_arm_v1.18.1\src/u8g_pb.c ****   tmp = bbx->x;
 304              		.loc 1 147 0
 305 003a 3B68     		ldr	r3, [r7]
 306 003c 1B78     		ldrb	r3, [r3]
 307 003e FB73     		strb	r3, [r7, #15]
 148:u8glib_arm_v1.18.1\src/u8g_pb.c ****   tmp += bbx->w;
 308              		.loc 1 148 0
ARM GAS  C:\Users\KJA\AppData\Local\Temp\ccDXwrPm.s 			page 9


 309 0040 3B68     		ldr	r3, [r7]
 310 0042 9A78     		ldrb	r2, [r3, #2]	@ zero_extendqisi2
 311 0044 FB7B     		ldrb	r3, [r7, #15]
 312 0046 1344     		add	r3, r3, r2
 313 0048 FB73     		strb	r3, [r7, #15]
 149:u8glib_arm_v1.18.1\src/u8g_pb.c ****   tmp--;
 314              		.loc 1 149 0
 315 004a FB7B     		ldrb	r3, [r7, #15]	@ zero_extendqisi2
 316 004c 013B     		subs	r3, r3, #1
 317 004e FB73     		strb	r3, [r7, #15]
 150:u8glib_arm_v1.18.1\src/u8g_pb.c ****     
 151:u8glib_arm_v1.18.1\src/u8g_pb.c ****   return u8g_pb_IsXIntersection(pb, bbx->x, tmp);
 318              		.loc 1 151 0
 319 0050 3B68     		ldr	r3, [r7]
 320 0052 1A78     		ldrb	r2, [r3]	@ zero_extendqisi2
 321 0054 FB7B     		ldrb	r3, [r7, #15]	@ zero_extendqisi2
 322 0056 7868     		ldr	r0, [r7, #4]
 323 0058 1146     		mov	r1, r2
 324 005a 1A46     		mov	r2, r3
 325 005c FFF7FEFF 		bl	u8g_pb_IsXIntersection
 326 0060 0346     		mov	r3, r0
 327              	.L10:
 152:u8glib_arm_v1.18.1\src/u8g_pb.c **** }
 328              		.loc 1 152 0
 329 0062 1846     		mov	r0, r3
 330 0064 1037     		adds	r7, r7, #16
 331              		.cfi_def_cfa_offset 8
 332 0066 BD46     		mov	sp, r7
 333              		.cfi_def_cfa_register 13
 334              		@ sp needed
 335 0068 80BD     		pop	{r7, pc}
 336              		.cfi_endproc
 337              	.LFE3:
 338              		.size	u8g_pb_IsIntersection, .-u8g_pb_IsIntersection
 339 006a 00BF     		.section	.text.u8g_pb_GetPageBox,"ax",%progbits
 340              		.align	2
 341              		.global	u8g_pb_GetPageBox
 342              		.thumb
 343              		.thumb_func
 344              		.type	u8g_pb_GetPageBox, %function
 345              	u8g_pb_GetPageBox:
 346              	.LFB4:
 153:u8glib_arm_v1.18.1\src/u8g_pb.c **** 
 154:u8glib_arm_v1.18.1\src/u8g_pb.c **** void u8g_pb_GetPageBox(u8g_pb_t *pb, u8g_box_t *box)
 155:u8glib_arm_v1.18.1\src/u8g_pb.c **** {
 347              		.loc 1 155 0
 348              		.cfi_startproc
 349              		@ args = 0, pretend = 0, frame = 8
 350              		@ frame_needed = 1, uses_anonymous_args = 0
 351              		@ link register save eliminated.
 352 0000 80B4     		push	{r7}
 353              		.cfi_def_cfa_offset 4
 354              		.cfi_offset 7, -4
 355 0002 83B0     		sub	sp, sp, #12
 356              		.cfi_def_cfa_offset 16
 357 0004 00AF     		add	r7, sp, #0
 358              		.cfi_def_cfa_register 7
ARM GAS  C:\Users\KJA\AppData\Local\Temp\ccDXwrPm.s 			page 10


 359 0006 7860     		str	r0, [r7, #4]
 360 0008 3960     		str	r1, [r7]
 156:u8glib_arm_v1.18.1\src/u8g_pb.c ****   box->x0 = 0;
 361              		.loc 1 156 0
 362 000a 3B68     		ldr	r3, [r7]
 363 000c 0022     		movs	r2, #0
 364 000e 1A70     		strb	r2, [r3]
 157:u8glib_arm_v1.18.1\src/u8g_pb.c ****   box->y0 = pb->p.page_y0;
 365              		.loc 1 157 0
 366 0010 7B68     		ldr	r3, [r7, #4]
 367 0012 9A78     		ldrb	r2, [r3, #2]	@ zero_extendqisi2
 368 0014 3B68     		ldr	r3, [r7]
 369 0016 5A70     		strb	r2, [r3, #1]
 158:u8glib_arm_v1.18.1\src/u8g_pb.c ****   box->x1 = pb->width;
 370              		.loc 1 158 0
 371 0018 7B68     		ldr	r3, [r7, #4]
 372 001a 5A79     		ldrb	r2, [r3, #5]	@ zero_extendqisi2
 373 001c 3B68     		ldr	r3, [r7]
 374 001e 9A70     		strb	r2, [r3, #2]
 159:u8glib_arm_v1.18.1\src/u8g_pb.c ****   box->x1--;
 375              		.loc 1 159 0
 376 0020 3B68     		ldr	r3, [r7]
 377 0022 9B78     		ldrb	r3, [r3, #2]	@ zero_extendqisi2
 378 0024 013B     		subs	r3, r3, #1
 379 0026 DAB2     		uxtb	r2, r3
 380 0028 3B68     		ldr	r3, [r7]
 381 002a 9A70     		strb	r2, [r3, #2]
 160:u8glib_arm_v1.18.1\src/u8g_pb.c ****   box->y1 = pb->p.page_y1;
 382              		.loc 1 160 0
 383 002c 7B68     		ldr	r3, [r7, #4]
 384 002e DA78     		ldrb	r2, [r3, #3]	@ zero_extendqisi2
 385 0030 3B68     		ldr	r3, [r7]
 386 0032 DA70     		strb	r2, [r3, #3]
 161:u8glib_arm_v1.18.1\src/u8g_pb.c **** }
 387              		.loc 1 161 0
 388 0034 0C37     		adds	r7, r7, #12
 389              		.cfi_def_cfa_offset 4
 390 0036 BD46     		mov	sp, r7
 391              		.cfi_def_cfa_register 13
 392              		@ sp needed
 393 0038 5DF8047B 		ldr	r7, [sp], #4
 394              		.cfi_restore 7
 395              		.cfi_def_cfa_offset 0
 396 003c 7047     		bx	lr
 397              		.cfi_endproc
 398              	.LFE4:
 399              		.size	u8g_pb_GetPageBox, .-u8g_pb_GetPageBox
 400 003e 00BF     		.section	.text.u8g_pb_Is8PixelVisible,"ax",%progbits
 401              		.align	2
 402              		.global	u8g_pb_Is8PixelVisible
 403              		.thumb
 404              		.thumb_func
 405              		.type	u8g_pb_Is8PixelVisible, %function
 406              	u8g_pb_Is8PixelVisible:
 407              	.LFB5:
 162:u8glib_arm_v1.18.1\src/u8g_pb.c **** 
 163:u8glib_arm_v1.18.1\src/u8g_pb.c **** 
ARM GAS  C:\Users\KJA\AppData\Local\Temp\ccDXwrPm.s 			page 11


 164:u8glib_arm_v1.18.1\src/u8g_pb.c **** uint8_t u8g_pb_Is8PixelVisible(u8g_pb_t *b, u8g_dev_arg_pixel_t *arg_pixel)
 165:u8glib_arm_v1.18.1\src/u8g_pb.c **** {
 408              		.loc 1 165 0
 409              		.cfi_startproc
 410              		@ args = 0, pretend = 0, frame = 16
 411              		@ frame_needed = 1, uses_anonymous_args = 0
 412 0000 80B5     		push	{r7, lr}
 413              		.cfi_def_cfa_offset 8
 414              		.cfi_offset 7, -8
 415              		.cfi_offset 14, -4
 416 0002 84B0     		sub	sp, sp, #16
 417              		.cfi_def_cfa_offset 24
 418 0004 00AF     		add	r7, sp, #0
 419              		.cfi_def_cfa_register 7
 420 0006 7860     		str	r0, [r7, #4]
 421 0008 3960     		str	r1, [r7]
 166:u8glib_arm_v1.18.1\src/u8g_pb.c ****   u8g_uint_t v0, v1;
 167:u8glib_arm_v1.18.1\src/u8g_pb.c ****   v0 = arg_pixel->y;
 422              		.loc 1 167 0
 423 000a 3B68     		ldr	r3, [r7]
 424 000c 5B78     		ldrb	r3, [r3, #1]
 425 000e FB73     		strb	r3, [r7, #15]
 168:u8glib_arm_v1.18.1\src/u8g_pb.c ****   v1 = v0;
 426              		.loc 1 168 0
 427 0010 FB7B     		ldrb	r3, [r7, #15]
 428 0012 BB73     		strb	r3, [r7, #14]
 169:u8glib_arm_v1.18.1\src/u8g_pb.c ****   switch( arg_pixel->dir )
 429              		.loc 1 169 0
 430 0014 3B68     		ldr	r3, [r7]
 431 0016 DB78     		ldrb	r3, [r3, #3]	@ zero_extendqisi2
 432 0018 032B     		cmp	r3, #3
 433 001a 13D8     		bhi	.L13
 434 001c 01A2     		adr	r2, .L15
 435 001e 52F823F0 		ldr	pc, [r2, r3, lsl #2]
 436 0022 00BF     		.p2align 2
 437              	.L15:
 438 0024 45000000 		.word	.L13+1
 439 0028 35000000 		.word	.L16+1
 440 002c 45000000 		.word	.L13+1
 441 0030 3D000000 		.word	.L18+1
 442              		.p2align 1
 443              	.L16:
 170:u8glib_arm_v1.18.1\src/u8g_pb.c ****   {
 171:u8glib_arm_v1.18.1\src/u8g_pb.c ****     case 0:
 172:u8glib_arm_v1.18.1\src/u8g_pb.c ****       break;
 173:u8glib_arm_v1.18.1\src/u8g_pb.c ****     case 1:  
 174:u8glib_arm_v1.18.1\src/u8g_pb.c ****       v1 += 8;          /* this is independent from the page height */
 444              		.loc 1 174 0
 445 0034 BB7B     		ldrb	r3, [r7, #14]
 446 0036 0833     		adds	r3, r3, #8
 447 0038 BB73     		strb	r3, [r7, #14]
 175:u8glib_arm_v1.18.1\src/u8g_pb.c ****       break;
 448              		.loc 1 175 0
 449 003a 03E0     		b	.L13
 450              	.L18:
 176:u8glib_arm_v1.18.1\src/u8g_pb.c ****     case 2:  
 177:u8glib_arm_v1.18.1\src/u8g_pb.c ****       break;
ARM GAS  C:\Users\KJA\AppData\Local\Temp\ccDXwrPm.s 			page 12


 178:u8glib_arm_v1.18.1\src/u8g_pb.c ****     case 3: 
 179:u8glib_arm_v1.18.1\src/u8g_pb.c ****       v0 -= 8;
 451              		.loc 1 179 0
 452 003c FB7B     		ldrb	r3, [r7, #15]
 453 003e 083B     		subs	r3, r3, #8
 454 0040 FB73     		strb	r3, [r7, #15]
 180:u8glib_arm_v1.18.1\src/u8g_pb.c ****       break;
 455              		.loc 1 180 0
 456 0042 00BF     		nop
 457              	.L13:
 181:u8glib_arm_v1.18.1\src/u8g_pb.c ****   }
 182:u8glib_arm_v1.18.1\src/u8g_pb.c ****   return u8g_pb_IsYIntersection(b, v0, v1);
 458              		.loc 1 182 0
 459 0044 FA7B     		ldrb	r2, [r7, #15]	@ zero_extendqisi2
 460 0046 BB7B     		ldrb	r3, [r7, #14]	@ zero_extendqisi2
 461 0048 7868     		ldr	r0, [r7, #4]
 462 004a 1146     		mov	r1, r2
 463 004c 1A46     		mov	r2, r3
 464 004e FFF7FEFF 		bl	u8g_pb_IsYIntersection
 465 0052 0346     		mov	r3, r0
 183:u8glib_arm_v1.18.1\src/u8g_pb.c **** }
 466              		.loc 1 183 0
 467 0054 1846     		mov	r0, r3
 468 0056 1037     		adds	r7, r7, #16
 469              		.cfi_def_cfa_offset 8
 470 0058 BD46     		mov	sp, r7
 471              		.cfi_def_cfa_register 13
 472              		@ sp needed
 473 005a 80BD     		pop	{r7, pc}
 474              		.cfi_endproc
 475              	.LFE5:
 476              		.size	u8g_pb_Is8PixelVisible, .-u8g_pb_Is8PixelVisible
 477              		.section	.text.u8g_pb_WriteBuffer,"ax",%progbits
 478              		.align	2
 479              		.global	u8g_pb_WriteBuffer
 480              		.thumb
 481              		.thumb_func
 482              		.type	u8g_pb_WriteBuffer, %function
 483              	u8g_pb_WriteBuffer:
 484              	.LFB6:
 184:u8glib_arm_v1.18.1\src/u8g_pb.c **** 
 185:u8glib_arm_v1.18.1\src/u8g_pb.c **** 
 186:u8glib_arm_v1.18.1\src/u8g_pb.c **** 
 187:u8glib_arm_v1.18.1\src/u8g_pb.c **** uint8_t u8g_pb_WriteBuffer(u8g_pb_t *b, u8g_t *u8g, u8g_dev_t *dev)
 188:u8glib_arm_v1.18.1\src/u8g_pb.c **** {
 485              		.loc 1 188 0
 486              		.cfi_startproc
 487              		@ args = 0, pretend = 0, frame = 16
 488              		@ frame_needed = 1, uses_anonymous_args = 0
 489 0000 80B5     		push	{r7, lr}
 490              		.cfi_def_cfa_offset 8
 491              		.cfi_offset 7, -8
 492              		.cfi_offset 14, -4
 493 0002 84B0     		sub	sp, sp, #16
 494              		.cfi_def_cfa_offset 24
 495 0004 00AF     		add	r7, sp, #0
 496              		.cfi_def_cfa_register 7
ARM GAS  C:\Users\KJA\AppData\Local\Temp\ccDXwrPm.s 			page 13


 497 0006 F860     		str	r0, [r7, #12]
 498 0008 B960     		str	r1, [r7, #8]
 499 000a 7A60     		str	r2, [r7, #4]
 189:u8glib_arm_v1.18.1\src/u8g_pb.c ****   return u8g_WriteSequence(u8g, dev, b->width, b->buf);  
 500              		.loc 1 189 0
 501 000c FB68     		ldr	r3, [r7, #12]
 502 000e 5A79     		ldrb	r2, [r3, #5]	@ zero_extendqisi2
 503 0010 FB68     		ldr	r3, [r7, #12]
 504 0012 9B68     		ldr	r3, [r3, #8]
 505 0014 B868     		ldr	r0, [r7, #8]
 506 0016 7968     		ldr	r1, [r7, #4]
 507 0018 FFF7FEFF 		bl	u8g_WriteSequence
 508 001c 0346     		mov	r3, r0
 190:u8glib_arm_v1.18.1\src/u8g_pb.c **** }
 509              		.loc 1 190 0
 510 001e 1846     		mov	r0, r3
 511 0020 1037     		adds	r7, r7, #16
 512              		.cfi_def_cfa_offset 8
 513 0022 BD46     		mov	sp, r7
 514              		.cfi_def_cfa_register 13
 515              		@ sp needed
 516 0024 80BD     		pop	{r7, pc}
 517              		.cfi_endproc
 518              	.LFE6:
 519              		.size	u8g_pb_WriteBuffer, .-u8g_pb_WriteBuffer
 520 0026 00BF     		.text
 521              	.Letext0:
 522              		.file 2 "c:\\program files (x86)\\cypress\\psoc creator\\4.0\\psoc creator\\import\\gnu\\arm\\4.9.
 523              		.file 3 "c:\\program files (x86)\\cypress\\psoc creator\\4.0\\psoc creator\\import\\gnu\\arm\\4.9.
 524              		.file 4 "u8glib_arm_v1.18.1\\src\\u8g.h"