ARM GAS  C:\Users\Shiguruy\AppData\Local\Temp\cc8BazMh.s 			page 1


   1              		.syntax unified
   2              		.cpu cortex-m3
   3              		.fpu softvfp
   4              		.eabi_attribute 20, 1
   5              		.eabi_attribute 21, 1
   6              		.eabi_attribute 23, 3
   7              		.eabi_attribute 24, 1
   8              		.eabi_attribute 25, 1
   9              		.eabi_attribute 26, 1
  10              		.eabi_attribute 30, 6
  11              		.eabi_attribute 34, 1
  12              		.eabi_attribute 18, 4
  13              		.thumb
  14              		.file	"u8g_dev_lc7981_240x64.c"
  15              		.text
  16              	.Ltext0:
  17              		.cfi_sections	.debug_frame
  18              		.section	.rodata
  19              		.align	2
  20              		.type	u8g_dev_lc7981_240x64_init_seq, %object
  21              		.size	u8g_dev_lc7981_240x64_init_seq, 52
  22              	u8g_dev_lc7981_240x64_init_seq:
  23 0000 FF       		.byte	-1
  24 0001 D0       		.byte	-48
  25 0002 FF       		.byte	-1
  26 0003 E1       		.byte	-31
  27 0004 FF       		.byte	-1
  28 0005 CF       		.byte	-49
  29 0006 FF       		.byte	-1
  30 0007 D1       		.byte	-47
  31 0008 FF       		.byte	-1
  32 0009 32       		.byte	50
  33 000a FF       		.byte	-1
  34 000b E1       		.byte	-31
  35 000c 00       		.byte	0
  36 000d FF       		.byte	-1
  37 000e E0       		.byte	-32
  38 000f 32       		.byte	50
  39 0010 FF       		.byte	-1
  40 0011 E1       		.byte	-31
  41 0012 01       		.byte	1
  42 0013 FF       		.byte	-1
  43 0014 E0       		.byte	-32
  44 0015 07       		.byte	7
  45 0016 FF       		.byte	-1
  46 0017 E1       		.byte	-31
  47 0018 02       		.byte	2
  48 0019 FF       		.byte	-1
  49 001a E0       		.byte	-32
  50 001b 1D       		.byte	29
  51 001c FF       		.byte	-1
  52 001d E1       		.byte	-31
  53 001e 03       		.byte	3
  54 001f FF       		.byte	-1
  55 0020 E0       		.byte	-32
  56 0021 7F       		.byte	127
  57 0022 FF       		.byte	-1
ARM GAS  C:\Users\Shiguruy\AppData\Local\Temp\cc8BazMh.s 			page 2


  58 0023 E1       		.byte	-31
  59 0024 08       		.byte	8
  60 0025 FF       		.byte	-1
  61 0026 E0       		.byte	-32
  62 0027 00       		.byte	0
  63 0028 FF       		.byte	-1
  64 0029 E1       		.byte	-31
  65 002a 09       		.byte	9
  66 002b FF       		.byte	-1
  67 002c E0       		.byte	-32
  68 002d 00       		.byte	0
  69 002e FF       		.byte	-1
  70 002f 0A       		.byte	10
  71 0030 FF       		.byte	-1
  72 0031 D0       		.byte	-48
  73 0032 FF       		.byte	-1
  74 0033 FE       		.byte	-2
  75              		.section	.text.u8g_dev_lc7981_240x64_fn,"ax",%progbits
  76              		.align	2
  77              		.global	u8g_dev_lc7981_240x64_fn
  78              		.thumb
  79              		.thumb_func
  80              		.type	u8g_dev_lc7981_240x64_fn, %function
  81              	u8g_dev_lc7981_240x64_fn:
  82              	.LFB0:
  83              		.file 1 ".\\u8glib_arm_v1.18.1\\src\\u8g_dev_lc7981_240x64.c"
   1:.\u8glib_arm_v1.18.1\src/u8g_dev_lc7981_240x64.c **** /*
   2:.\u8glib_arm_v1.18.1\src/u8g_dev_lc7981_240x64.c **** 
   3:.\u8glib_arm_v1.18.1\src/u8g_dev_lc7981_240x64.c ****   u8g_dev_lc7981_240x64.c
   4:.\u8glib_arm_v1.18.1\src/u8g_dev_lc7981_240x64.c ****   
   5:.\u8glib_arm_v1.18.1\src/u8g_dev_lc7981_240x64.c ****   Tested with Nan Ya LM_J6_003_
   6:.\u8glib_arm_v1.18.1\src/u8g_dev_lc7981_240x64.c ****   
   7:.\u8glib_arm_v1.18.1\src/u8g_dev_lc7981_240x64.c ****   Universal 8bit Graphics Library
   8:.\u8glib_arm_v1.18.1\src/u8g_dev_lc7981_240x64.c ****   
   9:.\u8glib_arm_v1.18.1\src/u8g_dev_lc7981_240x64.c ****   Copyright (c) 2012, olikraus@gmail.com
  10:.\u8glib_arm_v1.18.1\src/u8g_dev_lc7981_240x64.c ****   All rights reserved.
  11:.\u8glib_arm_v1.18.1\src/u8g_dev_lc7981_240x64.c **** 
  12:.\u8glib_arm_v1.18.1\src/u8g_dev_lc7981_240x64.c ****   Redistribution and use in source and binary forms, with or without modification, 
  13:.\u8glib_arm_v1.18.1\src/u8g_dev_lc7981_240x64.c ****   are permitted provided that the following conditions are met:
  14:.\u8glib_arm_v1.18.1\src/u8g_dev_lc7981_240x64.c **** 
  15:.\u8glib_arm_v1.18.1\src/u8g_dev_lc7981_240x64.c ****   * Redistributions of source code must retain the above copyright notice, this list 
  16:.\u8glib_arm_v1.18.1\src/u8g_dev_lc7981_240x64.c ****     of conditions and the following disclaimer.
  17:.\u8glib_arm_v1.18.1\src/u8g_dev_lc7981_240x64.c ****     
  18:.\u8glib_arm_v1.18.1\src/u8g_dev_lc7981_240x64.c ****   * Redistributions in binary form must reproduce the above copyright notice, this 
  19:.\u8glib_arm_v1.18.1\src/u8g_dev_lc7981_240x64.c ****     list of conditions and the following disclaimer in the documentation and/or other 
  20:.\u8glib_arm_v1.18.1\src/u8g_dev_lc7981_240x64.c ****     materials provided with the distribution.
  21:.\u8glib_arm_v1.18.1\src/u8g_dev_lc7981_240x64.c **** 
  22:.\u8glib_arm_v1.18.1\src/u8g_dev_lc7981_240x64.c ****   THIS SOFTWARE IS PROVIDED BY THE COPYRIGHT HOLDERS AND 
  23:.\u8glib_arm_v1.18.1\src/u8g_dev_lc7981_240x64.c ****   CONTRIBUTORS "AS IS" AND ANY EXPRESS OR IMPLIED WARRANTIES, 
  24:.\u8glib_arm_v1.18.1\src/u8g_dev_lc7981_240x64.c ****   INCLUDING, BUT NOT LIMITED TO, THE IMPLIED WARRANTIES OF 
  25:.\u8glib_arm_v1.18.1\src/u8g_dev_lc7981_240x64.c ****   MERCHANTABILITY AND FITNESS FOR A PARTICULAR PURPOSE ARE 
  26:.\u8glib_arm_v1.18.1\src/u8g_dev_lc7981_240x64.c ****   DISCLAIMED. IN NO EVENT SHALL THE COPYRIGHT HOLDER OR 
  27:.\u8glib_arm_v1.18.1\src/u8g_dev_lc7981_240x64.c ****   CONTRIBUTORS BE LIABLE FOR ANY DIRECT, INDIRECT, INCIDENTAL, 
  28:.\u8glib_arm_v1.18.1\src/u8g_dev_lc7981_240x64.c ****   SPECIAL, EXEMPLARY, OR CONSEQUENTIAL DAMAGES (INCLUDING, BUT 
  29:.\u8glib_arm_v1.18.1\src/u8g_dev_lc7981_240x64.c ****   NOT LIMITED TO, PROCUREMENT OF SUBSTITUTE GOODS OR SERVICES; 
  30:.\u8glib_arm_v1.18.1\src/u8g_dev_lc7981_240x64.c ****   LOSS OF USE, DATA, OR PROFITS; OR BUSINESS INTERRUPTION) HOWEVER 
  31:.\u8glib_arm_v1.18.1\src/u8g_dev_lc7981_240x64.c ****   CAUSED AND ON ANY THEORY OF LIABILITY, WHETHER IN CONTRACT, 
ARM GAS  C:\Users\Shiguruy\AppData\Local\Temp\cc8BazMh.s 			page 3


  32:.\u8glib_arm_v1.18.1\src/u8g_dev_lc7981_240x64.c ****   STRICT LIABILITY, OR TORT (INCLUDING NEGLIGENCE OR OTHERWISE) 
  33:.\u8glib_arm_v1.18.1\src/u8g_dev_lc7981_240x64.c ****   ARISING IN ANY WAY OUT OF THE USE OF THIS SOFTWARE, EVEN IF 
  34:.\u8glib_arm_v1.18.1\src/u8g_dev_lc7981_240x64.c ****   ADVISED OF THE POSSIBILITY OF SUCH DAMAGE.  
  35:.\u8glib_arm_v1.18.1\src/u8g_dev_lc7981_240x64.c ****   
  36:.\u8glib_arm_v1.18.1\src/u8g_dev_lc7981_240x64.c ****   
  37:.\u8glib_arm_v1.18.1\src/u8g_dev_lc7981_240x64.c **** */
  38:.\u8glib_arm_v1.18.1\src/u8g_dev_lc7981_240x64.c **** 
  39:.\u8glib_arm_v1.18.1\src/u8g_dev_lc7981_240x64.c **** #include "u8g.h"
  40:.\u8glib_arm_v1.18.1\src/u8g_dev_lc7981_240x64.c **** 
  41:.\u8glib_arm_v1.18.1\src/u8g_dev_lc7981_240x64.c **** #define WIDTH 240
  42:.\u8glib_arm_v1.18.1\src/u8g_dev_lc7981_240x64.c **** #define HEIGHT 64
  43:.\u8glib_arm_v1.18.1\src/u8g_dev_lc7981_240x64.c **** #define PAGE_HEIGHT 8
  44:.\u8glib_arm_v1.18.1\src/u8g_dev_lc7981_240x64.c **** 
  45:.\u8glib_arm_v1.18.1\src/u8g_dev_lc7981_240x64.c **** 
  46:.\u8glib_arm_v1.18.1\src/u8g_dev_lc7981_240x64.c **** /*
  47:.\u8glib_arm_v1.18.1\src/u8g_dev_lc7981_240x64.c ****   http://www.mark-products.com/graphics.htm#240x64%20Pixel%20Format
  48:.\u8glib_arm_v1.18.1\src/u8g_dev_lc7981_240x64.c **** */
  49:.\u8glib_arm_v1.18.1\src/u8g_dev_lc7981_240x64.c **** 
  50:.\u8glib_arm_v1.18.1\src/u8g_dev_lc7981_240x64.c **** static const uint8_t u8g_dev_lc7981_240x64_init_seq[] PROGMEM = {
  51:.\u8glib_arm_v1.18.1\src/u8g_dev_lc7981_240x64.c ****   U8G_ESC_CS(0),             /* disable chip */
  52:.\u8glib_arm_v1.18.1\src/u8g_dev_lc7981_240x64.c ****   U8G_ESC_ADR(1),           /* instruction mode */
  53:.\u8glib_arm_v1.18.1\src/u8g_dev_lc7981_240x64.c ****   U8G_ESC_RST(15),           /* do reset low pulse with (15*16)+2 milliseconds (=maximum delay)*/
  54:.\u8glib_arm_v1.18.1\src/u8g_dev_lc7981_240x64.c ****   U8G_ESC_CS(1),             /* enable chip */
  55:.\u8glib_arm_v1.18.1\src/u8g_dev_lc7981_240x64.c ****   U8G_ESC_DLY(50),         /* delay 50 ms */
  56:.\u8glib_arm_v1.18.1\src/u8g_dev_lc7981_240x64.c ****   
  57:.\u8glib_arm_v1.18.1\src/u8g_dev_lc7981_240x64.c ****   
  58:.\u8glib_arm_v1.18.1\src/u8g_dev_lc7981_240x64.c ****   U8G_ESC_ADR(1),               /* instruction mode */
  59:.\u8glib_arm_v1.18.1\src/u8g_dev_lc7981_240x64.c ****   0x000,                                /* mode register */
  60:.\u8glib_arm_v1.18.1\src/u8g_dev_lc7981_240x64.c ****   U8G_ESC_ADR(0),               /* data mode */
  61:.\u8glib_arm_v1.18.1\src/u8g_dev_lc7981_240x64.c ****   0x032,                                /* display on (bit 5), master mode on (bit 4), graphics mod
  62:.\u8glib_arm_v1.18.1\src/u8g_dev_lc7981_240x64.c **** 
  63:.\u8glib_arm_v1.18.1\src/u8g_dev_lc7981_240x64.c ****   U8G_ESC_ADR(1),               /* instruction mode */
  64:.\u8glib_arm_v1.18.1\src/u8g_dev_lc7981_240x64.c ****   0x001,                                /* character/bits per pixel pitch */
  65:.\u8glib_arm_v1.18.1\src/u8g_dev_lc7981_240x64.c ****   U8G_ESC_ADR(0),               /* data mode */
  66:.\u8glib_arm_v1.18.1\src/u8g_dev_lc7981_240x64.c ****   0x007,                                /* 8 bits per pixel */
  67:.\u8glib_arm_v1.18.1\src/u8g_dev_lc7981_240x64.c **** 
  68:.\u8glib_arm_v1.18.1\src/u8g_dev_lc7981_240x64.c ****   U8G_ESC_ADR(1),               /* instruction mode */
  69:.\u8glib_arm_v1.18.1\src/u8g_dev_lc7981_240x64.c ****   0x002,                                /* number of chars/byte width of the screen */
  70:.\u8glib_arm_v1.18.1\src/u8g_dev_lc7981_240x64.c ****   U8G_ESC_ADR(0),               /* data mode */
  71:.\u8glib_arm_v1.18.1\src/u8g_dev_lc7981_240x64.c ****   WIDTH/8-1,                         /* 8 bits per pixel */
  72:.\u8glib_arm_v1.18.1\src/u8g_dev_lc7981_240x64.c **** 
  73:.\u8glib_arm_v1.18.1\src/u8g_dev_lc7981_240x64.c ****   U8G_ESC_ADR(1),               /* instruction mode */
  74:.\u8glib_arm_v1.18.1\src/u8g_dev_lc7981_240x64.c ****   0x003,                                /* time division */
  75:.\u8glib_arm_v1.18.1\src/u8g_dev_lc7981_240x64.c ****   U8G_ESC_ADR(0),               /* data mode */
  76:.\u8glib_arm_v1.18.1\src/u8g_dev_lc7981_240x64.c ****   0x07f,                                /*  */
  77:.\u8glib_arm_v1.18.1\src/u8g_dev_lc7981_240x64.c **** 
  78:.\u8glib_arm_v1.18.1\src/u8g_dev_lc7981_240x64.c ****   U8G_ESC_ADR(1),               /* instruction mode */
  79:.\u8glib_arm_v1.18.1\src/u8g_dev_lc7981_240x64.c ****   0x008,                                /* display start low */
  80:.\u8glib_arm_v1.18.1\src/u8g_dev_lc7981_240x64.c ****   U8G_ESC_ADR(0),               /* data mode */
  81:.\u8glib_arm_v1.18.1\src/u8g_dev_lc7981_240x64.c ****   0x000,                                /*  */
  82:.\u8glib_arm_v1.18.1\src/u8g_dev_lc7981_240x64.c **** 
  83:.\u8glib_arm_v1.18.1\src/u8g_dev_lc7981_240x64.c ****   U8G_ESC_ADR(1),               /* instruction mode */
  84:.\u8glib_arm_v1.18.1\src/u8g_dev_lc7981_240x64.c ****   0x009,                                /* display start high */
  85:.\u8glib_arm_v1.18.1\src/u8g_dev_lc7981_240x64.c ****   U8G_ESC_ADR(0),               /* data mode */
  86:.\u8glib_arm_v1.18.1\src/u8g_dev_lc7981_240x64.c ****   0x000,                                /*  */
  87:.\u8glib_arm_v1.18.1\src/u8g_dev_lc7981_240x64.c ****     
  88:.\u8glib_arm_v1.18.1\src/u8g_dev_lc7981_240x64.c ****   U8G_ESC_DLY(10),               /* delay 10 ms */
ARM GAS  C:\Users\Shiguruy\AppData\Local\Temp\cc8BazMh.s 			page 4


  89:.\u8glib_arm_v1.18.1\src/u8g_dev_lc7981_240x64.c ****   
  90:.\u8glib_arm_v1.18.1\src/u8g_dev_lc7981_240x64.c ****   U8G_ESC_CS(0),             /* disable chip */
  91:.\u8glib_arm_v1.18.1\src/u8g_dev_lc7981_240x64.c ****   U8G_ESC_END                /* end of sequence */
  92:.\u8glib_arm_v1.18.1\src/u8g_dev_lc7981_240x64.c **** };
  93:.\u8glib_arm_v1.18.1\src/u8g_dev_lc7981_240x64.c **** 
  94:.\u8glib_arm_v1.18.1\src/u8g_dev_lc7981_240x64.c **** uint8_t u8g_dev_lc7981_240x64_fn(u8g_t *u8g, u8g_dev_t *dev, uint8_t msg, void *arg)
  95:.\u8glib_arm_v1.18.1\src/u8g_dev_lc7981_240x64.c **** {
  84              		.loc 1 95 0
  85              		.cfi_startproc
  86              		@ args = 0, pretend = 0, frame = 32
  87              		@ frame_needed = 1, uses_anonymous_args = 0
  88 0000 80B5     		push	{r7, lr}
  89              		.cfi_def_cfa_offset 8
  90              		.cfi_offset 7, -8
  91              		.cfi_offset 14, -4
  92 0002 88B0     		sub	sp, sp, #32
  93              		.cfi_def_cfa_offset 40
  94 0004 00AF     		add	r7, sp, #0
  95              		.cfi_def_cfa_register 7
  96 0006 F860     		str	r0, [r7, #12]
  97 0008 B960     		str	r1, [r7, #8]
  98 000a 3B60     		str	r3, [r7]
  99 000c 1346     		mov	r3, r2
 100 000e FB71     		strb	r3, [r7, #7]
  96:.\u8glib_arm_v1.18.1\src/u8g_dev_lc7981_240x64.c ****   switch(msg)
 101              		.loc 1 96 0
 102 0010 FB79     		ldrb	r3, [r7, #7]	@ zero_extendqisi2
 103 0012 0B2B     		cmp	r3, #11
 104 0014 00F08280 		beq	.L9
 105 0018 152B     		cmp	r3, #21
 106 001a 0CD0     		beq	.L4
 107 001c 0A2B     		cmp	r3, #10
 108 001e 7ED1     		bne	.L2
  97:.\u8glib_arm_v1.18.1\src/u8g_dev_lc7981_240x64.c ****   {
  98:.\u8glib_arm_v1.18.1\src/u8g_dev_lc7981_240x64.c ****     case U8G_DEV_MSG_INIT:
  99:.\u8glib_arm_v1.18.1\src/u8g_dev_lc7981_240x64.c ****       u8g_InitCom(u8g, dev, U8G_SPI_CLK_CYCLE_NONE);
 109              		.loc 1 99 0
 110 0020 F868     		ldr	r0, [r7, #12]
 111 0022 B968     		ldr	r1, [r7, #8]
 112 0024 FF22     		movs	r2, #255
 113 0026 FFF7FEFF 		bl	u8g_InitCom
 100:.\u8glib_arm_v1.18.1\src/u8g_dev_lc7981_240x64.c ****       u8g_WriteEscSeqP(u8g, dev, u8g_dev_lc7981_240x64_init_seq);
 114              		.loc 1 100 0
 115 002a F868     		ldr	r0, [r7, #12]
 116 002c B968     		ldr	r1, [r7, #8]
 117 002e 424A     		ldr	r2, .L10
 118 0030 FFF7FEFF 		bl	u8g_WriteEscSeqP
 101:.\u8glib_arm_v1.18.1\src/u8g_dev_lc7981_240x64.c ****       break;
 119              		.loc 1 101 0
 120 0034 73E0     		b	.L2
 121              	.L4:
 122              	.LBB2:
 102:.\u8glib_arm_v1.18.1\src/u8g_dev_lc7981_240x64.c ****     case U8G_DEV_MSG_STOP:
 103:.\u8glib_arm_v1.18.1\src/u8g_dev_lc7981_240x64.c ****       break;
 104:.\u8glib_arm_v1.18.1\src/u8g_dev_lc7981_240x64.c ****     case U8G_DEV_MSG_PAGE_NEXT:
 105:.\u8glib_arm_v1.18.1\src/u8g_dev_lc7981_240x64.c ****       {
 106:.\u8glib_arm_v1.18.1\src/u8g_dev_lc7981_240x64.c ****         uint8_t y, i;
ARM GAS  C:\Users\Shiguruy\AppData\Local\Temp\cc8BazMh.s 			page 5


 107:.\u8glib_arm_v1.18.1\src/u8g_dev_lc7981_240x64.c ****         uint16_t disp_ram_adr;
 108:.\u8glib_arm_v1.18.1\src/u8g_dev_lc7981_240x64.c ****         uint8_t *ptr;
 109:.\u8glib_arm_v1.18.1\src/u8g_dev_lc7981_240x64.c ****         u8g_pb_t *pb = (u8g_pb_t *)(dev->dev_mem);
 123              		.loc 1 109 0
 124 0036 BB68     		ldr	r3, [r7, #8]
 125 0038 5B68     		ldr	r3, [r3, #4]
 126 003a 7B61     		str	r3, [r7, #20]
 110:.\u8glib_arm_v1.18.1\src/u8g_dev_lc7981_240x64.c ****         
 111:.\u8glib_arm_v1.18.1\src/u8g_dev_lc7981_240x64.c ****         u8g_SetAddress(u8g, dev, 1);           /* cmd mode */
 127              		.loc 1 111 0
 128 003c F868     		ldr	r0, [r7, #12]
 129 003e B968     		ldr	r1, [r7, #8]
 130 0040 0122     		movs	r2, #1
 131 0042 FFF7FEFF 		bl	u8g_SetAddress
 112:.\u8glib_arm_v1.18.1\src/u8g_dev_lc7981_240x64.c ****         u8g_SetChipSelect(u8g, dev, 1);
 132              		.loc 1 112 0
 133 0046 F868     		ldr	r0, [r7, #12]
 134 0048 B968     		ldr	r1, [r7, #8]
 135 004a 0122     		movs	r2, #1
 136 004c FFF7FEFF 		bl	u8g_SetChipSelect
 113:.\u8glib_arm_v1.18.1\src/u8g_dev_lc7981_240x64.c ****         y = pb->p.page_y0;
 137              		.loc 1 113 0
 138 0050 7B69     		ldr	r3, [r7, #20]
 139 0052 9B78     		ldrb	r3, [r3, #2]
 140 0054 FB74     		strb	r3, [r7, #19]
 114:.\u8glib_arm_v1.18.1\src/u8g_dev_lc7981_240x64.c ****         ptr = pb->buf;
 141              		.loc 1 114 0
 142 0056 7B69     		ldr	r3, [r7, #20]
 143 0058 9B68     		ldr	r3, [r3, #8]
 144 005a BB61     		str	r3, [r7, #24]
 115:.\u8glib_arm_v1.18.1\src/u8g_dev_lc7981_240x64.c ****         disp_ram_adr = WIDTH/8;
 145              		.loc 1 115 0
 146 005c 1E23     		movs	r3, #30
 147 005e BB83     		strh	r3, [r7, #28]	@ movhi
 116:.\u8glib_arm_v1.18.1\src/u8g_dev_lc7981_240x64.c ****         disp_ram_adr *= y;
 148              		.loc 1 116 0
 149 0060 FB7C     		ldrb	r3, [r7, #19]	@ zero_extendqisi2
 150 0062 9BB2     		uxth	r3, r3
 151 0064 BA8B     		ldrh	r2, [r7, #28]	@ movhi
 152 0066 02FB03F3 		mul	r3, r2, r3
 153 006a BB83     		strh	r3, [r7, #28]	@ movhi
 117:.\u8glib_arm_v1.18.1\src/u8g_dev_lc7981_240x64.c ****         for( i = 0; i < 8; i ++ )
 154              		.loc 1 117 0
 155 006c 0023     		movs	r3, #0
 156 006e FB77     		strb	r3, [r7, #31]
 157 0070 4BE0     		b	.L6
 158              	.L7:
 118:.\u8glib_arm_v1.18.1\src/u8g_dev_lc7981_240x64.c ****         {
 119:.\u8glib_arm_v1.18.1\src/u8g_dev_lc7981_240x64.c ****           u8g_SetAddress(u8g, dev, 1);           /* cmd mode */
 159              		.loc 1 119 0 discriminator 3
 160 0072 F868     		ldr	r0, [r7, #12]
 161 0074 B968     		ldr	r1, [r7, #8]
 162 0076 0122     		movs	r2, #1
 163 0078 FFF7FEFF 		bl	u8g_SetAddress
 120:.\u8glib_arm_v1.18.1\src/u8g_dev_lc7981_240x64.c ****           u8g_WriteByte(u8g, dev, 0x00a );      /* display ram (cursor) address low byte */
 164              		.loc 1 120 0 discriminator 3
 165 007c F868     		ldr	r0, [r7, #12]
ARM GAS  C:\Users\Shiguruy\AppData\Local\Temp\cc8BazMh.s 			page 6


 166 007e B968     		ldr	r1, [r7, #8]
 167 0080 0A22     		movs	r2, #10
 168 0082 FFF7FEFF 		bl	u8g_WriteByte
 121:.\u8glib_arm_v1.18.1\src/u8g_dev_lc7981_240x64.c ****           u8g_SetAddress(u8g, dev, 0);           /* data mode */
 169              		.loc 1 121 0 discriminator 3
 170 0086 F868     		ldr	r0, [r7, #12]
 171 0088 B968     		ldr	r1, [r7, #8]
 172 008a 0022     		movs	r2, #0
 173 008c FFF7FEFF 		bl	u8g_SetAddress
 122:.\u8glib_arm_v1.18.1\src/u8g_dev_lc7981_240x64.c ****           u8g_WriteByte(u8g, dev, disp_ram_adr & 0x0ff );  
 174              		.loc 1 122 0 discriminator 3
 175 0090 BB8B     		ldrh	r3, [r7, #28]	@ movhi
 176 0092 DBB2     		uxtb	r3, r3
 177 0094 F868     		ldr	r0, [r7, #12]
 178 0096 B968     		ldr	r1, [r7, #8]
 179 0098 1A46     		mov	r2, r3
 180 009a FFF7FEFF 		bl	u8g_WriteByte
 123:.\u8glib_arm_v1.18.1\src/u8g_dev_lc7981_240x64.c **** 
 124:.\u8glib_arm_v1.18.1\src/u8g_dev_lc7981_240x64.c ****           u8g_SetAddress(u8g, dev, 1);           /* cmd mode */
 181              		.loc 1 124 0 discriminator 3
 182 009e F868     		ldr	r0, [r7, #12]
 183 00a0 B968     		ldr	r1, [r7, #8]
 184 00a2 0122     		movs	r2, #1
 185 00a4 FFF7FEFF 		bl	u8g_SetAddress
 125:.\u8glib_arm_v1.18.1\src/u8g_dev_lc7981_240x64.c ****           u8g_WriteByte(u8g, dev, 0x00b );      /* display ram (cursor) address hight byte */
 186              		.loc 1 125 0 discriminator 3
 187 00a8 F868     		ldr	r0, [r7, #12]
 188 00aa B968     		ldr	r1, [r7, #8]
 189 00ac 0B22     		movs	r2, #11
 190 00ae FFF7FEFF 		bl	u8g_WriteByte
 126:.\u8glib_arm_v1.18.1\src/u8g_dev_lc7981_240x64.c ****           u8g_SetAddress(u8g, dev, 0);           /* data mode */
 191              		.loc 1 126 0 discriminator 3
 192 00b2 F868     		ldr	r0, [r7, #12]
 193 00b4 B968     		ldr	r1, [r7, #8]
 194 00b6 0022     		movs	r2, #0
 195 00b8 FFF7FEFF 		bl	u8g_SetAddress
 127:.\u8glib_arm_v1.18.1\src/u8g_dev_lc7981_240x64.c ****           u8g_WriteByte(u8g, dev, disp_ram_adr >> 8 );  
 196              		.loc 1 127 0 discriminator 3
 197 00bc BB8B     		ldrh	r3, [r7, #28]
 198 00be 1B0A     		lsrs	r3, r3, #8
 199 00c0 9BB2     		uxth	r3, r3
 200 00c2 DBB2     		uxtb	r3, r3
 201 00c4 F868     		ldr	r0, [r7, #12]
 202 00c6 B968     		ldr	r1, [r7, #8]
 203 00c8 1A46     		mov	r2, r3
 204 00ca FFF7FEFF 		bl	u8g_WriteByte
 128:.\u8glib_arm_v1.18.1\src/u8g_dev_lc7981_240x64.c ****           
 129:.\u8glib_arm_v1.18.1\src/u8g_dev_lc7981_240x64.c ****           u8g_SetAddress(u8g, dev, 1);           /* cmd mode */
 205              		.loc 1 129 0 discriminator 3
 206 00ce F868     		ldr	r0, [r7, #12]
 207 00d0 B968     		ldr	r1, [r7, #8]
 208 00d2 0122     		movs	r2, #1
 209 00d4 FFF7FEFF 		bl	u8g_SetAddress
 130:.\u8glib_arm_v1.18.1\src/u8g_dev_lc7981_240x64.c ****           u8g_WriteByte(u8g, dev, 0x00c );      /* write data */
 210              		.loc 1 130 0 discriminator 3
 211 00d8 F868     		ldr	r0, [r7, #12]
 212 00da B968     		ldr	r1, [r7, #8]
ARM GAS  C:\Users\Shiguruy\AppData\Local\Temp\cc8BazMh.s 			page 7


 213 00dc 0C22     		movs	r2, #12
 214 00de FFF7FEFF 		bl	u8g_WriteByte
 131:.\u8glib_arm_v1.18.1\src/u8g_dev_lc7981_240x64.c ****           u8g_SetAddress(u8g, dev, 0);           /* data mode */
 215              		.loc 1 131 0 discriminator 3
 216 00e2 F868     		ldr	r0, [r7, #12]
 217 00e4 B968     		ldr	r1, [r7, #8]
 218 00e6 0022     		movs	r2, #0
 219 00e8 FFF7FEFF 		bl	u8g_SetAddress
 132:.\u8glib_arm_v1.18.1\src/u8g_dev_lc7981_240x64.c ****           u8g_WriteSequence(u8g, dev, WIDTH/8, ptr);
 220              		.loc 1 132 0 discriminator 3
 221 00ec F868     		ldr	r0, [r7, #12]
 222 00ee B968     		ldr	r1, [r7, #8]
 223 00f0 1E22     		movs	r2, #30
 224 00f2 BB69     		ldr	r3, [r7, #24]
 225 00f4 FFF7FEFF 		bl	u8g_WriteSequence
 133:.\u8glib_arm_v1.18.1\src/u8g_dev_lc7981_240x64.c ****           ptr += WIDTH/8;
 226              		.loc 1 133 0 discriminator 3
 227 00f8 BB69     		ldr	r3, [r7, #24]
 228 00fa 1E33     		adds	r3, r3, #30
 229 00fc BB61     		str	r3, [r7, #24]
 134:.\u8glib_arm_v1.18.1\src/u8g_dev_lc7981_240x64.c ****           disp_ram_adr += WIDTH/8;
 230              		.loc 1 134 0 discriminator 3
 231 00fe BB8B     		ldrh	r3, [r7, #28]	@ movhi
 232 0100 1E33     		adds	r3, r3, #30
 233 0102 BB83     		strh	r3, [r7, #28]	@ movhi
 117:.\u8glib_arm_v1.18.1\src/u8g_dev_lc7981_240x64.c ****         {
 234              		.loc 1 117 0 discriminator 3
 235 0104 FB7F     		ldrb	r3, [r7, #31]	@ zero_extendqisi2
 236 0106 0133     		adds	r3, r3, #1
 237 0108 FB77     		strb	r3, [r7, #31]
 238              	.L6:
 117:.\u8glib_arm_v1.18.1\src/u8g_dev_lc7981_240x64.c ****         {
 239              		.loc 1 117 0 is_stmt 0 discriminator 1
 240 010a FB7F     		ldrb	r3, [r7, #31]	@ zero_extendqisi2
 241 010c 072B     		cmp	r3, #7
 242 010e B0D9     		bls	.L7
 135:.\u8glib_arm_v1.18.1\src/u8g_dev_lc7981_240x64.c ****         }
 136:.\u8glib_arm_v1.18.1\src/u8g_dev_lc7981_240x64.c ****         u8g_SetChipSelect(u8g, dev, 0);
 243              		.loc 1 136 0 is_stmt 1
 244 0110 F868     		ldr	r0, [r7, #12]
 245 0112 B968     		ldr	r1, [r7, #8]
 246 0114 0022     		movs	r2, #0
 247 0116 FFF7FEFF 		bl	u8g_SetChipSelect
 248              	.LBE2:
 137:.\u8glib_arm_v1.18.1\src/u8g_dev_lc7981_240x64.c ****       }
 138:.\u8glib_arm_v1.18.1\src/u8g_dev_lc7981_240x64.c ****       break;
 249              		.loc 1 138 0
 250 011a 00E0     		b	.L2
 251              	.L9:
 103:.\u8glib_arm_v1.18.1\src/u8g_dev_lc7981_240x64.c ****     case U8G_DEV_MSG_PAGE_NEXT:
 252              		.loc 1 103 0
 253 011c 00BF     		nop
 254              	.L2:
 139:.\u8glib_arm_v1.18.1\src/u8g_dev_lc7981_240x64.c ****   }
 140:.\u8glib_arm_v1.18.1\src/u8g_dev_lc7981_240x64.c ****   return u8g_dev_pb8h1f_base_fn(u8g, dev, msg, arg);
 255              		.loc 1 140 0
 256 011e FB79     		ldrb	r3, [r7, #7]	@ zero_extendqisi2
ARM GAS  C:\Users\Shiguruy\AppData\Local\Temp\cc8BazMh.s 			page 8


 257 0120 F868     		ldr	r0, [r7, #12]
 258 0122 B968     		ldr	r1, [r7, #8]
 259 0124 1A46     		mov	r2, r3
 260 0126 3B68     		ldr	r3, [r7]
 261 0128 FFF7FEFF 		bl	u8g_dev_pb8h1f_base_fn
 262 012c 0346     		mov	r3, r0
 141:.\u8glib_arm_v1.18.1\src/u8g_dev_lc7981_240x64.c **** }
 263              		.loc 1 141 0
 264 012e 1846     		mov	r0, r3
 265 0130 2037     		adds	r7, r7, #32
 266              		.cfi_def_cfa_offset 8
 267 0132 BD46     		mov	sp, r7
 268              		.cfi_def_cfa_register 13
 269              		@ sp needed
 270 0134 80BD     		pop	{r7, pc}
 271              	.L11:
 272 0136 00BF     		.align	2
 273              	.L10:
 274 0138 00000000 		.word	u8g_dev_lc7981_240x64_init_seq
 275              		.cfi_endproc
 276              	.LFE0:
 277              		.size	u8g_dev_lc7981_240x64_fn, .-u8g_dev_lc7981_240x64_fn
 278              		.global	u8g_dev_lc7981_240x64_8bit_buf
 279              		.bss
 280              		.align	2
 281              		.type	u8g_dev_lc7981_240x64_8bit_buf, %object
 282              		.size	u8g_dev_lc7981_240x64_8bit_buf, 240
 283              	u8g_dev_lc7981_240x64_8bit_buf:
 284 0000 00000000 		.space	240
 284      00000000 
 284      00000000 
 284      00000000 
 284      00000000 
 285              		.global	u8g_dev_lc7981_240x64_8bit_pb
 286              		.data
 287              		.align	2
 288              		.type	u8g_dev_lc7981_240x64_8bit_pb, %object
 289              		.size	u8g_dev_lc7981_240x64_8bit_pb, 12
 290              	u8g_dev_lc7981_240x64_8bit_pb:
 291 0000 08       		.byte	8
 292 0001 40       		.byte	64
 293 0002 00       		.byte	0
 294 0003 00       		.byte	0
 295 0004 00       		.byte	0
 296 0005 F0       		.byte	-16
 297 0006 0000     		.space	2
 298 0008 00000000 		.word	u8g_dev_lc7981_240x64_8bit_buf
 299              		.global	u8g_dev_lc7981_240x64_8bit
 300              		.align	2
 301              		.type	u8g_dev_lc7981_240x64_8bit, %object
 302              		.size	u8g_dev_lc7981_240x64_8bit, 12
 303              	u8g_dev_lc7981_240x64_8bit:
 304 000c 00000000 		.word	u8g_dev_lc7981_240x64_fn
 305 0010 00000000 		.word	u8g_dev_lc7981_240x64_8bit_pb
 306 0014 00000000 		.word	u8g_com_null_fn
 307              		.text
 308              	.Letext0:
ARM GAS  C:\Users\Shiguruy\AppData\Local\Temp\cc8BazMh.s 			page 9


 309              		.file 2 "c:\\program files (x86)\\cypress\\psoc creator\\3.3\\psoc creator\\import\\gnu\\arm\\4.9.
 310              		.file 3 "c:\\program files (x86)\\cypress\\psoc creator\\3.3\\psoc creator\\import\\gnu\\arm\\4.9.
 311              		.file 4 ".\\u8glib_arm_v1.18.1\\src\\u8g.h"