ARM GAS  C:\Users\KJA\AppData\Local\Temp\cctJxq0g.s 			page 1


   1              		.syntax unified
   2              		.cpu cortex-m3
   3              		.fpu softvfp
   4              		.eabi_attribute 20, 1
   5              		.eabi_attribute 21, 1
   6              		.eabi_attribute 23, 3
   7              		.eabi_attribute 24, 1
   8              		.eabi_attribute 25, 1
   9              		.eabi_attribute 26, 1
  10              		.eabi_attribute 30, 6
  11              		.eabi_attribute 34, 1
  12              		.eabi_attribute 18, 4
  13              		.thumb
  14              		.file	"u8g_state.c"
  15              		.text
  16              	.Ltext0:
  17              		.cfi_sections	.debug_frame
  18              		.section	.text.u8g_state_dummy_cb,"ax",%progbits
  19              		.align	2
  20              		.global	u8g_state_dummy_cb
  21              		.thumb
  22              		.thumb_func
  23              		.type	u8g_state_dummy_cb, %function
  24              	u8g_state_dummy_cb:
  25              	.LFB0:
  26              		.file 1 "u8glib_arm_v1.18.1\\src\\u8g_state.c"
   1:u8glib_arm_v1.18.1\src/u8g_state.c **** /*
   2:u8glib_arm_v1.18.1\src/u8g_state.c **** 
   3:u8glib_arm_v1.18.1\src/u8g_state.c ****   u8g_state.c
   4:u8glib_arm_v1.18.1\src/u8g_state.c ****   
   5:u8glib_arm_v1.18.1\src/u8g_state.c ****   backup and restore hardware state
   6:u8glib_arm_v1.18.1\src/u8g_state.c **** 
   7:u8glib_arm_v1.18.1\src/u8g_state.c ****   Universal 8bit Graphics Library
   8:u8glib_arm_v1.18.1\src/u8g_state.c ****   
   9:u8glib_arm_v1.18.1\src/u8g_state.c ****   Copyright (c) 2011, olikraus@gmail.com
  10:u8glib_arm_v1.18.1\src/u8g_state.c ****   All rights reserved.
  11:u8glib_arm_v1.18.1\src/u8g_state.c **** 
  12:u8glib_arm_v1.18.1\src/u8g_state.c ****   Redistribution and use in source and binary forms, with or without modification, 
  13:u8glib_arm_v1.18.1\src/u8g_state.c ****   are permitted provided that the following conditions are met:
  14:u8glib_arm_v1.18.1\src/u8g_state.c **** 
  15:u8glib_arm_v1.18.1\src/u8g_state.c ****   * Redistributions of source code must retain the above copyright notice, this list 
  16:u8glib_arm_v1.18.1\src/u8g_state.c ****     of conditions and the following disclaimer.
  17:u8glib_arm_v1.18.1\src/u8g_state.c ****     
  18:u8glib_arm_v1.18.1\src/u8g_state.c ****   * Redistributions in binary form must reproduce the above copyright notice, this 
  19:u8glib_arm_v1.18.1\src/u8g_state.c ****     list of conditions and the following disclaimer in the documentation and/or other 
  20:u8glib_arm_v1.18.1\src/u8g_state.c ****     materials provided with the distribution.
  21:u8glib_arm_v1.18.1\src/u8g_state.c **** 
  22:u8glib_arm_v1.18.1\src/u8g_state.c ****   THIS SOFTWARE IS PROVIDED BY THE COPYRIGHT HOLDERS AND 
  23:u8glib_arm_v1.18.1\src/u8g_state.c ****   CONTRIBUTORS "AS IS" AND ANY EXPRESS OR IMPLIED WARRANTIES, 
  24:u8glib_arm_v1.18.1\src/u8g_state.c ****   INCLUDING, BUT NOT LIMITED TO, THE IMPLIED WARRANTIES OF 
  25:u8glib_arm_v1.18.1\src/u8g_state.c ****   MERCHANTABILITY AND FITNESS FOR A PARTICULAR PURPOSE ARE 
  26:u8glib_arm_v1.18.1\src/u8g_state.c ****   DISCLAIMED. IN NO EVENT SHALL THE COPYRIGHT HOLDER OR 
  27:u8glib_arm_v1.18.1\src/u8g_state.c ****   CONTRIBUTORS BE LIABLE FOR ANY DIRECT, INDIRECT, INCIDENTAL, 
  28:u8glib_arm_v1.18.1\src/u8g_state.c ****   SPECIAL, EXEMPLARY, OR CONSEQUENTIAL DAMAGES (INCLUDING, BUT 
  29:u8glib_arm_v1.18.1\src/u8g_state.c ****   NOT LIMITED TO, PROCUREMENT OF SUBSTITUTE GOODS OR SERVICES; 
  30:u8glib_arm_v1.18.1\src/u8g_state.c ****   LOSS OF USE, DATA, OR PROFITS; OR BUSINESS INTERRUPTION) HOWEVER 
  31:u8glib_arm_v1.18.1\src/u8g_state.c ****   CAUSED AND ON ANY THEORY OF LIABILITY, WHETHER IN CONTRACT, 
ARM GAS  C:\Users\KJA\AppData\Local\Temp\cctJxq0g.s 			page 2


  32:u8glib_arm_v1.18.1\src/u8g_state.c ****   STRICT LIABILITY, OR TORT (INCLUDING NEGLIGENCE OR OTHERWISE) 
  33:u8glib_arm_v1.18.1\src/u8g_state.c ****   ARISING IN ANY WAY OUT OF THE USE OF THIS SOFTWARE, EVEN IF 
  34:u8glib_arm_v1.18.1\src/u8g_state.c ****   ADVISED OF THE POSSIBILITY OF SUCH DAMAGE.  
  35:u8glib_arm_v1.18.1\src/u8g_state.c ****   
  36:u8glib_arm_v1.18.1\src/u8g_state.c **** 
  37:u8glib_arm_v1.18.1\src/u8g_state.c ****   state callback: backup env U8G_STATE_MSG_BACKUP_ENV
  38:u8glib_arm_v1.18.1\src/u8g_state.c ****   device callback: DEV_MSG_INIT
  39:u8glib_arm_v1.18.1\src/u8g_state.c ****   state callback: backup u8g U8G_STATE_MSG_BACKUP_U8G
  40:u8glib_arm_v1.18.1\src/u8g_state.c ****   state callback: restore env U8G_STATE_MSG_RESTORE_ENV
  41:u8glib_arm_v1.18.1\src/u8g_state.c **** 
  42:u8glib_arm_v1.18.1\src/u8g_state.c ****   state callback: backup env U8G_STATE_MSG_BACKUP_ENV
  43:u8glib_arm_v1.18.1\src/u8g_state.c ****   state callback: retore u8g U8G_STATE_MSG_RESTORE_U8G
  44:u8glib_arm_v1.18.1\src/u8g_state.c ****   DEV_MSG_PAGE_FIRST or DEV_MSG_PAGE_NEXT
  45:u8glib_arm_v1.18.1\src/u8g_state.c ****   state callback: restore env U8G_STATE_MSG_RESTORE_ENV
  46:u8glib_arm_v1.18.1\src/u8g_state.c **** 
  47:u8glib_arm_v1.18.1\src/u8g_state.c **** */
  48:u8glib_arm_v1.18.1\src/u8g_state.c **** 
  49:u8glib_arm_v1.18.1\src/u8g_state.c **** #include <stddef.h>
  50:u8glib_arm_v1.18.1\src/u8g_state.c **** #include "u8g.h"
  51:u8glib_arm_v1.18.1\src/u8g_state.c **** 
  52:u8glib_arm_v1.18.1\src/u8g_state.c **** void u8g_state_dummy_cb(uint8_t msg)
  53:u8glib_arm_v1.18.1\src/u8g_state.c **** {
  27              		.loc 1 53 0
  28              		.cfi_startproc
  29              		@ args = 0, pretend = 0, frame = 8
  30              		@ frame_needed = 1, uses_anonymous_args = 0
  31              		@ link register save eliminated.
  32 0000 80B4     		push	{r7}
  33              		.cfi_def_cfa_offset 4
  34              		.cfi_offset 7, -4
  35 0002 83B0     		sub	sp, sp, #12
  36              		.cfi_def_cfa_offset 16
  37 0004 00AF     		add	r7, sp, #0
  38              		.cfi_def_cfa_register 7
  39 0006 0346     		mov	r3, r0
  40 0008 FB71     		strb	r3, [r7, #7]
  54:u8glib_arm_v1.18.1\src/u8g_state.c ****   /* the dummy procedure does nothing */
  55:u8glib_arm_v1.18.1\src/u8g_state.c **** }
  41              		.loc 1 55 0
  42 000a 0C37     		adds	r7, r7, #12
  43              		.cfi_def_cfa_offset 4
  44 000c BD46     		mov	sp, r7
  45              		.cfi_def_cfa_register 13
  46              		@ sp needed
  47 000e 5DF8047B 		ldr	r7, [sp], #4
  48              		.cfi_restore 7
  49              		.cfi_def_cfa_offset 0
  50 0012 7047     		bx	lr
  51              		.cfi_endproc
  52              	.LFE0:
  53              		.size	u8g_state_dummy_cb, .-u8g_state_dummy_cb
  54              		.section	.text.u8g_SetHardwareBackup,"ax",%progbits
  55              		.align	2
  56              		.global	u8g_SetHardwareBackup
  57              		.thumb
  58              		.thumb_func
  59              		.type	u8g_SetHardwareBackup, %function
ARM GAS  C:\Users\KJA\AppData\Local\Temp\cctJxq0g.s 			page 3


  60              	u8g_SetHardwareBackup:
  61              	.LFB1:
  56:u8glib_arm_v1.18.1\src/u8g_state.c **** 
  57:u8glib_arm_v1.18.1\src/u8g_state.c **** void u8g_SetHardwareBackup(u8g_t *u8g, u8g_state_cb backup_cb)
  58:u8glib_arm_v1.18.1\src/u8g_state.c **** {
  62              		.loc 1 58 0
  63              		.cfi_startproc
  64              		@ args = 0, pretend = 0, frame = 8
  65              		@ frame_needed = 1, uses_anonymous_args = 0
  66 0000 80B5     		push	{r7, lr}
  67              		.cfi_def_cfa_offset 8
  68              		.cfi_offset 7, -8
  69              		.cfi_offset 14, -4
  70 0002 82B0     		sub	sp, sp, #8
  71              		.cfi_def_cfa_offset 16
  72 0004 00AF     		add	r7, sp, #0
  73              		.cfi_def_cfa_register 7
  74 0006 7860     		str	r0, [r7, #4]
  75 0008 3960     		str	r1, [r7]
  59:u8glib_arm_v1.18.1\src/u8g_state.c ****   u8g->state_cb = backup_cb;
  76              		.loc 1 59 0
  77 000a 7B68     		ldr	r3, [r7, #4]
  78 000c 3A68     		ldr	r2, [r7]
  79 000e 5A63     		str	r2, [r3, #52]
  60:u8glib_arm_v1.18.1\src/u8g_state.c ****   /* in most cases the init message was already sent, so this will backup the */
  61:u8glib_arm_v1.18.1\src/u8g_state.c ****   /* current u8g state */
  62:u8glib_arm_v1.18.1\src/u8g_state.c ****   backup_cb(U8G_STATE_MSG_BACKUP_U8G);
  80              		.loc 1 62 0
  81 0010 3B68     		ldr	r3, [r7]
  82 0012 0320     		movs	r0, #3
  83 0014 9847     		blx	r3
  63:u8glib_arm_v1.18.1\src/u8g_state.c **** }
  84              		.loc 1 63 0
  85 0016 0837     		adds	r7, r7, #8
  86              		.cfi_def_cfa_offset 8
  87 0018 BD46     		mov	sp, r7
  88              		.cfi_def_cfa_register 13
  89              		@ sp needed
  90 001a 80BD     		pop	{r7, pc}
  91              		.cfi_endproc
  92              	.LFE1:
  93              		.size	u8g_SetHardwareBackup, .-u8g_SetHardwareBackup
  94              		.section	.text.u8g_backup_spi,"ax",%progbits
  95              		.align	2
  96              		.global	u8g_backup_spi
  97              		.thumb
  98              		.thumb_func
  99              		.type	u8g_backup_spi, %function
 100              	u8g_backup_spi:
 101              	.LFB2:
  64:u8glib_arm_v1.18.1\src/u8g_state.c **** 
  65:u8glib_arm_v1.18.1\src/u8g_state.c **** 
  66:u8glib_arm_v1.18.1\src/u8g_state.c **** /*===============================================================*/
  67:u8glib_arm_v1.18.1\src/u8g_state.c **** /* register variable for restoring interrupt state */
  68:u8glib_arm_v1.18.1\src/u8g_state.c **** 
  69:u8glib_arm_v1.18.1\src/u8g_state.c **** #if defined(__AVR__)
  70:u8glib_arm_v1.18.1\src/u8g_state.c **** uint8_t global_SREG_backup;
ARM GAS  C:\Users\KJA\AppData\Local\Temp\cctJxq0g.s 			page 4


  71:u8glib_arm_v1.18.1\src/u8g_state.c **** #endif
  72:u8glib_arm_v1.18.1\src/u8g_state.c **** 
  73:u8glib_arm_v1.18.1\src/u8g_state.c **** 
  74:u8glib_arm_v1.18.1\src/u8g_state.c **** 
  75:u8glib_arm_v1.18.1\src/u8g_state.c **** /*===============================================================*/
  76:u8glib_arm_v1.18.1\src/u8g_state.c **** /* AVR */
  77:u8glib_arm_v1.18.1\src/u8g_state.c **** 
  78:u8glib_arm_v1.18.1\src/u8g_state.c **** #if defined(__AVR__)
  79:u8glib_arm_v1.18.1\src/u8g_state.c **** #define U8G_ATMEGA_HW_SPI
  80:u8glib_arm_v1.18.1\src/u8g_state.c **** 
  81:u8glib_arm_v1.18.1\src/u8g_state.c **** /* remove the definition for attiny */
  82:u8glib_arm_v1.18.1\src/u8g_state.c **** #if __AVR_ARCH__ == 2
  83:u8glib_arm_v1.18.1\src/u8g_state.c **** #undef U8G_ATMEGA_HW_SPI
  84:u8glib_arm_v1.18.1\src/u8g_state.c **** #endif
  85:u8glib_arm_v1.18.1\src/u8g_state.c **** #if __AVR_ARCH__ == 25
  86:u8glib_arm_v1.18.1\src/u8g_state.c **** #undef U8G_ATMEGA_HW_SPI
  87:u8glib_arm_v1.18.1\src/u8g_state.c **** #endif
  88:u8glib_arm_v1.18.1\src/u8g_state.c **** #endif
  89:u8glib_arm_v1.18.1\src/u8g_state.c **** 
  90:u8glib_arm_v1.18.1\src/u8g_state.c **** #if defined(U8G_ATMEGA_HW_SPI)
  91:u8glib_arm_v1.18.1\src/u8g_state.c **** #include <avr/interrupt.h>
  92:u8glib_arm_v1.18.1\src/u8g_state.c **** static uint8_t u8g_state_avr_spi_memory[2];
  93:u8glib_arm_v1.18.1\src/u8g_state.c **** 
  94:u8glib_arm_v1.18.1\src/u8g_state.c **** void u8g_backup_spi(uint8_t msg)
  95:u8glib_arm_v1.18.1\src/u8g_state.c **** {
  96:u8glib_arm_v1.18.1\src/u8g_state.c ****   if ( U8G_STATE_MSG_IS_BACKUP(msg) )
  97:u8glib_arm_v1.18.1\src/u8g_state.c ****   {
  98:u8glib_arm_v1.18.1\src/u8g_state.c ****     u8g_state_avr_spi_memory[U8G_STATE_MSG_GET_IDX(msg)] = SPCR;
  99:u8glib_arm_v1.18.1\src/u8g_state.c ****   }
 100:u8glib_arm_v1.18.1\src/u8g_state.c ****   else
 101:u8glib_arm_v1.18.1\src/u8g_state.c ****   {
 102:u8glib_arm_v1.18.1\src/u8g_state.c ****     uint8_t tmp = SREG;
 103:u8glib_arm_v1.18.1\src/u8g_state.c ****     cli();
 104:u8glib_arm_v1.18.1\src/u8g_state.c ****     SPCR = 0;
 105:u8glib_arm_v1.18.1\src/u8g_state.c ****     SPCR = u8g_state_avr_spi_memory[U8G_STATE_MSG_GET_IDX(msg)];
 106:u8glib_arm_v1.18.1\src/u8g_state.c ****     SREG = tmp;
 107:u8glib_arm_v1.18.1\src/u8g_state.c ****   }
 108:u8glib_arm_v1.18.1\src/u8g_state.c **** }
 109:u8glib_arm_v1.18.1\src/u8g_state.c **** 
 110:u8glib_arm_v1.18.1\src/u8g_state.c **** #elif defined (U8G_RASPBERRY_PI)
 111:u8glib_arm_v1.18.1\src/u8g_state.c **** 
 112:u8glib_arm_v1.18.1\src/u8g_state.c **** #include <stdio.h>
 113:u8glib_arm_v1.18.1\src/u8g_state.c **** 
 114:u8glib_arm_v1.18.1\src/u8g_state.c **** void u8g_backup_spi(uint8_t msg) {
 115:u8glib_arm_v1.18.1\src/u8g_state.c ****   printf("u8g_backup_spi %d\r\n",msg);
 116:u8glib_arm_v1.18.1\src/u8g_state.c **** }
 117:u8glib_arm_v1.18.1\src/u8g_state.c **** 
 118:u8glib_arm_v1.18.1\src/u8g_state.c **** #elif defined(ARDUINO) && defined(__SAM3X8E__)		// Arduino Due, maybe we should better check for __
 119:u8glib_arm_v1.18.1\src/u8g_state.c **** 
 120:u8glib_arm_v1.18.1\src/u8g_state.c **** #include "sam.h"
 121:u8glib_arm_v1.18.1\src/u8g_state.c **** 
 122:u8glib_arm_v1.18.1\src/u8g_state.c **** struct sam_backup_struct
 123:u8glib_arm_v1.18.1\src/u8g_state.c **** {
 124:u8glib_arm_v1.18.1\src/u8g_state.c ****   uint32_t mr;
 125:u8glib_arm_v1.18.1\src/u8g_state.c ****   uint32_t sr;
 126:u8glib_arm_v1.18.1\src/u8g_state.c ****   uint32_t csr[4];  
 127:u8glib_arm_v1.18.1\src/u8g_state.c **** } sam_backup[2];
ARM GAS  C:\Users\KJA\AppData\Local\Temp\cctJxq0g.s 			page 5


 128:u8glib_arm_v1.18.1\src/u8g_state.c **** 
 129:u8glib_arm_v1.18.1\src/u8g_state.c **** void u8g_backup_spi(uint8_t msg)
 130:u8glib_arm_v1.18.1\src/u8g_state.c **** {
 131:u8glib_arm_v1.18.1\src/u8g_state.c ****   uint8_t idx = U8G_STATE_MSG_GET_IDX(msg);
 132:u8glib_arm_v1.18.1\src/u8g_state.c ****   if ( U8G_STATE_MSG_IS_BACKUP(msg) )
 133:u8glib_arm_v1.18.1\src/u8g_state.c ****   {
 134:u8glib_arm_v1.18.1\src/u8g_state.c ****     sam_backup[idx].mr = SPI0->SPI_MR;
 135:u8glib_arm_v1.18.1\src/u8g_state.c ****     sam_backup[idx].sr = SPI0->SPI_SR;
 136:u8glib_arm_v1.18.1\src/u8g_state.c ****     sam_backup[idx].csr[0] = SPI0->SPI_CSR[0];
 137:u8glib_arm_v1.18.1\src/u8g_state.c ****     sam_backup[idx].csr[1] = SPI0->SPI_CSR[1];
 138:u8glib_arm_v1.18.1\src/u8g_state.c ****     sam_backup[idx].csr[2] = SPI0->SPI_CSR[2];
 139:u8glib_arm_v1.18.1\src/u8g_state.c ****     sam_backup[idx].csr[3] = SPI0->SPI_CSR[3];
 140:u8glib_arm_v1.18.1\src/u8g_state.c ****   }
 141:u8glib_arm_v1.18.1\src/u8g_state.c ****   else
 142:u8glib_arm_v1.18.1\src/u8g_state.c ****   {
 143:u8glib_arm_v1.18.1\src/u8g_state.c ****     SPI0->SPI_MR = sam_backup[idx].mr;
 144:u8glib_arm_v1.18.1\src/u8g_state.c ****     SPI0->SPI_CSR[0] = sam_backup[idx].csr[0];
 145:u8glib_arm_v1.18.1\src/u8g_state.c ****     SPI0->SPI_CSR[1] = sam_backup[idx].csr[1];
 146:u8glib_arm_v1.18.1\src/u8g_state.c ****     SPI0->SPI_CSR[2] = sam_backup[idx].csr[2];
 147:u8glib_arm_v1.18.1\src/u8g_state.c ****     SPI0->SPI_CSR[3] = sam_backup[idx].csr[3];
 148:u8glib_arm_v1.18.1\src/u8g_state.c ****   }
 149:u8glib_arm_v1.18.1\src/u8g_state.c **** }
 150:u8glib_arm_v1.18.1\src/u8g_state.c **** 
 151:u8glib_arm_v1.18.1\src/u8g_state.c **** #else
 152:u8glib_arm_v1.18.1\src/u8g_state.c **** 
 153:u8glib_arm_v1.18.1\src/u8g_state.c **** void u8g_backup_spi(uint8_t msg)
 154:u8glib_arm_v1.18.1\src/u8g_state.c **** {
 102              		.loc 1 154 0
 103              		.cfi_startproc
 104              		@ args = 0, pretend = 0, frame = 8
 105              		@ frame_needed = 1, uses_anonymous_args = 0
 106              		@ link register save eliminated.
 107 0000 80B4     		push	{r7}
 108              		.cfi_def_cfa_offset 4
 109              		.cfi_offset 7, -4
 110 0002 83B0     		sub	sp, sp, #12
 111              		.cfi_def_cfa_offset 16
 112 0004 00AF     		add	r7, sp, #0
 113              		.cfi_def_cfa_register 7
 114 0006 0346     		mov	r3, r0
 115 0008 FB71     		strb	r3, [r7, #7]
 155:u8glib_arm_v1.18.1\src/u8g_state.c **** }
 116              		.loc 1 155 0
 117 000a 0C37     		adds	r7, r7, #12
 118              		.cfi_def_cfa_offset 4
 119 000c BD46     		mov	sp, r7
 120              		.cfi_def_cfa_register 13
 121              		@ sp needed
 122 000e 5DF8047B 		ldr	r7, [sp], #4
 123              		.cfi_restore 7
 124              		.cfi_def_cfa_offset 0
 125 0012 7047     		bx	lr
 126              		.cfi_endproc
 127              	.LFE2:
 128              		.size	u8g_backup_spi, .-u8g_backup_spi
 129              		.text
 130              	.Letext0:
ARM GAS  C:\Users\KJA\AppData\Local\Temp\cctJxq0g.s 			page 6


 131              		.file 2 "c:\\program files (x86)\\cypress\\psoc creator\\4.0\\psoc creator\\import\\gnu\\arm\\4.9.
 132              		.file 3 "c:\\program files (x86)\\cypress\\psoc creator\\4.0\\psoc creator\\import\\gnu\\arm\\4.9.
 133              		.file 4 "u8glib_arm_v1.18.1\\src\\u8g.h"