ARM GAS  C:\Users\KJA\AppData\Local\Temp\ccRrSjBR.s 			page 1


   1              		.syntax unified
   2              		.cpu cortex-m3
   3              		.fpu softvfp
   4              		.eabi_attribute 20, 1
   5              		.eabi_attribute 21, 1
   6              		.eabi_attribute 23, 3
   7              		.eabi_attribute 24, 1
   8              		.eabi_attribute 25, 1
   9              		.eabi_attribute 26, 1
  10              		.eabi_attribute 30, 6
  11              		.eabi_attribute 34, 1
  12              		.eabi_attribute 18, 4
  13              		.thumb
  14              		.file	"u8g_clip.c"
  15              		.text
  16              	.Ltext0:
  17              		.cfi_sections	.debug_frame
  18              		.section	.text.u8g_IsBBXIntersection,"ax",%progbits
  19              		.align	2
  20              		.global	u8g_IsBBXIntersection
  21              		.thumb
  22              		.thumb_func
  23              		.type	u8g_IsBBXIntersection, %function
  24              	u8g_IsBBXIntersection:
  25              	.LFB1:
  26              		.file 1 "u8glib_arm_v1.18.1\\src\\u8g_clip.c"
   1:u8glib_arm_v1.18.1\src/u8g_clip.c **** /*
   2:u8glib_arm_v1.18.1\src/u8g_clip.c **** 
   3:u8glib_arm_v1.18.1\src/u8g_clip.c ****   u8g_clip.c
   4:u8glib_arm_v1.18.1\src/u8g_clip.c ****   
   5:u8glib_arm_v1.18.1\src/u8g_clip.c ****   procedures for clipping
   6:u8glib_arm_v1.18.1\src/u8g_clip.c ****   taken over from procs in u8g_pb.c
   7:u8glib_arm_v1.18.1\src/u8g_clip.c **** 
   8:u8glib_arm_v1.18.1\src/u8g_clip.c ****   Universal 8bit Graphics Library
   9:u8glib_arm_v1.18.1\src/u8g_clip.c ****   
  10:u8glib_arm_v1.18.1\src/u8g_clip.c ****   Copyright (c) 2012, olikraus@gmail.com
  11:u8glib_arm_v1.18.1\src/u8g_clip.c ****   All rights reserved.
  12:u8glib_arm_v1.18.1\src/u8g_clip.c **** 
  13:u8glib_arm_v1.18.1\src/u8g_clip.c ****   Redistribution and use in source and binary forms, with or without modification, 
  14:u8glib_arm_v1.18.1\src/u8g_clip.c ****   are permitted provided that the following conditions are met:
  15:u8glib_arm_v1.18.1\src/u8g_clip.c **** 
  16:u8glib_arm_v1.18.1\src/u8g_clip.c ****   * Redistributions of source code must retain the above copyright notice, this list 
  17:u8glib_arm_v1.18.1\src/u8g_clip.c ****     of conditions and the following disclaimer.
  18:u8glib_arm_v1.18.1\src/u8g_clip.c ****     
  19:u8glib_arm_v1.18.1\src/u8g_clip.c ****   * Redistributions in binary form must reproduce the above copyright notice, this 
  20:u8glib_arm_v1.18.1\src/u8g_clip.c ****     list of conditions and the following disclaimer in the documentation and/or other 
  21:u8glib_arm_v1.18.1\src/u8g_clip.c ****     materials provided with the distribution.
  22:u8glib_arm_v1.18.1\src/u8g_clip.c **** 
  23:u8glib_arm_v1.18.1\src/u8g_clip.c ****   THIS SOFTWARE IS PROVIDED BY THE COPYRIGHT HOLDERS AND 
  24:u8glib_arm_v1.18.1\src/u8g_clip.c ****   CONTRIBUTORS "AS IS" AND ANY EXPRESS OR IMPLIED WARRANTIES, 
  25:u8glib_arm_v1.18.1\src/u8g_clip.c ****   INCLUDING, BUT NOT LIMITED TO, THE IMPLIED WARRANTIES OF 
  26:u8glib_arm_v1.18.1\src/u8g_clip.c ****   MERCHANTABILITY AND FITNESS FOR A PARTICULAR PURPOSE ARE 
  27:u8glib_arm_v1.18.1\src/u8g_clip.c ****   DISCLAIMED. IN NO EVENT SHALL THE COPYRIGHT HOLDER OR 
  28:u8glib_arm_v1.18.1\src/u8g_clip.c ****   CONTRIBUTORS BE LIABLE FOR ANY DIRECT, INDIRECT, INCIDENTAL, 
  29:u8glib_arm_v1.18.1\src/u8g_clip.c ****   SPECIAL, EXEMPLARY, OR CONSEQUENTIAL DAMAGES (INCLUDING, BUT 
  30:u8glib_arm_v1.18.1\src/u8g_clip.c ****   NOT LIMITED TO, PROCUREMENT OF SUBSTITUTE GOODS OR SERVICES; 
  31:u8glib_arm_v1.18.1\src/u8g_clip.c ****   LOSS OF USE, DATA, OR PROFITS; OR BUSINESS INTERRUPTION) HOWEVER 
ARM GAS  C:\Users\KJA\AppData\Local\Temp\ccRrSjBR.s 			page 2


  32:u8glib_arm_v1.18.1\src/u8g_clip.c ****   CAUSED AND ON ANY THEORY OF LIABILITY, WHETHER IN CONTRACT, 
  33:u8glib_arm_v1.18.1\src/u8g_clip.c ****   STRICT LIABILITY, OR TORT (INCLUDING NEGLIGENCE OR OTHERWISE) 
  34:u8glib_arm_v1.18.1\src/u8g_clip.c ****   ARISING IN ANY WAY OUT OF THE USE OF THIS SOFTWARE, EVEN IF 
  35:u8glib_arm_v1.18.1\src/u8g_clip.c ****   ADVISED OF THE POSSIBILITY OF SUCH DAMAGE.  
  36:u8glib_arm_v1.18.1\src/u8g_clip.c ****   
  37:u8glib_arm_v1.18.1\src/u8g_clip.c ****   Notes
  38:u8glib_arm_v1.18.1\src/u8g_clip.c ****   
  39:u8glib_arm_v1.18.1\src/u8g_clip.c ****   This is one of the most critical parts of u8glib. It must be fast, but still reliable.
  40:u8glib_arm_v1.18.1\src/u8g_clip.c ****   Based on the intersection program (see tools folder), there is minimized version of
  41:u8glib_arm_v1.18.1\src/u8g_clip.c ****   the condition for the intersaction test:
  42:u8glib_arm_v1.18.1\src/u8g_clip.c ****     minimized version
  43:u8glib_arm_v1.18.1\src/u8g_clip.c ****     ---1----0 1             b1 <= a2 && b1 > b2
  44:u8glib_arm_v1.18.1\src/u8g_clip.c ****     -----1--0 1             b2 >= a1 && b1 > b2
  45:u8glib_arm_v1.18.1\src/u8g_clip.c ****     ---1-1--- 1             b1 <= a2 && b2 >= a1
  46:u8glib_arm_v1.18.1\src/u8g_clip.c ****   It includes the assumption, that a1 <= a2 is always true (correct, because
  47:u8glib_arm_v1.18.1\src/u8g_clip.c ****   a1, a2 are the page dimensions.
  48:u8glib_arm_v1.18.1\src/u8g_clip.c **** 
  49:u8glib_arm_v1.18.1\src/u8g_clip.c ****   The direct implementation of the above result is done in:
  50:u8glib_arm_v1.18.1\src/u8g_clip.c ****   uint8_t u8g_is_intersection_boolean(u8g_uint_t a0, u8g_uint_t a1, u8g_uint_t v0, u8g_uint_t v1)
  51:u8glib_arm_v1.18.1\src/u8g_clip.c ****   However, this is slower than a decision tree version:  
  52:u8glib_arm_v1.18.1\src/u8g_clip.c ****   static uint8_t u8g_is_intersection_decision_tree(u8g_uint_t a0, u8g_uint_t a1, u8g_uint_t v0, u8g
  53:u8glib_arm_v1.18.1\src/u8g_clip.c ****   Also suprising is, that the macro implementation is slower than the inlined version.
  54:u8glib_arm_v1.18.1\src/u8g_clip.c ****   
  55:u8glib_arm_v1.18.1\src/u8g_clip.c ****   The decision tree is based on the expansion of the truth table.
  56:u8glib_arm_v1.18.1\src/u8g_clip.c ****   
  57:u8glib_arm_v1.18.1\src/u8g_clip.c **** */
  58:u8glib_arm_v1.18.1\src/u8g_clip.c **** 
  59:u8glib_arm_v1.18.1\src/u8g_clip.c **** #include "u8g.h"
  60:u8glib_arm_v1.18.1\src/u8g_clip.c **** 
  61:u8glib_arm_v1.18.1\src/u8g_clip.c **** #ifdef __GNUC__
  62:u8glib_arm_v1.18.1\src/u8g_clip.c **** #define U8G_ALWAYS_INLINE __inline__ __attribute__((always_inline))
  63:u8glib_arm_v1.18.1\src/u8g_clip.c **** #else
  64:u8glib_arm_v1.18.1\src/u8g_clip.c **** #define U8G_ALWAYS_INLINE
  65:u8glib_arm_v1.18.1\src/u8g_clip.c ****  #endif 
  66:u8glib_arm_v1.18.1\src/u8g_clip.c **** 
  67:u8glib_arm_v1.18.1\src/u8g_clip.c **** /*
  68:u8glib_arm_v1.18.1\src/u8g_clip.c ****   intersection assumptions:
  69:u8glib_arm_v1.18.1\src/u8g_clip.c ****     a1 <= a2 is always true    
  70:u8glib_arm_v1.18.1\src/u8g_clip.c ****     
  71:u8glib_arm_v1.18.1\src/u8g_clip.c ****     minimized version
  72:u8glib_arm_v1.18.1\src/u8g_clip.c ****     ---1----0 1             b1 <= a2 && b1 > b2
  73:u8glib_arm_v1.18.1\src/u8g_clip.c ****     -----1--0 1             b2 >= a1 && b1 > b2
  74:u8glib_arm_v1.18.1\src/u8g_clip.c ****     ---1-1--- 1             b1 <= a2 && b2 >= a1
  75:u8glib_arm_v1.18.1\src/u8g_clip.c ****   */
  76:u8glib_arm_v1.18.1\src/u8g_clip.c **** 
  77:u8glib_arm_v1.18.1\src/u8g_clip.c **** #ifdef OLD_CODE_WHICH_IS_TOO_SLOW
  78:u8glib_arm_v1.18.1\src/u8g_clip.c **** static uint8_t u8g_is_intersection_boolean(u8g_uint_t a0, u8g_uint_t a1, u8g_uint_t v0, u8g_uint_t 
  79:u8glib_arm_v1.18.1\src/u8g_clip.c **** {
  80:u8glib_arm_v1.18.1\src/u8g_clip.c ****   uint8_t c1, c2, c3, tmp;
  81:u8glib_arm_v1.18.1\src/u8g_clip.c ****   c1 = v0 <= a1;
  82:u8glib_arm_v1.18.1\src/u8g_clip.c ****   c2 = v1 >= a0;
  83:u8glib_arm_v1.18.1\src/u8g_clip.c ****   c3 = v0 > v1;
  84:u8glib_arm_v1.18.1\src/u8g_clip.c ****   
  85:u8glib_arm_v1.18.1\src/u8g_clip.c ****   tmp = c1;
  86:u8glib_arm_v1.18.1\src/u8g_clip.c ****   c1 &= c2;
  87:u8glib_arm_v1.18.1\src/u8g_clip.c ****   c2 &= c3;
  88:u8glib_arm_v1.18.1\src/u8g_clip.c ****   c3 &= tmp;
ARM GAS  C:\Users\KJA\AppData\Local\Temp\ccRrSjBR.s 			page 3


  89:u8glib_arm_v1.18.1\src/u8g_clip.c ****   c1 |= c2;
  90:u8glib_arm_v1.18.1\src/u8g_clip.c ****   c1 |= c3;
  91:u8glib_arm_v1.18.1\src/u8g_clip.c ****   return c1 & 1;
  92:u8glib_arm_v1.18.1\src/u8g_clip.c **** }
  93:u8glib_arm_v1.18.1\src/u8g_clip.c **** #endif
  94:u8glib_arm_v1.18.1\src/u8g_clip.c **** 
  95:u8glib_arm_v1.18.1\src/u8g_clip.c **** #define U8G_IS_INTERSECTION_MACRO(a0,a1,v0,v1) ((uint8_t)( (v0) <= (a1) ) ? ( ( (v1) >= (a0) ) ? ( 
  96:u8glib_arm_v1.18.1\src/u8g_clip.c **** 
  97:u8glib_arm_v1.18.1\src/u8g_clip.c **** //static uint8_t u8g_is_intersection_decision_tree(u8g_uint_t a0, u8g_uint_t a1, u8g_uint_t v0, u8g
  98:u8glib_arm_v1.18.1\src/u8g_clip.c **** static uint8_t U8G_ALWAYS_INLINE u8g_is_intersection_decision_tree(u8g_uint_t a0, u8g_uint_t a1, u8
  99:u8glib_arm_v1.18.1\src/u8g_clip.c **** {
 100:u8glib_arm_v1.18.1\src/u8g_clip.c ****   /* surprisingly the macro leads to larger code */
 101:u8glib_arm_v1.18.1\src/u8g_clip.c ****   /* return U8G_IS_INTERSECTION_MACRO(a0,a1,v0,v1); */
 102:u8glib_arm_v1.18.1\src/u8g_clip.c ****   if ( v0 <= a1 )
 103:u8glib_arm_v1.18.1\src/u8g_clip.c ****   {
 104:u8glib_arm_v1.18.1\src/u8g_clip.c ****     if ( v1 >= a0 )
 105:u8glib_arm_v1.18.1\src/u8g_clip.c ****     {
 106:u8glib_arm_v1.18.1\src/u8g_clip.c ****       return 1;
 107:u8glib_arm_v1.18.1\src/u8g_clip.c ****     }
 108:u8glib_arm_v1.18.1\src/u8g_clip.c ****     else
 109:u8glib_arm_v1.18.1\src/u8g_clip.c ****     {
 110:u8glib_arm_v1.18.1\src/u8g_clip.c ****       if ( v0 > v1 )
 111:u8glib_arm_v1.18.1\src/u8g_clip.c ****       {
 112:u8glib_arm_v1.18.1\src/u8g_clip.c **** 	return 1;
 113:u8glib_arm_v1.18.1\src/u8g_clip.c ****       }
 114:u8glib_arm_v1.18.1\src/u8g_clip.c ****       else
 115:u8glib_arm_v1.18.1\src/u8g_clip.c ****       {
 116:u8glib_arm_v1.18.1\src/u8g_clip.c **** 	return 0;
 117:u8glib_arm_v1.18.1\src/u8g_clip.c ****       }
 118:u8glib_arm_v1.18.1\src/u8g_clip.c ****     }
 119:u8glib_arm_v1.18.1\src/u8g_clip.c ****   }
 120:u8glib_arm_v1.18.1\src/u8g_clip.c ****   else
 121:u8glib_arm_v1.18.1\src/u8g_clip.c ****   {
 122:u8glib_arm_v1.18.1\src/u8g_clip.c ****     if ( v1 >= a0 )
 123:u8glib_arm_v1.18.1\src/u8g_clip.c ****     {
 124:u8glib_arm_v1.18.1\src/u8g_clip.c ****       if ( v0 > v1 )
 125:u8glib_arm_v1.18.1\src/u8g_clip.c ****       {
 126:u8glib_arm_v1.18.1\src/u8g_clip.c **** 	return 1;
 127:u8glib_arm_v1.18.1\src/u8g_clip.c ****       }
 128:u8glib_arm_v1.18.1\src/u8g_clip.c ****       else
 129:u8glib_arm_v1.18.1\src/u8g_clip.c ****       {
 130:u8glib_arm_v1.18.1\src/u8g_clip.c **** 	return 0;
 131:u8glib_arm_v1.18.1\src/u8g_clip.c ****       }
 132:u8glib_arm_v1.18.1\src/u8g_clip.c ****     }
 133:u8glib_arm_v1.18.1\src/u8g_clip.c ****     else
 134:u8glib_arm_v1.18.1\src/u8g_clip.c ****     {
 135:u8glib_arm_v1.18.1\src/u8g_clip.c ****       return 0;
 136:u8glib_arm_v1.18.1\src/u8g_clip.c ****     }
 137:u8glib_arm_v1.18.1\src/u8g_clip.c ****   }
 138:u8glib_arm_v1.18.1\src/u8g_clip.c **** }
 139:u8glib_arm_v1.18.1\src/u8g_clip.c **** 
 140:u8glib_arm_v1.18.1\src/u8g_clip.c **** 
 141:u8glib_arm_v1.18.1\src/u8g_clip.c **** uint8_t u8g_IsBBXIntersection(u8g_t *u8g, u8g_uint_t x, u8g_uint_t y, u8g_uint_t w, u8g_uint_t h)
 142:u8glib_arm_v1.18.1\src/u8g_clip.c **** {
  27              		.loc 1 142 0
  28              		.cfi_startproc
  29              		@ args = 4, pretend = 0, frame = 16
ARM GAS  C:\Users\KJA\AppData\Local\Temp\ccRrSjBR.s 			page 4


  30              		@ frame_needed = 1, uses_anonymous_args = 0
  31              		@ link register save eliminated.
  32 0000 90B4     		push	{r4, r7}
  33              		.cfi_def_cfa_offset 8
  34              		.cfi_offset 4, -8
  35              		.cfi_offset 7, -4
  36 0002 84B0     		sub	sp, sp, #16
  37              		.cfi_def_cfa_offset 24
  38 0004 00AF     		add	r7, sp, #0
  39              		.cfi_def_cfa_register 7
  40 0006 7860     		str	r0, [r7, #4]
  41 0008 0846     		mov	r0, r1
  42 000a 1146     		mov	r1, r2
  43 000c 1A46     		mov	r2, r3
  44 000e 0346     		mov	r3, r0
  45 0010 FB70     		strb	r3, [r7, #3]
  46 0012 0B46     		mov	r3, r1
  47 0014 BB70     		strb	r3, [r7, #2]
  48 0016 1346     		mov	r3, r2
  49 0018 7B70     		strb	r3, [r7, #1]
 143:u8glib_arm_v1.18.1\src/u8g_clip.c ****   register u8g_uint_t tmp;
 144:u8glib_arm_v1.18.1\src/u8g_clip.c ****   tmp = y;
  50              		.loc 1 144 0
  51 001a BC78     		ldrb	r4, [r7, #2]	@ zero_extendqisi2
 145:u8glib_arm_v1.18.1\src/u8g_clip.c ****   tmp += h;
  52              		.loc 1 145 0
  53 001c 3B7E     		ldrb	r3, [r7, #24]
  54 001e 2344     		add	r3, r3, r4
  55 0020 DCB2     		uxtb	r4, r3
 146:u8glib_arm_v1.18.1\src/u8g_clip.c ****   tmp--;
  56              		.loc 1 146 0
  57 0022 2346     		mov	r3, r4
  58 0024 013B     		subs	r3, r3, #1
  59 0026 DCB2     		uxtb	r4, r3
 147:u8glib_arm_v1.18.1\src/u8g_clip.c ****   if ( u8g_is_intersection_decision_tree(u8g->current_page.y0, u8g->current_page.y1, y, tmp) == 0 )
  60              		.loc 1 147 0
  61 0028 7B68     		ldr	r3, [r7, #4]
  62 002a 93F83920 		ldrb	r2, [r3, #57]	@ zero_extendqisi2
  63 002e 7B68     		ldr	r3, [r7, #4]
  64 0030 93F83B30 		ldrb	r3, [r3, #59]	@ zero_extendqisi2
  65 0034 FA73     		strb	r2, [r7, #15]
  66 0036 BB73     		strb	r3, [r7, #14]
  67 0038 BB78     		ldrb	r3, [r7, #2]
  68 003a 7B73     		strb	r3, [r7, #13]
  69 003c 2346     		mov	r3, r4
  70 003e 3B73     		strb	r3, [r7, #12]
  71              	.LBB6:
  72              	.LBB7:
 102:u8glib_arm_v1.18.1\src/u8g_clip.c ****   {
  73              		.loc 1 102 0
  74 0040 BA7B     		ldrb	r2, [r7, #14]	@ zero_extendqisi2
  75 0042 7B7B     		ldrb	r3, [r7, #13]	@ zero_extendqisi2
  76 0044 9A42     		cmp	r2, r3
  77 0046 0DD3     		bcc	.L2
 104:u8glib_arm_v1.18.1\src/u8g_clip.c ****     {
  78              		.loc 1 104 0
  79 0048 FA7B     		ldrb	r2, [r7, #15]	@ zero_extendqisi2
ARM GAS  C:\Users\KJA\AppData\Local\Temp\ccRrSjBR.s 			page 5


  80 004a 3B7B     		ldrb	r3, [r7, #12]	@ zero_extendqisi2
  81 004c 9A42     		cmp	r2, r3
  82 004e 01D8     		bhi	.L3
 106:u8glib_arm_v1.18.1\src/u8g_clip.c ****     }
  83              		.loc 1 106 0
  84 0050 0123     		movs	r3, #1
  85 0052 14E0     		b	.L4
  86              	.L3:
 110:u8glib_arm_v1.18.1\src/u8g_clip.c ****       {
  87              		.loc 1 110 0
  88 0054 7A7B     		ldrb	r2, [r7, #13]	@ zero_extendqisi2
  89 0056 3B7B     		ldrb	r3, [r7, #12]	@ zero_extendqisi2
  90 0058 9A42     		cmp	r2, r3
  91 005a 01D9     		bls	.L5
 112:u8glib_arm_v1.18.1\src/u8g_clip.c ****       }
  92              		.loc 1 112 0
  93 005c 0123     		movs	r3, #1
  94 005e 0EE0     		b	.L4
  95              	.L5:
 116:u8glib_arm_v1.18.1\src/u8g_clip.c ****       }
  96              		.loc 1 116 0
  97 0060 0023     		movs	r3, #0
  98 0062 0CE0     		b	.L4
  99              	.L2:
 122:u8glib_arm_v1.18.1\src/u8g_clip.c ****     {
 100              		.loc 1 122 0
 101 0064 FA7B     		ldrb	r2, [r7, #15]	@ zero_extendqisi2
 102 0066 3B7B     		ldrb	r3, [r7, #12]	@ zero_extendqisi2
 103 0068 9A42     		cmp	r2, r3
 104 006a 07D8     		bhi	.L6
 124:u8glib_arm_v1.18.1\src/u8g_clip.c ****       {
 105              		.loc 1 124 0
 106 006c 7A7B     		ldrb	r2, [r7, #13]	@ zero_extendqisi2
 107 006e 3B7B     		ldrb	r3, [r7, #12]	@ zero_extendqisi2
 108 0070 9A42     		cmp	r2, r3
 109 0072 01D9     		bls	.L7
 126:u8glib_arm_v1.18.1\src/u8g_clip.c ****       }
 110              		.loc 1 126 0
 111 0074 0123     		movs	r3, #1
 112 0076 02E0     		b	.L4
 113              	.L7:
 130:u8glib_arm_v1.18.1\src/u8g_clip.c ****       }
 114              		.loc 1 130 0
 115 0078 0023     		movs	r3, #0
 116 007a 00E0     		b	.L4
 117              	.L6:
 135:u8glib_arm_v1.18.1\src/u8g_clip.c ****     }
 118              		.loc 1 135 0
 119 007c 0023     		movs	r3, #0
 120              	.L4:
 121              	.LBE7:
 122              	.LBE6:
 123              		.loc 1 147 0
 124 007e 002B     		cmp	r3, #0
 125 0080 01D1     		bne	.L8
 148:u8glib_arm_v1.18.1\src/u8g_clip.c ****     return 0; 
 126              		.loc 1 148 0
ARM GAS  C:\Users\KJA\AppData\Local\Temp\ccRrSjBR.s 			page 6


 127 0082 0023     		movs	r3, #0
 128 0084 32E0     		b	.L9
 129              	.L8:
 149:u8glib_arm_v1.18.1\src/u8g_clip.c ****   
 150:u8glib_arm_v1.18.1\src/u8g_clip.c ****   tmp = x;
 130              		.loc 1 150 0
 131 0086 FC78     		ldrb	r4, [r7, #3]	@ zero_extendqisi2
 151:u8glib_arm_v1.18.1\src/u8g_clip.c ****   tmp += w;
 132              		.loc 1 151 0
 133 0088 7B78     		ldrb	r3, [r7, #1]
 134 008a 2344     		add	r3, r3, r4
 135 008c DCB2     		uxtb	r4, r3
 152:u8glib_arm_v1.18.1\src/u8g_clip.c ****   tmp--;
 136              		.loc 1 152 0
 137 008e 2346     		mov	r3, r4
 138 0090 013B     		subs	r3, r3, #1
 139 0092 DCB2     		uxtb	r4, r3
 153:u8glib_arm_v1.18.1\src/u8g_clip.c ****   return u8g_is_intersection_decision_tree(u8g->current_page.x0, u8g->current_page.x1, x, tmp);
 140              		.loc 1 153 0
 141 0094 7B68     		ldr	r3, [r7, #4]
 142 0096 93F83820 		ldrb	r2, [r3, #56]	@ zero_extendqisi2
 143 009a 7B68     		ldr	r3, [r7, #4]
 144 009c 93F83A30 		ldrb	r3, [r3, #58]	@ zero_extendqisi2
 145 00a0 FA72     		strb	r2, [r7, #11]
 146 00a2 BB72     		strb	r3, [r7, #10]
 147 00a4 FB78     		ldrb	r3, [r7, #3]
 148 00a6 7B72     		strb	r3, [r7, #9]
 149 00a8 2346     		mov	r3, r4
 150 00aa 3B72     		strb	r3, [r7, #8]
 151              	.LBB8:
 152              	.LBB9:
 102:u8glib_arm_v1.18.1\src/u8g_clip.c ****   {
 153              		.loc 1 102 0
 154 00ac BA7A     		ldrb	r2, [r7, #10]	@ zero_extendqisi2
 155 00ae 7B7A     		ldrb	r3, [r7, #9]	@ zero_extendqisi2
 156 00b0 9A42     		cmp	r2, r3
 157 00b2 0DD3     		bcc	.L10
 104:u8glib_arm_v1.18.1\src/u8g_clip.c ****     {
 158              		.loc 1 104 0
 159 00b4 FA7A     		ldrb	r2, [r7, #11]	@ zero_extendqisi2
 160 00b6 3B7A     		ldrb	r3, [r7, #8]	@ zero_extendqisi2
 161 00b8 9A42     		cmp	r2, r3
 162 00ba 01D8     		bhi	.L11
 106:u8glib_arm_v1.18.1\src/u8g_clip.c ****     }
 163              		.loc 1 106 0
 164 00bc 0123     		movs	r3, #1
 165              	.LBE9:
 166              	.LBE8:
 167              		.loc 1 153 0
 168 00be 14E0     		b	.L16
 169              	.L11:
 170              	.LBB15:
 171              	.LBB10:
 110:u8glib_arm_v1.18.1\src/u8g_clip.c ****       {
 172              		.loc 1 110 0
 173 00c0 7A7A     		ldrb	r2, [r7, #9]	@ zero_extendqisi2
 174 00c2 3B7A     		ldrb	r3, [r7, #8]	@ zero_extendqisi2
ARM GAS  C:\Users\KJA\AppData\Local\Temp\ccRrSjBR.s 			page 7


 175 00c4 9A42     		cmp	r2, r3
 176 00c6 01D9     		bls	.L13
 112:u8glib_arm_v1.18.1\src/u8g_clip.c ****       }
 177              		.loc 1 112 0
 178 00c8 0123     		movs	r3, #1
 179              	.LBE10:
 180              	.LBE15:
 181              		.loc 1 153 0
 182 00ca 0EE0     		b	.L16
 183              	.L13:
 184              	.LBB16:
 185              	.LBB11:
 116:u8glib_arm_v1.18.1\src/u8g_clip.c ****       }
 186              		.loc 1 116 0
 187 00cc 0023     		movs	r3, #0
 188              	.LBE11:
 189              	.LBE16:
 190              		.loc 1 153 0
 191 00ce 0CE0     		b	.L16
 192              	.L10:
 193              	.LBB17:
 194              	.LBB12:
 122:u8glib_arm_v1.18.1\src/u8g_clip.c ****     {
 195              		.loc 1 122 0
 196 00d0 FA7A     		ldrb	r2, [r7, #11]	@ zero_extendqisi2
 197 00d2 3B7A     		ldrb	r3, [r7, #8]	@ zero_extendqisi2
 198 00d4 9A42     		cmp	r2, r3
 199 00d6 07D8     		bhi	.L14
 124:u8glib_arm_v1.18.1\src/u8g_clip.c ****       {
 200              		.loc 1 124 0
 201 00d8 7A7A     		ldrb	r2, [r7, #9]	@ zero_extendqisi2
 202 00da 3B7A     		ldrb	r3, [r7, #8]	@ zero_extendqisi2
 203 00dc 9A42     		cmp	r2, r3
 204 00de 01D9     		bls	.L15
 126:u8glib_arm_v1.18.1\src/u8g_clip.c ****       }
 205              		.loc 1 126 0
 206 00e0 0123     		movs	r3, #1
 207              	.LBE12:
 208              	.LBE17:
 209              		.loc 1 153 0
 210 00e2 02E0     		b	.L16
 211              	.L15:
 212              	.LBB18:
 213              	.LBB13:
 130:u8glib_arm_v1.18.1\src/u8g_clip.c ****       }
 214              		.loc 1 130 0
 215 00e4 0023     		movs	r3, #0
 216              	.LBE13:
 217              	.LBE18:
 218              		.loc 1 153 0
 219 00e6 00E0     		b	.L16
 220              	.L14:
 221              	.LBB19:
 222              	.LBB14:
 135:u8glib_arm_v1.18.1\src/u8g_clip.c ****     }
 223              		.loc 1 135 0
 224 00e8 0023     		movs	r3, #0
ARM GAS  C:\Users\KJA\AppData\Local\Temp\ccRrSjBR.s 			page 8


 225              	.L16:
 226              	.LBE14:
 227              	.LBE19:
 228              		.loc 1 153 0
 229 00ea 00BF     		nop
 230              	.L9:
 154:u8glib_arm_v1.18.1\src/u8g_clip.c **** }
 231              		.loc 1 154 0
 232 00ec 1846     		mov	r0, r3
 233 00ee 1037     		adds	r7, r7, #16
 234              		.cfi_def_cfa_offset 8
 235 00f0 BD46     		mov	sp, r7
 236              		.cfi_def_cfa_register 13
 237              		@ sp needed
 238 00f2 90BC     		pop	{r4, r7}
 239              		.cfi_restore 7
 240              		.cfi_restore 4
 241              		.cfi_def_cfa_offset 0
 242 00f4 7047     		bx	lr
 243              		.cfi_endproc
 244              	.LFE1:
 245              		.size	u8g_IsBBXIntersection, .-u8g_IsBBXIntersection
 246 00f6 00BF     		.text
 247              	.Letext0:
 248              		.file 2 "c:\\program files (x86)\\cypress\\psoc creator\\4.0\\psoc creator\\import\\gnu\\arm\\4.9.
 249              		.file 3 "c:\\program files (x86)\\cypress\\psoc creator\\4.0\\psoc creator\\import\\gnu\\arm\\4.9.
 250              		.file 4 "u8glib_arm_v1.18.1\\src\\u8g.h"