ARM GAS  C:\Users\KJA\AppData\Local\Temp\cclOut2W.s 			page 1


   1              		.syntax unified
   2              		.cpu cortex-m3
   3              		.fpu softvfp
   4              		.eabi_attribute 20, 1
   5              		.eabi_attribute 21, 1
   6              		.eabi_attribute 23, 3
   7              		.eabi_attribute 24, 1
   8              		.eabi_attribute 25, 1
   9              		.eabi_attribute 26, 1
  10              		.eabi_attribute 30, 6
  11              		.eabi_attribute 34, 1
  12              		.eabi_attribute 18, 4
  13              		.thumb
  14              		.file	"u8g_pb8v1.c"
  15              		.text
  16              	.Ltext0:
  17              		.cfi_sections	.debug_frame
  18              		.section	.text.u8g_pb8v1_Init,"ax",%progbits
  19              		.align	2
  20              		.global	u8g_pb8v1_Init
  21              		.thumb
  22              		.thumb_func
  23              		.type	u8g_pb8v1_Init, %function
  24              	u8g_pb8v1_Init:
  25              	.LFB0:
  26              		.file 1 "u8glib_arm_v1.18.1\\src\\u8g_pb8v1.c"
   1:u8glib_arm_v1.18.1\src/u8g_pb8v1.c **** /*
   2:u8glib_arm_v1.18.1\src/u8g_pb8v1.c **** 
   3:u8glib_arm_v1.18.1\src/u8g_pb8v1.c ****   u8g_pb8v1.c
   4:u8glib_arm_v1.18.1\src/u8g_pb8v1.c ****   
   5:u8glib_arm_v1.18.1\src/u8g_pb8v1.c ****   8bit height monochrom (1 bit) page buffer
   6:u8glib_arm_v1.18.1\src/u8g_pb8v1.c ****   byte has vertical orientation
   7:u8glib_arm_v1.18.1\src/u8g_pb8v1.c **** 
   8:u8glib_arm_v1.18.1\src/u8g_pb8v1.c ****   Universal 8bit Graphics Library
   9:u8glib_arm_v1.18.1\src/u8g_pb8v1.c ****   
  10:u8glib_arm_v1.18.1\src/u8g_pb8v1.c ****   Copyright (c) 2011, olikraus@gmail.com
  11:u8glib_arm_v1.18.1\src/u8g_pb8v1.c ****   All rights reserved.
  12:u8glib_arm_v1.18.1\src/u8g_pb8v1.c **** 
  13:u8glib_arm_v1.18.1\src/u8g_pb8v1.c ****   Redistribution and use in source and binary forms, with or without modification, 
  14:u8glib_arm_v1.18.1\src/u8g_pb8v1.c ****   are permitted provided that the following conditions are met:
  15:u8glib_arm_v1.18.1\src/u8g_pb8v1.c **** 
  16:u8glib_arm_v1.18.1\src/u8g_pb8v1.c ****   * Redistributions of source code must retain the above copyright notice, this list 
  17:u8glib_arm_v1.18.1\src/u8g_pb8v1.c ****     of conditions and the following disclaimer.
  18:u8glib_arm_v1.18.1\src/u8g_pb8v1.c ****     
  19:u8glib_arm_v1.18.1\src/u8g_pb8v1.c ****   * Redistributions in binary form must reproduce the above copyright notice, this 
  20:u8glib_arm_v1.18.1\src/u8g_pb8v1.c ****     list of conditions and the following disclaimer in the documentation and/or other 
  21:u8glib_arm_v1.18.1\src/u8g_pb8v1.c ****     materials provided with the distribution.
  22:u8glib_arm_v1.18.1\src/u8g_pb8v1.c **** 
  23:u8glib_arm_v1.18.1\src/u8g_pb8v1.c ****   THIS SOFTWARE IS PROVIDED BY THE COPYRIGHT HOLDERS AND 
  24:u8glib_arm_v1.18.1\src/u8g_pb8v1.c ****   CONTRIBUTORS "AS IS" AND ANY EXPRESS OR IMPLIED WARRANTIES, 
  25:u8glib_arm_v1.18.1\src/u8g_pb8v1.c ****   INCLUDING, BUT NOT LIMITED TO, THE IMPLIED WARRANTIES OF 
  26:u8glib_arm_v1.18.1\src/u8g_pb8v1.c ****   MERCHANTABILITY AND FITNESS FOR A PARTICULAR PURPOSE ARE 
  27:u8glib_arm_v1.18.1\src/u8g_pb8v1.c ****   DISCLAIMED. IN NO EVENT SHALL THE COPYRIGHT HOLDER OR 
  28:u8glib_arm_v1.18.1\src/u8g_pb8v1.c ****   CONTRIBUTORS BE LIABLE FOR ANY DIRECT, INDIRECT, INCIDENTAL, 
  29:u8glib_arm_v1.18.1\src/u8g_pb8v1.c ****   SPECIAL, EXEMPLARY, OR CONSEQUENTIAL DAMAGES (INCLUDING, BUT 
  30:u8glib_arm_v1.18.1\src/u8g_pb8v1.c ****   NOT LIMITED TO, PROCUREMENT OF SUBSTITUTE GOODS OR SERVICES; 
  31:u8glib_arm_v1.18.1\src/u8g_pb8v1.c ****   LOSS OF USE, DATA, OR PROFITS; OR BUSINESS INTERRUPTION) HOWEVER 
ARM GAS  C:\Users\KJA\AppData\Local\Temp\cclOut2W.s 			page 2


  32:u8glib_arm_v1.18.1\src/u8g_pb8v1.c ****   CAUSED AND ON ANY THEORY OF LIABILITY, WHETHER IN CONTRACT, 
  33:u8glib_arm_v1.18.1\src/u8g_pb8v1.c ****   STRICT LIABILITY, OR TORT (INCLUDING NEGLIGENCE OR OTHERWISE) 
  34:u8glib_arm_v1.18.1\src/u8g_pb8v1.c ****   ARISING IN ANY WAY OUT OF THE USE OF THIS SOFTWARE, EVEN IF 
  35:u8glib_arm_v1.18.1\src/u8g_pb8v1.c ****   ADVISED OF THE POSSIBILITY OF SUCH DAMAGE.  
  36:u8glib_arm_v1.18.1\src/u8g_pb8v1.c ****   
  37:u8glib_arm_v1.18.1\src/u8g_pb8v1.c **** 
  38:u8glib_arm_v1.18.1\src/u8g_pb8v1.c **** */
  39:u8glib_arm_v1.18.1\src/u8g_pb8v1.c **** 
  40:u8glib_arm_v1.18.1\src/u8g_pb8v1.c **** #include "u8g.h"
  41:u8glib_arm_v1.18.1\src/u8g_pb8v1.c **** #include <string.h>
  42:u8glib_arm_v1.18.1\src/u8g_pb8v1.c **** 
  43:u8glib_arm_v1.18.1\src/u8g_pb8v1.c **** 
  44:u8glib_arm_v1.18.1\src/u8g_pb8v1.c **** void u8g_pb8v1_Init(u8g_pb_t *b, void *buf, u8g_uint_t width) U8G_NOINLINE;
  45:u8glib_arm_v1.18.1\src/u8g_pb8v1.c **** void u8g_pb8v1_set_pixel(u8g_pb_t *b, u8g_uint_t x, u8g_uint_t y, uint8_t color_index) U8G_NOINLINE
  46:u8glib_arm_v1.18.1\src/u8g_pb8v1.c **** void u8g_pb8v1_SetPixel(u8g_pb_t *b, const u8g_dev_arg_pixel_t * const arg_pixel) U8G_NOINLINE ;
  47:u8glib_arm_v1.18.1\src/u8g_pb8v1.c **** void u8g_pb8v1_Set8PixelStd(u8g_pb_t *b, u8g_dev_arg_pixel_t *arg_pixel) U8G_NOINLINE;
  48:u8glib_arm_v1.18.1\src/u8g_pb8v1.c **** 
  49:u8glib_arm_v1.18.1\src/u8g_pb8v1.c **** /* Obsolete, usually set by the init of the structure */
  50:u8glib_arm_v1.18.1\src/u8g_pb8v1.c **** void u8g_pb8v1_Init(u8g_pb_t *b, void *buf, u8g_uint_t width)
  51:u8glib_arm_v1.18.1\src/u8g_pb8v1.c **** {
  27              		.loc 1 51 0
  28              		.cfi_startproc
  29              		@ args = 0, pretend = 0, frame = 16
  30              		@ frame_needed = 1, uses_anonymous_args = 0
  31 0000 80B5     		push	{r7, lr}
  32              		.cfi_def_cfa_offset 8
  33              		.cfi_offset 7, -8
  34              		.cfi_offset 14, -4
  35 0002 84B0     		sub	sp, sp, #16
  36              		.cfi_def_cfa_offset 24
  37 0004 00AF     		add	r7, sp, #0
  38              		.cfi_def_cfa_register 7
  39 0006 F860     		str	r0, [r7, #12]
  40 0008 B960     		str	r1, [r7, #8]
  41 000a 1346     		mov	r3, r2
  42 000c FB71     		strb	r3, [r7, #7]
  52:u8glib_arm_v1.18.1\src/u8g_pb8v1.c ****   b->buf = buf;
  43              		.loc 1 52 0
  44 000e FB68     		ldr	r3, [r7, #12]
  45 0010 BA68     		ldr	r2, [r7, #8]
  46 0012 9A60     		str	r2, [r3, #8]
  53:u8glib_arm_v1.18.1\src/u8g_pb8v1.c ****   b->width = width;
  47              		.loc 1 53 0
  48 0014 FB68     		ldr	r3, [r7, #12]
  49 0016 FA79     		ldrb	r2, [r7, #7]
  50 0018 5A71     		strb	r2, [r3, #5]
  54:u8glib_arm_v1.18.1\src/u8g_pb8v1.c ****   u8g_pb_Clear(b);
  51              		.loc 1 54 0
  52 001a F868     		ldr	r0, [r7, #12]
  53 001c FFF7FEFF 		bl	u8g_pb_Clear
  55:u8glib_arm_v1.18.1\src/u8g_pb8v1.c **** }
  54              		.loc 1 55 0
  55 0020 1037     		adds	r7, r7, #16
  56              		.cfi_def_cfa_offset 8
  57 0022 BD46     		mov	sp, r7
  58              		.cfi_def_cfa_register 13
  59              		@ sp needed
ARM GAS  C:\Users\KJA\AppData\Local\Temp\cclOut2W.s 			page 3


  60 0024 80BD     		pop	{r7, pc}
  61              		.cfi_endproc
  62              	.LFE0:
  63              		.size	u8g_pb8v1_Init, .-u8g_pb8v1_Init
  64              		.section	.text.u8g_pb8v1_set_pixel,"ax",%progbits
  65              		.align	2
  66              		.global	u8g_pb8v1_set_pixel
  67              		.thumb
  68              		.thumb_func
  69              		.type	u8g_pb8v1_set_pixel, %function
  70              	u8g_pb8v1_set_pixel:
  71              	.LFB1:
  56:u8glib_arm_v1.18.1\src/u8g_pb8v1.c **** 
  57:u8glib_arm_v1.18.1\src/u8g_pb8v1.c **** void u8g_pb8v1_set_pixel(u8g_pb_t *b, u8g_uint_t x, u8g_uint_t y, uint8_t color_index)
  58:u8glib_arm_v1.18.1\src/u8g_pb8v1.c **** {
  72              		.loc 1 58 0
  73              		.cfi_startproc
  74              		@ args = 0, pretend = 0, frame = 16
  75              		@ frame_needed = 1, uses_anonymous_args = 0
  76              		@ link register save eliminated.
  77 0000 90B4     		push	{r4, r7}
  78              		.cfi_def_cfa_offset 8
  79              		.cfi_offset 4, -8
  80              		.cfi_offset 7, -4
  81 0002 84B0     		sub	sp, sp, #16
  82              		.cfi_def_cfa_offset 24
  83 0004 00AF     		add	r7, sp, #0
  84              		.cfi_def_cfa_register 7
  85 0006 7860     		str	r0, [r7, #4]
  86 0008 0846     		mov	r0, r1
  87 000a 1146     		mov	r1, r2
  88 000c 1A46     		mov	r2, r3
  89 000e 0346     		mov	r3, r0
  90 0010 FB70     		strb	r3, [r7, #3]
  91 0012 0B46     		mov	r3, r1
  92 0014 BB70     		strb	r3, [r7, #2]
  93 0016 1346     		mov	r3, r2
  94 0018 7B70     		strb	r3, [r7, #1]
  59:u8glib_arm_v1.18.1\src/u8g_pb8v1.c ****   register uint8_t mask;
  60:u8glib_arm_v1.18.1\src/u8g_pb8v1.c ****   uint8_t *ptr = b->buf;
  95              		.loc 1 60 0
  96 001a 7B68     		ldr	r3, [r7, #4]
  97 001c 9B68     		ldr	r3, [r3, #8]
  98 001e FB60     		str	r3, [r7, #12]
  61:u8glib_arm_v1.18.1\src/u8g_pb8v1.c ****   
  62:u8glib_arm_v1.18.1\src/u8g_pb8v1.c ****   y -= b->p.page_y0;
  99              		.loc 1 62 0
 100 0020 7B68     		ldr	r3, [r7, #4]
 101 0022 9B78     		ldrb	r3, [r3, #2]	@ zero_extendqisi2
 102 0024 BA78     		ldrb	r2, [r7, #2]
 103 0026 D31A     		subs	r3, r2, r3
 104 0028 BB70     		strb	r3, [r7, #2]
  63:u8glib_arm_v1.18.1\src/u8g_pb8v1.c ****   mask = 1;
 105              		.loc 1 63 0
 106 002a 0124     		movs	r4, #1
  64:u8glib_arm_v1.18.1\src/u8g_pb8v1.c ****   y &= 0x07;
 107              		.loc 1 64 0
ARM GAS  C:\Users\KJA\AppData\Local\Temp\cclOut2W.s 			page 4


 108 002c BB78     		ldrb	r3, [r7, #2]
 109 002e 03F00703 		and	r3, r3, #7
 110 0032 BB70     		strb	r3, [r7, #2]
  65:u8glib_arm_v1.18.1\src/u8g_pb8v1.c ****   mask <<= y;
 111              		.loc 1 65 0
 112 0034 2246     		mov	r2, r4
 113 0036 BB78     		ldrb	r3, [r7, #2]	@ zero_extendqisi2
 114 0038 02FA03F3 		lsl	r3, r2, r3
 115 003c DCB2     		uxtb	r4, r3
  66:u8glib_arm_v1.18.1\src/u8g_pb8v1.c ****   ptr += x;
 116              		.loc 1 66 0
 117 003e FB78     		ldrb	r3, [r7, #3]	@ zero_extendqisi2
 118 0040 FA68     		ldr	r2, [r7, #12]
 119 0042 1344     		add	r3, r3, r2
 120 0044 FB60     		str	r3, [r7, #12]
  67:u8glib_arm_v1.18.1\src/u8g_pb8v1.c ****   if ( color_index )
 121              		.loc 1 67 0
 122 0046 7B78     		ldrb	r3, [r7, #1]	@ zero_extendqisi2
 123 0048 002B     		cmp	r3, #0
 124 004a 06D0     		beq	.L3
  68:u8glib_arm_v1.18.1\src/u8g_pb8v1.c ****   {
  69:u8glib_arm_v1.18.1\src/u8g_pb8v1.c ****     *ptr |= mask;
 125              		.loc 1 69 0
 126 004c FB68     		ldr	r3, [r7, #12]
 127 004e 1B78     		ldrb	r3, [r3]	@ zero_extendqisi2
 128 0050 2343     		orrs	r3, r3, r4
 129 0052 DAB2     		uxtb	r2, r3
 130 0054 FB68     		ldr	r3, [r7, #12]
 131 0056 1A70     		strb	r2, [r3]
 132 0058 07E0     		b	.L2
 133              	.L3:
  70:u8glib_arm_v1.18.1\src/u8g_pb8v1.c ****   }
  71:u8glib_arm_v1.18.1\src/u8g_pb8v1.c ****   else
  72:u8glib_arm_v1.18.1\src/u8g_pb8v1.c ****   {
  73:u8glib_arm_v1.18.1\src/u8g_pb8v1.c ****     mask ^=0xff;
 134              		.loc 1 73 0
 135 005a E343     		mvns	r3, r4
 136 005c DCB2     		uxtb	r4, r3
  74:u8glib_arm_v1.18.1\src/u8g_pb8v1.c ****     *ptr &= mask;
 137              		.loc 1 74 0
 138 005e FB68     		ldr	r3, [r7, #12]
 139 0060 1B78     		ldrb	r3, [r3]	@ zero_extendqisi2
 140 0062 2340     		ands	r3, r3, r4
 141 0064 DAB2     		uxtb	r2, r3
 142 0066 FB68     		ldr	r3, [r7, #12]
 143 0068 1A70     		strb	r2, [r3]
 144              	.L2:
  75:u8glib_arm_v1.18.1\src/u8g_pb8v1.c ****   }
  76:u8glib_arm_v1.18.1\src/u8g_pb8v1.c **** }
 145              		.loc 1 76 0
 146 006a 1037     		adds	r7, r7, #16
 147              		.cfi_def_cfa_offset 8
 148 006c BD46     		mov	sp, r7
 149              		.cfi_def_cfa_register 13
 150              		@ sp needed
 151 006e 90BC     		pop	{r4, r7}
 152              		.cfi_restore 7
ARM GAS  C:\Users\KJA\AppData\Local\Temp\cclOut2W.s 			page 5


 153              		.cfi_restore 4
 154              		.cfi_def_cfa_offset 0
 155 0070 7047     		bx	lr
 156              		.cfi_endproc
 157              	.LFE1:
 158              		.size	u8g_pb8v1_set_pixel, .-u8g_pb8v1_set_pixel
 159 0072 00BF     		.section	.text.u8g_pb8v1_SetPixel,"ax",%progbits
 160              		.align	2
 161              		.global	u8g_pb8v1_SetPixel
 162              		.thumb
 163              		.thumb_func
 164              		.type	u8g_pb8v1_SetPixel, %function
 165              	u8g_pb8v1_SetPixel:
 166              	.LFB2:
  77:u8glib_arm_v1.18.1\src/u8g_pb8v1.c **** 
  78:u8glib_arm_v1.18.1\src/u8g_pb8v1.c **** 
  79:u8glib_arm_v1.18.1\src/u8g_pb8v1.c **** void u8g_pb8v1_SetPixel(u8g_pb_t *b, const u8g_dev_arg_pixel_t * const arg_pixel)
  80:u8glib_arm_v1.18.1\src/u8g_pb8v1.c **** {
 167              		.loc 1 80 0
 168              		.cfi_startproc
 169              		@ args = 0, pretend = 0, frame = 8
 170              		@ frame_needed = 1, uses_anonymous_args = 0
 171 0000 80B5     		push	{r7, lr}
 172              		.cfi_def_cfa_offset 8
 173              		.cfi_offset 7, -8
 174              		.cfi_offset 14, -4
 175 0002 82B0     		sub	sp, sp, #8
 176              		.cfi_def_cfa_offset 16
 177 0004 00AF     		add	r7, sp, #0
 178              		.cfi_def_cfa_register 7
 179 0006 7860     		str	r0, [r7, #4]
 180 0008 3960     		str	r1, [r7]
  81:u8glib_arm_v1.18.1\src/u8g_pb8v1.c ****   if ( arg_pixel->y < b->p.page_y0 )
 181              		.loc 1 81 0
 182 000a 3B68     		ldr	r3, [r7]
 183 000c 5A78     		ldrb	r2, [r3, #1]	@ zero_extendqisi2
 184 000e 7B68     		ldr	r3, [r7, #4]
 185 0010 9B78     		ldrb	r3, [r3, #2]	@ zero_extendqisi2
 186 0012 9A42     		cmp	r2, r3
 187 0014 00D2     		bcs	.L6
  82:u8glib_arm_v1.18.1\src/u8g_pb8v1.c ****     return;
 188              		.loc 1 82 0
 189 0016 16E0     		b	.L5
 190              	.L6:
  83:u8glib_arm_v1.18.1\src/u8g_pb8v1.c ****   if ( arg_pixel->y > b->p.page_y1 )
 191              		.loc 1 83 0
 192 0018 3B68     		ldr	r3, [r7]
 193 001a 5A78     		ldrb	r2, [r3, #1]	@ zero_extendqisi2
 194 001c 7B68     		ldr	r3, [r7, #4]
 195 001e DB78     		ldrb	r3, [r3, #3]	@ zero_extendqisi2
 196 0020 9A42     		cmp	r2, r3
 197 0022 00D9     		bls	.L8
  84:u8glib_arm_v1.18.1\src/u8g_pb8v1.c ****     return;
 198              		.loc 1 84 0 discriminator 2
 199 0024 0FE0     		b	.L5
 200              	.L8:
  85:u8glib_arm_v1.18.1\src/u8g_pb8v1.c ****   if ( arg_pixel->x >= b->width )
ARM GAS  C:\Users\KJA\AppData\Local\Temp\cclOut2W.s 			page 6


 201              		.loc 1 85 0
 202 0026 3B68     		ldr	r3, [r7]
 203 0028 1A78     		ldrb	r2, [r3]	@ zero_extendqisi2
 204 002a 7B68     		ldr	r3, [r7, #4]
 205 002c 5B79     		ldrb	r3, [r3, #5]	@ zero_extendqisi2
 206 002e 9A42     		cmp	r2, r3
 207 0030 00D3     		bcc	.L9
  86:u8glib_arm_v1.18.1\src/u8g_pb8v1.c ****     return;
 208              		.loc 1 86 0 discriminator 3
 209 0032 08E0     		b	.L5
 210              	.L9:
  87:u8glib_arm_v1.18.1\src/u8g_pb8v1.c ****   u8g_pb8v1_set_pixel(b, arg_pixel->x, arg_pixel->y, arg_pixel->color);
 211              		.loc 1 87 0
 212 0034 3B68     		ldr	r3, [r7]
 213 0036 1978     		ldrb	r1, [r3]	@ zero_extendqisi2
 214 0038 3B68     		ldr	r3, [r7]
 215 003a 5A78     		ldrb	r2, [r3, #1]	@ zero_extendqisi2
 216 003c 3B68     		ldr	r3, [r7]
 217 003e 1B79     		ldrb	r3, [r3, #4]	@ zero_extendqisi2
 218 0040 7868     		ldr	r0, [r7, #4]
 219 0042 FFF7FEFF 		bl	u8g_pb8v1_set_pixel
 220              	.L5:
  88:u8glib_arm_v1.18.1\src/u8g_pb8v1.c **** }
 221              		.loc 1 88 0
 222 0046 0837     		adds	r7, r7, #8
 223              		.cfi_def_cfa_offset 8
 224 0048 BD46     		mov	sp, r7
 225              		.cfi_def_cfa_register 13
 226              		@ sp needed
 227 004a 80BD     		pop	{r7, pc}
 228              		.cfi_endproc
 229              	.LFE2:
 230              		.size	u8g_pb8v1_SetPixel, .-u8g_pb8v1_SetPixel
 231              		.section	.text.u8g_pb8v1_Set8PixelStd,"ax",%progbits
 232              		.align	2
 233              		.global	u8g_pb8v1_Set8PixelStd
 234              		.thumb
 235              		.thumb_func
 236              		.type	u8g_pb8v1_Set8PixelStd, %function
 237              	u8g_pb8v1_Set8PixelStd:
 238              	.LFB3:
  89:u8glib_arm_v1.18.1\src/u8g_pb8v1.c **** 
  90:u8glib_arm_v1.18.1\src/u8g_pb8v1.c **** void u8g_pb8v1_Set8PixelStd(u8g_pb_t *b, u8g_dev_arg_pixel_t *arg_pixel)
  91:u8glib_arm_v1.18.1\src/u8g_pb8v1.c **** {
 239              		.loc 1 91 0
 240              		.cfi_startproc
 241              		@ args = 0, pretend = 0, frame = 8
 242              		@ frame_needed = 1, uses_anonymous_args = 0
 243 0000 90B5     		push	{r4, r7, lr}
 244              		.cfi_def_cfa_offset 12
 245              		.cfi_offset 4, -12
 246              		.cfi_offset 7, -8
 247              		.cfi_offset 14, -4
 248 0002 83B0     		sub	sp, sp, #12
 249              		.cfi_def_cfa_offset 24
 250 0004 00AF     		add	r7, sp, #0
 251              		.cfi_def_cfa_register 7
ARM GAS  C:\Users\KJA\AppData\Local\Temp\cclOut2W.s 			page 7


 252 0006 7860     		str	r0, [r7, #4]
 253 0008 3960     		str	r1, [r7]
  92:u8glib_arm_v1.18.1\src/u8g_pb8v1.c ****   register uint8_t pixel = arg_pixel->pixel;
 254              		.loc 1 92 0
 255 000a 3B68     		ldr	r3, [r7]
 256 000c 9C78     		ldrb	r4, [r3, #2]	@ zero_extendqisi2
 257              	.L18:
  93:u8glib_arm_v1.18.1\src/u8g_pb8v1.c ****   do
  94:u8glib_arm_v1.18.1\src/u8g_pb8v1.c ****   {
  95:u8glib_arm_v1.18.1\src/u8g_pb8v1.c ****     if ( pixel & 128 )
 258              		.loc 1 95 0
 259 000e E3B2     		uxtb	r3, r4
 260 0010 5BB2     		sxtb	r3, r3
 261 0012 002B     		cmp	r3, #0
 262 0014 03DA     		bge	.L11
  96:u8glib_arm_v1.18.1\src/u8g_pb8v1.c ****     {
  97:u8glib_arm_v1.18.1\src/u8g_pb8v1.c ****       u8g_pb8v1_SetPixel(b, arg_pixel);
 263              		.loc 1 97 0
 264 0016 7868     		ldr	r0, [r7, #4]
 265 0018 3968     		ldr	r1, [r7]
 266 001a FFF7FEFF 		bl	u8g_pb8v1_SetPixel
 267              	.L11:
  98:u8glib_arm_v1.18.1\src/u8g_pb8v1.c ****     }
  99:u8glib_arm_v1.18.1\src/u8g_pb8v1.c ****     switch( arg_pixel->dir )
 268              		.loc 1 99 0
 269 001e 3B68     		ldr	r3, [r7]
 270 0020 DB78     		ldrb	r3, [r3, #3]	@ zero_extendqisi2
 271 0022 032B     		cmp	r3, #3
 272 0024 26D8     		bhi	.L12
 273 0026 01A2     		adr	r2, .L14
 274 0028 52F823F0 		ldr	pc, [r2, r3, lsl #2]
 275              		.p2align 2
 276              	.L14:
 277 002c 3D000000 		.word	.L13+1
 278 0030 4B000000 		.word	.L15+1
 279 0034 59000000 		.word	.L16+1
 280 0038 67000000 		.word	.L17+1
 281              		.p2align 1
 282              	.L13:
 100:u8glib_arm_v1.18.1\src/u8g_pb8v1.c ****     {
 101:u8glib_arm_v1.18.1\src/u8g_pb8v1.c ****       case 0: arg_pixel->x++; break;
 283              		.loc 1 101 0
 284 003c 3B68     		ldr	r3, [r7]
 285 003e 1B78     		ldrb	r3, [r3]	@ zero_extendqisi2
 286 0040 0133     		adds	r3, r3, #1
 287 0042 DAB2     		uxtb	r2, r3
 288 0044 3B68     		ldr	r3, [r7]
 289 0046 1A70     		strb	r2, [r3]
 290 0048 14E0     		b	.L12
 291              	.L15:
 102:u8glib_arm_v1.18.1\src/u8g_pb8v1.c ****       case 1: arg_pixel->y++; break;
 292              		.loc 1 102 0
 293 004a 3B68     		ldr	r3, [r7]
 294 004c 5B78     		ldrb	r3, [r3, #1]	@ zero_extendqisi2
 295 004e 0133     		adds	r3, r3, #1
 296 0050 DAB2     		uxtb	r2, r3
 297 0052 3B68     		ldr	r3, [r7]
ARM GAS  C:\Users\KJA\AppData\Local\Temp\cclOut2W.s 			page 8


 298 0054 5A70     		strb	r2, [r3, #1]
 299 0056 0DE0     		b	.L12
 300              	.L16:
 103:u8glib_arm_v1.18.1\src/u8g_pb8v1.c ****       case 2: arg_pixel->x--; break;
 301              		.loc 1 103 0
 302 0058 3B68     		ldr	r3, [r7]
 303 005a 1B78     		ldrb	r3, [r3]	@ zero_extendqisi2
 304 005c 013B     		subs	r3, r3, #1
 305 005e DAB2     		uxtb	r2, r3
 306 0060 3B68     		ldr	r3, [r7]
 307 0062 1A70     		strb	r2, [r3]
 308 0064 06E0     		b	.L12
 309              	.L17:
 104:u8glib_arm_v1.18.1\src/u8g_pb8v1.c ****       case 3: arg_pixel->y--; break;
 310              		.loc 1 104 0
 311 0066 3B68     		ldr	r3, [r7]
 312 0068 5B78     		ldrb	r3, [r3, #1]	@ zero_extendqisi2
 313 006a 013B     		subs	r3, r3, #1
 314 006c DAB2     		uxtb	r2, r3
 315 006e 3B68     		ldr	r3, [r7]
 316 0070 5A70     		strb	r2, [r3, #1]
 317 0072 00BF     		nop
 318              	.L12:
 105:u8glib_arm_v1.18.1\src/u8g_pb8v1.c ****     }
 106:u8glib_arm_v1.18.1\src/u8g_pb8v1.c ****     pixel <<= 1;
 319              		.loc 1 106 0
 320 0074 6300     		lsls	r3, r4, #1
 321 0076 DCB2     		uxtb	r4, r3
 107:u8glib_arm_v1.18.1\src/u8g_pb8v1.c ****   } while( pixel != 0  );
 322              		.loc 1 107 0
 323 0078 002C     		cmp	r4, #0
 324 007a C8D1     		bne	.L18
 108:u8glib_arm_v1.18.1\src/u8g_pb8v1.c **** }
 325              		.loc 1 108 0
 326 007c 0C37     		adds	r7, r7, #12
 327              		.cfi_def_cfa_offset 12
 328 007e BD46     		mov	sp, r7
 329              		.cfi_def_cfa_register 13
 330              		@ sp needed
 331 0080 90BD     		pop	{r4, r7, pc}
 332              		.cfi_endproc
 333              	.LFE3:
 334              		.size	u8g_pb8v1_Set8PixelStd, .-u8g_pb8v1_Set8PixelStd
 335 0082 00BF     		.section	.text.u8g_pb8v1_Set8PixelOpt2,"ax",%progbits
 336              		.align	2
 337              		.global	u8g_pb8v1_Set8PixelOpt2
 338              		.thumb
 339              		.thumb_func
 340              		.type	u8g_pb8v1_Set8PixelOpt2, %function
 341              	u8g_pb8v1_Set8PixelOpt2:
 342              	.LFB4:
 109:u8glib_arm_v1.18.1\src/u8g_pb8v1.c **** 
 110:u8glib_arm_v1.18.1\src/u8g_pb8v1.c **** 
 111:u8glib_arm_v1.18.1\src/u8g_pb8v1.c **** void u8g_pb8v1_Set8PixelOpt2(u8g_pb_t *b, u8g_dev_arg_pixel_t *arg_pixel)
 112:u8glib_arm_v1.18.1\src/u8g_pb8v1.c **** {
 343              		.loc 1 112 0
 344              		.cfi_startproc
ARM GAS  C:\Users\KJA\AppData\Local\Temp\cclOut2W.s 			page 9


 345              		@ args = 0, pretend = 0, frame = 16
 346              		@ frame_needed = 1, uses_anonymous_args = 0
 347 0000 90B5     		push	{r4, r7, lr}
 348              		.cfi_def_cfa_offset 12
 349              		.cfi_offset 4, -12
 350              		.cfi_offset 7, -8
 351              		.cfi_offset 14, -4
 352 0002 85B0     		sub	sp, sp, #20
 353              		.cfi_def_cfa_offset 32
 354 0004 00AF     		add	r7, sp, #0
 355              		.cfi_def_cfa_register 7
 356 0006 7860     		str	r0, [r7, #4]
 357 0008 3960     		str	r1, [r7]
 113:u8glib_arm_v1.18.1\src/u8g_pb8v1.c ****   register uint8_t pixel = arg_pixel->pixel;
 358              		.loc 1 113 0
 359 000a 3B68     		ldr	r3, [r7]
 360 000c 9C78     		ldrb	r4, [r3, #2]	@ zero_extendqisi2
 114:u8glib_arm_v1.18.1\src/u8g_pb8v1.c ****   u8g_uint_t dx = 0;
 361              		.loc 1 114 0
 362 000e 0023     		movs	r3, #0
 363 0010 FB73     		strb	r3, [r7, #15]
 115:u8glib_arm_v1.18.1\src/u8g_pb8v1.c ****   u8g_uint_t dy = 0;
 364              		.loc 1 115 0
 365 0012 0023     		movs	r3, #0
 366 0014 BB73     		strb	r3, [r7, #14]
 116:u8glib_arm_v1.18.1\src/u8g_pb8v1.c ****   
 117:u8glib_arm_v1.18.1\src/u8g_pb8v1.c ****   switch( arg_pixel->dir )
 367              		.loc 1 117 0
 368 0016 3B68     		ldr	r3, [r7]
 369 0018 DB78     		ldrb	r3, [r3, #3]	@ zero_extendqisi2
 370 001a 032B     		cmp	r3, #3
 371 001c 1AD8     		bhi	.L20
 372 001e 01A2     		adr	r2, .L22
 373 0020 52F823F0 		ldr	pc, [r2, r3, lsl #2]
 374              		.p2align 2
 375              	.L22:
 376 0024 35000000 		.word	.L21+1
 377 0028 3D000000 		.word	.L23+1
 378 002c 45000000 		.word	.L24+1
 379 0030 4D000000 		.word	.L25+1
 380              		.p2align 1
 381              	.L21:
 118:u8glib_arm_v1.18.1\src/u8g_pb8v1.c ****   {
 119:u8glib_arm_v1.18.1\src/u8g_pb8v1.c ****     case 0: dx++; break;
 382              		.loc 1 119 0
 383 0034 FB7B     		ldrb	r3, [r7, #15]	@ zero_extendqisi2
 384 0036 0133     		adds	r3, r3, #1
 385 0038 FB73     		strb	r3, [r7, #15]
 386 003a 0BE0     		b	.L20
 387              	.L23:
 120:u8glib_arm_v1.18.1\src/u8g_pb8v1.c ****     case 1: dy++; break;
 388              		.loc 1 120 0
 389 003c BB7B     		ldrb	r3, [r7, #14]	@ zero_extendqisi2
 390 003e 0133     		adds	r3, r3, #1
 391 0040 BB73     		strb	r3, [r7, #14]
 392 0042 07E0     		b	.L20
 393              	.L24:
ARM GAS  C:\Users\KJA\AppData\Local\Temp\cclOut2W.s 			page 10


 121:u8glib_arm_v1.18.1\src/u8g_pb8v1.c ****     case 2: dx--; break;
 394              		.loc 1 121 0
 395 0044 FB7B     		ldrb	r3, [r7, #15]	@ zero_extendqisi2
 396 0046 013B     		subs	r3, r3, #1
 397 0048 FB73     		strb	r3, [r7, #15]
 398 004a 03E0     		b	.L20
 399              	.L25:
 122:u8glib_arm_v1.18.1\src/u8g_pb8v1.c ****     case 3: dy--; break;
 400              		.loc 1 122 0
 401 004c BB7B     		ldrb	r3, [r7, #14]	@ zero_extendqisi2
 402 004e 013B     		subs	r3, r3, #1
 403 0050 BB73     		strb	r3, [r7, #14]
 404 0052 00BF     		nop
 405              	.L20:
 123:u8glib_arm_v1.18.1\src/u8g_pb8v1.c ****   }
 124:u8glib_arm_v1.18.1\src/u8g_pb8v1.c ****   
 125:u8glib_arm_v1.18.1\src/u8g_pb8v1.c ****   do
 126:u8glib_arm_v1.18.1\src/u8g_pb8v1.c ****   {
 127:u8glib_arm_v1.18.1\src/u8g_pb8v1.c ****     if ( pixel & 128 )
 406              		.loc 1 127 0
 407 0054 E3B2     		uxtb	r3, r4
 408 0056 5BB2     		sxtb	r3, r3
 409 0058 002B     		cmp	r3, #0
 410 005a 03DA     		bge	.L26
 128:u8glib_arm_v1.18.1\src/u8g_pb8v1.c ****       u8g_pb8v1_SetPixel(b, arg_pixel);
 411              		.loc 1 128 0
 412 005c 7868     		ldr	r0, [r7, #4]
 413 005e 3968     		ldr	r1, [r7]
 414 0060 FFF7FEFF 		bl	u8g_pb8v1_SetPixel
 415              	.L26:
 129:u8glib_arm_v1.18.1\src/u8g_pb8v1.c ****     arg_pixel->x += dx;
 416              		.loc 1 129 0
 417 0064 3B68     		ldr	r3, [r7]
 418 0066 1A78     		ldrb	r2, [r3]	@ zero_extendqisi2
 419 0068 FB7B     		ldrb	r3, [r7, #15]
 420 006a 1344     		add	r3, r3, r2
 421 006c DAB2     		uxtb	r2, r3
 422 006e 3B68     		ldr	r3, [r7]
 423 0070 1A70     		strb	r2, [r3]
 130:u8glib_arm_v1.18.1\src/u8g_pb8v1.c ****     arg_pixel->y += dy;
 424              		.loc 1 130 0
 425 0072 3B68     		ldr	r3, [r7]
 426 0074 5A78     		ldrb	r2, [r3, #1]	@ zero_extendqisi2
 427 0076 BB7B     		ldrb	r3, [r7, #14]
 428 0078 1344     		add	r3, r3, r2
 429 007a DAB2     		uxtb	r2, r3
 430 007c 3B68     		ldr	r3, [r7]
 431 007e 5A70     		strb	r2, [r3, #1]
 131:u8glib_arm_v1.18.1\src/u8g_pb8v1.c ****     pixel <<= 1;
 432              		.loc 1 131 0
 433 0080 6300     		lsls	r3, r4, #1
 434 0082 DCB2     		uxtb	r4, r3
 132:u8glib_arm_v1.18.1\src/u8g_pb8v1.c ****   } while( pixel != 0  );
 435              		.loc 1 132 0
 436 0084 002C     		cmp	r4, #0
 437 0086 E5D1     		bne	.L20
 133:u8glib_arm_v1.18.1\src/u8g_pb8v1.c ****   
ARM GAS  C:\Users\KJA\AppData\Local\Temp\cclOut2W.s 			page 11


 134:u8glib_arm_v1.18.1\src/u8g_pb8v1.c **** }
 438              		.loc 1 134 0
 439 0088 1437     		adds	r7, r7, #20
 440              		.cfi_def_cfa_offset 12
 441 008a BD46     		mov	sp, r7
 442              		.cfi_def_cfa_register 13
 443              		@ sp needed
 444 008c 90BD     		pop	{r4, r7, pc}
 445              		.cfi_endproc
 446              	.LFE4:
 447              		.size	u8g_pb8v1_Set8PixelOpt2, .-u8g_pb8v1_Set8PixelOpt2
 448 008e 00BF     		.section	.text.u8g_dev_pb8v1_base_fn,"ax",%progbits
 449              		.align	2
 450              		.global	u8g_dev_pb8v1_base_fn
 451              		.thumb
 452              		.thumb_func
 453              		.type	u8g_dev_pb8v1_base_fn, %function
 454              	u8g_dev_pb8v1_base_fn:
 455              	.LFB5:
 135:u8glib_arm_v1.18.1\src/u8g_pb8v1.c **** 
 136:u8glib_arm_v1.18.1\src/u8g_pb8v1.c **** uint8_t u8g_dev_pb8v1_base_fn(u8g_t *u8g, u8g_dev_t *dev, uint8_t msg, void *arg)
 137:u8glib_arm_v1.18.1\src/u8g_pb8v1.c **** {
 456              		.loc 1 137 0
 457              		.cfi_startproc
 458              		@ args = 0, pretend = 0, frame = 24
 459              		@ frame_needed = 1, uses_anonymous_args = 0
 460 0000 80B5     		push	{r7, lr}
 461              		.cfi_def_cfa_offset 8
 462              		.cfi_offset 7, -8
 463              		.cfi_offset 14, -4
 464 0002 86B0     		sub	sp, sp, #24
 465              		.cfi_def_cfa_offset 32
 466 0004 00AF     		add	r7, sp, #0
 467              		.cfi_def_cfa_register 7
 468 0006 F860     		str	r0, [r7, #12]
 469 0008 B960     		str	r1, [r7, #8]
 470 000a 3B60     		str	r3, [r7]
 471 000c 1346     		mov	r3, r2
 472 000e FB71     		strb	r3, [r7, #7]
 138:u8glib_arm_v1.18.1\src/u8g_pb8v1.c ****   u8g_pb_t *pb = (u8g_pb_t *)(dev->dev_mem);
 473              		.loc 1 138 0
 474 0010 BB68     		ldr	r3, [r7, #8]
 475 0012 5B68     		ldr	r3, [r3, #4]
 476 0014 7B61     		str	r3, [r7, #20]
 139:u8glib_arm_v1.18.1\src/u8g_pb8v1.c ****   switch(msg)
 477              		.loc 1 139 0
 478 0016 FB79     		ldrb	r3, [r7, #7]	@ zero_extendqisi2
 479 0018 0A3B     		subs	r3, r3, #10
 480 001a 3E2B     		cmp	r3, #62
 481 001c 00F2BA80 		bhi	.L28
 482 0020 01A2     		adr	r2, .L30
 483 0022 52F823F0 		ldr	pc, [r2, r3, lsl #2]
 484 0026 00BF     		.p2align 2
 485              	.L30:
 486 0028 95010000 		.word	.L28+1
 487 002c 95010000 		.word	.L28+1
 488 0030 95010000 		.word	.L28+1
ARM GAS  C:\Users\KJA\AppData\Local\Temp\cclOut2W.s 			page 12


 489 0034 95010000 		.word	.L28+1
 490 0038 95010000 		.word	.L28+1
 491 003c 95010000 		.word	.L28+1
 492 0040 95010000 		.word	.L28+1
 493 0044 95010000 		.word	.L28+1
 494 0048 95010000 		.word	.L28+1
 495 004c 95010000 		.word	.L28+1
 496 0050 49010000 		.word	.L32+1
 497 0054 59010000 		.word	.L33+1
 498 0058 95010000 		.word	.L28+1
 499 005c 73010000 		.word	.L34+1
 500 0060 95010000 		.word	.L28+1
 501 0064 95010000 		.word	.L28+1
 502 0068 95010000 		.word	.L28+1
 503 006c 95010000 		.word	.L28+1
 504 0070 95010000 		.word	.L28+1
 505 0074 95010000 		.word	.L28+1
 506 0078 95010000 		.word	.L28+1
 507 007c 95010000 		.word	.L28+1
 508 0080 95010000 		.word	.L28+1
 509 0084 95010000 		.word	.L28+1
 510 0088 95010000 		.word	.L28+1
 511 008c 95010000 		.word	.L28+1
 512 0090 95010000 		.word	.L28+1
 513 0094 95010000 		.word	.L28+1
 514 0098 95010000 		.word	.L28+1
 515 009c 95010000 		.word	.L28+1
 516 00a0 95010000 		.word	.L28+1
 517 00a4 95010000 		.word	.L28+1
 518 00a8 95010000 		.word	.L28+1
 519 00ac 95010000 		.word	.L28+1
 520 00b0 95010000 		.word	.L28+1
 521 00b4 95010000 		.word	.L28+1
 522 00b8 95010000 		.word	.L28+1
 523 00bc 95010000 		.word	.L28+1
 524 00c0 95010000 		.word	.L28+1
 525 00c4 95010000 		.word	.L28+1
 526 00c8 3F010000 		.word	.L35+1
 527 00cc 95010000 		.word	.L28+1
 528 00d0 95010000 		.word	.L28+1
 529 00d4 95010000 		.word	.L28+1
 530 00d8 95010000 		.word	.L28+1
 531 00dc 95010000 		.word	.L28+1
 532 00e0 95010000 		.word	.L28+1
 533 00e4 95010000 		.word	.L28+1
 534 00e8 95010000 		.word	.L28+1
 535 00ec 25010000 		.word	.L36+1
 536 00f0 95010000 		.word	.L28+1
 537 00f4 95010000 		.word	.L28+1
 538 00f8 95010000 		.word	.L28+1
 539 00fc 95010000 		.word	.L28+1
 540 0100 95010000 		.word	.L28+1
 541 0104 95010000 		.word	.L28+1
 542 0108 95010000 		.word	.L28+1
 543 010c 95010000 		.word	.L28+1
 544 0110 95010000 		.word	.L28+1
 545 0114 95010000 		.word	.L28+1
ARM GAS  C:\Users\KJA\AppData\Local\Temp\cclOut2W.s 			page 13


 546 0118 7D010000 		.word	.L39+1
 547 011c 87010000 		.word	.L40+1
 548 0120 91010000 		.word	.L41+1
 549              		.p2align 1
 550              	.L36:
 140:u8glib_arm_v1.18.1\src/u8g_pb8v1.c ****   {
 141:u8glib_arm_v1.18.1\src/u8g_pb8v1.c ****     case U8G_DEV_MSG_SET_8PIXEL:
 142:u8glib_arm_v1.18.1\src/u8g_pb8v1.c ****       if ( u8g_pb_Is8PixelVisible(pb, (u8g_dev_arg_pixel_t *)arg) )
 551              		.loc 1 142 0
 552 0124 7869     		ldr	r0, [r7, #20]
 553 0126 3968     		ldr	r1, [r7]
 554 0128 FFF7FEFF 		bl	u8g_pb_Is8PixelVisible
 555 012c 0346     		mov	r3, r0
 556 012e 002B     		cmp	r3, #0
 557 0130 04D0     		beq	.L42
 143:u8glib_arm_v1.18.1\src/u8g_pb8v1.c ****         u8g_pb8v1_Set8PixelOpt2(pb, (u8g_dev_arg_pixel_t *)arg);
 558              		.loc 1 143 0
 559 0132 7869     		ldr	r0, [r7, #20]
 560 0134 3968     		ldr	r1, [r7]
 561 0136 FFF7FEFF 		bl	u8g_pb8v1_Set8PixelOpt2
 144:u8glib_arm_v1.18.1\src/u8g_pb8v1.c ****       break;
 562              		.loc 1 144 0
 563 013a 2BE0     		b	.L28
 564              	.L42:
 565 013c 2AE0     		b	.L28
 566              	.L35:
 145:u8glib_arm_v1.18.1\src/u8g_pb8v1.c ****     case U8G_DEV_MSG_SET_PIXEL:
 146:u8glib_arm_v1.18.1\src/u8g_pb8v1.c ****         u8g_pb8v1_SetPixel(pb, (u8g_dev_arg_pixel_t *)arg);
 567              		.loc 1 146 0
 568 013e 7869     		ldr	r0, [r7, #20]
 569 0140 3968     		ldr	r1, [r7]
 570 0142 FFF7FEFF 		bl	u8g_pb8v1_SetPixel
 147:u8glib_arm_v1.18.1\src/u8g_pb8v1.c ****       break;
 571              		.loc 1 147 0
 572 0146 25E0     		b	.L28
 573              	.L32:
 148:u8glib_arm_v1.18.1\src/u8g_pb8v1.c ****     case U8G_DEV_MSG_INIT:
 149:u8glib_arm_v1.18.1\src/u8g_pb8v1.c ****       break;
 150:u8glib_arm_v1.18.1\src/u8g_pb8v1.c ****     case U8G_DEV_MSG_STOP:
 151:u8glib_arm_v1.18.1\src/u8g_pb8v1.c ****       break;
 152:u8glib_arm_v1.18.1\src/u8g_pb8v1.c ****     case U8G_DEV_MSG_PAGE_FIRST:
 153:u8glib_arm_v1.18.1\src/u8g_pb8v1.c ****       u8g_pb_Clear(pb);
 574              		.loc 1 153 0
 575 0148 7869     		ldr	r0, [r7, #20]
 576 014a FFF7FEFF 		bl	u8g_pb_Clear
 154:u8glib_arm_v1.18.1\src/u8g_pb8v1.c ****       u8g_page_First(&(pb->p));
 577              		.loc 1 154 0
 578 014e 7B69     		ldr	r3, [r7, #20]
 579 0150 1846     		mov	r0, r3
 580 0152 FFF7FEFF 		bl	u8g_page_First
 155:u8glib_arm_v1.18.1\src/u8g_pb8v1.c ****       break;
 581              		.loc 1 155 0
 582 0156 1DE0     		b	.L28
 583              	.L33:
 156:u8glib_arm_v1.18.1\src/u8g_pb8v1.c ****     case U8G_DEV_MSG_PAGE_NEXT:
 157:u8glib_arm_v1.18.1\src/u8g_pb8v1.c ****       if ( u8g_page_Next(&(pb->p)) == 0 )
 584              		.loc 1 157 0
ARM GAS  C:\Users\KJA\AppData\Local\Temp\cclOut2W.s 			page 14


 585 0158 7B69     		ldr	r3, [r7, #20]
 586 015a 1846     		mov	r0, r3
 587 015c FFF7FEFF 		bl	u8g_page_Next
 588 0160 0346     		mov	r3, r0
 589 0162 002B     		cmp	r3, #0
 590 0164 01D1     		bne	.L43
 158:u8glib_arm_v1.18.1\src/u8g_pb8v1.c ****         return 0;
 591              		.loc 1 158 0
 592 0166 0023     		movs	r3, #0
 593 0168 15E0     		b	.L44
 594              	.L43:
 159:u8glib_arm_v1.18.1\src/u8g_pb8v1.c ****       u8g_pb_Clear(pb);
 595              		.loc 1 159 0
 596 016a 7869     		ldr	r0, [r7, #20]
 597 016c FFF7FEFF 		bl	u8g_pb_Clear
 160:u8glib_arm_v1.18.1\src/u8g_pb8v1.c ****       break;
 598              		.loc 1 160 0
 599 0170 10E0     		b	.L28
 600              	.L34:
 161:u8glib_arm_v1.18.1\src/u8g_pb8v1.c **** #ifdef U8G_DEV_MSG_IS_BBX_INTERSECTION
 162:u8glib_arm_v1.18.1\src/u8g_pb8v1.c ****     case U8G_DEV_MSG_IS_BBX_INTERSECTION:
 163:u8glib_arm_v1.18.1\src/u8g_pb8v1.c ****       return u8g_pb_IsIntersection(pb, (u8g_dev_arg_bbx_t *)arg);
 164:u8glib_arm_v1.18.1\src/u8g_pb8v1.c **** #endif
 165:u8glib_arm_v1.18.1\src/u8g_pb8v1.c ****     case U8G_DEV_MSG_GET_PAGE_BOX:
 166:u8glib_arm_v1.18.1\src/u8g_pb8v1.c ****       u8g_pb_GetPageBox(pb, (u8g_box_t *)arg);
 601              		.loc 1 166 0
 602 0172 7869     		ldr	r0, [r7, #20]
 603 0174 3968     		ldr	r1, [r7]
 604 0176 FFF7FEFF 		bl	u8g_pb_GetPageBox
 167:u8glib_arm_v1.18.1\src/u8g_pb8v1.c ****       break;
 605              		.loc 1 167 0
 606 017a 0BE0     		b	.L28
 607              	.L39:
 168:u8glib_arm_v1.18.1\src/u8g_pb8v1.c ****     case U8G_DEV_MSG_GET_WIDTH:
 169:u8glib_arm_v1.18.1\src/u8g_pb8v1.c ****       *((u8g_uint_t *)arg) = pb->width;
 608              		.loc 1 169 0
 609 017c 7B69     		ldr	r3, [r7, #20]
 610 017e 5A79     		ldrb	r2, [r3, #5]	@ zero_extendqisi2
 611 0180 3B68     		ldr	r3, [r7]
 612 0182 1A70     		strb	r2, [r3]
 170:u8glib_arm_v1.18.1\src/u8g_pb8v1.c ****       break;
 613              		.loc 1 170 0
 614 0184 06E0     		b	.L28
 615              	.L40:
 171:u8glib_arm_v1.18.1\src/u8g_pb8v1.c ****     case U8G_DEV_MSG_GET_HEIGHT:
 172:u8glib_arm_v1.18.1\src/u8g_pb8v1.c ****       *((u8g_uint_t *)arg) = pb->p.total_height;
 616              		.loc 1 172 0
 617 0186 7B69     		ldr	r3, [r7, #20]
 618 0188 5A78     		ldrb	r2, [r3, #1]	@ zero_extendqisi2
 619 018a 3B68     		ldr	r3, [r7]
 620 018c 1A70     		strb	r2, [r3]
 173:u8glib_arm_v1.18.1\src/u8g_pb8v1.c ****       break;
 621              		.loc 1 173 0
 622 018e 01E0     		b	.L28
 623              	.L41:
 174:u8glib_arm_v1.18.1\src/u8g_pb8v1.c ****     case U8G_DEV_MSG_SET_COLOR_ENTRY:
 175:u8glib_arm_v1.18.1\src/u8g_pb8v1.c ****       break;
ARM GAS  C:\Users\KJA\AppData\Local\Temp\cclOut2W.s 			page 15


 176:u8glib_arm_v1.18.1\src/u8g_pb8v1.c ****     case U8G_DEV_MSG_SET_XY_CB:
 177:u8glib_arm_v1.18.1\src/u8g_pb8v1.c ****       break;
 178:u8glib_arm_v1.18.1\src/u8g_pb8v1.c ****     case U8G_DEV_MSG_GET_MODE:
 179:u8glib_arm_v1.18.1\src/u8g_pb8v1.c ****       return U8G_MODE_BW;
 624              		.loc 1 179 0
 625 0190 0123     		movs	r3, #1
 626 0192 00E0     		b	.L44
 627              	.L28:
 180:u8glib_arm_v1.18.1\src/u8g_pb8v1.c ****   }
 181:u8glib_arm_v1.18.1\src/u8g_pb8v1.c ****   return 1;
 628              		.loc 1 181 0
 629 0194 0123     		movs	r3, #1
 630              	.L44:
 182:u8glib_arm_v1.18.1\src/u8g_pb8v1.c **** }
 631              		.loc 1 182 0
 632 0196 1846     		mov	r0, r3
 633 0198 1837     		adds	r7, r7, #24
 634              		.cfi_def_cfa_offset 8
 635 019a BD46     		mov	sp, r7
 636              		.cfi_def_cfa_register 13
 637              		@ sp needed
 638 019c 80BD     		pop	{r7, pc}
 639              		.cfi_endproc
 640              	.LFE5:
 641              		.size	u8g_dev_pb8v1_base_fn, .-u8g_dev_pb8v1_base_fn
 642 019e 00BF     		.text
 643              	.Letext0:
 644              		.file 2 "c:\\program files (x86)\\cypress\\psoc creator\\4.0\\psoc creator\\import\\gnu\\arm\\4.9.
 645              		.file 3 "c:\\program files (x86)\\cypress\\psoc creator\\4.0\\psoc creator\\import\\gnu\\arm\\4.9.
 646              		.file 4 "u8glib_arm_v1.18.1\\src\\u8g.h"