ARM GAS  C:\Users\KJA\AppData\Local\Temp\ccckrLnX.s 			page 1


   1              		.syntax unified
   2              		.cpu cortex-m3
   3              		.fpu softvfp
   4              		.eabi_attribute 20, 1
   5              		.eabi_attribute 21, 1
   6              		.eabi_attribute 23, 3
   7              		.eabi_attribute 24, 1
   8              		.eabi_attribute 25, 1
   9              		.eabi_attribute 26, 1
  10              		.eabi_attribute 30, 6
  11              		.eabi_attribute 34, 1
  12              		.eabi_attribute 18, 4
  13              		.thumb
  14              		.file	"u8g_dev_uc1601_c128032.c"
  15              		.text
  16              	.Ltext0:
  17              		.cfi_sections	.debug_frame
  18              		.section	.rodata
  19              		.align	2
  20              		.type	u8g_dev_uc1601_c128032_init_seq, %object
  21              		.size	u8g_dev_uc1601_c128032_init_seq, 31
  22              	u8g_dev_uc1601_c128032_init_seq:
  23 0000 FF       		.byte	-1
  24 0001 D0       		.byte	-48
  25 0002 FF       		.byte	-1
  26 0003 E0       		.byte	-32
  27 0004 FF       		.byte	-1
  28 0005 D1       		.byte	-47
  29 0006 FF       		.byte	-1
  30 0007 CF       		.byte	-49
  31 0008 A3       		.byte	-93
  32 0009 A0       		.byte	-96
  33 000a C8       		.byte	-56
  34 000b C2       		.byte	-62
  35 000c 40       		.byte	64
  36 000d 2C       		.byte	44
  37 000e FF       		.byte	-1
  38 000f 32       		.byte	50
  39 0010 2E       		.byte	46
  40 0011 FF       		.byte	-1
  41 0012 32       		.byte	50
  42 0013 2F       		.byte	47
  43 0014 FF       		.byte	-1
  44 0015 0A       		.byte	10
  45 0016 26       		.byte	38
  46 0017 AF       		.byte	-81
  47 0018 A6       		.byte	-90
  48 0019 FF       		.byte	-1
  49 001a 64       		.byte	100
  50 001b FF       		.byte	-1
  51 001c D0       		.byte	-48
  52 001d FF       		.byte	-1
  53 001e FE       		.byte	-2
  54 001f 00       		.align	2
  55              		.type	u8g_dev_uc1601_c128032_data_start, %object
  56              		.size	u8g_dev_uc1601_c128032_data_start, 8
  57              	u8g_dev_uc1601_c128032_data_start:
ARM GAS  C:\Users\KJA\AppData\Local\Temp\ccckrLnX.s 			page 2


  58 0020 FF       		.byte	-1
  59 0021 E0       		.byte	-32
  60 0022 FF       		.byte	-1
  61 0023 D1       		.byte	-47
  62 0024 10       		.byte	16
  63 0025 04       		.byte	4
  64 0026 FF       		.byte	-1
  65 0027 FE       		.byte	-2
  66              		.align	2
  67              		.type	u8g_dev_uc1601_c128032_sleep_on, %object
  68              		.size	u8g_dev_uc1601_c128032_sleep_on, 12
  69              	u8g_dev_uc1601_c128032_sleep_on:
  70 0028 FF       		.byte	-1
  71 0029 E0       		.byte	-32
  72 002a FF       		.byte	-1
  73 002b D1       		.byte	-47
  74 002c AC       		.byte	-84
  75 002d 00       		.byte	0
  76 002e AE       		.byte	-82
  77 002f A5       		.byte	-91
  78 0030 FF       		.byte	-1
  79 0031 D1       		.byte	-47
  80 0032 FF       		.byte	-1
  81 0033 FE       		.byte	-2
  82              		.align	2
  83              		.type	u8g_dev_uc1601_c128032_sleep_off, %object
  84              		.size	u8g_dev_uc1601_c128032_sleep_off, 12
  85              	u8g_dev_uc1601_c128032_sleep_off:
  86 0034 FF       		.byte	-1
  87 0035 E0       		.byte	-32
  88 0036 FF       		.byte	-1
  89 0037 D1       		.byte	-47
  90 0038 A4       		.byte	-92
  91 0039 AF       		.byte	-81
  92 003a FF       		.byte	-1
  93 003b 32       		.byte	50
  94 003c FF       		.byte	-1
  95 003d D1       		.byte	-47
  96 003e FF       		.byte	-1
  97 003f FE       		.byte	-2
  98              		.section	.text.u8g_dev_uc1601_c128032_fn,"ax",%progbits
  99              		.align	2
 100              		.global	u8g_dev_uc1601_c128032_fn
 101              		.thumb
 102              		.thumb_func
 103              		.type	u8g_dev_uc1601_c128032_fn, %function
 104              	u8g_dev_uc1601_c128032_fn:
 105              	.LFB0:
 106              		.file 1 "u8g_dev_uc1601_c128032.c"
   1:u8g_dev_uc1601_c128032.c **** /*
   2:u8g_dev_uc1601_c128032.c **** 
   3:u8g_dev_uc1601_c128032.c ****   u8g_dev_uc1601_c128032.c
   4:u8g_dev_uc1601_c128032.c ****   
   5:u8g_dev_uc1601_c128032.c ****   LCD-AG-C128032R-DIW W/KK E6 PBF from http://www.artronic.pl/o_produkcie.php?id=1343
   6:u8g_dev_uc1601_c128032.c **** 
   7:u8g_dev_uc1601_c128032.c ****   Universal 8bit Graphics Library
   8:u8g_dev_uc1601_c128032.c ****   
ARM GAS  C:\Users\KJA\AppData\Local\Temp\ccckrLnX.s 			page 3


   9:u8g_dev_uc1601_c128032.c ****   Copyright (c) 2013, olikraus@gmail.com
  10:u8g_dev_uc1601_c128032.c ****   All rights reserved.
  11:u8g_dev_uc1601_c128032.c **** 
  12:u8g_dev_uc1601_c128032.c ****   Redistribution and use in source and binary forms, with or without modification, 
  13:u8g_dev_uc1601_c128032.c ****   are permitted provided that the following conditions are met:
  14:u8g_dev_uc1601_c128032.c **** 
  15:u8g_dev_uc1601_c128032.c ****   * Redistributions of source code must retain the above copyright notice, this list 
  16:u8g_dev_uc1601_c128032.c ****     of conditions and the following disclaimer.
  17:u8g_dev_uc1601_c128032.c ****     
  18:u8g_dev_uc1601_c128032.c ****   * Redistributions in binary form must reproduce the above copyright notice, this 
  19:u8g_dev_uc1601_c128032.c ****     list of conditions and the following disclaimer in the documentation and/or other 
  20:u8g_dev_uc1601_c128032.c ****     materials provided with the distribution.
  21:u8g_dev_uc1601_c128032.c **** 
  22:u8g_dev_uc1601_c128032.c ****   THIS SOFTWARE IS PROVIDED BY THE COPYRIGHT HOLDERS AND 
  23:u8g_dev_uc1601_c128032.c ****   CONTRIBUTORS "AS IS" AND ANY EXPRESS OR IMPLIED WARRANTIES, 
  24:u8g_dev_uc1601_c128032.c ****   INCLUDING, BUT NOT LIMITED TO, THE IMPLIED WARRANTIES OF 
  25:u8g_dev_uc1601_c128032.c ****   MERCHANTABILITY AND FITNESS FOR A PARTICULAR PURPOSE ARE 
  26:u8g_dev_uc1601_c128032.c ****   DISCLAIMED. IN NO EVENT SHALL THE COPYRIGHT HOLDER OR 
  27:u8g_dev_uc1601_c128032.c ****   CONTRIBUTORS BE LIABLE FOR ANY DIRECT, INDIRECT, INCIDENTAL, 
  28:u8g_dev_uc1601_c128032.c ****   SPECIAL, EXEMPLARY, OR CONSEQUENTIAL DAMAGES (INCLUDING, BUT 
  29:u8g_dev_uc1601_c128032.c ****   NOT LIMITED TO, PROCUREMENT OF SUBSTITUTE GOODS OR SERVICES; 
  30:u8g_dev_uc1601_c128032.c ****   LOSS OF USE, DATA, OR PROFITS; OR BUSINESS INTERRUPTION) HOWEVER 
  31:u8g_dev_uc1601_c128032.c ****   CAUSED AND ON ANY THEORY OF LIABILITY, WHETHER IN CONTRACT, 
  32:u8g_dev_uc1601_c128032.c ****   STRICT LIABILITY, OR TORT (INCLUDING NEGLIGENCE OR OTHERWISE) 
  33:u8g_dev_uc1601_c128032.c ****   ARISING IN ANY WAY OUT OF THE USE OF THIS SOFTWARE, EVEN IF 
  34:u8g_dev_uc1601_c128032.c ****   ADVISED OF THE POSSIBILITY OF SUCH DAMAGE.  
  35:u8g_dev_uc1601_c128032.c ****   
  36:u8g_dev_uc1601_c128032.c ****   
  37:u8g_dev_uc1601_c128032.c **** */
  38:u8g_dev_uc1601_c128032.c **** 
  39:u8g_dev_uc1601_c128032.c **** #include "u8g.h"
  40:u8g_dev_uc1601_c128032.c **** 
  41:u8g_dev_uc1601_c128032.c **** #define WIDTH 128
  42:u8g_dev_uc1601_c128032.c **** #define HEIGHT 32
  43:u8g_dev_uc1601_c128032.c **** #define PAGE_HEIGHT 8
  44:u8g_dev_uc1601_c128032.c **** 
  45:u8g_dev_uc1601_c128032.c **** /* init sequence */
  46:u8g_dev_uc1601_c128032.c **** static const uint8_t u8g_dev_uc1601_c128032_init_seq[] PROGMEM = {
  47:u8g_dev_uc1601_c128032.c ****   U8G_ESC_CS(0),            	/* disable chip */
  48:u8g_dev_uc1601_c128032.c ****   U8G_ESC_ADR(0),           	/* instruction mode */
  49:u8g_dev_uc1601_c128032.c ****   U8G_ESC_CS(1),             	/* enable chip */
  50:u8g_dev_uc1601_c128032.c ****   U8G_ESC_RST(15),           	/* do reset low pulse with (15*16)+2 milliseconds (=maximum delay)*/
  51:u8g_dev_uc1601_c128032.c **** 
  52:u8g_dev_uc1601_c128032.c ****   0x0a3,		        /* 0x0a3: LCD bias 1/7 ,  0x0a2: LCD bias 1/9 */
  53:u8g_dev_uc1601_c128032.c ****   0x0a0,		        /* 0x0a0: ADC set to normal,  0x0a1 ADC set to inverted */
  54:u8g_dev_uc1601_c128032.c ****   0x0c8,                        /* common output mode: set scan direction normal operation/SHL Sele
  55:u8g_dev_uc1601_c128032.c ****   0x0c2,				/* 22 May 2013: mirror x */
  56:u8g_dev_uc1601_c128032.c ****   
  57:u8g_dev_uc1601_c128032.c ****   0x040,		        /* set display start line */
  58:u8g_dev_uc1601_c128032.c ****   
  59:u8g_dev_uc1601_c128032.c ****   0x028 | 0x04,                 /* power control: turn on voltage converter */
  60:u8g_dev_uc1601_c128032.c ****   U8G_ESC_DLY(50),         	/* delay 50 ms */
  61:u8g_dev_uc1601_c128032.c **** 
  62:u8g_dev_uc1601_c128032.c ****   0x028 | 0x06,                 /* power control: turn on voltage regulator */
  63:u8g_dev_uc1601_c128032.c ****   U8G_ESC_DLY(50),         	/* delay 50 ms */
  64:u8g_dev_uc1601_c128032.c ****   
  65:u8g_dev_uc1601_c128032.c ****   0x028 | 0x07,                 /* power control: turn on voltage follower */
ARM GAS  C:\Users\KJA\AppData\Local\Temp\ccckrLnX.s 			page 4


  66:u8g_dev_uc1601_c128032.c ****   U8G_ESC_DLY(10),         	/* delay 10 ms */
  67:u8g_dev_uc1601_c128032.c **** 
  68:u8g_dev_uc1601_c128032.c ****   0x020| 0x06,		        /* set V0 voltage resistor ratio to 6  */
  69:u8g_dev_uc1601_c128032.c ****   
  70:u8g_dev_uc1601_c128032.c ****   0x0af,		        /* display on */
  71:u8g_dev_uc1601_c128032.c ****   
  72:u8g_dev_uc1601_c128032.c ****   //0x081,		        /* set contrast */
  73:u8g_dev_uc1601_c128032.c ****   //0x018,		        /* contrast value*/
  74:u8g_dev_uc1601_c128032.c ****  
  75:u8g_dev_uc1601_c128032.c ****   0x0a6,                      /* display normal, bit val 0: LCD pixel off. */
  76:u8g_dev_uc1601_c128032.c **** 
  77:u8g_dev_uc1601_c128032.c ****   U8G_ESC_DLY(100),       	/* delay 100 ms */
  78:u8g_dev_uc1601_c128032.c ****   U8G_ESC_CS(0),             	/* disable chip */
  79:u8g_dev_uc1601_c128032.c ****   U8G_ESC_END                	/* end of sequence */
  80:u8g_dev_uc1601_c128032.c **** };
  81:u8g_dev_uc1601_c128032.c **** 
  82:u8g_dev_uc1601_c128032.c **** static const uint8_t u8g_dev_uc1601_c128032_data_start[] PROGMEM = {
  83:u8g_dev_uc1601_c128032.c ****   U8G_ESC_ADR(0),           	/* instruction mode */
  84:u8g_dev_uc1601_c128032.c ****   U8G_ESC_CS(1),             	/* enable chip */
  85:u8g_dev_uc1601_c128032.c ****   0x010,			/* set upper 4 bit of the col adr to 0 */
  86:u8g_dev_uc1601_c128032.c ****   0x004,			/* set lower 4 bit of the col adr  */      
  87:u8g_dev_uc1601_c128032.c ****   U8G_ESC_END                	/* end of sequence */
  88:u8g_dev_uc1601_c128032.c **** };
  89:u8g_dev_uc1601_c128032.c **** 
  90:u8g_dev_uc1601_c128032.c **** static const uint8_t u8g_dev_uc1601_c128032_sleep_on[] PROGMEM = {
  91:u8g_dev_uc1601_c128032.c ****   U8G_ESC_ADR(0),           	/* instruction mode */
  92:u8g_dev_uc1601_c128032.c ****   U8G_ESC_CS(1),             	/* enable chip */
  93:u8g_dev_uc1601_c128032.c ****   0x0ac,			/* static indicator off */
  94:u8g_dev_uc1601_c128032.c ****   0x000,		        /* indicator register set (not sure if this is required) */
  95:u8g_dev_uc1601_c128032.c ****   0x0ae,			/* display off */      
  96:u8g_dev_uc1601_c128032.c ****   0x0a5,			/* all points on */      
  97:u8g_dev_uc1601_c128032.c ****   U8G_ESC_CS(1),             	/* disable chip */
  98:u8g_dev_uc1601_c128032.c ****   U8G_ESC_END                	/* end of sequence */
  99:u8g_dev_uc1601_c128032.c **** };
 100:u8g_dev_uc1601_c128032.c **** 
 101:u8g_dev_uc1601_c128032.c **** static const uint8_t u8g_dev_uc1601_c128032_sleep_off[] PROGMEM = {
 102:u8g_dev_uc1601_c128032.c ****   U8G_ESC_ADR(0),           	/* instruction mode */
 103:u8g_dev_uc1601_c128032.c ****   U8G_ESC_CS(1),             	/* enable chip */
 104:u8g_dev_uc1601_c128032.c ****   0x0a4,			/* all points off */      
 105:u8g_dev_uc1601_c128032.c ****   0x0af,			/* display on */      
 106:u8g_dev_uc1601_c128032.c ****   U8G_ESC_DLY(50),       	/* delay 50 ms */
 107:u8g_dev_uc1601_c128032.c ****   U8G_ESC_CS(1),             	/* disable chip */
 108:u8g_dev_uc1601_c128032.c ****   U8G_ESC_END                	/* end of sequence */
 109:u8g_dev_uc1601_c128032.c **** };
 110:u8g_dev_uc1601_c128032.c **** 
 111:u8g_dev_uc1601_c128032.c **** 
 112:u8g_dev_uc1601_c128032.c **** uint8_t u8g_dev_uc1601_c128032_fn(u8g_t *u8g, u8g_dev_t *dev, uint8_t msg, void *arg)
 113:u8g_dev_uc1601_c128032.c **** {
 107              		.loc 1 113 0
 108              		.cfi_startproc
 109              		@ args = 0, pretend = 0, frame = 24
 110              		@ frame_needed = 1, uses_anonymous_args = 0
 111 0000 80B5     		push	{r7, lr}
 112              		.cfi_def_cfa_offset 8
 113              		.cfi_offset 7, -8
 114              		.cfi_offset 14, -4
 115 0002 86B0     		sub	sp, sp, #24
ARM GAS  C:\Users\KJA\AppData\Local\Temp\ccckrLnX.s 			page 5


 116              		.cfi_def_cfa_offset 32
 117 0004 00AF     		add	r7, sp, #0
 118              		.cfi_def_cfa_register 7
 119 0006 F860     		str	r0, [r7, #12]
 120 0008 B960     		str	r1, [r7, #8]
 121 000a 3B60     		str	r3, [r7]
 122 000c 1346     		mov	r3, r2
 123 000e FB71     		strb	r3, [r7, #7]
 114:u8g_dev_uc1601_c128032.c ****   switch(msg)
 124              		.loc 1 114 0
 125 0010 FB79     		ldrb	r3, [r7, #7]	@ zero_extendqisi2
 126 0012 0A3B     		subs	r3, r3, #10
 127 0014 0B2B     		cmp	r3, #11
 128 0016 7AD8     		bhi	.L2
 129 0018 01A2     		adr	r2, .L4
 130 001a 52F823F0 		ldr	pc, [r2, r3, lsl #2]
 131 001e 00BF     		.p2align 2
 132              	.L4:
 133 0020 51000000 		.word	.L3+1
 134 0024 0F010000 		.word	.L2+1
 135 0028 0F010000 		.word	.L2+1
 136 002c 0F010000 		.word	.L2+1
 137 0030 0F010000 		.word	.L2+1
 138 0034 B5000000 		.word	.L6+1
 139 0038 F3000000 		.word	.L7+1
 140 003c 01010000 		.word	.L8+1
 141 0040 0F010000 		.word	.L2+1
 142 0044 0F010000 		.word	.L2+1
 143 0048 0F010000 		.word	.L2+1
 144 004c 67000000 		.word	.L9+1
 145              		.p2align 1
 146              	.L3:
 115:u8g_dev_uc1601_c128032.c ****   {
 116:u8g_dev_uc1601_c128032.c ****     case U8G_DEV_MSG_INIT:
 117:u8g_dev_uc1601_c128032.c ****       u8g_InitCom(u8g, dev, U8G_SPI_CLK_CYCLE_NONE);
 147              		.loc 1 117 0
 148 0050 F868     		ldr	r0, [r7, #12]
 149 0052 B968     		ldr	r1, [r7, #8]
 150 0054 FF22     		movs	r2, #255
 151 0056 FFF7FEFF 		bl	u8g_InitCom
 118:u8g_dev_uc1601_c128032.c ****       u8g_WriteEscSeqP(u8g, dev, u8g_dev_uc1601_c128032_init_seq);
 152              		.loc 1 118 0
 153 005a F868     		ldr	r0, [r7, #12]
 154 005c B968     		ldr	r1, [r7, #8]
 155 005e 324A     		ldr	r2, .L12
 156 0060 FFF7FEFF 		bl	u8g_WriteEscSeqP
 119:u8g_dev_uc1601_c128032.c ****       break;
 157              		.loc 1 119 0
 158 0064 53E0     		b	.L2
 159              	.L9:
 160              	.LBB2:
 120:u8g_dev_uc1601_c128032.c ****     case U8G_DEV_MSG_STOP:
 121:u8g_dev_uc1601_c128032.c ****       break;
 122:u8g_dev_uc1601_c128032.c ****     case U8G_DEV_MSG_PAGE_NEXT:
 123:u8g_dev_uc1601_c128032.c ****       {
 124:u8g_dev_uc1601_c128032.c ****         u8g_pb_t *pb = (u8g_pb_t *)(dev->dev_mem);
 161              		.loc 1 124 0
ARM GAS  C:\Users\KJA\AppData\Local\Temp\ccckrLnX.s 			page 6


 162 0066 BB68     		ldr	r3, [r7, #8]
 163 0068 5B68     		ldr	r3, [r3, #4]
 164 006a 7B61     		str	r3, [r7, #20]
 125:u8g_dev_uc1601_c128032.c ****         u8g_WriteEscSeqP(u8g, dev, u8g_dev_uc1601_c128032_data_start);    
 165              		.loc 1 125 0
 166 006c F868     		ldr	r0, [r7, #12]
 167 006e B968     		ldr	r1, [r7, #8]
 168 0070 2E4A     		ldr	r2, .L12+4
 169 0072 FFF7FEFF 		bl	u8g_WriteEscSeqP
 126:u8g_dev_uc1601_c128032.c ****         u8g_WriteByte(u8g, dev, 0x0b0 | pb->p.page); /* select current page (UC1601) */
 170              		.loc 1 126 0
 171 0076 7B69     		ldr	r3, [r7, #20]
 172 0078 1B79     		ldrb	r3, [r3, #4]	@ zero_extendqisi2
 173 007a 63F04F03 		orn	r3, r3, #79
 174 007e DBB2     		uxtb	r3, r3
 175 0080 F868     		ldr	r0, [r7, #12]
 176 0082 B968     		ldr	r1, [r7, #8]
 177 0084 1A46     		mov	r2, r3
 178 0086 FFF7FEFF 		bl	u8g_WriteByte
 127:u8g_dev_uc1601_c128032.c ****         u8g_SetAddress(u8g, dev, 1);           /* data mode */
 179              		.loc 1 127 0
 180 008a F868     		ldr	r0, [r7, #12]
 181 008c B968     		ldr	r1, [r7, #8]
 182 008e 0122     		movs	r2, #1
 183 0090 FFF7FEFF 		bl	u8g_SetAddress
 128:u8g_dev_uc1601_c128032.c ****         if ( u8g_pb_WriteBuffer(pb, u8g, dev) == 0 )
 184              		.loc 1 128 0
 185 0094 7869     		ldr	r0, [r7, #20]
 186 0096 F968     		ldr	r1, [r7, #12]
 187 0098 BA68     		ldr	r2, [r7, #8]
 188 009a FFF7FEFF 		bl	u8g_pb_WriteBuffer
 189 009e 0346     		mov	r3, r0
 190 00a0 002B     		cmp	r3, #0
 191 00a2 01D1     		bne	.L10
 129:u8g_dev_uc1601_c128032.c ****           return 0;
 192              		.loc 1 129 0
 193 00a4 0023     		movs	r3, #0
 194 00a6 3AE0     		b	.L11
 195              	.L10:
 130:u8g_dev_uc1601_c128032.c ****         u8g_SetChipSelect(u8g, dev, 0);
 196              		.loc 1 130 0
 197 00a8 F868     		ldr	r0, [r7, #12]
 198 00aa B968     		ldr	r1, [r7, #8]
 199 00ac 0022     		movs	r2, #0
 200 00ae FFF7FEFF 		bl	u8g_SetChipSelect
 201              	.LBE2:
 131:u8g_dev_uc1601_c128032.c ****       }
 132:u8g_dev_uc1601_c128032.c ****       break;
 202              		.loc 1 132 0
 203 00b2 2CE0     		b	.L2
 204              	.L6:
 133:u8g_dev_uc1601_c128032.c ****     case U8G_DEV_MSG_CONTRAST:
 134:u8g_dev_uc1601_c128032.c ****       u8g_SetChipSelect(u8g, dev, 1);
 205              		.loc 1 134 0
 206 00b4 F868     		ldr	r0, [r7, #12]
 207 00b6 B968     		ldr	r1, [r7, #8]
 208 00b8 0122     		movs	r2, #1
ARM GAS  C:\Users\KJA\AppData\Local\Temp\ccckrLnX.s 			page 7


 209 00ba FFF7FEFF 		bl	u8g_SetChipSelect
 135:u8g_dev_uc1601_c128032.c ****       u8g_SetAddress(u8g, dev, 0);          /* instruction mode */
 210              		.loc 1 135 0
 211 00be F868     		ldr	r0, [r7, #12]
 212 00c0 B968     		ldr	r1, [r7, #8]
 213 00c2 0022     		movs	r2, #0
 214 00c4 FFF7FEFF 		bl	u8g_SetAddress
 136:u8g_dev_uc1601_c128032.c ****       u8g_WriteByte(u8g, dev, 0x081);
 215              		.loc 1 136 0
 216 00c8 F868     		ldr	r0, [r7, #12]
 217 00ca B968     		ldr	r1, [r7, #8]
 218 00cc 8122     		movs	r2, #129
 219 00ce FFF7FEFF 		bl	u8g_WriteByte
 137:u8g_dev_uc1601_c128032.c ****       u8g_WriteByte(u8g, dev, (*(uint8_t *)arg) >> 2);
 220              		.loc 1 137 0
 221 00d2 3B68     		ldr	r3, [r7]
 222 00d4 1B78     		ldrb	r3, [r3]	@ zero_extendqisi2
 223 00d6 9B08     		lsrs	r3, r3, #2
 224 00d8 DBB2     		uxtb	r3, r3
 225 00da F868     		ldr	r0, [r7, #12]
 226 00dc B968     		ldr	r1, [r7, #8]
 227 00de 1A46     		mov	r2, r3
 228 00e0 FFF7FEFF 		bl	u8g_WriteByte
 138:u8g_dev_uc1601_c128032.c ****       u8g_SetChipSelect(u8g, dev, 0);      
 229              		.loc 1 138 0
 230 00e4 F868     		ldr	r0, [r7, #12]
 231 00e6 B968     		ldr	r1, [r7, #8]
 232 00e8 0022     		movs	r2, #0
 233 00ea FFF7FEFF 		bl	u8g_SetChipSelect
 139:u8g_dev_uc1601_c128032.c ****       return 1;
 234              		.loc 1 139 0
 235 00ee 0123     		movs	r3, #1
 236 00f0 15E0     		b	.L11
 237              	.L7:
 140:u8g_dev_uc1601_c128032.c ****     case U8G_DEV_MSG_SLEEP_ON:
 141:u8g_dev_uc1601_c128032.c ****       u8g_WriteEscSeqP(u8g, dev, u8g_dev_uc1601_c128032_sleep_on);    
 238              		.loc 1 141 0
 239 00f2 F868     		ldr	r0, [r7, #12]
 240 00f4 B968     		ldr	r1, [r7, #8]
 241 00f6 0E4A     		ldr	r2, .L12+8
 242 00f8 FFF7FEFF 		bl	u8g_WriteEscSeqP
 142:u8g_dev_uc1601_c128032.c ****       return 1;
 243              		.loc 1 142 0
 244 00fc 0123     		movs	r3, #1
 245 00fe 0EE0     		b	.L11
 246              	.L8:
 143:u8g_dev_uc1601_c128032.c ****     case U8G_DEV_MSG_SLEEP_OFF:
 144:u8g_dev_uc1601_c128032.c ****       u8g_WriteEscSeqP(u8g, dev, u8g_dev_uc1601_c128032_sleep_off);    
 247              		.loc 1 144 0
 248 0100 F868     		ldr	r0, [r7, #12]
 249 0102 B968     		ldr	r1, [r7, #8]
 250 0104 0B4A     		ldr	r2, .L12+12
 251 0106 FFF7FEFF 		bl	u8g_WriteEscSeqP
 145:u8g_dev_uc1601_c128032.c ****       return 1;
 252              		.loc 1 145 0
 253 010a 0123     		movs	r3, #1
 254 010c 07E0     		b	.L11
ARM GAS  C:\Users\KJA\AppData\Local\Temp\ccckrLnX.s 			page 8


 255              	.L2:
 146:u8g_dev_uc1601_c128032.c ****   }
 147:u8g_dev_uc1601_c128032.c ****   return u8g_dev_pb8v1_base_fn(u8g, dev, msg, arg);
 256              		.loc 1 147 0
 257 010e FB79     		ldrb	r3, [r7, #7]	@ zero_extendqisi2
 258 0110 F868     		ldr	r0, [r7, #12]
 259 0112 B968     		ldr	r1, [r7, #8]
 260 0114 1A46     		mov	r2, r3
 261 0116 3B68     		ldr	r3, [r7]
 262 0118 FFF7FEFF 		bl	u8g_dev_pb8v1_base_fn
 263 011c 0346     		mov	r3, r0
 264              	.L11:
 148:u8g_dev_uc1601_c128032.c **** }
 265              		.loc 1 148 0
 266 011e 1846     		mov	r0, r3
 267 0120 1837     		adds	r7, r7, #24
 268              		.cfi_def_cfa_offset 8
 269 0122 BD46     		mov	sp, r7
 270              		.cfi_def_cfa_register 13
 271              		@ sp needed
 272 0124 80BD     		pop	{r7, pc}
 273              	.L13:
 274 0126 00BF     		.align	2
 275              	.L12:
 276 0128 00000000 		.word	u8g_dev_uc1601_c128032_init_seq
 277 012c 20000000 		.word	u8g_dev_uc1601_c128032_data_start
 278 0130 28000000 		.word	u8g_dev_uc1601_c128032_sleep_on
 279 0134 34000000 		.word	u8g_dev_uc1601_c128032_sleep_off
 280              		.cfi_endproc
 281              	.LFE0:
 282              		.size	u8g_dev_uc1601_c128032_fn, .-u8g_dev_uc1601_c128032_fn
 283              		.section	.text.u8g_dev_uc1601_c128032_2x_fn,"ax",%progbits
 284              		.align	2
 285              		.global	u8g_dev_uc1601_c128032_2x_fn
 286              		.thumb
 287              		.thumb_func
 288              		.type	u8g_dev_uc1601_c128032_2x_fn, %function
 289              	u8g_dev_uc1601_c128032_2x_fn:
 290              	.LFB1:
 149:u8g_dev_uc1601_c128032.c **** 
 150:u8g_dev_uc1601_c128032.c **** uint8_t u8g_dev_uc1601_c128032_2x_fn(u8g_t *u8g, u8g_dev_t *dev, uint8_t msg, void *arg)
 151:u8g_dev_uc1601_c128032.c **** {
 291              		.loc 1 151 0
 292              		.cfi_startproc
 293              		@ args = 0, pretend = 0, frame = 24
 294              		@ frame_needed = 1, uses_anonymous_args = 0
 295 0000 90B5     		push	{r4, r7, lr}
 296              		.cfi_def_cfa_offset 12
 297              		.cfi_offset 4, -12
 298              		.cfi_offset 7, -8
 299              		.cfi_offset 14, -4
 300 0002 87B0     		sub	sp, sp, #28
 301              		.cfi_def_cfa_offset 40
 302 0004 00AF     		add	r7, sp, #0
 303              		.cfi_def_cfa_register 7
 304 0006 F860     		str	r0, [r7, #12]
 305 0008 B960     		str	r1, [r7, #8]
ARM GAS  C:\Users\KJA\AppData\Local\Temp\ccckrLnX.s 			page 9


 306 000a 3B60     		str	r3, [r7]
 307 000c 1346     		mov	r3, r2
 308 000e FB71     		strb	r3, [r7, #7]
 152:u8g_dev_uc1601_c128032.c ****   switch(msg)
 309              		.loc 1 152 0
 310 0010 FB79     		ldrb	r3, [r7, #7]	@ zero_extendqisi2
 311 0012 0A3B     		subs	r3, r3, #10
 312 0014 0B2B     		cmp	r3, #11
 313 0016 00F2A780 		bhi	.L15
 314 001a 01A2     		adr	r2, .L17
 315 001c 52F823F0 		ldr	pc, [r2, r3, lsl #2]
 316              		.p2align 2
 317              	.L17:
 318 0020 51000000 		.word	.L16+1
 319 0024 69010000 		.word	.L15+1
 320 0028 69010000 		.word	.L15+1
 321 002c 69010000 		.word	.L15+1
 322 0030 69010000 		.word	.L15+1
 323 0034 0F010000 		.word	.L19+1
 324 0038 4D010000 		.word	.L20+1
 325 003c 5B010000 		.word	.L21+1
 326 0040 69010000 		.word	.L15+1
 327 0044 69010000 		.word	.L15+1
 328 0048 69010000 		.word	.L15+1
 329 004c 67000000 		.word	.L22+1
 330              		.p2align 1
 331              	.L16:
 153:u8g_dev_uc1601_c128032.c ****   {
 154:u8g_dev_uc1601_c128032.c ****     case U8G_DEV_MSG_INIT:
 155:u8g_dev_uc1601_c128032.c ****       u8g_InitCom(u8g, dev, U8G_SPI_CLK_CYCLE_300NS);
 332              		.loc 1 155 0
 333 0050 F868     		ldr	r0, [r7, #12]
 334 0052 B968     		ldr	r1, [r7, #8]
 335 0054 0222     		movs	r2, #2
 336 0056 FFF7FEFF 		bl	u8g_InitCom
 156:u8g_dev_uc1601_c128032.c ****       u8g_WriteEscSeqP(u8g, dev, u8g_dev_uc1601_c128032_init_seq);
 337              		.loc 1 156 0
 338 005a F868     		ldr	r0, [r7, #12]
 339 005c B968     		ldr	r1, [r7, #8]
 340 005e 484A     		ldr	r2, .L24
 341 0060 FFF7FEFF 		bl	u8g_WriteEscSeqP
 157:u8g_dev_uc1601_c128032.c ****       break;
 342              		.loc 1 157 0
 343 0064 80E0     		b	.L15
 344              	.L22:
 345              	.LBB3:
 158:u8g_dev_uc1601_c128032.c ****     case U8G_DEV_MSG_STOP:
 159:u8g_dev_uc1601_c128032.c ****       break;
 160:u8g_dev_uc1601_c128032.c ****     case U8G_DEV_MSG_PAGE_NEXT:
 161:u8g_dev_uc1601_c128032.c ****       {
 162:u8g_dev_uc1601_c128032.c ****         u8g_pb_t *pb = (u8g_pb_t *)(dev->dev_mem);
 346              		.loc 1 162 0
 347 0066 BB68     		ldr	r3, [r7, #8]
 348 0068 5B68     		ldr	r3, [r3, #4]
 349 006a 7B61     		str	r3, [r7, #20]
 163:u8g_dev_uc1601_c128032.c **** 	
 164:u8g_dev_uc1601_c128032.c ****         u8g_WriteEscSeqP(u8g, dev, u8g_dev_uc1601_c128032_data_start);    
ARM GAS  C:\Users\KJA\AppData\Local\Temp\ccckrLnX.s 			page 10


 350              		.loc 1 164 0
 351 006c F868     		ldr	r0, [r7, #12]
 352 006e B968     		ldr	r1, [r7, #8]
 353 0070 444A     		ldr	r2, .L24+4
 354 0072 FFF7FEFF 		bl	u8g_WriteEscSeqP
 165:u8g_dev_uc1601_c128032.c ****         u8g_WriteByte(u8g, dev, 0x0b0 | (2*pb->p.page)); /* select current page (UC1601) */
 355              		.loc 1 165 0
 356 0076 7B69     		ldr	r3, [r7, #20]
 357 0078 1B79     		ldrb	r3, [r3, #4]	@ zero_extendqisi2
 358 007a 5B00     		lsls	r3, r3, #1
 359 007c DBB2     		uxtb	r3, r3
 360 007e DBB2     		uxtb	r3, r3
 361 0080 63F04F03 		orn	r3, r3, #79
 362 0084 DBB2     		uxtb	r3, r3
 363 0086 DBB2     		uxtb	r3, r3
 364 0088 F868     		ldr	r0, [r7, #12]
 365 008a B968     		ldr	r1, [r7, #8]
 366 008c 1A46     		mov	r2, r3
 367 008e FFF7FEFF 		bl	u8g_WriteByte
 166:u8g_dev_uc1601_c128032.c ****         u8g_SetAddress(u8g, dev, 1);           /* data mode */
 368              		.loc 1 166 0
 369 0092 F868     		ldr	r0, [r7, #12]
 370 0094 B968     		ldr	r1, [r7, #8]
 371 0096 0122     		movs	r2, #1
 372 0098 FFF7FEFF 		bl	u8g_SetAddress
 167:u8g_dev_uc1601_c128032.c **** 	u8g_WriteSequence(u8g, dev, pb->width, pb->buf); 
 373              		.loc 1 167 0
 374 009c 7B69     		ldr	r3, [r7, #20]
 375 009e 5A79     		ldrb	r2, [r3, #5]	@ zero_extendqisi2
 376 00a0 7B69     		ldr	r3, [r7, #20]
 377 00a2 9B68     		ldr	r3, [r3, #8]
 378 00a4 F868     		ldr	r0, [r7, #12]
 379 00a6 B968     		ldr	r1, [r7, #8]
 380 00a8 FFF7FEFF 		bl	u8g_WriteSequence
 168:u8g_dev_uc1601_c128032.c ****         u8g_SetChipSelect(u8g, dev, 0);
 381              		.loc 1 168 0
 382 00ac F868     		ldr	r0, [r7, #12]
 383 00ae B968     		ldr	r1, [r7, #8]
 384 00b0 0022     		movs	r2, #0
 385 00b2 FFF7FEFF 		bl	u8g_SetChipSelect
 169:u8g_dev_uc1601_c128032.c **** 	
 170:u8g_dev_uc1601_c128032.c ****         u8g_WriteEscSeqP(u8g, dev, u8g_dev_uc1601_c128032_data_start);    
 386              		.loc 1 170 0
 387 00b6 F868     		ldr	r0, [r7, #12]
 388 00b8 B968     		ldr	r1, [r7, #8]
 389 00ba 324A     		ldr	r2, .L24+4
 390 00bc FFF7FEFF 		bl	u8g_WriteEscSeqP
 171:u8g_dev_uc1601_c128032.c ****         u8g_WriteByte(u8g, dev, 0x0b0 | (2*pb->p.page+1)); /* select current page (UC1601) */
 391              		.loc 1 171 0
 392 00c0 7B69     		ldr	r3, [r7, #20]
 393 00c2 1B79     		ldrb	r3, [r3, #4]	@ zero_extendqisi2
 394 00c4 5B00     		lsls	r3, r3, #1
 395 00c6 DBB2     		uxtb	r3, r3
 396 00c8 0133     		adds	r3, r3, #1
 397 00ca DBB2     		uxtb	r3, r3
 398 00cc DBB2     		uxtb	r3, r3
 399 00ce 63F04F03 		orn	r3, r3, #79
ARM GAS  C:\Users\KJA\AppData\Local\Temp\ccckrLnX.s 			page 11


 400 00d2 DBB2     		uxtb	r3, r3
 401 00d4 DBB2     		uxtb	r3, r3
 402 00d6 F868     		ldr	r0, [r7, #12]
 403 00d8 B968     		ldr	r1, [r7, #8]
 404 00da 1A46     		mov	r2, r3
 405 00dc FFF7FEFF 		bl	u8g_WriteByte
 172:u8g_dev_uc1601_c128032.c ****         u8g_SetAddress(u8g, dev, 1);           /* data mode */
 406              		.loc 1 172 0
 407 00e0 F868     		ldr	r0, [r7, #12]
 408 00e2 B968     		ldr	r1, [r7, #8]
 409 00e4 0122     		movs	r2, #1
 410 00e6 FFF7FEFF 		bl	u8g_SetAddress
 173:u8g_dev_uc1601_c128032.c **** 	u8g_WriteSequence(u8g, dev, pb->width, (uint8_t *)(pb->buf)+pb->width); 
 411              		.loc 1 173 0
 412 00ea 7B69     		ldr	r3, [r7, #20]
 413 00ec 5C79     		ldrb	r4, [r3, #5]	@ zero_extendqisi2
 414 00ee 7B69     		ldr	r3, [r7, #20]
 415 00f0 9B68     		ldr	r3, [r3, #8]
 416 00f2 7A69     		ldr	r2, [r7, #20]
 417 00f4 5279     		ldrb	r2, [r2, #5]	@ zero_extendqisi2
 418 00f6 1344     		add	r3, r3, r2
 419 00f8 F868     		ldr	r0, [r7, #12]
 420 00fa B968     		ldr	r1, [r7, #8]
 421 00fc 2246     		mov	r2, r4
 422 00fe FFF7FEFF 		bl	u8g_WriteSequence
 174:u8g_dev_uc1601_c128032.c ****         u8g_SetChipSelect(u8g, dev, 0);
 423              		.loc 1 174 0
 424 0102 F868     		ldr	r0, [r7, #12]
 425 0104 B968     		ldr	r1, [r7, #8]
 426 0106 0022     		movs	r2, #0
 427 0108 FFF7FEFF 		bl	u8g_SetChipSelect
 428              	.LBE3:
 175:u8g_dev_uc1601_c128032.c ****       }
 176:u8g_dev_uc1601_c128032.c ****       break;
 429              		.loc 1 176 0
 430 010c 2CE0     		b	.L15
 431              	.L19:
 177:u8g_dev_uc1601_c128032.c ****     case U8G_DEV_MSG_CONTRAST:
 178:u8g_dev_uc1601_c128032.c ****       u8g_SetChipSelect(u8g, dev, 1);
 432              		.loc 1 178 0
 433 010e F868     		ldr	r0, [r7, #12]
 434 0110 B968     		ldr	r1, [r7, #8]
 435 0112 0122     		movs	r2, #1
 436 0114 FFF7FEFF 		bl	u8g_SetChipSelect
 179:u8g_dev_uc1601_c128032.c ****       u8g_SetAddress(u8g, dev, 0);          /* instruction mode */
 437              		.loc 1 179 0
 438 0118 F868     		ldr	r0, [r7, #12]
 439 011a B968     		ldr	r1, [r7, #8]
 440 011c 0022     		movs	r2, #0
 441 011e FFF7FEFF 		bl	u8g_SetAddress
 180:u8g_dev_uc1601_c128032.c ****       u8g_WriteByte(u8g, dev, 0x081);
 442              		.loc 1 180 0
 443 0122 F868     		ldr	r0, [r7, #12]
 444 0124 B968     		ldr	r1, [r7, #8]
 445 0126 8122     		movs	r2, #129
 446 0128 FFF7FEFF 		bl	u8g_WriteByte
 181:u8g_dev_uc1601_c128032.c ****       u8g_WriteByte(u8g, dev, (*(uint8_t *)arg) >> 2);
ARM GAS  C:\Users\KJA\AppData\Local\Temp\ccckrLnX.s 			page 12


 447              		.loc 1 181 0
 448 012c 3B68     		ldr	r3, [r7]
 449 012e 1B78     		ldrb	r3, [r3]	@ zero_extendqisi2
 450 0130 9B08     		lsrs	r3, r3, #2
 451 0132 DBB2     		uxtb	r3, r3
 452 0134 F868     		ldr	r0, [r7, #12]
 453 0136 B968     		ldr	r1, [r7, #8]
 454 0138 1A46     		mov	r2, r3
 455 013a FFF7FEFF 		bl	u8g_WriteByte
 182:u8g_dev_uc1601_c128032.c ****       u8g_SetChipSelect(u8g, dev, 0);      
 456              		.loc 1 182 0
 457 013e F868     		ldr	r0, [r7, #12]
 458 0140 B968     		ldr	r1, [r7, #8]
 459 0142 0022     		movs	r2, #0
 460 0144 FFF7FEFF 		bl	u8g_SetChipSelect
 183:u8g_dev_uc1601_c128032.c ****       return 1;
 461              		.loc 1 183 0
 462 0148 0123     		movs	r3, #1
 463 014a 15E0     		b	.L23
 464              	.L20:
 184:u8g_dev_uc1601_c128032.c ****     case U8G_DEV_MSG_SLEEP_ON:
 185:u8g_dev_uc1601_c128032.c ****       u8g_WriteEscSeqP(u8g, dev, u8g_dev_uc1601_c128032_sleep_on);    
 465              		.loc 1 185 0
 466 014c F868     		ldr	r0, [r7, #12]
 467 014e B968     		ldr	r1, [r7, #8]
 468 0150 0D4A     		ldr	r2, .L24+8
 469 0152 FFF7FEFF 		bl	u8g_WriteEscSeqP
 186:u8g_dev_uc1601_c128032.c ****       return 1;
 470              		.loc 1 186 0
 471 0156 0123     		movs	r3, #1
 472 0158 0EE0     		b	.L23
 473              	.L21:
 187:u8g_dev_uc1601_c128032.c ****     case U8G_DEV_MSG_SLEEP_OFF:
 188:u8g_dev_uc1601_c128032.c ****       u8g_WriteEscSeqP(u8g, dev, u8g_dev_uc1601_c128032_sleep_off);    
 474              		.loc 1 188 0
 475 015a F868     		ldr	r0, [r7, #12]
 476 015c B968     		ldr	r1, [r7, #8]
 477 015e 0B4A     		ldr	r2, .L24+12
 478 0160 FFF7FEFF 		bl	u8g_WriteEscSeqP
 189:u8g_dev_uc1601_c128032.c ****       return 1;
 479              		.loc 1 189 0
 480 0164 0123     		movs	r3, #1
 481 0166 07E0     		b	.L23
 482              	.L15:
 190:u8g_dev_uc1601_c128032.c ****   }
 191:u8g_dev_uc1601_c128032.c ****   return u8g_dev_pb16v1_base_fn(u8g, dev, msg, arg);
 483              		.loc 1 191 0
 484 0168 FB79     		ldrb	r3, [r7, #7]	@ zero_extendqisi2
 485 016a F868     		ldr	r0, [r7, #12]
 486 016c B968     		ldr	r1, [r7, #8]
 487 016e 1A46     		mov	r2, r3
 488 0170 3B68     		ldr	r3, [r7]
 489 0172 FFF7FEFF 		bl	u8g_dev_pb16v1_base_fn
 490 0176 0346     		mov	r3, r0
 491              	.L23:
 192:u8g_dev_uc1601_c128032.c **** }
 492              		.loc 1 192 0
ARM GAS  C:\Users\KJA\AppData\Local\Temp\ccckrLnX.s 			page 13


 493 0178 1846     		mov	r0, r3
 494 017a 1C37     		adds	r7, r7, #28
 495              		.cfi_def_cfa_offset 12
 496 017c BD46     		mov	sp, r7
 497              		.cfi_def_cfa_register 13
 498              		@ sp needed
 499 017e 90BD     		pop	{r4, r7, pc}
 500              	.L25:
 501              		.align	2
 502              	.L24:
 503 0180 00000000 		.word	u8g_dev_uc1601_c128032_init_seq
 504 0184 20000000 		.word	u8g_dev_uc1601_c128032_data_start
 505 0188 28000000 		.word	u8g_dev_uc1601_c128032_sleep_on
 506 018c 34000000 		.word	u8g_dev_uc1601_c128032_sleep_off
 507              		.cfi_endproc
 508              	.LFE1:
 509              		.size	u8g_dev_uc1601_c128032_2x_fn, .-u8g_dev_uc1601_c128032_2x_fn
 510              		.global	u8g_dev_uc1601_c128032_sw_spi_buf
 511              		.bss
 512              		.align	2
 513              		.type	u8g_dev_uc1601_c128032_sw_spi_buf, %object
 514              		.size	u8g_dev_uc1601_c128032_sw_spi_buf, 128
 515              	u8g_dev_uc1601_c128032_sw_spi_buf:
 516 0000 00000000 		.space	128
 516      00000000 
 516      00000000 
 516      00000000 
 516      00000000 
 517              		.global	u8g_dev_uc1601_c128032_sw_spi_pb
 518              		.data
 519              		.align	2
 520              		.type	u8g_dev_uc1601_c128032_sw_spi_pb, %object
 521              		.size	u8g_dev_uc1601_c128032_sw_spi_pb, 12
 522              	u8g_dev_uc1601_c128032_sw_spi_pb:
 523 0000 08       		.byte	8
 524 0001 20       		.byte	32
 525 0002 00       		.byte	0
 526 0003 00       		.byte	0
 527 0004 00       		.byte	0
 528 0005 80       		.byte	-128
 529 0006 0000     		.space	2
 530 0008 00000000 		.word	u8g_dev_uc1601_c128032_sw_spi_buf
 531              		.global	u8g_dev_uc1601_c128032_sw_spi
 532              		.align	2
 533              		.type	u8g_dev_uc1601_c128032_sw_spi, %object
 534              		.size	u8g_dev_uc1601_c128032_sw_spi, 12
 535              	u8g_dev_uc1601_c128032_sw_spi:
 536 000c 00000000 		.word	u8g_dev_uc1601_c128032_fn
 537 0010 00000000 		.word	u8g_dev_uc1601_c128032_sw_spi_pb
 538 0014 00000000 		.word	u8g_com_null_fn
 539              		.global	u8g_dev_uc1601_c128032_hw_spi_buf
 540              		.bss
 541              		.align	2
 542              		.type	u8g_dev_uc1601_c128032_hw_spi_buf, %object
 543              		.size	u8g_dev_uc1601_c128032_hw_spi_buf, 128
 544              	u8g_dev_uc1601_c128032_hw_spi_buf:
 545 0080 00000000 		.space	128
ARM GAS  C:\Users\KJA\AppData\Local\Temp\ccckrLnX.s 			page 14


 545      00000000 
 545      00000000 
 545      00000000 
 545      00000000 
 546              		.global	u8g_dev_uc1601_c128032_hw_spi_pb
 547              		.data
 548              		.align	2
 549              		.type	u8g_dev_uc1601_c128032_hw_spi_pb, %object
 550              		.size	u8g_dev_uc1601_c128032_hw_spi_pb, 12
 551              	u8g_dev_uc1601_c128032_hw_spi_pb:
 552 0018 08       		.byte	8
 553 0019 20       		.byte	32
 554 001a 00       		.byte	0
 555 001b 00       		.byte	0
 556 001c 00       		.byte	0
 557 001d 80       		.byte	-128
 558 001e 0000     		.space	2
 559 0020 00000000 		.word	u8g_dev_uc1601_c128032_hw_spi_buf
 560              		.global	u8g_dev_uc1601_c128032_hw_spi
 561              		.align	2
 562              		.type	u8g_dev_uc1601_c128032_hw_spi, %object
 563              		.size	u8g_dev_uc1601_c128032_hw_spi, 12
 564              	u8g_dev_uc1601_c128032_hw_spi:
 565 0024 00000000 		.word	u8g_dev_uc1601_c128032_fn
 566 0028 00000000 		.word	u8g_dev_uc1601_c128032_hw_spi_pb
 567 002c 00000000 		.word	u8g_com_null_fn
 568              		.global	u8g_dev_uc1601_c128032_2x_buf
 569              		.bss
 570              		.align	2
 571              		.type	u8g_dev_uc1601_c128032_2x_buf, %object
 572              		.size	u8g_dev_uc1601_c128032_2x_buf, 256
 573              	u8g_dev_uc1601_c128032_2x_buf:
 574 0100 00000000 		.space	256
 574      00000000 
 574      00000000 
 574      00000000 
 574      00000000 
 575              		.global	u8g_dev_uc1601_c128032_2x_pb
 576              		.data
 577              		.align	2
 578              		.type	u8g_dev_uc1601_c128032_2x_pb, %object
 579              		.size	u8g_dev_uc1601_c128032_2x_pb, 12
 580              	u8g_dev_uc1601_c128032_2x_pb:
 581 0030 10       		.byte	16
 582 0031 20       		.byte	32
 583 0032 00       		.byte	0
 584 0033 00       		.byte	0
 585 0034 00       		.byte	0
 586 0035 80       		.byte	-128
 587 0036 0000     		.space	2
 588 0038 00000000 		.word	u8g_dev_uc1601_c128032_2x_buf
 589              		.global	u8g_dev_uc1601_c128032_2x_sw_spi
 590              		.align	2
 591              		.type	u8g_dev_uc1601_c128032_2x_sw_spi, %object
 592              		.size	u8g_dev_uc1601_c128032_2x_sw_spi, 12
 593              	u8g_dev_uc1601_c128032_2x_sw_spi:
 594 003c 00000000 		.word	u8g_dev_uc1601_c128032_2x_fn
ARM GAS  C:\Users\KJA\AppData\Local\Temp\ccckrLnX.s 			page 15


 595 0040 00000000 		.word	u8g_dev_uc1601_c128032_2x_pb
 596 0044 00000000 		.word	u8g_com_null_fn
 597              		.global	u8g_dev_uc1601_c128032_2x_hw_spi
 598              		.align	2
 599              		.type	u8g_dev_uc1601_c128032_2x_hw_spi, %object
 600              		.size	u8g_dev_uc1601_c128032_2x_hw_spi, 12
 601              	u8g_dev_uc1601_c128032_2x_hw_spi:
 602 0048 00000000 		.word	u8g_dev_uc1601_c128032_2x_fn
 603 004c 00000000 		.word	u8g_dev_uc1601_c128032_2x_pb
 604 0050 00000000 		.word	u8g_com_null_fn
 605              		.text
 606              	.Letext0:
 607              		.file 2 "c:\\program files (x86)\\cypress\\psoc creator\\4.0\\psoc creator\\import\\gnu\\arm\\4.9.
 608              		.file 3 "c:\\program files (x86)\\cypress\\psoc creator\\4.0\\psoc creator\\import\\gnu\\arm\\4.9.
 609              		.file 4 "u8g.h"