ARM GAS  C:\Users\KJA\AppData\Local\Temp\cc1FPwWt.s 			page 1


   1              		.syntax unified
   2              		.cpu cortex-m3
   3              		.fpu softvfp
   4              		.eabi_attribute 20, 1
   5              		.eabi_attribute 21, 1
   6              		.eabi_attribute 23, 3
   7              		.eabi_attribute 24, 1
   8              		.eabi_attribute 25, 1
   9              		.eabi_attribute 26, 1
  10              		.eabi_attribute 30, 6
  11              		.eabi_attribute 34, 1
  12              		.eabi_attribute 18, 4
  13              		.thumb
  14              		.file	"u8g_pb8h1.c"
  15              		.text
  16              	.Ltext0:
  17              		.cfi_sections	.debug_frame
  18              		.section	.text.u8g_pb8h1_Init,"ax",%progbits
  19              		.align	2
  20              		.global	u8g_pb8h1_Init
  21              		.thumb
  22              		.thumb_func
  23              		.type	u8g_pb8h1_Init, %function
  24              	u8g_pb8h1_Init:
  25              	.LFB0:
  26              		.file 1 "u8glib_arm_v1.18.1\\src\\u8g_pb8h1.c"
   1:u8glib_arm_v1.18.1\src/u8g_pb8h1.c **** /*
   2:u8glib_arm_v1.18.1\src/u8g_pb8h1.c **** 
   3:u8glib_arm_v1.18.1\src/u8g_pb8h1.c ****   u8g_pb8h1.c
   4:u8glib_arm_v1.18.1\src/u8g_pb8h1.c ****   
   5:u8glib_arm_v1.18.1\src/u8g_pb8h1.c ****   8bit height monochrom (1 bit) page buffer
   6:u8glib_arm_v1.18.1\src/u8g_pb8h1.c ****   byte has horizontal orientation
   7:u8glib_arm_v1.18.1\src/u8g_pb8h1.c **** 
   8:u8glib_arm_v1.18.1\src/u8g_pb8h1.c ****   Universal 8bit Graphics Library
   9:u8glib_arm_v1.18.1\src/u8g_pb8h1.c ****   
  10:u8glib_arm_v1.18.1\src/u8g_pb8h1.c ****   Copyright (c) 2011, olikraus@gmail.com
  11:u8glib_arm_v1.18.1\src/u8g_pb8h1.c ****   All rights reserved.
  12:u8glib_arm_v1.18.1\src/u8g_pb8h1.c **** 
  13:u8glib_arm_v1.18.1\src/u8g_pb8h1.c ****   Redistribution and use in source and binary forms, with or without modification, 
  14:u8glib_arm_v1.18.1\src/u8g_pb8h1.c ****   are permitted provided that the following conditions are met:
  15:u8glib_arm_v1.18.1\src/u8g_pb8h1.c **** 
  16:u8glib_arm_v1.18.1\src/u8g_pb8h1.c ****   * Redistributions of source code must retain the above copyright notice, this list 
  17:u8glib_arm_v1.18.1\src/u8g_pb8h1.c ****     of conditions and the following disclaimer.
  18:u8glib_arm_v1.18.1\src/u8g_pb8h1.c ****     
  19:u8glib_arm_v1.18.1\src/u8g_pb8h1.c ****   * Redistributions in binary form must reproduce the above copyright notice, this 
  20:u8glib_arm_v1.18.1\src/u8g_pb8h1.c ****     list of conditions and the following disclaimer in the documentation and/or other 
  21:u8glib_arm_v1.18.1\src/u8g_pb8h1.c ****     materials provided with the distribution.
  22:u8glib_arm_v1.18.1\src/u8g_pb8h1.c **** 
  23:u8glib_arm_v1.18.1\src/u8g_pb8h1.c ****   THIS SOFTWARE IS PROVIDED BY THE COPYRIGHT HOLDERS AND 
  24:u8glib_arm_v1.18.1\src/u8g_pb8h1.c ****   CONTRIBUTORS "AS IS" AND ANY EXPRESS OR IMPLIED WARRANTIES, 
  25:u8glib_arm_v1.18.1\src/u8g_pb8h1.c ****   INCLUDING, BUT NOT LIMITED TO, THE IMPLIED WARRANTIES OF 
  26:u8glib_arm_v1.18.1\src/u8g_pb8h1.c ****   MERCHANTABILITY AND FITNESS FOR A PARTICULAR PURPOSE ARE 
  27:u8glib_arm_v1.18.1\src/u8g_pb8h1.c ****   DISCLAIMED. IN NO EVENT SHALL THE COPYRIGHT HOLDER OR 
  28:u8glib_arm_v1.18.1\src/u8g_pb8h1.c ****   CONTRIBUTORS BE LIABLE FOR ANY DIRECT, INDIRECT, INCIDENTAL, 
  29:u8glib_arm_v1.18.1\src/u8g_pb8h1.c ****   SPECIAL, EXEMPLARY, OR CONSEQUENTIAL DAMAGES (INCLUDING, BUT 
  30:u8glib_arm_v1.18.1\src/u8g_pb8h1.c ****   NOT LIMITED TO, PROCUREMENT OF SUBSTITUTE GOODS OR SERVICES; 
  31:u8glib_arm_v1.18.1\src/u8g_pb8h1.c ****   LOSS OF USE, DATA, OR PROFITS; OR BUSINESS INTERRUPTION) HOWEVER 
ARM GAS  C:\Users\KJA\AppData\Local\Temp\cc1FPwWt.s 			page 2


  32:u8glib_arm_v1.18.1\src/u8g_pb8h1.c ****   CAUSED AND ON ANY THEORY OF LIABILITY, WHETHER IN CONTRACT, 
  33:u8glib_arm_v1.18.1\src/u8g_pb8h1.c ****   STRICT LIABILITY, OR TORT (INCLUDING NEGLIGENCE OR OTHERWISE) 
  34:u8glib_arm_v1.18.1\src/u8g_pb8h1.c ****   ARISING IN ANY WAY OUT OF THE USE OF THIS SOFTWARE, EVEN IF 
  35:u8glib_arm_v1.18.1\src/u8g_pb8h1.c ****   ADVISED OF THE POSSIBILITY OF SUCH DAMAGE.  
  36:u8glib_arm_v1.18.1\src/u8g_pb8h1.c **** 
  37:u8glib_arm_v1.18.1\src/u8g_pb8h1.c **** 
  38:u8glib_arm_v1.18.1\src/u8g_pb8h1.c ****   total buffer size is limited to 256 bytes because of the calculation inside the set pixel procedu
  39:u8glib_arm_v1.18.1\src/u8g_pb8h1.c **** 
  40:u8glib_arm_v1.18.1\src/u8g_pb8h1.c ****   23. Sep 2012: Bug with down procedure, see FPS 1st page --> fixed (bug located in u8g_clip.c)
  41:u8glib_arm_v1.18.1\src/u8g_pb8h1.c **** 
  42:u8glib_arm_v1.18.1\src/u8g_pb8h1.c **** */
  43:u8glib_arm_v1.18.1\src/u8g_pb8h1.c **** 
  44:u8glib_arm_v1.18.1\src/u8g_pb8h1.c **** #include "u8g.h"
  45:u8glib_arm_v1.18.1\src/u8g_pb8h1.c **** #include <string.h>
  46:u8glib_arm_v1.18.1\src/u8g_pb8h1.c **** 
  47:u8glib_arm_v1.18.1\src/u8g_pb8h1.c **** #ifdef __unix__
  48:u8glib_arm_v1.18.1\src/u8g_pb8h1.c **** #include <assert.h>
  49:u8glib_arm_v1.18.1\src/u8g_pb8h1.c **** #endif
  50:u8glib_arm_v1.18.1\src/u8g_pb8h1.c **** 
  51:u8glib_arm_v1.18.1\src/u8g_pb8h1.c **** /* NEW_CODE disabled, because the performance increase was too slow and not worth compared */
  52:u8glib_arm_v1.18.1\src/u8g_pb8h1.c **** /* to the increase of code size */
  53:u8glib_arm_v1.18.1\src/u8g_pb8h1.c **** /* #define NEW_CODE */
  54:u8glib_arm_v1.18.1\src/u8g_pb8h1.c **** 
  55:u8glib_arm_v1.18.1\src/u8g_pb8h1.c **** #ifdef __unix__
  56:u8glib_arm_v1.18.1\src/u8g_pb8h1.c **** void *u8g_buf_lower_limit;
  57:u8glib_arm_v1.18.1\src/u8g_pb8h1.c **** void *u8g_buf_upper_limit;
  58:u8glib_arm_v1.18.1\src/u8g_pb8h1.c **** #endif
  59:u8glib_arm_v1.18.1\src/u8g_pb8h1.c **** 
  60:u8glib_arm_v1.18.1\src/u8g_pb8h1.c **** void u8g_pb8h1_Init(u8g_pb_t *b, void *buf, u8g_uint_t width) U8G_NOINLINE;
  61:u8glib_arm_v1.18.1\src/u8g_pb8h1.c **** void u8g_pb8h1_set_pixel(u8g_pb_t *b, u8g_uint_t x, u8g_uint_t y, uint8_t color_index) U8G_NOINLINE
  62:u8glib_arm_v1.18.1\src/u8g_pb8h1.c **** void u8g_pb8h1_SetPixel(u8g_pb_t *b, const u8g_dev_arg_pixel_t * const arg_pixel) U8G_NOINLINE ;
  63:u8glib_arm_v1.18.1\src/u8g_pb8h1.c **** void u8g_pb8h1_Set8PixelStd(u8g_pb_t *b, u8g_dev_arg_pixel_t *arg_pixel) U8G_NOINLINE;
  64:u8glib_arm_v1.18.1\src/u8g_pb8h1.c **** uint8_t u8g_dev_pb8h1_base_fn(u8g_t *u8g, u8g_dev_t *dev, uint8_t msg, void *arg);
  65:u8glib_arm_v1.18.1\src/u8g_pb8h1.c **** 
  66:u8glib_arm_v1.18.1\src/u8g_pb8h1.c **** 
  67:u8glib_arm_v1.18.1\src/u8g_pb8h1.c **** #ifdef NEW_CODE
  68:u8glib_arm_v1.18.1\src/u8g_pb8h1.c **** struct u8g_pb_h1_struct
  69:u8glib_arm_v1.18.1\src/u8g_pb8h1.c **** {
  70:u8glib_arm_v1.18.1\src/u8g_pb8h1.c ****   u8g_uint_t x;
  71:u8glib_arm_v1.18.1\src/u8g_pb8h1.c ****   u8g_uint_t y;
  72:u8glib_arm_v1.18.1\src/u8g_pb8h1.c ****   uint8_t *ptr;
  73:u8glib_arm_v1.18.1\src/u8g_pb8h1.c ****   uint8_t mask;
  74:u8glib_arm_v1.18.1\src/u8g_pb8h1.c ****   uint8_t line_byte_len;
  75:u8glib_arm_v1.18.1\src/u8g_pb8h1.c ****   uint8_t cnt;
  76:u8glib_arm_v1.18.1\src/u8g_pb8h1.c **** };
  77:u8glib_arm_v1.18.1\src/u8g_pb8h1.c **** 
  78:u8glib_arm_v1.18.1\src/u8g_pb8h1.c **** static uint8_t u8g_pb8h1_bitmask[8] = { 0x080, 0x040, 0x020, 0x010, 0x008, 0x004, 0x002, 0x001 };
  79:u8glib_arm_v1.18.1\src/u8g_pb8h1.c **** 
  80:u8glib_arm_v1.18.1\src/u8g_pb8h1.c **** static void u8g_pb8h1_state_right(struct u8g_pb_h1_struct *s)  U8G_NOINLINE;
  81:u8glib_arm_v1.18.1\src/u8g_pb8h1.c **** static void u8g_pb8h1_state_right(struct u8g_pb_h1_struct *s)
  82:u8glib_arm_v1.18.1\src/u8g_pb8h1.c **** {
  83:u8glib_arm_v1.18.1\src/u8g_pb8h1.c ****   register u8g_uint_t x;
  84:u8glib_arm_v1.18.1\src/u8g_pb8h1.c ****   x = s->x;
  85:u8glib_arm_v1.18.1\src/u8g_pb8h1.c ****   x++;
  86:u8glib_arm_v1.18.1\src/u8g_pb8h1.c ****   s->x = x;
  87:u8glib_arm_v1.18.1\src/u8g_pb8h1.c ****   x &= 7;
  88:u8glib_arm_v1.18.1\src/u8g_pb8h1.c ****   s->mask = u8g_pb8h1_bitmask[x];
ARM GAS  C:\Users\KJA\AppData\Local\Temp\cc1FPwWt.s 			page 3


  89:u8glib_arm_v1.18.1\src/u8g_pb8h1.c ****   if ( x == 0 )
  90:u8glib_arm_v1.18.1\src/u8g_pb8h1.c ****     s->ptr++;
  91:u8glib_arm_v1.18.1\src/u8g_pb8h1.c **** }
  92:u8glib_arm_v1.18.1\src/u8g_pb8h1.c **** 
  93:u8glib_arm_v1.18.1\src/u8g_pb8h1.c **** static void u8g_pb8h1_state_left(struct u8g_pb_h1_struct *s)
  94:u8glib_arm_v1.18.1\src/u8g_pb8h1.c **** {
  95:u8glib_arm_v1.18.1\src/u8g_pb8h1.c ****   register u8g_uint_t x;
  96:u8glib_arm_v1.18.1\src/u8g_pb8h1.c ****   x = s->x;
  97:u8glib_arm_v1.18.1\src/u8g_pb8h1.c ****   x--;
  98:u8glib_arm_v1.18.1\src/u8g_pb8h1.c ****   s->x = x;
  99:u8glib_arm_v1.18.1\src/u8g_pb8h1.c ****   x &= 7;
 100:u8glib_arm_v1.18.1\src/u8g_pb8h1.c ****   s->mask = u8g_pb8h1_bitmask[x];
 101:u8glib_arm_v1.18.1\src/u8g_pb8h1.c ****   if ( x == 7 )
 102:u8glib_arm_v1.18.1\src/u8g_pb8h1.c ****     s->ptr--;
 103:u8glib_arm_v1.18.1\src/u8g_pb8h1.c **** }
 104:u8glib_arm_v1.18.1\src/u8g_pb8h1.c **** 
 105:u8glib_arm_v1.18.1\src/u8g_pb8h1.c **** static void u8g_pb8h1_state_down(struct u8g_pb_h1_struct *s)
 106:u8glib_arm_v1.18.1\src/u8g_pb8h1.c **** {
 107:u8glib_arm_v1.18.1\src/u8g_pb8h1.c ****   s->y++;
 108:u8glib_arm_v1.18.1\src/u8g_pb8h1.c ****   s->ptr += s->line_byte_len;
 109:u8glib_arm_v1.18.1\src/u8g_pb8h1.c **** }
 110:u8glib_arm_v1.18.1\src/u8g_pb8h1.c **** 
 111:u8glib_arm_v1.18.1\src/u8g_pb8h1.c **** static void u8g_pb8h1_state_up(struct u8g_pb_h1_struct *s)
 112:u8glib_arm_v1.18.1\src/u8g_pb8h1.c **** {
 113:u8glib_arm_v1.18.1\src/u8g_pb8h1.c ****   s->y--;
 114:u8glib_arm_v1.18.1\src/u8g_pb8h1.c ****   s->ptr -= s->line_byte_len;
 115:u8glib_arm_v1.18.1\src/u8g_pb8h1.c **** }
 116:u8glib_arm_v1.18.1\src/u8g_pb8h1.c **** 
 117:u8glib_arm_v1.18.1\src/u8g_pb8h1.c **** static void u8g_pb8h1_state_init(struct u8g_pb_h1_struct *s, u8g_pb_t *b, u8g_uint_t x, u8g_uint_t 
 118:u8glib_arm_v1.18.1\src/u8g_pb8h1.c **** static void u8g_pb8h1_state_init(struct u8g_pb_h1_struct *s, u8g_pb_t *b, u8g_uint_t x, u8g_uint_t 
 119:u8glib_arm_v1.18.1\src/u8g_pb8h1.c **** {
 120:u8glib_arm_v1.18.1\src/u8g_pb8h1.c ****   u8g_uint_t tmp;
 121:u8glib_arm_v1.18.1\src/u8g_pb8h1.c ****   
 122:u8glib_arm_v1.18.1\src/u8g_pb8h1.c ****   uint8_t *ptr = b->buf;
 123:u8glib_arm_v1.18.1\src/u8g_pb8h1.c ****   
 124:u8glib_arm_v1.18.1\src/u8g_pb8h1.c ****   s->x = x;  
 125:u8glib_arm_v1.18.1\src/u8g_pb8h1.c ****   s->y = y;
 126:u8glib_arm_v1.18.1\src/u8g_pb8h1.c ****   
 127:u8glib_arm_v1.18.1\src/u8g_pb8h1.c ****   y -= b->p.page_y0;
 128:u8glib_arm_v1.18.1\src/u8g_pb8h1.c ****   
 129:u8glib_arm_v1.18.1\src/u8g_pb8h1.c ****   tmp = b->width;
 130:u8glib_arm_v1.18.1\src/u8g_pb8h1.c ****   tmp >>= 3;
 131:u8glib_arm_v1.18.1\src/u8g_pb8h1.c ****   s->line_byte_len = tmp;
 132:u8glib_arm_v1.18.1\src/u8g_pb8h1.c ****   
 133:u8glib_arm_v1.18.1\src/u8g_pb8h1.c ****   /* assume negative y values, can be down to -7, subtract this from the pointer and add correction
 134:u8glib_arm_v1.18.1\src/u8g_pb8h1.c ****   ptr -= tmp*8;
 135:u8glib_arm_v1.18.1\src/u8g_pb8h1.c ****   y+=8;
 136:u8glib_arm_v1.18.1\src/u8g_pb8h1.c ****   /* it is important that the result of tmp*y can be 16 bit value also for 8 bit mode */
 137:u8glib_arm_v1.18.1\src/u8g_pb8h1.c ****   ptr += tmp*y;
 138:u8glib_arm_v1.18.1\src/u8g_pb8h1.c ****   
 139:u8glib_arm_v1.18.1\src/u8g_pb8h1.c ****   s->mask = u8g_pb8h1_bitmask[x & 7];
 140:u8glib_arm_v1.18.1\src/u8g_pb8h1.c ****   
 141:u8glib_arm_v1.18.1\src/u8g_pb8h1.c ****   /* assume negative x values (to -7), subtract 8 pixel from the pointer and add 8 to x */
 142:u8glib_arm_v1.18.1\src/u8g_pb8h1.c ****   ptr--;
 143:u8glib_arm_v1.18.1\src/u8g_pb8h1.c ****   x += 8;
 144:u8glib_arm_v1.18.1\src/u8g_pb8h1.c ****   x >>= 3;
 145:u8glib_arm_v1.18.1\src/u8g_pb8h1.c ****   ptr += x;
ARM GAS  C:\Users\KJA\AppData\Local\Temp\cc1FPwWt.s 			page 4


 146:u8glib_arm_v1.18.1\src/u8g_pb8h1.c ****   s->ptr = ptr;
 147:u8glib_arm_v1.18.1\src/u8g_pb8h1.c **** }
 148:u8glib_arm_v1.18.1\src/u8g_pb8h1.c **** 
 149:u8glib_arm_v1.18.1\src/u8g_pb8h1.c **** static void u8g_pb8h1_state_set_pixel(struct u8g_pb_h1_struct *s, uint8_t color_index) U8G_NOINLINE
 150:u8glib_arm_v1.18.1\src/u8g_pb8h1.c **** static void u8g_pb8h1_state_set_pixel(struct u8g_pb_h1_struct *s, uint8_t color_index)
 151:u8glib_arm_v1.18.1\src/u8g_pb8h1.c **** {
 152:u8glib_arm_v1.18.1\src/u8g_pb8h1.c ****   
 153:u8glib_arm_v1.18.1\src/u8g_pb8h1.c **** #ifdef __unix__
 154:u8glib_arm_v1.18.1\src/u8g_pb8h1.c ****   assert( s->ptr >= u8g_buf_lower_limit );
 155:u8glib_arm_v1.18.1\src/u8g_pb8h1.c ****   assert( s->ptr < u8g_buf_upper_limit );
 156:u8glib_arm_v1.18.1\src/u8g_pb8h1.c **** #endif
 157:u8glib_arm_v1.18.1\src/u8g_pb8h1.c ****   
 158:u8glib_arm_v1.18.1\src/u8g_pb8h1.c ****   if ( color_index )
 159:u8glib_arm_v1.18.1\src/u8g_pb8h1.c ****   {
 160:u8glib_arm_v1.18.1\src/u8g_pb8h1.c ****     *s->ptr |= s->mask;
 161:u8glib_arm_v1.18.1\src/u8g_pb8h1.c ****   }
 162:u8glib_arm_v1.18.1\src/u8g_pb8h1.c ****   else
 163:u8glib_arm_v1.18.1\src/u8g_pb8h1.c ****   {
 164:u8glib_arm_v1.18.1\src/u8g_pb8h1.c ****     uint8_t mask = s->mask;
 165:u8glib_arm_v1.18.1\src/u8g_pb8h1.c ****     mask ^=0xff;
 166:u8glib_arm_v1.18.1\src/u8g_pb8h1.c ****     *s->ptr &= mask;
 167:u8glib_arm_v1.18.1\src/u8g_pb8h1.c ****   }  
 168:u8glib_arm_v1.18.1\src/u8g_pb8h1.c **** }
 169:u8glib_arm_v1.18.1\src/u8g_pb8h1.c **** #endif
 170:u8glib_arm_v1.18.1\src/u8g_pb8h1.c **** 
 171:u8glib_arm_v1.18.1\src/u8g_pb8h1.c **** 
 172:u8glib_arm_v1.18.1\src/u8g_pb8h1.c **** void u8g_pb8h1_Init(u8g_pb_t *b, void *buf, u8g_uint_t width)
 173:u8glib_arm_v1.18.1\src/u8g_pb8h1.c **** {
  27              		.loc 1 173 0
  28              		.cfi_startproc
  29              		@ args = 0, pretend = 0, frame = 16
  30              		@ frame_needed = 1, uses_anonymous_args = 0
  31 0000 80B5     		push	{r7, lr}
  32              		.cfi_def_cfa_offset 8
  33              		.cfi_offset 7, -8
  34              		.cfi_offset 14, -4
  35 0002 84B0     		sub	sp, sp, #16
  36              		.cfi_def_cfa_offset 24
  37 0004 00AF     		add	r7, sp, #0
  38              		.cfi_def_cfa_register 7
  39 0006 F860     		str	r0, [r7, #12]
  40 0008 B960     		str	r1, [r7, #8]
  41 000a 1346     		mov	r3, r2
  42 000c FB71     		strb	r3, [r7, #7]
 174:u8glib_arm_v1.18.1\src/u8g_pb8h1.c ****   b->buf = buf;
  43              		.loc 1 174 0
  44 000e FB68     		ldr	r3, [r7, #12]
  45 0010 BA68     		ldr	r2, [r7, #8]
  46 0012 9A60     		str	r2, [r3, #8]
 175:u8glib_arm_v1.18.1\src/u8g_pb8h1.c ****   b->width = width;
  47              		.loc 1 175 0
  48 0014 FB68     		ldr	r3, [r7, #12]
  49 0016 FA79     		ldrb	r2, [r7, #7]
  50 0018 5A71     		strb	r2, [r3, #5]
 176:u8glib_arm_v1.18.1\src/u8g_pb8h1.c ****   u8g_pb_Clear(b);
  51              		.loc 1 176 0
  52 001a F868     		ldr	r0, [r7, #12]
ARM GAS  C:\Users\KJA\AppData\Local\Temp\cc1FPwWt.s 			page 5


  53 001c FFF7FEFF 		bl	u8g_pb_Clear
 177:u8glib_arm_v1.18.1\src/u8g_pb8h1.c **** }
  54              		.loc 1 177 0
  55 0020 1037     		adds	r7, r7, #16
  56              		.cfi_def_cfa_offset 8
  57 0022 BD46     		mov	sp, r7
  58              		.cfi_def_cfa_register 13
  59              		@ sp needed
  60 0024 80BD     		pop	{r7, pc}
  61              		.cfi_endproc
  62              	.LFE0:
  63              		.size	u8g_pb8h1_Init, .-u8g_pb8h1_Init
  64              		.section	.text.u8g_pb8h1_set_pixel,"ax",%progbits
  65              		.align	2
  66              		.global	u8g_pb8h1_set_pixel
  67              		.thumb
  68              		.thumb_func
  69              		.type	u8g_pb8h1_set_pixel, %function
  70              	u8g_pb8h1_set_pixel:
  71              	.LFB1:
 178:u8glib_arm_v1.18.1\src/u8g_pb8h1.c **** 
 179:u8glib_arm_v1.18.1\src/u8g_pb8h1.c **** /* limitation: total buffer must not exceed 256 bytes */
 180:u8glib_arm_v1.18.1\src/u8g_pb8h1.c **** void u8g_pb8h1_set_pixel(u8g_pb_t *b, u8g_uint_t x, u8g_uint_t y, uint8_t color_index)
 181:u8glib_arm_v1.18.1\src/u8g_pb8h1.c **** {
  72              		.loc 1 181 0
  73              		.cfi_startproc
  74              		@ args = 0, pretend = 0, frame = 16
  75              		@ frame_needed = 1, uses_anonymous_args = 0
  76              		@ link register save eliminated.
  77 0000 90B4     		push	{r4, r7}
  78              		.cfi_def_cfa_offset 8
  79              		.cfi_offset 4, -8
  80              		.cfi_offset 7, -4
  81 0002 84B0     		sub	sp, sp, #16
  82              		.cfi_def_cfa_offset 24
  83 0004 00AF     		add	r7, sp, #0
  84              		.cfi_def_cfa_register 7
  85 0006 7860     		str	r0, [r7, #4]
  86 0008 0846     		mov	r0, r1
  87 000a 1146     		mov	r1, r2
  88 000c 1A46     		mov	r2, r3
  89 000e 0346     		mov	r3, r0
  90 0010 FB70     		strb	r3, [r7, #3]
  91 0012 0B46     		mov	r3, r1
  92 0014 BB70     		strb	r3, [r7, #2]
  93 0016 1346     		mov	r3, r2
  94 0018 7B70     		strb	r3, [r7, #1]
 182:u8glib_arm_v1.18.1\src/u8g_pb8h1.c **** #ifdef NEW_CODE
 183:u8glib_arm_v1.18.1\src/u8g_pb8h1.c ****   struct u8g_pb_h1_struct s;
 184:u8glib_arm_v1.18.1\src/u8g_pb8h1.c ****   u8g_pb8h1_state_init(&s, b, x, y);
 185:u8glib_arm_v1.18.1\src/u8g_pb8h1.c ****   u8g_pb8h1_state_set_pixel(&s, color_index);
 186:u8glib_arm_v1.18.1\src/u8g_pb8h1.c **** 
 187:u8glib_arm_v1.18.1\src/u8g_pb8h1.c **** //  u8g_pb8h1_state_up(&s);
 188:u8glib_arm_v1.18.1\src/u8g_pb8h1.c **** //  if ( s.y > b->p.page_y1 )
 189:u8glib_arm_v1.18.1\src/u8g_pb8h1.c **** //    return;
 190:u8glib_arm_v1.18.1\src/u8g_pb8h1.c **** //  if ( s.x > b->width )
 191:u8glib_arm_v1.18.1\src/u8g_pb8h1.c **** //    return;
ARM GAS  C:\Users\KJA\AppData\Local\Temp\cc1FPwWt.s 			page 6


 192:u8glib_arm_v1.18.1\src/u8g_pb8h1.c **** //  u8g_pb8h1_state_set_pixel(&s, color_index);
 193:u8glib_arm_v1.18.1\src/u8g_pb8h1.c **** #else
 194:u8glib_arm_v1.18.1\src/u8g_pb8h1.c ****   register uint8_t mask;
 195:u8glib_arm_v1.18.1\src/u8g_pb8h1.c ****   u8g_uint_t tmp;
 196:u8glib_arm_v1.18.1\src/u8g_pb8h1.c ****   uint8_t *ptr = b->buf;
  95              		.loc 1 196 0
  96 001a 7B68     		ldr	r3, [r7, #4]
  97 001c 9B68     		ldr	r3, [r3, #8]
  98 001e FB60     		str	r3, [r7, #12]
 197:u8glib_arm_v1.18.1\src/u8g_pb8h1.c ****   
 198:u8glib_arm_v1.18.1\src/u8g_pb8h1.c ****   y -= b->p.page_y0;
  99              		.loc 1 198 0
 100 0020 7B68     		ldr	r3, [r7, #4]
 101 0022 9B78     		ldrb	r3, [r3, #2]	@ zero_extendqisi2
 102 0024 BA78     		ldrb	r2, [r7, #2]
 103 0026 D31A     		subs	r3, r2, r3
 104 0028 BB70     		strb	r3, [r7, #2]
 199:u8glib_arm_v1.18.1\src/u8g_pb8h1.c ****   tmp = b->width;
 105              		.loc 1 199 0
 106 002a 7B68     		ldr	r3, [r7, #4]
 107 002c 5B79     		ldrb	r3, [r3, #5]
 108 002e FB72     		strb	r3, [r7, #11]
 200:u8glib_arm_v1.18.1\src/u8g_pb8h1.c ****   tmp >>= 3;
 109              		.loc 1 200 0
 110 0030 FB7A     		ldrb	r3, [r7, #11]	@ zero_extendqisi2
 111 0032 DB08     		lsrs	r3, r3, #3
 112 0034 FB72     		strb	r3, [r7, #11]
 201:u8glib_arm_v1.18.1\src/u8g_pb8h1.c ****   tmp *= (uint8_t)y;
 113              		.loc 1 201 0
 114 0036 FB7A     		ldrb	r3, [r7, #11]
 115 0038 BA78     		ldrb	r2, [r7, #2]
 116 003a 02FB03F3 		mul	r3, r2, r3
 117 003e FB72     		strb	r3, [r7, #11]
 202:u8glib_arm_v1.18.1\src/u8g_pb8h1.c ****   ptr += tmp;
 118              		.loc 1 202 0
 119 0040 FB7A     		ldrb	r3, [r7, #11]	@ zero_extendqisi2
 120 0042 FA68     		ldr	r2, [r7, #12]
 121 0044 1344     		add	r3, r3, r2
 122 0046 FB60     		str	r3, [r7, #12]
 203:u8glib_arm_v1.18.1\src/u8g_pb8h1.c ****   
 204:u8glib_arm_v1.18.1\src/u8g_pb8h1.c ****   mask = 0x080;
 123              		.loc 1 204 0
 124 0048 8024     		movs	r4, #128
 205:u8glib_arm_v1.18.1\src/u8g_pb8h1.c ****   mask >>= x & 7;
 125              		.loc 1 205 0
 126 004a 2246     		mov	r2, r4
 127 004c FB78     		ldrb	r3, [r7, #3]	@ zero_extendqisi2
 128 004e 03F00703 		and	r3, r3, #7
 129 0052 42FA03F3 		asr	r3, r2, r3
 130 0056 DCB2     		uxtb	r4, r3
 206:u8glib_arm_v1.18.1\src/u8g_pb8h1.c ****   x >>= 3;
 131              		.loc 1 206 0
 132 0058 FB78     		ldrb	r3, [r7, #3]	@ zero_extendqisi2
 133 005a DB08     		lsrs	r3, r3, #3
 134 005c FB70     		strb	r3, [r7, #3]
 207:u8glib_arm_v1.18.1\src/u8g_pb8h1.c ****   ptr += x;
 135              		.loc 1 207 0
ARM GAS  C:\Users\KJA\AppData\Local\Temp\cc1FPwWt.s 			page 7


 136 005e FB78     		ldrb	r3, [r7, #3]	@ zero_extendqisi2
 137 0060 FA68     		ldr	r2, [r7, #12]
 138 0062 1344     		add	r3, r3, r2
 139 0064 FB60     		str	r3, [r7, #12]
 208:u8glib_arm_v1.18.1\src/u8g_pb8h1.c ****   if ( color_index )
 140              		.loc 1 208 0
 141 0066 7B78     		ldrb	r3, [r7, #1]	@ zero_extendqisi2
 142 0068 002B     		cmp	r3, #0
 143 006a 06D0     		beq	.L3
 209:u8glib_arm_v1.18.1\src/u8g_pb8h1.c ****   {
 210:u8glib_arm_v1.18.1\src/u8g_pb8h1.c ****     *ptr |= mask;
 144              		.loc 1 210 0
 145 006c FB68     		ldr	r3, [r7, #12]
 146 006e 1B78     		ldrb	r3, [r3]	@ zero_extendqisi2
 147 0070 2343     		orrs	r3, r3, r4
 148 0072 DAB2     		uxtb	r2, r3
 149 0074 FB68     		ldr	r3, [r7, #12]
 150 0076 1A70     		strb	r2, [r3]
 151 0078 07E0     		b	.L2
 152              	.L3:
 211:u8glib_arm_v1.18.1\src/u8g_pb8h1.c ****   }
 212:u8glib_arm_v1.18.1\src/u8g_pb8h1.c ****   else
 213:u8glib_arm_v1.18.1\src/u8g_pb8h1.c ****   {
 214:u8glib_arm_v1.18.1\src/u8g_pb8h1.c ****     mask ^=0xff;
 153              		.loc 1 214 0
 154 007a E343     		mvns	r3, r4
 155 007c DCB2     		uxtb	r4, r3
 215:u8glib_arm_v1.18.1\src/u8g_pb8h1.c ****     *ptr &= mask;
 156              		.loc 1 215 0
 157 007e FB68     		ldr	r3, [r7, #12]
 158 0080 1B78     		ldrb	r3, [r3]	@ zero_extendqisi2
 159 0082 2340     		ands	r3, r3, r4
 160 0084 DAB2     		uxtb	r2, r3
 161 0086 FB68     		ldr	r3, [r7, #12]
 162 0088 1A70     		strb	r2, [r3]
 163              	.L2:
 216:u8glib_arm_v1.18.1\src/u8g_pb8h1.c ****   }
 217:u8glib_arm_v1.18.1\src/u8g_pb8h1.c **** #endif
 218:u8glib_arm_v1.18.1\src/u8g_pb8h1.c **** }
 164              		.loc 1 218 0
 165 008a 1037     		adds	r7, r7, #16
 166              		.cfi_def_cfa_offset 8
 167 008c BD46     		mov	sp, r7
 168              		.cfi_def_cfa_register 13
 169              		@ sp needed
 170 008e 90BC     		pop	{r4, r7}
 171              		.cfi_restore 7
 172              		.cfi_restore 4
 173              		.cfi_def_cfa_offset 0
 174 0090 7047     		bx	lr
 175              		.cfi_endproc
 176              	.LFE1:
 177              		.size	u8g_pb8h1_set_pixel, .-u8g_pb8h1_set_pixel
 178 0092 00BF     		.section	.text.u8g_pb8h1_SetPixel,"ax",%progbits
 179              		.align	2
 180              		.global	u8g_pb8h1_SetPixel
 181              		.thumb
ARM GAS  C:\Users\KJA\AppData\Local\Temp\cc1FPwWt.s 			page 8


 182              		.thumb_func
 183              		.type	u8g_pb8h1_SetPixel, %function
 184              	u8g_pb8h1_SetPixel:
 185              	.LFB2:
 219:u8glib_arm_v1.18.1\src/u8g_pb8h1.c **** 
 220:u8glib_arm_v1.18.1\src/u8g_pb8h1.c **** 
 221:u8glib_arm_v1.18.1\src/u8g_pb8h1.c **** void u8g_pb8h1_SetPixel(u8g_pb_t *b, const u8g_dev_arg_pixel_t * const arg_pixel)
 222:u8glib_arm_v1.18.1\src/u8g_pb8h1.c **** {
 186              		.loc 1 222 0
 187              		.cfi_startproc
 188              		@ args = 0, pretend = 0, frame = 8
 189              		@ frame_needed = 1, uses_anonymous_args = 0
 190 0000 80B5     		push	{r7, lr}
 191              		.cfi_def_cfa_offset 8
 192              		.cfi_offset 7, -8
 193              		.cfi_offset 14, -4
 194 0002 82B0     		sub	sp, sp, #8
 195              		.cfi_def_cfa_offset 16
 196 0004 00AF     		add	r7, sp, #0
 197              		.cfi_def_cfa_register 7
 198 0006 7860     		str	r0, [r7, #4]
 199 0008 3960     		str	r1, [r7]
 223:u8glib_arm_v1.18.1\src/u8g_pb8h1.c ****   if ( arg_pixel->y < b->p.page_y0 )
 200              		.loc 1 223 0
 201 000a 3B68     		ldr	r3, [r7]
 202 000c 5A78     		ldrb	r2, [r3, #1]	@ zero_extendqisi2
 203 000e 7B68     		ldr	r3, [r7, #4]
 204 0010 9B78     		ldrb	r3, [r3, #2]	@ zero_extendqisi2
 205 0012 9A42     		cmp	r2, r3
 206 0014 00D2     		bcs	.L6
 224:u8glib_arm_v1.18.1\src/u8g_pb8h1.c ****     return;
 207              		.loc 1 224 0
 208 0016 16E0     		b	.L5
 209              	.L6:
 225:u8glib_arm_v1.18.1\src/u8g_pb8h1.c ****   if ( arg_pixel->y > b->p.page_y1 )
 210              		.loc 1 225 0
 211 0018 3B68     		ldr	r3, [r7]
 212 001a 5A78     		ldrb	r2, [r3, #1]	@ zero_extendqisi2
 213 001c 7B68     		ldr	r3, [r7, #4]
 214 001e DB78     		ldrb	r3, [r3, #3]	@ zero_extendqisi2
 215 0020 9A42     		cmp	r2, r3
 216 0022 00D9     		bls	.L8
 226:u8glib_arm_v1.18.1\src/u8g_pb8h1.c ****     return;
 217              		.loc 1 226 0 discriminator 2
 218 0024 0FE0     		b	.L5
 219              	.L8:
 227:u8glib_arm_v1.18.1\src/u8g_pb8h1.c ****   if ( arg_pixel->x >= b->width )
 220              		.loc 1 227 0
 221 0026 3B68     		ldr	r3, [r7]
 222 0028 1A78     		ldrb	r2, [r3]	@ zero_extendqisi2
 223 002a 7B68     		ldr	r3, [r7, #4]
 224 002c 5B79     		ldrb	r3, [r3, #5]	@ zero_extendqisi2
 225 002e 9A42     		cmp	r2, r3
 226 0030 00D3     		bcc	.L9
 228:u8glib_arm_v1.18.1\src/u8g_pb8h1.c ****     return;
 227              		.loc 1 228 0 discriminator 3
 228 0032 08E0     		b	.L5
ARM GAS  C:\Users\KJA\AppData\Local\Temp\cc1FPwWt.s 			page 9


 229              	.L9:
 229:u8glib_arm_v1.18.1\src/u8g_pb8h1.c ****   u8g_pb8h1_set_pixel(b, arg_pixel->x, arg_pixel->y, arg_pixel->color);
 230              		.loc 1 229 0
 231 0034 3B68     		ldr	r3, [r7]
 232 0036 1978     		ldrb	r1, [r3]	@ zero_extendqisi2
 233 0038 3B68     		ldr	r3, [r7]
 234 003a 5A78     		ldrb	r2, [r3, #1]	@ zero_extendqisi2
 235 003c 3B68     		ldr	r3, [r7]
 236 003e 1B79     		ldrb	r3, [r3, #4]	@ zero_extendqisi2
 237 0040 7868     		ldr	r0, [r7, #4]
 238 0042 FFF7FEFF 		bl	u8g_pb8h1_set_pixel
 239              	.L5:
 230:u8glib_arm_v1.18.1\src/u8g_pb8h1.c **** }
 240              		.loc 1 230 0
 241 0046 0837     		adds	r7, r7, #8
 242              		.cfi_def_cfa_offset 8
 243 0048 BD46     		mov	sp, r7
 244              		.cfi_def_cfa_register 13
 245              		@ sp needed
 246 004a 80BD     		pop	{r7, pc}
 247              		.cfi_endproc
 248              	.LFE2:
 249              		.size	u8g_pb8h1_SetPixel, .-u8g_pb8h1_SetPixel
 250              		.section	.text.u8g_pb8h1_Set8PixelStd,"ax",%progbits
 251              		.align	2
 252              		.global	u8g_pb8h1_Set8PixelStd
 253              		.thumb
 254              		.thumb_func
 255              		.type	u8g_pb8h1_Set8PixelStd, %function
 256              	u8g_pb8h1_Set8PixelStd:
 257              	.LFB3:
 231:u8glib_arm_v1.18.1\src/u8g_pb8h1.c **** 
 232:u8glib_arm_v1.18.1\src/u8g_pb8h1.c **** void u8g_pb8h1_Set8PixelStd(u8g_pb_t *b, u8g_dev_arg_pixel_t *arg_pixel)
 233:u8glib_arm_v1.18.1\src/u8g_pb8h1.c **** {
 258              		.loc 1 233 0
 259              		.cfi_startproc
 260              		@ args = 0, pretend = 0, frame = 8
 261              		@ frame_needed = 1, uses_anonymous_args = 0
 262 0000 90B5     		push	{r4, r7, lr}
 263              		.cfi_def_cfa_offset 12
 264              		.cfi_offset 4, -12
 265              		.cfi_offset 7, -8
 266              		.cfi_offset 14, -4
 267 0002 83B0     		sub	sp, sp, #12
 268              		.cfi_def_cfa_offset 24
 269 0004 00AF     		add	r7, sp, #0
 270              		.cfi_def_cfa_register 7
 271 0006 7860     		str	r0, [r7, #4]
 272 0008 3960     		str	r1, [r7]
 234:u8glib_arm_v1.18.1\src/u8g_pb8h1.c ****   register uint8_t pixel = arg_pixel->pixel;
 273              		.loc 1 234 0
 274 000a 3B68     		ldr	r3, [r7]
 275 000c 9C78     		ldrb	r4, [r3, #2]	@ zero_extendqisi2
 276              	.L18:
 235:u8glib_arm_v1.18.1\src/u8g_pb8h1.c ****   do
 236:u8glib_arm_v1.18.1\src/u8g_pb8h1.c ****   {
 237:u8glib_arm_v1.18.1\src/u8g_pb8h1.c ****     if ( pixel & 128 )
ARM GAS  C:\Users\KJA\AppData\Local\Temp\cc1FPwWt.s 			page 10


 277              		.loc 1 237 0
 278 000e E3B2     		uxtb	r3, r4
 279 0010 5BB2     		sxtb	r3, r3
 280 0012 002B     		cmp	r3, #0
 281 0014 03DA     		bge	.L11
 238:u8glib_arm_v1.18.1\src/u8g_pb8h1.c ****     {
 239:u8glib_arm_v1.18.1\src/u8g_pb8h1.c ****       u8g_pb8h1_SetPixel(b, arg_pixel);
 282              		.loc 1 239 0
 283 0016 7868     		ldr	r0, [r7, #4]
 284 0018 3968     		ldr	r1, [r7]
 285 001a FFF7FEFF 		bl	u8g_pb8h1_SetPixel
 286              	.L11:
 240:u8glib_arm_v1.18.1\src/u8g_pb8h1.c ****     }
 241:u8glib_arm_v1.18.1\src/u8g_pb8h1.c ****     switch( arg_pixel->dir )
 287              		.loc 1 241 0
 288 001e 3B68     		ldr	r3, [r7]
 289 0020 DB78     		ldrb	r3, [r3, #3]	@ zero_extendqisi2
 290 0022 032B     		cmp	r3, #3
 291 0024 26D8     		bhi	.L12
 292 0026 01A2     		adr	r2, .L14
 293 0028 52F823F0 		ldr	pc, [r2, r3, lsl #2]
 294              		.p2align 2
 295              	.L14:
 296 002c 3D000000 		.word	.L13+1
 297 0030 4B000000 		.word	.L15+1
 298 0034 59000000 		.word	.L16+1
 299 0038 67000000 		.word	.L17+1
 300              		.p2align 1
 301              	.L13:
 242:u8glib_arm_v1.18.1\src/u8g_pb8h1.c ****     {
 243:u8glib_arm_v1.18.1\src/u8g_pb8h1.c ****       case 0: arg_pixel->x++; break;
 302              		.loc 1 243 0
 303 003c 3B68     		ldr	r3, [r7]
 304 003e 1B78     		ldrb	r3, [r3]	@ zero_extendqisi2
 305 0040 0133     		adds	r3, r3, #1
 306 0042 DAB2     		uxtb	r2, r3
 307 0044 3B68     		ldr	r3, [r7]
 308 0046 1A70     		strb	r2, [r3]
 309 0048 14E0     		b	.L12
 310              	.L15:
 244:u8glib_arm_v1.18.1\src/u8g_pb8h1.c ****       case 1: arg_pixel->y++; break;
 311              		.loc 1 244 0
 312 004a 3B68     		ldr	r3, [r7]
 313 004c 5B78     		ldrb	r3, [r3, #1]	@ zero_extendqisi2
 314 004e 0133     		adds	r3, r3, #1
 315 0050 DAB2     		uxtb	r2, r3
 316 0052 3B68     		ldr	r3, [r7]
 317 0054 5A70     		strb	r2, [r3, #1]
 318 0056 0DE0     		b	.L12
 319              	.L16:
 245:u8glib_arm_v1.18.1\src/u8g_pb8h1.c ****       case 2: arg_pixel->x--; break;
 320              		.loc 1 245 0
 321 0058 3B68     		ldr	r3, [r7]
 322 005a 1B78     		ldrb	r3, [r3]	@ zero_extendqisi2
 323 005c 013B     		subs	r3, r3, #1
 324 005e DAB2     		uxtb	r2, r3
 325 0060 3B68     		ldr	r3, [r7]
ARM GAS  C:\Users\KJA\AppData\Local\Temp\cc1FPwWt.s 			page 11


 326 0062 1A70     		strb	r2, [r3]
 327 0064 06E0     		b	.L12
 328              	.L17:
 246:u8glib_arm_v1.18.1\src/u8g_pb8h1.c ****       case 3: arg_pixel->y--; break;
 329              		.loc 1 246 0
 330 0066 3B68     		ldr	r3, [r7]
 331 0068 5B78     		ldrb	r3, [r3, #1]	@ zero_extendqisi2
 332 006a 013B     		subs	r3, r3, #1
 333 006c DAB2     		uxtb	r2, r3
 334 006e 3B68     		ldr	r3, [r7]
 335 0070 5A70     		strb	r2, [r3, #1]
 336 0072 00BF     		nop
 337              	.L12:
 247:u8glib_arm_v1.18.1\src/u8g_pb8h1.c ****     }
 248:u8glib_arm_v1.18.1\src/u8g_pb8h1.c ****     pixel <<= 1;
 338              		.loc 1 248 0
 339 0074 6300     		lsls	r3, r4, #1
 340 0076 DCB2     		uxtb	r4, r3
 249:u8glib_arm_v1.18.1\src/u8g_pb8h1.c ****   } while( pixel != 0  );
 341              		.loc 1 249 0
 342 0078 002C     		cmp	r4, #0
 343 007a C8D1     		bne	.L18
 250:u8glib_arm_v1.18.1\src/u8g_pb8h1.c **** }
 344              		.loc 1 250 0
 345 007c 0C37     		adds	r7, r7, #12
 346              		.cfi_def_cfa_offset 12
 347 007e BD46     		mov	sp, r7
 348              		.cfi_def_cfa_register 13
 349              		@ sp needed
 350 0080 90BD     		pop	{r4, r7, pc}
 351              		.cfi_endproc
 352              	.LFE3:
 353              		.size	u8g_pb8h1_Set8PixelStd, .-u8g_pb8h1_Set8PixelStd
 354 0082 00BF     		.section	.text.u8g_pb8h1_Set8PixelOpt2,"ax",%progbits
 355              		.align	2
 356              		.global	u8g_pb8h1_Set8PixelOpt2
 357              		.thumb
 358              		.thumb_func
 359              		.type	u8g_pb8h1_Set8PixelOpt2, %function
 360              	u8g_pb8h1_Set8PixelOpt2:
 361              	.LFB4:
 251:u8glib_arm_v1.18.1\src/u8g_pb8h1.c **** 
 252:u8glib_arm_v1.18.1\src/u8g_pb8h1.c **** void u8g_pb8h1_Set8PixelOpt2(u8g_pb_t *b, u8g_dev_arg_pixel_t *arg_pixel)
 253:u8glib_arm_v1.18.1\src/u8g_pb8h1.c **** {
 362              		.loc 1 253 0
 363              		.cfi_startproc
 364              		@ args = 0, pretend = 0, frame = 16
 365              		@ frame_needed = 1, uses_anonymous_args = 0
 366 0000 90B5     		push	{r4, r7, lr}
 367              		.cfi_def_cfa_offset 12
 368              		.cfi_offset 4, -12
 369              		.cfi_offset 7, -8
 370              		.cfi_offset 14, -4
 371 0002 85B0     		sub	sp, sp, #20
 372              		.cfi_def_cfa_offset 32
 373 0004 00AF     		add	r7, sp, #0
 374              		.cfi_def_cfa_register 7
ARM GAS  C:\Users\KJA\AppData\Local\Temp\cc1FPwWt.s 			page 12


 375 0006 7860     		str	r0, [r7, #4]
 376 0008 3960     		str	r1, [r7]
 254:u8glib_arm_v1.18.1\src/u8g_pb8h1.c ****   register uint8_t pixel = arg_pixel->pixel;
 377              		.loc 1 254 0
 378 000a 3B68     		ldr	r3, [r7]
 379 000c 9C78     		ldrb	r4, [r3, #2]	@ zero_extendqisi2
 255:u8glib_arm_v1.18.1\src/u8g_pb8h1.c ****   u8g_uint_t dx = 0;
 380              		.loc 1 255 0
 381 000e 0023     		movs	r3, #0
 382 0010 FB73     		strb	r3, [r7, #15]
 256:u8glib_arm_v1.18.1\src/u8g_pb8h1.c ****   u8g_uint_t dy = 0;
 383              		.loc 1 256 0
 384 0012 0023     		movs	r3, #0
 385 0014 BB73     		strb	r3, [r7, #14]
 257:u8glib_arm_v1.18.1\src/u8g_pb8h1.c ****   
 258:u8glib_arm_v1.18.1\src/u8g_pb8h1.c ****   switch( arg_pixel->dir )
 386              		.loc 1 258 0
 387 0016 3B68     		ldr	r3, [r7]
 388 0018 DB78     		ldrb	r3, [r3, #3]	@ zero_extendqisi2
 389 001a 032B     		cmp	r3, #3
 390 001c 1AD8     		bhi	.L20
 391 001e 01A2     		adr	r2, .L22
 392 0020 52F823F0 		ldr	pc, [r2, r3, lsl #2]
 393              		.p2align 2
 394              	.L22:
 395 0024 35000000 		.word	.L21+1
 396 0028 3D000000 		.word	.L23+1
 397 002c 45000000 		.word	.L24+1
 398 0030 4D000000 		.word	.L25+1
 399              		.p2align 1
 400              	.L21:
 259:u8glib_arm_v1.18.1\src/u8g_pb8h1.c ****   {
 260:u8glib_arm_v1.18.1\src/u8g_pb8h1.c ****     case 0: dx++; break;
 401              		.loc 1 260 0
 402 0034 FB7B     		ldrb	r3, [r7, #15]	@ zero_extendqisi2
 403 0036 0133     		adds	r3, r3, #1
 404 0038 FB73     		strb	r3, [r7, #15]
 405 003a 0BE0     		b	.L20
 406              	.L23:
 261:u8glib_arm_v1.18.1\src/u8g_pb8h1.c ****     case 1: dy++; break;
 407              		.loc 1 261 0
 408 003c BB7B     		ldrb	r3, [r7, #14]	@ zero_extendqisi2
 409 003e 0133     		adds	r3, r3, #1
 410 0040 BB73     		strb	r3, [r7, #14]
 411 0042 07E0     		b	.L20
 412              	.L24:
 262:u8glib_arm_v1.18.1\src/u8g_pb8h1.c ****     case 2: dx--; break;
 413              		.loc 1 262 0
 414 0044 FB7B     		ldrb	r3, [r7, #15]	@ zero_extendqisi2
 415 0046 013B     		subs	r3, r3, #1
 416 0048 FB73     		strb	r3, [r7, #15]
 417 004a 03E0     		b	.L20
 418              	.L25:
 263:u8glib_arm_v1.18.1\src/u8g_pb8h1.c ****     case 3: dy--; break;
 419              		.loc 1 263 0
 420 004c BB7B     		ldrb	r3, [r7, #14]	@ zero_extendqisi2
 421 004e 013B     		subs	r3, r3, #1
ARM GAS  C:\Users\KJA\AppData\Local\Temp\cc1FPwWt.s 			page 13


 422 0050 BB73     		strb	r3, [r7, #14]
 423 0052 00BF     		nop
 424              	.L20:
 264:u8glib_arm_v1.18.1\src/u8g_pb8h1.c ****   }
 265:u8glib_arm_v1.18.1\src/u8g_pb8h1.c ****   
 266:u8glib_arm_v1.18.1\src/u8g_pb8h1.c ****   do
 267:u8glib_arm_v1.18.1\src/u8g_pb8h1.c ****   {
 268:u8glib_arm_v1.18.1\src/u8g_pb8h1.c ****     if ( pixel & 128 )
 425              		.loc 1 268 0
 426 0054 E3B2     		uxtb	r3, r4
 427 0056 5BB2     		sxtb	r3, r3
 428 0058 002B     		cmp	r3, #0
 429 005a 03DA     		bge	.L26
 269:u8glib_arm_v1.18.1\src/u8g_pb8h1.c ****       u8g_pb8h1_SetPixel(b, arg_pixel);
 430              		.loc 1 269 0
 431 005c 7868     		ldr	r0, [r7, #4]
 432 005e 3968     		ldr	r1, [r7]
 433 0060 FFF7FEFF 		bl	u8g_pb8h1_SetPixel
 434              	.L26:
 270:u8glib_arm_v1.18.1\src/u8g_pb8h1.c ****     arg_pixel->x += dx;
 435              		.loc 1 270 0
 436 0064 3B68     		ldr	r3, [r7]
 437 0066 1A78     		ldrb	r2, [r3]	@ zero_extendqisi2
 438 0068 FB7B     		ldrb	r3, [r7, #15]
 439 006a 1344     		add	r3, r3, r2
 440 006c DAB2     		uxtb	r2, r3
 441 006e 3B68     		ldr	r3, [r7]
 442 0070 1A70     		strb	r2, [r3]
 271:u8glib_arm_v1.18.1\src/u8g_pb8h1.c ****     arg_pixel->y += dy;
 443              		.loc 1 271 0
 444 0072 3B68     		ldr	r3, [r7]
 445 0074 5A78     		ldrb	r2, [r3, #1]	@ zero_extendqisi2
 446 0076 BB7B     		ldrb	r3, [r7, #14]
 447 0078 1344     		add	r3, r3, r2
 448 007a DAB2     		uxtb	r2, r3
 449 007c 3B68     		ldr	r3, [r7]
 450 007e 5A70     		strb	r2, [r3, #1]
 272:u8glib_arm_v1.18.1\src/u8g_pb8h1.c ****     pixel <<= 1;
 451              		.loc 1 272 0
 452 0080 6300     		lsls	r3, r4, #1
 453 0082 DCB2     		uxtb	r4, r3
 273:u8glib_arm_v1.18.1\src/u8g_pb8h1.c ****   } while( pixel != 0  );  
 454              		.loc 1 273 0
 455 0084 002C     		cmp	r4, #0
 456 0086 E5D1     		bne	.L20
 274:u8glib_arm_v1.18.1\src/u8g_pb8h1.c **** }
 457              		.loc 1 274 0
 458 0088 1437     		adds	r7, r7, #20
 459              		.cfi_def_cfa_offset 12
 460 008a BD46     		mov	sp, r7
 461              		.cfi_def_cfa_register 13
 462              		@ sp needed
 463 008c 90BD     		pop	{r4, r7, pc}
 464              		.cfi_endproc
 465              	.LFE4:
 466              		.size	u8g_pb8h1_Set8PixelOpt2, .-u8g_pb8h1_Set8PixelOpt2
 467 008e 00BF     		.section	.text.u8g_dev_pb8h1_base_fn,"ax",%progbits
ARM GAS  C:\Users\KJA\AppData\Local\Temp\cc1FPwWt.s 			page 14


 468              		.align	2
 469              		.global	u8g_dev_pb8h1_base_fn
 470              		.thumb
 471              		.thumb_func
 472              		.type	u8g_dev_pb8h1_base_fn, %function
 473              	u8g_dev_pb8h1_base_fn:
 474              	.LFB5:
 275:u8glib_arm_v1.18.1\src/u8g_pb8h1.c **** 
 276:u8glib_arm_v1.18.1\src/u8g_pb8h1.c **** #ifdef NEW_CODE
 277:u8glib_arm_v1.18.1\src/u8g_pb8h1.c **** static void u8g_pb8h1_Set8PixelState(u8g_pb_t *b, u8g_dev_arg_pixel_t *arg_pixel)
 278:u8glib_arm_v1.18.1\src/u8g_pb8h1.c **** {
 279:u8glib_arm_v1.18.1\src/u8g_pb8h1.c ****   register uint8_t pixel = arg_pixel->pixel;
 280:u8glib_arm_v1.18.1\src/u8g_pb8h1.c ****   struct u8g_pb_h1_struct s;
 281:u8glib_arm_v1.18.1\src/u8g_pb8h1.c ****   uint8_t cnt;
 282:u8glib_arm_v1.18.1\src/u8g_pb8h1.c ****   u8g_pb8h1_state_init(&s, b, arg_pixel->x, arg_pixel->y);
 283:u8glib_arm_v1.18.1\src/u8g_pb8h1.c ****   cnt = 8;
 284:u8glib_arm_v1.18.1\src/u8g_pb8h1.c ****   switch( arg_pixel->dir )
 285:u8glib_arm_v1.18.1\src/u8g_pb8h1.c ****   {
 286:u8glib_arm_v1.18.1\src/u8g_pb8h1.c ****     case 0: 
 287:u8glib_arm_v1.18.1\src/u8g_pb8h1.c ****       do
 288:u8glib_arm_v1.18.1\src/u8g_pb8h1.c ****       {
 289:u8glib_arm_v1.18.1\src/u8g_pb8h1.c **** 	if ( s.x < b->width )
 290:u8glib_arm_v1.18.1\src/u8g_pb8h1.c **** 	  if ( pixel & 128 )
 291:u8glib_arm_v1.18.1\src/u8g_pb8h1.c **** 	    u8g_pb8h1_state_set_pixel(&s, arg_pixel->color);
 292:u8glib_arm_v1.18.1\src/u8g_pb8h1.c **** 	u8g_pb8h1_state_right(&s); 
 293:u8glib_arm_v1.18.1\src/u8g_pb8h1.c **** 	pixel <<= 1;
 294:u8glib_arm_v1.18.1\src/u8g_pb8h1.c **** 	cnt--;
 295:u8glib_arm_v1.18.1\src/u8g_pb8h1.c ****       } while( cnt > 0 && pixel != 0  );
 296:u8glib_arm_v1.18.1\src/u8g_pb8h1.c ****       break;
 297:u8glib_arm_v1.18.1\src/u8g_pb8h1.c ****     case 1: 
 298:u8glib_arm_v1.18.1\src/u8g_pb8h1.c ****       do
 299:u8glib_arm_v1.18.1\src/u8g_pb8h1.c ****       {
 300:u8glib_arm_v1.18.1\src/u8g_pb8h1.c **** 	if ( s.y >= b->p.page_y0 )
 301:u8glib_arm_v1.18.1\src/u8g_pb8h1.c **** 	  if ( s.y <= b->p.page_y1 )
 302:u8glib_arm_v1.18.1\src/u8g_pb8h1.c **** 	    if ( pixel & 128 )
 303:u8glib_arm_v1.18.1\src/u8g_pb8h1.c **** 	      u8g_pb8h1_state_set_pixel(&s, arg_pixel->color);
 304:u8glib_arm_v1.18.1\src/u8g_pb8h1.c **** 	u8g_pb8h1_state_down(&s); 
 305:u8glib_arm_v1.18.1\src/u8g_pb8h1.c **** 	pixel <<= 1;
 306:u8glib_arm_v1.18.1\src/u8g_pb8h1.c **** 	cnt--;
 307:u8glib_arm_v1.18.1\src/u8g_pb8h1.c ****       } while( cnt > 0 && pixel != 0  );
 308:u8glib_arm_v1.18.1\src/u8g_pb8h1.c ****       break;
 309:u8glib_arm_v1.18.1\src/u8g_pb8h1.c ****     case 2: 
 310:u8glib_arm_v1.18.1\src/u8g_pb8h1.c ****       do
 311:u8glib_arm_v1.18.1\src/u8g_pb8h1.c ****       {
 312:u8glib_arm_v1.18.1\src/u8g_pb8h1.c **** 	if ( s.x < b->width )
 313:u8glib_arm_v1.18.1\src/u8g_pb8h1.c **** 	  if ( pixel & 128 )
 314:u8glib_arm_v1.18.1\src/u8g_pb8h1.c **** 	    u8g_pb8h1_state_set_pixel(&s, arg_pixel->color);
 315:u8glib_arm_v1.18.1\src/u8g_pb8h1.c **** 	u8g_pb8h1_state_left(&s); 
 316:u8glib_arm_v1.18.1\src/u8g_pb8h1.c **** 	pixel <<= 1;
 317:u8glib_arm_v1.18.1\src/u8g_pb8h1.c **** 	cnt--;
 318:u8glib_arm_v1.18.1\src/u8g_pb8h1.c ****       } while( cnt > 0 && pixel != 0 );
 319:u8glib_arm_v1.18.1\src/u8g_pb8h1.c ****       break;
 320:u8glib_arm_v1.18.1\src/u8g_pb8h1.c ****     case 3: 	
 321:u8glib_arm_v1.18.1\src/u8g_pb8h1.c ****       do
 322:u8glib_arm_v1.18.1\src/u8g_pb8h1.c ****       {
 323:u8glib_arm_v1.18.1\src/u8g_pb8h1.c **** 	if ( s.y >= b->p.page_y0 )
 324:u8glib_arm_v1.18.1\src/u8g_pb8h1.c **** 	  if ( s.y <= b->p.page_y1 )
ARM GAS  C:\Users\KJA\AppData\Local\Temp\cc1FPwWt.s 			page 15


 325:u8glib_arm_v1.18.1\src/u8g_pb8h1.c **** 	    if ( pixel & 128 )
 326:u8glib_arm_v1.18.1\src/u8g_pb8h1.c **** 	      u8g_pb8h1_state_set_pixel(&s, arg_pixel->color);
 327:u8glib_arm_v1.18.1\src/u8g_pb8h1.c **** 	u8g_pb8h1_state_up(&s); 
 328:u8glib_arm_v1.18.1\src/u8g_pb8h1.c **** 	pixel <<= 1;
 329:u8glib_arm_v1.18.1\src/u8g_pb8h1.c **** 	cnt--;
 330:u8glib_arm_v1.18.1\src/u8g_pb8h1.c ****       } while( cnt > 0 && pixel != 0  );
 331:u8glib_arm_v1.18.1\src/u8g_pb8h1.c ****       break;
 332:u8glib_arm_v1.18.1\src/u8g_pb8h1.c ****   }
 333:u8glib_arm_v1.18.1\src/u8g_pb8h1.c **** }
 334:u8glib_arm_v1.18.1\src/u8g_pb8h1.c **** #endif
 335:u8glib_arm_v1.18.1\src/u8g_pb8h1.c **** 
 336:u8glib_arm_v1.18.1\src/u8g_pb8h1.c **** uint8_t u8g_dev_pb8h1_base_fn(u8g_t *u8g, u8g_dev_t *dev, uint8_t msg, void *arg)
 337:u8glib_arm_v1.18.1\src/u8g_pb8h1.c **** {
 475              		.loc 1 337 0
 476              		.cfi_startproc
 477              		@ args = 0, pretend = 0, frame = 24
 478              		@ frame_needed = 1, uses_anonymous_args = 0
 479 0000 80B5     		push	{r7, lr}
 480              		.cfi_def_cfa_offset 8
 481              		.cfi_offset 7, -8
 482              		.cfi_offset 14, -4
 483 0002 86B0     		sub	sp, sp, #24
 484              		.cfi_def_cfa_offset 32
 485 0004 00AF     		add	r7, sp, #0
 486              		.cfi_def_cfa_register 7
 487 0006 F860     		str	r0, [r7, #12]
 488 0008 B960     		str	r1, [r7, #8]
 489 000a 3B60     		str	r3, [r7]
 490 000c 1346     		mov	r3, r2
 491 000e FB71     		strb	r3, [r7, #7]
 338:u8glib_arm_v1.18.1\src/u8g_pb8h1.c ****   u8g_pb_t *pb = (u8g_pb_t *)(dev->dev_mem);
 492              		.loc 1 338 0
 493 0010 BB68     		ldr	r3, [r7, #8]
 494 0012 5B68     		ldr	r3, [r3, #4]
 495 0014 7B61     		str	r3, [r7, #20]
 339:u8glib_arm_v1.18.1\src/u8g_pb8h1.c ****   switch(msg)
 496              		.loc 1 339 0
 497 0016 FB79     		ldrb	r3, [r7, #7]	@ zero_extendqisi2
 498 0018 0A3B     		subs	r3, r3, #10
 499 001a 3E2B     		cmp	r3, #62
 500 001c 00F2BA80 		bhi	.L28
 501 0020 01A2     		adr	r2, .L30
 502 0022 52F823F0 		ldr	pc, [r2, r3, lsl #2]
 503 0026 00BF     		.p2align 2
 504              	.L30:
 505 0028 95010000 		.word	.L28+1
 506 002c 95010000 		.word	.L28+1
 507 0030 95010000 		.word	.L28+1
 508 0034 95010000 		.word	.L28+1
 509 0038 95010000 		.word	.L28+1
 510 003c 95010000 		.word	.L28+1
 511 0040 95010000 		.word	.L28+1
 512 0044 95010000 		.word	.L28+1
 513 0048 95010000 		.word	.L28+1
 514 004c 95010000 		.word	.L28+1
 515 0050 49010000 		.word	.L32+1
 516 0054 59010000 		.word	.L33+1
ARM GAS  C:\Users\KJA\AppData\Local\Temp\cc1FPwWt.s 			page 16


 517 0058 95010000 		.word	.L28+1
 518 005c 73010000 		.word	.L34+1
 519 0060 95010000 		.word	.L28+1
 520 0064 95010000 		.word	.L28+1
 521 0068 95010000 		.word	.L28+1
 522 006c 95010000 		.word	.L28+1
 523 0070 95010000 		.word	.L28+1
 524 0074 95010000 		.word	.L28+1
 525 0078 95010000 		.word	.L28+1
 526 007c 95010000 		.word	.L28+1
 527 0080 95010000 		.word	.L28+1
 528 0084 95010000 		.word	.L28+1
 529 0088 95010000 		.word	.L28+1
 530 008c 95010000 		.word	.L28+1
 531 0090 95010000 		.word	.L28+1
 532 0094 95010000 		.word	.L28+1
 533 0098 95010000 		.word	.L28+1
 534 009c 95010000 		.word	.L28+1
 535 00a0 95010000 		.word	.L28+1
 536 00a4 95010000 		.word	.L28+1
 537 00a8 95010000 		.word	.L28+1
 538 00ac 95010000 		.word	.L28+1
 539 00b0 95010000 		.word	.L28+1
 540 00b4 95010000 		.word	.L28+1
 541 00b8 95010000 		.word	.L28+1
 542 00bc 95010000 		.word	.L28+1
 543 00c0 95010000 		.word	.L28+1
 544 00c4 95010000 		.word	.L28+1
 545 00c8 3F010000 		.word	.L35+1
 546 00cc 95010000 		.word	.L28+1
 547 00d0 95010000 		.word	.L28+1
 548 00d4 95010000 		.word	.L28+1
 549 00d8 95010000 		.word	.L28+1
 550 00dc 95010000 		.word	.L28+1
 551 00e0 95010000 		.word	.L28+1
 552 00e4 95010000 		.word	.L28+1
 553 00e8 95010000 		.word	.L28+1
 554 00ec 25010000 		.word	.L36+1
 555 00f0 95010000 		.word	.L28+1
 556 00f4 95010000 		.word	.L28+1
 557 00f8 95010000 		.word	.L28+1
 558 00fc 95010000 		.word	.L28+1
 559 0100 95010000 		.word	.L28+1
 560 0104 95010000 		.word	.L28+1
 561 0108 95010000 		.word	.L28+1
 562 010c 95010000 		.word	.L28+1
 563 0110 95010000 		.word	.L28+1
 564 0114 95010000 		.word	.L28+1
 565 0118 7D010000 		.word	.L39+1
 566 011c 87010000 		.word	.L40+1
 567 0120 91010000 		.word	.L41+1
 568              		.p2align 1
 569              	.L36:
 340:u8glib_arm_v1.18.1\src/u8g_pb8h1.c ****   {
 341:u8glib_arm_v1.18.1\src/u8g_pb8h1.c ****     case U8G_DEV_MSG_SET_8PIXEL:
 342:u8glib_arm_v1.18.1\src/u8g_pb8h1.c **** #ifdef NEW_CODE
 343:u8glib_arm_v1.18.1\src/u8g_pb8h1.c ****       if ( u8g_pb_Is8PixelVisible(pb, (u8g_dev_arg_pixel_t *)arg) )
ARM GAS  C:\Users\KJA\AppData\Local\Temp\cc1FPwWt.s 			page 17


 344:u8glib_arm_v1.18.1\src/u8g_pb8h1.c ****         u8g_pb8h1_Set8PixelState(pb, (u8g_dev_arg_pixel_t *)arg);
 345:u8glib_arm_v1.18.1\src/u8g_pb8h1.c **** #else
 346:u8glib_arm_v1.18.1\src/u8g_pb8h1.c ****       if ( u8g_pb_Is8PixelVisible(pb, (u8g_dev_arg_pixel_t *)arg) )
 570              		.loc 1 346 0
 571 0124 7869     		ldr	r0, [r7, #20]
 572 0126 3968     		ldr	r1, [r7]
 573 0128 FFF7FEFF 		bl	u8g_pb_Is8PixelVisible
 574 012c 0346     		mov	r3, r0
 575 012e 002B     		cmp	r3, #0
 576 0130 04D0     		beq	.L42
 347:u8glib_arm_v1.18.1\src/u8g_pb8h1.c ****         u8g_pb8h1_Set8PixelOpt2(pb, (u8g_dev_arg_pixel_t *)arg);
 577              		.loc 1 347 0
 578 0132 7869     		ldr	r0, [r7, #20]
 579 0134 3968     		ldr	r1, [r7]
 580 0136 FFF7FEFF 		bl	u8g_pb8h1_Set8PixelOpt2
 348:u8glib_arm_v1.18.1\src/u8g_pb8h1.c **** #endif
 349:u8glib_arm_v1.18.1\src/u8g_pb8h1.c ****       break;
 581              		.loc 1 349 0
 582 013a 2BE0     		b	.L28
 583              	.L42:
 584 013c 2AE0     		b	.L28
 585              	.L35:
 350:u8glib_arm_v1.18.1\src/u8g_pb8h1.c ****     case U8G_DEV_MSG_SET_PIXEL:
 351:u8glib_arm_v1.18.1\src/u8g_pb8h1.c ****       u8g_pb8h1_SetPixel(pb, (u8g_dev_arg_pixel_t *)arg);
 586              		.loc 1 351 0
 587 013e 7869     		ldr	r0, [r7, #20]
 588 0140 3968     		ldr	r1, [r7]
 589 0142 FFF7FEFF 		bl	u8g_pb8h1_SetPixel
 352:u8glib_arm_v1.18.1\src/u8g_pb8h1.c ****       break;
 590              		.loc 1 352 0
 591 0146 25E0     		b	.L28
 592              	.L32:
 353:u8glib_arm_v1.18.1\src/u8g_pb8h1.c ****     case U8G_DEV_MSG_INIT:
 354:u8glib_arm_v1.18.1\src/u8g_pb8h1.c ****       break;
 355:u8glib_arm_v1.18.1\src/u8g_pb8h1.c ****     case U8G_DEV_MSG_STOP:
 356:u8glib_arm_v1.18.1\src/u8g_pb8h1.c ****       break;
 357:u8glib_arm_v1.18.1\src/u8g_pb8h1.c ****     case U8G_DEV_MSG_PAGE_FIRST:
 358:u8glib_arm_v1.18.1\src/u8g_pb8h1.c ****       u8g_pb_Clear(pb);
 593              		.loc 1 358 0
 594 0148 7869     		ldr	r0, [r7, #20]
 595 014a FFF7FEFF 		bl	u8g_pb_Clear
 359:u8glib_arm_v1.18.1\src/u8g_pb8h1.c ****       u8g_page_First(&(pb->p));
 596              		.loc 1 359 0
 597 014e 7B69     		ldr	r3, [r7, #20]
 598 0150 1846     		mov	r0, r3
 599 0152 FFF7FEFF 		bl	u8g_page_First
 360:u8glib_arm_v1.18.1\src/u8g_pb8h1.c ****       break;
 600              		.loc 1 360 0
 601 0156 1DE0     		b	.L28
 602              	.L33:
 361:u8glib_arm_v1.18.1\src/u8g_pb8h1.c ****     case U8G_DEV_MSG_PAGE_NEXT:
 362:u8glib_arm_v1.18.1\src/u8g_pb8h1.c ****       if ( u8g_page_Next(&(pb->p)) == 0 )
 603              		.loc 1 362 0
 604 0158 7B69     		ldr	r3, [r7, #20]
 605 015a 1846     		mov	r0, r3
 606 015c FFF7FEFF 		bl	u8g_page_Next
 607 0160 0346     		mov	r3, r0
ARM GAS  C:\Users\KJA\AppData\Local\Temp\cc1FPwWt.s 			page 18


 608 0162 002B     		cmp	r3, #0
 609 0164 01D1     		bne	.L43
 363:u8glib_arm_v1.18.1\src/u8g_pb8h1.c ****         return 0;
 610              		.loc 1 363 0
 611 0166 0023     		movs	r3, #0
 612 0168 15E0     		b	.L44
 613              	.L43:
 364:u8glib_arm_v1.18.1\src/u8g_pb8h1.c ****       u8g_pb_Clear(pb);
 614              		.loc 1 364 0
 615 016a 7869     		ldr	r0, [r7, #20]
 616 016c FFF7FEFF 		bl	u8g_pb_Clear
 365:u8glib_arm_v1.18.1\src/u8g_pb8h1.c ****       break;
 617              		.loc 1 365 0
 618 0170 10E0     		b	.L28
 619              	.L34:
 366:u8glib_arm_v1.18.1\src/u8g_pb8h1.c **** #ifdef U8G_DEV_MSG_IS_BBX_INTERSECTION
 367:u8glib_arm_v1.18.1\src/u8g_pb8h1.c ****     case U8G_DEV_MSG_IS_BBX_INTERSECTION:
 368:u8glib_arm_v1.18.1\src/u8g_pb8h1.c ****       return u8g_pb_IsIntersection(pb, (u8g_dev_arg_bbx_t *)arg);
 369:u8glib_arm_v1.18.1\src/u8g_pb8h1.c **** #endif
 370:u8glib_arm_v1.18.1\src/u8g_pb8h1.c ****     case U8G_DEV_MSG_GET_PAGE_BOX:
 371:u8glib_arm_v1.18.1\src/u8g_pb8h1.c ****       u8g_pb_GetPageBox(pb, (u8g_box_t *)arg);
 620              		.loc 1 371 0
 621 0172 7869     		ldr	r0, [r7, #20]
 622 0174 3968     		ldr	r1, [r7]
 623 0176 FFF7FEFF 		bl	u8g_pb_GetPageBox
 372:u8glib_arm_v1.18.1\src/u8g_pb8h1.c ****       break;
 624              		.loc 1 372 0
 625 017a 0BE0     		b	.L28
 626              	.L39:
 373:u8glib_arm_v1.18.1\src/u8g_pb8h1.c ****     case U8G_DEV_MSG_GET_WIDTH:
 374:u8glib_arm_v1.18.1\src/u8g_pb8h1.c ****       *((u8g_uint_t *)arg) = pb->width;
 627              		.loc 1 374 0
 628 017c 7B69     		ldr	r3, [r7, #20]
 629 017e 5A79     		ldrb	r2, [r3, #5]	@ zero_extendqisi2
 630 0180 3B68     		ldr	r3, [r7]
 631 0182 1A70     		strb	r2, [r3]
 375:u8glib_arm_v1.18.1\src/u8g_pb8h1.c ****       break;
 632              		.loc 1 375 0
 633 0184 06E0     		b	.L28
 634              	.L40:
 376:u8glib_arm_v1.18.1\src/u8g_pb8h1.c ****     case U8G_DEV_MSG_GET_HEIGHT:
 377:u8glib_arm_v1.18.1\src/u8g_pb8h1.c ****       *((u8g_uint_t *)arg) = pb->p.total_height;
 635              		.loc 1 377 0
 636 0186 7B69     		ldr	r3, [r7, #20]
 637 0188 5A78     		ldrb	r2, [r3, #1]	@ zero_extendqisi2
 638 018a 3B68     		ldr	r3, [r7]
 639 018c 1A70     		strb	r2, [r3]
 378:u8glib_arm_v1.18.1\src/u8g_pb8h1.c ****       break;
 640              		.loc 1 378 0
 641 018e 01E0     		b	.L28
 642              	.L41:
 379:u8glib_arm_v1.18.1\src/u8g_pb8h1.c ****     case U8G_DEV_MSG_SET_COLOR_ENTRY:
 380:u8glib_arm_v1.18.1\src/u8g_pb8h1.c ****       break;
 381:u8glib_arm_v1.18.1\src/u8g_pb8h1.c ****     case U8G_DEV_MSG_SET_XY_CB:
 382:u8glib_arm_v1.18.1\src/u8g_pb8h1.c ****       break;
 383:u8glib_arm_v1.18.1\src/u8g_pb8h1.c ****     case U8G_DEV_MSG_GET_MODE:
 384:u8glib_arm_v1.18.1\src/u8g_pb8h1.c ****       return U8G_MODE_BW;
ARM GAS  C:\Users\KJA\AppData\Local\Temp\cc1FPwWt.s 			page 19


 643              		.loc 1 384 0
 644 0190 0123     		movs	r3, #1
 645 0192 00E0     		b	.L44
 646              	.L28:
 385:u8glib_arm_v1.18.1\src/u8g_pb8h1.c ****   }
 386:u8glib_arm_v1.18.1\src/u8g_pb8h1.c ****   return 1;
 647              		.loc 1 386 0
 648 0194 0123     		movs	r3, #1
 649              	.L44:
 387:u8glib_arm_v1.18.1\src/u8g_pb8h1.c **** }
 650              		.loc 1 387 0
 651 0196 1846     		mov	r0, r3
 652 0198 1837     		adds	r7, r7, #24
 653              		.cfi_def_cfa_offset 8
 654 019a BD46     		mov	sp, r7
 655              		.cfi_def_cfa_register 13
 656              		@ sp needed
 657 019c 80BD     		pop	{r7, pc}
 658              		.cfi_endproc
 659              	.LFE5:
 660              		.size	u8g_dev_pb8h1_base_fn, .-u8g_dev_pb8h1_base_fn
 661 019e 00BF     		.text
 662              	.Letext0:
 663              		.file 2 "c:\\program files (x86)\\cypress\\psoc creator\\4.0\\psoc creator\\import\\gnu\\arm\\4.9.
 664              		.file 3 "c:\\program files (x86)\\cypress\\psoc creator\\4.0\\psoc creator\\import\\gnu\\arm\\4.9.
 665              		.file 4 "u8glib_arm_v1.18.1\\src\\u8g.h"