ARM GAS  C:\Users\KJA\AppData\Local\Temp\cc6Wl3zN.s 			page 1


   1              		.syntax unified
   2              		.cpu cortex-m3
   3              		.fpu softvfp
   4              		.eabi_attribute 20, 1
   5              		.eabi_attribute 21, 1
   6              		.eabi_attribute 23, 3
   7              		.eabi_attribute 24, 1
   8              		.eabi_attribute 25, 1
   9              		.eabi_attribute 26, 1
  10              		.eabi_attribute 30, 6
  11              		.eabi_attribute 34, 1
  12              		.eabi_attribute 18, 4
  13              		.thumb
  14              		.file	"u8g_ellipse.c"
  15              		.text
  16              	.Ltext0:
  17              		.cfi_sections	.debug_frame
  18              		.section	.text.u8g_draw_ellipse_section,"ax",%progbits
  19              		.align	2
  20              		.thumb
  21              		.thumb_func
  22              		.type	u8g_draw_ellipse_section, %function
  23              	u8g_draw_ellipse_section:
  24              	.LFB0:
  25              		.file 1 "u8glib_arm_v1.18.1\\src\\u8g_ellipse.c"
   1:u8glib_arm_v1.18.1\src/u8g_ellipse.c **** /*
   2:u8glib_arm_v1.18.1\src/u8g_ellipse.c **** 
   3:u8glib_arm_v1.18.1\src/u8g_ellipse.c ****   u8g_ellipse.c
   4:u8glib_arm_v1.18.1\src/u8g_ellipse.c **** 
   5:u8glib_arm_v1.18.1\src/u8g_ellipse.c ****   Utility to draw empty and filled ellipses.
   6:u8glib_arm_v1.18.1\src/u8g_ellipse.c ****   
   7:u8glib_arm_v1.18.1\src/u8g_ellipse.c ****   Universal 8bit Graphics Library
   8:u8glib_arm_v1.18.1\src/u8g_ellipse.c ****   
   9:u8glib_arm_v1.18.1\src/u8g_ellipse.c ****   Copyright (c) 2011, bjthom@gmail.com
  10:u8glib_arm_v1.18.1\src/u8g_ellipse.c ****   All rights reserved.
  11:u8glib_arm_v1.18.1\src/u8g_ellipse.c **** 
  12:u8glib_arm_v1.18.1\src/u8g_ellipse.c ****   Redistribution and use in source and binary forms, with or without modification, 
  13:u8glib_arm_v1.18.1\src/u8g_ellipse.c ****   are permitted provided that the following conditions are met:
  14:u8glib_arm_v1.18.1\src/u8g_ellipse.c **** 
  15:u8glib_arm_v1.18.1\src/u8g_ellipse.c ****   * Redistributions of source code must retain the above copyright notice, this list 
  16:u8glib_arm_v1.18.1\src/u8g_ellipse.c ****     of conditions and the following disclaimer.
  17:u8glib_arm_v1.18.1\src/u8g_ellipse.c ****     
  18:u8glib_arm_v1.18.1\src/u8g_ellipse.c ****   * Redistributions in binary form must reproduce the above copyright notice, this 
  19:u8glib_arm_v1.18.1\src/u8g_ellipse.c ****     list of conditions and the following disclaimer in the documentation and/or other 
  20:u8glib_arm_v1.18.1\src/u8g_ellipse.c ****     materials provided with the distribution.
  21:u8glib_arm_v1.18.1\src/u8g_ellipse.c **** 
  22:u8glib_arm_v1.18.1\src/u8g_ellipse.c ****   THIS SOFTWARE IS PROVIDED BY THE COPYRIGHT HOLDERS AND 
  23:u8glib_arm_v1.18.1\src/u8g_ellipse.c ****   CONTRIBUTORS "AS IS" AND ANY EXPRESS OR IMPLIED WARRANTIES, 
  24:u8glib_arm_v1.18.1\src/u8g_ellipse.c ****   INCLUDING, BUT NOT LIMITED TO, THE IMPLIED WARRANTIES OF 
  25:u8glib_arm_v1.18.1\src/u8g_ellipse.c ****   MERCHANTABILITY AND FITNESS FOR A PARTICULAR PURPOSE ARE 
  26:u8glib_arm_v1.18.1\src/u8g_ellipse.c ****   DISCLAIMED. IN NO EVENT SHALL THE COPYRIGHT HOLDER OR 
  27:u8glib_arm_v1.18.1\src/u8g_ellipse.c ****   CONTRIBUTORS BE LIABLE FOR ANY DIRECT, INDIRECT, INCIDENTAL, 
  28:u8glib_arm_v1.18.1\src/u8g_ellipse.c ****   SPECIAL, EXEMPLARY, OR CONSEQUENTIAL DAMAGES (INCLUDING, BUT 
  29:u8glib_arm_v1.18.1\src/u8g_ellipse.c ****   NOT LIMITED TO, PROCUREMENT OF SUBSTITUTE GOODS OR SERVICES; 
  30:u8glib_arm_v1.18.1\src/u8g_ellipse.c ****   LOSS OF USE, DATA, OR PROFITS; OR BUSINESS INTERRUPTION) HOWEVER 
  31:u8glib_arm_v1.18.1\src/u8g_ellipse.c ****   CAUSED AND ON ANY THEORY OF LIABILITY, WHETHER IN CONTRACT, 
  32:u8glib_arm_v1.18.1\src/u8g_ellipse.c ****   STRICT LIABILITY, OR TORT (INCLUDING NEGLIGENCE OR OTHERWISE) 
ARM GAS  C:\Users\KJA\AppData\Local\Temp\cc6Wl3zN.s 			page 2


  33:u8glib_arm_v1.18.1\src/u8g_ellipse.c ****   ARISING IN ANY WAY OUT OF THE USE OF THIS SOFTWARE, EVEN IF 
  34:u8glib_arm_v1.18.1\src/u8g_ellipse.c ****   ADVISED OF THE POSSIBILITY OF SUCH DAMAGE.  
  35:u8glib_arm_v1.18.1\src/u8g_ellipse.c ****   
  36:u8glib_arm_v1.18.1\src/u8g_ellipse.c ****   Addition to the U8G Library as of 02/29/12
  37:u8glib_arm_v1.18.1\src/u8g_ellipse.c ****   Adapted from Bresenham's Algorithm and the following websites:
  38:u8glib_arm_v1.18.1\src/u8g_ellipse.c **** 	http://free.pages.at/easyfilter/bresenham.html
  39:u8glib_arm_v1.18.1\src/u8g_ellipse.c **** 	http://homepage.smc.edu/kennedy_john/belipse.pdf
  40:u8glib_arm_v1.18.1\src/u8g_ellipse.c ****   
  41:u8glib_arm_v1.18.1\src/u8g_ellipse.c **** */
  42:u8glib_arm_v1.18.1\src/u8g_ellipse.c **** 
  43:u8glib_arm_v1.18.1\src/u8g_ellipse.c **** #include "u8g.h"
  44:u8glib_arm_v1.18.1\src/u8g_ellipse.c **** 
  45:u8glib_arm_v1.18.1\src/u8g_ellipse.c **** 
  46:u8glib_arm_v1.18.1\src/u8g_ellipse.c **** #ifdef WORK_IN_PROGRESS
  47:u8glib_arm_v1.18.1\src/u8g_ellipse.c **** 
  48:u8glib_arm_v1.18.1\src/u8g_ellipse.c **** void u8g_DrawEllipseRect(u8g_t *u8g, u8g_uint_t x0, u8g_uint_t y0, u8g_uint_t x1, u8g_uint_t y1)
  49:u8glib_arm_v1.18.1\src/u8g_ellipse.c **** {
  50:u8glib_arm_v1.18.1\src/u8g_ellipse.c **** 	int a = abs(x1 - x0);
  51:u8glib_arm_v1.18.1\src/u8g_ellipse.c **** 	int b = abs(y1 - y0);	//get diameters
  52:u8glib_arm_v1.18.1\src/u8g_ellipse.c **** 	int b1 = b&1;
  53:u8glib_arm_v1.18.1\src/u8g_ellipse.c **** 	long dx = 4*(1-a)*b*b;
  54:u8glib_arm_v1.18.1\src/u8g_ellipse.c **** 	long dy = 4*(b1+1)*a*a;
  55:u8glib_arm_v1.18.1\src/u8g_ellipse.c **** 	long err = dx+dy+b1*a*a;
  56:u8glib_arm_v1.18.1\src/u8g_ellipse.c **** 	long e2;
  57:u8glib_arm_v1.18.1\src/u8g_ellipse.c **** 	
  58:u8glib_arm_v1.18.1\src/u8g_ellipse.c **** 	if (x0 > x1) { x0 = x1; x1 += a; }
  59:u8glib_arm_v1.18.1\src/u8g_ellipse.c **** 	if (y0 > y1) { y0 = y1; } 
  60:u8glib_arm_v1.18.1\src/u8g_ellipse.c **** 	y0 += (b+1)/2;
  61:u8glib_arm_v1.18.1\src/u8g_ellipse.c **** 	y1 = y0-b1;
  62:u8glib_arm_v1.18.1\src/u8g_ellipse.c **** 	a *= 8*a;
  63:u8glib_arm_v1.18.1\src/u8g_ellipse.c **** 	b1 = 8*b*b;
  64:u8glib_arm_v1.18.1\src/u8g_ellipse.c **** 	
  65:u8glib_arm_v1.18.1\src/u8g_ellipse.c **** 	do {
  66:u8glib_arm_v1.18.1\src/u8g_ellipse.c **** 		u8g_DrawPixel(u8g, x1, y0);
  67:u8glib_arm_v1.18.1\src/u8g_ellipse.c **** 		u8g_DrawPixel(u8g, x0, y0);
  68:u8glib_arm_v1.18.1\src/u8g_ellipse.c **** 		u8g_DrawPixel(u8g, x0, y1);
  69:u8glib_arm_v1.18.1\src/u8g_ellipse.c **** 		u8g_DrawPixel(u8g, x1, y1);
  70:u8glib_arm_v1.18.1\src/u8g_ellipse.c **** 		e2 = 2*err;
  71:u8glib_arm_v1.18.1\src/u8g_ellipse.c **** 		if (e2 >= dx) {
  72:u8glib_arm_v1.18.1\src/u8g_ellipse.c **** 			x0++;
  73:u8glib_arm_v1.18.1\src/u8g_ellipse.c **** 			x1--;
  74:u8glib_arm_v1.18.1\src/u8g_ellipse.c **** 			err += dx += b1;
  75:u8glib_arm_v1.18.1\src/u8g_ellipse.c **** 		}
  76:u8glib_arm_v1.18.1\src/u8g_ellipse.c **** 		if (e2 <= dy) {
  77:u8glib_arm_v1.18.1\src/u8g_ellipse.c **** 			y0++;
  78:u8glib_arm_v1.18.1\src/u8g_ellipse.c **** 			y1--;
  79:u8glib_arm_v1.18.1\src/u8g_ellipse.c **** 			err += dy += a;
  80:u8glib_arm_v1.18.1\src/u8g_ellipse.c **** 		}
  81:u8glib_arm_v1.18.1\src/u8g_ellipse.c **** 	} while (x0 <= x1);
  82:u8glib_arm_v1.18.1\src/u8g_ellipse.c **** 	
  83:u8glib_arm_v1.18.1\src/u8g_ellipse.c **** 	while (y0-y1 < b) {
  84:u8glib_arm_v1.18.1\src/u8g_ellipse.c **** 		u8g_DrawPixel(u8g, x0-1, y0);
  85:u8glib_arm_v1.18.1\src/u8g_ellipse.c **** 		u8g_DrawPixel(u8g, x1+1, y0++);
  86:u8glib_arm_v1.18.1\src/u8g_ellipse.c **** 		u8g_DrawPixel(u8g, x0-1, y1);
  87:u8glib_arm_v1.18.1\src/u8g_ellipse.c **** 		u8g_DrawPixel(u8g, x1+1, y1--);
  88:u8glib_arm_v1.18.1\src/u8g_ellipse.c **** 	}
  89:u8glib_arm_v1.18.1\src/u8g_ellipse.c **** }
ARM GAS  C:\Users\KJA\AppData\Local\Temp\cc6Wl3zN.s 			page 3


  90:u8glib_arm_v1.18.1\src/u8g_ellipse.c **** 
  91:u8glib_arm_v1.18.1\src/u8g_ellipse.c **** void u8g_DrawEllipse(u8g_t *u8g, u8g_uint_t x0, u8g_uint_t y0, u8g_uint_t xr, u8g_uint_t yr)
  92:u8glib_arm_v1.18.1\src/u8g_ellipse.c **** {
  93:u8glib_arm_v1.18.1\src/u8g_ellipse.c **** 	u8g_DrawPixel(u8g, x0, y0+yr);
  94:u8glib_arm_v1.18.1\src/u8g_ellipse.c **** 	u8g_DrawPixel(u8g, x0, y0-yr);
  95:u8glib_arm_v1.18.1\src/u8g_ellipse.c **** 	u8g_DrawPixel(u8g, x0+xr, y0);
  96:u8glib_arm_v1.18.1\src/u8g_ellipse.c **** 	u8g_DrawPixel(u8g, x0-xr, y0);
  97:u8glib_arm_v1.18.1\src/u8g_ellipse.c **** }
  98:u8glib_arm_v1.18.1\src/u8g_ellipse.c **** 
  99:u8glib_arm_v1.18.1\src/u8g_ellipse.c **** #endif
 100:u8glib_arm_v1.18.1\src/u8g_ellipse.c **** 
 101:u8glib_arm_v1.18.1\src/u8g_ellipse.c **** #if defined(U8G_16BIT)
 102:u8glib_arm_v1.18.1\src/u8g_ellipse.c **** typedef  int32_t u8g_long_t;
 103:u8glib_arm_v1.18.1\src/u8g_ellipse.c **** #else
 104:u8glib_arm_v1.18.1\src/u8g_ellipse.c **** typedef  int16_t u8g_long_t;
 105:u8glib_arm_v1.18.1\src/u8g_ellipse.c **** #endif
 106:u8glib_arm_v1.18.1\src/u8g_ellipse.c **** 
 107:u8glib_arm_v1.18.1\src/u8g_ellipse.c **** 
 108:u8glib_arm_v1.18.1\src/u8g_ellipse.c **** /*
 109:u8glib_arm_v1.18.1\src/u8g_ellipse.c ****   Source: 
 110:u8glib_arm_v1.18.1\src/u8g_ellipse.c ****     ftp://pc.fk0.name/pub/books/programming/bezier-ellipse.pdf
 111:u8glib_arm_v1.18.1\src/u8g_ellipse.c ****     Foley, Computer Graphics, p 90
 112:u8glib_arm_v1.18.1\src/u8g_ellipse.c **** */
 113:u8glib_arm_v1.18.1\src/u8g_ellipse.c **** static void u8g_draw_ellipse_section(u8g_t *u8g, u8g_uint_t x, u8g_uint_t y, u8g_uint_t x0, u8g_uin
 114:u8glib_arm_v1.18.1\src/u8g_ellipse.c **** static void u8g_draw_ellipse_section(u8g_t *u8g, u8g_uint_t x, u8g_uint_t y, u8g_uint_t x0, u8g_uin
 115:u8glib_arm_v1.18.1\src/u8g_ellipse.c **** {
  26              		.loc 1 115 0
  27              		.cfi_startproc
  28              		@ args = 8, pretend = 0, frame = 8
  29              		@ frame_needed = 1, uses_anonymous_args = 0
  30 0000 80B5     		push	{r7, lr}
  31              		.cfi_def_cfa_offset 8
  32              		.cfi_offset 7, -8
  33              		.cfi_offset 14, -4
  34 0002 82B0     		sub	sp, sp, #8
  35              		.cfi_def_cfa_offset 16
  36 0004 00AF     		add	r7, sp, #0
  37              		.cfi_def_cfa_register 7
  38 0006 7860     		str	r0, [r7, #4]
  39 0008 0846     		mov	r0, r1
  40 000a 1146     		mov	r1, r2
  41 000c 1A46     		mov	r2, r3
  42 000e 0346     		mov	r3, r0
  43 0010 FB70     		strb	r3, [r7, #3]
  44 0012 0B46     		mov	r3, r1
  45 0014 BB70     		strb	r3, [r7, #2]
  46 0016 1346     		mov	r3, r2
  47 0018 7B70     		strb	r3, [r7, #1]
 116:u8glib_arm_v1.18.1\src/u8g_ellipse.c ****     /* upper right */
 117:u8glib_arm_v1.18.1\src/u8g_ellipse.c ****     if ( option & U8G_DRAW_UPPER_RIGHT )
  48              		.loc 1 117 0
  49 001a 3B7D     		ldrb	r3, [r7, #20]	@ zero_extendqisi2
  50 001c 03F00103 		and	r3, r3, #1
  51 0020 002B     		cmp	r3, #0
  52 0022 0BD0     		beq	.L2
 118:u8glib_arm_v1.18.1\src/u8g_ellipse.c ****     {
 119:u8glib_arm_v1.18.1\src/u8g_ellipse.c ****       u8g_DrawPixel(u8g, x0 + x, y0 - y);
ARM GAS  C:\Users\KJA\AppData\Local\Temp\cc6Wl3zN.s 			page 4


  53              		.loc 1 119 0
  54 0024 7A78     		ldrb	r2, [r7, #1]
  55 0026 FB78     		ldrb	r3, [r7, #3]
  56 0028 1344     		add	r3, r3, r2
  57 002a D9B2     		uxtb	r1, r3
  58 002c 3A7C     		ldrb	r2, [r7, #16]
  59 002e BB78     		ldrb	r3, [r7, #2]
  60 0030 D31A     		subs	r3, r2, r3
  61 0032 DBB2     		uxtb	r3, r3
  62 0034 7868     		ldr	r0, [r7, #4]
  63 0036 1A46     		mov	r2, r3
  64 0038 FFF7FEFF 		bl	u8g_DrawPixel
  65              	.L2:
 120:u8glib_arm_v1.18.1\src/u8g_ellipse.c ****     }
 121:u8glib_arm_v1.18.1\src/u8g_ellipse.c ****     
 122:u8glib_arm_v1.18.1\src/u8g_ellipse.c ****     /* upper left */
 123:u8glib_arm_v1.18.1\src/u8g_ellipse.c ****     if ( option & U8G_DRAW_UPPER_LEFT )
  66              		.loc 1 123 0
  67 003c 3B7D     		ldrb	r3, [r7, #20]	@ zero_extendqisi2
  68 003e 03F00203 		and	r3, r3, #2
  69 0042 002B     		cmp	r3, #0
  70 0044 0BD0     		beq	.L3
 124:u8glib_arm_v1.18.1\src/u8g_ellipse.c ****     {
 125:u8glib_arm_v1.18.1\src/u8g_ellipse.c ****       u8g_DrawPixel(u8g, x0 - x, y0 - y);
  71              		.loc 1 125 0
  72 0046 7A78     		ldrb	r2, [r7, #1]
  73 0048 FB78     		ldrb	r3, [r7, #3]
  74 004a D31A     		subs	r3, r2, r3
  75 004c D9B2     		uxtb	r1, r3
  76 004e 3A7C     		ldrb	r2, [r7, #16]
  77 0050 BB78     		ldrb	r3, [r7, #2]
  78 0052 D31A     		subs	r3, r2, r3
  79 0054 DBB2     		uxtb	r3, r3
  80 0056 7868     		ldr	r0, [r7, #4]
  81 0058 1A46     		mov	r2, r3
  82 005a FFF7FEFF 		bl	u8g_DrawPixel
  83              	.L3:
 126:u8glib_arm_v1.18.1\src/u8g_ellipse.c ****     }
 127:u8glib_arm_v1.18.1\src/u8g_ellipse.c ****     
 128:u8glib_arm_v1.18.1\src/u8g_ellipse.c ****     /* lower right */
 129:u8glib_arm_v1.18.1\src/u8g_ellipse.c ****     if ( option & U8G_DRAW_LOWER_RIGHT )
  84              		.loc 1 129 0
  85 005e 3B7D     		ldrb	r3, [r7, #20]	@ zero_extendqisi2
  86 0060 03F00803 		and	r3, r3, #8
  87 0064 002B     		cmp	r3, #0
  88 0066 0BD0     		beq	.L4
 130:u8glib_arm_v1.18.1\src/u8g_ellipse.c ****     {
 131:u8glib_arm_v1.18.1\src/u8g_ellipse.c ****       u8g_DrawPixel(u8g, x0 + x, y0 + y);
  89              		.loc 1 131 0
  90 0068 7A78     		ldrb	r2, [r7, #1]
  91 006a FB78     		ldrb	r3, [r7, #3]
  92 006c 1344     		add	r3, r3, r2
  93 006e D9B2     		uxtb	r1, r3
  94 0070 3A7C     		ldrb	r2, [r7, #16]
  95 0072 BB78     		ldrb	r3, [r7, #2]
  96 0074 1344     		add	r3, r3, r2
  97 0076 DBB2     		uxtb	r3, r3
ARM GAS  C:\Users\KJA\AppData\Local\Temp\cc6Wl3zN.s 			page 5


  98 0078 7868     		ldr	r0, [r7, #4]
  99 007a 1A46     		mov	r2, r3
 100 007c FFF7FEFF 		bl	u8g_DrawPixel
 101              	.L4:
 132:u8glib_arm_v1.18.1\src/u8g_ellipse.c ****     }
 133:u8glib_arm_v1.18.1\src/u8g_ellipse.c ****     
 134:u8glib_arm_v1.18.1\src/u8g_ellipse.c ****     /* lower left */
 135:u8glib_arm_v1.18.1\src/u8g_ellipse.c ****     if ( option & U8G_DRAW_LOWER_LEFT )
 102              		.loc 1 135 0
 103 0080 3B7D     		ldrb	r3, [r7, #20]	@ zero_extendqisi2
 104 0082 03F00403 		and	r3, r3, #4
 105 0086 002B     		cmp	r3, #0
 106 0088 0BD0     		beq	.L1
 136:u8glib_arm_v1.18.1\src/u8g_ellipse.c ****     {
 137:u8glib_arm_v1.18.1\src/u8g_ellipse.c ****       u8g_DrawPixel(u8g, x0 - x, y0 + y);
 107              		.loc 1 137 0
 108 008a 7A78     		ldrb	r2, [r7, #1]
 109 008c FB78     		ldrb	r3, [r7, #3]
 110 008e D31A     		subs	r3, r2, r3
 111 0090 D9B2     		uxtb	r1, r3
 112 0092 3A7C     		ldrb	r2, [r7, #16]
 113 0094 BB78     		ldrb	r3, [r7, #2]
 114 0096 1344     		add	r3, r3, r2
 115 0098 DBB2     		uxtb	r3, r3
 116 009a 7868     		ldr	r0, [r7, #4]
 117 009c 1A46     		mov	r2, r3
 118 009e FFF7FEFF 		bl	u8g_DrawPixel
 119              	.L1:
 138:u8glib_arm_v1.18.1\src/u8g_ellipse.c ****     }
 139:u8glib_arm_v1.18.1\src/u8g_ellipse.c **** }
 120              		.loc 1 139 0
 121 00a2 0837     		adds	r7, r7, #8
 122              		.cfi_def_cfa_offset 8
 123 00a4 BD46     		mov	sp, r7
 124              		.cfi_def_cfa_register 13
 125              		@ sp needed
 126 00a6 80BD     		pop	{r7, pc}
 127              		.cfi_endproc
 128              	.LFE0:
 129              		.size	u8g_draw_ellipse_section, .-u8g_draw_ellipse_section
 130              		.section	.text.u8g_draw_ellipse,"ax",%progbits
 131              		.align	2
 132              		.global	u8g_draw_ellipse
 133              		.thumb
 134              		.thumb_func
 135              		.type	u8g_draw_ellipse, %function
 136              	u8g_draw_ellipse:
 137              	.LFB1:
 140:u8glib_arm_v1.18.1\src/u8g_ellipse.c **** 
 141:u8glib_arm_v1.18.1\src/u8g_ellipse.c **** void u8g_draw_ellipse(u8g_t *u8g, u8g_uint_t x0, u8g_uint_t y0, u8g_uint_t rx, u8g_uint_t ry, uint8
 142:u8glib_arm_v1.18.1\src/u8g_ellipse.c **** {
 138              		.loc 1 142 0
 139              		.cfi_startproc
 140              		@ args = 8, pretend = 0, frame = 24
 141              		@ frame_needed = 1, uses_anonymous_args = 0
 142 0000 90B5     		push	{r4, r7, lr}
 143              		.cfi_def_cfa_offset 12
ARM GAS  C:\Users\KJA\AppData\Local\Temp\cc6Wl3zN.s 			page 6


 144              		.cfi_offset 4, -12
 145              		.cfi_offset 7, -8
 146              		.cfi_offset 14, -4
 147 0002 89B0     		sub	sp, sp, #36
 148              		.cfi_def_cfa_offset 48
 149 0004 02AF     		add	r7, sp, #8
 150              		.cfi_def_cfa 7, 40
 151 0006 7860     		str	r0, [r7, #4]
 152 0008 0846     		mov	r0, r1
 153 000a 1146     		mov	r1, r2
 154 000c 1A46     		mov	r2, r3
 155 000e 0346     		mov	r3, r0
 156 0010 FB70     		strb	r3, [r7, #3]
 157 0012 0B46     		mov	r3, r1
 158 0014 BB70     		strb	r3, [r7, #2]
 159 0016 1346     		mov	r3, r2
 160 0018 7B70     		strb	r3, [r7, #1]
 143:u8glib_arm_v1.18.1\src/u8g_ellipse.c ****   u8g_uint_t x, y;
 144:u8glib_arm_v1.18.1\src/u8g_ellipse.c ****   u8g_long_t xchg, ychg;
 145:u8glib_arm_v1.18.1\src/u8g_ellipse.c ****   u8g_long_t err;
 146:u8glib_arm_v1.18.1\src/u8g_ellipse.c ****   u8g_long_t rxrx2;
 147:u8glib_arm_v1.18.1\src/u8g_ellipse.c ****   u8g_long_t ryry2;
 148:u8glib_arm_v1.18.1\src/u8g_ellipse.c ****   u8g_long_t stopx, stopy;
 149:u8glib_arm_v1.18.1\src/u8g_ellipse.c ****   
 150:u8glib_arm_v1.18.1\src/u8g_ellipse.c ****   rxrx2 = rx;
 161              		.loc 1 150 0
 162 001a 7B78     		ldrb	r3, [r7, #1]	@ zero_extendqisi2
 163 001c 7B81     		strh	r3, [r7, #10]	@ movhi
 151:u8glib_arm_v1.18.1\src/u8g_ellipse.c ****   rxrx2 *= rx;
 164              		.loc 1 151 0
 165 001e 7B78     		ldrb	r3, [r7, #1]	@ zero_extendqisi2
 166 0020 9BB2     		uxth	r3, r3
 167 0022 7A89     		ldrh	r2, [r7, #10]
 168 0024 02FB03F3 		mul	r3, r2, r3
 169 0028 9BB2     		uxth	r3, r3
 170 002a 7B81     		strh	r3, [r7, #10]	@ movhi
 152:u8glib_arm_v1.18.1\src/u8g_ellipse.c ****   rxrx2 *= 2;
 171              		.loc 1 152 0
 172 002c 7B89     		ldrh	r3, [r7, #10]
 173 002e 5B00     		lsls	r3, r3, #1
 174 0030 9BB2     		uxth	r3, r3
 175 0032 7B81     		strh	r3, [r7, #10]	@ movhi
 153:u8glib_arm_v1.18.1\src/u8g_ellipse.c ****   
 154:u8glib_arm_v1.18.1\src/u8g_ellipse.c ****   ryry2 = ry;
 176              		.loc 1 154 0
 177 0034 97F82830 		ldrb	r3, [r7, #40]	@ zero_extendqisi2
 178 0038 3B81     		strh	r3, [r7, #8]	@ movhi
 155:u8glib_arm_v1.18.1\src/u8g_ellipse.c ****   ryry2 *= ry;
 179              		.loc 1 155 0
 180 003a 97F82830 		ldrb	r3, [r7, #40]	@ zero_extendqisi2
 181 003e 9BB2     		uxth	r3, r3
 182 0040 3A89     		ldrh	r2, [r7, #8]
 183 0042 02FB03F3 		mul	r3, r2, r3
 184 0046 9BB2     		uxth	r3, r3
 185 0048 3B81     		strh	r3, [r7, #8]	@ movhi
 156:u8glib_arm_v1.18.1\src/u8g_ellipse.c ****   ryry2 *= 2;
 186              		.loc 1 156 0
ARM GAS  C:\Users\KJA\AppData\Local\Temp\cc6Wl3zN.s 			page 7


 187 004a 3B89     		ldrh	r3, [r7, #8]
 188 004c 5B00     		lsls	r3, r3, #1
 189 004e 9BB2     		uxth	r3, r3
 190 0050 3B81     		strh	r3, [r7, #8]	@ movhi
 157:u8glib_arm_v1.18.1\src/u8g_ellipse.c ****   
 158:u8glib_arm_v1.18.1\src/u8g_ellipse.c ****   x = rx;
 191              		.loc 1 158 0
 192 0052 7B78     		ldrb	r3, [r7, #1]
 193 0054 FB75     		strb	r3, [r7, #23]
 159:u8glib_arm_v1.18.1\src/u8g_ellipse.c ****   y = 0;
 194              		.loc 1 159 0
 195 0056 0023     		movs	r3, #0
 196 0058 BB75     		strb	r3, [r7, #22]
 160:u8glib_arm_v1.18.1\src/u8g_ellipse.c ****   
 161:u8glib_arm_v1.18.1\src/u8g_ellipse.c ****   xchg = 1;
 197              		.loc 1 161 0
 198 005a 0123     		movs	r3, #1
 199 005c BB82     		strh	r3, [r7, #20]	@ movhi
 162:u8glib_arm_v1.18.1\src/u8g_ellipse.c ****   xchg -= rx;
 200              		.loc 1 162 0
 201 005e BA8A     		ldrh	r2, [r7, #20]
 202 0060 7B78     		ldrb	r3, [r7, #1]	@ zero_extendqisi2
 203 0062 9BB2     		uxth	r3, r3
 204 0064 D31A     		subs	r3, r2, r3
 205 0066 9BB2     		uxth	r3, r3
 206 0068 BB82     		strh	r3, [r7, #20]	@ movhi
 163:u8glib_arm_v1.18.1\src/u8g_ellipse.c ****   xchg -= rx;
 207              		.loc 1 163 0
 208 006a BA8A     		ldrh	r2, [r7, #20]
 209 006c 7B78     		ldrb	r3, [r7, #1]	@ zero_extendqisi2
 210 006e 9BB2     		uxth	r3, r3
 211 0070 D31A     		subs	r3, r2, r3
 212 0072 9BB2     		uxth	r3, r3
 213 0074 BB82     		strh	r3, [r7, #20]	@ movhi
 164:u8glib_arm_v1.18.1\src/u8g_ellipse.c ****   xchg *= ry;
 214              		.loc 1 164 0
 215 0076 97F82830 		ldrb	r3, [r7, #40]	@ zero_extendqisi2
 216 007a 9BB2     		uxth	r3, r3
 217 007c BA8A     		ldrh	r2, [r7, #20]
 218 007e 02FB03F3 		mul	r3, r2, r3
 219 0082 9BB2     		uxth	r3, r3
 220 0084 BB82     		strh	r3, [r7, #20]	@ movhi
 165:u8glib_arm_v1.18.1\src/u8g_ellipse.c ****   xchg *= ry;
 221              		.loc 1 165 0
 222 0086 97F82830 		ldrb	r3, [r7, #40]	@ zero_extendqisi2
 223 008a 9BB2     		uxth	r3, r3
 224 008c BA8A     		ldrh	r2, [r7, #20]
 225 008e 02FB03F3 		mul	r3, r2, r3
 226 0092 9BB2     		uxth	r3, r3
 227 0094 BB82     		strh	r3, [r7, #20]	@ movhi
 166:u8glib_arm_v1.18.1\src/u8g_ellipse.c ****   
 167:u8glib_arm_v1.18.1\src/u8g_ellipse.c ****   ychg = rx;
 228              		.loc 1 167 0
 229 0096 7B78     		ldrb	r3, [r7, #1]	@ zero_extendqisi2
 230 0098 7B82     		strh	r3, [r7, #18]	@ movhi
 168:u8glib_arm_v1.18.1\src/u8g_ellipse.c ****   ychg *= rx;
 231              		.loc 1 168 0
ARM GAS  C:\Users\KJA\AppData\Local\Temp\cc6Wl3zN.s 			page 8


 232 009a 7B78     		ldrb	r3, [r7, #1]	@ zero_extendqisi2
 233 009c 9BB2     		uxth	r3, r3
 234 009e 7A8A     		ldrh	r2, [r7, #18]
 235 00a0 02FB03F3 		mul	r3, r2, r3
 236 00a4 9BB2     		uxth	r3, r3
 237 00a6 7B82     		strh	r3, [r7, #18]	@ movhi
 169:u8glib_arm_v1.18.1\src/u8g_ellipse.c ****   
 170:u8glib_arm_v1.18.1\src/u8g_ellipse.c ****   err = 0;
 238              		.loc 1 170 0
 239 00a8 0023     		movs	r3, #0
 240 00aa 3B82     		strh	r3, [r7, #16]	@ movhi
 171:u8glib_arm_v1.18.1\src/u8g_ellipse.c ****   
 172:u8glib_arm_v1.18.1\src/u8g_ellipse.c ****   stopx = ryry2;
 241              		.loc 1 172 0
 242 00ac 3B89     		ldrh	r3, [r7, #8]	@ movhi
 243 00ae FB81     		strh	r3, [r7, #14]	@ movhi
 173:u8glib_arm_v1.18.1\src/u8g_ellipse.c ****   stopx *= rx;
 244              		.loc 1 173 0
 245 00b0 7B78     		ldrb	r3, [r7, #1]	@ zero_extendqisi2
 246 00b2 9BB2     		uxth	r3, r3
 247 00b4 FA89     		ldrh	r2, [r7, #14]
 248 00b6 02FB03F3 		mul	r3, r2, r3
 249 00ba 9BB2     		uxth	r3, r3
 250 00bc FB81     		strh	r3, [r7, #14]	@ movhi
 174:u8glib_arm_v1.18.1\src/u8g_ellipse.c ****   stopy = 0;
 251              		.loc 1 174 0
 252 00be 0023     		movs	r3, #0
 253 00c0 BB81     		strh	r3, [r7, #12]	@ movhi
 175:u8glib_arm_v1.18.1\src/u8g_ellipse.c ****   
 176:u8glib_arm_v1.18.1\src/u8g_ellipse.c ****   while( stopx >= stopy )
 254              		.loc 1 176 0
 255 00c2 37E0     		b	.L7
 256              	.L8:
 177:u8glib_arm_v1.18.1\src/u8g_ellipse.c ****   {
 178:u8glib_arm_v1.18.1\src/u8g_ellipse.c ****     u8g_draw_ellipse_section(u8g, x, y, x0, y0, option);
 257              		.loc 1 178 0
 258 00c4 F97D     		ldrb	r1, [r7, #23]	@ zero_extendqisi2
 259 00c6 BA7D     		ldrb	r2, [r7, #22]	@ zero_extendqisi2
 260 00c8 FC78     		ldrb	r4, [r7, #3]	@ zero_extendqisi2
 261 00ca BB78     		ldrb	r3, [r7, #2]	@ zero_extendqisi2
 262 00cc 0093     		str	r3, [sp]
 263 00ce 97F82C30 		ldrb	r3, [r7, #44]	@ zero_extendqisi2
 264 00d2 0193     		str	r3, [sp, #4]
 265 00d4 7868     		ldr	r0, [r7, #4]
 266 00d6 2346     		mov	r3, r4
 267 00d8 FFF7FEFF 		bl	u8g_draw_ellipse_section
 179:u8glib_arm_v1.18.1\src/u8g_ellipse.c ****     y++;
 268              		.loc 1 179 0
 269 00dc BB7D     		ldrb	r3, [r7, #22]	@ zero_extendqisi2
 270 00de 0133     		adds	r3, r3, #1
 271 00e0 BB75     		strb	r3, [r7, #22]
 180:u8glib_arm_v1.18.1\src/u8g_ellipse.c ****     stopy += rxrx2;
 272              		.loc 1 180 0
 273 00e2 BA89     		ldrh	r2, [r7, #12]
 274 00e4 7B89     		ldrh	r3, [r7, #10]
 275 00e6 1344     		add	r3, r3, r2
 276 00e8 9BB2     		uxth	r3, r3
ARM GAS  C:\Users\KJA\AppData\Local\Temp\cc6Wl3zN.s 			page 9


 277 00ea BB81     		strh	r3, [r7, #12]	@ movhi
 181:u8glib_arm_v1.18.1\src/u8g_ellipse.c ****     err += ychg;
 278              		.loc 1 181 0
 279 00ec 3A8A     		ldrh	r2, [r7, #16]
 280 00ee 7B8A     		ldrh	r3, [r7, #18]
 281 00f0 1344     		add	r3, r3, r2
 282 00f2 9BB2     		uxth	r3, r3
 283 00f4 3B82     		strh	r3, [r7, #16]	@ movhi
 182:u8glib_arm_v1.18.1\src/u8g_ellipse.c ****     ychg += rxrx2;
 284              		.loc 1 182 0
 285 00f6 7A8A     		ldrh	r2, [r7, #18]
 286 00f8 7B89     		ldrh	r3, [r7, #10]
 287 00fa 1344     		add	r3, r3, r2
 288 00fc 9BB2     		uxth	r3, r3
 289 00fe 7B82     		strh	r3, [r7, #18]	@ movhi
 183:u8glib_arm_v1.18.1\src/u8g_ellipse.c ****     if ( 2*err+xchg > 0 )
 290              		.loc 1 183 0
 291 0100 B7F91030 		ldrsh	r3, [r7, #16]
 292 0104 5A00     		lsls	r2, r3, #1
 293 0106 B7F91430 		ldrsh	r3, [r7, #20]
 294 010a 1344     		add	r3, r3, r2
 295 010c 002B     		cmp	r3, #0
 296 010e 11DD     		ble	.L7
 184:u8glib_arm_v1.18.1\src/u8g_ellipse.c ****     {
 185:u8glib_arm_v1.18.1\src/u8g_ellipse.c ****       x--;
 297              		.loc 1 185 0
 298 0110 FB7D     		ldrb	r3, [r7, #23]	@ zero_extendqisi2
 299 0112 013B     		subs	r3, r3, #1
 300 0114 FB75     		strb	r3, [r7, #23]
 186:u8glib_arm_v1.18.1\src/u8g_ellipse.c ****       stopx -= ryry2;
 301              		.loc 1 186 0
 302 0116 FA89     		ldrh	r2, [r7, #14]
 303 0118 3B89     		ldrh	r3, [r7, #8]
 304 011a D31A     		subs	r3, r2, r3
 305 011c 9BB2     		uxth	r3, r3
 306 011e FB81     		strh	r3, [r7, #14]	@ movhi
 187:u8glib_arm_v1.18.1\src/u8g_ellipse.c ****       err += xchg;
 307              		.loc 1 187 0
 308 0120 3A8A     		ldrh	r2, [r7, #16]
 309 0122 BB8A     		ldrh	r3, [r7, #20]
 310 0124 1344     		add	r3, r3, r2
 311 0126 9BB2     		uxth	r3, r3
 312 0128 3B82     		strh	r3, [r7, #16]	@ movhi
 188:u8glib_arm_v1.18.1\src/u8g_ellipse.c ****       xchg += ryry2;      
 313              		.loc 1 188 0
 314 012a BA8A     		ldrh	r2, [r7, #20]
 315 012c 3B89     		ldrh	r3, [r7, #8]
 316 012e 1344     		add	r3, r3, r2
 317 0130 9BB2     		uxth	r3, r3
 318 0132 BB82     		strh	r3, [r7, #20]	@ movhi
 319              	.L7:
 176:u8glib_arm_v1.18.1\src/u8g_ellipse.c ****   {
 320              		.loc 1 176 0
 321 0134 B7F90E20 		ldrsh	r2, [r7, #14]
 322 0138 B7F90C30 		ldrsh	r3, [r7, #12]
 323 013c 9A42     		cmp	r2, r3
 324 013e C1DA     		bge	.L8
ARM GAS  C:\Users\KJA\AppData\Local\Temp\cc6Wl3zN.s 			page 10


 189:u8glib_arm_v1.18.1\src/u8g_ellipse.c ****     }
 190:u8glib_arm_v1.18.1\src/u8g_ellipse.c ****   }
 191:u8glib_arm_v1.18.1\src/u8g_ellipse.c **** 
 192:u8glib_arm_v1.18.1\src/u8g_ellipse.c ****   x = 0;
 325              		.loc 1 192 0
 326 0140 0023     		movs	r3, #0
 327 0142 FB75     		strb	r3, [r7, #23]
 193:u8glib_arm_v1.18.1\src/u8g_ellipse.c ****   y = ry;
 328              		.loc 1 193 0
 329 0144 97F82830 		ldrb	r3, [r7, #40]
 330 0148 BB75     		strb	r3, [r7, #22]
 194:u8glib_arm_v1.18.1\src/u8g_ellipse.c ****   
 195:u8glib_arm_v1.18.1\src/u8g_ellipse.c ****   xchg = ry;
 331              		.loc 1 195 0
 332 014a 97F82830 		ldrb	r3, [r7, #40]	@ zero_extendqisi2
 333 014e BB82     		strh	r3, [r7, #20]	@ movhi
 196:u8glib_arm_v1.18.1\src/u8g_ellipse.c ****   xchg *= ry;
 334              		.loc 1 196 0
 335 0150 97F82830 		ldrb	r3, [r7, #40]	@ zero_extendqisi2
 336 0154 9BB2     		uxth	r3, r3
 337 0156 BA8A     		ldrh	r2, [r7, #20]
 338 0158 02FB03F3 		mul	r3, r2, r3
 339 015c 9BB2     		uxth	r3, r3
 340 015e BB82     		strh	r3, [r7, #20]	@ movhi
 197:u8glib_arm_v1.18.1\src/u8g_ellipse.c ****   
 198:u8glib_arm_v1.18.1\src/u8g_ellipse.c ****   ychg = 1;
 341              		.loc 1 198 0
 342 0160 0123     		movs	r3, #1
 343 0162 7B82     		strh	r3, [r7, #18]	@ movhi
 199:u8glib_arm_v1.18.1\src/u8g_ellipse.c ****   ychg -= ry;
 344              		.loc 1 199 0
 345 0164 7A8A     		ldrh	r2, [r7, #18]
 346 0166 97F82830 		ldrb	r3, [r7, #40]	@ zero_extendqisi2
 347 016a 9BB2     		uxth	r3, r3
 348 016c D31A     		subs	r3, r2, r3
 349 016e 9BB2     		uxth	r3, r3
 350 0170 7B82     		strh	r3, [r7, #18]	@ movhi
 200:u8glib_arm_v1.18.1\src/u8g_ellipse.c ****   ychg -= ry;
 351              		.loc 1 200 0
 352 0172 7A8A     		ldrh	r2, [r7, #18]
 353 0174 97F82830 		ldrb	r3, [r7, #40]	@ zero_extendqisi2
 354 0178 9BB2     		uxth	r3, r3
 355 017a D31A     		subs	r3, r2, r3
 356 017c 9BB2     		uxth	r3, r3
 357 017e 7B82     		strh	r3, [r7, #18]	@ movhi
 201:u8glib_arm_v1.18.1\src/u8g_ellipse.c ****   ychg *= rx;
 358              		.loc 1 201 0
 359 0180 7B78     		ldrb	r3, [r7, #1]	@ zero_extendqisi2
 360 0182 9BB2     		uxth	r3, r3
 361 0184 7A8A     		ldrh	r2, [r7, #18]
 362 0186 02FB03F3 		mul	r3, r2, r3
 363 018a 9BB2     		uxth	r3, r3
 364 018c 7B82     		strh	r3, [r7, #18]	@ movhi
 202:u8glib_arm_v1.18.1\src/u8g_ellipse.c ****   ychg *= rx;
 365              		.loc 1 202 0
 366 018e 7B78     		ldrb	r3, [r7, #1]	@ zero_extendqisi2
 367 0190 9BB2     		uxth	r3, r3
ARM GAS  C:\Users\KJA\AppData\Local\Temp\cc6Wl3zN.s 			page 11


 368 0192 7A8A     		ldrh	r2, [r7, #18]
 369 0194 02FB03F3 		mul	r3, r2, r3
 370 0198 9BB2     		uxth	r3, r3
 371 019a 7B82     		strh	r3, [r7, #18]	@ movhi
 203:u8glib_arm_v1.18.1\src/u8g_ellipse.c ****   
 204:u8glib_arm_v1.18.1\src/u8g_ellipse.c ****   err = 0;
 372              		.loc 1 204 0
 373 019c 0023     		movs	r3, #0
 374 019e 3B82     		strh	r3, [r7, #16]	@ movhi
 205:u8glib_arm_v1.18.1\src/u8g_ellipse.c ****   
 206:u8glib_arm_v1.18.1\src/u8g_ellipse.c ****   stopx = 0;
 375              		.loc 1 206 0
 376 01a0 0023     		movs	r3, #0
 377 01a2 FB81     		strh	r3, [r7, #14]	@ movhi
 207:u8glib_arm_v1.18.1\src/u8g_ellipse.c **** 
 208:u8glib_arm_v1.18.1\src/u8g_ellipse.c ****   stopy = rxrx2;
 378              		.loc 1 208 0
 379 01a4 7B89     		ldrh	r3, [r7, #10]	@ movhi
 380 01a6 BB81     		strh	r3, [r7, #12]	@ movhi
 209:u8glib_arm_v1.18.1\src/u8g_ellipse.c ****   stopy *= ry;
 381              		.loc 1 209 0
 382 01a8 97F82830 		ldrb	r3, [r7, #40]	@ zero_extendqisi2
 383 01ac 9BB2     		uxth	r3, r3
 384 01ae BA89     		ldrh	r2, [r7, #12]
 385 01b0 02FB03F3 		mul	r3, r2, r3
 386 01b4 9BB2     		uxth	r3, r3
 387 01b6 BB81     		strh	r3, [r7, #12]	@ movhi
 210:u8glib_arm_v1.18.1\src/u8g_ellipse.c ****   
 211:u8glib_arm_v1.18.1\src/u8g_ellipse.c **** 
 212:u8glib_arm_v1.18.1\src/u8g_ellipse.c ****   while( stopx <= stopy )
 388              		.loc 1 212 0
 389 01b8 37E0     		b	.L9
 390              	.L10:
 213:u8glib_arm_v1.18.1\src/u8g_ellipse.c ****   {
 214:u8glib_arm_v1.18.1\src/u8g_ellipse.c ****     u8g_draw_ellipse_section(u8g, x, y, x0, y0, option);
 391              		.loc 1 214 0
 392 01ba F97D     		ldrb	r1, [r7, #23]	@ zero_extendqisi2
 393 01bc BA7D     		ldrb	r2, [r7, #22]	@ zero_extendqisi2
 394 01be FC78     		ldrb	r4, [r7, #3]	@ zero_extendqisi2
 395 01c0 BB78     		ldrb	r3, [r7, #2]	@ zero_extendqisi2
 396 01c2 0093     		str	r3, [sp]
 397 01c4 97F82C30 		ldrb	r3, [r7, #44]	@ zero_extendqisi2
 398 01c8 0193     		str	r3, [sp, #4]
 399 01ca 7868     		ldr	r0, [r7, #4]
 400 01cc 2346     		mov	r3, r4
 401 01ce FFF7FEFF 		bl	u8g_draw_ellipse_section
 215:u8glib_arm_v1.18.1\src/u8g_ellipse.c ****     x++;
 402              		.loc 1 215 0
 403 01d2 FB7D     		ldrb	r3, [r7, #23]	@ zero_extendqisi2
 404 01d4 0133     		adds	r3, r3, #1
 405 01d6 FB75     		strb	r3, [r7, #23]
 216:u8glib_arm_v1.18.1\src/u8g_ellipse.c ****     stopx += ryry2;
 406              		.loc 1 216 0
 407 01d8 FA89     		ldrh	r2, [r7, #14]
 408 01da 3B89     		ldrh	r3, [r7, #8]
 409 01dc 1344     		add	r3, r3, r2
 410 01de 9BB2     		uxth	r3, r3
ARM GAS  C:\Users\KJA\AppData\Local\Temp\cc6Wl3zN.s 			page 12


 411 01e0 FB81     		strh	r3, [r7, #14]	@ movhi
 217:u8glib_arm_v1.18.1\src/u8g_ellipse.c ****     err += xchg;
 412              		.loc 1 217 0
 413 01e2 3A8A     		ldrh	r2, [r7, #16]
 414 01e4 BB8A     		ldrh	r3, [r7, #20]
 415 01e6 1344     		add	r3, r3, r2
 416 01e8 9BB2     		uxth	r3, r3
 417 01ea 3B82     		strh	r3, [r7, #16]	@ movhi
 218:u8glib_arm_v1.18.1\src/u8g_ellipse.c ****     xchg += ryry2;
 418              		.loc 1 218 0
 419 01ec BA8A     		ldrh	r2, [r7, #20]
 420 01ee 3B89     		ldrh	r3, [r7, #8]
 421 01f0 1344     		add	r3, r3, r2
 422 01f2 9BB2     		uxth	r3, r3
 423 01f4 BB82     		strh	r3, [r7, #20]	@ movhi
 219:u8glib_arm_v1.18.1\src/u8g_ellipse.c ****     if ( 2*err+ychg > 0 )
 424              		.loc 1 219 0
 425 01f6 B7F91030 		ldrsh	r3, [r7, #16]
 426 01fa 5A00     		lsls	r2, r3, #1
 427 01fc B7F91230 		ldrsh	r3, [r7, #18]
 428 0200 1344     		add	r3, r3, r2
 429 0202 002B     		cmp	r3, #0
 430 0204 11DD     		ble	.L9
 220:u8glib_arm_v1.18.1\src/u8g_ellipse.c ****     {
 221:u8glib_arm_v1.18.1\src/u8g_ellipse.c ****       y--;
 431              		.loc 1 221 0
 432 0206 BB7D     		ldrb	r3, [r7, #22]	@ zero_extendqisi2
 433 0208 013B     		subs	r3, r3, #1
 434 020a BB75     		strb	r3, [r7, #22]
 222:u8glib_arm_v1.18.1\src/u8g_ellipse.c ****       stopy -= rxrx2;
 435              		.loc 1 222 0
 436 020c BA89     		ldrh	r2, [r7, #12]
 437 020e 7B89     		ldrh	r3, [r7, #10]
 438 0210 D31A     		subs	r3, r2, r3
 439 0212 9BB2     		uxth	r3, r3
 440 0214 BB81     		strh	r3, [r7, #12]	@ movhi
 223:u8glib_arm_v1.18.1\src/u8g_ellipse.c ****       err += ychg;
 441              		.loc 1 223 0
 442 0216 3A8A     		ldrh	r2, [r7, #16]
 443 0218 7B8A     		ldrh	r3, [r7, #18]
 444 021a 1344     		add	r3, r3, r2
 445 021c 9BB2     		uxth	r3, r3
 446 021e 3B82     		strh	r3, [r7, #16]	@ movhi
 224:u8glib_arm_v1.18.1\src/u8g_ellipse.c ****       ychg += rxrx2;
 447              		.loc 1 224 0
 448 0220 7A8A     		ldrh	r2, [r7, #18]
 449 0222 7B89     		ldrh	r3, [r7, #10]
 450 0224 1344     		add	r3, r3, r2
 451 0226 9BB2     		uxth	r3, r3
 452 0228 7B82     		strh	r3, [r7, #18]	@ movhi
 453              	.L9:
 212:u8glib_arm_v1.18.1\src/u8g_ellipse.c ****   {
 454              		.loc 1 212 0
 455 022a B7F90E20 		ldrsh	r2, [r7, #14]
 456 022e B7F90C30 		ldrsh	r3, [r7, #12]
 457 0232 9A42     		cmp	r2, r3
 458 0234 C1DD     		ble	.L10
ARM GAS  C:\Users\KJA\AppData\Local\Temp\cc6Wl3zN.s 			page 13


 225:u8glib_arm_v1.18.1\src/u8g_ellipse.c ****     }
 226:u8glib_arm_v1.18.1\src/u8g_ellipse.c ****   }
 227:u8glib_arm_v1.18.1\src/u8g_ellipse.c ****   
 228:u8glib_arm_v1.18.1\src/u8g_ellipse.c **** }
 459              		.loc 1 228 0
 460 0236 1C37     		adds	r7, r7, #28
 461              		.cfi_def_cfa_offset 12
 462 0238 BD46     		mov	sp, r7
 463              		.cfi_def_cfa_register 13
 464              		@ sp needed
 465 023a 90BD     		pop	{r4, r7, pc}
 466              		.cfi_endproc
 467              	.LFE1:
 468              		.size	u8g_draw_ellipse, .-u8g_draw_ellipse
 469              		.section	.text.u8g_DrawEllipse,"ax",%progbits
 470              		.align	2
 471              		.global	u8g_DrawEllipse
 472              		.thumb
 473              		.thumb_func
 474              		.type	u8g_DrawEllipse, %function
 475              	u8g_DrawEllipse:
 476              	.LFB2:
 229:u8glib_arm_v1.18.1\src/u8g_ellipse.c **** 
 230:u8glib_arm_v1.18.1\src/u8g_ellipse.c **** void u8g_DrawEllipse(u8g_t *u8g, u8g_uint_t x0, u8g_uint_t y0, u8g_uint_t rx, u8g_uint_t ry, uint8_
 231:u8glib_arm_v1.18.1\src/u8g_ellipse.c **** {
 477              		.loc 1 231 0
 478              		.cfi_startproc
 479              		@ args = 8, pretend = 0, frame = 16
 480              		@ frame_needed = 1, uses_anonymous_args = 0
 481 0000 90B5     		push	{r4, r7, lr}
 482              		.cfi_def_cfa_offset 12
 483              		.cfi_offset 4, -12
 484              		.cfi_offset 7, -8
 485              		.cfi_offset 14, -4
 486 0002 87B0     		sub	sp, sp, #28
 487              		.cfi_def_cfa_offset 40
 488 0004 02AF     		add	r7, sp, #8
 489              		.cfi_def_cfa 7, 32
 490 0006 7860     		str	r0, [r7, #4]
 491 0008 0846     		mov	r0, r1
 492 000a 1146     		mov	r1, r2
 493 000c 1A46     		mov	r2, r3
 494 000e 0346     		mov	r3, r0
 495 0010 FB70     		strb	r3, [r7, #3]
 496 0012 0B46     		mov	r3, r1
 497 0014 BB70     		strb	r3, [r7, #2]
 498 0016 1346     		mov	r3, r2
 499 0018 7B70     		strb	r3, [r7, #1]
 500              	.LBB2:
 232:u8glib_arm_v1.18.1\src/u8g_ellipse.c ****   /* check for bounding box */
 233:u8glib_arm_v1.18.1\src/u8g_ellipse.c ****   {
 234:u8glib_arm_v1.18.1\src/u8g_ellipse.c ****     u8g_uint_t rxp, rxp2;
 235:u8glib_arm_v1.18.1\src/u8g_ellipse.c ****     u8g_uint_t ryp, ryp2;
 236:u8glib_arm_v1.18.1\src/u8g_ellipse.c ****     
 237:u8glib_arm_v1.18.1\src/u8g_ellipse.c ****     rxp = rx;
 501              		.loc 1 237 0
 502 001a 7B78     		ldrb	r3, [r7, #1]
ARM GAS  C:\Users\KJA\AppData\Local\Temp\cc6Wl3zN.s 			page 14


 503 001c FB73     		strb	r3, [r7, #15]
 238:u8glib_arm_v1.18.1\src/u8g_ellipse.c ****     rxp++;
 504              		.loc 1 238 0
 505 001e FB7B     		ldrb	r3, [r7, #15]	@ zero_extendqisi2
 506 0020 0133     		adds	r3, r3, #1
 507 0022 FB73     		strb	r3, [r7, #15]
 239:u8glib_arm_v1.18.1\src/u8g_ellipse.c ****     rxp2 = rxp;
 508              		.loc 1 239 0
 509 0024 FB7B     		ldrb	r3, [r7, #15]
 510 0026 BB73     		strb	r3, [r7, #14]
 240:u8glib_arm_v1.18.1\src/u8g_ellipse.c ****     rxp2 *= 2;
 511              		.loc 1 240 0
 512 0028 BB7B     		ldrb	r3, [r7, #14]
 513 002a 5B00     		lsls	r3, r3, #1
 514 002c BB73     		strb	r3, [r7, #14]
 241:u8glib_arm_v1.18.1\src/u8g_ellipse.c **** 
 242:u8glib_arm_v1.18.1\src/u8g_ellipse.c ****     ryp = ry;
 515              		.loc 1 242 0
 516 002e 97F82030 		ldrb	r3, [r7, #32]
 517 0032 7B73     		strb	r3, [r7, #13]
 243:u8glib_arm_v1.18.1\src/u8g_ellipse.c ****     ryp++;
 518              		.loc 1 243 0
 519 0034 7B7B     		ldrb	r3, [r7, #13]	@ zero_extendqisi2
 520 0036 0133     		adds	r3, r3, #1
 521 0038 7B73     		strb	r3, [r7, #13]
 244:u8glib_arm_v1.18.1\src/u8g_ellipse.c ****     ryp2 = ryp;
 522              		.loc 1 244 0
 523 003a 7B7B     		ldrb	r3, [r7, #13]
 524 003c 3B73     		strb	r3, [r7, #12]
 245:u8glib_arm_v1.18.1\src/u8g_ellipse.c ****     ryp2 *= 2;
 525              		.loc 1 245 0
 526 003e 3B7B     		ldrb	r3, [r7, #12]
 527 0040 5B00     		lsls	r3, r3, #1
 528 0042 3B73     		strb	r3, [r7, #12]
 246:u8glib_arm_v1.18.1\src/u8g_ellipse.c ****     
 247:u8glib_arm_v1.18.1\src/u8g_ellipse.c ****     if ( u8g_IsBBXIntersection(u8g, x0-rxp, y0-ryp, rxp2, ryp2) == 0)
 529              		.loc 1 247 0
 530 0044 FA78     		ldrb	r2, [r7, #3]
 531 0046 FB7B     		ldrb	r3, [r7, #15]
 532 0048 D31A     		subs	r3, r2, r3
 533 004a D9B2     		uxtb	r1, r3
 534 004c BA78     		ldrb	r2, [r7, #2]
 535 004e 7B7B     		ldrb	r3, [r7, #13]
 536 0050 D31A     		subs	r3, r2, r3
 537 0052 DAB2     		uxtb	r2, r3
 538 0054 BC7B     		ldrb	r4, [r7, #14]	@ zero_extendqisi2
 539 0056 3B7B     		ldrb	r3, [r7, #12]	@ zero_extendqisi2
 540 0058 0093     		str	r3, [sp]
 541 005a 7868     		ldr	r0, [r7, #4]
 542 005c 2346     		mov	r3, r4
 543 005e FFF7FEFF 		bl	u8g_IsBBXIntersection
 544 0062 0346     		mov	r3, r0
 545 0064 002B     		cmp	r3, #0
 546 0066 00D1     		bne	.L12
 248:u8glib_arm_v1.18.1\src/u8g_ellipse.c ****       return;    
 547              		.loc 1 248 0
 548 0068 0CE0     		b	.L11
ARM GAS  C:\Users\KJA\AppData\Local\Temp\cc6Wl3zN.s 			page 15


 549              	.L12:
 550              	.LBE2:
 249:u8glib_arm_v1.18.1\src/u8g_ellipse.c ****   }
 250:u8glib_arm_v1.18.1\src/u8g_ellipse.c ****   
 251:u8glib_arm_v1.18.1\src/u8g_ellipse.c ****   u8g_draw_ellipse(u8g, x0, y0, rx, ry, option);
 551              		.loc 1 251 0
 552 006a F978     		ldrb	r1, [r7, #3]	@ zero_extendqisi2
 553 006c BA78     		ldrb	r2, [r7, #2]	@ zero_extendqisi2
 554 006e 7C78     		ldrb	r4, [r7, #1]	@ zero_extendqisi2
 555 0070 97F82030 		ldrb	r3, [r7, #32]	@ zero_extendqisi2
 556 0074 0093     		str	r3, [sp]
 557 0076 97F82430 		ldrb	r3, [r7, #36]	@ zero_extendqisi2
 558 007a 0193     		str	r3, [sp, #4]
 559 007c 7868     		ldr	r0, [r7, #4]
 560 007e 2346     		mov	r3, r4
 561 0080 FFF7FEFF 		bl	u8g_draw_ellipse
 562              	.L11:
 252:u8glib_arm_v1.18.1\src/u8g_ellipse.c **** }
 563              		.loc 1 252 0
 564 0084 1437     		adds	r7, r7, #20
 565              		.cfi_def_cfa_offset 12
 566 0086 BD46     		mov	sp, r7
 567              		.cfi_def_cfa_register 13
 568              		@ sp needed
 569 0088 90BD     		pop	{r4, r7, pc}
 570              		.cfi_endproc
 571              	.LFE2:
 572              		.size	u8g_DrawEllipse, .-u8g_DrawEllipse
 573 008a 00BF     		.section	.text.u8g_draw_filled_ellipse_section,"ax",%progbits
 574              		.align	2
 575              		.thumb
 576              		.thumb_func
 577              		.type	u8g_draw_filled_ellipse_section, %function
 578              	u8g_draw_filled_ellipse_section:
 579              	.LFB3:
 253:u8glib_arm_v1.18.1\src/u8g_ellipse.c **** 
 254:u8glib_arm_v1.18.1\src/u8g_ellipse.c **** static void u8g_draw_filled_ellipse_section(u8g_t *u8g, u8g_uint_t x, u8g_uint_t y, u8g_uint_t x0, 
 255:u8glib_arm_v1.18.1\src/u8g_ellipse.c **** static void u8g_draw_filled_ellipse_section(u8g_t *u8g, u8g_uint_t x, u8g_uint_t y, u8g_uint_t x0, 
 256:u8glib_arm_v1.18.1\src/u8g_ellipse.c **** {
 580              		.loc 1 256 0
 581              		.cfi_startproc
 582              		@ args = 8, pretend = 0, frame = 8
 583              		@ frame_needed = 1, uses_anonymous_args = 0
 584 0000 80B5     		push	{r7, lr}
 585              		.cfi_def_cfa_offset 8
 586              		.cfi_offset 7, -8
 587              		.cfi_offset 14, -4
 588 0002 82B0     		sub	sp, sp, #8
 589              		.cfi_def_cfa_offset 16
 590 0004 00AF     		add	r7, sp, #0
 591              		.cfi_def_cfa_register 7
 592 0006 7860     		str	r0, [r7, #4]
 593 0008 0846     		mov	r0, r1
 594 000a 1146     		mov	r1, r2
 595 000c 1A46     		mov	r2, r3
 596 000e 0346     		mov	r3, r0
 597 0010 FB70     		strb	r3, [r7, #3]
ARM GAS  C:\Users\KJA\AppData\Local\Temp\cc6Wl3zN.s 			page 16


 598 0012 0B46     		mov	r3, r1
 599 0014 BB70     		strb	r3, [r7, #2]
 600 0016 1346     		mov	r3, r2
 601 0018 7B70     		strb	r3, [r7, #1]
 257:u8glib_arm_v1.18.1\src/u8g_ellipse.c ****     /* upper right */
 258:u8glib_arm_v1.18.1\src/u8g_ellipse.c ****     if ( option & U8G_DRAW_UPPER_RIGHT )
 602              		.loc 1 258 0
 603 001a 3B7D     		ldrb	r3, [r7, #20]	@ zero_extendqisi2
 604 001c 03F00103 		and	r3, r3, #1
 605 0020 002B     		cmp	r3, #0
 606 0022 0DD0     		beq	.L15
 259:u8glib_arm_v1.18.1\src/u8g_ellipse.c ****     {
 260:u8glib_arm_v1.18.1\src/u8g_ellipse.c ****       u8g_DrawVLine(u8g, x0+x, y0-y, y+1);
 607              		.loc 1 260 0
 608 0024 7A78     		ldrb	r2, [r7, #1]
 609 0026 FB78     		ldrb	r3, [r7, #3]
 610 0028 1344     		add	r3, r3, r2
 611 002a D9B2     		uxtb	r1, r3
 612 002c 3A7C     		ldrb	r2, [r7, #16]
 613 002e BB78     		ldrb	r3, [r7, #2]
 614 0030 D31A     		subs	r3, r2, r3
 615 0032 DAB2     		uxtb	r2, r3
 616 0034 BB78     		ldrb	r3, [r7, #2]
 617 0036 0133     		adds	r3, r3, #1
 618 0038 DBB2     		uxtb	r3, r3
 619 003a 7868     		ldr	r0, [r7, #4]
 620 003c FFF7FEFF 		bl	u8g_DrawVLine
 621              	.L15:
 261:u8glib_arm_v1.18.1\src/u8g_ellipse.c ****     }
 262:u8glib_arm_v1.18.1\src/u8g_ellipse.c ****     
 263:u8glib_arm_v1.18.1\src/u8g_ellipse.c ****     /* upper left */
 264:u8glib_arm_v1.18.1\src/u8g_ellipse.c ****     if ( option & U8G_DRAW_UPPER_LEFT )
 622              		.loc 1 264 0
 623 0040 3B7D     		ldrb	r3, [r7, #20]	@ zero_extendqisi2
 624 0042 03F00203 		and	r3, r3, #2
 625 0046 002B     		cmp	r3, #0
 626 0048 0DD0     		beq	.L16
 265:u8glib_arm_v1.18.1\src/u8g_ellipse.c ****     {
 266:u8glib_arm_v1.18.1\src/u8g_ellipse.c ****       u8g_DrawVLine(u8g, x0-x, y0-y, y+1);
 627              		.loc 1 266 0
 628 004a 7A78     		ldrb	r2, [r7, #1]
 629 004c FB78     		ldrb	r3, [r7, #3]
 630 004e D31A     		subs	r3, r2, r3
 631 0050 D9B2     		uxtb	r1, r3
 632 0052 3A7C     		ldrb	r2, [r7, #16]
 633 0054 BB78     		ldrb	r3, [r7, #2]
 634 0056 D31A     		subs	r3, r2, r3
 635 0058 DAB2     		uxtb	r2, r3
 636 005a BB78     		ldrb	r3, [r7, #2]
 637 005c 0133     		adds	r3, r3, #1
 638 005e DBB2     		uxtb	r3, r3
 639 0060 7868     		ldr	r0, [r7, #4]
 640 0062 FFF7FEFF 		bl	u8g_DrawVLine
 641              	.L16:
 267:u8glib_arm_v1.18.1\src/u8g_ellipse.c ****     }
 268:u8glib_arm_v1.18.1\src/u8g_ellipse.c ****     
 269:u8glib_arm_v1.18.1\src/u8g_ellipse.c ****     /* lower right */
ARM GAS  C:\Users\KJA\AppData\Local\Temp\cc6Wl3zN.s 			page 17


 270:u8glib_arm_v1.18.1\src/u8g_ellipse.c ****     if ( option & U8G_DRAW_LOWER_RIGHT )
 642              		.loc 1 270 0
 643 0066 3B7D     		ldrb	r3, [r7, #20]	@ zero_extendqisi2
 644 0068 03F00803 		and	r3, r3, #8
 645 006c 002B     		cmp	r3, #0
 646 006e 0AD0     		beq	.L17
 271:u8glib_arm_v1.18.1\src/u8g_ellipse.c ****     {
 272:u8glib_arm_v1.18.1\src/u8g_ellipse.c ****       u8g_DrawVLine(u8g, x0+x, y0, y+1);
 647              		.loc 1 272 0
 648 0070 7A78     		ldrb	r2, [r7, #1]
 649 0072 FB78     		ldrb	r3, [r7, #3]
 650 0074 1344     		add	r3, r3, r2
 651 0076 D9B2     		uxtb	r1, r3
 652 0078 BB78     		ldrb	r3, [r7, #2]
 653 007a 0133     		adds	r3, r3, #1
 654 007c DBB2     		uxtb	r3, r3
 655 007e 3A7C     		ldrb	r2, [r7, #16]	@ zero_extendqisi2
 656 0080 7868     		ldr	r0, [r7, #4]
 657 0082 FFF7FEFF 		bl	u8g_DrawVLine
 658              	.L17:
 273:u8glib_arm_v1.18.1\src/u8g_ellipse.c ****     }
 274:u8glib_arm_v1.18.1\src/u8g_ellipse.c ****     
 275:u8glib_arm_v1.18.1\src/u8g_ellipse.c ****     /* lower left */
 276:u8glib_arm_v1.18.1\src/u8g_ellipse.c ****     if ( option & U8G_DRAW_LOWER_LEFT )
 659              		.loc 1 276 0
 660 0086 3B7D     		ldrb	r3, [r7, #20]	@ zero_extendqisi2
 661 0088 03F00403 		and	r3, r3, #4
 662 008c 002B     		cmp	r3, #0
 663 008e 0AD0     		beq	.L14
 277:u8glib_arm_v1.18.1\src/u8g_ellipse.c ****     {
 278:u8glib_arm_v1.18.1\src/u8g_ellipse.c ****       u8g_DrawVLine(u8g, x0-x, y0, y+1);
 664              		.loc 1 278 0
 665 0090 7A78     		ldrb	r2, [r7, #1]
 666 0092 FB78     		ldrb	r3, [r7, #3]
 667 0094 D31A     		subs	r3, r2, r3
 668 0096 D9B2     		uxtb	r1, r3
 669 0098 BB78     		ldrb	r3, [r7, #2]
 670 009a 0133     		adds	r3, r3, #1
 671 009c DBB2     		uxtb	r3, r3
 672 009e 3A7C     		ldrb	r2, [r7, #16]	@ zero_extendqisi2
 673 00a0 7868     		ldr	r0, [r7, #4]
 674 00a2 FFF7FEFF 		bl	u8g_DrawVLine
 675              	.L14:
 279:u8glib_arm_v1.18.1\src/u8g_ellipse.c ****     }
 280:u8glib_arm_v1.18.1\src/u8g_ellipse.c **** }
 676              		.loc 1 280 0
 677 00a6 0837     		adds	r7, r7, #8
 678              		.cfi_def_cfa_offset 8
 679 00a8 BD46     		mov	sp, r7
 680              		.cfi_def_cfa_register 13
 681              		@ sp needed
 682 00aa 80BD     		pop	{r7, pc}
 683              		.cfi_endproc
 684              	.LFE3:
 685              		.size	u8g_draw_filled_ellipse_section, .-u8g_draw_filled_ellipse_section
 686              		.section	.text.u8g_draw_filled_ellipse,"ax",%progbits
 687              		.align	2
ARM GAS  C:\Users\KJA\AppData\Local\Temp\cc6Wl3zN.s 			page 18


 688              		.global	u8g_draw_filled_ellipse
 689              		.thumb
 690              		.thumb_func
 691              		.type	u8g_draw_filled_ellipse, %function
 692              	u8g_draw_filled_ellipse:
 693              	.LFB4:
 281:u8glib_arm_v1.18.1\src/u8g_ellipse.c **** 
 282:u8glib_arm_v1.18.1\src/u8g_ellipse.c **** void u8g_draw_filled_ellipse(u8g_t *u8g, u8g_uint_t x0, u8g_uint_t y0, u8g_uint_t rx, u8g_uint_t ry
 283:u8glib_arm_v1.18.1\src/u8g_ellipse.c **** {
 694              		.loc 1 283 0
 695              		.cfi_startproc
 696              		@ args = 8, pretend = 0, frame = 24
 697              		@ frame_needed = 1, uses_anonymous_args = 0
 698 0000 90B5     		push	{r4, r7, lr}
 699              		.cfi_def_cfa_offset 12
 700              		.cfi_offset 4, -12
 701              		.cfi_offset 7, -8
 702              		.cfi_offset 14, -4
 703 0002 89B0     		sub	sp, sp, #36
 704              		.cfi_def_cfa_offset 48
 705 0004 02AF     		add	r7, sp, #8
 706              		.cfi_def_cfa 7, 40
 707 0006 7860     		str	r0, [r7, #4]
 708 0008 0846     		mov	r0, r1
 709 000a 1146     		mov	r1, r2
 710 000c 1A46     		mov	r2, r3
 711 000e 0346     		mov	r3, r0
 712 0010 FB70     		strb	r3, [r7, #3]
 713 0012 0B46     		mov	r3, r1
 714 0014 BB70     		strb	r3, [r7, #2]
 715 0016 1346     		mov	r3, r2
 716 0018 7B70     		strb	r3, [r7, #1]
 284:u8glib_arm_v1.18.1\src/u8g_ellipse.c ****   u8g_uint_t x, y;
 285:u8glib_arm_v1.18.1\src/u8g_ellipse.c ****   u8g_long_t xchg, ychg;
 286:u8glib_arm_v1.18.1\src/u8g_ellipse.c ****   u8g_long_t err;
 287:u8glib_arm_v1.18.1\src/u8g_ellipse.c ****   u8g_long_t rxrx2;
 288:u8glib_arm_v1.18.1\src/u8g_ellipse.c ****   u8g_long_t ryry2;
 289:u8glib_arm_v1.18.1\src/u8g_ellipse.c ****   u8g_long_t stopx, stopy;
 290:u8glib_arm_v1.18.1\src/u8g_ellipse.c ****   
 291:u8glib_arm_v1.18.1\src/u8g_ellipse.c ****   rxrx2 = rx;
 717              		.loc 1 291 0
 718 001a 7B78     		ldrb	r3, [r7, #1]	@ zero_extendqisi2
 719 001c 7B81     		strh	r3, [r7, #10]	@ movhi
 292:u8glib_arm_v1.18.1\src/u8g_ellipse.c ****   rxrx2 *= rx;
 720              		.loc 1 292 0
 721 001e 7B78     		ldrb	r3, [r7, #1]	@ zero_extendqisi2
 722 0020 9BB2     		uxth	r3, r3
 723 0022 7A89     		ldrh	r2, [r7, #10]
 724 0024 02FB03F3 		mul	r3, r2, r3
 725 0028 9BB2     		uxth	r3, r3
 726 002a 7B81     		strh	r3, [r7, #10]	@ movhi
 293:u8glib_arm_v1.18.1\src/u8g_ellipse.c ****   rxrx2 *= 2;
 727              		.loc 1 293 0
 728 002c 7B89     		ldrh	r3, [r7, #10]
 729 002e 5B00     		lsls	r3, r3, #1
 730 0030 9BB2     		uxth	r3, r3
 731 0032 7B81     		strh	r3, [r7, #10]	@ movhi
ARM GAS  C:\Users\KJA\AppData\Local\Temp\cc6Wl3zN.s 			page 19


 294:u8glib_arm_v1.18.1\src/u8g_ellipse.c ****   
 295:u8glib_arm_v1.18.1\src/u8g_ellipse.c ****   ryry2 = ry;
 732              		.loc 1 295 0
 733 0034 97F82830 		ldrb	r3, [r7, #40]	@ zero_extendqisi2
 734 0038 3B81     		strh	r3, [r7, #8]	@ movhi
 296:u8glib_arm_v1.18.1\src/u8g_ellipse.c ****   ryry2 *= ry;
 735              		.loc 1 296 0
 736 003a 97F82830 		ldrb	r3, [r7, #40]	@ zero_extendqisi2
 737 003e 9BB2     		uxth	r3, r3
 738 0040 3A89     		ldrh	r2, [r7, #8]
 739 0042 02FB03F3 		mul	r3, r2, r3
 740 0046 9BB2     		uxth	r3, r3
 741 0048 3B81     		strh	r3, [r7, #8]	@ movhi
 297:u8glib_arm_v1.18.1\src/u8g_ellipse.c ****   ryry2 *= 2;
 742              		.loc 1 297 0
 743 004a 3B89     		ldrh	r3, [r7, #8]
 744 004c 5B00     		lsls	r3, r3, #1
 745 004e 9BB2     		uxth	r3, r3
 746 0050 3B81     		strh	r3, [r7, #8]	@ movhi
 298:u8glib_arm_v1.18.1\src/u8g_ellipse.c ****   
 299:u8glib_arm_v1.18.1\src/u8g_ellipse.c ****   x = rx;
 747              		.loc 1 299 0
 748 0052 7B78     		ldrb	r3, [r7, #1]
 749 0054 FB75     		strb	r3, [r7, #23]
 300:u8glib_arm_v1.18.1\src/u8g_ellipse.c ****   y = 0;
 750              		.loc 1 300 0
 751 0056 0023     		movs	r3, #0
 752 0058 BB75     		strb	r3, [r7, #22]
 301:u8glib_arm_v1.18.1\src/u8g_ellipse.c ****   
 302:u8glib_arm_v1.18.1\src/u8g_ellipse.c ****   xchg = 1;
 753              		.loc 1 302 0
 754 005a 0123     		movs	r3, #1
 755 005c BB82     		strh	r3, [r7, #20]	@ movhi
 303:u8glib_arm_v1.18.1\src/u8g_ellipse.c ****   xchg -= rx;
 756              		.loc 1 303 0
 757 005e BA8A     		ldrh	r2, [r7, #20]
 758 0060 7B78     		ldrb	r3, [r7, #1]	@ zero_extendqisi2
 759 0062 9BB2     		uxth	r3, r3
 760 0064 D31A     		subs	r3, r2, r3
 761 0066 9BB2     		uxth	r3, r3
 762 0068 BB82     		strh	r3, [r7, #20]	@ movhi
 304:u8glib_arm_v1.18.1\src/u8g_ellipse.c ****   xchg -= rx;
 763              		.loc 1 304 0
 764 006a BA8A     		ldrh	r2, [r7, #20]
 765 006c 7B78     		ldrb	r3, [r7, #1]	@ zero_extendqisi2
 766 006e 9BB2     		uxth	r3, r3
 767 0070 D31A     		subs	r3, r2, r3
 768 0072 9BB2     		uxth	r3, r3
 769 0074 BB82     		strh	r3, [r7, #20]	@ movhi
 305:u8glib_arm_v1.18.1\src/u8g_ellipse.c ****   xchg *= ry;
 770              		.loc 1 305 0
 771 0076 97F82830 		ldrb	r3, [r7, #40]	@ zero_extendqisi2
 772 007a 9BB2     		uxth	r3, r3
 773 007c BA8A     		ldrh	r2, [r7, #20]
 774 007e 02FB03F3 		mul	r3, r2, r3
 775 0082 9BB2     		uxth	r3, r3
 776 0084 BB82     		strh	r3, [r7, #20]	@ movhi
ARM GAS  C:\Users\KJA\AppData\Local\Temp\cc6Wl3zN.s 			page 20


 306:u8glib_arm_v1.18.1\src/u8g_ellipse.c ****   xchg *= ry;
 777              		.loc 1 306 0
 778 0086 97F82830 		ldrb	r3, [r7, #40]	@ zero_extendqisi2
 779 008a 9BB2     		uxth	r3, r3
 780 008c BA8A     		ldrh	r2, [r7, #20]
 781 008e 02FB03F3 		mul	r3, r2, r3
 782 0092 9BB2     		uxth	r3, r3
 783 0094 BB82     		strh	r3, [r7, #20]	@ movhi
 307:u8glib_arm_v1.18.1\src/u8g_ellipse.c ****   
 308:u8glib_arm_v1.18.1\src/u8g_ellipse.c ****   ychg = rx;
 784              		.loc 1 308 0
 785 0096 7B78     		ldrb	r3, [r7, #1]	@ zero_extendqisi2
 786 0098 7B82     		strh	r3, [r7, #18]	@ movhi
 309:u8glib_arm_v1.18.1\src/u8g_ellipse.c ****   ychg *= rx;
 787              		.loc 1 309 0
 788 009a 7B78     		ldrb	r3, [r7, #1]	@ zero_extendqisi2
 789 009c 9BB2     		uxth	r3, r3
 790 009e 7A8A     		ldrh	r2, [r7, #18]
 791 00a0 02FB03F3 		mul	r3, r2, r3
 792 00a4 9BB2     		uxth	r3, r3
 793 00a6 7B82     		strh	r3, [r7, #18]	@ movhi
 310:u8glib_arm_v1.18.1\src/u8g_ellipse.c ****   
 311:u8glib_arm_v1.18.1\src/u8g_ellipse.c ****   err = 0;
 794              		.loc 1 311 0
 795 00a8 0023     		movs	r3, #0
 796 00aa 3B82     		strh	r3, [r7, #16]	@ movhi
 312:u8glib_arm_v1.18.1\src/u8g_ellipse.c ****   
 313:u8glib_arm_v1.18.1\src/u8g_ellipse.c ****   stopx = ryry2;
 797              		.loc 1 313 0
 798 00ac 3B89     		ldrh	r3, [r7, #8]	@ movhi
 799 00ae FB81     		strh	r3, [r7, #14]	@ movhi
 314:u8glib_arm_v1.18.1\src/u8g_ellipse.c ****   stopx *= rx;
 800              		.loc 1 314 0
 801 00b0 7B78     		ldrb	r3, [r7, #1]	@ zero_extendqisi2
 802 00b2 9BB2     		uxth	r3, r3
 803 00b4 FA89     		ldrh	r2, [r7, #14]
 804 00b6 02FB03F3 		mul	r3, r2, r3
 805 00ba 9BB2     		uxth	r3, r3
 806 00bc FB81     		strh	r3, [r7, #14]	@ movhi
 315:u8glib_arm_v1.18.1\src/u8g_ellipse.c ****   stopy = 0;
 807              		.loc 1 315 0
 808 00be 0023     		movs	r3, #0
 809 00c0 BB81     		strh	r3, [r7, #12]	@ movhi
 316:u8glib_arm_v1.18.1\src/u8g_ellipse.c ****   
 317:u8glib_arm_v1.18.1\src/u8g_ellipse.c ****   while( stopx >= stopy )
 810              		.loc 1 317 0
 811 00c2 37E0     		b	.L20
 812              	.L21:
 318:u8glib_arm_v1.18.1\src/u8g_ellipse.c ****   {
 319:u8glib_arm_v1.18.1\src/u8g_ellipse.c ****     u8g_draw_filled_ellipse_section(u8g, x, y, x0, y0, option);
 813              		.loc 1 319 0
 814 00c4 F97D     		ldrb	r1, [r7, #23]	@ zero_extendqisi2
 815 00c6 BA7D     		ldrb	r2, [r7, #22]	@ zero_extendqisi2
 816 00c8 FC78     		ldrb	r4, [r7, #3]	@ zero_extendqisi2
 817 00ca BB78     		ldrb	r3, [r7, #2]	@ zero_extendqisi2
 818 00cc 0093     		str	r3, [sp]
 819 00ce 97F82C30 		ldrb	r3, [r7, #44]	@ zero_extendqisi2
ARM GAS  C:\Users\KJA\AppData\Local\Temp\cc6Wl3zN.s 			page 21


 820 00d2 0193     		str	r3, [sp, #4]
 821 00d4 7868     		ldr	r0, [r7, #4]
 822 00d6 2346     		mov	r3, r4
 823 00d8 FFF7FEFF 		bl	u8g_draw_filled_ellipse_section
 320:u8glib_arm_v1.18.1\src/u8g_ellipse.c ****     y++;
 824              		.loc 1 320 0
 825 00dc BB7D     		ldrb	r3, [r7, #22]	@ zero_extendqisi2
 826 00de 0133     		adds	r3, r3, #1
 827 00e0 BB75     		strb	r3, [r7, #22]
 321:u8glib_arm_v1.18.1\src/u8g_ellipse.c ****     stopy += rxrx2;
 828              		.loc 1 321 0
 829 00e2 BA89     		ldrh	r2, [r7, #12]
 830 00e4 7B89     		ldrh	r3, [r7, #10]
 831 00e6 1344     		add	r3, r3, r2
 832 00e8 9BB2     		uxth	r3, r3
 833 00ea BB81     		strh	r3, [r7, #12]	@ movhi
 322:u8glib_arm_v1.18.1\src/u8g_ellipse.c ****     err += ychg;
 834              		.loc 1 322 0
 835 00ec 3A8A     		ldrh	r2, [r7, #16]
 836 00ee 7B8A     		ldrh	r3, [r7, #18]
 837 00f0 1344     		add	r3, r3, r2
 838 00f2 9BB2     		uxth	r3, r3
 839 00f4 3B82     		strh	r3, [r7, #16]	@ movhi
 323:u8glib_arm_v1.18.1\src/u8g_ellipse.c ****     ychg += rxrx2;
 840              		.loc 1 323 0
 841 00f6 7A8A     		ldrh	r2, [r7, #18]
 842 00f8 7B89     		ldrh	r3, [r7, #10]
 843 00fa 1344     		add	r3, r3, r2
 844 00fc 9BB2     		uxth	r3, r3
 845 00fe 7B82     		strh	r3, [r7, #18]	@ movhi
 324:u8glib_arm_v1.18.1\src/u8g_ellipse.c ****     if ( 2*err+xchg > 0 )
 846              		.loc 1 324 0
 847 0100 B7F91030 		ldrsh	r3, [r7, #16]
 848 0104 5A00     		lsls	r2, r3, #1
 849 0106 B7F91430 		ldrsh	r3, [r7, #20]
 850 010a 1344     		add	r3, r3, r2
 851 010c 002B     		cmp	r3, #0
 852 010e 11DD     		ble	.L20
 325:u8glib_arm_v1.18.1\src/u8g_ellipse.c ****     {
 326:u8glib_arm_v1.18.1\src/u8g_ellipse.c ****       x--;
 853              		.loc 1 326 0
 854 0110 FB7D     		ldrb	r3, [r7, #23]	@ zero_extendqisi2
 855 0112 013B     		subs	r3, r3, #1
 856 0114 FB75     		strb	r3, [r7, #23]
 327:u8glib_arm_v1.18.1\src/u8g_ellipse.c ****       stopx -= ryry2;
 857              		.loc 1 327 0
 858 0116 FA89     		ldrh	r2, [r7, #14]
 859 0118 3B89     		ldrh	r3, [r7, #8]
 860 011a D31A     		subs	r3, r2, r3
 861 011c 9BB2     		uxth	r3, r3
 862 011e FB81     		strh	r3, [r7, #14]	@ movhi
 328:u8glib_arm_v1.18.1\src/u8g_ellipse.c ****       err += xchg;
 863              		.loc 1 328 0
 864 0120 3A8A     		ldrh	r2, [r7, #16]
 865 0122 BB8A     		ldrh	r3, [r7, #20]
 866 0124 1344     		add	r3, r3, r2
 867 0126 9BB2     		uxth	r3, r3
ARM GAS  C:\Users\KJA\AppData\Local\Temp\cc6Wl3zN.s 			page 22


 868 0128 3B82     		strh	r3, [r7, #16]	@ movhi
 329:u8glib_arm_v1.18.1\src/u8g_ellipse.c ****       xchg += ryry2;      
 869              		.loc 1 329 0
 870 012a BA8A     		ldrh	r2, [r7, #20]
 871 012c 3B89     		ldrh	r3, [r7, #8]
 872 012e 1344     		add	r3, r3, r2
 873 0130 9BB2     		uxth	r3, r3
 874 0132 BB82     		strh	r3, [r7, #20]	@ movhi
 875              	.L20:
 317:u8glib_arm_v1.18.1\src/u8g_ellipse.c ****   {
 876              		.loc 1 317 0
 877 0134 B7F90E20 		ldrsh	r2, [r7, #14]
 878 0138 B7F90C30 		ldrsh	r3, [r7, #12]
 879 013c 9A42     		cmp	r2, r3
 880 013e C1DA     		bge	.L21
 330:u8glib_arm_v1.18.1\src/u8g_ellipse.c ****     }
 331:u8glib_arm_v1.18.1\src/u8g_ellipse.c ****   }
 332:u8glib_arm_v1.18.1\src/u8g_ellipse.c **** 
 333:u8glib_arm_v1.18.1\src/u8g_ellipse.c ****   x = 0;
 881              		.loc 1 333 0
 882 0140 0023     		movs	r3, #0
 883 0142 FB75     		strb	r3, [r7, #23]
 334:u8glib_arm_v1.18.1\src/u8g_ellipse.c ****   y = ry;
 884              		.loc 1 334 0
 885 0144 97F82830 		ldrb	r3, [r7, #40]
 886 0148 BB75     		strb	r3, [r7, #22]
 335:u8glib_arm_v1.18.1\src/u8g_ellipse.c ****   
 336:u8glib_arm_v1.18.1\src/u8g_ellipse.c ****   xchg = ry;
 887              		.loc 1 336 0
 888 014a 97F82830 		ldrb	r3, [r7, #40]	@ zero_extendqisi2
 889 014e BB82     		strh	r3, [r7, #20]	@ movhi
 337:u8glib_arm_v1.18.1\src/u8g_ellipse.c ****   xchg *= ry;
 890              		.loc 1 337 0
 891 0150 97F82830 		ldrb	r3, [r7, #40]	@ zero_extendqisi2
 892 0154 9BB2     		uxth	r3, r3
 893 0156 BA8A     		ldrh	r2, [r7, #20]
 894 0158 02FB03F3 		mul	r3, r2, r3
 895 015c 9BB2     		uxth	r3, r3
 896 015e BB82     		strh	r3, [r7, #20]	@ movhi
 338:u8glib_arm_v1.18.1\src/u8g_ellipse.c ****   
 339:u8glib_arm_v1.18.1\src/u8g_ellipse.c ****   ychg = 1;
 897              		.loc 1 339 0
 898 0160 0123     		movs	r3, #1
 899 0162 7B82     		strh	r3, [r7, #18]	@ movhi
 340:u8glib_arm_v1.18.1\src/u8g_ellipse.c ****   ychg -= ry;
 900              		.loc 1 340 0
 901 0164 7A8A     		ldrh	r2, [r7, #18]
 902 0166 97F82830 		ldrb	r3, [r7, #40]	@ zero_extendqisi2
 903 016a 9BB2     		uxth	r3, r3
 904 016c D31A     		subs	r3, r2, r3
 905 016e 9BB2     		uxth	r3, r3
 906 0170 7B82     		strh	r3, [r7, #18]	@ movhi
 341:u8glib_arm_v1.18.1\src/u8g_ellipse.c ****   ychg -= ry;
 907              		.loc 1 341 0
 908 0172 7A8A     		ldrh	r2, [r7, #18]
 909 0174 97F82830 		ldrb	r3, [r7, #40]	@ zero_extendqisi2
 910 0178 9BB2     		uxth	r3, r3
ARM GAS  C:\Users\KJA\AppData\Local\Temp\cc6Wl3zN.s 			page 23


 911 017a D31A     		subs	r3, r2, r3
 912 017c 9BB2     		uxth	r3, r3
 913 017e 7B82     		strh	r3, [r7, #18]	@ movhi
 342:u8glib_arm_v1.18.1\src/u8g_ellipse.c ****   ychg *= rx;
 914              		.loc 1 342 0
 915 0180 7B78     		ldrb	r3, [r7, #1]	@ zero_extendqisi2
 916 0182 9BB2     		uxth	r3, r3
 917 0184 7A8A     		ldrh	r2, [r7, #18]
 918 0186 02FB03F3 		mul	r3, r2, r3
 919 018a 9BB2     		uxth	r3, r3
 920 018c 7B82     		strh	r3, [r7, #18]	@ movhi
 343:u8glib_arm_v1.18.1\src/u8g_ellipse.c ****   ychg *= rx;
 921              		.loc 1 343 0
 922 018e 7B78     		ldrb	r3, [r7, #1]	@ zero_extendqisi2
 923 0190 9BB2     		uxth	r3, r3
 924 0192 7A8A     		ldrh	r2, [r7, #18]
 925 0194 02FB03F3 		mul	r3, r2, r3
 926 0198 9BB2     		uxth	r3, r3
 927 019a 7B82     		strh	r3, [r7, #18]	@ movhi
 344:u8glib_arm_v1.18.1\src/u8g_ellipse.c ****   
 345:u8glib_arm_v1.18.1\src/u8g_ellipse.c ****   err = 0;
 928              		.loc 1 345 0
 929 019c 0023     		movs	r3, #0
 930 019e 3B82     		strh	r3, [r7, #16]	@ movhi
 346:u8glib_arm_v1.18.1\src/u8g_ellipse.c ****   
 347:u8glib_arm_v1.18.1\src/u8g_ellipse.c ****   stopx = 0;
 931              		.loc 1 347 0
 932 01a0 0023     		movs	r3, #0
 933 01a2 FB81     		strh	r3, [r7, #14]	@ movhi
 348:u8glib_arm_v1.18.1\src/u8g_ellipse.c **** 
 349:u8glib_arm_v1.18.1\src/u8g_ellipse.c ****   stopy = rxrx2;
 934              		.loc 1 349 0
 935 01a4 7B89     		ldrh	r3, [r7, #10]	@ movhi
 936 01a6 BB81     		strh	r3, [r7, #12]	@ movhi
 350:u8glib_arm_v1.18.1\src/u8g_ellipse.c ****   stopy *= ry;
 937              		.loc 1 350 0
 938 01a8 97F82830 		ldrb	r3, [r7, #40]	@ zero_extendqisi2
 939 01ac 9BB2     		uxth	r3, r3
 940 01ae BA89     		ldrh	r2, [r7, #12]
 941 01b0 02FB03F3 		mul	r3, r2, r3
 942 01b4 9BB2     		uxth	r3, r3
 943 01b6 BB81     		strh	r3, [r7, #12]	@ movhi
 351:u8glib_arm_v1.18.1\src/u8g_ellipse.c ****   
 352:u8glib_arm_v1.18.1\src/u8g_ellipse.c **** 
 353:u8glib_arm_v1.18.1\src/u8g_ellipse.c ****   while( stopx <= stopy )
 944              		.loc 1 353 0
 945 01b8 37E0     		b	.L22
 946              	.L23:
 354:u8glib_arm_v1.18.1\src/u8g_ellipse.c ****   {
 355:u8glib_arm_v1.18.1\src/u8g_ellipse.c ****     u8g_draw_filled_ellipse_section(u8g, x, y, x0, y0, option);
 947              		.loc 1 355 0
 948 01ba F97D     		ldrb	r1, [r7, #23]	@ zero_extendqisi2
 949 01bc BA7D     		ldrb	r2, [r7, #22]	@ zero_extendqisi2
 950 01be FC78     		ldrb	r4, [r7, #3]	@ zero_extendqisi2
 951 01c0 BB78     		ldrb	r3, [r7, #2]	@ zero_extendqisi2
 952 01c2 0093     		str	r3, [sp]
 953 01c4 97F82C30 		ldrb	r3, [r7, #44]	@ zero_extendqisi2
ARM GAS  C:\Users\KJA\AppData\Local\Temp\cc6Wl3zN.s 			page 24


 954 01c8 0193     		str	r3, [sp, #4]
 955 01ca 7868     		ldr	r0, [r7, #4]
 956 01cc 2346     		mov	r3, r4
 957 01ce FFF7FEFF 		bl	u8g_draw_filled_ellipse_section
 356:u8glib_arm_v1.18.1\src/u8g_ellipse.c ****     x++;
 958              		.loc 1 356 0
 959 01d2 FB7D     		ldrb	r3, [r7, #23]	@ zero_extendqisi2
 960 01d4 0133     		adds	r3, r3, #1
 961 01d6 FB75     		strb	r3, [r7, #23]
 357:u8glib_arm_v1.18.1\src/u8g_ellipse.c ****     stopx += ryry2;
 962              		.loc 1 357 0
 963 01d8 FA89     		ldrh	r2, [r7, #14]
 964 01da 3B89     		ldrh	r3, [r7, #8]
 965 01dc 1344     		add	r3, r3, r2
 966 01de 9BB2     		uxth	r3, r3
 967 01e0 FB81     		strh	r3, [r7, #14]	@ movhi
 358:u8glib_arm_v1.18.1\src/u8g_ellipse.c ****     err += xchg;
 968              		.loc 1 358 0
 969 01e2 3A8A     		ldrh	r2, [r7, #16]
 970 01e4 BB8A     		ldrh	r3, [r7, #20]
 971 01e6 1344     		add	r3, r3, r2
 972 01e8 9BB2     		uxth	r3, r3
 973 01ea 3B82     		strh	r3, [r7, #16]	@ movhi
 359:u8glib_arm_v1.18.1\src/u8g_ellipse.c ****     xchg += ryry2;
 974              		.loc 1 359 0
 975 01ec BA8A     		ldrh	r2, [r7, #20]
 976 01ee 3B89     		ldrh	r3, [r7, #8]
 977 01f0 1344     		add	r3, r3, r2
 978 01f2 9BB2     		uxth	r3, r3
 979 01f4 BB82     		strh	r3, [r7, #20]	@ movhi
 360:u8glib_arm_v1.18.1\src/u8g_ellipse.c ****     if ( 2*err+ychg > 0 )
 980              		.loc 1 360 0
 981 01f6 B7F91030 		ldrsh	r3, [r7, #16]
 982 01fa 5A00     		lsls	r2, r3, #1
 983 01fc B7F91230 		ldrsh	r3, [r7, #18]
 984 0200 1344     		add	r3, r3, r2
 985 0202 002B     		cmp	r3, #0
 986 0204 11DD     		ble	.L22
 361:u8glib_arm_v1.18.1\src/u8g_ellipse.c ****     {
 362:u8glib_arm_v1.18.1\src/u8g_ellipse.c ****       y--;
 987              		.loc 1 362 0
 988 0206 BB7D     		ldrb	r3, [r7, #22]	@ zero_extendqisi2
 989 0208 013B     		subs	r3, r3, #1
 990 020a BB75     		strb	r3, [r7, #22]
 363:u8glib_arm_v1.18.1\src/u8g_ellipse.c ****       stopy -= rxrx2;
 991              		.loc 1 363 0
 992 020c BA89     		ldrh	r2, [r7, #12]
 993 020e 7B89     		ldrh	r3, [r7, #10]
 994 0210 D31A     		subs	r3, r2, r3
 995 0212 9BB2     		uxth	r3, r3
 996 0214 BB81     		strh	r3, [r7, #12]	@ movhi
 364:u8glib_arm_v1.18.1\src/u8g_ellipse.c ****       err += ychg;
 997              		.loc 1 364 0
 998 0216 3A8A     		ldrh	r2, [r7, #16]
 999 0218 7B8A     		ldrh	r3, [r7, #18]
 1000 021a 1344     		add	r3, r3, r2
 1001 021c 9BB2     		uxth	r3, r3
ARM GAS  C:\Users\KJA\AppData\Local\Temp\cc6Wl3zN.s 			page 25


 1002 021e 3B82     		strh	r3, [r7, #16]	@ movhi
 365:u8glib_arm_v1.18.1\src/u8g_ellipse.c ****       ychg += rxrx2;
 1003              		.loc 1 365 0
 1004 0220 7A8A     		ldrh	r2, [r7, #18]
 1005 0222 7B89     		ldrh	r3, [r7, #10]
 1006 0224 1344     		add	r3, r3, r2
 1007 0226 9BB2     		uxth	r3, r3
 1008 0228 7B82     		strh	r3, [r7, #18]	@ movhi
 1009              	.L22:
 353:u8glib_arm_v1.18.1\src/u8g_ellipse.c ****   {
 1010              		.loc 1 353 0
 1011 022a B7F90E20 		ldrsh	r2, [r7, #14]
 1012 022e B7F90C30 		ldrsh	r3, [r7, #12]
 1013 0232 9A42     		cmp	r2, r3
 1014 0234 C1DD     		ble	.L23
 366:u8glib_arm_v1.18.1\src/u8g_ellipse.c ****     }
 367:u8glib_arm_v1.18.1\src/u8g_ellipse.c ****   }
 368:u8glib_arm_v1.18.1\src/u8g_ellipse.c ****   
 369:u8glib_arm_v1.18.1\src/u8g_ellipse.c **** }
 1015              		.loc 1 369 0
 1016 0236 1C37     		adds	r7, r7, #28
 1017              		.cfi_def_cfa_offset 12
 1018 0238 BD46     		mov	sp, r7
 1019              		.cfi_def_cfa_register 13
 1020              		@ sp needed
 1021 023a 90BD     		pop	{r4, r7, pc}
 1022              		.cfi_endproc
 1023              	.LFE4:
 1024              		.size	u8g_draw_filled_ellipse, .-u8g_draw_filled_ellipse
 1025              		.section	.text.u8g_DrawFilledEllipse,"ax",%progbits
 1026              		.align	2
 1027              		.global	u8g_DrawFilledEllipse
 1028              		.thumb
 1029              		.thumb_func
 1030              		.type	u8g_DrawFilledEllipse, %function
 1031              	u8g_DrawFilledEllipse:
 1032              	.LFB5:
 370:u8glib_arm_v1.18.1\src/u8g_ellipse.c **** 
 371:u8glib_arm_v1.18.1\src/u8g_ellipse.c **** void u8g_DrawFilledEllipse(u8g_t *u8g, u8g_uint_t x0, u8g_uint_t y0, u8g_uint_t rx, u8g_uint_t ry, 
 372:u8glib_arm_v1.18.1\src/u8g_ellipse.c **** {
 1033              		.loc 1 372 0
 1034              		.cfi_startproc
 1035              		@ args = 8, pretend = 0, frame = 16
 1036              		@ frame_needed = 1, uses_anonymous_args = 0
 1037 0000 90B5     		push	{r4, r7, lr}
 1038              		.cfi_def_cfa_offset 12
 1039              		.cfi_offset 4, -12
 1040              		.cfi_offset 7, -8
 1041              		.cfi_offset 14, -4
 1042 0002 87B0     		sub	sp, sp, #28
 1043              		.cfi_def_cfa_offset 40
 1044 0004 02AF     		add	r7, sp, #8
 1045              		.cfi_def_cfa 7, 32
 1046 0006 7860     		str	r0, [r7, #4]
 1047 0008 0846     		mov	r0, r1
 1048 000a 1146     		mov	r1, r2
 1049 000c 1A46     		mov	r2, r3
ARM GAS  C:\Users\KJA\AppData\Local\Temp\cc6Wl3zN.s 			page 26


 1050 000e 0346     		mov	r3, r0
 1051 0010 FB70     		strb	r3, [r7, #3]
 1052 0012 0B46     		mov	r3, r1
 1053 0014 BB70     		strb	r3, [r7, #2]
 1054 0016 1346     		mov	r3, r2
 1055 0018 7B70     		strb	r3, [r7, #1]
 1056              	.LBB3:
 373:u8glib_arm_v1.18.1\src/u8g_ellipse.c ****   /* check for bounding box */
 374:u8glib_arm_v1.18.1\src/u8g_ellipse.c ****   {
 375:u8glib_arm_v1.18.1\src/u8g_ellipse.c ****     u8g_uint_t rxp, rxp2;
 376:u8glib_arm_v1.18.1\src/u8g_ellipse.c ****     u8g_uint_t ryp, ryp2;
 377:u8glib_arm_v1.18.1\src/u8g_ellipse.c ****     
 378:u8glib_arm_v1.18.1\src/u8g_ellipse.c ****     rxp = rx;
 1057              		.loc 1 378 0
 1058 001a 7B78     		ldrb	r3, [r7, #1]
 1059 001c FB73     		strb	r3, [r7, #15]
 379:u8glib_arm_v1.18.1\src/u8g_ellipse.c ****     rxp++;
 1060              		.loc 1 379 0
 1061 001e FB7B     		ldrb	r3, [r7, #15]	@ zero_extendqisi2
 1062 0020 0133     		adds	r3, r3, #1
 1063 0022 FB73     		strb	r3, [r7, #15]
 380:u8glib_arm_v1.18.1\src/u8g_ellipse.c ****     rxp2 = rxp;
 1064              		.loc 1 380 0
 1065 0024 FB7B     		ldrb	r3, [r7, #15]
 1066 0026 BB73     		strb	r3, [r7, #14]
 381:u8glib_arm_v1.18.1\src/u8g_ellipse.c ****     rxp2 *= 2;
 1067              		.loc 1 381 0
 1068 0028 BB7B     		ldrb	r3, [r7, #14]
 1069 002a 5B00     		lsls	r3, r3, #1
 1070 002c BB73     		strb	r3, [r7, #14]
 382:u8glib_arm_v1.18.1\src/u8g_ellipse.c **** 
 383:u8glib_arm_v1.18.1\src/u8g_ellipse.c ****     ryp = ry;
 1071              		.loc 1 383 0
 1072 002e 97F82030 		ldrb	r3, [r7, #32]
 1073 0032 7B73     		strb	r3, [r7, #13]
 384:u8glib_arm_v1.18.1\src/u8g_ellipse.c ****     ryp++;
 1074              		.loc 1 384 0
 1075 0034 7B7B     		ldrb	r3, [r7, #13]	@ zero_extendqisi2
 1076 0036 0133     		adds	r3, r3, #1
 1077 0038 7B73     		strb	r3, [r7, #13]
 385:u8glib_arm_v1.18.1\src/u8g_ellipse.c ****     ryp2 = ryp;
 1078              		.loc 1 385 0
 1079 003a 7B7B     		ldrb	r3, [r7, #13]
 1080 003c 3B73     		strb	r3, [r7, #12]
 386:u8glib_arm_v1.18.1\src/u8g_ellipse.c ****     ryp2 *= 2;
 1081              		.loc 1 386 0
 1082 003e 3B7B     		ldrb	r3, [r7, #12]
 1083 0040 5B00     		lsls	r3, r3, #1
 1084 0042 3B73     		strb	r3, [r7, #12]
 387:u8glib_arm_v1.18.1\src/u8g_ellipse.c ****     
 388:u8glib_arm_v1.18.1\src/u8g_ellipse.c ****     if ( u8g_IsBBXIntersection(u8g, x0-rxp, y0-ryp, rxp2, ryp2) == 0)
 1085              		.loc 1 388 0
 1086 0044 FA78     		ldrb	r2, [r7, #3]
 1087 0046 FB7B     		ldrb	r3, [r7, #15]
 1088 0048 D31A     		subs	r3, r2, r3
 1089 004a D9B2     		uxtb	r1, r3
 1090 004c BA78     		ldrb	r2, [r7, #2]
ARM GAS  C:\Users\KJA\AppData\Local\Temp\cc6Wl3zN.s 			page 27


 1091 004e 7B7B     		ldrb	r3, [r7, #13]
 1092 0050 D31A     		subs	r3, r2, r3
 1093 0052 DAB2     		uxtb	r2, r3
 1094 0054 BC7B     		ldrb	r4, [r7, #14]	@ zero_extendqisi2
 1095 0056 3B7B     		ldrb	r3, [r7, #12]	@ zero_extendqisi2
 1096 0058 0093     		str	r3, [sp]
 1097 005a 7868     		ldr	r0, [r7, #4]
 1098 005c 2346     		mov	r3, r4
 1099 005e FFF7FEFF 		bl	u8g_IsBBXIntersection
 1100 0062 0346     		mov	r3, r0
 1101 0064 002B     		cmp	r3, #0
 1102 0066 00D1     		bne	.L25
 389:u8glib_arm_v1.18.1\src/u8g_ellipse.c ****       return;    
 1103              		.loc 1 389 0
 1104 0068 0CE0     		b	.L24
 1105              	.L25:
 1106              	.LBE3:
 390:u8glib_arm_v1.18.1\src/u8g_ellipse.c ****   }
 391:u8glib_arm_v1.18.1\src/u8g_ellipse.c ****   
 392:u8glib_arm_v1.18.1\src/u8g_ellipse.c ****   u8g_draw_filled_ellipse(u8g, x0, y0, rx, ry, option);
 1107              		.loc 1 392 0
 1108 006a F978     		ldrb	r1, [r7, #3]	@ zero_extendqisi2
 1109 006c BA78     		ldrb	r2, [r7, #2]	@ zero_extendqisi2
 1110 006e 7C78     		ldrb	r4, [r7, #1]	@ zero_extendqisi2
 1111 0070 97F82030 		ldrb	r3, [r7, #32]	@ zero_extendqisi2
 1112 0074 0093     		str	r3, [sp]
 1113 0076 97F82430 		ldrb	r3, [r7, #36]	@ zero_extendqisi2
 1114 007a 0193     		str	r3, [sp, #4]
 1115 007c 7868     		ldr	r0, [r7, #4]
 1116 007e 2346     		mov	r3, r4
 1117 0080 FFF7FEFF 		bl	u8g_draw_filled_ellipse
 1118              	.L24:
 393:u8glib_arm_v1.18.1\src/u8g_ellipse.c **** }
 1119              		.loc 1 393 0
 1120 0084 1437     		adds	r7, r7, #20
 1121              		.cfi_def_cfa_offset 12
 1122 0086 BD46     		mov	sp, r7
 1123              		.cfi_def_cfa_register 13
 1124              		@ sp needed
 1125 0088 90BD     		pop	{r4, r7, pc}
 1126              		.cfi_endproc
 1127              	.LFE5:
 1128              		.size	u8g_DrawFilledEllipse, .-u8g_DrawFilledEllipse
 1129 008a 00BF     		.text
 1130              	.Letext0:
 1131              		.file 2 "c:\\program files (x86)\\cypress\\psoc creator\\4.0\\psoc creator\\import\\gnu\\arm\\4.9.
 1132              		.file 3 "c:\\program files (x86)\\cypress\\psoc creator\\4.0\\psoc creator\\import\\gnu\\arm\\4.9.
 1133              		.file 4 "u8glib_arm_v1.18.1\\src\\u8g.h"