ARM GAS  C:\Users\Shiguruy\AppData\Local\Temp\ccEE2pBb.s 			page 1


   1              		.syntax unified
   2              		.cpu cortex-m3
   3              		.fpu softvfp
   4              		.eabi_attribute 20, 1
   5              		.eabi_attribute 21, 1
   6              		.eabi_attribute 23, 3
   7              		.eabi_attribute 24, 1
   8              		.eabi_attribute 25, 1
   9              		.eabi_attribute 26, 1
  10              		.eabi_attribute 30, 6
  11              		.eabi_attribute 34, 1
  12              		.eabi_attribute 18, 4
  13              		.thumb
  14              		.file	"u8g_dev_st7565_nhd_c12832.c"
  15              		.text
  16              	.Ltext0:
  17              		.cfi_sections	.debug_frame
  18              		.section	.rodata
  19              		.align	2
  20              		.type	u8g_dev_st7565_c12832_init_seq, %object
  21              		.size	u8g_dev_st7565_c12832_init_seq, 34
  22              	u8g_dev_st7565_c12832_init_seq:
  23 0000 FF       		.byte	-1
  24 0001 D0       		.byte	-48
  25 0002 FF       		.byte	-1
  26 0003 E0       		.byte	-32
  27 0004 FF       		.byte	-1
  28 0005 C1       		.byte	-63
  29 0006 FF       		.byte	-1
  30 0007 D1       		.byte	-47
  31 0008 40       		.byte	64
  32 0009 A0       		.byte	-96
  33 000a C8       		.byte	-56
  34 000b A6       		.byte	-90
  35 000c A2       		.byte	-94
  36 000d 2F       		.byte	47
  37 000e F8       		.byte	-8
  38 000f 00       		.byte	0
  39 0010 23       		.byte	35
  40 0011 81       		.byte	-127
  41 0012 0A       		.byte	10
  42 0013 AC       		.byte	-84
  43 0014 00       		.byte	0
  44 0015 AF       		.byte	-81
  45 0016 FF       		.byte	-1
  46 0017 64       		.byte	100
  47 0018 A5       		.byte	-91
  48 0019 FF       		.byte	-1
  49 001a 64       		.byte	100
  50 001b FF       		.byte	-1
  51 001c 64       		.byte	100
  52 001d A4       		.byte	-92
  53 001e FF       		.byte	-1
  54 001f D0       		.byte	-48
  55 0020 FF       		.byte	-1
  56 0021 FE       		.byte	-2
  57 0022 0000     		.align	2
ARM GAS  C:\Users\Shiguruy\AppData\Local\Temp\ccEE2pBb.s 			page 2


  58              		.type	u8g_dev_st7565_c12832_data_start, %object
  59              		.size	u8g_dev_st7565_c12832_data_start, 8
  60              	u8g_dev_st7565_c12832_data_start:
  61 0024 FF       		.byte	-1
  62 0025 E0       		.byte	-32
  63 0026 FF       		.byte	-1
  64 0027 D1       		.byte	-47
  65 0028 10       		.byte	16
  66 0029 00       		.byte	0
  67 002a FF       		.byte	-1
  68 002b FE       		.byte	-2
  69              		.align	2
  70              		.type	u8g_dev_st7565_c12832_sleep_on, %object
  71              		.size	u8g_dev_st7565_c12832_sleep_on, 12
  72              	u8g_dev_st7565_c12832_sleep_on:
  73 002c FF       		.byte	-1
  74 002d E0       		.byte	-32
  75 002e FF       		.byte	-1
  76 002f D1       		.byte	-47
  77 0030 AC       		.byte	-84
  78 0031 00       		.byte	0
  79 0032 AE       		.byte	-82
  80 0033 A5       		.byte	-91
  81 0034 FF       		.byte	-1
  82 0035 D0       		.byte	-48
  83 0036 FF       		.byte	-1
  84 0037 FE       		.byte	-2
  85              		.align	2
  86              		.type	u8g_dev_st7565_c12832_sleep_off, %object
  87              		.size	u8g_dev_st7565_c12832_sleep_off, 12
  88              	u8g_dev_st7565_c12832_sleep_off:
  89 0038 FF       		.byte	-1
  90 0039 E0       		.byte	-32
  91 003a FF       		.byte	-1
  92 003b D1       		.byte	-47
  93 003c A4       		.byte	-92
  94 003d AF       		.byte	-81
  95 003e FF       		.byte	-1
  96 003f 32       		.byte	50
  97 0040 FF       		.byte	-1
  98 0041 D0       		.byte	-48
  99 0042 FF       		.byte	-1
 100 0043 FE       		.byte	-2
 101              		.section	.text.u8g_dev_st7565_c12832_fn,"ax",%progbits
 102              		.align	2
 103              		.global	u8g_dev_st7565_c12832_fn
 104              		.thumb
 105              		.thumb_func
 106              		.type	u8g_dev_st7565_c12832_fn, %function
 107              	u8g_dev_st7565_c12832_fn:
 108              	.LFB0:
 109              		.file 1 ".\\u8glib_arm_v1.18.1\\src\\u8g_dev_st7565_nhd_c12832.c"
   1:.\u8glib_arm_v1.18.1\src/u8g_dev_st7565_nhd_c12832.c **** /*
   2:.\u8glib_arm_v1.18.1\src/u8g_dev_st7565_nhd_c12832.c **** 
   3:.\u8glib_arm_v1.18.1\src/u8g_dev_st7565_nhd_c12832.c ****   u8g_dev_st7565_nhd_c12832.c
   4:.\u8glib_arm_v1.18.1\src/u8g_dev_st7565_nhd_c12832.c **** 
   5:.\u8glib_arm_v1.18.1\src/u8g_dev_st7565_nhd_c12832.c ****   Universal 8bit Graphics Library
ARM GAS  C:\Users\Shiguruy\AppData\Local\Temp\ccEE2pBb.s 			page 3


   6:.\u8glib_arm_v1.18.1\src/u8g_dev_st7565_nhd_c12832.c ****   
   7:.\u8glib_arm_v1.18.1\src/u8g_dev_st7565_nhd_c12832.c ****   Copyright (c) 2011, olikraus@gmail.com
   8:.\u8glib_arm_v1.18.1\src/u8g_dev_st7565_nhd_c12832.c ****   All rights reserved.
   9:.\u8glib_arm_v1.18.1\src/u8g_dev_st7565_nhd_c12832.c **** 
  10:.\u8glib_arm_v1.18.1\src/u8g_dev_st7565_nhd_c12832.c ****   Redistribution and use in source and binary forms, with or without modification, 
  11:.\u8glib_arm_v1.18.1\src/u8g_dev_st7565_nhd_c12832.c ****   are permitted provided that the following conditions are met:
  12:.\u8glib_arm_v1.18.1\src/u8g_dev_st7565_nhd_c12832.c **** 
  13:.\u8glib_arm_v1.18.1\src/u8g_dev_st7565_nhd_c12832.c ****   * Redistributions of source code must retain the above copyright notice, this list 
  14:.\u8glib_arm_v1.18.1\src/u8g_dev_st7565_nhd_c12832.c ****     of conditions and the following disclaimer.
  15:.\u8glib_arm_v1.18.1\src/u8g_dev_st7565_nhd_c12832.c ****     
  16:.\u8glib_arm_v1.18.1\src/u8g_dev_st7565_nhd_c12832.c ****   * Redistributions in binary form must reproduce the above copyright notice, this 
  17:.\u8glib_arm_v1.18.1\src/u8g_dev_st7565_nhd_c12832.c ****     list of conditions and the following disclaimer in the documentation and/or other 
  18:.\u8glib_arm_v1.18.1\src/u8g_dev_st7565_nhd_c12832.c ****     materials provided with the distribution.
  19:.\u8glib_arm_v1.18.1\src/u8g_dev_st7565_nhd_c12832.c **** 
  20:.\u8glib_arm_v1.18.1\src/u8g_dev_st7565_nhd_c12832.c ****   THIS SOFTWARE IS PROVIDED BY THE COPYRIGHT HOLDERS AND 
  21:.\u8glib_arm_v1.18.1\src/u8g_dev_st7565_nhd_c12832.c ****   CONTRIBUTORS "AS IS" AND ANY EXPRESS OR IMPLIED WARRANTIES, 
  22:.\u8glib_arm_v1.18.1\src/u8g_dev_st7565_nhd_c12832.c ****   INCLUDING, BUT NOT LIMITED TO, THE IMPLIED WARRANTIES OF 
  23:.\u8glib_arm_v1.18.1\src/u8g_dev_st7565_nhd_c12832.c ****   MERCHANTABILITY AND FITNESS FOR A PARTICULAR PURPOSE ARE 
  24:.\u8glib_arm_v1.18.1\src/u8g_dev_st7565_nhd_c12832.c ****   DISCLAIMED. IN NO EVENT SHALL THE COPYRIGHT HOLDER OR 
  25:.\u8glib_arm_v1.18.1\src/u8g_dev_st7565_nhd_c12832.c ****   CONTRIBUTORS BE LIABLE FOR ANY DIRECT, INDIRECT, INCIDENTAL, 
  26:.\u8glib_arm_v1.18.1\src/u8g_dev_st7565_nhd_c12832.c ****   SPECIAL, EXEMPLARY, OR CONSEQUENTIAL DAMAGES (INCLUDING, BUT 
  27:.\u8glib_arm_v1.18.1\src/u8g_dev_st7565_nhd_c12832.c ****   NOT LIMITED TO, PROCUREMENT OF SUBSTITUTE GOODS OR SERVICES; 
  28:.\u8glib_arm_v1.18.1\src/u8g_dev_st7565_nhd_c12832.c ****   LOSS OF USE, DATA, OR PROFITS; OR BUSINESS INTERRUPTION) HOWEVER 
  29:.\u8glib_arm_v1.18.1\src/u8g_dev_st7565_nhd_c12832.c ****   CAUSED AND ON ANY THEORY OF LIABILITY, WHETHER IN CONTRACT, 
  30:.\u8glib_arm_v1.18.1\src/u8g_dev_st7565_nhd_c12832.c ****   STRICT LIABILITY, OR TORT (INCLUDING NEGLIGENCE OR OTHERWISE) 
  31:.\u8glib_arm_v1.18.1\src/u8g_dev_st7565_nhd_c12832.c ****   ARISING IN ANY WAY OUT OF THE USE OF THIS SOFTWARE, EVEN IF 
  32:.\u8glib_arm_v1.18.1\src/u8g_dev_st7565_nhd_c12832.c ****   ADVISED OF THE POSSIBILITY OF SUCH DAMAGE.  
  33:.\u8glib_arm_v1.18.1\src/u8g_dev_st7565_nhd_c12832.c ****   
  34:.\u8glib_arm_v1.18.1\src/u8g_dev_st7565_nhd_c12832.c ****   
  35:.\u8glib_arm_v1.18.1\src/u8g_dev_st7565_nhd_c12832.c **** */
  36:.\u8glib_arm_v1.18.1\src/u8g_dev_st7565_nhd_c12832.c **** 
  37:.\u8glib_arm_v1.18.1\src/u8g_dev_st7565_nhd_c12832.c **** #include "u8g.h"
  38:.\u8glib_arm_v1.18.1\src/u8g_dev_st7565_nhd_c12832.c **** 
  39:.\u8glib_arm_v1.18.1\src/u8g_dev_st7565_nhd_c12832.c **** #define WIDTH 128
  40:.\u8glib_arm_v1.18.1\src/u8g_dev_st7565_nhd_c12832.c **** #define HEIGHT 32
  41:.\u8glib_arm_v1.18.1\src/u8g_dev_st7565_nhd_c12832.c **** #define PAGE_HEIGHT 8
  42:.\u8glib_arm_v1.18.1\src/u8g_dev_st7565_nhd_c12832.c **** 
  43:.\u8glib_arm_v1.18.1\src/u8g_dev_st7565_nhd_c12832.c **** static const uint8_t u8g_dev_st7565_c12832_init_seq[] PROGMEM = {
  44:.\u8glib_arm_v1.18.1\src/u8g_dev_st7565_nhd_c12832.c ****   U8G_ESC_CS(0),             /* disable chip */
  45:.\u8glib_arm_v1.18.1\src/u8g_dev_st7565_nhd_c12832.c ****   U8G_ESC_ADR(0),           /* instruction mode */
  46:.\u8glib_arm_v1.18.1\src/u8g_dev_st7565_nhd_c12832.c ****   U8G_ESC_RST(1),           /* do reset low pulse with (1*16)+2 milliseconds */
  47:.\u8glib_arm_v1.18.1\src/u8g_dev_st7565_nhd_c12832.c ****   U8G_ESC_CS(1),             /* enable chip */
  48:.\u8glib_arm_v1.18.1\src/u8g_dev_st7565_nhd_c12832.c **** 
  49:.\u8glib_arm_v1.18.1\src/u8g_dev_st7565_nhd_c12832.c ****   0x040,		/* set display start line to 0 */
  50:.\u8glib_arm_v1.18.1\src/u8g_dev_st7565_nhd_c12832.c ****   0x0a0,		/* ADC set, values: a0=normal, a1=reverse */
  51:.\u8glib_arm_v1.18.1\src/u8g_dev_st7565_nhd_c12832.c ****   0x0c8,		/* common output mode: c0=normal, c8=reverse */
  52:.\u8glib_arm_v1.18.1\src/u8g_dev_st7565_nhd_c12832.c ****   0x0a6,		/* display normal, bit val 0: LCD pixel off. */
  53:.\u8glib_arm_v1.18.1\src/u8g_dev_st7565_nhd_c12832.c ****   0x0a2,		/* LCD bias 1/9 */
  54:.\u8glib_arm_v1.18.1\src/u8g_dev_st7565_nhd_c12832.c ****   0x02f,		/* all power  control circuits on */
  55:.\u8glib_arm_v1.18.1\src/u8g_dev_st7565_nhd_c12832.c ****   0x0f8,		/* set booster ratio to */
  56:.\u8glib_arm_v1.18.1\src/u8g_dev_st7565_nhd_c12832.c ****   0x000,		/* 4x */
  57:.\u8glib_arm_v1.18.1\src/u8g_dev_st7565_nhd_c12832.c ****   0x023,		/* set V0 voltage resistor ratio to large */
  58:.\u8glib_arm_v1.18.1\src/u8g_dev_st7565_nhd_c12832.c ****   0x081,		/* set contrast */
  59:.\u8glib_arm_v1.18.1\src/u8g_dev_st7565_nhd_c12832.c ****   0x00a,		/* contrast value */
  60:.\u8glib_arm_v1.18.1\src/u8g_dev_st7565_nhd_c12832.c ****   0x0ac,		/* indicator */
  61:.\u8glib_arm_v1.18.1\src/u8g_dev_st7565_nhd_c12832.c ****   0x000,		/* disable */
  62:.\u8glib_arm_v1.18.1\src/u8g_dev_st7565_nhd_c12832.c ****   0x0af,		/* display on */
ARM GAS  C:\Users\Shiguruy\AppData\Local\Temp\ccEE2pBb.s 			page 4


  63:.\u8glib_arm_v1.18.1\src/u8g_dev_st7565_nhd_c12832.c **** 
  64:.\u8glib_arm_v1.18.1\src/u8g_dev_st7565_nhd_c12832.c **** 
  65:.\u8glib_arm_v1.18.1\src/u8g_dev_st7565_nhd_c12832.c ****   U8G_ESC_DLY(100),       /* delay 100 ms */
  66:.\u8glib_arm_v1.18.1\src/u8g_dev_st7565_nhd_c12832.c ****   0x0a5,		                /* display all points, ST7565 */
  67:.\u8glib_arm_v1.18.1\src/u8g_dev_st7565_nhd_c12832.c ****   U8G_ESC_DLY(100),       /* delay 100 ms */
  68:.\u8glib_arm_v1.18.1\src/u8g_dev_st7565_nhd_c12832.c ****   U8G_ESC_DLY(100),       /* delay 100 ms */
  69:.\u8glib_arm_v1.18.1\src/u8g_dev_st7565_nhd_c12832.c ****   0x0a4,		                /* normal display */
  70:.\u8glib_arm_v1.18.1\src/u8g_dev_st7565_nhd_c12832.c ****   U8G_ESC_CS(0),             /* disable chip */
  71:.\u8glib_arm_v1.18.1\src/u8g_dev_st7565_nhd_c12832.c ****   U8G_ESC_END                /* end of sequence */
  72:.\u8glib_arm_v1.18.1\src/u8g_dev_st7565_nhd_c12832.c **** };
  73:.\u8glib_arm_v1.18.1\src/u8g_dev_st7565_nhd_c12832.c **** 
  74:.\u8glib_arm_v1.18.1\src/u8g_dev_st7565_nhd_c12832.c **** static const uint8_t u8g_dev_st7565_c12832_data_start[] PROGMEM = {
  75:.\u8glib_arm_v1.18.1\src/u8g_dev_st7565_nhd_c12832.c ****   U8G_ESC_ADR(0),           /* instruction mode */
  76:.\u8glib_arm_v1.18.1\src/u8g_dev_st7565_nhd_c12832.c ****   U8G_ESC_CS(1),             /* enable chip */
  77:.\u8glib_arm_v1.18.1\src/u8g_dev_st7565_nhd_c12832.c ****   0x010,		/* set upper 4 bit of the col adr to 0 */
  78:.\u8glib_arm_v1.18.1\src/u8g_dev_st7565_nhd_c12832.c ****   0x000,		/* set lower 4 bit of the col adr to 0  */
  79:.\u8glib_arm_v1.18.1\src/u8g_dev_st7565_nhd_c12832.c ****   U8G_ESC_END                /* end of sequence */
  80:.\u8glib_arm_v1.18.1\src/u8g_dev_st7565_nhd_c12832.c **** };
  81:.\u8glib_arm_v1.18.1\src/u8g_dev_st7565_nhd_c12832.c **** 
  82:.\u8glib_arm_v1.18.1\src/u8g_dev_st7565_nhd_c12832.c **** static const uint8_t u8g_dev_st7565_c12832_sleep_on[] PROGMEM = {
  83:.\u8glib_arm_v1.18.1\src/u8g_dev_st7565_nhd_c12832.c ****   U8G_ESC_ADR(0),           /* instruction mode */
  84:.\u8glib_arm_v1.18.1\src/u8g_dev_st7565_nhd_c12832.c ****   U8G_ESC_CS(1),             /* enable chip */
  85:.\u8glib_arm_v1.18.1\src/u8g_dev_st7565_nhd_c12832.c ****   0x0ac,		/* static indicator off */
  86:.\u8glib_arm_v1.18.1\src/u8g_dev_st7565_nhd_c12832.c ****   0x000,		                /* indicator register set (not sure if this is required) */
  87:.\u8glib_arm_v1.18.1\src/u8g_dev_st7565_nhd_c12832.c ****   0x0ae,		/* display off */      
  88:.\u8glib_arm_v1.18.1\src/u8g_dev_st7565_nhd_c12832.c ****   0x0a5,		/* all points on */      
  89:.\u8glib_arm_v1.18.1\src/u8g_dev_st7565_nhd_c12832.c ****   U8G_ESC_CS(0),             /* disable chip, bugfix 12 nov 2014 */
  90:.\u8glib_arm_v1.18.1\src/u8g_dev_st7565_nhd_c12832.c ****   U8G_ESC_END                /* end of sequence */
  91:.\u8glib_arm_v1.18.1\src/u8g_dev_st7565_nhd_c12832.c **** };
  92:.\u8glib_arm_v1.18.1\src/u8g_dev_st7565_nhd_c12832.c **** 
  93:.\u8glib_arm_v1.18.1\src/u8g_dev_st7565_nhd_c12832.c **** static const uint8_t u8g_dev_st7565_c12832_sleep_off[] PROGMEM = {
  94:.\u8glib_arm_v1.18.1\src/u8g_dev_st7565_nhd_c12832.c ****   U8G_ESC_ADR(0),           /* instruction mode */
  95:.\u8glib_arm_v1.18.1\src/u8g_dev_st7565_nhd_c12832.c ****   U8G_ESC_CS(1),             /* enable chip */
  96:.\u8glib_arm_v1.18.1\src/u8g_dev_st7565_nhd_c12832.c ****   0x0a4,		/* all points off */      
  97:.\u8glib_arm_v1.18.1\src/u8g_dev_st7565_nhd_c12832.c ****   0x0af,		/* display on */      
  98:.\u8glib_arm_v1.18.1\src/u8g_dev_st7565_nhd_c12832.c ****   U8G_ESC_DLY(50),       /* delay 50 ms */
  99:.\u8glib_arm_v1.18.1\src/u8g_dev_st7565_nhd_c12832.c ****   U8G_ESC_CS(0),             /* disable chip, bugfix 12 nov 2014 */
 100:.\u8glib_arm_v1.18.1\src/u8g_dev_st7565_nhd_c12832.c ****   U8G_ESC_END                /* end of sequence */
 101:.\u8glib_arm_v1.18.1\src/u8g_dev_st7565_nhd_c12832.c **** };
 102:.\u8glib_arm_v1.18.1\src/u8g_dev_st7565_nhd_c12832.c **** 
 103:.\u8glib_arm_v1.18.1\src/u8g_dev_st7565_nhd_c12832.c **** uint8_t u8g_dev_st7565_c12832_fn(u8g_t *u8g, u8g_dev_t *dev, uint8_t msg, void *arg)
 104:.\u8glib_arm_v1.18.1\src/u8g_dev_st7565_nhd_c12832.c **** {
 110              		.loc 1 104 0
 111              		.cfi_startproc
 112              		@ args = 0, pretend = 0, frame = 24
 113              		@ frame_needed = 1, uses_anonymous_args = 0
 114 0000 80B5     		push	{r7, lr}
 115              		.cfi_def_cfa_offset 8
 116              		.cfi_offset 7, -8
 117              		.cfi_offset 14, -4
 118 0002 86B0     		sub	sp, sp, #24
 119              		.cfi_def_cfa_offset 32
 120 0004 00AF     		add	r7, sp, #0
 121              		.cfi_def_cfa_register 7
 122 0006 F860     		str	r0, [r7, #12]
 123 0008 B960     		str	r1, [r7, #8]
 124 000a 3B60     		str	r3, [r7]
ARM GAS  C:\Users\Shiguruy\AppData\Local\Temp\ccEE2pBb.s 			page 5


 125 000c 1346     		mov	r3, r2
 126 000e FB71     		strb	r3, [r7, #7]
 105:.\u8glib_arm_v1.18.1\src/u8g_dev_st7565_nhd_c12832.c ****   switch(msg)
 127              		.loc 1 105 0
 128 0010 FB79     		ldrb	r3, [r7, #7]	@ zero_extendqisi2
 129 0012 0A3B     		subs	r3, r3, #10
 130 0014 0B2B     		cmp	r3, #11
 131 0016 7AD8     		bhi	.L2
 132 0018 01A2     		adr	r2, .L4
 133 001a 52F823F0 		ldr	pc, [r2, r3, lsl #2]
 134 001e 00BF     		.p2align 2
 135              	.L4:
 136 0020 51000000 		.word	.L3+1
 137 0024 0F010000 		.word	.L2+1
 138 0028 0F010000 		.word	.L2+1
 139 002c 0F010000 		.word	.L2+1
 140 0030 0F010000 		.word	.L2+1
 141 0034 B5000000 		.word	.L6+1
 142 0038 F3000000 		.word	.L7+1
 143 003c 01010000 		.word	.L8+1
 144 0040 0F010000 		.word	.L2+1
 145 0044 0F010000 		.word	.L2+1
 146 0048 0F010000 		.word	.L2+1
 147 004c 67000000 		.word	.L9+1
 148              		.p2align 1
 149              	.L3:
 106:.\u8glib_arm_v1.18.1\src/u8g_dev_st7565_nhd_c12832.c ****   {
 107:.\u8glib_arm_v1.18.1\src/u8g_dev_st7565_nhd_c12832.c ****     case U8G_DEV_MSG_INIT:
 108:.\u8glib_arm_v1.18.1\src/u8g_dev_st7565_nhd_c12832.c ****       u8g_InitCom(u8g, dev, U8G_SPI_CLK_CYCLE_400NS);
 150              		.loc 1 108 0
 151 0050 F868     		ldr	r0, [r7, #12]
 152 0052 B968     		ldr	r1, [r7, #8]
 153 0054 0322     		movs	r2, #3
 154 0056 FFF7FEFF 		bl	u8g_InitCom
 109:.\u8glib_arm_v1.18.1\src/u8g_dev_st7565_nhd_c12832.c ****       u8g_WriteEscSeqP(u8g, dev, u8g_dev_st7565_c12832_init_seq);
 155              		.loc 1 109 0
 156 005a F868     		ldr	r0, [r7, #12]
 157 005c B968     		ldr	r1, [r7, #8]
 158 005e 324A     		ldr	r2, .L12
 159 0060 FFF7FEFF 		bl	u8g_WriteEscSeqP
 110:.\u8glib_arm_v1.18.1\src/u8g_dev_st7565_nhd_c12832.c ****       break;
 160              		.loc 1 110 0
 161 0064 53E0     		b	.L2
 162              	.L9:
 163              	.LBB2:
 111:.\u8glib_arm_v1.18.1\src/u8g_dev_st7565_nhd_c12832.c ****     case U8G_DEV_MSG_STOP:
 112:.\u8glib_arm_v1.18.1\src/u8g_dev_st7565_nhd_c12832.c ****       break;
 113:.\u8glib_arm_v1.18.1\src/u8g_dev_st7565_nhd_c12832.c ****     case U8G_DEV_MSG_PAGE_NEXT:
 114:.\u8glib_arm_v1.18.1\src/u8g_dev_st7565_nhd_c12832.c ****       {
 115:.\u8glib_arm_v1.18.1\src/u8g_dev_st7565_nhd_c12832.c ****         u8g_pb_t *pb = (u8g_pb_t *)(dev->dev_mem);
 164              		.loc 1 115 0
 165 0066 BB68     		ldr	r3, [r7, #8]
 166 0068 5B68     		ldr	r3, [r3, #4]
 167 006a 7B61     		str	r3, [r7, #20]
 116:.\u8glib_arm_v1.18.1\src/u8g_dev_st7565_nhd_c12832.c ****         u8g_WriteEscSeqP(u8g, dev, u8g_dev_st7565_c12832_data_start);    
 168              		.loc 1 116 0
 169 006c F868     		ldr	r0, [r7, #12]
ARM GAS  C:\Users\Shiguruy\AppData\Local\Temp\ccEE2pBb.s 			page 6


 170 006e B968     		ldr	r1, [r7, #8]
 171 0070 2E4A     		ldr	r2, .L12+4
 172 0072 FFF7FEFF 		bl	u8g_WriteEscSeqP
 117:.\u8glib_arm_v1.18.1\src/u8g_dev_st7565_nhd_c12832.c ****         u8g_WriteByte(u8g, dev, 0x0b0 | pb->p.page); /* select current page (ST7565R) */
 173              		.loc 1 117 0
 174 0076 7B69     		ldr	r3, [r7, #20]
 175 0078 1B79     		ldrb	r3, [r3, #4]	@ zero_extendqisi2
 176 007a 63F04F03 		orn	r3, r3, #79
 177 007e DBB2     		uxtb	r3, r3
 178 0080 F868     		ldr	r0, [r7, #12]
 179 0082 B968     		ldr	r1, [r7, #8]
 180 0084 1A46     		mov	r2, r3
 181 0086 FFF7FEFF 		bl	u8g_WriteByte
 118:.\u8glib_arm_v1.18.1\src/u8g_dev_st7565_nhd_c12832.c ****         u8g_SetAddress(u8g, dev, 1);           /* data mode */
 182              		.loc 1 118 0
 183 008a F868     		ldr	r0, [r7, #12]
 184 008c B968     		ldr	r1, [r7, #8]
 185 008e 0122     		movs	r2, #1
 186 0090 FFF7FEFF 		bl	u8g_SetAddress
 119:.\u8glib_arm_v1.18.1\src/u8g_dev_st7565_nhd_c12832.c ****         if ( u8g_pb_WriteBuffer(pb, u8g, dev) == 0 )
 187              		.loc 1 119 0
 188 0094 7869     		ldr	r0, [r7, #20]
 189 0096 F968     		ldr	r1, [r7, #12]
 190 0098 BA68     		ldr	r2, [r7, #8]
 191 009a FFF7FEFF 		bl	u8g_pb_WriteBuffer
 192 009e 0346     		mov	r3, r0
 193 00a0 002B     		cmp	r3, #0
 194 00a2 01D1     		bne	.L10
 120:.\u8glib_arm_v1.18.1\src/u8g_dev_st7565_nhd_c12832.c ****           return 0;
 195              		.loc 1 120 0
 196 00a4 0023     		movs	r3, #0
 197 00a6 3AE0     		b	.L11
 198              	.L10:
 121:.\u8glib_arm_v1.18.1\src/u8g_dev_st7565_nhd_c12832.c ****         u8g_SetChipSelect(u8g, dev, 0);
 199              		.loc 1 121 0
 200 00a8 F868     		ldr	r0, [r7, #12]
 201 00aa B968     		ldr	r1, [r7, #8]
 202 00ac 0022     		movs	r2, #0
 203 00ae FFF7FEFF 		bl	u8g_SetChipSelect
 204              	.LBE2:
 122:.\u8glib_arm_v1.18.1\src/u8g_dev_st7565_nhd_c12832.c ****       }
 123:.\u8glib_arm_v1.18.1\src/u8g_dev_st7565_nhd_c12832.c ****       break;
 205              		.loc 1 123 0
 206 00b2 2CE0     		b	.L2
 207              	.L6:
 124:.\u8glib_arm_v1.18.1\src/u8g_dev_st7565_nhd_c12832.c ****     case U8G_DEV_MSG_CONTRAST:
 125:.\u8glib_arm_v1.18.1\src/u8g_dev_st7565_nhd_c12832.c ****       u8g_SetChipSelect(u8g, dev, 1);
 208              		.loc 1 125 0
 209 00b4 F868     		ldr	r0, [r7, #12]
 210 00b6 B968     		ldr	r1, [r7, #8]
 211 00b8 0122     		movs	r2, #1
 212 00ba FFF7FEFF 		bl	u8g_SetChipSelect
 126:.\u8glib_arm_v1.18.1\src/u8g_dev_st7565_nhd_c12832.c ****       u8g_SetAddress(u8g, dev, 0);          /* instruction mode */
 213              		.loc 1 126 0
 214 00be F868     		ldr	r0, [r7, #12]
 215 00c0 B968     		ldr	r1, [r7, #8]
 216 00c2 0022     		movs	r2, #0
ARM GAS  C:\Users\Shiguruy\AppData\Local\Temp\ccEE2pBb.s 			page 7


 217 00c4 FFF7FEFF 		bl	u8g_SetAddress
 127:.\u8glib_arm_v1.18.1\src/u8g_dev_st7565_nhd_c12832.c ****       u8g_WriteByte(u8g, dev, 0x081);
 218              		.loc 1 127 0
 219 00c8 F868     		ldr	r0, [r7, #12]
 220 00ca B968     		ldr	r1, [r7, #8]
 221 00cc 8122     		movs	r2, #129
 222 00ce FFF7FEFF 		bl	u8g_WriteByte
 128:.\u8glib_arm_v1.18.1\src/u8g_dev_st7565_nhd_c12832.c ****       u8g_WriteByte(u8g, dev, (*(uint8_t *)arg) >> 2);
 223              		.loc 1 128 0
 224 00d2 3B68     		ldr	r3, [r7]
 225 00d4 1B78     		ldrb	r3, [r3]	@ zero_extendqisi2
 226 00d6 9B08     		lsrs	r3, r3, #2
 227 00d8 DBB2     		uxtb	r3, r3
 228 00da F868     		ldr	r0, [r7, #12]
 229 00dc B968     		ldr	r1, [r7, #8]
 230 00de 1A46     		mov	r2, r3
 231 00e0 FFF7FEFF 		bl	u8g_WriteByte
 129:.\u8glib_arm_v1.18.1\src/u8g_dev_st7565_nhd_c12832.c ****       u8g_SetChipSelect(u8g, dev, 0);      
 232              		.loc 1 129 0
 233 00e4 F868     		ldr	r0, [r7, #12]
 234 00e6 B968     		ldr	r1, [r7, #8]
 235 00e8 0022     		movs	r2, #0
 236 00ea FFF7FEFF 		bl	u8g_SetChipSelect
 130:.\u8glib_arm_v1.18.1\src/u8g_dev_st7565_nhd_c12832.c ****       return 1;
 237              		.loc 1 130 0
 238 00ee 0123     		movs	r3, #1
 239 00f0 15E0     		b	.L11
 240              	.L7:
 131:.\u8glib_arm_v1.18.1\src/u8g_dev_st7565_nhd_c12832.c ****     case U8G_DEV_MSG_SLEEP_ON:
 132:.\u8glib_arm_v1.18.1\src/u8g_dev_st7565_nhd_c12832.c ****       u8g_WriteEscSeqP(u8g, dev, u8g_dev_st7565_c12832_sleep_on);    
 241              		.loc 1 132 0
 242 00f2 F868     		ldr	r0, [r7, #12]
 243 00f4 B968     		ldr	r1, [r7, #8]
 244 00f6 0E4A     		ldr	r2, .L12+8
 245 00f8 FFF7FEFF 		bl	u8g_WriteEscSeqP
 133:.\u8glib_arm_v1.18.1\src/u8g_dev_st7565_nhd_c12832.c ****       return 1;
 246              		.loc 1 133 0
 247 00fc 0123     		movs	r3, #1
 248 00fe 0EE0     		b	.L11
 249              	.L8:
 134:.\u8glib_arm_v1.18.1\src/u8g_dev_st7565_nhd_c12832.c ****     case U8G_DEV_MSG_SLEEP_OFF:
 135:.\u8glib_arm_v1.18.1\src/u8g_dev_st7565_nhd_c12832.c ****       u8g_WriteEscSeqP(u8g, dev, u8g_dev_st7565_c12832_sleep_off);    
 250              		.loc 1 135 0
 251 0100 F868     		ldr	r0, [r7, #12]
 252 0102 B968     		ldr	r1, [r7, #8]
 253 0104 0B4A     		ldr	r2, .L12+12
 254 0106 FFF7FEFF 		bl	u8g_WriteEscSeqP
 136:.\u8glib_arm_v1.18.1\src/u8g_dev_st7565_nhd_c12832.c ****       return 1;
 255              		.loc 1 136 0
 256 010a 0123     		movs	r3, #1
 257 010c 07E0     		b	.L11
 258              	.L2:
 137:.\u8glib_arm_v1.18.1\src/u8g_dev_st7565_nhd_c12832.c ****   }
 138:.\u8glib_arm_v1.18.1\src/u8g_dev_st7565_nhd_c12832.c ****   return u8g_dev_pb8v1_base_fn(u8g, dev, msg, arg);
 259              		.loc 1 138 0
 260 010e FB79     		ldrb	r3, [r7, #7]	@ zero_extendqisi2
 261 0110 F868     		ldr	r0, [r7, #12]
ARM GAS  C:\Users\Shiguruy\AppData\Local\Temp\ccEE2pBb.s 			page 8


 262 0112 B968     		ldr	r1, [r7, #8]
 263 0114 1A46     		mov	r2, r3
 264 0116 3B68     		ldr	r3, [r7]
 265 0118 FFF7FEFF 		bl	u8g_dev_pb8v1_base_fn
 266 011c 0346     		mov	r3, r0
 267              	.L11:
 139:.\u8glib_arm_v1.18.1\src/u8g_dev_st7565_nhd_c12832.c **** }
 268              		.loc 1 139 0
 269 011e 1846     		mov	r0, r3
 270 0120 1837     		adds	r7, r7, #24
 271              		.cfi_def_cfa_offset 8
 272 0122 BD46     		mov	sp, r7
 273              		.cfi_def_cfa_register 13
 274              		@ sp needed
 275 0124 80BD     		pop	{r7, pc}
 276              	.L13:
 277 0126 00BF     		.align	2
 278              	.L12:
 279 0128 00000000 		.word	u8g_dev_st7565_c12832_init_seq
 280 012c 24000000 		.word	u8g_dev_st7565_c12832_data_start
 281 0130 2C000000 		.word	u8g_dev_st7565_c12832_sleep_on
 282 0134 38000000 		.word	u8g_dev_st7565_c12832_sleep_off
 283              		.cfi_endproc
 284              	.LFE0:
 285              		.size	u8g_dev_st7565_c12832_fn, .-u8g_dev_st7565_c12832_fn
 286              		.global	u8g_dev_st7565_nhd_c12832_sw_spi_buf
 287              		.bss
 288              		.align	2
 289              		.type	u8g_dev_st7565_nhd_c12832_sw_spi_buf, %object
 290              		.size	u8g_dev_st7565_nhd_c12832_sw_spi_buf, 128
 291              	u8g_dev_st7565_nhd_c12832_sw_spi_buf:
 292 0000 00000000 		.space	128
 292      00000000 
 292      00000000 
 292      00000000 
 292      00000000 
 293              		.global	u8g_dev_st7565_nhd_c12832_sw_spi_pb
 294              		.data
 295              		.align	2
 296              		.type	u8g_dev_st7565_nhd_c12832_sw_spi_pb, %object
 297              		.size	u8g_dev_st7565_nhd_c12832_sw_spi_pb, 12
 298              	u8g_dev_st7565_nhd_c12832_sw_spi_pb:
 299 0000 08       		.byte	8
 300 0001 20       		.byte	32
 301 0002 00       		.byte	0
 302 0003 00       		.byte	0
 303 0004 00       		.byte	0
 304 0005 80       		.byte	-128
 305 0006 0000     		.space	2
 306 0008 00000000 		.word	u8g_dev_st7565_nhd_c12832_sw_spi_buf
 307              		.global	u8g_dev_st7565_nhd_c12832_sw_spi
 308              		.align	2
 309              		.type	u8g_dev_st7565_nhd_c12832_sw_spi, %object
 310              		.size	u8g_dev_st7565_nhd_c12832_sw_spi, 12
 311              	u8g_dev_st7565_nhd_c12832_sw_spi:
 312 000c 00000000 		.word	u8g_dev_st7565_c12832_fn
 313 0010 00000000 		.word	u8g_dev_st7565_nhd_c12832_sw_spi_pb
ARM GAS  C:\Users\Shiguruy\AppData\Local\Temp\ccEE2pBb.s 			page 9


 314 0014 00000000 		.word	u8g_com_null_fn
 315              		.global	u8g_dev_st7565_nhd_c12832_hw_spi_buf
 316              		.bss
 317              		.align	2
 318              		.type	u8g_dev_st7565_nhd_c12832_hw_spi_buf, %object
 319              		.size	u8g_dev_st7565_nhd_c12832_hw_spi_buf, 128
 320              	u8g_dev_st7565_nhd_c12832_hw_spi_buf:
 321 0080 00000000 		.space	128
 321      00000000 
 321      00000000 
 321      00000000 
 321      00000000 
 322              		.global	u8g_dev_st7565_nhd_c12832_hw_spi_pb
 323              		.data
 324              		.align	2
 325              		.type	u8g_dev_st7565_nhd_c12832_hw_spi_pb, %object
 326              		.size	u8g_dev_st7565_nhd_c12832_hw_spi_pb, 12
 327              	u8g_dev_st7565_nhd_c12832_hw_spi_pb:
 328 0018 08       		.byte	8
 329 0019 20       		.byte	32
 330 001a 00       		.byte	0
 331 001b 00       		.byte	0
 332 001c 00       		.byte	0
 333 001d 80       		.byte	-128
 334 001e 0000     		.space	2
 335 0020 00000000 		.word	u8g_dev_st7565_nhd_c12832_hw_spi_buf
 336              		.global	u8g_dev_st7565_nhd_c12832_hw_spi
 337              		.align	2
 338              		.type	u8g_dev_st7565_nhd_c12832_hw_spi, %object
 339              		.size	u8g_dev_st7565_nhd_c12832_hw_spi, 12
 340              	u8g_dev_st7565_nhd_c12832_hw_spi:
 341 0024 00000000 		.word	u8g_dev_st7565_c12832_fn
 342 0028 00000000 		.word	u8g_dev_st7565_nhd_c12832_hw_spi_pb
 343 002c 00000000 		.word	u8g_com_null_fn
 344              		.global	u8g_dev_st7565_nhd_c12832_parallel_buf
 345              		.bss
 346              		.align	2
 347              		.type	u8g_dev_st7565_nhd_c12832_parallel_buf, %object
 348              		.size	u8g_dev_st7565_nhd_c12832_parallel_buf, 128
 349              	u8g_dev_st7565_nhd_c12832_parallel_buf:
 350 0100 00000000 		.space	128
 350      00000000 
 350      00000000 
 350      00000000 
 350      00000000 
 351              		.global	u8g_dev_st7565_nhd_c12832_parallel_pb
 352              		.data
 353              		.align	2
 354              		.type	u8g_dev_st7565_nhd_c12832_parallel_pb, %object
 355              		.size	u8g_dev_st7565_nhd_c12832_parallel_pb, 12
 356              	u8g_dev_st7565_nhd_c12832_parallel_pb:
 357 0030 08       		.byte	8
 358 0031 20       		.byte	32
 359 0032 00       		.byte	0
 360 0033 00       		.byte	0
 361 0034 00       		.byte	0
 362 0035 80       		.byte	-128
ARM GAS  C:\Users\Shiguruy\AppData\Local\Temp\ccEE2pBb.s 			page 10


 363 0036 0000     		.space	2
 364 0038 00000000 		.word	u8g_dev_st7565_nhd_c12832_parallel_buf
 365              		.global	u8g_dev_st7565_nhd_c12832_parallel
 366              		.align	2
 367              		.type	u8g_dev_st7565_nhd_c12832_parallel, %object
 368              		.size	u8g_dev_st7565_nhd_c12832_parallel, 12
 369              	u8g_dev_st7565_nhd_c12832_parallel:
 370 003c 00000000 		.word	u8g_dev_st7565_c12832_fn
 371 0040 00000000 		.word	u8g_dev_st7565_nhd_c12832_parallel_pb
 372 0044 00000000 		.word	u8g_com_null_fn
 373              		.global	u8g_dev_st7565_nhd_c12832_hw_usart_spi_buf
 374              		.bss
 375              		.align	2
 376              		.type	u8g_dev_st7565_nhd_c12832_hw_usart_spi_buf, %object
 377              		.size	u8g_dev_st7565_nhd_c12832_hw_usart_spi_buf, 128
 378              	u8g_dev_st7565_nhd_c12832_hw_usart_spi_buf:
 379 0180 00000000 		.space	128
 379      00000000 
 379      00000000 
 379      00000000 
 379      00000000 
 380              		.global	u8g_dev_st7565_nhd_c12832_hw_usart_spi_pb
 381              		.data
 382              		.align	2
 383              		.type	u8g_dev_st7565_nhd_c12832_hw_usart_spi_pb, %object
 384              		.size	u8g_dev_st7565_nhd_c12832_hw_usart_spi_pb, 12
 385              	u8g_dev_st7565_nhd_c12832_hw_usart_spi_pb:
 386 0048 08       		.byte	8
 387 0049 20       		.byte	32
 388 004a 00       		.byte	0
 389 004b 00       		.byte	0
 390 004c 00       		.byte	0
 391 004d 80       		.byte	-128
 392 004e 0000     		.space	2
 393 0050 00000000 		.word	u8g_dev_st7565_nhd_c12832_hw_usart_spi_buf
 394              		.global	u8g_dev_st7565_nhd_c12832_hw_usart_spi
 395              		.align	2
 396              		.type	u8g_dev_st7565_nhd_c12832_hw_usart_spi, %object
 397              		.size	u8g_dev_st7565_nhd_c12832_hw_usart_spi, 12
 398              	u8g_dev_st7565_nhd_c12832_hw_usart_spi:
 399 0054 00000000 		.word	u8g_dev_st7565_c12832_fn
 400 0058 00000000 		.word	u8g_dev_st7565_nhd_c12832_hw_usart_spi_pb
 401 005c 00000000 		.word	u8g_com_null_fn
 402              		.text
 403              	.Letext0:
 404              		.file 2 "c:\\program files (x86)\\cypress\\psoc creator\\3.3\\psoc creator\\import\\gnu\\arm\\4.9.
 405              		.file 3 "c:\\program files (x86)\\cypress\\psoc creator\\3.3\\psoc creator\\import\\gnu\\arm\\4.9.
 406              		.file 4 ".\\u8glib_arm_v1.18.1\\src\\u8g.h"