ARM GAS  C:\Users\Shiguruy\AppData\Local\Temp\ccb2bMsH.s 			page 1


   1              		.syntax unified
   2              		.cpu cortex-m3
   3              		.fpu softvfp
   4              		.eabi_attribute 20, 1
   5              		.eabi_attribute 21, 1
   6              		.eabi_attribute 23, 3
   7              		.eabi_attribute 24, 1
   8              		.eabi_attribute 25, 1
   9              		.eabi_attribute 26, 1
  10              		.eabi_attribute 30, 6
  11              		.eabi_attribute 34, 1
  12              		.eabi_attribute 18, 4
  13              		.thumb
  14              		.file	"u8g_dev_uc1701_dogs102.c"
  15              		.text
  16              	.Ltext0:
  17              		.cfi_sections	.debug_frame
  18              		.section	.rodata
  19              		.align	2
  20              		.type	u8g_dev_dogs102_init_seq, %object
  21              		.size	u8g_dev_dogs102_init_seq, 34
  22              	u8g_dev_dogs102_init_seq:
  23 0000 FF       		.byte	-1
  24 0001 D0       		.byte	-48
  25 0002 FF       		.byte	-1
  26 0003 E0       		.byte	-32
  27 0004 FF       		.byte	-1
  28 0005 C1       		.byte	-63
  29 0006 FF       		.byte	-1
  30 0007 D1       		.byte	-47
  31 0008 E2       		.byte	-30
  32 0009 40       		.byte	64
  33 000a A1       		.byte	-95
  34 000b C0       		.byte	-64
  35 000c A6       		.byte	-90
  36 000d A2       		.byte	-94
  37 000e 2F       		.byte	47
  38 000f 27       		.byte	39
  39 0010 81       		.byte	-127
  40 0011 0E       		.byte	14
  41 0012 FA       		.byte	-6
  42 0013 90       		.byte	-112
  43 0014 A4       		.byte	-92
  44 0015 AF       		.byte	-81
  45 0016 FF       		.byte	-1
  46 0017 64       		.byte	100
  47 0018 A5       		.byte	-91
  48 0019 FF       		.byte	-1
  49 001a 64       		.byte	100
  50 001b FF       		.byte	-1
  51 001c 64       		.byte	100
  52 001d A4       		.byte	-92
  53 001e FF       		.byte	-1
  54 001f D0       		.byte	-48
  55 0020 FF       		.byte	-1
  56 0021 FE       		.byte	-2
  57 0022 0000     		.align	2
ARM GAS  C:\Users\Shiguruy\AppData\Local\Temp\ccb2bMsH.s 			page 2


  58              		.type	u8g_dev_dogs102_data_start, %object
  59              		.size	u8g_dev_dogs102_data_start, 8
  60              	u8g_dev_dogs102_data_start:
  61 0024 FF       		.byte	-1
  62 0025 E0       		.byte	-32
  63 0026 FF       		.byte	-1
  64 0027 D1       		.byte	-47
  65 0028 10       		.byte	16
  66 0029 00       		.byte	0
  67 002a FF       		.byte	-1
  68 002b FE       		.byte	-2
  69              		.section	.text.u8g_dev_dogs102_fn,"ax",%progbits
  70              		.align	2
  71              		.global	u8g_dev_dogs102_fn
  72              		.thumb
  73              		.thumb_func
  74              		.type	u8g_dev_dogs102_fn, %function
  75              	u8g_dev_dogs102_fn:
  76              	.LFB0:
  77              		.file 1 ".\\u8glib_arm_v1.18.1\\src\\u8g_dev_uc1701_dogs102.c"
   1:.\u8glib_arm_v1.18.1\src/u8g_dev_uc1701_dogs102.c **** /*
   2:.\u8glib_arm_v1.18.1\src/u8g_dev_uc1701_dogs102.c **** 
   3:.\u8glib_arm_v1.18.1\src/u8g_dev_uc1701_dogs102.c ****   u8g_dev_uc1701_dogs102.c
   4:.\u8glib_arm_v1.18.1\src/u8g_dev_uc1701_dogs102.c **** 
   5:.\u8glib_arm_v1.18.1\src/u8g_dev_uc1701_dogs102.c ****   Universal 8bit Graphics Library
   6:.\u8glib_arm_v1.18.1\src/u8g_dev_uc1701_dogs102.c ****   
   7:.\u8glib_arm_v1.18.1\src/u8g_dev_uc1701_dogs102.c ****   Copyright (c) 2011, olikraus@gmail.com
   8:.\u8glib_arm_v1.18.1\src/u8g_dev_uc1701_dogs102.c ****   All rights reserved.
   9:.\u8glib_arm_v1.18.1\src/u8g_dev_uc1701_dogs102.c **** 
  10:.\u8glib_arm_v1.18.1\src/u8g_dev_uc1701_dogs102.c ****   Redistribution and use in source and binary forms, with or without modification, 
  11:.\u8glib_arm_v1.18.1\src/u8g_dev_uc1701_dogs102.c ****   are permitted provided that the following conditions are met:
  12:.\u8glib_arm_v1.18.1\src/u8g_dev_uc1701_dogs102.c **** 
  13:.\u8glib_arm_v1.18.1\src/u8g_dev_uc1701_dogs102.c ****   * Redistributions of source code must retain the above copyright notice, this list 
  14:.\u8glib_arm_v1.18.1\src/u8g_dev_uc1701_dogs102.c ****     of conditions and the following disclaimer.
  15:.\u8glib_arm_v1.18.1\src/u8g_dev_uc1701_dogs102.c ****     
  16:.\u8glib_arm_v1.18.1\src/u8g_dev_uc1701_dogs102.c ****   * Redistributions in binary form must reproduce the above copyright notice, this 
  17:.\u8glib_arm_v1.18.1\src/u8g_dev_uc1701_dogs102.c ****     list of conditions and the following disclaimer in the documentation and/or other 
  18:.\u8glib_arm_v1.18.1\src/u8g_dev_uc1701_dogs102.c ****     materials provided with the distribution.
  19:.\u8glib_arm_v1.18.1\src/u8g_dev_uc1701_dogs102.c **** 
  20:.\u8glib_arm_v1.18.1\src/u8g_dev_uc1701_dogs102.c ****   THIS SOFTWARE IS PROVIDED BY THE COPYRIGHT HOLDERS AND 
  21:.\u8glib_arm_v1.18.1\src/u8g_dev_uc1701_dogs102.c ****   CONTRIBUTORS "AS IS" AND ANY EXPRESS OR IMPLIED WARRANTIES, 
  22:.\u8glib_arm_v1.18.1\src/u8g_dev_uc1701_dogs102.c ****   INCLUDING, BUT NOT LIMITED TO, THE IMPLIED WARRANTIES OF 
  23:.\u8glib_arm_v1.18.1\src/u8g_dev_uc1701_dogs102.c ****   MERCHANTABILITY AND FITNESS FOR A PARTICULAR PURPOSE ARE 
  24:.\u8glib_arm_v1.18.1\src/u8g_dev_uc1701_dogs102.c ****   DISCLAIMED. IN NO EVENT SHALL THE COPYRIGHT HOLDER OR 
  25:.\u8glib_arm_v1.18.1\src/u8g_dev_uc1701_dogs102.c ****   CONTRIBUTORS BE LIABLE FOR ANY DIRECT, INDIRECT, INCIDENTAL, 
  26:.\u8glib_arm_v1.18.1\src/u8g_dev_uc1701_dogs102.c ****   SPECIAL, EXEMPLARY, OR CONSEQUENTIAL DAMAGES (INCLUDING, BUT 
  27:.\u8glib_arm_v1.18.1\src/u8g_dev_uc1701_dogs102.c ****   NOT LIMITED TO, PROCUREMENT OF SUBSTITUTE GOODS OR SERVICES; 
  28:.\u8glib_arm_v1.18.1\src/u8g_dev_uc1701_dogs102.c ****   LOSS OF USE, DATA, OR PROFITS; OR BUSINESS INTERRUPTION) HOWEVER 
  29:.\u8glib_arm_v1.18.1\src/u8g_dev_uc1701_dogs102.c ****   CAUSED AND ON ANY THEORY OF LIABILITY, WHETHER IN CONTRACT, 
  30:.\u8glib_arm_v1.18.1\src/u8g_dev_uc1701_dogs102.c ****   STRICT LIABILITY, OR TORT (INCLUDING NEGLIGENCE OR OTHERWISE) 
  31:.\u8glib_arm_v1.18.1\src/u8g_dev_uc1701_dogs102.c ****   ARISING IN ANY WAY OUT OF THE USE OF THIS SOFTWARE, EVEN IF 
  32:.\u8glib_arm_v1.18.1\src/u8g_dev_uc1701_dogs102.c ****   ADVISED OF THE POSSIBILITY OF SUCH DAMAGE.  
  33:.\u8glib_arm_v1.18.1\src/u8g_dev_uc1701_dogs102.c ****   
  34:.\u8glib_arm_v1.18.1\src/u8g_dev_uc1701_dogs102.c ****   
  35:.\u8glib_arm_v1.18.1\src/u8g_dev_uc1701_dogs102.c **** */
  36:.\u8glib_arm_v1.18.1\src/u8g_dev_uc1701_dogs102.c **** 
  37:.\u8glib_arm_v1.18.1\src/u8g_dev_uc1701_dogs102.c **** #include "u8g.h"
ARM GAS  C:\Users\Shiguruy\AppData\Local\Temp\ccb2bMsH.s 			page 3


  38:.\u8glib_arm_v1.18.1\src/u8g_dev_uc1701_dogs102.c **** 
  39:.\u8glib_arm_v1.18.1\src/u8g_dev_uc1701_dogs102.c **** #define WIDTH 102
  40:.\u8glib_arm_v1.18.1\src/u8g_dev_uc1701_dogs102.c **** #define HEIGHT 64
  41:.\u8glib_arm_v1.18.1\src/u8g_dev_uc1701_dogs102.c **** #define PAGE_HEIGHT 8
  42:.\u8glib_arm_v1.18.1\src/u8g_dev_uc1701_dogs102.c **** 
  43:.\u8glib_arm_v1.18.1\src/u8g_dev_uc1701_dogs102.c **** static const uint8_t u8g_dev_dogs102_init_seq[] PROGMEM = {
  44:.\u8glib_arm_v1.18.1\src/u8g_dev_uc1701_dogs102.c ****   U8G_ESC_CS(0),             /* disable chip */
  45:.\u8glib_arm_v1.18.1\src/u8g_dev_uc1701_dogs102.c ****   U8G_ESC_ADR(0),           /* instruction mode */
  46:.\u8glib_arm_v1.18.1\src/u8g_dev_uc1701_dogs102.c ****   U8G_ESC_RST(1),           /* do reset low pulse with (1*16)+2 milliseconds */
  47:.\u8glib_arm_v1.18.1\src/u8g_dev_uc1701_dogs102.c ****   U8G_ESC_CS(1),             /* enable chip */
  48:.\u8glib_arm_v1.18.1\src/u8g_dev_uc1701_dogs102.c ****   
  49:.\u8glib_arm_v1.18.1\src/u8g_dev_uc1701_dogs102.c ****   0x0e2,            		/* soft reset */
  50:.\u8glib_arm_v1.18.1\src/u8g_dev_uc1701_dogs102.c ****   0x040,		                /* set display start line to 0 */
  51:.\u8glib_arm_v1.18.1\src/u8g_dev_uc1701_dogs102.c ****   0x0a1,		                /* ADC set to reverse */
  52:.\u8glib_arm_v1.18.1\src/u8g_dev_uc1701_dogs102.c ****   0x0c0,		                /* common output mode */
  53:.\u8glib_arm_v1.18.1\src/u8g_dev_uc1701_dogs102.c ****   0x0a6,		                /* display normal, bit val 0: LCD pixel off. */
  54:.\u8glib_arm_v1.18.1\src/u8g_dev_uc1701_dogs102.c ****   0x0a2,		                /* LCD bias 1/9 */
  55:.\u8glib_arm_v1.18.1\src/u8g_dev_uc1701_dogs102.c ****   0x02f,		                /* all power  control circuits on */
  56:.\u8glib_arm_v1.18.1\src/u8g_dev_uc1701_dogs102.c ****   0x027,		                /* regulator, booster and follower */
  57:.\u8glib_arm_v1.18.1\src/u8g_dev_uc1701_dogs102.c ****   0x081,		                /* set contrast */
  58:.\u8glib_arm_v1.18.1\src/u8g_dev_uc1701_dogs102.c ****   0x00e,		                /* contrast value, EA default: 0x010, previous value for S102: 0x0e */
  59:.\u8glib_arm_v1.18.1\src/u8g_dev_uc1701_dogs102.c ****   0x0fa,		                /* Set Temp compensation */ 
  60:.\u8glib_arm_v1.18.1\src/u8g_dev_uc1701_dogs102.c ****   0x090,		                /* 0.11 deg/c WP Off WC Off*/
  61:.\u8glib_arm_v1.18.1\src/u8g_dev_uc1701_dogs102.c ****   0x0a4,		                /* normal display  */
  62:.\u8glib_arm_v1.18.1\src/u8g_dev_uc1701_dogs102.c ****   0x0af,		                /* display on */
  63:.\u8glib_arm_v1.18.1\src/u8g_dev_uc1701_dogs102.c ****   U8G_ESC_DLY(100),       /* delay 100 ms */
  64:.\u8glib_arm_v1.18.1\src/u8g_dev_uc1701_dogs102.c ****   0x0a5,		                /* display all points, ST7565, UC1610 */
  65:.\u8glib_arm_v1.18.1\src/u8g_dev_uc1701_dogs102.c ****   U8G_ESC_DLY(100),       /* delay 100 ms */
  66:.\u8glib_arm_v1.18.1\src/u8g_dev_uc1701_dogs102.c ****   U8G_ESC_DLY(100),       /* delay 100 ms */
  67:.\u8glib_arm_v1.18.1\src/u8g_dev_uc1701_dogs102.c ****   0x0a4,		                /* normal display */
  68:.\u8glib_arm_v1.18.1\src/u8g_dev_uc1701_dogs102.c ****   U8G_ESC_CS(0),             /* disable chip */
  69:.\u8glib_arm_v1.18.1\src/u8g_dev_uc1701_dogs102.c ****   U8G_ESC_END                /* end of sequence */
  70:.\u8glib_arm_v1.18.1\src/u8g_dev_uc1701_dogs102.c **** };
  71:.\u8glib_arm_v1.18.1\src/u8g_dev_uc1701_dogs102.c **** 
  72:.\u8glib_arm_v1.18.1\src/u8g_dev_uc1701_dogs102.c **** static const uint8_t u8g_dev_dogs102_data_start[] PROGMEM = {
  73:.\u8glib_arm_v1.18.1\src/u8g_dev_uc1701_dogs102.c ****   U8G_ESC_ADR(0),           /* instruction mode */
  74:.\u8glib_arm_v1.18.1\src/u8g_dev_uc1701_dogs102.c ****   U8G_ESC_CS(1),             /* enable chip */
  75:.\u8glib_arm_v1.18.1\src/u8g_dev_uc1701_dogs102.c ****   0x010,		/* set upper 4 bit of the col adr to 0 */
  76:.\u8glib_arm_v1.18.1\src/u8g_dev_uc1701_dogs102.c ****   0x000,		/* set lower 4 bit of the col adr to 0 */      
  77:.\u8glib_arm_v1.18.1\src/u8g_dev_uc1701_dogs102.c ****   U8G_ESC_END                /* end of sequence */
  78:.\u8glib_arm_v1.18.1\src/u8g_dev_uc1701_dogs102.c **** };
  79:.\u8glib_arm_v1.18.1\src/u8g_dev_uc1701_dogs102.c **** 
  80:.\u8glib_arm_v1.18.1\src/u8g_dev_uc1701_dogs102.c **** uint8_t u8g_dev_dogs102_fn(u8g_t *u8g, u8g_dev_t *dev, uint8_t msg, void *arg)
  81:.\u8glib_arm_v1.18.1\src/u8g_dev_uc1701_dogs102.c **** {
  78              		.loc 1 81 0
  79              		.cfi_startproc
  80              		@ args = 0, pretend = 0, frame = 24
  81              		@ frame_needed = 1, uses_anonymous_args = 0
  82 0000 80B5     		push	{r7, lr}
  83              		.cfi_def_cfa_offset 8
  84              		.cfi_offset 7, -8
  85              		.cfi_offset 14, -4
  86 0002 86B0     		sub	sp, sp, #24
  87              		.cfi_def_cfa_offset 32
  88 0004 00AF     		add	r7, sp, #0
  89              		.cfi_def_cfa_register 7
  90 0006 F860     		str	r0, [r7, #12]
ARM GAS  C:\Users\Shiguruy\AppData\Local\Temp\ccb2bMsH.s 			page 4


  91 0008 B960     		str	r1, [r7, #8]
  92 000a 3B60     		str	r3, [r7]
  93 000c 1346     		mov	r3, r2
  94 000e FB71     		strb	r3, [r7, #7]
  82:.\u8glib_arm_v1.18.1\src/u8g_dev_uc1701_dogs102.c ****   switch(msg)
  95              		.loc 1 82 0
  96 0010 FB79     		ldrb	r3, [r7, #7]	@ zero_extendqisi2
  97 0012 0A3B     		subs	r3, r3, #10
  98 0014 0B2B     		cmp	r3, #11
  99 0016 6CD8     		bhi	.L2
 100 0018 01A2     		adr	r2, .L4
 101 001a 52F823F0 		ldr	pc, [r2, r3, lsl #2]
 102 001e 00BF     		.p2align 2
 103              	.L4:
 104 0020 51000000 		.word	.L3+1
 105 0024 F3000000 		.word	.L2+1
 106 0028 F3000000 		.word	.L2+1
 107 002c F3000000 		.word	.L2+1
 108 0030 F3000000 		.word	.L2+1
 109 0034 B5000000 		.word	.L6+1
 110 0038 F3000000 		.word	.L2+1
 111 003c F3000000 		.word	.L2+1
 112 0040 F3000000 		.word	.L2+1
 113 0044 F3000000 		.word	.L2+1
 114 0048 F3000000 		.word	.L2+1
 115 004c 67000000 		.word	.L7+1
 116              		.p2align 1
 117              	.L3:
  83:.\u8glib_arm_v1.18.1\src/u8g_dev_uc1701_dogs102.c ****   {
  84:.\u8glib_arm_v1.18.1\src/u8g_dev_uc1701_dogs102.c ****     case U8G_DEV_MSG_INIT:
  85:.\u8glib_arm_v1.18.1\src/u8g_dev_uc1701_dogs102.c ****       u8g_InitCom(u8g, dev, U8G_SPI_CLK_CYCLE_300NS);
 118              		.loc 1 85 0
 119 0050 F868     		ldr	r0, [r7, #12]
 120 0052 B968     		ldr	r1, [r7, #8]
 121 0054 0222     		movs	r2, #2
 122 0056 FFF7FEFF 		bl	u8g_InitCom
  86:.\u8glib_arm_v1.18.1\src/u8g_dev_uc1701_dogs102.c ****       u8g_WriteEscSeqP(u8g, dev, u8g_dev_dogs102_init_seq);
 123              		.loc 1 86 0
 124 005a F868     		ldr	r0, [r7, #12]
 125 005c B968     		ldr	r1, [r7, #8]
 126 005e 2B4A     		ldr	r2, .L10
 127 0060 FFF7FEFF 		bl	u8g_WriteEscSeqP
  87:.\u8glib_arm_v1.18.1\src/u8g_dev_uc1701_dogs102.c ****       break;
 128              		.loc 1 87 0
 129 0064 45E0     		b	.L2
 130              	.L7:
 131              	.LBB2:
  88:.\u8glib_arm_v1.18.1\src/u8g_dev_uc1701_dogs102.c ****     case U8G_DEV_MSG_STOP:
  89:.\u8glib_arm_v1.18.1\src/u8g_dev_uc1701_dogs102.c ****       break;
  90:.\u8glib_arm_v1.18.1\src/u8g_dev_uc1701_dogs102.c ****     case U8G_DEV_MSG_PAGE_NEXT:
  91:.\u8glib_arm_v1.18.1\src/u8g_dev_uc1701_dogs102.c ****       {
  92:.\u8glib_arm_v1.18.1\src/u8g_dev_uc1701_dogs102.c ****         u8g_pb_t *pb = (u8g_pb_t *)(dev->dev_mem);
 132              		.loc 1 92 0
 133 0066 BB68     		ldr	r3, [r7, #8]
 134 0068 5B68     		ldr	r3, [r3, #4]
 135 006a 7B61     		str	r3, [r7, #20]
  93:.\u8glib_arm_v1.18.1\src/u8g_dev_uc1701_dogs102.c ****         u8g_WriteEscSeqP(u8g, dev, u8g_dev_dogs102_data_start);    
ARM GAS  C:\Users\Shiguruy\AppData\Local\Temp\ccb2bMsH.s 			page 5


 136              		.loc 1 93 0
 137 006c F868     		ldr	r0, [r7, #12]
 138 006e B968     		ldr	r1, [r7, #8]
 139 0070 274A     		ldr	r2, .L10+4
 140 0072 FFF7FEFF 		bl	u8g_WriteEscSeqP
  94:.\u8glib_arm_v1.18.1\src/u8g_dev_uc1701_dogs102.c ****         u8g_WriteByte(u8g, dev, 0x0b0 | pb->p.page); /* select current page (ST7565R) */
 141              		.loc 1 94 0
 142 0076 7B69     		ldr	r3, [r7, #20]
 143 0078 1B79     		ldrb	r3, [r3, #4]	@ zero_extendqisi2
 144 007a 63F04F03 		orn	r3, r3, #79
 145 007e DBB2     		uxtb	r3, r3
 146 0080 F868     		ldr	r0, [r7, #12]
 147 0082 B968     		ldr	r1, [r7, #8]
 148 0084 1A46     		mov	r2, r3
 149 0086 FFF7FEFF 		bl	u8g_WriteByte
  95:.\u8glib_arm_v1.18.1\src/u8g_dev_uc1701_dogs102.c ****         u8g_SetAddress(u8g, dev, 1);           /* data mode */
 150              		.loc 1 95 0
 151 008a F868     		ldr	r0, [r7, #12]
 152 008c B968     		ldr	r1, [r7, #8]
 153 008e 0122     		movs	r2, #1
 154 0090 FFF7FEFF 		bl	u8g_SetAddress
  96:.\u8glib_arm_v1.18.1\src/u8g_dev_uc1701_dogs102.c ****         if ( u8g_pb_WriteBuffer(pb, u8g, dev) == 0 )
 155              		.loc 1 96 0
 156 0094 7869     		ldr	r0, [r7, #20]
 157 0096 F968     		ldr	r1, [r7, #12]
 158 0098 BA68     		ldr	r2, [r7, #8]
 159 009a FFF7FEFF 		bl	u8g_pb_WriteBuffer
 160 009e 0346     		mov	r3, r0
 161 00a0 002B     		cmp	r3, #0
 162 00a2 01D1     		bne	.L8
  97:.\u8glib_arm_v1.18.1\src/u8g_dev_uc1701_dogs102.c ****           return 0;
 163              		.loc 1 97 0
 164 00a4 0023     		movs	r3, #0
 165 00a6 2CE0     		b	.L9
 166              	.L8:
  98:.\u8glib_arm_v1.18.1\src/u8g_dev_uc1701_dogs102.c ****         u8g_SetChipSelect(u8g, dev, 0);
 167              		.loc 1 98 0
 168 00a8 F868     		ldr	r0, [r7, #12]
 169 00aa B968     		ldr	r1, [r7, #8]
 170 00ac 0022     		movs	r2, #0
 171 00ae FFF7FEFF 		bl	u8g_SetChipSelect
 172              	.LBE2:
  99:.\u8glib_arm_v1.18.1\src/u8g_dev_uc1701_dogs102.c ****       }
 100:.\u8glib_arm_v1.18.1\src/u8g_dev_uc1701_dogs102.c ****       break;
 173              		.loc 1 100 0
 174 00b2 1EE0     		b	.L2
 175              	.L6:
 101:.\u8glib_arm_v1.18.1\src/u8g_dev_uc1701_dogs102.c ****     case U8G_DEV_MSG_CONTRAST:
 102:.\u8glib_arm_v1.18.1\src/u8g_dev_uc1701_dogs102.c ****       u8g_SetChipSelect(u8g, dev, 1);
 176              		.loc 1 102 0
 177 00b4 F868     		ldr	r0, [r7, #12]
 178 00b6 B968     		ldr	r1, [r7, #8]
 179 00b8 0122     		movs	r2, #1
 180 00ba FFF7FEFF 		bl	u8g_SetChipSelect
 103:.\u8glib_arm_v1.18.1\src/u8g_dev_uc1701_dogs102.c ****       u8g_SetAddress(u8g, dev, 0);          /* instruction mode */
 181              		.loc 1 103 0
 182 00be F868     		ldr	r0, [r7, #12]
ARM GAS  C:\Users\Shiguruy\AppData\Local\Temp\ccb2bMsH.s 			page 6


 183 00c0 B968     		ldr	r1, [r7, #8]
 184 00c2 0022     		movs	r2, #0
 185 00c4 FFF7FEFF 		bl	u8g_SetAddress
 104:.\u8glib_arm_v1.18.1\src/u8g_dev_uc1701_dogs102.c ****       u8g_WriteByte(u8g, dev, 0x081);
 186              		.loc 1 104 0
 187 00c8 F868     		ldr	r0, [r7, #12]
 188 00ca B968     		ldr	r1, [r7, #8]
 189 00cc 8122     		movs	r2, #129
 190 00ce FFF7FEFF 		bl	u8g_WriteByte
 105:.\u8glib_arm_v1.18.1\src/u8g_dev_uc1701_dogs102.c ****       u8g_WriteByte(u8g, dev, (*(uint8_t *)arg) >> 2);
 191              		.loc 1 105 0
 192 00d2 3B68     		ldr	r3, [r7]
 193 00d4 1B78     		ldrb	r3, [r3]	@ zero_extendqisi2
 194 00d6 9B08     		lsrs	r3, r3, #2
 195 00d8 DBB2     		uxtb	r3, r3
 196 00da F868     		ldr	r0, [r7, #12]
 197 00dc B968     		ldr	r1, [r7, #8]
 198 00de 1A46     		mov	r2, r3
 199 00e0 FFF7FEFF 		bl	u8g_WriteByte
 106:.\u8glib_arm_v1.18.1\src/u8g_dev_uc1701_dogs102.c ****       u8g_SetChipSelect(u8g, dev, 0);      
 200              		.loc 1 106 0
 201 00e4 F868     		ldr	r0, [r7, #12]
 202 00e6 B968     		ldr	r1, [r7, #8]
 203 00e8 0022     		movs	r2, #0
 204 00ea FFF7FEFF 		bl	u8g_SetChipSelect
 107:.\u8glib_arm_v1.18.1\src/u8g_dev_uc1701_dogs102.c ****       return 1;
 205              		.loc 1 107 0
 206 00ee 0123     		movs	r3, #1
 207 00f0 07E0     		b	.L9
 208              	.L2:
 108:.\u8glib_arm_v1.18.1\src/u8g_dev_uc1701_dogs102.c ****   }
 109:.\u8glib_arm_v1.18.1\src/u8g_dev_uc1701_dogs102.c ****   return u8g_dev_pb8v1_base_fn(u8g, dev, msg, arg);
 209              		.loc 1 109 0
 210 00f2 FB79     		ldrb	r3, [r7, #7]	@ zero_extendqisi2
 211 00f4 F868     		ldr	r0, [r7, #12]
 212 00f6 B968     		ldr	r1, [r7, #8]
 213 00f8 1A46     		mov	r2, r3
 214 00fa 3B68     		ldr	r3, [r7]
 215 00fc FFF7FEFF 		bl	u8g_dev_pb8v1_base_fn
 216 0100 0346     		mov	r3, r0
 217              	.L9:
 110:.\u8glib_arm_v1.18.1\src/u8g_dev_uc1701_dogs102.c **** }
 218              		.loc 1 110 0
 219 0102 1846     		mov	r0, r3
 220 0104 1837     		adds	r7, r7, #24
 221              		.cfi_def_cfa_offset 8
 222 0106 BD46     		mov	sp, r7
 223              		.cfi_def_cfa_register 13
 224              		@ sp needed
 225 0108 80BD     		pop	{r7, pc}
 226              	.L11:
 227 010a 00BF     		.align	2
 228              	.L10:
 229 010c 00000000 		.word	u8g_dev_dogs102_init_seq
 230 0110 24000000 		.word	u8g_dev_dogs102_data_start
 231              		.cfi_endproc
 232              	.LFE0:
ARM GAS  C:\Users\Shiguruy\AppData\Local\Temp\ccb2bMsH.s 			page 7


 233              		.size	u8g_dev_dogs102_fn, .-u8g_dev_dogs102_fn
 234              		.section	.text.u8g_dev_uc1701_dogs102_2x_fn,"ax",%progbits
 235              		.align	2
 236              		.global	u8g_dev_uc1701_dogs102_2x_fn
 237              		.thumb
 238              		.thumb_func
 239              		.type	u8g_dev_uc1701_dogs102_2x_fn, %function
 240              	u8g_dev_uc1701_dogs102_2x_fn:
 241              	.LFB1:
 111:.\u8glib_arm_v1.18.1\src/u8g_dev_uc1701_dogs102.c **** 
 112:.\u8glib_arm_v1.18.1\src/u8g_dev_uc1701_dogs102.c **** uint8_t u8g_dev_uc1701_dogs102_2x_fn(u8g_t *u8g, u8g_dev_t *dev, uint8_t msg, void *arg)
 113:.\u8glib_arm_v1.18.1\src/u8g_dev_uc1701_dogs102.c **** {
 242              		.loc 1 113 0
 243              		.cfi_startproc
 244              		@ args = 0, pretend = 0, frame = 24
 245              		@ frame_needed = 1, uses_anonymous_args = 0
 246 0000 90B5     		push	{r4, r7, lr}
 247              		.cfi_def_cfa_offset 12
 248              		.cfi_offset 4, -12
 249              		.cfi_offset 7, -8
 250              		.cfi_offset 14, -4
 251 0002 87B0     		sub	sp, sp, #28
 252              		.cfi_def_cfa_offset 40
 253 0004 00AF     		add	r7, sp, #0
 254              		.cfi_def_cfa_register 7
 255 0006 F860     		str	r0, [r7, #12]
 256 0008 B960     		str	r1, [r7, #8]
 257 000a 3B60     		str	r3, [r7]
 258 000c 1346     		mov	r3, r2
 259 000e FB71     		strb	r3, [r7, #7]
 114:.\u8glib_arm_v1.18.1\src/u8g_dev_uc1701_dogs102.c ****   switch(msg)
 260              		.loc 1 114 0
 261 0010 FB79     		ldrb	r3, [r7, #7]	@ zero_extendqisi2
 262 0012 0A3B     		subs	r3, r3, #10
 263 0014 0B2B     		cmp	r3, #11
 264 0016 00F29980 		bhi	.L13
 265 001a 01A2     		adr	r2, .L15
 266 001c 52F823F0 		ldr	pc, [r2, r3, lsl #2]
 267              		.p2align 2
 268              	.L15:
 269 0020 51000000 		.word	.L14+1
 270 0024 4D010000 		.word	.L13+1
 271 0028 4D010000 		.word	.L13+1
 272 002c 4D010000 		.word	.L13+1
 273 0030 4D010000 		.word	.L13+1
 274 0034 0F010000 		.word	.L17+1
 275 0038 4D010000 		.word	.L13+1
 276 003c 4D010000 		.word	.L13+1
 277 0040 4D010000 		.word	.L13+1
 278 0044 4D010000 		.word	.L13+1
 279 0048 4D010000 		.word	.L13+1
 280 004c 67000000 		.word	.L18+1
 281              		.p2align 1
 282              	.L14:
 115:.\u8glib_arm_v1.18.1\src/u8g_dev_uc1701_dogs102.c ****   {
 116:.\u8glib_arm_v1.18.1\src/u8g_dev_uc1701_dogs102.c ****     case U8G_DEV_MSG_INIT:
 117:.\u8glib_arm_v1.18.1\src/u8g_dev_uc1701_dogs102.c ****       u8g_InitCom(u8g, dev, U8G_SPI_CLK_CYCLE_300NS);
ARM GAS  C:\Users\Shiguruy\AppData\Local\Temp\ccb2bMsH.s 			page 8


 283              		.loc 1 117 0
 284 0050 F868     		ldr	r0, [r7, #12]
 285 0052 B968     		ldr	r1, [r7, #8]
 286 0054 0222     		movs	r2, #2
 287 0056 FFF7FEFF 		bl	u8g_InitCom
 118:.\u8glib_arm_v1.18.1\src/u8g_dev_uc1701_dogs102.c ****       u8g_WriteEscSeqP(u8g, dev, u8g_dev_dogs102_init_seq);
 288              		.loc 1 118 0
 289 005a F868     		ldr	r0, [r7, #12]
 290 005c B968     		ldr	r1, [r7, #8]
 291 005e 414A     		ldr	r2, .L20
 292 0060 FFF7FEFF 		bl	u8g_WriteEscSeqP
 119:.\u8glib_arm_v1.18.1\src/u8g_dev_uc1701_dogs102.c ****       break;
 293              		.loc 1 119 0
 294 0064 72E0     		b	.L13
 295              	.L18:
 296              	.LBB3:
 120:.\u8glib_arm_v1.18.1\src/u8g_dev_uc1701_dogs102.c ****     case U8G_DEV_MSG_STOP:
 121:.\u8glib_arm_v1.18.1\src/u8g_dev_uc1701_dogs102.c ****       break;
 122:.\u8glib_arm_v1.18.1\src/u8g_dev_uc1701_dogs102.c ****     case U8G_DEV_MSG_PAGE_NEXT:
 123:.\u8glib_arm_v1.18.1\src/u8g_dev_uc1701_dogs102.c ****       {
 124:.\u8glib_arm_v1.18.1\src/u8g_dev_uc1701_dogs102.c ****         u8g_pb_t *pb = (u8g_pb_t *)(dev->dev_mem);
 297              		.loc 1 124 0
 298 0066 BB68     		ldr	r3, [r7, #8]
 299 0068 5B68     		ldr	r3, [r3, #4]
 300 006a 7B61     		str	r3, [r7, #20]
 125:.\u8glib_arm_v1.18.1\src/u8g_dev_uc1701_dogs102.c **** 	
 126:.\u8glib_arm_v1.18.1\src/u8g_dev_uc1701_dogs102.c ****         u8g_WriteEscSeqP(u8g, dev, u8g_dev_dogs102_data_start);    
 301              		.loc 1 126 0
 302 006c F868     		ldr	r0, [r7, #12]
 303 006e B968     		ldr	r1, [r7, #8]
 304 0070 3D4A     		ldr	r2, .L20+4
 305 0072 FFF7FEFF 		bl	u8g_WriteEscSeqP
 127:.\u8glib_arm_v1.18.1\src/u8g_dev_uc1701_dogs102.c ****         u8g_WriteByte(u8g, dev, 0x0b0 | (2*pb->p.page)); /* select current page (ST7565R) */
 306              		.loc 1 127 0
 307 0076 7B69     		ldr	r3, [r7, #20]
 308 0078 1B79     		ldrb	r3, [r3, #4]	@ zero_extendqisi2
 309 007a 5B00     		lsls	r3, r3, #1
 310 007c DBB2     		uxtb	r3, r3
 311 007e DBB2     		uxtb	r3, r3
 312 0080 63F04F03 		orn	r3, r3, #79
 313 0084 DBB2     		uxtb	r3, r3
 314 0086 DBB2     		uxtb	r3, r3
 315 0088 F868     		ldr	r0, [r7, #12]
 316 008a B968     		ldr	r1, [r7, #8]
 317 008c 1A46     		mov	r2, r3
 318 008e FFF7FEFF 		bl	u8g_WriteByte
 128:.\u8glib_arm_v1.18.1\src/u8g_dev_uc1701_dogs102.c ****         u8g_SetAddress(u8g, dev, 1);           /* data mode */
 319              		.loc 1 128 0
 320 0092 F868     		ldr	r0, [r7, #12]
 321 0094 B968     		ldr	r1, [r7, #8]
 322 0096 0122     		movs	r2, #1
 323 0098 FFF7FEFF 		bl	u8g_SetAddress
 129:.\u8glib_arm_v1.18.1\src/u8g_dev_uc1701_dogs102.c **** 	u8g_WriteSequence(u8g, dev, pb->width, pb->buf); 
 324              		.loc 1 129 0
 325 009c 7B69     		ldr	r3, [r7, #20]
 326 009e 5A79     		ldrb	r2, [r3, #5]	@ zero_extendqisi2
 327 00a0 7B69     		ldr	r3, [r7, #20]
ARM GAS  C:\Users\Shiguruy\AppData\Local\Temp\ccb2bMsH.s 			page 9


 328 00a2 9B68     		ldr	r3, [r3, #8]
 329 00a4 F868     		ldr	r0, [r7, #12]
 330 00a6 B968     		ldr	r1, [r7, #8]
 331 00a8 FFF7FEFF 		bl	u8g_WriteSequence
 130:.\u8glib_arm_v1.18.1\src/u8g_dev_uc1701_dogs102.c ****         u8g_SetChipSelect(u8g, dev, 0);
 332              		.loc 1 130 0
 333 00ac F868     		ldr	r0, [r7, #12]
 334 00ae B968     		ldr	r1, [r7, #8]
 335 00b0 0022     		movs	r2, #0
 336 00b2 FFF7FEFF 		bl	u8g_SetChipSelect
 131:.\u8glib_arm_v1.18.1\src/u8g_dev_uc1701_dogs102.c **** 	
 132:.\u8glib_arm_v1.18.1\src/u8g_dev_uc1701_dogs102.c ****         u8g_WriteEscSeqP(u8g, dev, u8g_dev_dogs102_data_start);    
 337              		.loc 1 132 0
 338 00b6 F868     		ldr	r0, [r7, #12]
 339 00b8 B968     		ldr	r1, [r7, #8]
 340 00ba 2B4A     		ldr	r2, .L20+4
 341 00bc FFF7FEFF 		bl	u8g_WriteEscSeqP
 133:.\u8glib_arm_v1.18.1\src/u8g_dev_uc1701_dogs102.c ****         u8g_WriteByte(u8g, dev, 0x0b0 | (2*pb->p.page+1)); /* select current page (ST7565R) */
 342              		.loc 1 133 0
 343 00c0 7B69     		ldr	r3, [r7, #20]
 344 00c2 1B79     		ldrb	r3, [r3, #4]	@ zero_extendqisi2
 345 00c4 5B00     		lsls	r3, r3, #1
 346 00c6 DBB2     		uxtb	r3, r3
 347 00c8 0133     		adds	r3, r3, #1
 348 00ca DBB2     		uxtb	r3, r3
 349 00cc DBB2     		uxtb	r3, r3
 350 00ce 63F04F03 		orn	r3, r3, #79
 351 00d2 DBB2     		uxtb	r3, r3
 352 00d4 DBB2     		uxtb	r3, r3
 353 00d6 F868     		ldr	r0, [r7, #12]
 354 00d8 B968     		ldr	r1, [r7, #8]
 355 00da 1A46     		mov	r2, r3
 356 00dc FFF7FEFF 		bl	u8g_WriteByte
 134:.\u8glib_arm_v1.18.1\src/u8g_dev_uc1701_dogs102.c ****         u8g_SetAddress(u8g, dev, 1);           /* data mode */
 357              		.loc 1 134 0
 358 00e0 F868     		ldr	r0, [r7, #12]
 359 00e2 B968     		ldr	r1, [r7, #8]
 360 00e4 0122     		movs	r2, #1
 361 00e6 FFF7FEFF 		bl	u8g_SetAddress
 135:.\u8glib_arm_v1.18.1\src/u8g_dev_uc1701_dogs102.c **** 	u8g_WriteSequence(u8g, dev, pb->width, (uint8_t *)(pb->buf)+pb->width); 
 362              		.loc 1 135 0
 363 00ea 7B69     		ldr	r3, [r7, #20]
 364 00ec 5C79     		ldrb	r4, [r3, #5]	@ zero_extendqisi2
 365 00ee 7B69     		ldr	r3, [r7, #20]
 366 00f0 9B68     		ldr	r3, [r3, #8]
 367 00f2 7A69     		ldr	r2, [r7, #20]
 368 00f4 5279     		ldrb	r2, [r2, #5]	@ zero_extendqisi2
 369 00f6 1344     		add	r3, r3, r2
 370 00f8 F868     		ldr	r0, [r7, #12]
 371 00fa B968     		ldr	r1, [r7, #8]
 372 00fc 2246     		mov	r2, r4
 373 00fe FFF7FEFF 		bl	u8g_WriteSequence
 136:.\u8glib_arm_v1.18.1\src/u8g_dev_uc1701_dogs102.c ****         u8g_SetChipSelect(u8g, dev, 0);
 374              		.loc 1 136 0
 375 0102 F868     		ldr	r0, [r7, #12]
 376 0104 B968     		ldr	r1, [r7, #8]
 377 0106 0022     		movs	r2, #0
ARM GAS  C:\Users\Shiguruy\AppData\Local\Temp\ccb2bMsH.s 			page 10


 378 0108 FFF7FEFF 		bl	u8g_SetChipSelect
 379              	.LBE3:
 137:.\u8glib_arm_v1.18.1\src/u8g_dev_uc1701_dogs102.c ****       }
 138:.\u8glib_arm_v1.18.1\src/u8g_dev_uc1701_dogs102.c ****       break;
 380              		.loc 1 138 0
 381 010c 1EE0     		b	.L13
 382              	.L17:
 139:.\u8glib_arm_v1.18.1\src/u8g_dev_uc1701_dogs102.c ****     case U8G_DEV_MSG_CONTRAST:
 140:.\u8glib_arm_v1.18.1\src/u8g_dev_uc1701_dogs102.c ****       u8g_SetChipSelect(u8g, dev, 1);
 383              		.loc 1 140 0
 384 010e F868     		ldr	r0, [r7, #12]
 385 0110 B968     		ldr	r1, [r7, #8]
 386 0112 0122     		movs	r2, #1
 387 0114 FFF7FEFF 		bl	u8g_SetChipSelect
 141:.\u8glib_arm_v1.18.1\src/u8g_dev_uc1701_dogs102.c ****       u8g_SetAddress(u8g, dev, 0);          /* instruction mode */
 388              		.loc 1 141 0
 389 0118 F868     		ldr	r0, [r7, #12]
 390 011a B968     		ldr	r1, [r7, #8]
 391 011c 0022     		movs	r2, #0
 392 011e FFF7FEFF 		bl	u8g_SetAddress
 142:.\u8glib_arm_v1.18.1\src/u8g_dev_uc1701_dogs102.c ****       u8g_WriteByte(u8g, dev, 0x081);
 393              		.loc 1 142 0
 394 0122 F868     		ldr	r0, [r7, #12]
 395 0124 B968     		ldr	r1, [r7, #8]
 396 0126 8122     		movs	r2, #129
 397 0128 FFF7FEFF 		bl	u8g_WriteByte
 143:.\u8glib_arm_v1.18.1\src/u8g_dev_uc1701_dogs102.c ****       u8g_WriteByte(u8g, dev, (*(uint8_t *)arg) >> 2);
 398              		.loc 1 143 0
 399 012c 3B68     		ldr	r3, [r7]
 400 012e 1B78     		ldrb	r3, [r3]	@ zero_extendqisi2
 401 0130 9B08     		lsrs	r3, r3, #2
 402 0132 DBB2     		uxtb	r3, r3
 403 0134 F868     		ldr	r0, [r7, #12]
 404 0136 B968     		ldr	r1, [r7, #8]
 405 0138 1A46     		mov	r2, r3
 406 013a FFF7FEFF 		bl	u8g_WriteByte
 144:.\u8glib_arm_v1.18.1\src/u8g_dev_uc1701_dogs102.c ****       u8g_SetChipSelect(u8g, dev, 0);      
 407              		.loc 1 144 0
 408 013e F868     		ldr	r0, [r7, #12]
 409 0140 B968     		ldr	r1, [r7, #8]
 410 0142 0022     		movs	r2, #0
 411 0144 FFF7FEFF 		bl	u8g_SetChipSelect
 145:.\u8glib_arm_v1.18.1\src/u8g_dev_uc1701_dogs102.c ****       return 1;
 412              		.loc 1 145 0
 413 0148 0123     		movs	r3, #1
 414 014a 07E0     		b	.L19
 415              	.L13:
 146:.\u8glib_arm_v1.18.1\src/u8g_dev_uc1701_dogs102.c ****   }
 147:.\u8glib_arm_v1.18.1\src/u8g_dev_uc1701_dogs102.c ****   return u8g_dev_pb16v1_base_fn(u8g, dev, msg, arg);
 416              		.loc 1 147 0
 417 014c FB79     		ldrb	r3, [r7, #7]	@ zero_extendqisi2
 418 014e F868     		ldr	r0, [r7, #12]
 419 0150 B968     		ldr	r1, [r7, #8]
 420 0152 1A46     		mov	r2, r3
 421 0154 3B68     		ldr	r3, [r7]
 422 0156 FFF7FEFF 		bl	u8g_dev_pb16v1_base_fn
 423 015a 0346     		mov	r3, r0
ARM GAS  C:\Users\Shiguruy\AppData\Local\Temp\ccb2bMsH.s 			page 11


 424              	.L19:
 148:.\u8glib_arm_v1.18.1\src/u8g_dev_uc1701_dogs102.c **** }
 425              		.loc 1 148 0
 426 015c 1846     		mov	r0, r3
 427 015e 1C37     		adds	r7, r7, #28
 428              		.cfi_def_cfa_offset 12
 429 0160 BD46     		mov	sp, r7
 430              		.cfi_def_cfa_register 13
 431              		@ sp needed
 432 0162 90BD     		pop	{r4, r7, pc}
 433              	.L21:
 434              		.align	2
 435              	.L20:
 436 0164 00000000 		.word	u8g_dev_dogs102_init_seq
 437 0168 24000000 		.word	u8g_dev_dogs102_data_start
 438              		.cfi_endproc
 439              	.LFE1:
 440              		.size	u8g_dev_uc1701_dogs102_2x_fn, .-u8g_dev_uc1701_dogs102_2x_fn
 441              		.global	u8g_dev_uc1701_dogs102_sw_spi_buf
 442              		.bss
 443              		.align	2
 444              		.type	u8g_dev_uc1701_dogs102_sw_spi_buf, %object
 445              		.size	u8g_dev_uc1701_dogs102_sw_spi_buf, 102
 446              	u8g_dev_uc1701_dogs102_sw_spi_buf:
 447 0000 00000000 		.space	102
 447      00000000 
 447      00000000 
 447      00000000 
 447      00000000 
 448              		.global	u8g_dev_uc1701_dogs102_sw_spi_pb
 449              		.data
 450              		.align	2
 451              		.type	u8g_dev_uc1701_dogs102_sw_spi_pb, %object
 452              		.size	u8g_dev_uc1701_dogs102_sw_spi_pb, 12
 453              	u8g_dev_uc1701_dogs102_sw_spi_pb:
 454 0000 08       		.byte	8
 455 0001 40       		.byte	64
 456 0002 00       		.byte	0
 457 0003 00       		.byte	0
 458 0004 00       		.byte	0
 459 0005 66       		.byte	102
 460 0006 0000     		.space	2
 461 0008 00000000 		.word	u8g_dev_uc1701_dogs102_sw_spi_buf
 462              		.global	u8g_dev_uc1701_dogs102_sw_spi
 463              		.align	2
 464              		.type	u8g_dev_uc1701_dogs102_sw_spi, %object
 465              		.size	u8g_dev_uc1701_dogs102_sw_spi, 12
 466              	u8g_dev_uc1701_dogs102_sw_spi:
 467 000c 00000000 		.word	u8g_dev_dogs102_fn
 468 0010 00000000 		.word	u8g_dev_uc1701_dogs102_sw_spi_pb
 469 0014 00000000 		.word	u8g_com_null_fn
 470              		.global	u8g_dev_uc1701_dogs102_hw_spi_buf
 471              		.bss
 472 0066 0000     		.align	2
 473              		.type	u8g_dev_uc1701_dogs102_hw_spi_buf, %object
 474              		.size	u8g_dev_uc1701_dogs102_hw_spi_buf, 102
 475              	u8g_dev_uc1701_dogs102_hw_spi_buf:
ARM GAS  C:\Users\Shiguruy\AppData\Local\Temp\ccb2bMsH.s 			page 12


 476 0068 00000000 		.space	102
 476      00000000 
 476      00000000 
 476      00000000 
 476      00000000 
 477              		.global	u8g_dev_uc1701_dogs102_hw_spi_pb
 478              		.data
 479              		.align	2
 480              		.type	u8g_dev_uc1701_dogs102_hw_spi_pb, %object
 481              		.size	u8g_dev_uc1701_dogs102_hw_spi_pb, 12
 482              	u8g_dev_uc1701_dogs102_hw_spi_pb:
 483 0018 08       		.byte	8
 484 0019 40       		.byte	64
 485 001a 00       		.byte	0
 486 001b 00       		.byte	0
 487 001c 00       		.byte	0
 488 001d 66       		.byte	102
 489 001e 0000     		.space	2
 490 0020 00000000 		.word	u8g_dev_uc1701_dogs102_hw_spi_buf
 491              		.global	u8g_dev_uc1701_dogs102_hw_spi
 492              		.align	2
 493              		.type	u8g_dev_uc1701_dogs102_hw_spi, %object
 494              		.size	u8g_dev_uc1701_dogs102_hw_spi, 12
 495              	u8g_dev_uc1701_dogs102_hw_spi:
 496 0024 00000000 		.word	u8g_dev_dogs102_fn
 497 0028 00000000 		.word	u8g_dev_uc1701_dogs102_hw_spi_pb
 498 002c 00000000 		.word	u8g_com_null_fn
 499              		.global	u8g_dev_uc1701_dogs102_2x_buf
 500              		.bss
 501 00ce 0000     		.align	2
 502              		.type	u8g_dev_uc1701_dogs102_2x_buf, %object
 503              		.size	u8g_dev_uc1701_dogs102_2x_buf, 204
 504              	u8g_dev_uc1701_dogs102_2x_buf:
 505 00d0 00000000 		.space	204
 505      00000000 
 505      00000000 
 505      00000000 
 505      00000000 
 506              		.global	u8g_dev_uc1701_dogs102_2x_pb
 507              		.data
 508              		.align	2
 509              		.type	u8g_dev_uc1701_dogs102_2x_pb, %object
 510              		.size	u8g_dev_uc1701_dogs102_2x_pb, 12
 511              	u8g_dev_uc1701_dogs102_2x_pb:
 512 0030 10       		.byte	16
 513 0031 40       		.byte	64
 514 0032 00       		.byte	0
 515 0033 00       		.byte	0
 516 0034 00       		.byte	0
 517 0035 66       		.byte	102
 518 0036 0000     		.space	2
 519 0038 00000000 		.word	u8g_dev_uc1701_dogs102_2x_buf
 520              		.global	u8g_dev_uc1701_dogs102_2x_sw_spi
 521              		.align	2
 522              		.type	u8g_dev_uc1701_dogs102_2x_sw_spi, %object
 523              		.size	u8g_dev_uc1701_dogs102_2x_sw_spi, 12
 524              	u8g_dev_uc1701_dogs102_2x_sw_spi:
ARM GAS  C:\Users\Shiguruy\AppData\Local\Temp\ccb2bMsH.s 			page 13


 525 003c 00000000 		.word	u8g_dev_uc1701_dogs102_2x_fn
 526 0040 00000000 		.word	u8g_dev_uc1701_dogs102_2x_pb
 527 0044 00000000 		.word	u8g_com_null_fn
 528              		.global	u8g_dev_uc1701_dogs102_2x_hw_spi
 529              		.align	2
 530              		.type	u8g_dev_uc1701_dogs102_2x_hw_spi, %object
 531              		.size	u8g_dev_uc1701_dogs102_2x_hw_spi, 12
 532              	u8g_dev_uc1701_dogs102_2x_hw_spi:
 533 0048 00000000 		.word	u8g_dev_uc1701_dogs102_2x_fn
 534 004c 00000000 		.word	u8g_dev_uc1701_dogs102_2x_pb
 535 0050 00000000 		.word	u8g_com_null_fn
 536              		.text
 537              	.Letext0:
 538              		.file 2 "c:\\program files (x86)\\cypress\\psoc creator\\3.3\\psoc creator\\import\\gnu\\arm\\4.9.
 539              		.file 3 "c:\\program files (x86)\\cypress\\psoc creator\\3.3\\psoc creator\\import\\gnu\\arm\\4.9.
 540              		.file 4 ".\\u8glib_arm_v1.18.1\\src\\u8g.h"