ARM GAS  C:\Users\KJA\AppData\Local\Temp\ccWwRLV3.s 			page 1


   1              		.syntax unified
   2              		.cpu cortex-m3
   3              		.fpu softvfp
   4              		.eabi_attribute 20, 1
   5              		.eabi_attribute 21, 1
   6              		.eabi_attribute 23, 3
   7              		.eabi_attribute 24, 1
   8              		.eabi_attribute 25, 1
   9              		.eabi_attribute 26, 1
  10              		.eabi_attribute 30, 6
  11              		.eabi_attribute 34, 1
  12              		.eabi_attribute 18, 4
  13              		.thumb
  14              		.file	"u8g_rect.c"
  15              		.text
  16              	.Ltext0:
  17              		.cfi_sections	.debug_frame
  18              		.section	.text.u8g_draw_hline,"ax",%progbits
  19              		.align	2
  20              		.global	u8g_draw_hline
  21              		.thumb
  22              		.thumb_func
  23              		.type	u8g_draw_hline, %function
  24              	u8g_draw_hline:
  25              	.LFB0:
  26              		.file 1 "u8glib_arm_v1.18.1\\src\\u8g_rect.c"
   1:u8glib_arm_v1.18.1\src/u8g_rect.c **** /*
   2:u8glib_arm_v1.18.1\src/u8g_rect.c **** 
   3:u8glib_arm_v1.18.1\src/u8g_rect.c ****   u8g_rect.c
   4:u8glib_arm_v1.18.1\src/u8g_rect.c ****   
   5:u8glib_arm_v1.18.1\src/u8g_rect.c ****   U8G high level interface for horizontal and vertical things
   6:u8glib_arm_v1.18.1\src/u8g_rect.c **** 
   7:u8glib_arm_v1.18.1\src/u8g_rect.c ****   Universal 8bit Graphics Library
   8:u8glib_arm_v1.18.1\src/u8g_rect.c ****   
   9:u8glib_arm_v1.18.1\src/u8g_rect.c ****   Copyright (c) 2011, olikraus@gmail.com
  10:u8glib_arm_v1.18.1\src/u8g_rect.c ****   All rights reserved.
  11:u8glib_arm_v1.18.1\src/u8g_rect.c **** 
  12:u8glib_arm_v1.18.1\src/u8g_rect.c ****   Redistribution and use in source and binary forms, with or without modification, 
  13:u8glib_arm_v1.18.1\src/u8g_rect.c ****   are permitted provided that the following conditions are met:
  14:u8glib_arm_v1.18.1\src/u8g_rect.c **** 
  15:u8glib_arm_v1.18.1\src/u8g_rect.c ****   * Redistributions of source code must retain the above copyright notice, this list 
  16:u8glib_arm_v1.18.1\src/u8g_rect.c ****     of conditions and the following disclaimer.
  17:u8glib_arm_v1.18.1\src/u8g_rect.c ****     
  18:u8glib_arm_v1.18.1\src/u8g_rect.c ****   * Redistributions in binary form must reproduce the above copyright notice, this 
  19:u8glib_arm_v1.18.1\src/u8g_rect.c ****     list of conditions and the following disclaimer in the documentation and/or other 
  20:u8glib_arm_v1.18.1\src/u8g_rect.c ****     materials provided with the distribution.
  21:u8glib_arm_v1.18.1\src/u8g_rect.c **** 
  22:u8glib_arm_v1.18.1\src/u8g_rect.c ****   THIS SOFTWARE IS PROVIDED BY THE COPYRIGHT HOLDERS AND 
  23:u8glib_arm_v1.18.1\src/u8g_rect.c ****   CONTRIBUTORS "AS IS" AND ANY EXPRESS OR IMPLIED WARRANTIES, 
  24:u8glib_arm_v1.18.1\src/u8g_rect.c ****   INCLUDING, BUT NOT LIMITED TO, THE IMPLIED WARRANTIES OF 
  25:u8glib_arm_v1.18.1\src/u8g_rect.c ****   MERCHANTABILITY AND FITNESS FOR A PARTICULAR PURPOSE ARE 
  26:u8glib_arm_v1.18.1\src/u8g_rect.c ****   DISCLAIMED. IN NO EVENT SHALL THE COPYRIGHT HOLDER OR 
  27:u8glib_arm_v1.18.1\src/u8g_rect.c ****   CONTRIBUTORS BE LIABLE FOR ANY DIRECT, INDIRECT, INCIDENTAL, 
  28:u8glib_arm_v1.18.1\src/u8g_rect.c ****   SPECIAL, EXEMPLARY, OR CONSEQUENTIAL DAMAGES (INCLUDING, BUT 
  29:u8glib_arm_v1.18.1\src/u8g_rect.c ****   NOT LIMITED TO, PROCUREMENT OF SUBSTITUTE GOODS OR SERVICES; 
  30:u8glib_arm_v1.18.1\src/u8g_rect.c ****   LOSS OF USE, DATA, OR PROFITS; OR BUSINESS INTERRUPTION) HOWEVER 
  31:u8glib_arm_v1.18.1\src/u8g_rect.c ****   CAUSED AND ON ANY THEORY OF LIABILITY, WHETHER IN CONTRACT, 
ARM GAS  C:\Users\KJA\AppData\Local\Temp\ccWwRLV3.s 			page 2


  32:u8glib_arm_v1.18.1\src/u8g_rect.c ****   STRICT LIABILITY, OR TORT (INCLUDING NEGLIGENCE OR OTHERWISE) 
  33:u8glib_arm_v1.18.1\src/u8g_rect.c ****   ARISING IN ANY WAY OUT OF THE USE OF THIS SOFTWARE, EVEN IF 
  34:u8glib_arm_v1.18.1\src/u8g_rect.c ****   ADVISED OF THE POSSIBILITY OF SUCH DAMAGE.  
  35:u8glib_arm_v1.18.1\src/u8g_rect.c ****   
  36:u8glib_arm_v1.18.1\src/u8g_rect.c ****   
  37:u8glib_arm_v1.18.1\src/u8g_rect.c **** */
  38:u8glib_arm_v1.18.1\src/u8g_rect.c **** 
  39:u8glib_arm_v1.18.1\src/u8g_rect.c **** #include "u8g.h"
  40:u8glib_arm_v1.18.1\src/u8g_rect.c **** 
  41:u8glib_arm_v1.18.1\src/u8g_rect.c **** void u8g_draw_hline(u8g_t *u8g, u8g_uint_t x, u8g_uint_t y, u8g_uint_t w)
  42:u8glib_arm_v1.18.1\src/u8g_rect.c **** {
  27              		.loc 1 42 0
  28              		.cfi_startproc
  29              		@ args = 0, pretend = 0, frame = 16
  30              		@ frame_needed = 1, uses_anonymous_args = 0
  31 0000 80B5     		push	{r7, lr}
  32              		.cfi_def_cfa_offset 8
  33              		.cfi_offset 7, -8
  34              		.cfi_offset 14, -4
  35 0002 86B0     		sub	sp, sp, #24
  36              		.cfi_def_cfa_offset 32
  37 0004 02AF     		add	r7, sp, #8
  38              		.cfi_def_cfa 7, 24
  39 0006 7860     		str	r0, [r7, #4]
  40 0008 0846     		mov	r0, r1
  41 000a 1146     		mov	r1, r2
  42 000c 1A46     		mov	r2, r3
  43 000e 0346     		mov	r3, r0
  44 0010 FB70     		strb	r3, [r7, #3]
  45 0012 0B46     		mov	r3, r1
  46 0014 BB70     		strb	r3, [r7, #2]
  47 0016 1346     		mov	r3, r2
  48 0018 7B70     		strb	r3, [r7, #1]
  43:u8glib_arm_v1.18.1\src/u8g_rect.c ****   uint8_t pixel = 0x0ff;
  49              		.loc 1 43 0
  50 001a FF23     		movs	r3, #255
  51 001c FB73     		strb	r3, [r7, #15]
  44:u8glib_arm_v1.18.1\src/u8g_rect.c ****   while( w >= 8 )
  52              		.loc 1 44 0
  53 001e 0DE0     		b	.L2
  54              	.L3:
  45:u8glib_arm_v1.18.1\src/u8g_rect.c ****   {
  46:u8glib_arm_v1.18.1\src/u8g_rect.c ****     u8g_Draw8Pixel(u8g, x, y, 0, pixel);
  55              		.loc 1 46 0
  56 0020 F978     		ldrb	r1, [r7, #3]	@ zero_extendqisi2
  57 0022 BA78     		ldrb	r2, [r7, #2]	@ zero_extendqisi2
  58 0024 FB7B     		ldrb	r3, [r7, #15]	@ zero_extendqisi2
  59 0026 0093     		str	r3, [sp]
  60 0028 7868     		ldr	r0, [r7, #4]
  61 002a 0023     		movs	r3, #0
  62 002c FFF7FEFF 		bl	u8g_Draw8Pixel
  47:u8glib_arm_v1.18.1\src/u8g_rect.c ****     w-=8;
  63              		.loc 1 47 0
  64 0030 7B78     		ldrb	r3, [r7, #1]
  65 0032 083B     		subs	r3, r3, #8
  66 0034 7B70     		strb	r3, [r7, #1]
  48:u8glib_arm_v1.18.1\src/u8g_rect.c ****     x+=8;
ARM GAS  C:\Users\KJA\AppData\Local\Temp\ccWwRLV3.s 			page 3


  67              		.loc 1 48 0
  68 0036 FB78     		ldrb	r3, [r7, #3]
  69 0038 0833     		adds	r3, r3, #8
  70 003a FB70     		strb	r3, [r7, #3]
  71              	.L2:
  44:u8glib_arm_v1.18.1\src/u8g_rect.c ****   {
  72              		.loc 1 44 0
  73 003c 7B78     		ldrb	r3, [r7, #1]	@ zero_extendqisi2
  74 003e 072B     		cmp	r3, #7
  75 0040 EED8     		bhi	.L3
  49:u8glib_arm_v1.18.1\src/u8g_rect.c ****   }
  50:u8glib_arm_v1.18.1\src/u8g_rect.c ****   if ( w != 0 )
  76              		.loc 1 50 0
  77 0042 7B78     		ldrb	r3, [r7, #1]	@ zero_extendqisi2
  78 0044 002B     		cmp	r3, #0
  79 0046 15D0     		beq	.L1
  51:u8glib_arm_v1.18.1\src/u8g_rect.c ****   {
  52:u8glib_arm_v1.18.1\src/u8g_rect.c ****     w ^=7;
  80              		.loc 1 52 0
  81 0048 7B78     		ldrb	r3, [r7, #1]
  82 004a 83F00703 		eor	r3, r3, #7
  83 004e 7B70     		strb	r3, [r7, #1]
  53:u8glib_arm_v1.18.1\src/u8g_rect.c ****     w++;
  84              		.loc 1 53 0
  85 0050 7B78     		ldrb	r3, [r7, #1]	@ zero_extendqisi2
  86 0052 0133     		adds	r3, r3, #1
  87 0054 7B70     		strb	r3, [r7, #1]
  54:u8glib_arm_v1.18.1\src/u8g_rect.c ****     pixel <<= w&7;
  88              		.loc 1 54 0
  89 0056 FA7B     		ldrb	r2, [r7, #15]	@ zero_extendqisi2
  90 0058 7B78     		ldrb	r3, [r7, #1]	@ zero_extendqisi2
  91 005a 03F00703 		and	r3, r3, #7
  92 005e 02FA03F3 		lsl	r3, r2, r3
  93 0062 FB73     		strb	r3, [r7, #15]
  55:u8glib_arm_v1.18.1\src/u8g_rect.c ****     u8g_Draw8Pixel(u8g, x, y, 0, pixel);
  94              		.loc 1 55 0
  95 0064 F978     		ldrb	r1, [r7, #3]	@ zero_extendqisi2
  96 0066 BA78     		ldrb	r2, [r7, #2]	@ zero_extendqisi2
  97 0068 FB7B     		ldrb	r3, [r7, #15]	@ zero_extendqisi2
  98 006a 0093     		str	r3, [sp]
  99 006c 7868     		ldr	r0, [r7, #4]
 100 006e 0023     		movs	r3, #0
 101 0070 FFF7FEFF 		bl	u8g_Draw8Pixel
 102              	.L1:
  56:u8glib_arm_v1.18.1\src/u8g_rect.c ****   }
  57:u8glib_arm_v1.18.1\src/u8g_rect.c **** }
 103              		.loc 1 57 0
 104 0074 1037     		adds	r7, r7, #16
 105              		.cfi_def_cfa_offset 8
 106 0076 BD46     		mov	sp, r7
 107              		.cfi_def_cfa_register 13
 108              		@ sp needed
 109 0078 80BD     		pop	{r7, pc}
 110              		.cfi_endproc
 111              	.LFE0:
 112              		.size	u8g_draw_hline, .-u8g_draw_hline
 113 007a 00BF     		.section	.text.u8g_draw_vline,"ax",%progbits
ARM GAS  C:\Users\KJA\AppData\Local\Temp\ccWwRLV3.s 			page 4


 114              		.align	2
 115              		.global	u8g_draw_vline
 116              		.thumb
 117              		.thumb_func
 118              		.type	u8g_draw_vline, %function
 119              	u8g_draw_vline:
 120              	.LFB1:
  58:u8glib_arm_v1.18.1\src/u8g_rect.c **** 
  59:u8glib_arm_v1.18.1\src/u8g_rect.c **** void u8g_draw_vline(u8g_t *u8g, u8g_uint_t x, u8g_uint_t y, u8g_uint_t h)
  60:u8glib_arm_v1.18.1\src/u8g_rect.c **** {
 121              		.loc 1 60 0
 122              		.cfi_startproc
 123              		@ args = 0, pretend = 0, frame = 16
 124              		@ frame_needed = 1, uses_anonymous_args = 0
 125 0000 80B5     		push	{r7, lr}
 126              		.cfi_def_cfa_offset 8
 127              		.cfi_offset 7, -8
 128              		.cfi_offset 14, -4
 129 0002 86B0     		sub	sp, sp, #24
 130              		.cfi_def_cfa_offset 32
 131 0004 02AF     		add	r7, sp, #8
 132              		.cfi_def_cfa 7, 24
 133 0006 7860     		str	r0, [r7, #4]
 134 0008 0846     		mov	r0, r1
 135 000a 1146     		mov	r1, r2
 136 000c 1A46     		mov	r2, r3
 137 000e 0346     		mov	r3, r0
 138 0010 FB70     		strb	r3, [r7, #3]
 139 0012 0B46     		mov	r3, r1
 140 0014 BB70     		strb	r3, [r7, #2]
 141 0016 1346     		mov	r3, r2
 142 0018 7B70     		strb	r3, [r7, #1]
  61:u8glib_arm_v1.18.1\src/u8g_rect.c ****   uint8_t pixel = 0x0ff;
 143              		.loc 1 61 0
 144 001a FF23     		movs	r3, #255
 145 001c FB73     		strb	r3, [r7, #15]
  62:u8glib_arm_v1.18.1\src/u8g_rect.c ****   while( h >= 8 )
 146              		.loc 1 62 0
 147 001e 0DE0     		b	.L6
 148              	.L7:
  63:u8glib_arm_v1.18.1\src/u8g_rect.c ****   {
  64:u8glib_arm_v1.18.1\src/u8g_rect.c ****     u8g_Draw8Pixel(u8g, x, y, 1, pixel);
 149              		.loc 1 64 0
 150 0020 F978     		ldrb	r1, [r7, #3]	@ zero_extendqisi2
 151 0022 BA78     		ldrb	r2, [r7, #2]	@ zero_extendqisi2
 152 0024 FB7B     		ldrb	r3, [r7, #15]	@ zero_extendqisi2
 153 0026 0093     		str	r3, [sp]
 154 0028 7868     		ldr	r0, [r7, #4]
 155 002a 0123     		movs	r3, #1
 156 002c FFF7FEFF 		bl	u8g_Draw8Pixel
  65:u8glib_arm_v1.18.1\src/u8g_rect.c ****     h-=8;
 157              		.loc 1 65 0
 158 0030 7B78     		ldrb	r3, [r7, #1]
 159 0032 083B     		subs	r3, r3, #8
 160 0034 7B70     		strb	r3, [r7, #1]
  66:u8glib_arm_v1.18.1\src/u8g_rect.c ****     y+=8;
 161              		.loc 1 66 0
ARM GAS  C:\Users\KJA\AppData\Local\Temp\ccWwRLV3.s 			page 5


 162 0036 BB78     		ldrb	r3, [r7, #2]
 163 0038 0833     		adds	r3, r3, #8
 164 003a BB70     		strb	r3, [r7, #2]
 165              	.L6:
  62:u8glib_arm_v1.18.1\src/u8g_rect.c ****   {
 166              		.loc 1 62 0
 167 003c 7B78     		ldrb	r3, [r7, #1]	@ zero_extendqisi2
 168 003e 072B     		cmp	r3, #7
 169 0040 EED8     		bhi	.L7
  67:u8glib_arm_v1.18.1\src/u8g_rect.c ****   }
  68:u8glib_arm_v1.18.1\src/u8g_rect.c ****   if ( h != 0 )
 170              		.loc 1 68 0
 171 0042 7B78     		ldrb	r3, [r7, #1]	@ zero_extendqisi2
 172 0044 002B     		cmp	r3, #0
 173 0046 15D0     		beq	.L5
  69:u8glib_arm_v1.18.1\src/u8g_rect.c ****   {
  70:u8glib_arm_v1.18.1\src/u8g_rect.c ****     h ^=7;
 174              		.loc 1 70 0
 175 0048 7B78     		ldrb	r3, [r7, #1]
 176 004a 83F00703 		eor	r3, r3, #7
 177 004e 7B70     		strb	r3, [r7, #1]
  71:u8glib_arm_v1.18.1\src/u8g_rect.c ****     h++;
 178              		.loc 1 71 0
 179 0050 7B78     		ldrb	r3, [r7, #1]	@ zero_extendqisi2
 180 0052 0133     		adds	r3, r3, #1
 181 0054 7B70     		strb	r3, [r7, #1]
  72:u8glib_arm_v1.18.1\src/u8g_rect.c ****     pixel <<= h&7;
 182              		.loc 1 72 0
 183 0056 FA7B     		ldrb	r2, [r7, #15]	@ zero_extendqisi2
 184 0058 7B78     		ldrb	r3, [r7, #1]	@ zero_extendqisi2
 185 005a 03F00703 		and	r3, r3, #7
 186 005e 02FA03F3 		lsl	r3, r2, r3
 187 0062 FB73     		strb	r3, [r7, #15]
  73:u8glib_arm_v1.18.1\src/u8g_rect.c ****     u8g_Draw8Pixel(u8g, x, y, 1, pixel);
 188              		.loc 1 73 0
 189 0064 F978     		ldrb	r1, [r7, #3]	@ zero_extendqisi2
 190 0066 BA78     		ldrb	r2, [r7, #2]	@ zero_extendqisi2
 191 0068 FB7B     		ldrb	r3, [r7, #15]	@ zero_extendqisi2
 192 006a 0093     		str	r3, [sp]
 193 006c 7868     		ldr	r0, [r7, #4]
 194 006e 0123     		movs	r3, #1
 195 0070 FFF7FEFF 		bl	u8g_Draw8Pixel
 196              	.L5:
  74:u8glib_arm_v1.18.1\src/u8g_rect.c ****   }
  75:u8glib_arm_v1.18.1\src/u8g_rect.c **** }
 197              		.loc 1 75 0
 198 0074 1037     		adds	r7, r7, #16
 199              		.cfi_def_cfa_offset 8
 200 0076 BD46     		mov	sp, r7
 201              		.cfi_def_cfa_register 13
 202              		@ sp needed
 203 0078 80BD     		pop	{r7, pc}
 204              		.cfi_endproc
 205              	.LFE1:
 206              		.size	u8g_draw_vline, .-u8g_draw_vline
 207 007a 00BF     		.section	.text.u8g_DrawHLine,"ax",%progbits
 208              		.align	2
ARM GAS  C:\Users\KJA\AppData\Local\Temp\ccWwRLV3.s 			page 6


 209              		.global	u8g_DrawHLine
 210              		.thumb
 211              		.thumb_func
 212              		.type	u8g_DrawHLine, %function
 213              	u8g_DrawHLine:
 214              	.LFB2:
  76:u8glib_arm_v1.18.1\src/u8g_rect.c **** 
  77:u8glib_arm_v1.18.1\src/u8g_rect.c **** void u8g_DrawHLine(u8g_t *u8g, u8g_uint_t x, u8g_uint_t y, u8g_uint_t w)
  78:u8glib_arm_v1.18.1\src/u8g_rect.c **** {
 215              		.loc 1 78 0
 216              		.cfi_startproc
 217              		@ args = 0, pretend = 0, frame = 8
 218              		@ frame_needed = 1, uses_anonymous_args = 0
 219 0000 90B5     		push	{r4, r7, lr}
 220              		.cfi_def_cfa_offset 12
 221              		.cfi_offset 4, -12
 222              		.cfi_offset 7, -8
 223              		.cfi_offset 14, -4
 224 0002 85B0     		sub	sp, sp, #20
 225              		.cfi_def_cfa_offset 32
 226 0004 02AF     		add	r7, sp, #8
 227              		.cfi_def_cfa 7, 24
 228 0006 7860     		str	r0, [r7, #4]
 229 0008 0846     		mov	r0, r1
 230 000a 1146     		mov	r1, r2
 231 000c 1A46     		mov	r2, r3
 232 000e 0346     		mov	r3, r0
 233 0010 FB70     		strb	r3, [r7, #3]
 234 0012 0B46     		mov	r3, r1
 235 0014 BB70     		strb	r3, [r7, #2]
 236 0016 1346     		mov	r3, r2
 237 0018 7B70     		strb	r3, [r7, #1]
  79:u8glib_arm_v1.18.1\src/u8g_rect.c ****   if ( u8g_IsBBXIntersection(u8g, x, y, w, 1) == 0 )
 238              		.loc 1 79 0
 239 001a F978     		ldrb	r1, [r7, #3]	@ zero_extendqisi2
 240 001c BA78     		ldrb	r2, [r7, #2]	@ zero_extendqisi2
 241 001e 7C78     		ldrb	r4, [r7, #1]	@ zero_extendqisi2
 242 0020 0123     		movs	r3, #1
 243 0022 0093     		str	r3, [sp]
 244 0024 7868     		ldr	r0, [r7, #4]
 245 0026 2346     		mov	r3, r4
 246 0028 FFF7FEFF 		bl	u8g_IsBBXIntersection
 247 002c 0346     		mov	r3, r0
 248 002e 002B     		cmp	r3, #0
 249 0030 00D1     		bne	.L10
  80:u8glib_arm_v1.18.1\src/u8g_rect.c ****     return;
 250              		.loc 1 80 0
 251 0032 05E0     		b	.L9
 252              	.L10:
  81:u8glib_arm_v1.18.1\src/u8g_rect.c ****   u8g_draw_hline(u8g, x, y, w);
 253              		.loc 1 81 0
 254 0034 F978     		ldrb	r1, [r7, #3]	@ zero_extendqisi2
 255 0036 BA78     		ldrb	r2, [r7, #2]	@ zero_extendqisi2
 256 0038 7B78     		ldrb	r3, [r7, #1]	@ zero_extendqisi2
 257 003a 7868     		ldr	r0, [r7, #4]
 258 003c FFF7FEFF 		bl	u8g_draw_hline
 259              	.L9:
ARM GAS  C:\Users\KJA\AppData\Local\Temp\ccWwRLV3.s 			page 7


  82:u8glib_arm_v1.18.1\src/u8g_rect.c **** }
 260              		.loc 1 82 0
 261 0040 0C37     		adds	r7, r7, #12
 262              		.cfi_def_cfa_offset 12
 263 0042 BD46     		mov	sp, r7
 264              		.cfi_def_cfa_register 13
 265              		@ sp needed
 266 0044 90BD     		pop	{r4, r7, pc}
 267              		.cfi_endproc
 268              	.LFE2:
 269              		.size	u8g_DrawHLine, .-u8g_DrawHLine
 270 0046 00BF     		.section	.text.u8g_DrawVLine,"ax",%progbits
 271              		.align	2
 272              		.global	u8g_DrawVLine
 273              		.thumb
 274              		.thumb_func
 275              		.type	u8g_DrawVLine, %function
 276              	u8g_DrawVLine:
 277              	.LFB3:
  83:u8glib_arm_v1.18.1\src/u8g_rect.c **** 
  84:u8glib_arm_v1.18.1\src/u8g_rect.c **** void u8g_DrawVLine(u8g_t *u8g, u8g_uint_t x, u8g_uint_t y, u8g_uint_t w)
  85:u8glib_arm_v1.18.1\src/u8g_rect.c **** {
 278              		.loc 1 85 0
 279              		.cfi_startproc
 280              		@ args = 0, pretend = 0, frame = 8
 281              		@ frame_needed = 1, uses_anonymous_args = 0
 282 0000 80B5     		push	{r7, lr}
 283              		.cfi_def_cfa_offset 8
 284              		.cfi_offset 7, -8
 285              		.cfi_offset 14, -4
 286 0002 84B0     		sub	sp, sp, #16
 287              		.cfi_def_cfa_offset 24
 288 0004 02AF     		add	r7, sp, #8
 289              		.cfi_def_cfa 7, 16
 290 0006 7860     		str	r0, [r7, #4]
 291 0008 0846     		mov	r0, r1
 292 000a 1146     		mov	r1, r2
 293 000c 1A46     		mov	r2, r3
 294 000e 0346     		mov	r3, r0
 295 0010 FB70     		strb	r3, [r7, #3]
 296 0012 0B46     		mov	r3, r1
 297 0014 BB70     		strb	r3, [r7, #2]
 298 0016 1346     		mov	r3, r2
 299 0018 7B70     		strb	r3, [r7, #1]
  86:u8glib_arm_v1.18.1\src/u8g_rect.c ****   if ( u8g_IsBBXIntersection(u8g, x, y, 1, w) == 0 )
 300              		.loc 1 86 0
 301 001a F978     		ldrb	r1, [r7, #3]	@ zero_extendqisi2
 302 001c BA78     		ldrb	r2, [r7, #2]	@ zero_extendqisi2
 303 001e 7B78     		ldrb	r3, [r7, #1]	@ zero_extendqisi2
 304 0020 0093     		str	r3, [sp]
 305 0022 7868     		ldr	r0, [r7, #4]
 306 0024 0123     		movs	r3, #1
 307 0026 FFF7FEFF 		bl	u8g_IsBBXIntersection
 308 002a 0346     		mov	r3, r0
 309 002c 002B     		cmp	r3, #0
 310 002e 00D1     		bne	.L13
  87:u8glib_arm_v1.18.1\src/u8g_rect.c ****     return;
ARM GAS  C:\Users\KJA\AppData\Local\Temp\ccWwRLV3.s 			page 8


 311              		.loc 1 87 0
 312 0030 05E0     		b	.L12
 313              	.L13:
  88:u8glib_arm_v1.18.1\src/u8g_rect.c ****   u8g_draw_vline(u8g, x, y, w);
 314              		.loc 1 88 0
 315 0032 F978     		ldrb	r1, [r7, #3]	@ zero_extendqisi2
 316 0034 BA78     		ldrb	r2, [r7, #2]	@ zero_extendqisi2
 317 0036 7B78     		ldrb	r3, [r7, #1]	@ zero_extendqisi2
 318 0038 7868     		ldr	r0, [r7, #4]
 319 003a FFF7FEFF 		bl	u8g_draw_vline
 320              	.L12:
  89:u8glib_arm_v1.18.1\src/u8g_rect.c **** }
 321              		.loc 1 89 0
 322 003e 0837     		adds	r7, r7, #8
 323              		.cfi_def_cfa_offset 8
 324 0040 BD46     		mov	sp, r7
 325              		.cfi_def_cfa_register 13
 326              		@ sp needed
 327 0042 80BD     		pop	{r7, pc}
 328              		.cfi_endproc
 329              	.LFE3:
 330              		.size	u8g_DrawVLine, .-u8g_DrawVLine
 331              		.section	.text.u8g_DrawFrame,"ax",%progbits
 332              		.align	2
 333              		.global	u8g_DrawFrame
 334              		.thumb
 335              		.thumb_func
 336              		.type	u8g_DrawFrame, %function
 337              	u8g_DrawFrame:
 338              	.LFB4:
  90:u8glib_arm_v1.18.1\src/u8g_rect.c **** 
  91:u8glib_arm_v1.18.1\src/u8g_rect.c **** /* restrictions: w > 0 && h > 0 */
  92:u8glib_arm_v1.18.1\src/u8g_rect.c **** void u8g_DrawFrame(u8g_t *u8g, u8g_uint_t x, u8g_uint_t y, u8g_uint_t w, u8g_uint_t h)
  93:u8glib_arm_v1.18.1\src/u8g_rect.c **** {
 339              		.loc 1 93 0
 340              		.cfi_startproc
 341              		@ args = 4, pretend = 0, frame = 16
 342              		@ frame_needed = 1, uses_anonymous_args = 0
 343 0000 90B5     		push	{r4, r7, lr}
 344              		.cfi_def_cfa_offset 12
 345              		.cfi_offset 4, -12
 346              		.cfi_offset 7, -8
 347              		.cfi_offset 14, -4
 348 0002 87B0     		sub	sp, sp, #28
 349              		.cfi_def_cfa_offset 40
 350 0004 02AF     		add	r7, sp, #8
 351              		.cfi_def_cfa 7, 32
 352 0006 7860     		str	r0, [r7, #4]
 353 0008 0846     		mov	r0, r1
 354 000a 1146     		mov	r1, r2
 355 000c 1A46     		mov	r2, r3
 356 000e 0346     		mov	r3, r0
 357 0010 FB70     		strb	r3, [r7, #3]
 358 0012 0B46     		mov	r3, r1
 359 0014 BB70     		strb	r3, [r7, #2]
 360 0016 1346     		mov	r3, r2
 361 0018 7B70     		strb	r3, [r7, #1]
ARM GAS  C:\Users\KJA\AppData\Local\Temp\ccWwRLV3.s 			page 9


  94:u8glib_arm_v1.18.1\src/u8g_rect.c ****   u8g_uint_t xtmp = x;
 362              		.loc 1 94 0
 363 001a FB78     		ldrb	r3, [r7, #3]
 364 001c FB73     		strb	r3, [r7, #15]
  95:u8glib_arm_v1.18.1\src/u8g_rect.c ****   
  96:u8glib_arm_v1.18.1\src/u8g_rect.c ****   if ( u8g_IsBBXIntersection(u8g, x, y, w, h) == 0 )
 365              		.loc 1 96 0
 366 001e F978     		ldrb	r1, [r7, #3]	@ zero_extendqisi2
 367 0020 BA78     		ldrb	r2, [r7, #2]	@ zero_extendqisi2
 368 0022 7C78     		ldrb	r4, [r7, #1]	@ zero_extendqisi2
 369 0024 97F82030 		ldrb	r3, [r7, #32]	@ zero_extendqisi2
 370 0028 0093     		str	r3, [sp]
 371 002a 7868     		ldr	r0, [r7, #4]
 372 002c 2346     		mov	r3, r4
 373 002e FFF7FEFF 		bl	u8g_IsBBXIntersection
 374 0032 0346     		mov	r3, r0
 375 0034 002B     		cmp	r3, #0
 376 0036 00D1     		bne	.L16
  97:u8glib_arm_v1.18.1\src/u8g_rect.c ****     return;
 377              		.loc 1 97 0
 378 0038 28E0     		b	.L15
 379              	.L16:
  98:u8glib_arm_v1.18.1\src/u8g_rect.c **** 
  99:u8glib_arm_v1.18.1\src/u8g_rect.c ****   
 100:u8glib_arm_v1.18.1\src/u8g_rect.c ****   u8g_draw_hline(u8g, x, y, w);
 380              		.loc 1 100 0
 381 003a F978     		ldrb	r1, [r7, #3]	@ zero_extendqisi2
 382 003c BA78     		ldrb	r2, [r7, #2]	@ zero_extendqisi2
 383 003e 7B78     		ldrb	r3, [r7, #1]	@ zero_extendqisi2
 384 0040 7868     		ldr	r0, [r7, #4]
 385 0042 FFF7FEFF 		bl	u8g_draw_hline
 101:u8glib_arm_v1.18.1\src/u8g_rect.c ****   u8g_draw_vline(u8g, x, y, h);
 386              		.loc 1 101 0
 387 0046 F978     		ldrb	r1, [r7, #3]	@ zero_extendqisi2
 388 0048 BA78     		ldrb	r2, [r7, #2]	@ zero_extendqisi2
 389 004a 97F82030 		ldrb	r3, [r7, #32]	@ zero_extendqisi2
 390 004e 7868     		ldr	r0, [r7, #4]
 391 0050 FFF7FEFF 		bl	u8g_draw_vline
 102:u8glib_arm_v1.18.1\src/u8g_rect.c ****   x+=w;
 392              		.loc 1 102 0
 393 0054 FA78     		ldrb	r2, [r7, #3]
 394 0056 7B78     		ldrb	r3, [r7, #1]
 395 0058 1344     		add	r3, r3, r2
 396 005a FB70     		strb	r3, [r7, #3]
 103:u8glib_arm_v1.18.1\src/u8g_rect.c ****   x--;
 397              		.loc 1 103 0
 398 005c FB78     		ldrb	r3, [r7, #3]	@ zero_extendqisi2
 399 005e 013B     		subs	r3, r3, #1
 400 0060 FB70     		strb	r3, [r7, #3]
 104:u8glib_arm_v1.18.1\src/u8g_rect.c ****   u8g_draw_vline(u8g, x, y, h);
 401              		.loc 1 104 0
 402 0062 F978     		ldrb	r1, [r7, #3]	@ zero_extendqisi2
 403 0064 BA78     		ldrb	r2, [r7, #2]	@ zero_extendqisi2
 404 0066 97F82030 		ldrb	r3, [r7, #32]	@ zero_extendqisi2
 405 006a 7868     		ldr	r0, [r7, #4]
 406 006c FFF7FEFF 		bl	u8g_draw_vline
 105:u8glib_arm_v1.18.1\src/u8g_rect.c ****   y+=h;
ARM GAS  C:\Users\KJA\AppData\Local\Temp\ccWwRLV3.s 			page 10


 407              		.loc 1 105 0
 408 0070 BA78     		ldrb	r2, [r7, #2]
 409 0072 97F82030 		ldrb	r3, [r7, #32]
 410 0076 1344     		add	r3, r3, r2
 411 0078 BB70     		strb	r3, [r7, #2]
 106:u8glib_arm_v1.18.1\src/u8g_rect.c ****   y--;
 412              		.loc 1 106 0
 413 007a BB78     		ldrb	r3, [r7, #2]	@ zero_extendqisi2
 414 007c 013B     		subs	r3, r3, #1
 415 007e BB70     		strb	r3, [r7, #2]
 107:u8glib_arm_v1.18.1\src/u8g_rect.c ****   u8g_draw_hline(u8g, xtmp, y, w);
 416              		.loc 1 107 0
 417 0080 F97B     		ldrb	r1, [r7, #15]	@ zero_extendqisi2
 418 0082 BA78     		ldrb	r2, [r7, #2]	@ zero_extendqisi2
 419 0084 7B78     		ldrb	r3, [r7, #1]	@ zero_extendqisi2
 420 0086 7868     		ldr	r0, [r7, #4]
 421 0088 FFF7FEFF 		bl	u8g_draw_hline
 422              	.L15:
 108:u8glib_arm_v1.18.1\src/u8g_rect.c **** }
 423              		.loc 1 108 0
 424 008c 1437     		adds	r7, r7, #20
 425              		.cfi_def_cfa_offset 12
 426 008e BD46     		mov	sp, r7
 427              		.cfi_def_cfa_register 13
 428              		@ sp needed
 429 0090 90BD     		pop	{r4, r7, pc}
 430              		.cfi_endproc
 431              	.LFE4:
 432              		.size	u8g_DrawFrame, .-u8g_DrawFrame
 433 0092 00BF     		.section	.text.u8g_draw_box,"ax",%progbits
 434              		.align	2
 435              		.global	u8g_draw_box
 436              		.thumb
 437              		.thumb_func
 438              		.type	u8g_draw_box, %function
 439              	u8g_draw_box:
 440              	.LFB5:
 109:u8glib_arm_v1.18.1\src/u8g_rect.c **** 
 110:u8glib_arm_v1.18.1\src/u8g_rect.c **** void u8g_draw_box(u8g_t *u8g, u8g_uint_t x, u8g_uint_t y, u8g_uint_t w, u8g_uint_t h)
 111:u8glib_arm_v1.18.1\src/u8g_rect.c **** {
 441              		.loc 1 111 0
 442              		.cfi_startproc
 443              		@ args = 4, pretend = 0, frame = 8
 444              		@ frame_needed = 1, uses_anonymous_args = 0
 445 0000 80B5     		push	{r7, lr}
 446              		.cfi_def_cfa_offset 8
 447              		.cfi_offset 7, -8
 448              		.cfi_offset 14, -4
 449 0002 82B0     		sub	sp, sp, #8
 450              		.cfi_def_cfa_offset 16
 451 0004 00AF     		add	r7, sp, #0
 452              		.cfi_def_cfa_register 7
 453 0006 7860     		str	r0, [r7, #4]
 454 0008 0846     		mov	r0, r1
 455 000a 1146     		mov	r1, r2
 456 000c 1A46     		mov	r2, r3
 457 000e 0346     		mov	r3, r0
ARM GAS  C:\Users\KJA\AppData\Local\Temp\ccWwRLV3.s 			page 11


 458 0010 FB70     		strb	r3, [r7, #3]
 459 0012 0B46     		mov	r3, r1
 460 0014 BB70     		strb	r3, [r7, #2]
 461 0016 1346     		mov	r3, r2
 462 0018 7B70     		strb	r3, [r7, #1]
 463              	.L19:
 112:u8glib_arm_v1.18.1\src/u8g_rect.c ****   do
 113:u8glib_arm_v1.18.1\src/u8g_rect.c ****   { 
 114:u8glib_arm_v1.18.1\src/u8g_rect.c ****     u8g_draw_hline(u8g, x, y, w);
 464              		.loc 1 114 0 discriminator 1
 465 001a F978     		ldrb	r1, [r7, #3]	@ zero_extendqisi2
 466 001c BA78     		ldrb	r2, [r7, #2]	@ zero_extendqisi2
 467 001e 7B78     		ldrb	r3, [r7, #1]	@ zero_extendqisi2
 468 0020 7868     		ldr	r0, [r7, #4]
 469 0022 FFF7FEFF 		bl	u8g_draw_hline
 115:u8glib_arm_v1.18.1\src/u8g_rect.c ****     y++;    
 470              		.loc 1 115 0 discriminator 1
 471 0026 BB78     		ldrb	r3, [r7, #2]	@ zero_extendqisi2
 472 0028 0133     		adds	r3, r3, #1
 473 002a BB70     		strb	r3, [r7, #2]
 116:u8glib_arm_v1.18.1\src/u8g_rect.c ****     h--;
 474              		.loc 1 116 0 discriminator 1
 475 002c 3B7C     		ldrb	r3, [r7, #16]	@ zero_extendqisi2
 476 002e 013B     		subs	r3, r3, #1
 477 0030 3B74     		strb	r3, [r7, #16]
 117:u8glib_arm_v1.18.1\src/u8g_rect.c ****   } while( h != 0 );
 478              		.loc 1 117 0 discriminator 1
 479 0032 3B7C     		ldrb	r3, [r7, #16]	@ zero_extendqisi2
 480 0034 002B     		cmp	r3, #0
 481 0036 F0D1     		bne	.L19
 118:u8glib_arm_v1.18.1\src/u8g_rect.c **** }
 482              		.loc 1 118 0
 483 0038 0837     		adds	r7, r7, #8
 484              		.cfi_def_cfa_offset 8
 485 003a BD46     		mov	sp, r7
 486              		.cfi_def_cfa_register 13
 487              		@ sp needed
 488 003c 80BD     		pop	{r7, pc}
 489              		.cfi_endproc
 490              	.LFE5:
 491              		.size	u8g_draw_box, .-u8g_draw_box
 492 003e 00BF     		.section	.text.u8g_DrawBox,"ax",%progbits
 493              		.align	2
 494              		.global	u8g_DrawBox
 495              		.thumb
 496              		.thumb_func
 497              		.type	u8g_DrawBox, %function
 498              	u8g_DrawBox:
 499              	.LFB6:
 119:u8glib_arm_v1.18.1\src/u8g_rect.c **** 
 120:u8glib_arm_v1.18.1\src/u8g_rect.c **** /* restrictions: h > 0 */
 121:u8glib_arm_v1.18.1\src/u8g_rect.c **** void u8g_DrawBox(u8g_t *u8g, u8g_uint_t x, u8g_uint_t y, u8g_uint_t w, u8g_uint_t h)
 122:u8glib_arm_v1.18.1\src/u8g_rect.c **** {
 500              		.loc 1 122 0
 501              		.cfi_startproc
 502              		@ args = 4, pretend = 0, frame = 8
 503              		@ frame_needed = 1, uses_anonymous_args = 0
ARM GAS  C:\Users\KJA\AppData\Local\Temp\ccWwRLV3.s 			page 12


 504 0000 90B5     		push	{r4, r7, lr}
 505              		.cfi_def_cfa_offset 12
 506              		.cfi_offset 4, -12
 507              		.cfi_offset 7, -8
 508              		.cfi_offset 14, -4
 509 0002 85B0     		sub	sp, sp, #20
 510              		.cfi_def_cfa_offset 32
 511 0004 02AF     		add	r7, sp, #8
 512              		.cfi_def_cfa 7, 24
 513 0006 7860     		str	r0, [r7, #4]
 514 0008 0846     		mov	r0, r1
 515 000a 1146     		mov	r1, r2
 516 000c 1A46     		mov	r2, r3
 517 000e 0346     		mov	r3, r0
 518 0010 FB70     		strb	r3, [r7, #3]
 519 0012 0B46     		mov	r3, r1
 520 0014 BB70     		strb	r3, [r7, #2]
 521 0016 1346     		mov	r3, r2
 522 0018 7B70     		strb	r3, [r7, #1]
 123:u8glib_arm_v1.18.1\src/u8g_rect.c ****   if ( u8g_IsBBXIntersection(u8g, x, y, w, h) == 0 )
 523              		.loc 1 123 0
 524 001a F978     		ldrb	r1, [r7, #3]	@ zero_extendqisi2
 525 001c BA78     		ldrb	r2, [r7, #2]	@ zero_extendqisi2
 526 001e 7C78     		ldrb	r4, [r7, #1]	@ zero_extendqisi2
 527 0020 3B7E     		ldrb	r3, [r7, #24]	@ zero_extendqisi2
 528 0022 0093     		str	r3, [sp]
 529 0024 7868     		ldr	r0, [r7, #4]
 530 0026 2346     		mov	r3, r4
 531 0028 FFF7FEFF 		bl	u8g_IsBBXIntersection
 532 002c 0346     		mov	r3, r0
 533 002e 002B     		cmp	r3, #0
 534 0030 00D1     		bne	.L21
 124:u8glib_arm_v1.18.1\src/u8g_rect.c ****     return;
 535              		.loc 1 124 0
 536 0032 08E0     		b	.L20
 537              	.L21:
 125:u8glib_arm_v1.18.1\src/u8g_rect.c ****   u8g_draw_box(u8g, x, y, w, h);
 538              		.loc 1 125 0
 539 0034 F978     		ldrb	r1, [r7, #3]	@ zero_extendqisi2
 540 0036 BA78     		ldrb	r2, [r7, #2]	@ zero_extendqisi2
 541 0038 7C78     		ldrb	r4, [r7, #1]	@ zero_extendqisi2
 542 003a 3B7E     		ldrb	r3, [r7, #24]	@ zero_extendqisi2
 543 003c 0093     		str	r3, [sp]
 544 003e 7868     		ldr	r0, [r7, #4]
 545 0040 2346     		mov	r3, r4
 546 0042 FFF7FEFF 		bl	u8g_draw_box
 547              	.L20:
 126:u8glib_arm_v1.18.1\src/u8g_rect.c **** }
 548              		.loc 1 126 0
 549 0046 0C37     		adds	r7, r7, #12
 550              		.cfi_def_cfa_offset 12
 551 0048 BD46     		mov	sp, r7
 552              		.cfi_def_cfa_register 13
 553              		@ sp needed
 554 004a 90BD     		pop	{r4, r7, pc}
 555              		.cfi_endproc
 556              	.LFE6:
ARM GAS  C:\Users\KJA\AppData\Local\Temp\ccWwRLV3.s 			page 13


 557              		.size	u8g_DrawBox, .-u8g_DrawBox
 558              		.section	.text.u8g_DrawRFrame,"ax",%progbits
 559              		.align	2
 560              		.global	u8g_DrawRFrame
 561              		.thumb
 562              		.thumb_func
 563              		.type	u8g_DrawRFrame, %function
 564              	u8g_DrawRFrame:
 565              	.LFB7:
 127:u8glib_arm_v1.18.1\src/u8g_rect.c **** 
 128:u8glib_arm_v1.18.1\src/u8g_rect.c **** 
 129:u8glib_arm_v1.18.1\src/u8g_rect.c **** void u8g_DrawRFrame(u8g_t *u8g, u8g_uint_t x, u8g_uint_t y, u8g_uint_t w, u8g_uint_t h, u8g_uint_t 
 130:u8glib_arm_v1.18.1\src/u8g_rect.c **** {
 566              		.loc 1 130 0
 567              		.cfi_startproc
 568              		@ args = 8, pretend = 0, frame = 16
 569              		@ frame_needed = 1, uses_anonymous_args = 0
 570 0000 90B5     		push	{r4, r7, lr}
 571              		.cfi_def_cfa_offset 12
 572              		.cfi_offset 4, -12
 573              		.cfi_offset 7, -8
 574              		.cfi_offset 14, -4
 575 0002 87B0     		sub	sp, sp, #28
 576              		.cfi_def_cfa_offset 40
 577 0004 02AF     		add	r7, sp, #8
 578              		.cfi_def_cfa 7, 32
 579 0006 7860     		str	r0, [r7, #4]
 580 0008 0846     		mov	r0, r1
 581 000a 1146     		mov	r1, r2
 582 000c 1A46     		mov	r2, r3
 583 000e 0346     		mov	r3, r0
 584 0010 FB70     		strb	r3, [r7, #3]
 585 0012 0B46     		mov	r3, r1
 586 0014 BB70     		strb	r3, [r7, #2]
 587 0016 1346     		mov	r3, r2
 588 0018 7B70     		strb	r3, [r7, #1]
 131:u8glib_arm_v1.18.1\src/u8g_rect.c ****   u8g_uint_t xl, yu;
 132:u8glib_arm_v1.18.1\src/u8g_rect.c **** 
 133:u8glib_arm_v1.18.1\src/u8g_rect.c ****   if ( u8g_IsBBXIntersection(u8g, x, y, w, h) == 0 )
 589              		.loc 1 133 0
 590 001a F978     		ldrb	r1, [r7, #3]	@ zero_extendqisi2
 591 001c BA78     		ldrb	r2, [r7, #2]	@ zero_extendqisi2
 592 001e 7C78     		ldrb	r4, [r7, #1]	@ zero_extendqisi2
 593 0020 97F82030 		ldrb	r3, [r7, #32]	@ zero_extendqisi2
 594 0024 0093     		str	r3, [sp]
 595 0026 7868     		ldr	r0, [r7, #4]
 596 0028 2346     		mov	r3, r4
 597 002a FFF7FEFF 		bl	u8g_IsBBXIntersection
 598 002e 0346     		mov	r3, r0
 599 0030 002B     		cmp	r3, #0
 600 0032 00D1     		bne	.L24
 134:u8glib_arm_v1.18.1\src/u8g_rect.c ****     return;
 601              		.loc 1 134 0
 602 0034 9EE0     		b	.L23
 603              	.L24:
 135:u8glib_arm_v1.18.1\src/u8g_rect.c **** 
 136:u8glib_arm_v1.18.1\src/u8g_rect.c ****   xl = x;
ARM GAS  C:\Users\KJA\AppData\Local\Temp\ccWwRLV3.s 			page 14


 604              		.loc 1 136 0
 605 0036 FB78     		ldrb	r3, [r7, #3]
 606 0038 FB73     		strb	r3, [r7, #15]
 137:u8glib_arm_v1.18.1\src/u8g_rect.c ****   xl += r;
 607              		.loc 1 137 0
 608 003a FA7B     		ldrb	r2, [r7, #15]
 609 003c 97F82430 		ldrb	r3, [r7, #36]
 610 0040 1344     		add	r3, r3, r2
 611 0042 FB73     		strb	r3, [r7, #15]
 138:u8glib_arm_v1.18.1\src/u8g_rect.c ****   yu = y;
 612              		.loc 1 138 0
 613 0044 BB78     		ldrb	r3, [r7, #2]
 614 0046 BB73     		strb	r3, [r7, #14]
 139:u8glib_arm_v1.18.1\src/u8g_rect.c ****   yu += r;
 615              		.loc 1 139 0
 616 0048 BA7B     		ldrb	r2, [r7, #14]
 617 004a 97F82430 		ldrb	r3, [r7, #36]
 618 004e 1344     		add	r3, r3, r2
 619 0050 BB73     		strb	r3, [r7, #14]
 620              	.LBB2:
 140:u8glib_arm_v1.18.1\src/u8g_rect.c ****  
 141:u8glib_arm_v1.18.1\src/u8g_rect.c ****   {
 142:u8glib_arm_v1.18.1\src/u8g_rect.c ****     u8g_uint_t yl, xr;
 143:u8glib_arm_v1.18.1\src/u8g_rect.c ****       
 144:u8glib_arm_v1.18.1\src/u8g_rect.c ****     xr = x;
 621              		.loc 1 144 0
 622 0052 FB78     		ldrb	r3, [r7, #3]
 623 0054 7B73     		strb	r3, [r7, #13]
 145:u8glib_arm_v1.18.1\src/u8g_rect.c ****     xr += w;
 624              		.loc 1 145 0
 625 0056 7A7B     		ldrb	r2, [r7, #13]
 626 0058 7B78     		ldrb	r3, [r7, #1]
 627 005a 1344     		add	r3, r3, r2
 628 005c 7B73     		strb	r3, [r7, #13]
 146:u8glib_arm_v1.18.1\src/u8g_rect.c ****     xr -= r;
 629              		.loc 1 146 0
 630 005e 7A7B     		ldrb	r2, [r7, #13]
 631 0060 97F82430 		ldrb	r3, [r7, #36]
 632 0064 D31A     		subs	r3, r2, r3
 633 0066 7B73     		strb	r3, [r7, #13]
 147:u8glib_arm_v1.18.1\src/u8g_rect.c ****     xr -= 1;
 634              		.loc 1 147 0
 635 0068 7B7B     		ldrb	r3, [r7, #13]
 636 006a 013B     		subs	r3, r3, #1
 637 006c 7B73     		strb	r3, [r7, #13]
 148:u8glib_arm_v1.18.1\src/u8g_rect.c ****     
 149:u8glib_arm_v1.18.1\src/u8g_rect.c ****     yl = y;
 638              		.loc 1 149 0
 639 006e BB78     		ldrb	r3, [r7, #2]
 640 0070 3B73     		strb	r3, [r7, #12]
 150:u8glib_arm_v1.18.1\src/u8g_rect.c ****     yl += h;
 641              		.loc 1 150 0
 642 0072 3A7B     		ldrb	r2, [r7, #12]
 643 0074 97F82030 		ldrb	r3, [r7, #32]
 644 0078 1344     		add	r3, r3, r2
 645 007a 3B73     		strb	r3, [r7, #12]
 151:u8glib_arm_v1.18.1\src/u8g_rect.c ****     yl -= r; 
ARM GAS  C:\Users\KJA\AppData\Local\Temp\ccWwRLV3.s 			page 15


 646              		.loc 1 151 0
 647 007c 3A7B     		ldrb	r2, [r7, #12]
 648 007e 97F82430 		ldrb	r3, [r7, #36]
 649 0082 D31A     		subs	r3, r2, r3
 650 0084 3B73     		strb	r3, [r7, #12]
 152:u8glib_arm_v1.18.1\src/u8g_rect.c ****     yl -= 1;
 651              		.loc 1 152 0
 652 0086 3B7B     		ldrb	r3, [r7, #12]
 653 0088 013B     		subs	r3, r3, #1
 654 008a 3B73     		strb	r3, [r7, #12]
 153:u8glib_arm_v1.18.1\src/u8g_rect.c **** 
 154:u8glib_arm_v1.18.1\src/u8g_rect.c ****     u8g_draw_circle(u8g, xl, yu, r, U8G_DRAW_UPPER_LEFT);
 655              		.loc 1 154 0
 656 008c F97B     		ldrb	r1, [r7, #15]	@ zero_extendqisi2
 657 008e BA7B     		ldrb	r2, [r7, #14]	@ zero_extendqisi2
 658 0090 97F82440 		ldrb	r4, [r7, #36]	@ zero_extendqisi2
 659 0094 0223     		movs	r3, #2
 660 0096 0093     		str	r3, [sp]
 661 0098 7868     		ldr	r0, [r7, #4]
 662 009a 2346     		mov	r3, r4
 663 009c FFF7FEFF 		bl	u8g_draw_circle
 155:u8glib_arm_v1.18.1\src/u8g_rect.c ****     u8g_draw_circle(u8g, xr, yu, r, U8G_DRAW_UPPER_RIGHT);
 664              		.loc 1 155 0
 665 00a0 797B     		ldrb	r1, [r7, #13]	@ zero_extendqisi2
 666 00a2 BA7B     		ldrb	r2, [r7, #14]	@ zero_extendqisi2
 667 00a4 97F82440 		ldrb	r4, [r7, #36]	@ zero_extendqisi2
 668 00a8 0123     		movs	r3, #1
 669 00aa 0093     		str	r3, [sp]
 670 00ac 7868     		ldr	r0, [r7, #4]
 671 00ae 2346     		mov	r3, r4
 672 00b0 FFF7FEFF 		bl	u8g_draw_circle
 156:u8glib_arm_v1.18.1\src/u8g_rect.c ****     u8g_draw_circle(u8g, xl, yl, r, U8G_DRAW_LOWER_LEFT);
 673              		.loc 1 156 0
 674 00b4 F97B     		ldrb	r1, [r7, #15]	@ zero_extendqisi2
 675 00b6 3A7B     		ldrb	r2, [r7, #12]	@ zero_extendqisi2
 676 00b8 97F82440 		ldrb	r4, [r7, #36]	@ zero_extendqisi2
 677 00bc 0423     		movs	r3, #4
 678 00be 0093     		str	r3, [sp]
 679 00c0 7868     		ldr	r0, [r7, #4]
 680 00c2 2346     		mov	r3, r4
 681 00c4 FFF7FEFF 		bl	u8g_draw_circle
 157:u8glib_arm_v1.18.1\src/u8g_rect.c ****     u8g_draw_circle(u8g, xr, yl, r, U8G_DRAW_LOWER_RIGHT);
 682              		.loc 1 157 0
 683 00c8 797B     		ldrb	r1, [r7, #13]	@ zero_extendqisi2
 684 00ca 3A7B     		ldrb	r2, [r7, #12]	@ zero_extendqisi2
 685 00cc 97F82440 		ldrb	r4, [r7, #36]	@ zero_extendqisi2
 686 00d0 0823     		movs	r3, #8
 687 00d2 0093     		str	r3, [sp]
 688 00d4 7868     		ldr	r0, [r7, #4]
 689 00d6 2346     		mov	r3, r4
 690 00d8 FFF7FEFF 		bl	u8g_draw_circle
 691              	.LBE2:
 692              	.LBB3:
 158:u8glib_arm_v1.18.1\src/u8g_rect.c ****   }
 159:u8glib_arm_v1.18.1\src/u8g_rect.c **** 
 160:u8glib_arm_v1.18.1\src/u8g_rect.c ****   {
 161:u8glib_arm_v1.18.1\src/u8g_rect.c ****     u8g_uint_t ww, hh;
ARM GAS  C:\Users\KJA\AppData\Local\Temp\ccWwRLV3.s 			page 16


 162:u8glib_arm_v1.18.1\src/u8g_rect.c **** 
 163:u8glib_arm_v1.18.1\src/u8g_rect.c ****     ww = w;
 693              		.loc 1 163 0
 694 00dc 7B78     		ldrb	r3, [r7, #1]
 695 00de FB72     		strb	r3, [r7, #11]
 164:u8glib_arm_v1.18.1\src/u8g_rect.c ****     ww -= r;
 696              		.loc 1 164 0
 697 00e0 FA7A     		ldrb	r2, [r7, #11]
 698 00e2 97F82430 		ldrb	r3, [r7, #36]
 699 00e6 D31A     		subs	r3, r2, r3
 700 00e8 FB72     		strb	r3, [r7, #11]
 165:u8glib_arm_v1.18.1\src/u8g_rect.c ****     ww -= r;
 701              		.loc 1 165 0
 702 00ea FA7A     		ldrb	r2, [r7, #11]
 703 00ec 97F82430 		ldrb	r3, [r7, #36]
 704 00f0 D31A     		subs	r3, r2, r3
 705 00f2 FB72     		strb	r3, [r7, #11]
 166:u8glib_arm_v1.18.1\src/u8g_rect.c ****     ww -= 2;
 706              		.loc 1 166 0
 707 00f4 FB7A     		ldrb	r3, [r7, #11]
 708 00f6 023B     		subs	r3, r3, #2
 709 00f8 FB72     		strb	r3, [r7, #11]
 167:u8glib_arm_v1.18.1\src/u8g_rect.c ****     hh = h;
 710              		.loc 1 167 0
 711 00fa 97F82030 		ldrb	r3, [r7, #32]
 712 00fe BB72     		strb	r3, [r7, #10]
 168:u8glib_arm_v1.18.1\src/u8g_rect.c ****     hh -= r;
 713              		.loc 1 168 0
 714 0100 BA7A     		ldrb	r2, [r7, #10]
 715 0102 97F82430 		ldrb	r3, [r7, #36]
 716 0106 D31A     		subs	r3, r2, r3
 717 0108 BB72     		strb	r3, [r7, #10]
 169:u8glib_arm_v1.18.1\src/u8g_rect.c ****     hh -= r;
 718              		.loc 1 169 0
 719 010a BA7A     		ldrb	r2, [r7, #10]
 720 010c 97F82430 		ldrb	r3, [r7, #36]
 721 0110 D31A     		subs	r3, r2, r3
 722 0112 BB72     		strb	r3, [r7, #10]
 170:u8glib_arm_v1.18.1\src/u8g_rect.c ****     hh -= 2;
 723              		.loc 1 170 0
 724 0114 BB7A     		ldrb	r3, [r7, #10]
 725 0116 023B     		subs	r3, r3, #2
 726 0118 BB72     		strb	r3, [r7, #10]
 171:u8glib_arm_v1.18.1\src/u8g_rect.c ****     
 172:u8glib_arm_v1.18.1\src/u8g_rect.c ****     xl++;
 727              		.loc 1 172 0
 728 011a FB7B     		ldrb	r3, [r7, #15]	@ zero_extendqisi2
 729 011c 0133     		adds	r3, r3, #1
 730 011e FB73     		strb	r3, [r7, #15]
 173:u8glib_arm_v1.18.1\src/u8g_rect.c ****     yu++;
 731              		.loc 1 173 0
 732 0120 BB7B     		ldrb	r3, [r7, #14]	@ zero_extendqisi2
 733 0122 0133     		adds	r3, r3, #1
 734 0124 BB73     		strb	r3, [r7, #14]
 174:u8glib_arm_v1.18.1\src/u8g_rect.c ****     h--;
 735              		.loc 1 174 0
 736 0126 97F82030 		ldrb	r3, [r7, #32]	@ zero_extendqisi2
ARM GAS  C:\Users\KJA\AppData\Local\Temp\ccWwRLV3.s 			page 17


 737 012a 013B     		subs	r3, r3, #1
 738 012c 87F82030 		strb	r3, [r7, #32]
 175:u8glib_arm_v1.18.1\src/u8g_rect.c ****     w--;
 739              		.loc 1 175 0
 740 0130 7B78     		ldrb	r3, [r7, #1]	@ zero_extendqisi2
 741 0132 013B     		subs	r3, r3, #1
 742 0134 7B70     		strb	r3, [r7, #1]
 176:u8glib_arm_v1.18.1\src/u8g_rect.c ****     u8g_draw_hline(u8g, xl, y, ww);
 743              		.loc 1 176 0
 744 0136 F97B     		ldrb	r1, [r7, #15]	@ zero_extendqisi2
 745 0138 BA78     		ldrb	r2, [r7, #2]	@ zero_extendqisi2
 746 013a FB7A     		ldrb	r3, [r7, #11]	@ zero_extendqisi2
 747 013c 7868     		ldr	r0, [r7, #4]
 748 013e FFF7FEFF 		bl	u8g_draw_hline
 177:u8glib_arm_v1.18.1\src/u8g_rect.c ****     u8g_draw_hline(u8g, xl, y+h, ww);
 749              		.loc 1 177 0
 750 0142 BA78     		ldrb	r2, [r7, #2]
 751 0144 97F82030 		ldrb	r3, [r7, #32]
 752 0148 1344     		add	r3, r3, r2
 753 014a DAB2     		uxtb	r2, r3
 754 014c F97B     		ldrb	r1, [r7, #15]	@ zero_extendqisi2
 755 014e FB7A     		ldrb	r3, [r7, #11]	@ zero_extendqisi2
 756 0150 7868     		ldr	r0, [r7, #4]
 757 0152 FFF7FEFF 		bl	u8g_draw_hline
 178:u8glib_arm_v1.18.1\src/u8g_rect.c ****     u8g_draw_vline(u8g, x,         yu, hh);
 758              		.loc 1 178 0
 759 0156 F978     		ldrb	r1, [r7, #3]	@ zero_extendqisi2
 760 0158 BA7B     		ldrb	r2, [r7, #14]	@ zero_extendqisi2
 761 015a BB7A     		ldrb	r3, [r7, #10]	@ zero_extendqisi2
 762 015c 7868     		ldr	r0, [r7, #4]
 763 015e FFF7FEFF 		bl	u8g_draw_vline
 179:u8glib_arm_v1.18.1\src/u8g_rect.c ****     u8g_draw_vline(u8g, x+w, yu, hh);
 764              		.loc 1 179 0
 765 0162 FA78     		ldrb	r2, [r7, #3]
 766 0164 7B78     		ldrb	r3, [r7, #1]
 767 0166 1344     		add	r3, r3, r2
 768 0168 D9B2     		uxtb	r1, r3
 769 016a BA7B     		ldrb	r2, [r7, #14]	@ zero_extendqisi2
 770 016c BB7A     		ldrb	r3, [r7, #10]	@ zero_extendqisi2
 771 016e 7868     		ldr	r0, [r7, #4]
 772 0170 FFF7FEFF 		bl	u8g_draw_vline
 773              	.L23:
 774              	.LBE3:
 180:u8glib_arm_v1.18.1\src/u8g_rect.c ****   }
 181:u8glib_arm_v1.18.1\src/u8g_rect.c **** }
 775              		.loc 1 181 0
 776 0174 1437     		adds	r7, r7, #20
 777              		.cfi_def_cfa_offset 12
 778 0176 BD46     		mov	sp, r7
 779              		.cfi_def_cfa_register 13
 780              		@ sp needed
 781 0178 90BD     		pop	{r4, r7, pc}
 782              		.cfi_endproc
 783              	.LFE7:
 784              		.size	u8g_DrawRFrame, .-u8g_DrawRFrame
 785 017a 00BF     		.section	.text.u8g_DrawRBox,"ax",%progbits
 786              		.align	2
ARM GAS  C:\Users\KJA\AppData\Local\Temp\ccWwRLV3.s 			page 18


 787              		.global	u8g_DrawRBox
 788              		.thumb
 789              		.thumb_func
 790              		.type	u8g_DrawRBox, %function
 791              	u8g_DrawRBox:
 792              	.LFB8:
 182:u8glib_arm_v1.18.1\src/u8g_rect.c **** 
 183:u8glib_arm_v1.18.1\src/u8g_rect.c **** void u8g_DrawRBox(u8g_t *u8g, u8g_uint_t x, u8g_uint_t y, u8g_uint_t w, u8g_uint_t h, u8g_uint_t r)
 184:u8glib_arm_v1.18.1\src/u8g_rect.c **** {
 793              		.loc 1 184 0
 794              		.cfi_startproc
 795              		@ args = 8, pretend = 0, frame = 16
 796              		@ frame_needed = 1, uses_anonymous_args = 0
 797 0000 90B5     		push	{r4, r7, lr}
 798              		.cfi_def_cfa_offset 12
 799              		.cfi_offset 4, -12
 800              		.cfi_offset 7, -8
 801              		.cfi_offset 14, -4
 802 0002 87B0     		sub	sp, sp, #28
 803              		.cfi_def_cfa_offset 40
 804 0004 02AF     		add	r7, sp, #8
 805              		.cfi_def_cfa 7, 32
 806 0006 7860     		str	r0, [r7, #4]
 807 0008 0846     		mov	r0, r1
 808 000a 1146     		mov	r1, r2
 809 000c 1A46     		mov	r2, r3
 810 000e 0346     		mov	r3, r0
 811 0010 FB70     		strb	r3, [r7, #3]
 812 0012 0B46     		mov	r3, r1
 813 0014 BB70     		strb	r3, [r7, #2]
 814 0016 1346     		mov	r3, r2
 815 0018 7B70     		strb	r3, [r7, #1]
 185:u8glib_arm_v1.18.1\src/u8g_rect.c ****   u8g_uint_t xl, yu;
 186:u8glib_arm_v1.18.1\src/u8g_rect.c ****     u8g_uint_t yl, xr;
 187:u8glib_arm_v1.18.1\src/u8g_rect.c **** 
 188:u8glib_arm_v1.18.1\src/u8g_rect.c ****   if ( u8g_IsBBXIntersection(u8g, x, y, w, h) == 0 )
 816              		.loc 1 188 0
 817 001a F978     		ldrb	r1, [r7, #3]	@ zero_extendqisi2
 818 001c BA78     		ldrb	r2, [r7, #2]	@ zero_extendqisi2
 819 001e 7C78     		ldrb	r4, [r7, #1]	@ zero_extendqisi2
 820 0020 97F82030 		ldrb	r3, [r7, #32]	@ zero_extendqisi2
 821 0024 0093     		str	r3, [sp]
 822 0026 7868     		ldr	r0, [r7, #4]
 823 0028 2346     		mov	r3, r4
 824 002a FFF7FEFF 		bl	u8g_IsBBXIntersection
 825 002e 0346     		mov	r3, r0
 826 0030 002B     		cmp	r3, #0
 827 0032 00D1     		bne	.L27
 189:u8glib_arm_v1.18.1\src/u8g_rect.c ****     return;
 828              		.loc 1 189 0
 829 0034 9DE0     		b	.L26
 830              	.L27:
 190:u8glib_arm_v1.18.1\src/u8g_rect.c **** 
 191:u8glib_arm_v1.18.1\src/u8g_rect.c ****   xl = x;
 831              		.loc 1 191 0
 832 0036 FB78     		ldrb	r3, [r7, #3]
 833 0038 FB73     		strb	r3, [r7, #15]
ARM GAS  C:\Users\KJA\AppData\Local\Temp\ccWwRLV3.s 			page 19


 192:u8glib_arm_v1.18.1\src/u8g_rect.c ****   xl += r;
 834              		.loc 1 192 0
 835 003a FA7B     		ldrb	r2, [r7, #15]
 836 003c 97F82430 		ldrb	r3, [r7, #36]
 837 0040 1344     		add	r3, r3, r2
 838 0042 FB73     		strb	r3, [r7, #15]
 193:u8glib_arm_v1.18.1\src/u8g_rect.c ****   yu = y;
 839              		.loc 1 193 0
 840 0044 BB78     		ldrb	r3, [r7, #2]
 841 0046 BB73     		strb	r3, [r7, #14]
 194:u8glib_arm_v1.18.1\src/u8g_rect.c ****   yu += r;
 842              		.loc 1 194 0
 843 0048 BA7B     		ldrb	r2, [r7, #14]
 844 004a 97F82430 		ldrb	r3, [r7, #36]
 845 004e 1344     		add	r3, r3, r2
 846 0050 BB73     		strb	r3, [r7, #14]
 195:u8glib_arm_v1.18.1\src/u8g_rect.c ****  
 196:u8glib_arm_v1.18.1\src/u8g_rect.c ****   xr = x;
 847              		.loc 1 196 0
 848 0052 FB78     		ldrb	r3, [r7, #3]
 849 0054 7B73     		strb	r3, [r7, #13]
 197:u8glib_arm_v1.18.1\src/u8g_rect.c ****   xr += w;
 850              		.loc 1 197 0
 851 0056 7A7B     		ldrb	r2, [r7, #13]
 852 0058 7B78     		ldrb	r3, [r7, #1]
 853 005a 1344     		add	r3, r3, r2
 854 005c 7B73     		strb	r3, [r7, #13]
 198:u8glib_arm_v1.18.1\src/u8g_rect.c ****   xr -= r;
 855              		.loc 1 198 0
 856 005e 7A7B     		ldrb	r2, [r7, #13]
 857 0060 97F82430 		ldrb	r3, [r7, #36]
 858 0064 D31A     		subs	r3, r2, r3
 859 0066 7B73     		strb	r3, [r7, #13]
 199:u8glib_arm_v1.18.1\src/u8g_rect.c ****   xr -= 1;
 860              		.loc 1 199 0
 861 0068 7B7B     		ldrb	r3, [r7, #13]
 862 006a 013B     		subs	r3, r3, #1
 863 006c 7B73     		strb	r3, [r7, #13]
 200:u8glib_arm_v1.18.1\src/u8g_rect.c ****   
 201:u8glib_arm_v1.18.1\src/u8g_rect.c ****   yl = y;
 864              		.loc 1 201 0
 865 006e BB78     		ldrb	r3, [r7, #2]
 866 0070 3B73     		strb	r3, [r7, #12]
 202:u8glib_arm_v1.18.1\src/u8g_rect.c ****   yl += h;
 867              		.loc 1 202 0
 868 0072 3A7B     		ldrb	r2, [r7, #12]
 869 0074 97F82030 		ldrb	r3, [r7, #32]
 870 0078 1344     		add	r3, r3, r2
 871 007a 3B73     		strb	r3, [r7, #12]
 203:u8glib_arm_v1.18.1\src/u8g_rect.c ****   yl -= r; 
 872              		.loc 1 203 0
 873 007c 3A7B     		ldrb	r2, [r7, #12]
 874 007e 97F82430 		ldrb	r3, [r7, #36]
 875 0082 D31A     		subs	r3, r2, r3
 876 0084 3B73     		strb	r3, [r7, #12]
 204:u8glib_arm_v1.18.1\src/u8g_rect.c ****   yl -= 1;
 877              		.loc 1 204 0
ARM GAS  C:\Users\KJA\AppData\Local\Temp\ccWwRLV3.s 			page 20


 878 0086 3B7B     		ldrb	r3, [r7, #12]
 879 0088 013B     		subs	r3, r3, #1
 880 008a 3B73     		strb	r3, [r7, #12]
 205:u8glib_arm_v1.18.1\src/u8g_rect.c **** 
 206:u8glib_arm_v1.18.1\src/u8g_rect.c ****   u8g_draw_disc(u8g, xl, yu, r, U8G_DRAW_UPPER_LEFT);
 881              		.loc 1 206 0
 882 008c F97B     		ldrb	r1, [r7, #15]	@ zero_extendqisi2
 883 008e BA7B     		ldrb	r2, [r7, #14]	@ zero_extendqisi2
 884 0090 97F82440 		ldrb	r4, [r7, #36]	@ zero_extendqisi2
 885 0094 0223     		movs	r3, #2
 886 0096 0093     		str	r3, [sp]
 887 0098 7868     		ldr	r0, [r7, #4]
 888 009a 2346     		mov	r3, r4
 889 009c FFF7FEFF 		bl	u8g_draw_disc
 207:u8glib_arm_v1.18.1\src/u8g_rect.c ****   u8g_draw_disc(u8g, xr, yu, r, U8G_DRAW_UPPER_RIGHT);
 890              		.loc 1 207 0
 891 00a0 797B     		ldrb	r1, [r7, #13]	@ zero_extendqisi2
 892 00a2 BA7B     		ldrb	r2, [r7, #14]	@ zero_extendqisi2
 893 00a4 97F82440 		ldrb	r4, [r7, #36]	@ zero_extendqisi2
 894 00a8 0123     		movs	r3, #1
 895 00aa 0093     		str	r3, [sp]
 896 00ac 7868     		ldr	r0, [r7, #4]
 897 00ae 2346     		mov	r3, r4
 898 00b0 FFF7FEFF 		bl	u8g_draw_disc
 208:u8glib_arm_v1.18.1\src/u8g_rect.c ****   u8g_draw_disc(u8g, xl, yl, r, U8G_DRAW_LOWER_LEFT);
 899              		.loc 1 208 0
 900 00b4 F97B     		ldrb	r1, [r7, #15]	@ zero_extendqisi2
 901 00b6 3A7B     		ldrb	r2, [r7, #12]	@ zero_extendqisi2
 902 00b8 97F82440 		ldrb	r4, [r7, #36]	@ zero_extendqisi2
 903 00bc 0423     		movs	r3, #4
 904 00be 0093     		str	r3, [sp]
 905 00c0 7868     		ldr	r0, [r7, #4]
 906 00c2 2346     		mov	r3, r4
 907 00c4 FFF7FEFF 		bl	u8g_draw_disc
 209:u8glib_arm_v1.18.1\src/u8g_rect.c ****   u8g_draw_disc(u8g, xr, yl, r, U8G_DRAW_LOWER_RIGHT);
 908              		.loc 1 209 0
 909 00c8 797B     		ldrb	r1, [r7, #13]	@ zero_extendqisi2
 910 00ca 3A7B     		ldrb	r2, [r7, #12]	@ zero_extendqisi2
 911 00cc 97F82440 		ldrb	r4, [r7, #36]	@ zero_extendqisi2
 912 00d0 0823     		movs	r3, #8
 913 00d2 0093     		str	r3, [sp]
 914 00d4 7868     		ldr	r0, [r7, #4]
 915 00d6 2346     		mov	r3, r4
 916 00d8 FFF7FEFF 		bl	u8g_draw_disc
 917              	.LBB4:
 210:u8glib_arm_v1.18.1\src/u8g_rect.c **** 
 211:u8glib_arm_v1.18.1\src/u8g_rect.c ****   {
 212:u8glib_arm_v1.18.1\src/u8g_rect.c ****     u8g_uint_t ww, hh;
 213:u8glib_arm_v1.18.1\src/u8g_rect.c **** 
 214:u8glib_arm_v1.18.1\src/u8g_rect.c ****     ww = w;
 918              		.loc 1 214 0
 919 00dc 7B78     		ldrb	r3, [r7, #1]
 920 00de FB72     		strb	r3, [r7, #11]
 215:u8glib_arm_v1.18.1\src/u8g_rect.c ****     ww -= r;
 921              		.loc 1 215 0
 922 00e0 FA7A     		ldrb	r2, [r7, #11]
 923 00e2 97F82430 		ldrb	r3, [r7, #36]
ARM GAS  C:\Users\KJA\AppData\Local\Temp\ccWwRLV3.s 			page 21


 924 00e6 D31A     		subs	r3, r2, r3
 925 00e8 FB72     		strb	r3, [r7, #11]
 216:u8glib_arm_v1.18.1\src/u8g_rect.c ****     ww -= r;
 926              		.loc 1 216 0
 927 00ea FA7A     		ldrb	r2, [r7, #11]
 928 00ec 97F82430 		ldrb	r3, [r7, #36]
 929 00f0 D31A     		subs	r3, r2, r3
 930 00f2 FB72     		strb	r3, [r7, #11]
 217:u8glib_arm_v1.18.1\src/u8g_rect.c ****     ww -= 2;
 931              		.loc 1 217 0
 932 00f4 FB7A     		ldrb	r3, [r7, #11]
 933 00f6 023B     		subs	r3, r3, #2
 934 00f8 FB72     		strb	r3, [r7, #11]
 218:u8glib_arm_v1.18.1\src/u8g_rect.c ****     hh = h;
 935              		.loc 1 218 0
 936 00fa 97F82030 		ldrb	r3, [r7, #32]
 937 00fe BB72     		strb	r3, [r7, #10]
 219:u8glib_arm_v1.18.1\src/u8g_rect.c ****     hh -= r;
 938              		.loc 1 219 0
 939 0100 BA7A     		ldrb	r2, [r7, #10]
 940 0102 97F82430 		ldrb	r3, [r7, #36]
 941 0106 D31A     		subs	r3, r2, r3
 942 0108 BB72     		strb	r3, [r7, #10]
 220:u8glib_arm_v1.18.1\src/u8g_rect.c ****     hh -= r;
 943              		.loc 1 220 0
 944 010a BA7A     		ldrb	r2, [r7, #10]
 945 010c 97F82430 		ldrb	r3, [r7, #36]
 946 0110 D31A     		subs	r3, r2, r3
 947 0112 BB72     		strb	r3, [r7, #10]
 221:u8glib_arm_v1.18.1\src/u8g_rect.c ****     hh -= 2;
 948              		.loc 1 221 0
 949 0114 BB7A     		ldrb	r3, [r7, #10]
 950 0116 023B     		subs	r3, r3, #2
 951 0118 BB72     		strb	r3, [r7, #10]
 222:u8glib_arm_v1.18.1\src/u8g_rect.c ****     
 223:u8glib_arm_v1.18.1\src/u8g_rect.c ****     xl++;
 952              		.loc 1 223 0
 953 011a FB7B     		ldrb	r3, [r7, #15]	@ zero_extendqisi2
 954 011c 0133     		adds	r3, r3, #1
 955 011e FB73     		strb	r3, [r7, #15]
 224:u8glib_arm_v1.18.1\src/u8g_rect.c ****     yu++;
 956              		.loc 1 224 0
 957 0120 BB7B     		ldrb	r3, [r7, #14]	@ zero_extendqisi2
 958 0122 0133     		adds	r3, r3, #1
 959 0124 BB73     		strb	r3, [r7, #14]
 225:u8glib_arm_v1.18.1\src/u8g_rect.c ****     h--;
 960              		.loc 1 225 0
 961 0126 97F82030 		ldrb	r3, [r7, #32]	@ zero_extendqisi2
 962 012a 013B     		subs	r3, r3, #1
 963 012c 87F82030 		strb	r3, [r7, #32]
 226:u8glib_arm_v1.18.1\src/u8g_rect.c ****     u8g_draw_box(u8g, xl, y, ww, r+1);
 964              		.loc 1 226 0
 965 0130 97F82430 		ldrb	r3, [r7, #36]
 966 0134 0133     		adds	r3, r3, #1
 967 0136 DBB2     		uxtb	r3, r3
 968 0138 F97B     		ldrb	r1, [r7, #15]	@ zero_extendqisi2
 969 013a BA78     		ldrb	r2, [r7, #2]	@ zero_extendqisi2
ARM GAS  C:\Users\KJA\AppData\Local\Temp\ccWwRLV3.s 			page 22


 970 013c FC7A     		ldrb	r4, [r7, #11]	@ zero_extendqisi2
 971 013e 0093     		str	r3, [sp]
 972 0140 7868     		ldr	r0, [r7, #4]
 973 0142 2346     		mov	r3, r4
 974 0144 FFF7FEFF 		bl	u8g_draw_box
 227:u8glib_arm_v1.18.1\src/u8g_rect.c ****     u8g_draw_box(u8g, xl, yl, ww, r+1);
 975              		.loc 1 227 0
 976 0148 97F82430 		ldrb	r3, [r7, #36]
 977 014c 0133     		adds	r3, r3, #1
 978 014e DBB2     		uxtb	r3, r3
 979 0150 F97B     		ldrb	r1, [r7, #15]	@ zero_extendqisi2
 980 0152 3A7B     		ldrb	r2, [r7, #12]	@ zero_extendqisi2
 981 0154 FC7A     		ldrb	r4, [r7, #11]	@ zero_extendqisi2
 982 0156 0093     		str	r3, [sp]
 983 0158 7868     		ldr	r0, [r7, #4]
 984 015a 2346     		mov	r3, r4
 985 015c FFF7FEFF 		bl	u8g_draw_box
 228:u8glib_arm_v1.18.1\src/u8g_rect.c ****     //u8g_draw_hline(u8g, xl, y+h, ww);
 229:u8glib_arm_v1.18.1\src/u8g_rect.c ****     u8g_draw_box(u8g, x, yu, w, hh);
 986              		.loc 1 229 0
 987 0160 F978     		ldrb	r1, [r7, #3]	@ zero_extendqisi2
 988 0162 BA7B     		ldrb	r2, [r7, #14]	@ zero_extendqisi2
 989 0164 7C78     		ldrb	r4, [r7, #1]	@ zero_extendqisi2
 990 0166 BB7A     		ldrb	r3, [r7, #10]	@ zero_extendqisi2
 991 0168 0093     		str	r3, [sp]
 992 016a 7868     		ldr	r0, [r7, #4]
 993 016c 2346     		mov	r3, r4
 994 016e FFF7FEFF 		bl	u8g_draw_box
 995              	.L26:
 996              	.LBE4:
 230:u8glib_arm_v1.18.1\src/u8g_rect.c ****     //u8g_draw_vline(u8g, x+w, yu, hh);
 231:u8glib_arm_v1.18.1\src/u8g_rect.c ****   }
 232:u8glib_arm_v1.18.1\src/u8g_rect.c **** }
 997              		.loc 1 232 0
 998 0172 1437     		adds	r7, r7, #20
 999              		.cfi_def_cfa_offset 12
 1000 0174 BD46     		mov	sp, r7
 1001              		.cfi_def_cfa_register 13
 1002              		@ sp needed
 1003 0176 90BD     		pop	{r4, r7, pc}
 1004              		.cfi_endproc
 1005              	.LFE8:
 1006              		.size	u8g_DrawRBox, .-u8g_DrawRBox
 1007              		.text
 1008              	.Letext0:
 1009              		.file 2 "c:\\program files (x86)\\cypress\\psoc creator\\4.0\\psoc creator\\import\\gnu\\arm\\4.9.
 1010              		.file 3 "c:\\program files (x86)\\cypress\\psoc creator\\4.0\\psoc creator\\import\\gnu\\arm\\4.9.
 1011              		.file 4 "u8glib_arm_v1.18.1\\src\\u8g.h"