ARM GAS  C:\Users\KJA\AppData\Local\Temp\ccxj1ozw.s 			page 1


   1              		.syntax unified
   2              		.cpu cortex-m3
   3              		.fpu softvfp
   4              		.eabi_attribute 20, 1
   5              		.eabi_attribute 21, 1
   6              		.eabi_attribute 23, 3
   7              		.eabi_attribute 24, 1
   8              		.eabi_attribute 25, 1
   9              		.eabi_attribute 26, 1
  10              		.eabi_attribute 30, 6
  11              		.eabi_attribute 34, 1
  12              		.eabi_attribute 18, 4
  13              		.thumb
  14              		.file	"u8g_virtual_screen.c"
  15              		.text
  16              	.Ltext0:
  17              		.cfi_sections	.debug_frame
  18              		.global	u8g_vs_cnt
  19              		.bss
  20              		.type	u8g_vs_cnt, %object
  21              		.size	u8g_vs_cnt, 1
  22              	u8g_vs_cnt:
  23 0000 00       		.space	1
  24              		.comm	u8g_vs_list,32,4
  25              		.comm	u8g_vs_current,1,1
  26              		.comm	u8g_vs_width,1,1
  27              		.comm	u8g_vs_height,1,1
  28              		.section	.text.u8g_dev_vs_fn,"ax",%progbits
  29              		.align	2
  30              		.global	u8g_dev_vs_fn
  31              		.thumb
  32              		.thumb_func
  33              		.type	u8g_dev_vs_fn, %function
  34              	u8g_dev_vs_fn:
  35              	.LFB0:
  36              		.file 1 "u8glib_arm_v1.18.1\\src\\u8g_virtual_screen.c"
   1:u8glib_arm_v1.18.1\src/u8g_virtual_screen.c **** /*
   2:u8glib_arm_v1.18.1\src/u8g_virtual_screen.c **** 
   3:u8glib_arm_v1.18.1\src/u8g_virtual_screen.c ****   u8g_virtual_screen.c
   4:u8glib_arm_v1.18.1\src/u8g_virtual_screen.c **** 
   5:u8glib_arm_v1.18.1\src/u8g_virtual_screen.c ****   Universal 8bit Graphics Library
   6:u8glib_arm_v1.18.1\src/u8g_virtual_screen.c ****   
   7:u8glib_arm_v1.18.1\src/u8g_virtual_screen.c ****   Copyright (c) 2012, olikraus@gmail.com
   8:u8glib_arm_v1.18.1\src/u8g_virtual_screen.c ****   All rights reserved.
   9:u8glib_arm_v1.18.1\src/u8g_virtual_screen.c **** 
  10:u8glib_arm_v1.18.1\src/u8g_virtual_screen.c ****   Redistribution and use in source and binary forms, with or without modification, 
  11:u8glib_arm_v1.18.1\src/u8g_virtual_screen.c ****   are permitted provided that the following conditions are met:
  12:u8glib_arm_v1.18.1\src/u8g_virtual_screen.c **** 
  13:u8glib_arm_v1.18.1\src/u8g_virtual_screen.c ****   * Redistributions of source code must retain the above copyright notice, this list 
  14:u8glib_arm_v1.18.1\src/u8g_virtual_screen.c ****     of conditions and the following disclaimer.
  15:u8glib_arm_v1.18.1\src/u8g_virtual_screen.c ****     
  16:u8glib_arm_v1.18.1\src/u8g_virtual_screen.c ****   * Redistributions in binary form must reproduce the above copyright notice, this 
  17:u8glib_arm_v1.18.1\src/u8g_virtual_screen.c ****     list of conditions and the following disclaimer in the documentation and/or other 
  18:u8glib_arm_v1.18.1\src/u8g_virtual_screen.c ****     materials provided with the distribution.
  19:u8glib_arm_v1.18.1\src/u8g_virtual_screen.c **** 
  20:u8glib_arm_v1.18.1\src/u8g_virtual_screen.c ****   THIS SOFTWARE IS PROVIDED BY THE COPYRIGHT HOLDERS AND 
  21:u8glib_arm_v1.18.1\src/u8g_virtual_screen.c ****   CONTRIBUTORS "AS IS" AND ANY EXPRESS OR IMPLIED WARRANTIES, 
ARM GAS  C:\Users\KJA\AppData\Local\Temp\ccxj1ozw.s 			page 2


  22:u8glib_arm_v1.18.1\src/u8g_virtual_screen.c ****   INCLUDING, BUT NOT LIMITED TO, THE IMPLIED WARRANTIES OF 
  23:u8glib_arm_v1.18.1\src/u8g_virtual_screen.c ****   MERCHANTABILITY AND FITNESS FOR A PARTICULAR PURPOSE ARE 
  24:u8glib_arm_v1.18.1\src/u8g_virtual_screen.c ****   DISCLAIMED. IN NO EVENT SHALL THE COPYRIGHT HOLDER OR 
  25:u8glib_arm_v1.18.1\src/u8g_virtual_screen.c ****   CONTRIBUTORS BE LIABLE FOR ANY DIRECT, INDIRECT, INCIDENTAL, 
  26:u8glib_arm_v1.18.1\src/u8g_virtual_screen.c ****   SPECIAL, EXEMPLARY, OR CONSEQUENTIAL DAMAGES (INCLUDING, BUT 
  27:u8glib_arm_v1.18.1\src/u8g_virtual_screen.c ****   NOT LIMITED TO, PROCUREMENT OF SUBSTITUTE GOODS OR SERVICES; 
  28:u8glib_arm_v1.18.1\src/u8g_virtual_screen.c ****   LOSS OF USE, DATA, OR PROFITS; OR BUSINESS INTERRUPTION) HOWEVER 
  29:u8glib_arm_v1.18.1\src/u8g_virtual_screen.c ****   CAUSED AND ON ANY THEORY OF LIABILITY, WHETHER IN CONTRACT, 
  30:u8glib_arm_v1.18.1\src/u8g_virtual_screen.c ****   STRICT LIABILITY, OR TORT (INCLUDING NEGLIGENCE OR OTHERWISE) 
  31:u8glib_arm_v1.18.1\src/u8g_virtual_screen.c ****   ARISING IN ANY WAY OUT OF THE USE OF THIS SOFTWARE, EVEN IF 
  32:u8glib_arm_v1.18.1\src/u8g_virtual_screen.c ****   ADVISED OF THE POSSIBILITY OF SUCH DAMAGE.  
  33:u8glib_arm_v1.18.1\src/u8g_virtual_screen.c ****   
  34:u8glib_arm_v1.18.1\src/u8g_virtual_screen.c ****   
  35:u8glib_arm_v1.18.1\src/u8g_virtual_screen.c **** */
  36:u8glib_arm_v1.18.1\src/u8g_virtual_screen.c **** 
  37:u8glib_arm_v1.18.1\src/u8g_virtual_screen.c **** #include "u8g.h"
  38:u8glib_arm_v1.18.1\src/u8g_virtual_screen.c **** 
  39:u8glib_arm_v1.18.1\src/u8g_virtual_screen.c **** struct _u8g_vs_t
  40:u8glib_arm_v1.18.1\src/u8g_virtual_screen.c **** {
  41:u8glib_arm_v1.18.1\src/u8g_virtual_screen.c ****   u8g_uint_t x;
  42:u8glib_arm_v1.18.1\src/u8g_virtual_screen.c ****   u8g_uint_t y;
  43:u8glib_arm_v1.18.1\src/u8g_virtual_screen.c ****   u8g_t *u8g;
  44:u8glib_arm_v1.18.1\src/u8g_virtual_screen.c **** };
  45:u8glib_arm_v1.18.1\src/u8g_virtual_screen.c **** typedef struct _u8g_vs_t u8g_vs_t;
  46:u8glib_arm_v1.18.1\src/u8g_virtual_screen.c **** 
  47:u8glib_arm_v1.18.1\src/u8g_virtual_screen.c **** #define U8g_VS_MAX 4
  48:u8glib_arm_v1.18.1\src/u8g_virtual_screen.c **** uint8_t u8g_vs_cnt = 0;
  49:u8glib_arm_v1.18.1\src/u8g_virtual_screen.c **** u8g_vs_t u8g_vs_list[U8g_VS_MAX]; 
  50:u8glib_arm_v1.18.1\src/u8g_virtual_screen.c **** uint8_t u8g_vs_current;
  51:u8glib_arm_v1.18.1\src/u8g_virtual_screen.c **** u8g_uint_t u8g_vs_width;
  52:u8glib_arm_v1.18.1\src/u8g_virtual_screen.c **** u8g_uint_t u8g_vs_height;
  53:u8glib_arm_v1.18.1\src/u8g_virtual_screen.c **** 
  54:u8glib_arm_v1.18.1\src/u8g_virtual_screen.c **** uint8_t u8g_dev_vs_fn(u8g_t *u8g, u8g_dev_t *dev, uint8_t msg, void *arg)
  55:u8glib_arm_v1.18.1\src/u8g_virtual_screen.c **** {
  37              		.loc 1 55 0
  38              		.cfi_startproc
  39              		@ args = 0, pretend = 0, frame = 24
  40              		@ frame_needed = 1, uses_anonymous_args = 0
  41 0000 80B5     		push	{r7, lr}
  42              		.cfi_def_cfa_offset 8
  43              		.cfi_offset 7, -8
  44              		.cfi_offset 14, -4
  45 0002 86B0     		sub	sp, sp, #24
  46              		.cfi_def_cfa_offset 32
  47 0004 00AF     		add	r7, sp, #0
  48              		.cfi_def_cfa_register 7
  49 0006 F860     		str	r0, [r7, #12]
  50 0008 B960     		str	r1, [r7, #8]
  51 000a 3B60     		str	r3, [r7]
  52 000c 1346     		mov	r3, r2
  53 000e FB71     		strb	r3, [r7, #7]
  56:u8glib_arm_v1.18.1\src/u8g_virtual_screen.c ****   switch(msg)
  54              		.loc 1 56 0
  55 0010 FB79     		ldrb	r3, [r7, #7]	@ zero_extendqisi2
  56 0012 143B     		subs	r3, r3, #20
  57 0014 332B     		cmp	r3, #51
  58 0016 6BD8     		bhi	.L2
ARM GAS  C:\Users\KJA\AppData\Local\Temp\ccxj1ozw.s 			page 3


  59 0018 01A2     		adr	r2, .L4
  60 001a 52F823F0 		ldr	pc, [r2, r3, lsl #2]
  61 001e 00BF     		.p2align 2
  62              	.L4:
  63 0020 2F010000 		.word	.L3+1
  64 0024 6D010000 		.word	.L5+1
  65 0028 F1000000 		.word	.L2+1
  66 002c 09020000 		.word	.L6+1
  67 0030 F1000000 		.word	.L2+1
  68 0034 F1000000 		.word	.L2+1
  69 0038 F1000000 		.word	.L2+1
  70 003c F1000000 		.word	.L2+1
  71 0040 F1000000 		.word	.L2+1
  72 0044 F1000000 		.word	.L2+1
  73 0048 F1000000 		.word	.L2+1
  74 004c F1000000 		.word	.L2+1
  75 0050 F1000000 		.word	.L2+1
  76 0054 F1000000 		.word	.L2+1
  77 0058 F1000000 		.word	.L2+1
  78 005c F1000000 		.word	.L2+1
  79 0060 F1000000 		.word	.L2+1
  80 0064 F1000000 		.word	.L2+1
  81 0068 F1000000 		.word	.L2+1
  82 006c F1000000 		.word	.L2+1
  83 0070 F1000000 		.word	.L2+1
  84 0074 F1000000 		.word	.L2+1
  85 0078 F1000000 		.word	.L2+1
  86 007c F1000000 		.word	.L2+1
  87 0080 F1000000 		.word	.L2+1
  88 0084 F1000000 		.word	.L2+1
  89 0088 F1000000 		.word	.L2+1
  90 008c F1000000 		.word	.L2+1
  91 0090 F1000000 		.word	.L2+1
  92 0094 F1000000 		.word	.L2+1
  93 0098 BB020000 		.word	.L7+1
  94 009c F1000000 		.word	.L2+1
  95 00a0 F1000000 		.word	.L2+1
  96 00a4 F1000000 		.word	.L2+1
  97 00a8 F1000000 		.word	.L2+1
  98 00ac F1000000 		.word	.L2+1
  99 00b0 F1000000 		.word	.L2+1
 100 00b4 F1000000 		.word	.L2+1
 101 00b8 F1000000 		.word	.L2+1
 102 00bc BB020000 		.word	.L7+1
 103 00c0 F1000000 		.word	.L2+1
 104 00c4 F1000000 		.word	.L2+1
 105 00c8 F1000000 		.word	.L2+1
 106 00cc F1000000 		.word	.L2+1
 107 00d0 F1000000 		.word	.L2+1
 108 00d4 F1000000 		.word	.L2+1
 109 00d8 F1000000 		.word	.L2+1
 110 00dc F1000000 		.word	.L2+1
 111 00e0 F1000000 		.word	.L2+1
 112 00e4 F1000000 		.word	.L2+1
 113 00e8 F5010000 		.word	.L8+1
 114 00ec FF010000 		.word	.L9+1
 115              		.p2align 1
ARM GAS  C:\Users\KJA\AppData\Local\Temp\ccxj1ozw.s 			page 4


 116              	.L2:
 117              	.LBB2:
  57:u8glib_arm_v1.18.1\src/u8g_virtual_screen.c ****   {
  58:u8glib_arm_v1.18.1\src/u8g_virtual_screen.c ****     default:
  59:u8glib_arm_v1.18.1\src/u8g_virtual_screen.c ****       {
  60:u8glib_arm_v1.18.1\src/u8g_virtual_screen.c **** 	uint8_t i;
  61:u8glib_arm_v1.18.1\src/u8g_virtual_screen.c **** 	for( i = 0; i < u8g_vs_cnt; i++ )
 118              		.loc 1 61 0
 119 00f0 0023     		movs	r3, #0
 120 00f2 FB75     		strb	r3, [r7, #23]
 121 00f4 14E0     		b	.L10
 122              	.L11:
  62:u8glib_arm_v1.18.1\src/u8g_virtual_screen.c **** 	{
  63:u8glib_arm_v1.18.1\src/u8g_virtual_screen.c **** 	  u8g_call_dev_fn(u8g_vs_list[i].u8g, u8g_vs_list[i].u8g->dev, msg, arg);
 123              		.loc 1 63 0 discriminator 3
 124 00f6 FB7D     		ldrb	r3, [r7, #23]	@ zero_extendqisi2
 125 00f8 8D4A     		ldr	r2, .L21
 126 00fa DB00     		lsls	r3, r3, #3
 127 00fc 1344     		add	r3, r3, r2
 128 00fe 5968     		ldr	r1, [r3, #4]
 129 0100 FB7D     		ldrb	r3, [r7, #23]	@ zero_extendqisi2
 130 0102 8B4A     		ldr	r2, .L21
 131 0104 DB00     		lsls	r3, r3, #3
 132 0106 1344     		add	r3, r3, r2
 133 0108 5B68     		ldr	r3, [r3, #4]
 134 010a 5A68     		ldr	r2, [r3, #4]
 135 010c FB79     		ldrb	r3, [r7, #7]	@ zero_extendqisi2
 136 010e 0846     		mov	r0, r1
 137 0110 1146     		mov	r1, r2
 138 0112 1A46     		mov	r2, r3
 139 0114 3B68     		ldr	r3, [r7]
 140 0116 FFF7FEFF 		bl	u8g_call_dev_fn
  61:u8glib_arm_v1.18.1\src/u8g_virtual_screen.c **** 	{
 141              		.loc 1 61 0 discriminator 3
 142 011a FB7D     		ldrb	r3, [r7, #23]	@ zero_extendqisi2
 143 011c 0133     		adds	r3, r3, #1
 144 011e FB75     		strb	r3, [r7, #23]
 145              	.L10:
  61:u8glib_arm_v1.18.1\src/u8g_virtual_screen.c **** 	{
 146              		.loc 1 61 0 is_stmt 0 discriminator 1
 147 0120 844B     		ldr	r3, .L21+4
 148 0122 1B78     		ldrb	r3, [r3]	@ zero_extendqisi2
 149 0124 FA7D     		ldrb	r2, [r7, #23]	@ zero_extendqisi2
 150 0126 9A42     		cmp	r2, r3
 151 0128 E5D3     		bcc	.L11
 152              	.LBE2:
  64:u8glib_arm_v1.18.1\src/u8g_virtual_screen.c **** 	}
  65:u8glib_arm_v1.18.1\src/u8g_virtual_screen.c ****       }
  66:u8glib_arm_v1.18.1\src/u8g_virtual_screen.c ****       return 1;
 153              		.loc 1 66 0 is_stmt 1
 154 012a 0123     		movs	r3, #1
 155 012c FBE0     		b	.L12
 156              	.L3:
  67:u8glib_arm_v1.18.1\src/u8g_virtual_screen.c ****     case U8G_DEV_MSG_PAGE_FIRST:
  68:u8glib_arm_v1.18.1\src/u8g_virtual_screen.c ****       u8g_vs_current = 0;
 157              		.loc 1 68 0
 158 012e 824B     		ldr	r3, .L21+8
ARM GAS  C:\Users\KJA\AppData\Local\Temp\ccxj1ozw.s 			page 5


 159 0130 0022     		movs	r2, #0
 160 0132 1A70     		strb	r2, [r3]
  69:u8glib_arm_v1.18.1\src/u8g_virtual_screen.c ****       if ( u8g_vs_cnt != 0 )
 161              		.loc 1 69 0
 162 0134 7F4B     		ldr	r3, .L21+4
 163 0136 1B78     		ldrb	r3, [r3]	@ zero_extendqisi2
 164 0138 002B     		cmp	r3, #0
 165 013a 15D0     		beq	.L13
  70:u8glib_arm_v1.18.1\src/u8g_virtual_screen.c **** 	return u8g_call_dev_fn(u8g_vs_list[u8g_vs_current].u8g, u8g_vs_list[u8g_vs_current].u8g->dev, msg,
 166              		.loc 1 70 0
 167 013c 7E4B     		ldr	r3, .L21+8
 168 013e 1B78     		ldrb	r3, [r3]	@ zero_extendqisi2
 169 0140 7B4A     		ldr	r2, .L21
 170 0142 DB00     		lsls	r3, r3, #3
 171 0144 1344     		add	r3, r3, r2
 172 0146 5968     		ldr	r1, [r3, #4]
 173 0148 7B4B     		ldr	r3, .L21+8
 174 014a 1B78     		ldrb	r3, [r3]	@ zero_extendqisi2
 175 014c 784A     		ldr	r2, .L21
 176 014e DB00     		lsls	r3, r3, #3
 177 0150 1344     		add	r3, r3, r2
 178 0152 5B68     		ldr	r3, [r3, #4]
 179 0154 5A68     		ldr	r2, [r3, #4]
 180 0156 FB79     		ldrb	r3, [r7, #7]	@ zero_extendqisi2
 181 0158 0846     		mov	r0, r1
 182 015a 1146     		mov	r1, r2
 183 015c 1A46     		mov	r2, r3
 184 015e 3B68     		ldr	r3, [r7]
 185 0160 FFF7FEFF 		bl	u8g_call_dev_fn
 186 0164 0346     		mov	r3, r0
 187 0166 DEE0     		b	.L12
 188              	.L13:
  71:u8glib_arm_v1.18.1\src/u8g_virtual_screen.c ****       return 0;
 189              		.loc 1 71 0
 190 0168 0023     		movs	r3, #0
 191 016a DCE0     		b	.L12
 192              	.L5:
 193              	.LBB3:
  72:u8glib_arm_v1.18.1\src/u8g_virtual_screen.c ****     case U8G_DEV_MSG_PAGE_NEXT:
  73:u8glib_arm_v1.18.1\src/u8g_virtual_screen.c ****       {	
  74:u8glib_arm_v1.18.1\src/u8g_virtual_screen.c **** 	uint8_t ret = 0;
 194              		.loc 1 74 0
 195 016c 0023     		movs	r3, #0
 196 016e BB75     		strb	r3, [r7, #22]
  75:u8glib_arm_v1.18.1\src/u8g_virtual_screen.c **** 	if ( u8g_vs_cnt != 0 )
 197              		.loc 1 75 0
 198 0170 704B     		ldr	r3, .L21+4
 199 0172 1B78     		ldrb	r3, [r3]	@ zero_extendqisi2
 200 0174 002B     		cmp	r3, #0
 201 0176 15D0     		beq	.L14
  76:u8glib_arm_v1.18.1\src/u8g_virtual_screen.c **** 	  ret = u8g_call_dev_fn(u8g_vs_list[u8g_vs_current].u8g, u8g_vs_list[u8g_vs_current].u8g->dev, msg
 202              		.loc 1 76 0
 203 0178 6F4B     		ldr	r3, .L21+8
 204 017a 1B78     		ldrb	r3, [r3]	@ zero_extendqisi2
 205 017c 6C4A     		ldr	r2, .L21
 206 017e DB00     		lsls	r3, r3, #3
 207 0180 1344     		add	r3, r3, r2
ARM GAS  C:\Users\KJA\AppData\Local\Temp\ccxj1ozw.s 			page 6


 208 0182 5968     		ldr	r1, [r3, #4]
 209 0184 6C4B     		ldr	r3, .L21+8
 210 0186 1B78     		ldrb	r3, [r3]	@ zero_extendqisi2
 211 0188 694A     		ldr	r2, .L21
 212 018a DB00     		lsls	r3, r3, #3
 213 018c 1344     		add	r3, r3, r2
 214 018e 5B68     		ldr	r3, [r3, #4]
 215 0190 5A68     		ldr	r2, [r3, #4]
 216 0192 FB79     		ldrb	r3, [r7, #7]	@ zero_extendqisi2
 217 0194 0846     		mov	r0, r1
 218 0196 1146     		mov	r1, r2
 219 0198 1A46     		mov	r2, r3
 220 019a 3B68     		ldr	r3, [r7]
 221 019c FFF7FEFF 		bl	u8g_call_dev_fn
 222 01a0 0346     		mov	r3, r0
 223 01a2 BB75     		strb	r3, [r7, #22]
 224              	.L14:
  77:u8glib_arm_v1.18.1\src/u8g_virtual_screen.c **** 	if ( ret != 0 )
 225              		.loc 1 77 0
 226 01a4 BB7D     		ldrb	r3, [r7, #22]	@ zero_extendqisi2
 227 01a6 002B     		cmp	r3, #0
 228 01a8 01D0     		beq	.L15
  78:u8glib_arm_v1.18.1\src/u8g_virtual_screen.c **** 	  return ret;
 229              		.loc 1 78 0
 230 01aa BB7D     		ldrb	r3, [r7, #22]	@ zero_extendqisi2
 231 01ac BBE0     		b	.L12
 232              	.L15:
  79:u8glib_arm_v1.18.1\src/u8g_virtual_screen.c **** 	u8g_vs_current++;	/* next device */
 233              		.loc 1 79 0
 234 01ae 624B     		ldr	r3, .L21+8
 235 01b0 1B78     		ldrb	r3, [r3]	@ zero_extendqisi2
 236 01b2 0133     		adds	r3, r3, #1
 237 01b4 DAB2     		uxtb	r2, r3
 238 01b6 604B     		ldr	r3, .L21+8
 239 01b8 1A70     		strb	r2, [r3]
  80:u8glib_arm_v1.18.1\src/u8g_virtual_screen.c **** 	if ( u8g_vs_current >= u8g_vs_cnt )  /* reached end? */
 240              		.loc 1 80 0
 241 01ba 5F4B     		ldr	r3, .L21+8
 242 01bc 1A78     		ldrb	r2, [r3]	@ zero_extendqisi2
 243 01be 5D4B     		ldr	r3, .L21+4
 244 01c0 1B78     		ldrb	r3, [r3]	@ zero_extendqisi2
 245 01c2 9A42     		cmp	r2, r3
 246 01c4 01D3     		bcc	.L16
  81:u8glib_arm_v1.18.1\src/u8g_virtual_screen.c **** 	  return 0;
 247              		.loc 1 81 0
 248 01c6 0023     		movs	r3, #0
 249 01c8 ADE0     		b	.L12
 250              	.L16:
  82:u8glib_arm_v1.18.1\src/u8g_virtual_screen.c **** 	return u8g_call_dev_fn(u8g_vs_list[u8g_vs_current].u8g, u8g_vs_list[u8g_vs_current].u8g->dev, U8G_
 251              		.loc 1 82 0
 252 01ca 5B4B     		ldr	r3, .L21+8
 253 01cc 1B78     		ldrb	r3, [r3]	@ zero_extendqisi2
 254 01ce 584A     		ldr	r2, .L21
 255 01d0 DB00     		lsls	r3, r3, #3
 256 01d2 1344     		add	r3, r3, r2
 257 01d4 5968     		ldr	r1, [r3, #4]
 258 01d6 584B     		ldr	r3, .L21+8
ARM GAS  C:\Users\KJA\AppData\Local\Temp\ccxj1ozw.s 			page 7


 259 01d8 1B78     		ldrb	r3, [r3]	@ zero_extendqisi2
 260 01da 554A     		ldr	r2, .L21
 261 01dc DB00     		lsls	r3, r3, #3
 262 01de 1344     		add	r3, r3, r2
 263 01e0 5B68     		ldr	r3, [r3, #4]
 264 01e2 5B68     		ldr	r3, [r3, #4]
 265 01e4 0846     		mov	r0, r1
 266 01e6 1946     		mov	r1, r3
 267 01e8 1422     		movs	r2, #20
 268 01ea 3B68     		ldr	r3, [r7]
 269 01ec FFF7FEFF 		bl	u8g_call_dev_fn
 270 01f0 0346     		mov	r3, r0
 271 01f2 98E0     		b	.L12
 272              	.L8:
 273              	.LBE3:
  83:u8glib_arm_v1.18.1\src/u8g_virtual_screen.c ****       }
  84:u8glib_arm_v1.18.1\src/u8g_virtual_screen.c ****     case U8G_DEV_MSG_GET_WIDTH:
  85:u8glib_arm_v1.18.1\src/u8g_virtual_screen.c ****       *((u8g_uint_t *)arg) = u8g_vs_width;
 274              		.loc 1 85 0
 275 01f4 514B     		ldr	r3, .L21+12
 276 01f6 1A78     		ldrb	r2, [r3]	@ zero_extendqisi2
 277 01f8 3B68     		ldr	r3, [r7]
 278 01fa 1A70     		strb	r2, [r3]
  86:u8glib_arm_v1.18.1\src/u8g_virtual_screen.c ****       break;
 279              		.loc 1 86 0
 280 01fc 92E0     		b	.L17
 281              	.L9:
  87:u8glib_arm_v1.18.1\src/u8g_virtual_screen.c ****     case U8G_DEV_MSG_GET_HEIGHT:
  88:u8glib_arm_v1.18.1\src/u8g_virtual_screen.c ****       *((u8g_uint_t *)arg) = u8g_vs_height;
 282              		.loc 1 88 0
 283 01fe 504B     		ldr	r3, .L21+16
 284 0200 1A78     		ldrb	r2, [r3]	@ zero_extendqisi2
 285 0202 3B68     		ldr	r3, [r7]
 286 0204 1A70     		strb	r2, [r3]
  89:u8glib_arm_v1.18.1\src/u8g_virtual_screen.c ****       break;
 287              		.loc 1 89 0
 288 0206 8DE0     		b	.L17
 289              	.L6:
  90:u8glib_arm_v1.18.1\src/u8g_virtual_screen.c ****     case U8G_DEV_MSG_GET_PAGE_BOX:
  91:u8glib_arm_v1.18.1\src/u8g_virtual_screen.c ****       if ( u8g_vs_current < u8g_vs_cnt )
 290              		.loc 1 91 0
 291 0208 4B4B     		ldr	r3, .L21+8
 292 020a 1A78     		ldrb	r2, [r3]	@ zero_extendqisi2
 293 020c 494B     		ldr	r3, .L21+4
 294 020e 1B78     		ldrb	r3, [r3]	@ zero_extendqisi2
 295 0210 9A42     		cmp	r2, r3
 296 0212 44D2     		bcs	.L18
  92:u8glib_arm_v1.18.1\src/u8g_virtual_screen.c ****       {
  93:u8glib_arm_v1.18.1\src/u8g_virtual_screen.c **** 	u8g_call_dev_fn(u8g_vs_list[u8g_vs_current].u8g, u8g_vs_list[u8g_vs_current].u8g->dev, msg, arg);
 297              		.loc 1 93 0
 298 0214 484B     		ldr	r3, .L21+8
 299 0216 1B78     		ldrb	r3, [r3]	@ zero_extendqisi2
 300 0218 454A     		ldr	r2, .L21
 301 021a DB00     		lsls	r3, r3, #3
 302 021c 1344     		add	r3, r3, r2
 303 021e 5968     		ldr	r1, [r3, #4]
 304 0220 454B     		ldr	r3, .L21+8
ARM GAS  C:\Users\KJA\AppData\Local\Temp\ccxj1ozw.s 			page 8


 305 0222 1B78     		ldrb	r3, [r3]	@ zero_extendqisi2
 306 0224 424A     		ldr	r2, .L21
 307 0226 DB00     		lsls	r3, r3, #3
 308 0228 1344     		add	r3, r3, r2
 309 022a 5B68     		ldr	r3, [r3, #4]
 310 022c 5A68     		ldr	r2, [r3, #4]
 311 022e FB79     		ldrb	r3, [r7, #7]	@ zero_extendqisi2
 312 0230 0846     		mov	r0, r1
 313 0232 1146     		mov	r1, r2
 314 0234 1A46     		mov	r2, r3
 315 0236 3B68     		ldr	r3, [r7]
 316 0238 FFF7FEFF 		bl	u8g_call_dev_fn
  94:u8glib_arm_v1.18.1\src/u8g_virtual_screen.c **** 	((u8g_box_t *)arg)->x0 += u8g_vs_list[u8g_vs_current].x;
 317              		.loc 1 94 0
 318 023c 3B68     		ldr	r3, [r7]
 319 023e 1A78     		ldrb	r2, [r3]	@ zero_extendqisi2
 320 0240 3D4B     		ldr	r3, .L21+8
 321 0242 1B78     		ldrb	r3, [r3]	@ zero_extendqisi2
 322 0244 1946     		mov	r1, r3
 323 0246 3A4B     		ldr	r3, .L21
 324 0248 13F83130 		ldrb	r3, [r3, r1, lsl #3]	@ zero_extendqisi2
 325 024c 1344     		add	r3, r3, r2
 326 024e DAB2     		uxtb	r2, r3
 327 0250 3B68     		ldr	r3, [r7]
 328 0252 1A70     		strb	r2, [r3]
  95:u8glib_arm_v1.18.1\src/u8g_virtual_screen.c **** 	((u8g_box_t *)arg)->x1 += u8g_vs_list[u8g_vs_current].x;
 329              		.loc 1 95 0
 330 0254 3B68     		ldr	r3, [r7]
 331 0256 9A78     		ldrb	r2, [r3, #2]	@ zero_extendqisi2
 332 0258 374B     		ldr	r3, .L21+8
 333 025a 1B78     		ldrb	r3, [r3]	@ zero_extendqisi2
 334 025c 1946     		mov	r1, r3
 335 025e 344B     		ldr	r3, .L21
 336 0260 13F83130 		ldrb	r3, [r3, r1, lsl #3]	@ zero_extendqisi2
 337 0264 1344     		add	r3, r3, r2
 338 0266 DAB2     		uxtb	r2, r3
 339 0268 3B68     		ldr	r3, [r7]
 340 026a 9A70     		strb	r2, [r3, #2]
  96:u8glib_arm_v1.18.1\src/u8g_virtual_screen.c **** 	((u8g_box_t *)arg)->y0 += u8g_vs_list[u8g_vs_current].y;
 341              		.loc 1 96 0
 342 026c 3B68     		ldr	r3, [r7]
 343 026e 5A78     		ldrb	r2, [r3, #1]	@ zero_extendqisi2
 344 0270 314B     		ldr	r3, .L21+8
 345 0272 1B78     		ldrb	r3, [r3]	@ zero_extendqisi2
 346 0274 2E49     		ldr	r1, .L21
 347 0276 DB00     		lsls	r3, r3, #3
 348 0278 0B44     		add	r3, r3, r1
 349 027a 5B78     		ldrb	r3, [r3, #1]	@ zero_extendqisi2
 350 027c 1344     		add	r3, r3, r2
 351 027e DAB2     		uxtb	r2, r3
 352 0280 3B68     		ldr	r3, [r7]
 353 0282 5A70     		strb	r2, [r3, #1]
  97:u8glib_arm_v1.18.1\src/u8g_virtual_screen.c **** 	((u8g_box_t *)arg)->y1 += u8g_vs_list[u8g_vs_current].y;
 354              		.loc 1 97 0
 355 0284 3B68     		ldr	r3, [r7]
 356 0286 DA78     		ldrb	r2, [r3, #3]	@ zero_extendqisi2
 357 0288 2B4B     		ldr	r3, .L21+8
ARM GAS  C:\Users\KJA\AppData\Local\Temp\ccxj1ozw.s 			page 9


 358 028a 1B78     		ldrb	r3, [r3]	@ zero_extendqisi2
 359 028c 2849     		ldr	r1, .L21
 360 028e DB00     		lsls	r3, r3, #3
 361 0290 0B44     		add	r3, r3, r1
 362 0292 5B78     		ldrb	r3, [r3, #1]	@ zero_extendqisi2
 363 0294 1344     		add	r3, r3, r2
 364 0296 DAB2     		uxtb	r2, r3
 365 0298 3B68     		ldr	r3, [r7]
 366 029a DA70     		strb	r2, [r3, #3]
 367 029c 0BE0     		b	.L19
 368              	.L18:
  98:u8glib_arm_v1.18.1\src/u8g_virtual_screen.c ****       }
  99:u8glib_arm_v1.18.1\src/u8g_virtual_screen.c ****       else
 100:u8glib_arm_v1.18.1\src/u8g_virtual_screen.c ****       {
 101:u8glib_arm_v1.18.1\src/u8g_virtual_screen.c **** 	((u8g_box_t *)arg)->x0 = 0;
 369              		.loc 1 101 0
 370 029e 3B68     		ldr	r3, [r7]
 371 02a0 0022     		movs	r2, #0
 372 02a2 1A70     		strb	r2, [r3]
 102:u8glib_arm_v1.18.1\src/u8g_virtual_screen.c **** 	((u8g_box_t *)arg)->x1 = 0;
 373              		.loc 1 102 0
 374 02a4 3B68     		ldr	r3, [r7]
 375 02a6 0022     		movs	r2, #0
 376 02a8 9A70     		strb	r2, [r3, #2]
 103:u8glib_arm_v1.18.1\src/u8g_virtual_screen.c **** 	((u8g_box_t *)arg)->y0 = 0;
 377              		.loc 1 103 0
 378 02aa 3B68     		ldr	r3, [r7]
 379 02ac 0022     		movs	r2, #0
 380 02ae 5A70     		strb	r2, [r3, #1]
 104:u8glib_arm_v1.18.1\src/u8g_virtual_screen.c **** 	((u8g_box_t *)arg)->y1 = 0;
 381              		.loc 1 104 0
 382 02b0 3B68     		ldr	r3, [r7]
 383 02b2 0022     		movs	r2, #0
 384 02b4 DA70     		strb	r2, [r3, #3]
 385              	.L19:
 105:u8glib_arm_v1.18.1\src/u8g_virtual_screen.c ****       }
 106:u8glib_arm_v1.18.1\src/u8g_virtual_screen.c ****       return 1;
 386              		.loc 1 106 0
 387 02b6 0123     		movs	r3, #1
 388 02b8 35E0     		b	.L12
 389              	.L7:
 107:u8glib_arm_v1.18.1\src/u8g_virtual_screen.c ****     case U8G_DEV_MSG_SET_PIXEL:
 108:u8glib_arm_v1.18.1\src/u8g_virtual_screen.c ****     case U8G_DEV_MSG_SET_8PIXEL:
 109:u8glib_arm_v1.18.1\src/u8g_virtual_screen.c ****       if ( u8g_vs_current < u8g_vs_cnt )
 390              		.loc 1 109 0
 391 02ba 1F4B     		ldr	r3, .L21+8
 392 02bc 1A78     		ldrb	r2, [r3]	@ zero_extendqisi2
 393 02be 1D4B     		ldr	r3, .L21+4
 394 02c0 1B78     		ldrb	r3, [r3]	@ zero_extendqisi2
 395 02c2 9A42     		cmp	r2, r3
 396 02c4 2DD2     		bcs	.L20
 110:u8glib_arm_v1.18.1\src/u8g_virtual_screen.c ****       {
 111:u8glib_arm_v1.18.1\src/u8g_virtual_screen.c ****         ((u8g_dev_arg_pixel_t *)arg)->x -= u8g_vs_list[u8g_vs_current].x;
 397              		.loc 1 111 0
 398 02c6 3B68     		ldr	r3, [r7]
 399 02c8 1A78     		ldrb	r2, [r3]	@ zero_extendqisi2
 400 02ca 1B4B     		ldr	r3, .L21+8
ARM GAS  C:\Users\KJA\AppData\Local\Temp\ccxj1ozw.s 			page 10


 401 02cc 1B78     		ldrb	r3, [r3]	@ zero_extendqisi2
 402 02ce 1946     		mov	r1, r3
 403 02d0 174B     		ldr	r3, .L21
 404 02d2 13F83130 		ldrb	r3, [r3, r1, lsl #3]	@ zero_extendqisi2
 405 02d6 D31A     		subs	r3, r2, r3
 406 02d8 DAB2     		uxtb	r2, r3
 407 02da 3B68     		ldr	r3, [r7]
 408 02dc 1A70     		strb	r2, [r3]
 112:u8glib_arm_v1.18.1\src/u8g_virtual_screen.c ****         ((u8g_dev_arg_pixel_t *)arg)->y -= u8g_vs_list[u8g_vs_current].y;
 409              		.loc 1 112 0
 410 02de 3B68     		ldr	r3, [r7]
 411 02e0 5A78     		ldrb	r2, [r3, #1]	@ zero_extendqisi2
 412 02e2 154B     		ldr	r3, .L21+8
 413 02e4 1B78     		ldrb	r3, [r3]	@ zero_extendqisi2
 414 02e6 1249     		ldr	r1, .L21
 415 02e8 DB00     		lsls	r3, r3, #3
 416 02ea 0B44     		add	r3, r3, r1
 417 02ec 5B78     		ldrb	r3, [r3, #1]	@ zero_extendqisi2
 418 02ee D31A     		subs	r3, r2, r3
 419 02f0 DAB2     		uxtb	r2, r3
 420 02f2 3B68     		ldr	r3, [r7]
 421 02f4 5A70     		strb	r2, [r3, #1]
 113:u8glib_arm_v1.18.1\src/u8g_virtual_screen.c **** 	return u8g_call_dev_fn(u8g_vs_list[u8g_vs_current].u8g, u8g_vs_list[u8g_vs_current].u8g->dev, msg,
 422              		.loc 1 113 0
 423 02f6 104B     		ldr	r3, .L21+8
 424 02f8 1B78     		ldrb	r3, [r3]	@ zero_extendqisi2
 425 02fa 0D4A     		ldr	r2, .L21
 426 02fc DB00     		lsls	r3, r3, #3
 427 02fe 1344     		add	r3, r3, r2
 428 0300 5968     		ldr	r1, [r3, #4]
 429 0302 0D4B     		ldr	r3, .L21+8
 430 0304 1B78     		ldrb	r3, [r3]	@ zero_extendqisi2
 431 0306 0A4A     		ldr	r2, .L21
 432 0308 DB00     		lsls	r3, r3, #3
 433 030a 1344     		add	r3, r3, r2
 434 030c 5B68     		ldr	r3, [r3, #4]
 435 030e 5A68     		ldr	r2, [r3, #4]
 436 0310 FB79     		ldrb	r3, [r7, #7]	@ zero_extendqisi2
 437 0312 0846     		mov	r0, r1
 438 0314 1146     		mov	r1, r2
 439 0316 1A46     		mov	r2, r3
 440 0318 3B68     		ldr	r3, [r7]
 441 031a FFF7FEFF 		bl	u8g_call_dev_fn
 442 031e 0346     		mov	r3, r0
 443 0320 01E0     		b	.L12
 444              	.L20:
 114:u8glib_arm_v1.18.1\src/u8g_virtual_screen.c ****       }
 115:u8glib_arm_v1.18.1\src/u8g_virtual_screen.c ****       break;
 445              		.loc 1 115 0
 446 0322 00BF     		nop
 447              	.L17:
 116:u8glib_arm_v1.18.1\src/u8g_virtual_screen.c ****   }
 117:u8glib_arm_v1.18.1\src/u8g_virtual_screen.c ****   return 1;
 448              		.loc 1 117 0
 449 0324 0123     		movs	r3, #1
 450              	.L12:
 118:u8glib_arm_v1.18.1\src/u8g_virtual_screen.c **** }
ARM GAS  C:\Users\KJA\AppData\Local\Temp\ccxj1ozw.s 			page 11


 451              		.loc 1 118 0
 452 0326 1846     		mov	r0, r3
 453 0328 1837     		adds	r7, r7, #24
 454              		.cfi_def_cfa_offset 8
 455 032a BD46     		mov	sp, r7
 456              		.cfi_def_cfa_register 13
 457              		@ sp needed
 458 032c 80BD     		pop	{r7, pc}
 459              	.L22:
 460 032e 00BF     		.align	2
 461              	.L21:
 462 0330 00000000 		.word	u8g_vs_list
 463 0334 00000000 		.word	u8g_vs_cnt
 464 0338 00000000 		.word	u8g_vs_current
 465 033c 00000000 		.word	u8g_vs_width
 466 0340 00000000 		.word	u8g_vs_height
 467              		.cfi_endproc
 468              	.LFE0:
 469              		.size	u8g_dev_vs_fn, .-u8g_dev_vs_fn
 470              		.global	u8g_dev_vs
 471              		.data
 472              		.align	2
 473              		.type	u8g_dev_vs, %object
 474              		.size	u8g_dev_vs, 12
 475              	u8g_dev_vs:
 476 0000 00000000 		.word	u8g_dev_vs_fn
 477 0004 00000000 		.word	0
 478 0008 00000000 		.word	0
 479              		.section	.text.u8g_SetVirtualScreenDimension,"ax",%progbits
 480              		.align	2
 481              		.global	u8g_SetVirtualScreenDimension
 482              		.thumb
 483              		.thumb_func
 484              		.type	u8g_SetVirtualScreenDimension, %function
 485              	u8g_SetVirtualScreenDimension:
 486              	.LFB1:
 119:u8glib_arm_v1.18.1\src/u8g_virtual_screen.c **** 
 120:u8glib_arm_v1.18.1\src/u8g_virtual_screen.c **** 
 121:u8glib_arm_v1.18.1\src/u8g_virtual_screen.c **** 
 122:u8glib_arm_v1.18.1\src/u8g_virtual_screen.c **** u8g_dev_t u8g_dev_vs = { u8g_dev_vs_fn, NULL, NULL };
 123:u8glib_arm_v1.18.1\src/u8g_virtual_screen.c **** 
 124:u8glib_arm_v1.18.1\src/u8g_virtual_screen.c **** void u8g_SetVirtualScreenDimension(u8g_t *vs_u8g, u8g_uint_t width, u8g_uint_t height)
 125:u8glib_arm_v1.18.1\src/u8g_virtual_screen.c **** {
 487              		.loc 1 125 0
 488              		.cfi_startproc
 489              		@ args = 0, pretend = 0, frame = 8
 490              		@ frame_needed = 1, uses_anonymous_args = 0
 491              		@ link register save eliminated.
 492 0000 80B4     		push	{r7}
 493              		.cfi_def_cfa_offset 4
 494              		.cfi_offset 7, -4
 495 0002 83B0     		sub	sp, sp, #12
 496              		.cfi_def_cfa_offset 16
 497 0004 00AF     		add	r7, sp, #0
 498              		.cfi_def_cfa_register 7
 499 0006 7860     		str	r0, [r7, #4]
 500 0008 0B46     		mov	r3, r1
ARM GAS  C:\Users\KJA\AppData\Local\Temp\ccxj1ozw.s 			page 12


 501 000a FB70     		strb	r3, [r7, #3]
 502 000c 1346     		mov	r3, r2
 503 000e BB70     		strb	r3, [r7, #2]
 126:u8glib_arm_v1.18.1\src/u8g_virtual_screen.c ****   if ( vs_u8g->dev != &u8g_dev_vs )
 504              		.loc 1 126 0
 505 0010 7B68     		ldr	r3, [r7, #4]
 506 0012 5B68     		ldr	r3, [r3, #4]
 507 0014 074A     		ldr	r2, .L26
 508 0016 9342     		cmp	r3, r2
 509 0018 00D0     		beq	.L24
 127:u8glib_arm_v1.18.1\src/u8g_virtual_screen.c ****     return; 	/* abort if there is no a virtual screen device */
 510              		.loc 1 127 0
 511 001a 05E0     		b	.L23
 512              	.L24:
 128:u8glib_arm_v1.18.1\src/u8g_virtual_screen.c ****   u8g_vs_width = width;
 513              		.loc 1 128 0
 514 001c 064A     		ldr	r2, .L26+4
 515 001e FB78     		ldrb	r3, [r7, #3]
 516 0020 1370     		strb	r3, [r2]
 129:u8glib_arm_v1.18.1\src/u8g_virtual_screen.c ****   u8g_vs_height = height;  
 517              		.loc 1 129 0
 518 0022 064A     		ldr	r2, .L26+8
 519 0024 BB78     		ldrb	r3, [r7, #2]
 520 0026 1370     		strb	r3, [r2]
 521              	.L23:
 130:u8glib_arm_v1.18.1\src/u8g_virtual_screen.c **** }
 522              		.loc 1 130 0
 523 0028 0C37     		adds	r7, r7, #12
 524              		.cfi_def_cfa_offset 4
 525 002a BD46     		mov	sp, r7
 526              		.cfi_def_cfa_register 13
 527              		@ sp needed
 528 002c 5DF8047B 		ldr	r7, [sp], #4
 529              		.cfi_restore 7
 530              		.cfi_def_cfa_offset 0
 531 0030 7047     		bx	lr
 532              	.L27:
 533 0032 00BF     		.align	2
 534              	.L26:
 535 0034 00000000 		.word	u8g_dev_vs
 536 0038 00000000 		.word	u8g_vs_width
 537 003c 00000000 		.word	u8g_vs_height
 538              		.cfi_endproc
 539              	.LFE1:
 540              		.size	u8g_SetVirtualScreenDimension, .-u8g_SetVirtualScreenDimension
 541              		.section	.text.u8g_AddToVirtualScreen,"ax",%progbits
 542              		.align	2
 543              		.global	u8g_AddToVirtualScreen
 544              		.thumb
 545              		.thumb_func
 546              		.type	u8g_AddToVirtualScreen, %function
 547              	u8g_AddToVirtualScreen:
 548              	.LFB2:
 131:u8glib_arm_v1.18.1\src/u8g_virtual_screen.c **** 
 132:u8glib_arm_v1.18.1\src/u8g_virtual_screen.c **** uint8_t u8g_AddToVirtualScreen(u8g_t *vs_u8g, u8g_uint_t x, u8g_uint_t y, u8g_t *child_u8g)
 133:u8glib_arm_v1.18.1\src/u8g_virtual_screen.c **** {
 549              		.loc 1 133 0
ARM GAS  C:\Users\KJA\AppData\Local\Temp\ccxj1ozw.s 			page 13


 550              		.cfi_startproc
 551              		@ args = 0, pretend = 0, frame = 16
 552              		@ frame_needed = 1, uses_anonymous_args = 0
 553              		@ link register save eliminated.
 554 0000 80B4     		push	{r7}
 555              		.cfi_def_cfa_offset 4
 556              		.cfi_offset 7, -4
 557 0002 85B0     		sub	sp, sp, #20
 558              		.cfi_def_cfa_offset 24
 559 0004 00AF     		add	r7, sp, #0
 560              		.cfi_def_cfa_register 7
 561 0006 F860     		str	r0, [r7, #12]
 562 0008 7B60     		str	r3, [r7, #4]
 563 000a 0B46     		mov	r3, r1
 564 000c FB72     		strb	r3, [r7, #11]
 565 000e 1346     		mov	r3, r2
 566 0010 BB72     		strb	r3, [r7, #10]
 134:u8glib_arm_v1.18.1\src/u8g_virtual_screen.c ****   if ( vs_u8g->dev != &u8g_dev_vs )
 567              		.loc 1 134 0
 568 0012 FB68     		ldr	r3, [r7, #12]
 569 0014 5B68     		ldr	r3, [r3, #4]
 570 0016 164A     		ldr	r2, .L32
 571 0018 9342     		cmp	r3, r2
 572 001a 01D0     		beq	.L29
 135:u8glib_arm_v1.18.1\src/u8g_virtual_screen.c ****     return 0; 	/* abort if there is no a virtual screen device */
 573              		.loc 1 135 0
 574 001c 0023     		movs	r3, #0
 575 001e 21E0     		b	.L30
 576              	.L29:
 136:u8glib_arm_v1.18.1\src/u8g_virtual_screen.c ****   if ( u8g_vs_cnt >= U8g_VS_MAX )
 577              		.loc 1 136 0
 578 0020 144B     		ldr	r3, .L32+4
 579 0022 1B78     		ldrb	r3, [r3]	@ zero_extendqisi2
 580 0024 032B     		cmp	r3, #3
 581 0026 01D9     		bls	.L31
 137:u8glib_arm_v1.18.1\src/u8g_virtual_screen.c ****     return 0;  	/* maximum number of  child u8g's reached */
 582              		.loc 1 137 0
 583 0028 0023     		movs	r3, #0
 584 002a 1BE0     		b	.L30
 585              	.L31:
 138:u8glib_arm_v1.18.1\src/u8g_virtual_screen.c ****   u8g_vs_list[u8g_vs_cnt].u8g = child_u8g;
 586              		.loc 1 138 0
 587 002c 114B     		ldr	r3, .L32+4
 588 002e 1B78     		ldrb	r3, [r3]	@ zero_extendqisi2
 589 0030 114A     		ldr	r2, .L32+8
 590 0032 DB00     		lsls	r3, r3, #3
 591 0034 1344     		add	r3, r3, r2
 592 0036 7A68     		ldr	r2, [r7, #4]
 593 0038 5A60     		str	r2, [r3, #4]
 139:u8glib_arm_v1.18.1\src/u8g_virtual_screen.c ****   u8g_vs_list[u8g_vs_cnt].x = x;
 594              		.loc 1 139 0
 595 003a 0E4B     		ldr	r3, .L32+4
 596 003c 1B78     		ldrb	r3, [r3]	@ zero_extendqisi2
 597 003e 1946     		mov	r1, r3
 598 0040 0D4A     		ldr	r2, .L32+8
 599 0042 FB7A     		ldrb	r3, [r7, #11]
 600 0044 02F83130 		strb	r3, [r2, r1, lsl #3]
ARM GAS  C:\Users\KJA\AppData\Local\Temp\ccxj1ozw.s 			page 14


 140:u8glib_arm_v1.18.1\src/u8g_virtual_screen.c ****   u8g_vs_list[u8g_vs_cnt].y = y;
 601              		.loc 1 140 0
 602 0048 0A4B     		ldr	r3, .L32+4
 603 004a 1B78     		ldrb	r3, [r3]	@ zero_extendqisi2
 604 004c 0A4A     		ldr	r2, .L32+8
 605 004e DB00     		lsls	r3, r3, #3
 606 0050 1344     		add	r3, r3, r2
 607 0052 BA7A     		ldrb	r2, [r7, #10]
 608 0054 5A70     		strb	r2, [r3, #1]
 141:u8glib_arm_v1.18.1\src/u8g_virtual_screen.c ****   u8g_vs_cnt++;
 609              		.loc 1 141 0
 610 0056 074B     		ldr	r3, .L32+4
 611 0058 1B78     		ldrb	r3, [r3]	@ zero_extendqisi2
 612 005a 0133     		adds	r3, r3, #1
 613 005c DAB2     		uxtb	r2, r3
 614 005e 054B     		ldr	r3, .L32+4
 615 0060 1A70     		strb	r2, [r3]
 142:u8glib_arm_v1.18.1\src/u8g_virtual_screen.c ****   return 1;
 616              		.loc 1 142 0
 617 0062 0123     		movs	r3, #1
 618              	.L30:
 143:u8glib_arm_v1.18.1\src/u8g_virtual_screen.c **** }
 619              		.loc 1 143 0
 620 0064 1846     		mov	r0, r3
 621 0066 1437     		adds	r7, r7, #20
 622              		.cfi_def_cfa_offset 4
 623 0068 BD46     		mov	sp, r7
 624              		.cfi_def_cfa_register 13
 625              		@ sp needed
 626 006a 5DF8047B 		ldr	r7, [sp], #4
 627              		.cfi_restore 7
 628              		.cfi_def_cfa_offset 0
 629 006e 7047     		bx	lr
 630              	.L33:
 631              		.align	2
 632              	.L32:
 633 0070 00000000 		.word	u8g_dev_vs
 634 0074 00000000 		.word	u8g_vs_cnt
 635 0078 00000000 		.word	u8g_vs_list
 636              		.cfi_endproc
 637              	.LFE2:
 638              		.size	u8g_AddToVirtualScreen, .-u8g_AddToVirtualScreen
 639              		.text
 640              	.Letext0:
 641              		.file 2 "c:\\program files (x86)\\cypress\\psoc creator\\4.0\\psoc creator\\import\\gnu\\arm\\4.9.
 642              		.file 3 "c:\\program files (x86)\\cypress\\psoc creator\\4.0\\psoc creator\\import\\gnu\\arm\\4.9.
 643              		.file 4 "u8glib_arm_v1.18.1\\src\\u8g.h"