ARM GAS  C:\Users\Shiguruy\AppData\Local\Temp\ccioHgMJ.s 			page 1


   1              		.syntax unified
   2              		.cpu cortex-m3
   3              		.fpu softvfp
   4              		.eabi_attribute 20, 1
   5              		.eabi_attribute 21, 1
   6              		.eabi_attribute 23, 3
   7              		.eabi_attribute 24, 1
   8              		.eabi_attribute 25, 1
   9              		.eabi_attribute 26, 1
  10              		.eabi_attribute 30, 6
  11              		.eabi_attribute 34, 1
  12              		.eabi_attribute 18, 4
  13              		.thumb
  14              		.file	"u8g_dev_tls8204_84x48.c"
  15              		.text
  16              	.Ltext0:
  17              		.cfi_sections	.debug_frame
  18              		.section	.rodata
  19              		.align	2
  20              		.type	u8g_dev_tls8204_init_seq, %object
  21              		.size	u8g_dev_tls8204_init_seq, 32
  22              	u8g_dev_tls8204_init_seq:
  23 0000 FF       		.byte	-1
  24 0001 D0       		.byte	-48
  25 0002 FF       		.byte	-1
  26 0003 E0       		.byte	-32
  27 0004 FF       		.byte	-1
  28 0005 C1       		.byte	-63
  29 0006 FF       		.byte	-1
  30 0007 D1       		.byte	-47
  31 0008 21       		.byte	33
  32 0009 06       		.byte	6
  33 000a 05       		.byte	5
  34 000b 40       		.byte	64
  35 000c 13       		.byte	19
  36 000d C0       		.byte	-64
  37 000e 20       		.byte	32
  38 000f 0C       		.byte	12
  39 0010 FF       		.byte	-1
  40 0011 64       		.byte	100
  41 0012 20       		.byte	32
  42 0013 0D       		.byte	13
  43 0014 FF       		.byte	-1
  44 0015 64       		.byte	100
  45 0016 FF       		.byte	-1
  46 0017 64       		.byte	100
  47 0018 20       		.byte	32
  48 0019 0C       		.byte	12
  49 001a FF       		.byte	-1
  50 001b 64       		.byte	100
  51 001c FF       		.byte	-1
  52 001d D0       		.byte	-48
  53 001e FF       		.byte	-1
  54 001f FE       		.byte	-2
  55              		.section	.text.u8g_dev_tls8204_fn,"ax",%progbits
  56              		.align	2
  57              		.global	u8g_dev_tls8204_fn
ARM GAS  C:\Users\Shiguruy\AppData\Local\Temp\ccioHgMJ.s 			page 2


  58              		.thumb
  59              		.thumb_func
  60              		.type	u8g_dev_tls8204_fn, %function
  61              	u8g_dev_tls8204_fn:
  62              	.LFB0:
  63              		.file 1 ".\\u8glib_arm_v1.18.1\\src\\u8g_dev_tls8204_84x48.c"
   1:.\u8glib_arm_v1.18.1\src/u8g_dev_tls8204_84x48.c **** /*
   2:.\u8glib_arm_v1.18.1\src/u8g_dev_tls8204_84x48.c **** 
   3:.\u8glib_arm_v1.18.1\src/u8g_dev_tls8204_84x48.c ****   u8g_dev_tls8204_84x48.c
   4:.\u8glib_arm_v1.18.1\src/u8g_dev_tls8204_84x48.c ****   
   5:.\u8glib_arm_v1.18.1\src/u8g_dev_tls8204_84x48.c ****   Display: Nokia 84x48
   6:.\u8glib_arm_v1.18.1\src/u8g_dev_tls8204_84x48.c ****   
   7:.\u8glib_arm_v1.18.1\src/u8g_dev_tls8204_84x48.c ****   Status: Tested with TLS8204V12 Display by Olimex MOD-LCD3310
   8:.\u8glib_arm_v1.18.1\src/u8g_dev_tls8204_84x48.c ****   
   9:.\u8glib_arm_v1.18.1\src/u8g_dev_tls8204_84x48.c ****   Contributed: http://code.google.com/p/u8glib/issues/detail?id=126
  10:.\u8glib_arm_v1.18.1\src/u8g_dev_tls8204_84x48.c **** 
  11:.\u8glib_arm_v1.18.1\src/u8g_dev_tls8204_84x48.c ****   Universal 8bit Graphics Library
  12:.\u8glib_arm_v1.18.1\src/u8g_dev_tls8204_84x48.c ****   
  13:.\u8glib_arm_v1.18.1\src/u8g_dev_tls8204_84x48.c ****   Copyright (c) 2011, olikraus@gmail.com
  14:.\u8glib_arm_v1.18.1\src/u8g_dev_tls8204_84x48.c ****   All rights reserved.
  15:.\u8glib_arm_v1.18.1\src/u8g_dev_tls8204_84x48.c **** 
  16:.\u8glib_arm_v1.18.1\src/u8g_dev_tls8204_84x48.c ****   Redistribution and use in source and binary forms, with or without modification, 
  17:.\u8glib_arm_v1.18.1\src/u8g_dev_tls8204_84x48.c ****   are permitted provided that the following conditions are met:
  18:.\u8glib_arm_v1.18.1\src/u8g_dev_tls8204_84x48.c **** 
  19:.\u8glib_arm_v1.18.1\src/u8g_dev_tls8204_84x48.c ****   * Redistributions of source code must retain the above copyright notice, this list 
  20:.\u8glib_arm_v1.18.1\src/u8g_dev_tls8204_84x48.c ****     of conditions and the following disclaimer.
  21:.\u8glib_arm_v1.18.1\src/u8g_dev_tls8204_84x48.c ****     
  22:.\u8glib_arm_v1.18.1\src/u8g_dev_tls8204_84x48.c ****   * Redistributions in binary form must reproduce the above copyright notice, this 
  23:.\u8glib_arm_v1.18.1\src/u8g_dev_tls8204_84x48.c ****     list of conditions and the following disclaimer in the documentation and/or other 
  24:.\u8glib_arm_v1.18.1\src/u8g_dev_tls8204_84x48.c ****     materials provided with the distribution.
  25:.\u8glib_arm_v1.18.1\src/u8g_dev_tls8204_84x48.c **** 
  26:.\u8glib_arm_v1.18.1\src/u8g_dev_tls8204_84x48.c ****   THIS SOFTWARE IS PROVIDED BY THE COPYRIGHT HOLDERS AND 
  27:.\u8glib_arm_v1.18.1\src/u8g_dev_tls8204_84x48.c ****   CONTRIBUTORS "AS IS" AND ANY EXPRESS OR IMPLIED WARRANTIES, 
  28:.\u8glib_arm_v1.18.1\src/u8g_dev_tls8204_84x48.c ****   INCLUDING, BUT NOT LIMITED TO, THE IMPLIED WARRANTIES OF 
  29:.\u8glib_arm_v1.18.1\src/u8g_dev_tls8204_84x48.c ****   MERCHANTABILITY AND FITNESS FOR A PARTICULAR PURPOSE ARE 
  30:.\u8glib_arm_v1.18.1\src/u8g_dev_tls8204_84x48.c ****   DISCLAIMED. IN NO EVENT SHALL THE COPYRIGHT HOLDER OR 
  31:.\u8glib_arm_v1.18.1\src/u8g_dev_tls8204_84x48.c ****   CONTRIBUTORS BE LIABLE FOR ANY DIRECT, INDIRECT, INCIDENTAL, 
  32:.\u8glib_arm_v1.18.1\src/u8g_dev_tls8204_84x48.c ****   SPECIAL, EXEMPLARY, OR CONSEQUENTIAL DAMAGES (INCLUDING, BUT 
  33:.\u8glib_arm_v1.18.1\src/u8g_dev_tls8204_84x48.c ****   NOT LIMITED TO, PROCUREMENT OF SUBSTITUTE GOODS OR SERVICES; 
  34:.\u8glib_arm_v1.18.1\src/u8g_dev_tls8204_84x48.c ****   LOSS OF USE, DATA, OR PROFITS; OR BUSINESS INTERRUPTION) HOWEVER 
  35:.\u8glib_arm_v1.18.1\src/u8g_dev_tls8204_84x48.c ****   CAUSED AND ON ANY THEORY OF LIABILITY, WHETHER IN CONTRACT, 
  36:.\u8glib_arm_v1.18.1\src/u8g_dev_tls8204_84x48.c ****   STRICT LIABILITY, OR TORT (INCLUDING NEGLIGENCE OR OTHERWISE) 
  37:.\u8glib_arm_v1.18.1\src/u8g_dev_tls8204_84x48.c ****   ARISING IN ANY WAY OUT OF THE USE OF THIS SOFTWARE, EVEN IF 
  38:.\u8glib_arm_v1.18.1\src/u8g_dev_tls8204_84x48.c ****   ADVISED OF THE POSSIBILITY OF SUCH DAMAGE.  
  39:.\u8glib_arm_v1.18.1\src/u8g_dev_tls8204_84x48.c ****   
  40:.\u8glib_arm_v1.18.1\src/u8g_dev_tls8204_84x48.c ****   
  41:.\u8glib_arm_v1.18.1\src/u8g_dev_tls8204_84x48.c **** */
  42:.\u8glib_arm_v1.18.1\src/u8g_dev_tls8204_84x48.c **** 
  43:.\u8glib_arm_v1.18.1\src/u8g_dev_tls8204_84x48.c **** #include "u8g.h"
  44:.\u8glib_arm_v1.18.1\src/u8g_dev_tls8204_84x48.c **** 
  45:.\u8glib_arm_v1.18.1\src/u8g_dev_tls8204_84x48.c **** #define WIDTH 84
  46:.\u8glib_arm_v1.18.1\src/u8g_dev_tls8204_84x48.c **** #define HEIGHT 48
  47:.\u8glib_arm_v1.18.1\src/u8g_dev_tls8204_84x48.c **** #define PAGE_HEIGHT 8
  48:.\u8glib_arm_v1.18.1\src/u8g_dev_tls8204_84x48.c **** 
  49:.\u8glib_arm_v1.18.1\src/u8g_dev_tls8204_84x48.c **** 
  50:.\u8glib_arm_v1.18.1\src/u8g_dev_tls8204_84x48.c **** static const uint8_t u8g_dev_tls8204_init_seq[] PROGMEM = {
  51:.\u8glib_arm_v1.18.1\src/u8g_dev_tls8204_84x48.c ****   U8G_ESC_CS(0),             /* disable chip */
ARM GAS  C:\Users\Shiguruy\AppData\Local\Temp\ccioHgMJ.s 			page 3


  52:.\u8glib_arm_v1.18.1\src/u8g_dev_tls8204_84x48.c ****   U8G_ESC_ADR(0),           /* instruction mode */
  53:.\u8glib_arm_v1.18.1\src/u8g_dev_tls8204_84x48.c ****   U8G_ESC_RST(1),           /* do reset low pulse with (1*16)+2 milliseconds */
  54:.\u8glib_arm_v1.18.1\src/u8g_dev_tls8204_84x48.c ****   U8G_ESC_CS(1),             /* enable chip */
  55:.\u8glib_arm_v1.18.1\src/u8g_dev_tls8204_84x48.c ****   0x021,		/* activate chip (PD=0), horizontal increment (V=0), enter extended command set (H=1) */
  56:.\u8glib_arm_v1.18.1\src/u8g_dev_tls8204_84x48.c ****   0x006,		/* temp. control: b10 = 2 */
  57:.\u8glib_arm_v1.18.1\src/u8g_dev_tls8204_84x48.c ****   0x04 | !!((66-1)&(1u<<6)),
  58:.\u8glib_arm_v1.18.1\src/u8g_dev_tls8204_84x48.c ****   0x40 | ((66-2) & ((1u<<6)-1)),
  59:.\u8glib_arm_v1.18.1\src/u8g_dev_tls8204_84x48.c ****   0x013,		/* bias system 1:48 */
  60:.\u8glib_arm_v1.18.1\src/u8g_dev_tls8204_84x48.c ****   0x0c0,		/* medium Vop */
  61:.\u8glib_arm_v1.18.1\src/u8g_dev_tls8204_84x48.c ****   0x020,		/* activate chip (PD=0), horizontal increment (V=0), enter normal command set (H=0) */
  62:.\u8glib_arm_v1.18.1\src/u8g_dev_tls8204_84x48.c ****   0x00c,		/* display on, normal operation */
  63:.\u8glib_arm_v1.18.1\src/u8g_dev_tls8204_84x48.c ****   U8G_ESC_DLY(100),       /* delay 100 ms */
  64:.\u8glib_arm_v1.18.1\src/u8g_dev_tls8204_84x48.c ****   0x020,		                /* activate chip (PD=0), horizontal increment (V=0), enter normal command
  65:.\u8glib_arm_v1.18.1\src/u8g_dev_tls8204_84x48.c ****   0x00d,		                /* display on, invert */
  66:.\u8glib_arm_v1.18.1\src/u8g_dev_tls8204_84x48.c ****   U8G_ESC_DLY(100),       /* delay 100 ms */
  67:.\u8glib_arm_v1.18.1\src/u8g_dev_tls8204_84x48.c ****   U8G_ESC_DLY(100),       /* delay 100 ms */
  68:.\u8glib_arm_v1.18.1\src/u8g_dev_tls8204_84x48.c ****   0x020,		                /* activate chip (PD=0), horizontal increment (V=0), enter normal command
  69:.\u8glib_arm_v1.18.1\src/u8g_dev_tls8204_84x48.c ****   0x00c,		                /* display on, normal */
  70:.\u8glib_arm_v1.18.1\src/u8g_dev_tls8204_84x48.c ****   U8G_ESC_DLY(100),       /* delay 100 ms */
  71:.\u8glib_arm_v1.18.1\src/u8g_dev_tls8204_84x48.c ****   U8G_ESC_CS(0),             /* disable chip */
  72:.\u8glib_arm_v1.18.1\src/u8g_dev_tls8204_84x48.c ****   U8G_ESC_END                /* end of sequence */
  73:.\u8glib_arm_v1.18.1\src/u8g_dev_tls8204_84x48.c **** };
  74:.\u8glib_arm_v1.18.1\src/u8g_dev_tls8204_84x48.c **** 
  75:.\u8glib_arm_v1.18.1\src/u8g_dev_tls8204_84x48.c **** 
  76:.\u8glib_arm_v1.18.1\src/u8g_dev_tls8204_84x48.c **** uint8_t u8g_dev_tls8204_fn(u8g_t *u8g, u8g_dev_t *dev, uint8_t msg, void *arg)
  77:.\u8glib_arm_v1.18.1\src/u8g_dev_tls8204_84x48.c **** {
  64              		.loc 1 77 0
  65              		.cfi_startproc
  66              		@ args = 0, pretend = 0, frame = 24
  67              		@ frame_needed = 1, uses_anonymous_args = 0
  68 0000 80B5     		push	{r7, lr}
  69              		.cfi_def_cfa_offset 8
  70              		.cfi_offset 7, -8
  71              		.cfi_offset 14, -4
  72 0002 86B0     		sub	sp, sp, #24
  73              		.cfi_def_cfa_offset 32
  74 0004 00AF     		add	r7, sp, #0
  75              		.cfi_def_cfa_register 7
  76 0006 F860     		str	r0, [r7, #12]
  77 0008 B960     		str	r1, [r7, #8]
  78 000a 3B60     		str	r3, [r7]
  79 000c 1346     		mov	r3, r2
  80 000e FB71     		strb	r3, [r7, #7]
  78:.\u8glib_arm_v1.18.1\src/u8g_dev_tls8204_84x48.c ****   switch(msg)
  81              		.loc 1 78 0
  82 0010 FB79     		ldrb	r3, [r7, #7]	@ zero_extendqisi2
  83 0012 0A3B     		subs	r3, r3, #10
  84 0014 0B2B     		cmp	r3, #11
  85 0016 00F28380 		bhi	.L2
  86 001a 01A2     		adr	r2, .L4
  87 001c 52F823F0 		ldr	pc, [r2, r3, lsl #2]
  88              		.p2align 2
  89              	.L4:
  90 0020 51000000 		.word	.L3+1
  91 0024 21010000 		.word	.L2+1
  92 0028 21010000 		.word	.L2+1
  93 002c 21010000 		.word	.L2+1
ARM GAS  C:\Users\Shiguruy\AppData\Local\Temp\ccioHgMJ.s 			page 4


  94 0030 21010000 		.word	.L2+1
  95 0034 D3000000 		.word	.L6+1
  96 0038 21010000 		.word	.L2+1
  97 003c 21010000 		.word	.L2+1
  98 0040 21010000 		.word	.L2+1
  99 0044 21010000 		.word	.L2+1
 100 0048 21010000 		.word	.L2+1
 101 004c 67000000 		.word	.L7+1
 102              		.p2align 1
 103              	.L3:
  79:.\u8glib_arm_v1.18.1\src/u8g_dev_tls8204_84x48.c ****   {
  80:.\u8glib_arm_v1.18.1\src/u8g_dev_tls8204_84x48.c ****     case U8G_DEV_MSG_INIT:
  81:.\u8glib_arm_v1.18.1\src/u8g_dev_tls8204_84x48.c ****       u8g_InitCom(u8g, dev, U8G_SPI_CLK_CYCLE_400NS);
 104              		.loc 1 81 0
 105 0050 F868     		ldr	r0, [r7, #12]
 106 0052 B968     		ldr	r1, [r7, #8]
 107 0054 0322     		movs	r2, #3
 108 0056 FFF7FEFF 		bl	u8g_InitCom
  82:.\u8glib_arm_v1.18.1\src/u8g_dev_tls8204_84x48.c ****       u8g_WriteEscSeqP(u8g, dev, u8g_dev_tls8204_init_seq);
 109              		.loc 1 82 0
 110 005a F868     		ldr	r0, [r7, #12]
 111 005c B968     		ldr	r1, [r7, #8]
 112 005e 364A     		ldr	r2, .L10
 113 0060 FFF7FEFF 		bl	u8g_WriteEscSeqP
  83:.\u8glib_arm_v1.18.1\src/u8g_dev_tls8204_84x48.c ****       break;
 114              		.loc 1 83 0
 115 0064 5CE0     		b	.L2
 116              	.L7:
 117              	.LBB2:
  84:.\u8glib_arm_v1.18.1\src/u8g_dev_tls8204_84x48.c ****     case U8G_DEV_MSG_STOP:
  85:.\u8glib_arm_v1.18.1\src/u8g_dev_tls8204_84x48.c ****       break;
  86:.\u8glib_arm_v1.18.1\src/u8g_dev_tls8204_84x48.c ****     case U8G_DEV_MSG_PAGE_NEXT:
  87:.\u8glib_arm_v1.18.1\src/u8g_dev_tls8204_84x48.c ****       {
  88:.\u8glib_arm_v1.18.1\src/u8g_dev_tls8204_84x48.c ****         u8g_pb_t *pb = (u8g_pb_t *)(dev->dev_mem);
 118              		.loc 1 88 0
 119 0066 BB68     		ldr	r3, [r7, #8]
 120 0068 5B68     		ldr	r3, [r3, #4]
 121 006a 7B61     		str	r3, [r7, #20]
  89:.\u8glib_arm_v1.18.1\src/u8g_dev_tls8204_84x48.c ****         u8g_SetAddress(u8g, dev, 0);           /* command mode */
 122              		.loc 1 89 0
 123 006c F868     		ldr	r0, [r7, #12]
 124 006e B968     		ldr	r1, [r7, #8]
 125 0070 0022     		movs	r2, #0
 126 0072 FFF7FEFF 		bl	u8g_SetAddress
  90:.\u8glib_arm_v1.18.1\src/u8g_dev_tls8204_84x48.c ****         u8g_SetChipSelect(u8g, dev, 1);
 127              		.loc 1 90 0
 128 0076 F868     		ldr	r0, [r7, #12]
 129 0078 B968     		ldr	r1, [r7, #8]
 130 007a 0122     		movs	r2, #1
 131 007c FFF7FEFF 		bl	u8g_SetChipSelect
  91:.\u8glib_arm_v1.18.1\src/u8g_dev_tls8204_84x48.c ****         u8g_WriteByte(u8g, dev, 0x020 );		/* activate chip (PD=0), horizontal increment (V=0), ente
 132              		.loc 1 91 0
 133 0080 F868     		ldr	r0, [r7, #12]
 134 0082 B968     		ldr	r1, [r7, #8]
 135 0084 2022     		movs	r2, #32
 136 0086 FFF7FEFF 		bl	u8g_WriteByte
  92:.\u8glib_arm_v1.18.1\src/u8g_dev_tls8204_84x48.c ****         u8g_WriteByte(u8g, dev, 0x080 );                        /* set X address */
ARM GAS  C:\Users\Shiguruy\AppData\Local\Temp\ccioHgMJ.s 			page 5


 137              		.loc 1 92 0
 138 008a F868     		ldr	r0, [r7, #12]
 139 008c B968     		ldr	r1, [r7, #8]
 140 008e 8022     		movs	r2, #128
 141 0090 FFF7FEFF 		bl	u8g_WriteByte
  93:.\u8glib_arm_v1.18.1\src/u8g_dev_tls8204_84x48.c ****         u8g_WriteByte(u8g, dev, 0x040 | pb->p.page); /* set Y address */
 142              		.loc 1 93 0
 143 0094 7B69     		ldr	r3, [r7, #20]
 144 0096 1B79     		ldrb	r3, [r3, #4]	@ zero_extendqisi2
 145 0098 43F04003 		orr	r3, r3, #64
 146 009c DBB2     		uxtb	r3, r3
 147 009e F868     		ldr	r0, [r7, #12]
 148 00a0 B968     		ldr	r1, [r7, #8]
 149 00a2 1A46     		mov	r2, r3
 150 00a4 FFF7FEFF 		bl	u8g_WriteByte
  94:.\u8glib_arm_v1.18.1\src/u8g_dev_tls8204_84x48.c ****         u8g_SetAddress(u8g, dev, 1);           /* data mode */
 151              		.loc 1 94 0
 152 00a8 F868     		ldr	r0, [r7, #12]
 153 00aa B968     		ldr	r1, [r7, #8]
 154 00ac 0122     		movs	r2, #1
 155 00ae FFF7FEFF 		bl	u8g_SetAddress
  95:.\u8glib_arm_v1.18.1\src/u8g_dev_tls8204_84x48.c ****         if ( u8g_pb_WriteBuffer(pb, u8g, dev) == 0 )
 156              		.loc 1 95 0
 157 00b2 7869     		ldr	r0, [r7, #20]
 158 00b4 F968     		ldr	r1, [r7, #12]
 159 00b6 BA68     		ldr	r2, [r7, #8]
 160 00b8 FFF7FEFF 		bl	u8g_pb_WriteBuffer
 161 00bc 0346     		mov	r3, r0
 162 00be 002B     		cmp	r3, #0
 163 00c0 01D1     		bne	.L8
  96:.\u8glib_arm_v1.18.1\src/u8g_dev_tls8204_84x48.c ****           return 0;
 164              		.loc 1 96 0
 165 00c2 0023     		movs	r3, #0
 166 00c4 34E0     		b	.L9
 167              	.L8:
  97:.\u8glib_arm_v1.18.1\src/u8g_dev_tls8204_84x48.c ****         u8g_SetChipSelect(u8g, dev, 0);
 168              		.loc 1 97 0
 169 00c6 F868     		ldr	r0, [r7, #12]
 170 00c8 B968     		ldr	r1, [r7, #8]
 171 00ca 0022     		movs	r2, #0
 172 00cc FFF7FEFF 		bl	u8g_SetChipSelect
 173              	.LBE2:
  98:.\u8glib_arm_v1.18.1\src/u8g_dev_tls8204_84x48.c ****       }
  99:.\u8glib_arm_v1.18.1\src/u8g_dev_tls8204_84x48.c ****       break;
 174              		.loc 1 99 0
 175 00d0 26E0     		b	.L2
 176              	.L6:
 100:.\u8glib_arm_v1.18.1\src/u8g_dev_tls8204_84x48.c ****     case U8G_DEV_MSG_CONTRAST:
 101:.\u8glib_arm_v1.18.1\src/u8g_dev_tls8204_84x48.c ****       /* the contrast adjustment does not work, needs to be analysed */
 102:.\u8glib_arm_v1.18.1\src/u8g_dev_tls8204_84x48.c ****       u8g_SetAddress(u8g, dev, 0);          /* instruction mode */
 177              		.loc 1 102 0
 178 00d2 F868     		ldr	r0, [r7, #12]
 179 00d4 B968     		ldr	r1, [r7, #8]
 180 00d6 0022     		movs	r2, #0
 181 00d8 FFF7FEFF 		bl	u8g_SetAddress
 103:.\u8glib_arm_v1.18.1\src/u8g_dev_tls8204_84x48.c ****       u8g_SetChipSelect(u8g, dev, 1);
 182              		.loc 1 103 0
ARM GAS  C:\Users\Shiguruy\AppData\Local\Temp\ccioHgMJ.s 			page 6


 183 00dc F868     		ldr	r0, [r7, #12]
 184 00de B968     		ldr	r1, [r7, #8]
 185 00e0 0122     		movs	r2, #1
 186 00e2 FFF7FEFF 		bl	u8g_SetChipSelect
 104:.\u8glib_arm_v1.18.1\src/u8g_dev_tls8204_84x48.c ****       u8g_WriteByte(u8g, dev, 0x021);        /* command mode, extended function set */
 187              		.loc 1 104 0
 188 00e6 F868     		ldr	r0, [r7, #12]
 189 00e8 B968     		ldr	r1, [r7, #8]
 190 00ea 2122     		movs	r2, #33
 191 00ec FFF7FEFF 		bl	u8g_WriteByte
 105:.\u8glib_arm_v1.18.1\src/u8g_dev_tls8204_84x48.c ****       u8g_WriteByte(u8g, dev, 0x080 | ( (*(uint8_t *)arg) >> 1 ) );
 192              		.loc 1 105 0
 193 00f0 3B68     		ldr	r3, [r7]
 194 00f2 1B78     		ldrb	r3, [r3]	@ zero_extendqisi2
 195 00f4 5B08     		lsrs	r3, r3, #1
 196 00f6 DBB2     		uxtb	r3, r3
 197 00f8 63F07F03 		orn	r3, r3, #127
 198 00fc DBB2     		uxtb	r3, r3
 199 00fe F868     		ldr	r0, [r7, #12]
 200 0100 B968     		ldr	r1, [r7, #8]
 201 0102 1A46     		mov	r2, r3
 202 0104 FFF7FEFF 		bl	u8g_WriteByte
 106:.\u8glib_arm_v1.18.1\src/u8g_dev_tls8204_84x48.c ****       u8g_WriteByte(u8g, dev, 0x020);        /* command mode, extended function set */
 203              		.loc 1 106 0
 204 0108 F868     		ldr	r0, [r7, #12]
 205 010a B968     		ldr	r1, [r7, #8]
 206 010c 2022     		movs	r2, #32
 207 010e FFF7FEFF 		bl	u8g_WriteByte
 107:.\u8glib_arm_v1.18.1\src/u8g_dev_tls8204_84x48.c ****       u8g_SetChipSelect(u8g, dev, 0);
 208              		.loc 1 107 0
 209 0112 F868     		ldr	r0, [r7, #12]
 210 0114 B968     		ldr	r1, [r7, #8]
 211 0116 0022     		movs	r2, #0
 212 0118 FFF7FEFF 		bl	u8g_SetChipSelect
 108:.\u8glib_arm_v1.18.1\src/u8g_dev_tls8204_84x48.c ****       return 1;
 213              		.loc 1 108 0
 214 011c 0123     		movs	r3, #1
 215 011e 07E0     		b	.L9
 216              	.L2:
 109:.\u8glib_arm_v1.18.1\src/u8g_dev_tls8204_84x48.c ****   }
 110:.\u8glib_arm_v1.18.1\src/u8g_dev_tls8204_84x48.c ****   return u8g_dev_pb8v1_base_fn(u8g, dev, msg, arg);
 217              		.loc 1 110 0
 218 0120 FB79     		ldrb	r3, [r7, #7]	@ zero_extendqisi2
 219 0122 F868     		ldr	r0, [r7, #12]
 220 0124 B968     		ldr	r1, [r7, #8]
 221 0126 1A46     		mov	r2, r3
 222 0128 3B68     		ldr	r3, [r7]
 223 012a FFF7FEFF 		bl	u8g_dev_pb8v1_base_fn
 224 012e 0346     		mov	r3, r0
 225              	.L9:
 111:.\u8glib_arm_v1.18.1\src/u8g_dev_tls8204_84x48.c **** }
 226              		.loc 1 111 0
 227 0130 1846     		mov	r0, r3
 228 0132 1837     		adds	r7, r7, #24
 229              		.cfi_def_cfa_offset 8
 230 0134 BD46     		mov	sp, r7
 231              		.cfi_def_cfa_register 13
ARM GAS  C:\Users\Shiguruy\AppData\Local\Temp\ccioHgMJ.s 			page 7


 232              		@ sp needed
 233 0136 80BD     		pop	{r7, pc}
 234              	.L11:
 235              		.align	2
 236              	.L10:
 237 0138 00000000 		.word	u8g_dev_tls8204_init_seq
 238              		.cfi_endproc
 239              	.LFE0:
 240              		.size	u8g_dev_tls8204_fn, .-u8g_dev_tls8204_fn
 241              		.global	u8g_dev_tls8204_84x48_sw_spi_buf
 242              		.bss
 243              		.align	2
 244              		.type	u8g_dev_tls8204_84x48_sw_spi_buf, %object
 245              		.size	u8g_dev_tls8204_84x48_sw_spi_buf, 84
 246              	u8g_dev_tls8204_84x48_sw_spi_buf:
 247 0000 00000000 		.space	84
 247      00000000 
 247      00000000 
 247      00000000 
 247      00000000 
 248              		.global	u8g_dev_tls8204_84x48_sw_spi_pb
 249              		.data
 250              		.align	2
 251              		.type	u8g_dev_tls8204_84x48_sw_spi_pb, %object
 252              		.size	u8g_dev_tls8204_84x48_sw_spi_pb, 12
 253              	u8g_dev_tls8204_84x48_sw_spi_pb:
 254 0000 08       		.byte	8
 255 0001 30       		.byte	48
 256 0002 00       		.byte	0
 257 0003 00       		.byte	0
 258 0004 00       		.byte	0
 259 0005 54       		.byte	84
 260 0006 0000     		.space	2
 261 0008 00000000 		.word	u8g_dev_tls8204_84x48_sw_spi_buf
 262              		.global	u8g_dev_tls8204_84x48_sw_spi
 263              		.align	2
 264              		.type	u8g_dev_tls8204_84x48_sw_spi, %object
 265              		.size	u8g_dev_tls8204_84x48_sw_spi, 12
 266              	u8g_dev_tls8204_84x48_sw_spi:
 267 000c 00000000 		.word	u8g_dev_tls8204_fn
 268 0010 00000000 		.word	u8g_dev_tls8204_84x48_sw_spi_pb
 269 0014 00000000 		.word	u8g_com_null_fn
 270              		.text
 271              	.Letext0:
 272              		.file 2 "c:\\program files (x86)\\cypress\\psoc creator\\3.3\\psoc creator\\import\\gnu\\arm\\4.9.
 273              		.file 3 "c:\\program files (x86)\\cypress\\psoc creator\\3.3\\psoc creator\\import\\gnu\\arm\\4.9.
 274              		.file 4 ".\\u8glib_arm_v1.18.1\\src\\u8g.h"