ARM GAS  C:\Users\KJA\AppData\Local\Temp\cckbcqsI.s 			page 1


   1              		.syntax unified
   2              		.cpu cortex-m3
   3              		.fpu softvfp
   4              		.eabi_attribute 20, 1
   5              		.eabi_attribute 21, 1
   6              		.eabi_attribute 23, 3
   7              		.eabi_attribute 24, 1
   8              		.eabi_attribute 25, 1
   9              		.eabi_attribute 26, 1
  10              		.eabi_attribute 30, 6
  11              		.eabi_attribute 34, 1
  12              		.eabi_attribute 18, 4
  13              		.thumb
  14              		.file	"u8g_pbxh16.c"
  15              		.text
  16              	.Ltext0:
  17              		.cfi_sections	.debug_frame
  18              		.section	.text.u8g_pbxh16_Clear,"ax",%progbits
  19              		.align	2
  20              		.global	u8g_pbxh16_Clear
  21              		.thumb
  22              		.thumb_func
  23              		.type	u8g_pbxh16_Clear, %function
  24              	u8g_pbxh16_Clear:
  25              	.LFB0:
  26              		.file 1 "u8glib_arm_v1.18.1\\src\\u8g_pbxh16.c"
   1:u8glib_arm_v1.18.1\src/u8g_pbxh16.c **** /*
   2:u8glib_arm_v1.18.1\src/u8g_pbxh16.c **** 
   3:u8glib_arm_v1.18.1\src/u8g_pbxh16.c ****   u8g_pbxh16.c
   4:u8glib_arm_v1.18.1\src/u8g_pbxh16.c ****   
   5:u8glib_arm_v1.18.1\src/u8g_pbxh16.c ****   x lines per page, horizontal, 16 bits per pixel (hi color modes)
   6:u8glib_arm_v1.18.1\src/u8g_pbxh16.c ****   
   7:u8glib_arm_v1.18.1\src/u8g_pbxh16.c ****   Universal 8bit Graphics Library
   8:u8glib_arm_v1.18.1\src/u8g_pbxh16.c ****   
   9:u8glib_arm_v1.18.1\src/u8g_pbxh16.c ****   Copyright (c) 2013, olikraus@gmail.com
  10:u8glib_arm_v1.18.1\src/u8g_pbxh16.c ****   All rights reserved.
  11:u8glib_arm_v1.18.1\src/u8g_pbxh16.c **** 
  12:u8glib_arm_v1.18.1\src/u8g_pbxh16.c ****   Redistribution and use in source and binary forms, with or without modification, 
  13:u8glib_arm_v1.18.1\src/u8g_pbxh16.c ****   are permitted provided that the following conditions are met:
  14:u8glib_arm_v1.18.1\src/u8g_pbxh16.c **** 
  15:u8glib_arm_v1.18.1\src/u8g_pbxh16.c ****   * Redistributions of source code must retain the above copyright notice, this list 
  16:u8glib_arm_v1.18.1\src/u8g_pbxh16.c ****     of conditions and the following disclaimer.
  17:u8glib_arm_v1.18.1\src/u8g_pbxh16.c ****     
  18:u8glib_arm_v1.18.1\src/u8g_pbxh16.c ****   * Redistributions in binary form must reproduce the above copyright notice, this 
  19:u8glib_arm_v1.18.1\src/u8g_pbxh16.c ****     list of conditions and the following disclaimer in the documentation and/or other 
  20:u8glib_arm_v1.18.1\src/u8g_pbxh16.c ****     materials provided with the distribution.
  21:u8glib_arm_v1.18.1\src/u8g_pbxh16.c **** 
  22:u8glib_arm_v1.18.1\src/u8g_pbxh16.c ****   THIS SOFTWARE IS PROVIDED BY THE COPYRIGHT HOLDERS AND 
  23:u8glib_arm_v1.18.1\src/u8g_pbxh16.c ****   CONTRIBUTORS "AS IS" AND ANY EXPRESS OR IMPLIED WARRANTIES, 
  24:u8glib_arm_v1.18.1\src/u8g_pbxh16.c ****   INCLUDING, BUT NOT LIMITED TO, THE IMPLIED WARRANTIES OF 
  25:u8glib_arm_v1.18.1\src/u8g_pbxh16.c ****   MERCHANTABILITY AND FITNESS FOR A PARTICULAR PURPOSE ARE 
  26:u8glib_arm_v1.18.1\src/u8g_pbxh16.c ****   DISCLAIMED. IN NO EVENT SHALL THE COPYRIGHT HOLDER OR 
  27:u8glib_arm_v1.18.1\src/u8g_pbxh16.c ****   CONTRIBUTORS BE LIABLE FOR ANY DIRECT, INDIRECT, INCIDENTAL, 
  28:u8glib_arm_v1.18.1\src/u8g_pbxh16.c ****   SPECIAL, EXEMPLARY, OR CONSEQUENTIAL DAMAGES (INCLUDING, BUT 
  29:u8glib_arm_v1.18.1\src/u8g_pbxh16.c ****   NOT LIMITED TO, PROCUREMENT OF SUBSTITUTE GOODS OR SERVICES; 
  30:u8glib_arm_v1.18.1\src/u8g_pbxh16.c ****   LOSS OF USE, DATA, OR PROFITS; OR BUSINESS INTERRUPTION) HOWEVER 
  31:u8glib_arm_v1.18.1\src/u8g_pbxh16.c ****   CAUSED AND ON ANY THEORY OF LIABILITY, WHETHER IN CONTRACT, 
ARM GAS  C:\Users\KJA\AppData\Local\Temp\cckbcqsI.s 			page 2


  32:u8glib_arm_v1.18.1\src/u8g_pbxh16.c ****   STRICT LIABILITY, OR TORT (INCLUDING NEGLIGENCE OR OTHERWISE) 
  33:u8glib_arm_v1.18.1\src/u8g_pbxh16.c ****   ARISING IN ANY WAY OUT OF THE USE OF THIS SOFTWARE, EVEN IF 
  34:u8glib_arm_v1.18.1\src/u8g_pbxh16.c ****   ADVISED OF THE POSSIBILITY OF SUCH DAMAGE.  
  35:u8glib_arm_v1.18.1\src/u8g_pbxh16.c **** 
  36:u8glib_arm_v1.18.1\src/u8g_pbxh16.c **** 
  37:u8glib_arm_v1.18.1\src/u8g_pbxh16.c **** struct _u8g_pb_t
  38:u8glib_arm_v1.18.1\src/u8g_pbxh16.c **** {
  39:u8glib_arm_v1.18.1\src/u8g_pbxh16.c ****   u8g_page_t p;
  40:u8glib_arm_v1.18.1\src/u8g_pbxh16.c ****   u8g_uint_t width;
  41:u8glib_arm_v1.18.1\src/u8g_pbxh16.c ****   void *buf;
  42:u8glib_arm_v1.18.1\src/u8g_pbxh16.c **** };
  43:u8glib_arm_v1.18.1\src/u8g_pbxh16.c **** typedef struct _u8g_pb_t u8g_pb_t;
  44:u8glib_arm_v1.18.1\src/u8g_pbxh16.c **** 
  45:u8glib_arm_v1.18.1\src/u8g_pbxh16.c **** 
  46:u8glib_arm_v1.18.1\src/u8g_pbxh16.c **** uint8_t u8g_index_color_xh16_buf[2*WIDTH*PAGE_HEIGHT] U8G_NOCOMMON ; 
  47:u8glib_arm_v1.18.1\src/u8g_pbxh16.c **** u8g_pb_t u8g_index_color_xh16_pb = { {PAGE_HEIGHT, HEIGHT, 0, 0, 0},  WIDTH, u8g_index_color_xh16_b
  48:u8glib_arm_v1.18.1\src/u8g_pbxh16.c **** u8g_dev_t name = { dev_fn, &u8g_index_color_xh16_pb , com_fn }
  49:u8glib_arm_v1.18.1\src/u8g_pbxh16.c **** 
  50:u8glib_arm_v1.18.1\src/u8g_pbxh16.c **** */
  51:u8glib_arm_v1.18.1\src/u8g_pbxh16.c **** 
  52:u8glib_arm_v1.18.1\src/u8g_pbxh16.c **** #include "u8g.h"
  53:u8glib_arm_v1.18.1\src/u8g_pbxh16.c **** 
  54:u8glib_arm_v1.18.1\src/u8g_pbxh16.c **** /*
  55:u8glib_arm_v1.18.1\src/u8g_pbxh16.c **** #define WIDTH_BITS 7
  56:u8glib_arm_v1.18.1\src/u8g_pbxh16.c **** #define WIDTH (1<<WIDTH_BITS)
  57:u8glib_arm_v1.18.1\src/u8g_pbxh16.c **** #define PAGE_HEIGHT_BITS 3
  58:u8glib_arm_v1.18.1\src/u8g_pbxh16.c **** #define PAGE_HEIGHT (1<<PAGE_HEIGHT_BITS)
  59:u8glib_arm_v1.18.1\src/u8g_pbxh16.c **** */
  60:u8glib_arm_v1.18.1\src/u8g_pbxh16.c **** 
  61:u8glib_arm_v1.18.1\src/u8g_pbxh16.c **** void u8g_pbxh16_Clear(u8g_pb_t *b)
  62:u8glib_arm_v1.18.1\src/u8g_pbxh16.c **** {
  27              		.loc 1 62 0
  28              		.cfi_startproc
  29              		@ args = 0, pretend = 0, frame = 24
  30              		@ frame_needed = 1, uses_anonymous_args = 0
  31              		@ link register save eliminated.
  32 0000 80B4     		push	{r7}
  33              		.cfi_def_cfa_offset 4
  34              		.cfi_offset 7, -4
  35 0002 87B0     		sub	sp, sp, #28
  36              		.cfi_def_cfa_offset 32
  37 0004 00AF     		add	r7, sp, #0
  38              		.cfi_def_cfa_register 7
  39 0006 7860     		str	r0, [r7, #4]
  63:u8glib_arm_v1.18.1\src/u8g_pbxh16.c ****   uint8_t *ptr = (uint8_t *)b->buf;
  40              		.loc 1 63 0
  41 0008 7B68     		ldr	r3, [r7, #4]
  42 000a 9B68     		ldr	r3, [r3, #8]
  43 000c 7B61     		str	r3, [r7, #20]
  64:u8glib_arm_v1.18.1\src/u8g_pbxh16.c ****   uint8_t *end_ptr = ptr;
  44              		.loc 1 64 0
  45 000e 7B69     		ldr	r3, [r7, #20]
  46 0010 3B61     		str	r3, [r7, #16]
  65:u8glib_arm_v1.18.1\src/u8g_pbxh16.c ****   uint8_t cnt = b->p.page_height;
  47              		.loc 1 65 0
  48 0012 7B68     		ldr	r3, [r7, #4]
  49 0014 1B78     		ldrb	r3, [r3]
ARM GAS  C:\Users\KJA\AppData\Local\Temp\cckbcqsI.s 			page 3


  50 0016 FB73     		strb	r3, [r7, #15]
  51              	.L2:
  66:u8glib_arm_v1.18.1\src/u8g_pbxh16.c ****   do
  67:u8glib_arm_v1.18.1\src/u8g_pbxh16.c ****   {
  68:u8glib_arm_v1.18.1\src/u8g_pbxh16.c ****     end_ptr += b->width*2;
  52              		.loc 1 68 0 discriminator 1
  53 0018 7B68     		ldr	r3, [r7, #4]
  54 001a 5B79     		ldrb	r3, [r3, #5]	@ zero_extendqisi2
  55 001c 5B00     		lsls	r3, r3, #1
  56 001e 1A46     		mov	r2, r3
  57 0020 3B69     		ldr	r3, [r7, #16]
  58 0022 1344     		add	r3, r3, r2
  59 0024 3B61     		str	r3, [r7, #16]
  69:u8glib_arm_v1.18.1\src/u8g_pbxh16.c ****     cnt--;
  60              		.loc 1 69 0 discriminator 1
  61 0026 FB7B     		ldrb	r3, [r7, #15]	@ zero_extendqisi2
  62 0028 013B     		subs	r3, r3, #1
  63 002a FB73     		strb	r3, [r7, #15]
  70:u8glib_arm_v1.18.1\src/u8g_pbxh16.c ****   } while( cnt > 0 );
  64              		.loc 1 70 0 discriminator 1
  65 002c FB7B     		ldrb	r3, [r7, #15]	@ zero_extendqisi2
  66 002e 002B     		cmp	r3, #0
  67 0030 F2D1     		bne	.L2
  68              	.L3:
  71:u8glib_arm_v1.18.1\src/u8g_pbxh16.c ****   do
  72:u8glib_arm_v1.18.1\src/u8g_pbxh16.c ****   {
  73:u8glib_arm_v1.18.1\src/u8g_pbxh16.c ****     *ptr++ = 0;
  69              		.loc 1 73 0 discriminator 1
  70 0032 7B69     		ldr	r3, [r7, #20]
  71 0034 5A1C     		adds	r2, r3, #1
  72 0036 7A61     		str	r2, [r7, #20]
  73 0038 0022     		movs	r2, #0
  74 003a 1A70     		strb	r2, [r3]
  74:u8glib_arm_v1.18.1\src/u8g_pbxh16.c ****   } while( ptr != end_ptr );
  75              		.loc 1 74 0 discriminator 1
  76 003c 7A69     		ldr	r2, [r7, #20]
  77 003e 3B69     		ldr	r3, [r7, #16]
  78 0040 9A42     		cmp	r2, r3
  79 0042 F6D1     		bne	.L3
  75:u8glib_arm_v1.18.1\src/u8g_pbxh16.c **** }
  80              		.loc 1 75 0
  81 0044 1C37     		adds	r7, r7, #28
  82              		.cfi_def_cfa_offset 4
  83 0046 BD46     		mov	sp, r7
  84              		.cfi_def_cfa_register 13
  85              		@ sp needed
  86 0048 5DF8047B 		ldr	r7, [sp], #4
  87              		.cfi_restore 7
  88              		.cfi_def_cfa_offset 0
  89 004c 7047     		bx	lr
  90              		.cfi_endproc
  91              	.LFE0:
  92              		.size	u8g_pbxh16_Clear, .-u8g_pbxh16_Clear
  93 004e 00BF     		.section	.text.u8g_pbxh16_Init,"ax",%progbits
  94              		.align	2
  95              		.global	u8g_pbxh16_Init
  96              		.thumb
ARM GAS  C:\Users\KJA\AppData\Local\Temp\cckbcqsI.s 			page 4


  97              		.thumb_func
  98              		.type	u8g_pbxh16_Init, %function
  99              	u8g_pbxh16_Init:
 100              	.LFB1:
  76:u8glib_arm_v1.18.1\src/u8g_pbxh16.c **** 
  77:u8glib_arm_v1.18.1\src/u8g_pbxh16.c **** 
  78:u8glib_arm_v1.18.1\src/u8g_pbxh16.c **** void u8g_pbxh16_Init(u8g_pb_t *b, void *buf, u8g_uint_t width)
  79:u8glib_arm_v1.18.1\src/u8g_pbxh16.c **** {
 101              		.loc 1 79 0
 102              		.cfi_startproc
 103              		@ args = 0, pretend = 0, frame = 16
 104              		@ frame_needed = 1, uses_anonymous_args = 0
 105 0000 80B5     		push	{r7, lr}
 106              		.cfi_def_cfa_offset 8
 107              		.cfi_offset 7, -8
 108              		.cfi_offset 14, -4
 109 0002 84B0     		sub	sp, sp, #16
 110              		.cfi_def_cfa_offset 24
 111 0004 00AF     		add	r7, sp, #0
 112              		.cfi_def_cfa_register 7
 113 0006 F860     		str	r0, [r7, #12]
 114 0008 B960     		str	r1, [r7, #8]
 115 000a 1346     		mov	r3, r2
 116 000c FB71     		strb	r3, [r7, #7]
  80:u8glib_arm_v1.18.1\src/u8g_pbxh16.c ****   b->buf = buf;
 117              		.loc 1 80 0
 118 000e FB68     		ldr	r3, [r7, #12]
 119 0010 BA68     		ldr	r2, [r7, #8]
 120 0012 9A60     		str	r2, [r3, #8]
  81:u8glib_arm_v1.18.1\src/u8g_pbxh16.c ****   b->width = width;
 121              		.loc 1 81 0
 122 0014 FB68     		ldr	r3, [r7, #12]
 123 0016 FA79     		ldrb	r2, [r7, #7]
 124 0018 5A71     		strb	r2, [r3, #5]
  82:u8glib_arm_v1.18.1\src/u8g_pbxh16.c ****   u8g_pbxh16_Clear(b);
 125              		.loc 1 82 0
 126 001a F868     		ldr	r0, [r7, #12]
 127 001c FFF7FEFF 		bl	u8g_pbxh16_Clear
  83:u8glib_arm_v1.18.1\src/u8g_pbxh16.c **** }
 128              		.loc 1 83 0
 129 0020 1037     		adds	r7, r7, #16
 130              		.cfi_def_cfa_offset 8
 131 0022 BD46     		mov	sp, r7
 132              		.cfi_def_cfa_register 13
 133              		@ sp needed
 134 0024 80BD     		pop	{r7, pc}
 135              		.cfi_endproc
 136              	.LFE1:
 137              		.size	u8g_pbxh16_Init, .-u8g_pbxh16_Init
 138 0026 00BF     		.section	.text.u8g_pbxh16_set_pixel,"ax",%progbits
 139              		.align	2
 140              		.thumb
 141              		.thumb_func
 142              		.type	u8g_pbxh16_set_pixel, %function
 143              	u8g_pbxh16_set_pixel:
 144              	.LFB2:
  84:u8glib_arm_v1.18.1\src/u8g_pbxh16.c **** 
ARM GAS  C:\Users\KJA\AppData\Local\Temp\cckbcqsI.s 			page 5


  85:u8glib_arm_v1.18.1\src/u8g_pbxh16.c **** static void u8g_pbxh16_set_pixel(u8g_pb_t *b, u8g_uint_t x, u8g_uint_t y, uint8_t low, uint8_t high
  86:u8glib_arm_v1.18.1\src/u8g_pbxh16.c **** {
 145              		.loc 1 86 0
 146              		.cfi_startproc
 147              		@ args = 4, pretend = 0, frame = 16
 148              		@ frame_needed = 1, uses_anonymous_args = 0
 149              		@ link register save eliminated.
 150 0000 80B4     		push	{r7}
 151              		.cfi_def_cfa_offset 4
 152              		.cfi_offset 7, -4
 153 0002 85B0     		sub	sp, sp, #20
 154              		.cfi_def_cfa_offset 24
 155 0004 00AF     		add	r7, sp, #0
 156              		.cfi_def_cfa_register 7
 157 0006 7860     		str	r0, [r7, #4]
 158 0008 0846     		mov	r0, r1
 159 000a 1146     		mov	r1, r2
 160 000c 1A46     		mov	r2, r3
 161 000e 0346     		mov	r3, r0
 162 0010 FB70     		strb	r3, [r7, #3]
 163 0012 0B46     		mov	r3, r1
 164 0014 BB70     		strb	r3, [r7, #2]
 165 0016 1346     		mov	r3, r2
 166 0018 7B70     		strb	r3, [r7, #1]
  87:u8glib_arm_v1.18.1\src/u8g_pbxh16.c ****   uint16_t tmp;
  88:u8glib_arm_v1.18.1\src/u8g_pbxh16.c ****   uint8_t *ptr = b->buf;
 167              		.loc 1 88 0
 168 001a 7B68     		ldr	r3, [r7, #4]
 169 001c 9B68     		ldr	r3, [r3, #8]
 170 001e FB60     		str	r3, [r7, #12]
  89:u8glib_arm_v1.18.1\src/u8g_pbxh16.c ****   y -= b->p.page_y0;
 171              		.loc 1 89 0
 172 0020 7B68     		ldr	r3, [r7, #4]
 173 0022 9B78     		ldrb	r3, [r3, #2]	@ zero_extendqisi2
 174 0024 BA78     		ldrb	r2, [r7, #2]
 175 0026 D31A     		subs	r3, r2, r3
 176 0028 BB70     		strb	r3, [r7, #2]
  90:u8glib_arm_v1.18.1\src/u8g_pbxh16.c ****   tmp = y;
 177              		.loc 1 90 0
 178 002a BB78     		ldrb	r3, [r7, #2]	@ zero_extendqisi2
 179 002c 7B81     		strh	r3, [r7, #10]	@ movhi
  91:u8glib_arm_v1.18.1\src/u8g_pbxh16.c ****   tmp *= b->width;
 180              		.loc 1 91 0
 181 002e 7B68     		ldr	r3, [r7, #4]
 182 0030 5B79     		ldrb	r3, [r3, #5]	@ zero_extendqisi2
 183 0032 9BB2     		uxth	r3, r3
 184 0034 7A89     		ldrh	r2, [r7, #10]	@ movhi
 185 0036 02FB03F3 		mul	r3, r2, r3
 186 003a 7B81     		strh	r3, [r7, #10]	@ movhi
  92:u8glib_arm_v1.18.1\src/u8g_pbxh16.c ****   tmp += x;
 187              		.loc 1 92 0
 188 003c FB78     		ldrb	r3, [r7, #3]	@ zero_extendqisi2
 189 003e 9AB2     		uxth	r2, r3
 190 0040 7B89     		ldrh	r3, [r7, #10]	@ movhi
 191 0042 1344     		add	r3, r3, r2
 192 0044 7B81     		strh	r3, [r7, #10]	@ movhi
  93:u8glib_arm_v1.18.1\src/u8g_pbxh16.c ****   tmp <<= 1;
ARM GAS  C:\Users\KJA\AppData\Local\Temp\cckbcqsI.s 			page 6


 193              		.loc 1 93 0
 194 0046 7B89     		ldrh	r3, [r7, #10]	@ movhi
 195 0048 5B00     		lsls	r3, r3, #1
 196 004a 7B81     		strh	r3, [r7, #10]	@ movhi
  94:u8glib_arm_v1.18.1\src/u8g_pbxh16.c ****   ptr += tmp;
 197              		.loc 1 94 0
 198 004c 7B89     		ldrh	r3, [r7, #10]
 199 004e FA68     		ldr	r2, [r7, #12]
 200 0050 1344     		add	r3, r3, r2
 201 0052 FB60     		str	r3, [r7, #12]
  95:u8glib_arm_v1.18.1\src/u8g_pbxh16.c ****   *ptr = low;
 202              		.loc 1 95 0
 203 0054 FB68     		ldr	r3, [r7, #12]
 204 0056 7A78     		ldrb	r2, [r7, #1]
 205 0058 1A70     		strb	r2, [r3]
  96:u8glib_arm_v1.18.1\src/u8g_pbxh16.c ****   ptr++;
 206              		.loc 1 96 0
 207 005a FB68     		ldr	r3, [r7, #12]
 208 005c 0133     		adds	r3, r3, #1
 209 005e FB60     		str	r3, [r7, #12]
  97:u8glib_arm_v1.18.1\src/u8g_pbxh16.c ****   *ptr = high;
 210              		.loc 1 97 0
 211 0060 FB68     		ldr	r3, [r7, #12]
 212 0062 3A7E     		ldrb	r2, [r7, #24]
 213 0064 1A70     		strb	r2, [r3]
  98:u8glib_arm_v1.18.1\src/u8g_pbxh16.c **** }
 214              		.loc 1 98 0
 215 0066 1437     		adds	r7, r7, #20
 216              		.cfi_def_cfa_offset 4
 217 0068 BD46     		mov	sp, r7
 218              		.cfi_def_cfa_register 13
 219              		@ sp needed
 220 006a 5DF8047B 		ldr	r7, [sp], #4
 221              		.cfi_restore 7
 222              		.cfi_def_cfa_offset 0
 223 006e 7047     		bx	lr
 224              		.cfi_endproc
 225              	.LFE2:
 226              		.size	u8g_pbxh16_set_pixel, .-u8g_pbxh16_set_pixel
 227              		.section	.text.u8g_pbxh16_SetPixel,"ax",%progbits
 228              		.align	2
 229              		.global	u8g_pbxh16_SetPixel
 230              		.thumb
 231              		.thumb_func
 232              		.type	u8g_pbxh16_SetPixel, %function
 233              	u8g_pbxh16_SetPixel:
 234              	.LFB3:
  99:u8glib_arm_v1.18.1\src/u8g_pbxh16.c **** 
 100:u8glib_arm_v1.18.1\src/u8g_pbxh16.c **** void u8g_pbxh16_SetPixel(u8g_pb_t *b, const u8g_dev_arg_pixel_t * const arg_pixel)
 101:u8glib_arm_v1.18.1\src/u8g_pbxh16.c **** {
 235              		.loc 1 101 0
 236              		.cfi_startproc
 237              		@ args = 0, pretend = 0, frame = 8
 238              		@ frame_needed = 1, uses_anonymous_args = 0
 239 0000 90B5     		push	{r4, r7, lr}
 240              		.cfi_def_cfa_offset 12
 241              		.cfi_offset 4, -12
ARM GAS  C:\Users\KJA\AppData\Local\Temp\cckbcqsI.s 			page 7


 242              		.cfi_offset 7, -8
 243              		.cfi_offset 14, -4
 244 0002 85B0     		sub	sp, sp, #20
 245              		.cfi_def_cfa_offset 32
 246 0004 02AF     		add	r7, sp, #8
 247              		.cfi_def_cfa 7, 24
 248 0006 7860     		str	r0, [r7, #4]
 249 0008 3960     		str	r1, [r7]
 102:u8glib_arm_v1.18.1\src/u8g_pbxh16.c ****   if ( arg_pixel->y < b->p.page_y0 )
 250              		.loc 1 102 0
 251 000a 3B68     		ldr	r3, [r7]
 252 000c 5A78     		ldrb	r2, [r3, #1]	@ zero_extendqisi2
 253 000e 7B68     		ldr	r3, [r7, #4]
 254 0010 9B78     		ldrb	r3, [r3, #2]	@ zero_extendqisi2
 255 0012 9A42     		cmp	r2, r3
 256 0014 00D2     		bcs	.L7
 103:u8glib_arm_v1.18.1\src/u8g_pbxh16.c ****     return;
 257              		.loc 1 103 0
 258 0016 1AE0     		b	.L6
 259              	.L7:
 104:u8glib_arm_v1.18.1\src/u8g_pbxh16.c ****   if ( arg_pixel->y > b->p.page_y1 )
 260              		.loc 1 104 0
 261 0018 3B68     		ldr	r3, [r7]
 262 001a 5A78     		ldrb	r2, [r3, #1]	@ zero_extendqisi2
 263 001c 7B68     		ldr	r3, [r7, #4]
 264 001e DB78     		ldrb	r3, [r3, #3]	@ zero_extendqisi2
 265 0020 9A42     		cmp	r2, r3
 266 0022 00D9     		bls	.L9
 105:u8glib_arm_v1.18.1\src/u8g_pbxh16.c ****     return;
 267              		.loc 1 105 0 discriminator 2
 268 0024 13E0     		b	.L6
 269              	.L9:
 106:u8glib_arm_v1.18.1\src/u8g_pbxh16.c ****   if ( arg_pixel->x >= b->width )
 270              		.loc 1 106 0
 271 0026 3B68     		ldr	r3, [r7]
 272 0028 1A78     		ldrb	r2, [r3]	@ zero_extendqisi2
 273 002a 7B68     		ldr	r3, [r7, #4]
 274 002c 5B79     		ldrb	r3, [r3, #5]	@ zero_extendqisi2
 275 002e 9A42     		cmp	r2, r3
 276 0030 00D3     		bcc	.L10
 107:u8glib_arm_v1.18.1\src/u8g_pbxh16.c ****     return;
 277              		.loc 1 107 0 discriminator 3
 278 0032 0CE0     		b	.L6
 279              	.L10:
 108:u8glib_arm_v1.18.1\src/u8g_pbxh16.c ****   u8g_pbxh16_set_pixel(b, arg_pixel->x, arg_pixel->y, arg_pixel->color, arg_pixel->hi_color);
 280              		.loc 1 108 0
 281 0034 3B68     		ldr	r3, [r7]
 282 0036 1978     		ldrb	r1, [r3]	@ zero_extendqisi2
 283 0038 3B68     		ldr	r3, [r7]
 284 003a 5A78     		ldrb	r2, [r3, #1]	@ zero_extendqisi2
 285 003c 3B68     		ldr	r3, [r7]
 286 003e 1C79     		ldrb	r4, [r3, #4]	@ zero_extendqisi2
 287 0040 3B68     		ldr	r3, [r7]
 288 0042 5B79     		ldrb	r3, [r3, #5]	@ zero_extendqisi2
 289 0044 0093     		str	r3, [sp]
 290 0046 7868     		ldr	r0, [r7, #4]
 291 0048 2346     		mov	r3, r4
ARM GAS  C:\Users\KJA\AppData\Local\Temp\cckbcqsI.s 			page 8


 292 004a FFF7FEFF 		bl	u8g_pbxh16_set_pixel
 293              	.L6:
 109:u8glib_arm_v1.18.1\src/u8g_pbxh16.c **** }
 294              		.loc 1 109 0
 295 004e 0C37     		adds	r7, r7, #12
 296              		.cfi_def_cfa_offset 12
 297 0050 BD46     		mov	sp, r7
 298              		.cfi_def_cfa_register 13
 299              		@ sp needed
 300 0052 90BD     		pop	{r4, r7, pc}
 301              		.cfi_endproc
 302              	.LFE3:
 303              		.size	u8g_pbxh16_SetPixel, .-u8g_pbxh16_SetPixel
 304              		.section	.text.u8g_pbxh16_Set8Pixel,"ax",%progbits
 305              		.align	2
 306              		.global	u8g_pbxh16_Set8Pixel
 307              		.thumb
 308              		.thumb_func
 309              		.type	u8g_pbxh16_Set8Pixel, %function
 310              	u8g_pbxh16_Set8Pixel:
 311              	.LFB4:
 110:u8glib_arm_v1.18.1\src/u8g_pbxh16.c **** 
 111:u8glib_arm_v1.18.1\src/u8g_pbxh16.c **** 
 112:u8glib_arm_v1.18.1\src/u8g_pbxh16.c **** void u8g_pbxh16_Set8Pixel(u8g_pb_t *b, u8g_dev_arg_pixel_t *arg_pixel)
 113:u8glib_arm_v1.18.1\src/u8g_pbxh16.c **** {
 312              		.loc 1 113 0
 313              		.cfi_startproc
 314              		@ args = 0, pretend = 0, frame = 16
 315              		@ frame_needed = 1, uses_anonymous_args = 0
 316 0000 90B5     		push	{r4, r7, lr}
 317              		.cfi_def_cfa_offset 12
 318              		.cfi_offset 4, -12
 319              		.cfi_offset 7, -8
 320              		.cfi_offset 14, -4
 321 0002 85B0     		sub	sp, sp, #20
 322              		.cfi_def_cfa_offset 32
 323 0004 00AF     		add	r7, sp, #0
 324              		.cfi_def_cfa_register 7
 325 0006 7860     		str	r0, [r7, #4]
 326 0008 3960     		str	r1, [r7]
 114:u8glib_arm_v1.18.1\src/u8g_pbxh16.c ****   register uint8_t pixel = arg_pixel->pixel;
 327              		.loc 1 114 0
 328 000a 3B68     		ldr	r3, [r7]
 329 000c 9C78     		ldrb	r4, [r3, #2]	@ zero_extendqisi2
 115:u8glib_arm_v1.18.1\src/u8g_pbxh16.c ****   u8g_uint_t dx = 0;
 330              		.loc 1 115 0
 331 000e 0023     		movs	r3, #0
 332 0010 FB73     		strb	r3, [r7, #15]
 116:u8glib_arm_v1.18.1\src/u8g_pbxh16.c ****   u8g_uint_t dy = 0;
 333              		.loc 1 116 0
 334 0012 0023     		movs	r3, #0
 335 0014 BB73     		strb	r3, [r7, #14]
 117:u8glib_arm_v1.18.1\src/u8g_pbxh16.c ****   
 118:u8glib_arm_v1.18.1\src/u8g_pbxh16.c ****   switch( arg_pixel->dir )
 336              		.loc 1 118 0
 337 0016 3B68     		ldr	r3, [r7]
 338 0018 DB78     		ldrb	r3, [r3, #3]	@ zero_extendqisi2
ARM GAS  C:\Users\KJA\AppData\Local\Temp\cckbcqsI.s 			page 9


 339 001a 032B     		cmp	r3, #3
 340 001c 1AD8     		bhi	.L12
 341 001e 01A2     		adr	r2, .L14
 342 0020 52F823F0 		ldr	pc, [r2, r3, lsl #2]
 343              		.p2align 2
 344              	.L14:
 345 0024 35000000 		.word	.L13+1
 346 0028 3D000000 		.word	.L15+1
 347 002c 45000000 		.word	.L16+1
 348 0030 4D000000 		.word	.L17+1
 349              		.p2align 1
 350              	.L13:
 119:u8glib_arm_v1.18.1\src/u8g_pbxh16.c ****   {
 120:u8glib_arm_v1.18.1\src/u8g_pbxh16.c ****     case 0: dx++; break;
 351              		.loc 1 120 0
 352 0034 FB7B     		ldrb	r3, [r7, #15]	@ zero_extendqisi2
 353 0036 0133     		adds	r3, r3, #1
 354 0038 FB73     		strb	r3, [r7, #15]
 355 003a 0BE0     		b	.L12
 356              	.L15:
 121:u8glib_arm_v1.18.1\src/u8g_pbxh16.c ****     case 1: dy++; break;
 357              		.loc 1 121 0
 358 003c BB7B     		ldrb	r3, [r7, #14]	@ zero_extendqisi2
 359 003e 0133     		adds	r3, r3, #1
 360 0040 BB73     		strb	r3, [r7, #14]
 361 0042 07E0     		b	.L12
 362              	.L16:
 122:u8glib_arm_v1.18.1\src/u8g_pbxh16.c ****     case 2: dx--; break;
 363              		.loc 1 122 0
 364 0044 FB7B     		ldrb	r3, [r7, #15]	@ zero_extendqisi2
 365 0046 013B     		subs	r3, r3, #1
 366 0048 FB73     		strb	r3, [r7, #15]
 367 004a 03E0     		b	.L12
 368              	.L17:
 123:u8glib_arm_v1.18.1\src/u8g_pbxh16.c ****     case 3: dy--; break;
 369              		.loc 1 123 0
 370 004c BB7B     		ldrb	r3, [r7, #14]	@ zero_extendqisi2
 371 004e 013B     		subs	r3, r3, #1
 372 0050 BB73     		strb	r3, [r7, #14]
 373 0052 00BF     		nop
 374              	.L12:
 124:u8glib_arm_v1.18.1\src/u8g_pbxh16.c ****   }
 125:u8glib_arm_v1.18.1\src/u8g_pbxh16.c ****   
 126:u8glib_arm_v1.18.1\src/u8g_pbxh16.c ****   do
 127:u8glib_arm_v1.18.1\src/u8g_pbxh16.c ****   {
 128:u8glib_arm_v1.18.1\src/u8g_pbxh16.c ****     if ( pixel & 128 )
 375              		.loc 1 128 0
 376 0054 E3B2     		uxtb	r3, r4
 377 0056 5BB2     		sxtb	r3, r3
 378 0058 002B     		cmp	r3, #0
 379 005a 03DA     		bge	.L18
 129:u8glib_arm_v1.18.1\src/u8g_pbxh16.c ****       u8g_pbxh16_SetPixel(b, arg_pixel);
 380              		.loc 1 129 0
 381 005c 7868     		ldr	r0, [r7, #4]
 382 005e 3968     		ldr	r1, [r7]
 383 0060 FFF7FEFF 		bl	u8g_pbxh16_SetPixel
 384              	.L18:
ARM GAS  C:\Users\KJA\AppData\Local\Temp\cckbcqsI.s 			page 10


 130:u8glib_arm_v1.18.1\src/u8g_pbxh16.c ****     arg_pixel->x += dx;
 385              		.loc 1 130 0
 386 0064 3B68     		ldr	r3, [r7]
 387 0066 1A78     		ldrb	r2, [r3]	@ zero_extendqisi2
 388 0068 FB7B     		ldrb	r3, [r7, #15]
 389 006a 1344     		add	r3, r3, r2
 390 006c DAB2     		uxtb	r2, r3
 391 006e 3B68     		ldr	r3, [r7]
 392 0070 1A70     		strb	r2, [r3]
 131:u8glib_arm_v1.18.1\src/u8g_pbxh16.c ****     arg_pixel->y += dy;
 393              		.loc 1 131 0
 394 0072 3B68     		ldr	r3, [r7]
 395 0074 5A78     		ldrb	r2, [r3, #1]	@ zero_extendqisi2
 396 0076 BB7B     		ldrb	r3, [r7, #14]
 397 0078 1344     		add	r3, r3, r2
 398 007a DAB2     		uxtb	r2, r3
 399 007c 3B68     		ldr	r3, [r7]
 400 007e 5A70     		strb	r2, [r3, #1]
 132:u8glib_arm_v1.18.1\src/u8g_pbxh16.c ****     pixel <<= 1;
 401              		.loc 1 132 0
 402 0080 6300     		lsls	r3, r4, #1
 403 0082 DCB2     		uxtb	r4, r3
 133:u8glib_arm_v1.18.1\src/u8g_pbxh16.c ****   } while( pixel != 0  );  
 404              		.loc 1 133 0
 405 0084 002C     		cmp	r4, #0
 406 0086 E5D1     		bne	.L12
 134:u8glib_arm_v1.18.1\src/u8g_pbxh16.c **** }
 407              		.loc 1 134 0
 408 0088 1437     		adds	r7, r7, #20
 409              		.cfi_def_cfa_offset 12
 410 008a BD46     		mov	sp, r7
 411              		.cfi_def_cfa_register 13
 412              		@ sp needed
 413 008c 90BD     		pop	{r4, r7, pc}
 414              		.cfi_endproc
 415              	.LFE4:
 416              		.size	u8g_pbxh16_Set8Pixel, .-u8g_pbxh16_Set8Pixel
 417 008e 00BF     		.section	.text.u8g_dev_pbxh16_base_fn,"ax",%progbits
 418              		.align	2
 419              		.global	u8g_dev_pbxh16_base_fn
 420              		.thumb
 421              		.thumb_func
 422              		.type	u8g_dev_pbxh16_base_fn, %function
 423              	u8g_dev_pbxh16_base_fn:
 424              	.LFB5:
 135:u8glib_arm_v1.18.1\src/u8g_pbxh16.c **** 
 136:u8glib_arm_v1.18.1\src/u8g_pbxh16.c **** 
 137:u8glib_arm_v1.18.1\src/u8g_pbxh16.c **** uint8_t u8g_dev_pbxh16_base_fn(u8g_t *u8g, u8g_dev_t *dev, uint8_t msg, void *arg)
 138:u8glib_arm_v1.18.1\src/u8g_pbxh16.c **** {
 425              		.loc 1 138 0
 426              		.cfi_startproc
 427              		@ args = 0, pretend = 0, frame = 24
 428              		@ frame_needed = 1, uses_anonymous_args = 0
 429 0000 80B5     		push	{r7, lr}
 430              		.cfi_def_cfa_offset 8
 431              		.cfi_offset 7, -8
 432              		.cfi_offset 14, -4
ARM GAS  C:\Users\KJA\AppData\Local\Temp\cckbcqsI.s 			page 11


 433 0002 86B0     		sub	sp, sp, #24
 434              		.cfi_def_cfa_offset 32
 435 0004 00AF     		add	r7, sp, #0
 436              		.cfi_def_cfa_register 7
 437 0006 F860     		str	r0, [r7, #12]
 438 0008 B960     		str	r1, [r7, #8]
 439 000a 3B60     		str	r3, [r7]
 440 000c 1346     		mov	r3, r2
 441 000e FB71     		strb	r3, [r7, #7]
 139:u8glib_arm_v1.18.1\src/u8g_pbxh16.c ****   u8g_pb_t *pb = (u8g_pb_t *)(dev->dev_mem);
 442              		.loc 1 139 0
 443 0010 BB68     		ldr	r3, [r7, #8]
 444 0012 5B68     		ldr	r3, [r3, #4]
 445 0014 7B61     		str	r3, [r7, #20]
 140:u8glib_arm_v1.18.1\src/u8g_pbxh16.c ****   switch(msg)
 446              		.loc 1 140 0
 447 0016 FB79     		ldrb	r3, [r7, #7]	@ zero_extendqisi2
 448 0018 0A3B     		subs	r3, r3, #10
 449 001a 3E2B     		cmp	r3, #62
 450 001c 00F2BA80 		bhi	.L20
 451 0020 01A2     		adr	r2, .L22
 452 0022 52F823F0 		ldr	pc, [r2, r3, lsl #2]
 453 0026 00BF     		.p2align 2
 454              	.L22:
 455 0028 95010000 		.word	.L20+1
 456 002c 95010000 		.word	.L20+1
 457 0030 95010000 		.word	.L20+1
 458 0034 95010000 		.word	.L20+1
 459 0038 95010000 		.word	.L20+1
 460 003c 95010000 		.word	.L20+1
 461 0040 95010000 		.word	.L20+1
 462 0044 95010000 		.word	.L20+1
 463 0048 95010000 		.word	.L20+1
 464 004c 95010000 		.word	.L20+1
 465 0050 49010000 		.word	.L24+1
 466 0054 59010000 		.word	.L25+1
 467 0058 95010000 		.word	.L20+1
 468 005c 73010000 		.word	.L26+1
 469 0060 95010000 		.word	.L20+1
 470 0064 95010000 		.word	.L20+1
 471 0068 95010000 		.word	.L20+1
 472 006c 95010000 		.word	.L20+1
 473 0070 95010000 		.word	.L20+1
 474 0074 95010000 		.word	.L20+1
 475 0078 95010000 		.word	.L20+1
 476 007c 95010000 		.word	.L20+1
 477 0080 95010000 		.word	.L20+1
 478 0084 95010000 		.word	.L20+1
 479 0088 95010000 		.word	.L20+1
 480 008c 95010000 		.word	.L20+1
 481 0090 95010000 		.word	.L20+1
 482 0094 95010000 		.word	.L20+1
 483 0098 95010000 		.word	.L20+1
 484 009c 95010000 		.word	.L20+1
 485 00a0 95010000 		.word	.L20+1
 486 00a4 95010000 		.word	.L20+1
 487 00a8 95010000 		.word	.L20+1
ARM GAS  C:\Users\KJA\AppData\Local\Temp\cckbcqsI.s 			page 12


 488 00ac 95010000 		.word	.L20+1
 489 00b0 95010000 		.word	.L20+1
 490 00b4 95010000 		.word	.L20+1
 491 00b8 95010000 		.word	.L20+1
 492 00bc 95010000 		.word	.L20+1
 493 00c0 95010000 		.word	.L20+1
 494 00c4 95010000 		.word	.L20+1
 495 00c8 3F010000 		.word	.L27+1
 496 00cc 95010000 		.word	.L20+1
 497 00d0 95010000 		.word	.L20+1
 498 00d4 95010000 		.word	.L20+1
 499 00d8 95010000 		.word	.L20+1
 500 00dc 95010000 		.word	.L20+1
 501 00e0 95010000 		.word	.L20+1
 502 00e4 95010000 		.word	.L20+1
 503 00e8 95010000 		.word	.L20+1
 504 00ec 25010000 		.word	.L28+1
 505 00f0 95010000 		.word	.L20+1
 506 00f4 95010000 		.word	.L20+1
 507 00f8 95010000 		.word	.L20+1
 508 00fc 95010000 		.word	.L20+1
 509 0100 95010000 		.word	.L20+1
 510 0104 95010000 		.word	.L20+1
 511 0108 95010000 		.word	.L20+1
 512 010c 95010000 		.word	.L20+1
 513 0110 95010000 		.word	.L20+1
 514 0114 95010000 		.word	.L20+1
 515 0118 7D010000 		.word	.L31+1
 516 011c 87010000 		.word	.L32+1
 517 0120 91010000 		.word	.L33+1
 518              		.p2align 1
 519              	.L28:
 141:u8glib_arm_v1.18.1\src/u8g_pbxh16.c ****   {
 142:u8glib_arm_v1.18.1\src/u8g_pbxh16.c ****     case U8G_DEV_MSG_SET_8PIXEL:
 143:u8glib_arm_v1.18.1\src/u8g_pbxh16.c ****       if ( u8g_pb_Is8PixelVisible(pb, (u8g_dev_arg_pixel_t *)arg) )
 520              		.loc 1 143 0
 521 0124 7869     		ldr	r0, [r7, #20]
 522 0126 3968     		ldr	r1, [r7]
 523 0128 FFF7FEFF 		bl	u8g_pb_Is8PixelVisible
 524 012c 0346     		mov	r3, r0
 525 012e 002B     		cmp	r3, #0
 526 0130 04D0     		beq	.L34
 144:u8glib_arm_v1.18.1\src/u8g_pbxh16.c ****         u8g_pbxh16_Set8Pixel(pb, (u8g_dev_arg_pixel_t *)arg);
 527              		.loc 1 144 0
 528 0132 7869     		ldr	r0, [r7, #20]
 529 0134 3968     		ldr	r1, [r7]
 530 0136 FFF7FEFF 		bl	u8g_pbxh16_Set8Pixel
 145:u8glib_arm_v1.18.1\src/u8g_pbxh16.c ****       break;
 531              		.loc 1 145 0
 532 013a 2BE0     		b	.L20
 533              	.L34:
 534 013c 2AE0     		b	.L20
 535              	.L27:
 146:u8glib_arm_v1.18.1\src/u8g_pbxh16.c ****     case U8G_DEV_MSG_SET_PIXEL:
 147:u8glib_arm_v1.18.1\src/u8g_pbxh16.c ****       u8g_pbxh16_SetPixel(pb, (u8g_dev_arg_pixel_t *)arg);
 536              		.loc 1 147 0
 537 013e 7869     		ldr	r0, [r7, #20]
ARM GAS  C:\Users\KJA\AppData\Local\Temp\cckbcqsI.s 			page 13


 538 0140 3968     		ldr	r1, [r7]
 539 0142 FFF7FEFF 		bl	u8g_pbxh16_SetPixel
 148:u8glib_arm_v1.18.1\src/u8g_pbxh16.c ****       break;
 540              		.loc 1 148 0
 541 0146 25E0     		b	.L20
 542              	.L24:
 149:u8glib_arm_v1.18.1\src/u8g_pbxh16.c ****     case U8G_DEV_MSG_INIT:
 150:u8glib_arm_v1.18.1\src/u8g_pbxh16.c ****       break;
 151:u8glib_arm_v1.18.1\src/u8g_pbxh16.c ****     case U8G_DEV_MSG_STOP:
 152:u8glib_arm_v1.18.1\src/u8g_pbxh16.c ****       break;
 153:u8glib_arm_v1.18.1\src/u8g_pbxh16.c ****     case U8G_DEV_MSG_PAGE_FIRST:
 154:u8glib_arm_v1.18.1\src/u8g_pbxh16.c ****       u8g_pbxh16_Clear(pb);
 543              		.loc 1 154 0
 544 0148 7869     		ldr	r0, [r7, #20]
 545 014a FFF7FEFF 		bl	u8g_pbxh16_Clear
 155:u8glib_arm_v1.18.1\src/u8g_pbxh16.c ****       u8g_page_First(&(pb->p));
 546              		.loc 1 155 0
 547 014e 7B69     		ldr	r3, [r7, #20]
 548 0150 1846     		mov	r0, r3
 549 0152 FFF7FEFF 		bl	u8g_page_First
 156:u8glib_arm_v1.18.1\src/u8g_pbxh16.c ****       break;
 550              		.loc 1 156 0
 551 0156 1DE0     		b	.L20
 552              	.L25:
 157:u8glib_arm_v1.18.1\src/u8g_pbxh16.c ****     case U8G_DEV_MSG_PAGE_NEXT:
 158:u8glib_arm_v1.18.1\src/u8g_pbxh16.c ****       if ( u8g_page_Next(&(pb->p)) == 0 )
 553              		.loc 1 158 0
 554 0158 7B69     		ldr	r3, [r7, #20]
 555 015a 1846     		mov	r0, r3
 556 015c FFF7FEFF 		bl	u8g_page_Next
 557 0160 0346     		mov	r3, r0
 558 0162 002B     		cmp	r3, #0
 559 0164 01D1     		bne	.L35
 159:u8glib_arm_v1.18.1\src/u8g_pbxh16.c ****         return 0;
 560              		.loc 1 159 0
 561 0166 0023     		movs	r3, #0
 562 0168 15E0     		b	.L36
 563              	.L35:
 160:u8glib_arm_v1.18.1\src/u8g_pbxh16.c ****       u8g_pbxh16_Clear(pb);
 564              		.loc 1 160 0
 565 016a 7869     		ldr	r0, [r7, #20]
 566 016c FFF7FEFF 		bl	u8g_pbxh16_Clear
 161:u8glib_arm_v1.18.1\src/u8g_pbxh16.c ****       break;
 567              		.loc 1 161 0
 568 0170 10E0     		b	.L20
 569              	.L26:
 162:u8glib_arm_v1.18.1\src/u8g_pbxh16.c **** #ifdef U8G_DEV_MSG_IS_BBX_INTERSECTION
 163:u8glib_arm_v1.18.1\src/u8g_pbxh16.c ****     case U8G_DEV_MSG_IS_BBX_INTERSECTION:
 164:u8glib_arm_v1.18.1\src/u8g_pbxh16.c ****       return u8g_pb_IsIntersection(pb, (u8g_dev_arg_bbx_t *)arg);
 165:u8glib_arm_v1.18.1\src/u8g_pbxh16.c **** #endif
 166:u8glib_arm_v1.18.1\src/u8g_pbxh16.c ****     case U8G_DEV_MSG_GET_PAGE_BOX:
 167:u8glib_arm_v1.18.1\src/u8g_pbxh16.c ****       u8g_pb_GetPageBox(pb, (u8g_box_t *)arg);
 570              		.loc 1 167 0
 571 0172 7869     		ldr	r0, [r7, #20]
 572 0174 3968     		ldr	r1, [r7]
 573 0176 FFF7FEFF 		bl	u8g_pb_GetPageBox
 168:u8glib_arm_v1.18.1\src/u8g_pbxh16.c ****       break;
ARM GAS  C:\Users\KJA\AppData\Local\Temp\cckbcqsI.s 			page 14


 574              		.loc 1 168 0
 575 017a 0BE0     		b	.L20
 576              	.L31:
 169:u8glib_arm_v1.18.1\src/u8g_pbxh16.c ****     case U8G_DEV_MSG_GET_WIDTH:
 170:u8glib_arm_v1.18.1\src/u8g_pbxh16.c ****       *((u8g_uint_t *)arg) = pb->width;
 577              		.loc 1 170 0
 578 017c 7B69     		ldr	r3, [r7, #20]
 579 017e 5A79     		ldrb	r2, [r3, #5]	@ zero_extendqisi2
 580 0180 3B68     		ldr	r3, [r7]
 581 0182 1A70     		strb	r2, [r3]
 171:u8glib_arm_v1.18.1\src/u8g_pbxh16.c ****       break;
 582              		.loc 1 171 0
 583 0184 06E0     		b	.L20
 584              	.L32:
 172:u8glib_arm_v1.18.1\src/u8g_pbxh16.c ****     case U8G_DEV_MSG_GET_HEIGHT:
 173:u8glib_arm_v1.18.1\src/u8g_pbxh16.c ****       *((u8g_uint_t *)arg) = pb->p.total_height;
 585              		.loc 1 173 0
 586 0186 7B69     		ldr	r3, [r7, #20]
 587 0188 5A78     		ldrb	r2, [r3, #1]	@ zero_extendqisi2
 588 018a 3B68     		ldr	r3, [r7]
 589 018c 1A70     		strb	r2, [r3]
 174:u8glib_arm_v1.18.1\src/u8g_pbxh16.c ****       break;
 590              		.loc 1 174 0
 591 018e 01E0     		b	.L20
 592              	.L33:
 175:u8glib_arm_v1.18.1\src/u8g_pbxh16.c ****     case U8G_DEV_MSG_SET_COLOR_ENTRY:
 176:u8glib_arm_v1.18.1\src/u8g_pbxh16.c ****       break;
 177:u8glib_arm_v1.18.1\src/u8g_pbxh16.c ****     case U8G_DEV_MSG_SET_XY_CB:
 178:u8glib_arm_v1.18.1\src/u8g_pbxh16.c ****       break;
 179:u8glib_arm_v1.18.1\src/u8g_pbxh16.c ****     case U8G_DEV_MSG_GET_MODE:
 180:u8glib_arm_v1.18.1\src/u8g_pbxh16.c ****       return U8G_MODE_HICOLOR;
 593              		.loc 1 180 0
 594 0190 3023     		movs	r3, #48
 595 0192 00E0     		b	.L36
 596              	.L20:
 181:u8glib_arm_v1.18.1\src/u8g_pbxh16.c ****   }
 182:u8glib_arm_v1.18.1\src/u8g_pbxh16.c ****   return 1;
 597              		.loc 1 182 0
 598 0194 0123     		movs	r3, #1
 599              	.L36:
 183:u8glib_arm_v1.18.1\src/u8g_pbxh16.c **** }
 600              		.loc 1 183 0
 601 0196 1846     		mov	r0, r3
 602 0198 1837     		adds	r7, r7, #24
 603              		.cfi_def_cfa_offset 8
 604 019a BD46     		mov	sp, r7
 605              		.cfi_def_cfa_register 13
 606              		@ sp needed
 607 019c 80BD     		pop	{r7, pc}
 608              		.cfi_endproc
 609              	.LFE5:
 610              		.size	u8g_dev_pbxh16_base_fn, .-u8g_dev_pbxh16_base_fn
 611 019e 00BF     		.text
 612              	.Letext0:
 613              		.file 2 "c:\\program files (x86)\\cypress\\psoc creator\\4.0\\psoc creator\\import\\gnu\\arm\\4.9.
 614              		.file 3 "c:\\program files (x86)\\cypress\\psoc creator\\4.0\\psoc creator\\import\\gnu\\arm\\4.9.
 615              		.file 4 "u8glib_arm_v1.18.1\\src\\u8g.h"
ARM GAS  C:\Users\KJA\AppData\Local\Temp\cckbcqsI.s 			page 15

