ARM GAS  C:\Users\KJA\AppData\Local\Temp\ccLpGk3h.s 			page 1


   1              		.syntax unified
   2              		.cpu cortex-m3
   3              		.fpu softvfp
   4              		.eabi_attribute 20, 1
   5              		.eabi_attribute 21, 1
   6              		.eabi_attribute 23, 3
   7              		.eabi_attribute 24, 1
   8              		.eabi_attribute 25, 1
   9              		.eabi_attribute 26, 1
  10              		.eabi_attribute 30, 6
  11              		.eabi_attribute 34, 1
  12              		.eabi_attribute 18, 4
  13              		.thumb
  14              		.file	"u8g_pb16h1.c"
  15              		.text
  16              	.Ltext0:
  17              		.cfi_sections	.debug_frame
  18              		.section	.text.u8g_pb16h1_Clear,"ax",%progbits
  19              		.align	2
  20              		.global	u8g_pb16h1_Clear
  21              		.thumb
  22              		.thumb_func
  23              		.type	u8g_pb16h1_Clear, %function
  24              	u8g_pb16h1_Clear:
  25              	.LFB0:
  26              		.file 1 "u8glib_arm_v1.18.1\\src\\u8g_pb16h1.c"
   1:u8glib_arm_v1.18.1\src/u8g_pb16h1.c **** /*
   2:u8glib_arm_v1.18.1\src/u8g_pb16h1.c **** 
   3:u8glib_arm_v1.18.1\src/u8g_pb16h1.c ****   u8g_pb16h1.c
   4:u8glib_arm_v1.18.1\src/u8g_pb16h1.c ****   
   5:u8glib_arm_v1.18.1\src/u8g_pb16h1.c ****   2x 8bit height monochrom (1 bit) page buffer
   6:u8glib_arm_v1.18.1\src/u8g_pb16h1.c ****   byte has horizontal orientation
   7:u8glib_arm_v1.18.1\src/u8g_pb16h1.c **** 
   8:u8glib_arm_v1.18.1\src/u8g_pb16h1.c ****   Universal 8bit Graphics Library
   9:u8glib_arm_v1.18.1\src/u8g_pb16h1.c ****   
  10:u8glib_arm_v1.18.1\src/u8g_pb16h1.c ****   Copyright (c) 2012, olikraus@gmail.com
  11:u8glib_arm_v1.18.1\src/u8g_pb16h1.c ****   All rights reserved.
  12:u8glib_arm_v1.18.1\src/u8g_pb16h1.c **** 
  13:u8glib_arm_v1.18.1\src/u8g_pb16h1.c ****   Redistribution and use in source and binary forms, with or without modification, 
  14:u8glib_arm_v1.18.1\src/u8g_pb16h1.c ****   are permitted provided that the following conditions are met:
  15:u8glib_arm_v1.18.1\src/u8g_pb16h1.c **** 
  16:u8glib_arm_v1.18.1\src/u8g_pb16h1.c ****   * Redistributions of source code must retain the above copyright notice, this list 
  17:u8glib_arm_v1.18.1\src/u8g_pb16h1.c ****     of conditions and the following disclaimer.
  18:u8glib_arm_v1.18.1\src/u8g_pb16h1.c ****     
  19:u8glib_arm_v1.18.1\src/u8g_pb16h1.c ****   * Redistributions in binary form must reproduce the above copyright notice, this 
  20:u8glib_arm_v1.18.1\src/u8g_pb16h1.c ****     list of conditions and the following disclaimer in the documentation and/or other 
  21:u8glib_arm_v1.18.1\src/u8g_pb16h1.c ****     materials provided with the distribution.
  22:u8glib_arm_v1.18.1\src/u8g_pb16h1.c **** 
  23:u8glib_arm_v1.18.1\src/u8g_pb16h1.c ****   THIS SOFTWARE IS PROVIDED BY THE COPYRIGHT HOLDERS AND 
  24:u8glib_arm_v1.18.1\src/u8g_pb16h1.c ****   CONTRIBUTORS "AS IS" AND ANY EXPRESS OR IMPLIED WARRANTIES, 
  25:u8glib_arm_v1.18.1\src/u8g_pb16h1.c ****   INCLUDING, BUT NOT LIMITED TO, THE IMPLIED WARRANTIES OF 
  26:u8glib_arm_v1.18.1\src/u8g_pb16h1.c ****   MERCHANTABILITY AND FITNESS FOR A PARTICULAR PURPOSE ARE 
  27:u8glib_arm_v1.18.1\src/u8g_pb16h1.c ****   DISCLAIMED. IN NO EVENT SHALL THE COPYRIGHT HOLDER OR 
  28:u8glib_arm_v1.18.1\src/u8g_pb16h1.c ****   CONTRIBUTORS BE LIABLE FOR ANY DIRECT, INDIRECT, INCIDENTAL, 
  29:u8glib_arm_v1.18.1\src/u8g_pb16h1.c ****   SPECIAL, EXEMPLARY, OR CONSEQUENTIAL DAMAGES (INCLUDING, BUT 
  30:u8glib_arm_v1.18.1\src/u8g_pb16h1.c ****   NOT LIMITED TO, PROCUREMENT OF SUBSTITUTE GOODS OR SERVICES; 
  31:u8glib_arm_v1.18.1\src/u8g_pb16h1.c ****   LOSS OF USE, DATA, OR PROFITS; OR BUSINESS INTERRUPTION) HOWEVER 
ARM GAS  C:\Users\KJA\AppData\Local\Temp\ccLpGk3h.s 			page 2


  32:u8glib_arm_v1.18.1\src/u8g_pb16h1.c ****   CAUSED AND ON ANY THEORY OF LIABILITY, WHETHER IN CONTRACT, 
  33:u8glib_arm_v1.18.1\src/u8g_pb16h1.c ****   STRICT LIABILITY, OR TORT (INCLUDING NEGLIGENCE OR OTHERWISE) 
  34:u8glib_arm_v1.18.1\src/u8g_pb16h1.c ****   ARISING IN ANY WAY OUT OF THE USE OF THIS SOFTWARE, EVEN IF 
  35:u8glib_arm_v1.18.1\src/u8g_pb16h1.c ****   ADVISED OF THE POSSIBILITY OF SUCH DAMAGE.  
  36:u8glib_arm_v1.18.1\src/u8g_pb16h1.c **** 
  37:u8glib_arm_v1.18.1\src/u8g_pb16h1.c **** 
  38:u8glib_arm_v1.18.1\src/u8g_pb16h1.c ****   total buffer size is limited to 2*256 bytes because of the calculation inside the set pixel proce
  39:u8glib_arm_v1.18.1\src/u8g_pb16h1.c **** 
  40:u8glib_arm_v1.18.1\src/u8g_pb16h1.c **** 
  41:u8glib_arm_v1.18.1\src/u8g_pb16h1.c **** */
  42:u8glib_arm_v1.18.1\src/u8g_pb16h1.c **** 
  43:u8glib_arm_v1.18.1\src/u8g_pb16h1.c **** #include "u8g.h"
  44:u8glib_arm_v1.18.1\src/u8g_pb16h1.c **** #include <string.h>
  45:u8glib_arm_v1.18.1\src/u8g_pb16h1.c **** 
  46:u8glib_arm_v1.18.1\src/u8g_pb16h1.c **** 
  47:u8glib_arm_v1.18.1\src/u8g_pb16h1.c **** void u8g_pb16h1_Init(u8g_pb_t *b, void *buf, u8g_uint_t width) U8G_NOINLINE;
  48:u8glib_arm_v1.18.1\src/u8g_pb16h1.c **** void u8g_pb16h1_set_pixel(u8g_pb_t *b, u8g_uint_t x, u8g_uint_t y, uint8_t color_index) U8G_NOINLIN
  49:u8glib_arm_v1.18.1\src/u8g_pb16h1.c **** void u8g_pb16h1_SetPixel(u8g_pb_t *b, const u8g_dev_arg_pixel_t * const arg_pixel) U8G_NOINLINE ;
  50:u8glib_arm_v1.18.1\src/u8g_pb16h1.c **** void u8g_pb16h1_Set8PixelStd(u8g_pb_t *b, u8g_dev_arg_pixel_t *arg_pixel) U8G_NOINLINE;
  51:u8glib_arm_v1.18.1\src/u8g_pb16h1.c **** uint8_t u8g_dev_pb8h1_base_fn(u8g_t *u8g, u8g_dev_t *dev, uint8_t msg, void *arg);
  52:u8glib_arm_v1.18.1\src/u8g_pb16h1.c **** 
  53:u8glib_arm_v1.18.1\src/u8g_pb16h1.c **** void u8g_pb16h1_Clear(u8g_pb_t *b)
  54:u8glib_arm_v1.18.1\src/u8g_pb16h1.c **** {
  27              		.loc 1 54 0
  28              		.cfi_startproc
  29              		@ args = 0, pretend = 0, frame = 16
  30              		@ frame_needed = 1, uses_anonymous_args = 0
  31              		@ link register save eliminated.
  32 0000 80B4     		push	{r7}
  33              		.cfi_def_cfa_offset 4
  34              		.cfi_offset 7, -4
  35 0002 85B0     		sub	sp, sp, #20
  36              		.cfi_def_cfa_offset 24
  37 0004 00AF     		add	r7, sp, #0
  38              		.cfi_def_cfa_register 7
  39 0006 7860     		str	r0, [r7, #4]
  55:u8glib_arm_v1.18.1\src/u8g_pb16h1.c ****   uint8_t *ptr = (uint8_t *)b->buf;
  40              		.loc 1 55 0
  41 0008 7B68     		ldr	r3, [r7, #4]
  42 000a 9B68     		ldr	r3, [r3, #8]
  43 000c FB60     		str	r3, [r7, #12]
  56:u8glib_arm_v1.18.1\src/u8g_pb16h1.c ****   uint8_t *end_ptr = ptr;
  44              		.loc 1 56 0
  45 000e FB68     		ldr	r3, [r7, #12]
  46 0010 BB60     		str	r3, [r7, #8]
  57:u8glib_arm_v1.18.1\src/u8g_pb16h1.c ****   end_ptr += b->width*2;
  47              		.loc 1 57 0
  48 0012 7B68     		ldr	r3, [r7, #4]
  49 0014 5B79     		ldrb	r3, [r3, #5]	@ zero_extendqisi2
  50 0016 5B00     		lsls	r3, r3, #1
  51 0018 1A46     		mov	r2, r3
  52 001a BB68     		ldr	r3, [r7, #8]
  53 001c 1344     		add	r3, r3, r2
  54 001e BB60     		str	r3, [r7, #8]
  55              	.L2:
  58:u8glib_arm_v1.18.1\src/u8g_pb16h1.c ****   do
  59:u8glib_arm_v1.18.1\src/u8g_pb16h1.c ****   {
ARM GAS  C:\Users\KJA\AppData\Local\Temp\ccLpGk3h.s 			page 3


  60:u8glib_arm_v1.18.1\src/u8g_pb16h1.c ****     *ptr++ = 0;
  56              		.loc 1 60 0 discriminator 1
  57 0020 FB68     		ldr	r3, [r7, #12]
  58 0022 5A1C     		adds	r2, r3, #1
  59 0024 FA60     		str	r2, [r7, #12]
  60 0026 0022     		movs	r2, #0
  61 0028 1A70     		strb	r2, [r3]
  61:u8glib_arm_v1.18.1\src/u8g_pb16h1.c ****   } while( ptr != end_ptr );
  62              		.loc 1 61 0 discriminator 1
  63 002a FA68     		ldr	r2, [r7, #12]
  64 002c BB68     		ldr	r3, [r7, #8]
  65 002e 9A42     		cmp	r2, r3
  66 0030 F6D1     		bne	.L2
  62:u8glib_arm_v1.18.1\src/u8g_pb16h1.c **** }
  67              		.loc 1 62 0
  68 0032 1437     		adds	r7, r7, #20
  69              		.cfi_def_cfa_offset 4
  70 0034 BD46     		mov	sp, r7
  71              		.cfi_def_cfa_register 13
  72              		@ sp needed
  73 0036 5DF8047B 		ldr	r7, [sp], #4
  74              		.cfi_restore 7
  75              		.cfi_def_cfa_offset 0
  76 003a 7047     		bx	lr
  77              		.cfi_endproc
  78              	.LFE0:
  79              		.size	u8g_pb16h1_Clear, .-u8g_pb16h1_Clear
  80              		.section	.text.u8g_pb16h1_Init,"ax",%progbits
  81              		.align	2
  82              		.global	u8g_pb16h1_Init
  83              		.thumb
  84              		.thumb_func
  85              		.type	u8g_pb16h1_Init, %function
  86              	u8g_pb16h1_Init:
  87              	.LFB1:
  63:u8glib_arm_v1.18.1\src/u8g_pb16h1.c **** 
  64:u8glib_arm_v1.18.1\src/u8g_pb16h1.c **** 
  65:u8glib_arm_v1.18.1\src/u8g_pb16h1.c **** 
  66:u8glib_arm_v1.18.1\src/u8g_pb16h1.c **** void u8g_pb16h1_Init(u8g_pb_t *b, void *buf, u8g_uint_t width)
  67:u8glib_arm_v1.18.1\src/u8g_pb16h1.c **** {
  88              		.loc 1 67 0
  89              		.cfi_startproc
  90              		@ args = 0, pretend = 0, frame = 16
  91              		@ frame_needed = 1, uses_anonymous_args = 0
  92 0000 80B5     		push	{r7, lr}
  93              		.cfi_def_cfa_offset 8
  94              		.cfi_offset 7, -8
  95              		.cfi_offset 14, -4
  96 0002 84B0     		sub	sp, sp, #16
  97              		.cfi_def_cfa_offset 24
  98 0004 00AF     		add	r7, sp, #0
  99              		.cfi_def_cfa_register 7
 100 0006 F860     		str	r0, [r7, #12]
 101 0008 B960     		str	r1, [r7, #8]
 102 000a 1346     		mov	r3, r2
 103 000c FB71     		strb	r3, [r7, #7]
  68:u8glib_arm_v1.18.1\src/u8g_pb16h1.c ****   b->buf = buf;
ARM GAS  C:\Users\KJA\AppData\Local\Temp\ccLpGk3h.s 			page 4


 104              		.loc 1 68 0
 105 000e FB68     		ldr	r3, [r7, #12]
 106 0010 BA68     		ldr	r2, [r7, #8]
 107 0012 9A60     		str	r2, [r3, #8]
  69:u8glib_arm_v1.18.1\src/u8g_pb16h1.c ****   b->width = width;
 108              		.loc 1 69 0
 109 0014 FB68     		ldr	r3, [r7, #12]
 110 0016 FA79     		ldrb	r2, [r7, #7]
 111 0018 5A71     		strb	r2, [r3, #5]
  70:u8glib_arm_v1.18.1\src/u8g_pb16h1.c ****   u8g_pb16h1_Clear(b);
 112              		.loc 1 70 0
 113 001a F868     		ldr	r0, [r7, #12]
 114 001c FFF7FEFF 		bl	u8g_pb16h1_Clear
  71:u8glib_arm_v1.18.1\src/u8g_pb16h1.c **** }
 115              		.loc 1 71 0
 116 0020 1037     		adds	r7, r7, #16
 117              		.cfi_def_cfa_offset 8
 118 0022 BD46     		mov	sp, r7
 119              		.cfi_def_cfa_register 13
 120              		@ sp needed
 121 0024 80BD     		pop	{r7, pc}
 122              		.cfi_endproc
 123              	.LFE1:
 124              		.size	u8g_pb16h1_Init, .-u8g_pb16h1_Init
 125 0026 00BF     		.section	.text.u8g_pb16h1_set_pixel,"ax",%progbits
 126              		.align	2
 127              		.global	u8g_pb16h1_set_pixel
 128              		.thumb
 129              		.thumb_func
 130              		.type	u8g_pb16h1_set_pixel, %function
 131              	u8g_pb16h1_set_pixel:
 132              	.LFB2:
  72:u8glib_arm_v1.18.1\src/u8g_pb16h1.c **** 
  73:u8glib_arm_v1.18.1\src/u8g_pb16h1.c **** 
  74:u8glib_arm_v1.18.1\src/u8g_pb16h1.c **** /* limitation: total buffer must not exceed 2*256 bytes */
  75:u8glib_arm_v1.18.1\src/u8g_pb16h1.c **** void u8g_pb16h1_set_pixel(u8g_pb_t *b, u8g_uint_t x, u8g_uint_t y, uint8_t color_index)
  76:u8glib_arm_v1.18.1\src/u8g_pb16h1.c **** {
 133              		.loc 1 76 0
 134              		.cfi_startproc
 135              		@ args = 0, pretend = 0, frame = 16
 136              		@ frame_needed = 1, uses_anonymous_args = 0
 137              		@ link register save eliminated.
 138 0000 90B4     		push	{r4, r7}
 139              		.cfi_def_cfa_offset 8
 140              		.cfi_offset 4, -8
 141              		.cfi_offset 7, -4
 142 0002 84B0     		sub	sp, sp, #16
 143              		.cfi_def_cfa_offset 24
 144 0004 00AF     		add	r7, sp, #0
 145              		.cfi_def_cfa_register 7
 146 0006 7860     		str	r0, [r7, #4]
 147 0008 0846     		mov	r0, r1
 148 000a 1146     		mov	r1, r2
 149 000c 1A46     		mov	r2, r3
 150 000e 0346     		mov	r3, r0
 151 0010 FB70     		strb	r3, [r7, #3]
 152 0012 0B46     		mov	r3, r1
ARM GAS  C:\Users\KJA\AppData\Local\Temp\ccLpGk3h.s 			page 5


 153 0014 BB70     		strb	r3, [r7, #2]
 154 0016 1346     		mov	r3, r2
 155 0018 7B70     		strb	r3, [r7, #1]
  77:u8glib_arm_v1.18.1\src/u8g_pb16h1.c ****   register uint8_t mask;
  78:u8glib_arm_v1.18.1\src/u8g_pb16h1.c ****   u8g_uint_t tmp;
  79:u8glib_arm_v1.18.1\src/u8g_pb16h1.c ****   uint8_t *ptr = b->buf;
 156              		.loc 1 79 0
 157 001a 7B68     		ldr	r3, [r7, #4]
 158 001c 9B68     		ldr	r3, [r3, #8]
 159 001e FB60     		str	r3, [r7, #12]
  80:u8glib_arm_v1.18.1\src/u8g_pb16h1.c ****   
  81:u8glib_arm_v1.18.1\src/u8g_pb16h1.c ****   y -= b->p.page_y0;
 160              		.loc 1 81 0
 161 0020 7B68     		ldr	r3, [r7, #4]
 162 0022 9B78     		ldrb	r3, [r3, #2]	@ zero_extendqisi2
 163 0024 BA78     		ldrb	r2, [r7, #2]
 164 0026 D31A     		subs	r3, r2, r3
 165 0028 BB70     		strb	r3, [r7, #2]
  82:u8glib_arm_v1.18.1\src/u8g_pb16h1.c ****   if ( y >= 8 )
 166              		.loc 1 82 0
 167 002a BB78     		ldrb	r3, [r7, #2]	@ zero_extendqisi2
 168 002c 072B     		cmp	r3, #7
 169 002e 09D9     		bls	.L5
  83:u8glib_arm_v1.18.1\src/u8g_pb16h1.c ****   {
  84:u8glib_arm_v1.18.1\src/u8g_pb16h1.c ****     ptr += b->width;
 170              		.loc 1 84 0
 171 0030 7B68     		ldr	r3, [r7, #4]
 172 0032 5B79     		ldrb	r3, [r3, #5]	@ zero_extendqisi2
 173 0034 1A46     		mov	r2, r3
 174 0036 FB68     		ldr	r3, [r7, #12]
 175 0038 1344     		add	r3, r3, r2
 176 003a FB60     		str	r3, [r7, #12]
  85:u8glib_arm_v1.18.1\src/u8g_pb16h1.c ****     y &= 0x07;
 177              		.loc 1 85 0
 178 003c BB78     		ldrb	r3, [r7, #2]
 179 003e 03F00703 		and	r3, r3, #7
 180 0042 BB70     		strb	r3, [r7, #2]
 181              	.L5:
  86:u8glib_arm_v1.18.1\src/u8g_pb16h1.c ****   }
  87:u8glib_arm_v1.18.1\src/u8g_pb16h1.c ****   tmp = b->width;
 182              		.loc 1 87 0
 183 0044 7B68     		ldr	r3, [r7, #4]
 184 0046 5B79     		ldrb	r3, [r3, #5]
 185 0048 FB72     		strb	r3, [r7, #11]
  88:u8glib_arm_v1.18.1\src/u8g_pb16h1.c ****   tmp >>= 3;
 186              		.loc 1 88 0
 187 004a FB7A     		ldrb	r3, [r7, #11]	@ zero_extendqisi2
 188 004c DB08     		lsrs	r3, r3, #3
 189 004e FB72     		strb	r3, [r7, #11]
  89:u8glib_arm_v1.18.1\src/u8g_pb16h1.c ****   tmp *= (uint8_t)y;
 190              		.loc 1 89 0
 191 0050 FB7A     		ldrb	r3, [r7, #11]
 192 0052 BA78     		ldrb	r2, [r7, #2]
 193 0054 02FB03F3 		mul	r3, r2, r3
 194 0058 FB72     		strb	r3, [r7, #11]
  90:u8glib_arm_v1.18.1\src/u8g_pb16h1.c ****   ptr += tmp;
 195              		.loc 1 90 0
ARM GAS  C:\Users\KJA\AppData\Local\Temp\ccLpGk3h.s 			page 6


 196 005a FB7A     		ldrb	r3, [r7, #11]	@ zero_extendqisi2
 197 005c FA68     		ldr	r2, [r7, #12]
 198 005e 1344     		add	r3, r3, r2
 199 0060 FB60     		str	r3, [r7, #12]
  91:u8glib_arm_v1.18.1\src/u8g_pb16h1.c ****   
  92:u8glib_arm_v1.18.1\src/u8g_pb16h1.c ****   mask = 0x080;
 200              		.loc 1 92 0
 201 0062 8024     		movs	r4, #128
  93:u8glib_arm_v1.18.1\src/u8g_pb16h1.c ****   mask >>= x & 7;
 202              		.loc 1 93 0
 203 0064 2246     		mov	r2, r4
 204 0066 FB78     		ldrb	r3, [r7, #3]	@ zero_extendqisi2
 205 0068 03F00703 		and	r3, r3, #7
 206 006c 42FA03F3 		asr	r3, r2, r3
 207 0070 DCB2     		uxtb	r4, r3
  94:u8glib_arm_v1.18.1\src/u8g_pb16h1.c ****   x >>= 3;
 208              		.loc 1 94 0
 209 0072 FB78     		ldrb	r3, [r7, #3]	@ zero_extendqisi2
 210 0074 DB08     		lsrs	r3, r3, #3
 211 0076 FB70     		strb	r3, [r7, #3]
  95:u8glib_arm_v1.18.1\src/u8g_pb16h1.c ****   ptr += x;
 212              		.loc 1 95 0
 213 0078 FB78     		ldrb	r3, [r7, #3]	@ zero_extendqisi2
 214 007a FA68     		ldr	r2, [r7, #12]
 215 007c 1344     		add	r3, r3, r2
 216 007e FB60     		str	r3, [r7, #12]
  96:u8glib_arm_v1.18.1\src/u8g_pb16h1.c ****   if ( color_index )
 217              		.loc 1 96 0
 218 0080 7B78     		ldrb	r3, [r7, #1]	@ zero_extendqisi2
 219 0082 002B     		cmp	r3, #0
 220 0084 06D0     		beq	.L6
  97:u8glib_arm_v1.18.1\src/u8g_pb16h1.c ****   {
  98:u8glib_arm_v1.18.1\src/u8g_pb16h1.c ****     *ptr |= mask;
 221              		.loc 1 98 0
 222 0086 FB68     		ldr	r3, [r7, #12]
 223 0088 1B78     		ldrb	r3, [r3]	@ zero_extendqisi2
 224 008a 2343     		orrs	r3, r3, r4
 225 008c DAB2     		uxtb	r2, r3
 226 008e FB68     		ldr	r3, [r7, #12]
 227 0090 1A70     		strb	r2, [r3]
 228 0092 07E0     		b	.L4
 229              	.L6:
  99:u8glib_arm_v1.18.1\src/u8g_pb16h1.c ****   }
 100:u8glib_arm_v1.18.1\src/u8g_pb16h1.c ****   else
 101:u8glib_arm_v1.18.1\src/u8g_pb16h1.c ****   {
 102:u8glib_arm_v1.18.1\src/u8g_pb16h1.c ****     mask ^=0xff;
 230              		.loc 1 102 0
 231 0094 E343     		mvns	r3, r4
 232 0096 DCB2     		uxtb	r4, r3
 103:u8glib_arm_v1.18.1\src/u8g_pb16h1.c ****     *ptr &= mask;
 233              		.loc 1 103 0
 234 0098 FB68     		ldr	r3, [r7, #12]
 235 009a 1B78     		ldrb	r3, [r3]	@ zero_extendqisi2
 236 009c 2340     		ands	r3, r3, r4
 237 009e DAB2     		uxtb	r2, r3
 238 00a0 FB68     		ldr	r3, [r7, #12]
 239 00a2 1A70     		strb	r2, [r3]
ARM GAS  C:\Users\KJA\AppData\Local\Temp\ccLpGk3h.s 			page 7


 240              	.L4:
 104:u8glib_arm_v1.18.1\src/u8g_pb16h1.c ****   }
 105:u8glib_arm_v1.18.1\src/u8g_pb16h1.c ****   
 106:u8glib_arm_v1.18.1\src/u8g_pb16h1.c **** }
 241              		.loc 1 106 0
 242 00a4 1037     		adds	r7, r7, #16
 243              		.cfi_def_cfa_offset 8
 244 00a6 BD46     		mov	sp, r7
 245              		.cfi_def_cfa_register 13
 246              		@ sp needed
 247 00a8 90BC     		pop	{r4, r7}
 248              		.cfi_restore 7
 249              		.cfi_restore 4
 250              		.cfi_def_cfa_offset 0
 251 00aa 7047     		bx	lr
 252              		.cfi_endproc
 253              	.LFE2:
 254              		.size	u8g_pb16h1_set_pixel, .-u8g_pb16h1_set_pixel
 255              		.section	.text.u8g_pb16h1_SetPixel,"ax",%progbits
 256              		.align	2
 257              		.global	u8g_pb16h1_SetPixel
 258              		.thumb
 259              		.thumb_func
 260              		.type	u8g_pb16h1_SetPixel, %function
 261              	u8g_pb16h1_SetPixel:
 262              	.LFB3:
 107:u8glib_arm_v1.18.1\src/u8g_pb16h1.c **** 
 108:u8glib_arm_v1.18.1\src/u8g_pb16h1.c **** 
 109:u8glib_arm_v1.18.1\src/u8g_pb16h1.c **** void u8g_pb16h1_SetPixel(u8g_pb_t *b, const u8g_dev_arg_pixel_t * const arg_pixel)
 110:u8glib_arm_v1.18.1\src/u8g_pb16h1.c **** {
 263              		.loc 1 110 0
 264              		.cfi_startproc
 265              		@ args = 0, pretend = 0, frame = 8
 266              		@ frame_needed = 1, uses_anonymous_args = 0
 267 0000 80B5     		push	{r7, lr}
 268              		.cfi_def_cfa_offset 8
 269              		.cfi_offset 7, -8
 270              		.cfi_offset 14, -4
 271 0002 82B0     		sub	sp, sp, #8
 272              		.cfi_def_cfa_offset 16
 273 0004 00AF     		add	r7, sp, #0
 274              		.cfi_def_cfa_register 7
 275 0006 7860     		str	r0, [r7, #4]
 276 0008 3960     		str	r1, [r7]
 111:u8glib_arm_v1.18.1\src/u8g_pb16h1.c ****   if ( arg_pixel->y < b->p.page_y0 )
 277              		.loc 1 111 0
 278 000a 3B68     		ldr	r3, [r7]
 279 000c 5A78     		ldrb	r2, [r3, #1]	@ zero_extendqisi2
 280 000e 7B68     		ldr	r3, [r7, #4]
 281 0010 9B78     		ldrb	r3, [r3, #2]	@ zero_extendqisi2
 282 0012 9A42     		cmp	r2, r3
 283 0014 00D2     		bcs	.L9
 112:u8glib_arm_v1.18.1\src/u8g_pb16h1.c ****     return;
 284              		.loc 1 112 0
 285 0016 16E0     		b	.L8
 286              	.L9:
 113:u8glib_arm_v1.18.1\src/u8g_pb16h1.c ****   if ( arg_pixel->y > b->p.page_y1 )
ARM GAS  C:\Users\KJA\AppData\Local\Temp\ccLpGk3h.s 			page 8


 287              		.loc 1 113 0
 288 0018 3B68     		ldr	r3, [r7]
 289 001a 5A78     		ldrb	r2, [r3, #1]	@ zero_extendqisi2
 290 001c 7B68     		ldr	r3, [r7, #4]
 291 001e DB78     		ldrb	r3, [r3, #3]	@ zero_extendqisi2
 292 0020 9A42     		cmp	r2, r3
 293 0022 00D9     		bls	.L11
 114:u8glib_arm_v1.18.1\src/u8g_pb16h1.c ****     return;
 294              		.loc 1 114 0 discriminator 2
 295 0024 0FE0     		b	.L8
 296              	.L11:
 115:u8glib_arm_v1.18.1\src/u8g_pb16h1.c ****   if ( arg_pixel->x >= b->width )
 297              		.loc 1 115 0
 298 0026 3B68     		ldr	r3, [r7]
 299 0028 1A78     		ldrb	r2, [r3]	@ zero_extendqisi2
 300 002a 7B68     		ldr	r3, [r7, #4]
 301 002c 5B79     		ldrb	r3, [r3, #5]	@ zero_extendqisi2
 302 002e 9A42     		cmp	r2, r3
 303 0030 00D3     		bcc	.L12
 116:u8glib_arm_v1.18.1\src/u8g_pb16h1.c ****     return;
 304              		.loc 1 116 0 discriminator 3
 305 0032 08E0     		b	.L8
 306              	.L12:
 117:u8glib_arm_v1.18.1\src/u8g_pb16h1.c ****   u8g_pb16h1_set_pixel(b, arg_pixel->x, arg_pixel->y, arg_pixel->color);
 307              		.loc 1 117 0
 308 0034 3B68     		ldr	r3, [r7]
 309 0036 1978     		ldrb	r1, [r3]	@ zero_extendqisi2
 310 0038 3B68     		ldr	r3, [r7]
 311 003a 5A78     		ldrb	r2, [r3, #1]	@ zero_extendqisi2
 312 003c 3B68     		ldr	r3, [r7]
 313 003e 1B79     		ldrb	r3, [r3, #4]	@ zero_extendqisi2
 314 0040 7868     		ldr	r0, [r7, #4]
 315 0042 FFF7FEFF 		bl	u8g_pb16h1_set_pixel
 316              	.L8:
 118:u8glib_arm_v1.18.1\src/u8g_pb16h1.c **** }
 317              		.loc 1 118 0
 318 0046 0837     		adds	r7, r7, #8
 319              		.cfi_def_cfa_offset 8
 320 0048 BD46     		mov	sp, r7
 321              		.cfi_def_cfa_register 13
 322              		@ sp needed
 323 004a 80BD     		pop	{r7, pc}
 324              		.cfi_endproc
 325              	.LFE3:
 326              		.size	u8g_pb16h1_SetPixel, .-u8g_pb16h1_SetPixel
 327              		.section	.text.u8g_pb16h1_Set8PixelStd,"ax",%progbits
 328              		.align	2
 329              		.global	u8g_pb16h1_Set8PixelStd
 330              		.thumb
 331              		.thumb_func
 332              		.type	u8g_pb16h1_Set8PixelStd, %function
 333              	u8g_pb16h1_Set8PixelStd:
 334              	.LFB4:
 119:u8glib_arm_v1.18.1\src/u8g_pb16h1.c **** 
 120:u8glib_arm_v1.18.1\src/u8g_pb16h1.c **** void u8g_pb16h1_Set8PixelStd(u8g_pb_t *b, u8g_dev_arg_pixel_t *arg_pixel)
 121:u8glib_arm_v1.18.1\src/u8g_pb16h1.c **** {
 335              		.loc 1 121 0
ARM GAS  C:\Users\KJA\AppData\Local\Temp\ccLpGk3h.s 			page 9


 336              		.cfi_startproc
 337              		@ args = 0, pretend = 0, frame = 8
 338              		@ frame_needed = 1, uses_anonymous_args = 0
 339 0000 90B5     		push	{r4, r7, lr}
 340              		.cfi_def_cfa_offset 12
 341              		.cfi_offset 4, -12
 342              		.cfi_offset 7, -8
 343              		.cfi_offset 14, -4
 344 0002 83B0     		sub	sp, sp, #12
 345              		.cfi_def_cfa_offset 24
 346 0004 00AF     		add	r7, sp, #0
 347              		.cfi_def_cfa_register 7
 348 0006 7860     		str	r0, [r7, #4]
 349 0008 3960     		str	r1, [r7]
 122:u8glib_arm_v1.18.1\src/u8g_pb16h1.c ****   register uint8_t pixel = arg_pixel->pixel;
 350              		.loc 1 122 0
 351 000a 3B68     		ldr	r3, [r7]
 352 000c 9C78     		ldrb	r4, [r3, #2]	@ zero_extendqisi2
 353              	.L21:
 123:u8glib_arm_v1.18.1\src/u8g_pb16h1.c ****   do
 124:u8glib_arm_v1.18.1\src/u8g_pb16h1.c ****   {
 125:u8glib_arm_v1.18.1\src/u8g_pb16h1.c ****     if ( pixel & 128 )
 354              		.loc 1 125 0
 355 000e E3B2     		uxtb	r3, r4
 356 0010 5BB2     		sxtb	r3, r3
 357 0012 002B     		cmp	r3, #0
 358 0014 03DA     		bge	.L14
 126:u8glib_arm_v1.18.1\src/u8g_pb16h1.c ****     {
 127:u8glib_arm_v1.18.1\src/u8g_pb16h1.c ****       u8g_pb16h1_SetPixel(b, arg_pixel);
 359              		.loc 1 127 0
 360 0016 7868     		ldr	r0, [r7, #4]
 361 0018 3968     		ldr	r1, [r7]
 362 001a FFF7FEFF 		bl	u8g_pb16h1_SetPixel
 363              	.L14:
 128:u8glib_arm_v1.18.1\src/u8g_pb16h1.c ****     }
 129:u8glib_arm_v1.18.1\src/u8g_pb16h1.c ****     switch( arg_pixel->dir )
 364              		.loc 1 129 0
 365 001e 3B68     		ldr	r3, [r7]
 366 0020 DB78     		ldrb	r3, [r3, #3]	@ zero_extendqisi2
 367 0022 032B     		cmp	r3, #3
 368 0024 26D8     		bhi	.L15
 369 0026 01A2     		adr	r2, .L17
 370 0028 52F823F0 		ldr	pc, [r2, r3, lsl #2]
 371              		.p2align 2
 372              	.L17:
 373 002c 3D000000 		.word	.L16+1
 374 0030 4B000000 		.word	.L18+1
 375 0034 59000000 		.word	.L19+1
 376 0038 67000000 		.word	.L20+1
 377              		.p2align 1
 378              	.L16:
 130:u8glib_arm_v1.18.1\src/u8g_pb16h1.c ****     {
 131:u8glib_arm_v1.18.1\src/u8g_pb16h1.c ****       case 0: arg_pixel->x++; break;
 379              		.loc 1 131 0
 380 003c 3B68     		ldr	r3, [r7]
 381 003e 1B78     		ldrb	r3, [r3]	@ zero_extendqisi2
 382 0040 0133     		adds	r3, r3, #1
ARM GAS  C:\Users\KJA\AppData\Local\Temp\ccLpGk3h.s 			page 10


 383 0042 DAB2     		uxtb	r2, r3
 384 0044 3B68     		ldr	r3, [r7]
 385 0046 1A70     		strb	r2, [r3]
 386 0048 14E0     		b	.L15
 387              	.L18:
 132:u8glib_arm_v1.18.1\src/u8g_pb16h1.c ****       case 1: arg_pixel->y++; break;
 388              		.loc 1 132 0
 389 004a 3B68     		ldr	r3, [r7]
 390 004c 5B78     		ldrb	r3, [r3, #1]	@ zero_extendqisi2
 391 004e 0133     		adds	r3, r3, #1
 392 0050 DAB2     		uxtb	r2, r3
 393 0052 3B68     		ldr	r3, [r7]
 394 0054 5A70     		strb	r2, [r3, #1]
 395 0056 0DE0     		b	.L15
 396              	.L19:
 133:u8glib_arm_v1.18.1\src/u8g_pb16h1.c ****       case 2: arg_pixel->x--; break;
 397              		.loc 1 133 0
 398 0058 3B68     		ldr	r3, [r7]
 399 005a 1B78     		ldrb	r3, [r3]	@ zero_extendqisi2
 400 005c 013B     		subs	r3, r3, #1
 401 005e DAB2     		uxtb	r2, r3
 402 0060 3B68     		ldr	r3, [r7]
 403 0062 1A70     		strb	r2, [r3]
 404 0064 06E0     		b	.L15
 405              	.L20:
 134:u8glib_arm_v1.18.1\src/u8g_pb16h1.c ****       case 3: arg_pixel->y--; break;
 406              		.loc 1 134 0
 407 0066 3B68     		ldr	r3, [r7]
 408 0068 5B78     		ldrb	r3, [r3, #1]	@ zero_extendqisi2
 409 006a 013B     		subs	r3, r3, #1
 410 006c DAB2     		uxtb	r2, r3
 411 006e 3B68     		ldr	r3, [r7]
 412 0070 5A70     		strb	r2, [r3, #1]
 413 0072 00BF     		nop
 414              	.L15:
 135:u8glib_arm_v1.18.1\src/u8g_pb16h1.c ****     }
 136:u8glib_arm_v1.18.1\src/u8g_pb16h1.c ****     pixel <<= 1;
 415              		.loc 1 136 0
 416 0074 6300     		lsls	r3, r4, #1
 417 0076 DCB2     		uxtb	r4, r3
 137:u8glib_arm_v1.18.1\src/u8g_pb16h1.c ****   } while( pixel != 0  );
 418              		.loc 1 137 0
 419 0078 002C     		cmp	r4, #0
 420 007a C8D1     		bne	.L21
 138:u8glib_arm_v1.18.1\src/u8g_pb16h1.c **** }
 421              		.loc 1 138 0
 422 007c 0C37     		adds	r7, r7, #12
 423              		.cfi_def_cfa_offset 12
 424 007e BD46     		mov	sp, r7
 425              		.cfi_def_cfa_register 13
 426              		@ sp needed
 427 0080 90BD     		pop	{r4, r7, pc}
 428              		.cfi_endproc
 429              	.LFE4:
 430              		.size	u8g_pb16h1_Set8PixelStd, .-u8g_pb16h1_Set8PixelStd
 431 0082 00BF     		.section	.text.u8g_pb16h1_Set8PixelOpt2,"ax",%progbits
 432              		.align	2
ARM GAS  C:\Users\KJA\AppData\Local\Temp\ccLpGk3h.s 			page 11


 433              		.global	u8g_pb16h1_Set8PixelOpt2
 434              		.thumb
 435              		.thumb_func
 436              		.type	u8g_pb16h1_Set8PixelOpt2, %function
 437              	u8g_pb16h1_Set8PixelOpt2:
 438              	.LFB5:
 139:u8glib_arm_v1.18.1\src/u8g_pb16h1.c **** 
 140:u8glib_arm_v1.18.1\src/u8g_pb16h1.c **** void u8g_pb16h1_Set8PixelOpt2(u8g_pb_t *b, u8g_dev_arg_pixel_t *arg_pixel)
 141:u8glib_arm_v1.18.1\src/u8g_pb16h1.c **** {
 439              		.loc 1 141 0
 440              		.cfi_startproc
 441              		@ args = 0, pretend = 0, frame = 16
 442              		@ frame_needed = 1, uses_anonymous_args = 0
 443 0000 90B5     		push	{r4, r7, lr}
 444              		.cfi_def_cfa_offset 12
 445              		.cfi_offset 4, -12
 446              		.cfi_offset 7, -8
 447              		.cfi_offset 14, -4
 448 0002 85B0     		sub	sp, sp, #20
 449              		.cfi_def_cfa_offset 32
 450 0004 00AF     		add	r7, sp, #0
 451              		.cfi_def_cfa_register 7
 452 0006 7860     		str	r0, [r7, #4]
 453 0008 3960     		str	r1, [r7]
 142:u8glib_arm_v1.18.1\src/u8g_pb16h1.c ****   register uint8_t pixel = arg_pixel->pixel;
 454              		.loc 1 142 0
 455 000a 3B68     		ldr	r3, [r7]
 456 000c 9C78     		ldrb	r4, [r3, #2]	@ zero_extendqisi2
 143:u8glib_arm_v1.18.1\src/u8g_pb16h1.c ****   u8g_uint_t dx = 0;
 457              		.loc 1 143 0
 458 000e 0023     		movs	r3, #0
 459 0010 FB73     		strb	r3, [r7, #15]
 144:u8glib_arm_v1.18.1\src/u8g_pb16h1.c ****   u8g_uint_t dy = 0;
 460              		.loc 1 144 0
 461 0012 0023     		movs	r3, #0
 462 0014 BB73     		strb	r3, [r7, #14]
 145:u8glib_arm_v1.18.1\src/u8g_pb16h1.c ****   
 146:u8glib_arm_v1.18.1\src/u8g_pb16h1.c ****   switch( arg_pixel->dir )
 463              		.loc 1 146 0
 464 0016 3B68     		ldr	r3, [r7]
 465 0018 DB78     		ldrb	r3, [r3, #3]	@ zero_extendqisi2
 466 001a 032B     		cmp	r3, #3
 467 001c 1AD8     		bhi	.L23
 468 001e 01A2     		adr	r2, .L25
 469 0020 52F823F0 		ldr	pc, [r2, r3, lsl #2]
 470              		.p2align 2
 471              	.L25:
 472 0024 35000000 		.word	.L24+1
 473 0028 3D000000 		.word	.L26+1
 474 002c 45000000 		.word	.L27+1
 475 0030 4D000000 		.word	.L28+1
 476              		.p2align 1
 477              	.L24:
 147:u8glib_arm_v1.18.1\src/u8g_pb16h1.c ****   {
 148:u8glib_arm_v1.18.1\src/u8g_pb16h1.c ****     case 0: dx++; break;
 478              		.loc 1 148 0
 479 0034 FB7B     		ldrb	r3, [r7, #15]	@ zero_extendqisi2
ARM GAS  C:\Users\KJA\AppData\Local\Temp\ccLpGk3h.s 			page 12


 480 0036 0133     		adds	r3, r3, #1
 481 0038 FB73     		strb	r3, [r7, #15]
 482 003a 0BE0     		b	.L23
 483              	.L26:
 149:u8glib_arm_v1.18.1\src/u8g_pb16h1.c ****     case 1: dy++; break;
 484              		.loc 1 149 0
 485 003c BB7B     		ldrb	r3, [r7, #14]	@ zero_extendqisi2
 486 003e 0133     		adds	r3, r3, #1
 487 0040 BB73     		strb	r3, [r7, #14]
 488 0042 07E0     		b	.L23
 489              	.L27:
 150:u8glib_arm_v1.18.1\src/u8g_pb16h1.c ****     case 2: dx--; break;
 490              		.loc 1 150 0
 491 0044 FB7B     		ldrb	r3, [r7, #15]	@ zero_extendqisi2
 492 0046 013B     		subs	r3, r3, #1
 493 0048 FB73     		strb	r3, [r7, #15]
 494 004a 03E0     		b	.L23
 495              	.L28:
 151:u8glib_arm_v1.18.1\src/u8g_pb16h1.c ****     case 3: dy--; break;
 496              		.loc 1 151 0
 497 004c BB7B     		ldrb	r3, [r7, #14]	@ zero_extendqisi2
 498 004e 013B     		subs	r3, r3, #1
 499 0050 BB73     		strb	r3, [r7, #14]
 500 0052 00BF     		nop
 501              	.L23:
 152:u8glib_arm_v1.18.1\src/u8g_pb16h1.c ****   }
 153:u8glib_arm_v1.18.1\src/u8g_pb16h1.c ****   
 154:u8glib_arm_v1.18.1\src/u8g_pb16h1.c ****   do
 155:u8glib_arm_v1.18.1\src/u8g_pb16h1.c ****   {
 156:u8glib_arm_v1.18.1\src/u8g_pb16h1.c ****     if ( pixel & 128 )
 502              		.loc 1 156 0
 503 0054 E3B2     		uxtb	r3, r4
 504 0056 5BB2     		sxtb	r3, r3
 505 0058 002B     		cmp	r3, #0
 506 005a 03DA     		bge	.L29
 157:u8glib_arm_v1.18.1\src/u8g_pb16h1.c ****       u8g_pb16h1_SetPixel(b, arg_pixel);
 507              		.loc 1 157 0
 508 005c 7868     		ldr	r0, [r7, #4]
 509 005e 3968     		ldr	r1, [r7]
 510 0060 FFF7FEFF 		bl	u8g_pb16h1_SetPixel
 511              	.L29:
 158:u8glib_arm_v1.18.1\src/u8g_pb16h1.c ****     arg_pixel->x += dx;
 512              		.loc 1 158 0
 513 0064 3B68     		ldr	r3, [r7]
 514 0066 1A78     		ldrb	r2, [r3]	@ zero_extendqisi2
 515 0068 FB7B     		ldrb	r3, [r7, #15]
 516 006a 1344     		add	r3, r3, r2
 517 006c DAB2     		uxtb	r2, r3
 518 006e 3B68     		ldr	r3, [r7]
 519 0070 1A70     		strb	r2, [r3]
 159:u8glib_arm_v1.18.1\src/u8g_pb16h1.c ****     arg_pixel->y += dy;
 520              		.loc 1 159 0
 521 0072 3B68     		ldr	r3, [r7]
 522 0074 5A78     		ldrb	r2, [r3, #1]	@ zero_extendqisi2
 523 0076 BB7B     		ldrb	r3, [r7, #14]
 524 0078 1344     		add	r3, r3, r2
 525 007a DAB2     		uxtb	r2, r3
ARM GAS  C:\Users\KJA\AppData\Local\Temp\ccLpGk3h.s 			page 13


 526 007c 3B68     		ldr	r3, [r7]
 527 007e 5A70     		strb	r2, [r3, #1]
 160:u8glib_arm_v1.18.1\src/u8g_pb16h1.c ****     pixel <<= 1;
 528              		.loc 1 160 0
 529 0080 6300     		lsls	r3, r4, #1
 530 0082 DCB2     		uxtb	r4, r3
 161:u8glib_arm_v1.18.1\src/u8g_pb16h1.c ****   } while( pixel != 0  );  
 531              		.loc 1 161 0
 532 0084 002C     		cmp	r4, #0
 533 0086 E5D1     		bne	.L23
 162:u8glib_arm_v1.18.1\src/u8g_pb16h1.c **** }
 534              		.loc 1 162 0
 535 0088 1437     		adds	r7, r7, #20
 536              		.cfi_def_cfa_offset 12
 537 008a BD46     		mov	sp, r7
 538              		.cfi_def_cfa_register 13
 539              		@ sp needed
 540 008c 90BD     		pop	{r4, r7, pc}
 541              		.cfi_endproc
 542              	.LFE5:
 543              		.size	u8g_pb16h1_Set8PixelOpt2, .-u8g_pb16h1_Set8PixelOpt2
 544 008e 00BF     		.section	.text.u8g_dev_pb16h1_base_fn,"ax",%progbits
 545              		.align	2
 546              		.global	u8g_dev_pb16h1_base_fn
 547              		.thumb
 548              		.thumb_func
 549              		.type	u8g_dev_pb16h1_base_fn, %function
 550              	u8g_dev_pb16h1_base_fn:
 551              	.LFB6:
 163:u8glib_arm_v1.18.1\src/u8g_pb16h1.c **** 
 164:u8glib_arm_v1.18.1\src/u8g_pb16h1.c **** 
 165:u8glib_arm_v1.18.1\src/u8g_pb16h1.c **** uint8_t u8g_dev_pb16h1_base_fn(u8g_t *u8g, u8g_dev_t *dev, uint8_t msg, void *arg)
 166:u8glib_arm_v1.18.1\src/u8g_pb16h1.c **** {
 552              		.loc 1 166 0
 553              		.cfi_startproc
 554              		@ args = 0, pretend = 0, frame = 24
 555              		@ frame_needed = 1, uses_anonymous_args = 0
 556 0000 80B5     		push	{r7, lr}
 557              		.cfi_def_cfa_offset 8
 558              		.cfi_offset 7, -8
 559              		.cfi_offset 14, -4
 560 0002 86B0     		sub	sp, sp, #24
 561              		.cfi_def_cfa_offset 32
 562 0004 00AF     		add	r7, sp, #0
 563              		.cfi_def_cfa_register 7
 564 0006 F860     		str	r0, [r7, #12]
 565 0008 B960     		str	r1, [r7, #8]
 566 000a 3B60     		str	r3, [r7]
 567 000c 1346     		mov	r3, r2
 568 000e FB71     		strb	r3, [r7, #7]
 167:u8glib_arm_v1.18.1\src/u8g_pb16h1.c ****   u8g_pb_t *pb = (u8g_pb_t *)(dev->dev_mem);
 569              		.loc 1 167 0
 570 0010 BB68     		ldr	r3, [r7, #8]
 571 0012 5B68     		ldr	r3, [r3, #4]
 572 0014 7B61     		str	r3, [r7, #20]
 168:u8glib_arm_v1.18.1\src/u8g_pb16h1.c ****   switch(msg)
 573              		.loc 1 168 0
ARM GAS  C:\Users\KJA\AppData\Local\Temp\ccLpGk3h.s 			page 14


 574 0016 FB79     		ldrb	r3, [r7, #7]	@ zero_extendqisi2
 575 0018 0A3B     		subs	r3, r3, #10
 576 001a 3E2B     		cmp	r3, #62
 577 001c 00F2BA80 		bhi	.L31
 578 0020 01A2     		adr	r2, .L33
 579 0022 52F823F0 		ldr	pc, [r2, r3, lsl #2]
 580 0026 00BF     		.p2align 2
 581              	.L33:
 582 0028 95010000 		.word	.L31+1
 583 002c 95010000 		.word	.L31+1
 584 0030 95010000 		.word	.L31+1
 585 0034 95010000 		.word	.L31+1
 586 0038 95010000 		.word	.L31+1
 587 003c 95010000 		.word	.L31+1
 588 0040 95010000 		.word	.L31+1
 589 0044 95010000 		.word	.L31+1
 590 0048 95010000 		.word	.L31+1
 591 004c 95010000 		.word	.L31+1
 592 0050 49010000 		.word	.L35+1
 593 0054 59010000 		.word	.L36+1
 594 0058 95010000 		.word	.L31+1
 595 005c 73010000 		.word	.L37+1
 596 0060 95010000 		.word	.L31+1
 597 0064 95010000 		.word	.L31+1
 598 0068 95010000 		.word	.L31+1
 599 006c 95010000 		.word	.L31+1
 600 0070 95010000 		.word	.L31+1
 601 0074 95010000 		.word	.L31+1
 602 0078 95010000 		.word	.L31+1
 603 007c 95010000 		.word	.L31+1
 604 0080 95010000 		.word	.L31+1
 605 0084 95010000 		.word	.L31+1
 606 0088 95010000 		.word	.L31+1
 607 008c 95010000 		.word	.L31+1
 608 0090 95010000 		.word	.L31+1
 609 0094 95010000 		.word	.L31+1
 610 0098 95010000 		.word	.L31+1
 611 009c 95010000 		.word	.L31+1
 612 00a0 95010000 		.word	.L31+1
 613 00a4 95010000 		.word	.L31+1
 614 00a8 95010000 		.word	.L31+1
 615 00ac 95010000 		.word	.L31+1
 616 00b0 95010000 		.word	.L31+1
 617 00b4 95010000 		.word	.L31+1
 618 00b8 95010000 		.word	.L31+1
 619 00bc 95010000 		.word	.L31+1
 620 00c0 95010000 		.word	.L31+1
 621 00c4 95010000 		.word	.L31+1
 622 00c8 3F010000 		.word	.L38+1
 623 00cc 95010000 		.word	.L31+1
 624 00d0 95010000 		.word	.L31+1
 625 00d4 95010000 		.word	.L31+1
 626 00d8 95010000 		.word	.L31+1
 627 00dc 95010000 		.word	.L31+1
 628 00e0 95010000 		.word	.L31+1
 629 00e4 95010000 		.word	.L31+1
 630 00e8 95010000 		.word	.L31+1
ARM GAS  C:\Users\KJA\AppData\Local\Temp\ccLpGk3h.s 			page 15


 631 00ec 25010000 		.word	.L39+1
 632 00f0 95010000 		.word	.L31+1
 633 00f4 95010000 		.word	.L31+1
 634 00f8 95010000 		.word	.L31+1
 635 00fc 95010000 		.word	.L31+1
 636 0100 95010000 		.word	.L31+1
 637 0104 95010000 		.word	.L31+1
 638 0108 95010000 		.word	.L31+1
 639 010c 95010000 		.word	.L31+1
 640 0110 95010000 		.word	.L31+1
 641 0114 95010000 		.word	.L31+1
 642 0118 7D010000 		.word	.L42+1
 643 011c 87010000 		.word	.L43+1
 644 0120 91010000 		.word	.L44+1
 645              		.p2align 1
 646              	.L39:
 169:u8glib_arm_v1.18.1\src/u8g_pb16h1.c ****   {
 170:u8glib_arm_v1.18.1\src/u8g_pb16h1.c ****     case U8G_DEV_MSG_SET_8PIXEL:
 171:u8glib_arm_v1.18.1\src/u8g_pb16h1.c ****       if ( u8g_pb_Is8PixelVisible(pb, (u8g_dev_arg_pixel_t *)arg) )
 647              		.loc 1 171 0
 648 0124 7869     		ldr	r0, [r7, #20]
 649 0126 3968     		ldr	r1, [r7]
 650 0128 FFF7FEFF 		bl	u8g_pb_Is8PixelVisible
 651 012c 0346     		mov	r3, r0
 652 012e 002B     		cmp	r3, #0
 653 0130 04D0     		beq	.L45
 172:u8glib_arm_v1.18.1\src/u8g_pb16h1.c ****         u8g_pb16h1_Set8PixelOpt2(pb, (u8g_dev_arg_pixel_t *)arg);
 654              		.loc 1 172 0
 655 0132 7869     		ldr	r0, [r7, #20]
 656 0134 3968     		ldr	r1, [r7]
 657 0136 FFF7FEFF 		bl	u8g_pb16h1_Set8PixelOpt2
 173:u8glib_arm_v1.18.1\src/u8g_pb16h1.c ****       break;
 658              		.loc 1 173 0
 659 013a 2BE0     		b	.L31
 660              	.L45:
 661 013c 2AE0     		b	.L31
 662              	.L38:
 174:u8glib_arm_v1.18.1\src/u8g_pb16h1.c ****     case U8G_DEV_MSG_SET_PIXEL:
 175:u8glib_arm_v1.18.1\src/u8g_pb16h1.c ****       u8g_pb16h1_SetPixel(pb, (u8g_dev_arg_pixel_t *)arg);
 663              		.loc 1 175 0
 664 013e 7869     		ldr	r0, [r7, #20]
 665 0140 3968     		ldr	r1, [r7]
 666 0142 FFF7FEFF 		bl	u8g_pb16h1_SetPixel
 176:u8glib_arm_v1.18.1\src/u8g_pb16h1.c ****       break;
 667              		.loc 1 176 0
 668 0146 25E0     		b	.L31
 669              	.L35:
 177:u8glib_arm_v1.18.1\src/u8g_pb16h1.c ****     case U8G_DEV_MSG_INIT:
 178:u8glib_arm_v1.18.1\src/u8g_pb16h1.c ****       break;
 179:u8glib_arm_v1.18.1\src/u8g_pb16h1.c ****     case U8G_DEV_MSG_STOP:
 180:u8glib_arm_v1.18.1\src/u8g_pb16h1.c ****       break;
 181:u8glib_arm_v1.18.1\src/u8g_pb16h1.c ****     case U8G_DEV_MSG_PAGE_FIRST:
 182:u8glib_arm_v1.18.1\src/u8g_pb16h1.c ****       u8g_pb16h1_Clear(pb);
 670              		.loc 1 182 0
 671 0148 7869     		ldr	r0, [r7, #20]
 672 014a FFF7FEFF 		bl	u8g_pb16h1_Clear
 183:u8glib_arm_v1.18.1\src/u8g_pb16h1.c ****       u8g_page_First(&(pb->p));
ARM GAS  C:\Users\KJA\AppData\Local\Temp\ccLpGk3h.s 			page 16


 673              		.loc 1 183 0
 674 014e 7B69     		ldr	r3, [r7, #20]
 675 0150 1846     		mov	r0, r3
 676 0152 FFF7FEFF 		bl	u8g_page_First
 184:u8glib_arm_v1.18.1\src/u8g_pb16h1.c ****       break;
 677              		.loc 1 184 0
 678 0156 1DE0     		b	.L31
 679              	.L36:
 185:u8glib_arm_v1.18.1\src/u8g_pb16h1.c ****     case U8G_DEV_MSG_PAGE_NEXT:
 186:u8glib_arm_v1.18.1\src/u8g_pb16h1.c ****       if ( u8g_page_Next(&(pb->p)) == 0 )
 680              		.loc 1 186 0
 681 0158 7B69     		ldr	r3, [r7, #20]
 682 015a 1846     		mov	r0, r3
 683 015c FFF7FEFF 		bl	u8g_page_Next
 684 0160 0346     		mov	r3, r0
 685 0162 002B     		cmp	r3, #0
 686 0164 01D1     		bne	.L46
 187:u8glib_arm_v1.18.1\src/u8g_pb16h1.c ****         return 0;
 687              		.loc 1 187 0
 688 0166 0023     		movs	r3, #0
 689 0168 15E0     		b	.L47
 690              	.L46:
 188:u8glib_arm_v1.18.1\src/u8g_pb16h1.c ****       u8g_pb16h1_Clear(pb);
 691              		.loc 1 188 0
 692 016a 7869     		ldr	r0, [r7, #20]
 693 016c FFF7FEFF 		bl	u8g_pb16h1_Clear
 189:u8glib_arm_v1.18.1\src/u8g_pb16h1.c ****       break;
 694              		.loc 1 189 0
 695 0170 10E0     		b	.L31
 696              	.L37:
 190:u8glib_arm_v1.18.1\src/u8g_pb16h1.c **** #ifdef U8G_DEV_MSG_IS_BBX_INTERSECTION
 191:u8glib_arm_v1.18.1\src/u8g_pb16h1.c ****     case U8G_DEV_MSG_IS_BBX_INTERSECTION:
 192:u8glib_arm_v1.18.1\src/u8g_pb16h1.c ****       return u8g_pb_IsIntersection(pb, (u8g_dev_arg_bbx_t *)arg);
 193:u8glib_arm_v1.18.1\src/u8g_pb16h1.c **** #endif
 194:u8glib_arm_v1.18.1\src/u8g_pb16h1.c ****     case U8G_DEV_MSG_GET_PAGE_BOX:
 195:u8glib_arm_v1.18.1\src/u8g_pb16h1.c ****       u8g_pb_GetPageBox(pb, (u8g_box_t *)arg);
 697              		.loc 1 195 0
 698 0172 7869     		ldr	r0, [r7, #20]
 699 0174 3968     		ldr	r1, [r7]
 700 0176 FFF7FEFF 		bl	u8g_pb_GetPageBox
 196:u8glib_arm_v1.18.1\src/u8g_pb16h1.c ****       break;
 701              		.loc 1 196 0
 702 017a 0BE0     		b	.L31
 703              	.L42:
 197:u8glib_arm_v1.18.1\src/u8g_pb16h1.c ****     case U8G_DEV_MSG_GET_WIDTH:
 198:u8glib_arm_v1.18.1\src/u8g_pb16h1.c ****       *((u8g_uint_t *)arg) = pb->width;
 704              		.loc 1 198 0
 705 017c 7B69     		ldr	r3, [r7, #20]
 706 017e 5A79     		ldrb	r2, [r3, #5]	@ zero_extendqisi2
 707 0180 3B68     		ldr	r3, [r7]
 708 0182 1A70     		strb	r2, [r3]
 199:u8glib_arm_v1.18.1\src/u8g_pb16h1.c ****       break;
 709              		.loc 1 199 0
 710 0184 06E0     		b	.L31
 711              	.L43:
 200:u8glib_arm_v1.18.1\src/u8g_pb16h1.c ****     case U8G_DEV_MSG_GET_HEIGHT:
 201:u8glib_arm_v1.18.1\src/u8g_pb16h1.c ****       *((u8g_uint_t *)arg) = pb->p.total_height;
ARM GAS  C:\Users\KJA\AppData\Local\Temp\ccLpGk3h.s 			page 17


 712              		.loc 1 201 0
 713 0186 7B69     		ldr	r3, [r7, #20]
 714 0188 5A78     		ldrb	r2, [r3, #1]	@ zero_extendqisi2
 715 018a 3B68     		ldr	r3, [r7]
 716 018c 1A70     		strb	r2, [r3]
 202:u8glib_arm_v1.18.1\src/u8g_pb16h1.c ****       break;
 717              		.loc 1 202 0
 718 018e 01E0     		b	.L31
 719              	.L44:
 203:u8glib_arm_v1.18.1\src/u8g_pb16h1.c ****     case U8G_DEV_MSG_SET_COLOR_ENTRY:
 204:u8glib_arm_v1.18.1\src/u8g_pb16h1.c ****       break;
 205:u8glib_arm_v1.18.1\src/u8g_pb16h1.c ****     case U8G_DEV_MSG_SET_XY_CB:
 206:u8glib_arm_v1.18.1\src/u8g_pb16h1.c ****       break;
 207:u8glib_arm_v1.18.1\src/u8g_pb16h1.c ****     case U8G_DEV_MSG_GET_MODE:
 208:u8glib_arm_v1.18.1\src/u8g_pb16h1.c ****       return U8G_MODE_BW;
 720              		.loc 1 208 0
 721 0190 0123     		movs	r3, #1
 722 0192 00E0     		b	.L47
 723              	.L31:
 209:u8glib_arm_v1.18.1\src/u8g_pb16h1.c ****   }
 210:u8glib_arm_v1.18.1\src/u8g_pb16h1.c ****   return 1;
 724              		.loc 1 210 0
 725 0194 0123     		movs	r3, #1
 726              	.L47:
 211:u8glib_arm_v1.18.1\src/u8g_pb16h1.c **** }
 727              		.loc 1 211 0
 728 0196 1846     		mov	r0, r3
 729 0198 1837     		adds	r7, r7, #24
 730              		.cfi_def_cfa_offset 8
 731 019a BD46     		mov	sp, r7
 732              		.cfi_def_cfa_register 13
 733              		@ sp needed
 734 019c 80BD     		pop	{r7, pc}
 735              		.cfi_endproc
 736              	.LFE6:
 737              		.size	u8g_dev_pb16h1_base_fn, .-u8g_dev_pb16h1_base_fn
 738 019e 00BF     		.text
 739              	.Letext0:
 740              		.file 2 "c:\\program files (x86)\\cypress\\psoc creator\\4.0\\psoc creator\\import\\gnu\\arm\\4.9.
 741              		.file 3 "c:\\program files (x86)\\cypress\\psoc creator\\4.0\\psoc creator\\import\\gnu\\arm\\4.9.
 742              		.file 4 "u8glib_arm_v1.18.1\\src\\u8g.h"