ARM GAS  C:\Users\KJA\AppData\Local\Temp\ccdtkjLj.s 			page 1


   1              		.syntax unified
   2              		.cpu cortex-m3
   3              		.fpu softvfp
   4              		.eabi_attribute 20, 1
   5              		.eabi_attribute 21, 1
   6              		.eabi_attribute 23, 3
   7              		.eabi_attribute 24, 1
   8              		.eabi_attribute 25, 1
   9              		.eabi_attribute 26, 1
  10              		.eabi_attribute 30, 6
  11              		.eabi_attribute 34, 1
  12              		.eabi_attribute 18, 4
  13              		.thumb
  14              		.file	"u8g_u8toa.c"
  15              		.text
  16              	.Ltext0:
  17              		.cfi_sections	.debug_frame
  18              		.section	.rodata
  19              		.align	2
  20              		.type	u8g_u8toa_tab, %object
  21              		.size	u8g_u8toa_tab, 3
  22              	u8g_u8toa_tab:
  23 0000 64       		.byte	100
  24 0001 0A       		.byte	10
  25 0002 01       		.byte	1
  26 0003 00       		.section	.text.u8g_u8toap,"ax",%progbits
  27              		.align	2
  28              		.global	u8g_u8toap
  29              		.thumb
  30              		.thumb_func
  31              		.type	u8g_u8toap, %function
  32              	u8g_u8toap:
  33              	.LFB0:
  34              		.file 1 "u8glib_arm_v1.18.1\\src\\u8g_u8toa.c"
   1:u8glib_arm_v1.18.1\src/u8g_u8toa.c **** /*
   2:u8glib_arm_v1.18.1\src/u8g_u8toa.c **** 
   3:u8glib_arm_v1.18.1\src/u8g_u8toa.c ****   u8g_u8toa.c
   4:u8glib_arm_v1.18.1\src/u8g_u8toa.c **** 
   5:u8glib_arm_v1.18.1\src/u8g_u8toa.c **** 
   6:u8glib_arm_v1.18.1\src/u8g_u8toa.c ****   Universal 8bit Graphics Library
   7:u8glib_arm_v1.18.1\src/u8g_u8toa.c ****   
   8:u8glib_arm_v1.18.1\src/u8g_u8toa.c ****   Copyright (c) 2011, olikraus@gmail.com
   9:u8glib_arm_v1.18.1\src/u8g_u8toa.c ****   All rights reserved.
  10:u8glib_arm_v1.18.1\src/u8g_u8toa.c **** 
  11:u8glib_arm_v1.18.1\src/u8g_u8toa.c ****   Redistribution and use in source and binary forms, with or without modification, 
  12:u8glib_arm_v1.18.1\src/u8g_u8toa.c ****   are permitted provided that the following conditions are met:
  13:u8glib_arm_v1.18.1\src/u8g_u8toa.c **** 
  14:u8glib_arm_v1.18.1\src/u8g_u8toa.c ****   * Redistributions of source code must retain the above copyright notice, this list 
  15:u8glib_arm_v1.18.1\src/u8g_u8toa.c ****     of conditions and the following disclaimer.
  16:u8glib_arm_v1.18.1\src/u8g_u8toa.c ****     
  17:u8glib_arm_v1.18.1\src/u8g_u8toa.c ****   * Redistributions in binary form must reproduce the above copyright notice, this 
  18:u8glib_arm_v1.18.1\src/u8g_u8toa.c ****     list of conditions and the following disclaimer in the documentation and/or other 
  19:u8glib_arm_v1.18.1\src/u8g_u8toa.c ****     materials provided with the distribution.
  20:u8glib_arm_v1.18.1\src/u8g_u8toa.c **** 
  21:u8glib_arm_v1.18.1\src/u8g_u8toa.c ****   THIS SOFTWARE IS PROVIDED BY THE COPYRIGHT HOLDERS AND 
  22:u8glib_arm_v1.18.1\src/u8g_u8toa.c ****   CONTRIBUTORS "AS IS" AND ANY EXPRESS OR IMPLIED WARRANTIES, 
  23:u8glib_arm_v1.18.1\src/u8g_u8toa.c ****   INCLUDING, BUT NOT LIMITED TO, THE IMPLIED WARRANTIES OF 
ARM GAS  C:\Users\KJA\AppData\Local\Temp\ccdtkjLj.s 			page 2


  24:u8glib_arm_v1.18.1\src/u8g_u8toa.c ****   MERCHANTABILITY AND FITNESS FOR A PARTICULAR PURPOSE ARE 
  25:u8glib_arm_v1.18.1\src/u8g_u8toa.c ****   DISCLAIMED. IN NO EVENT SHALL THE COPYRIGHT HOLDER OR 
  26:u8glib_arm_v1.18.1\src/u8g_u8toa.c ****   CONTRIBUTORS BE LIABLE FOR ANY DIRECT, INDIRECT, INCIDENTAL, 
  27:u8glib_arm_v1.18.1\src/u8g_u8toa.c ****   SPECIAL, EXEMPLARY, OR CONSEQUENTIAL DAMAGES (INCLUDING, BUT 
  28:u8glib_arm_v1.18.1\src/u8g_u8toa.c ****   NOT LIMITED TO, PROCUREMENT OF SUBSTITUTE GOODS OR SERVICES; 
  29:u8glib_arm_v1.18.1\src/u8g_u8toa.c ****   LOSS OF USE, DATA, OR PROFITS; OR BUSINESS INTERRUPTION) HOWEVER 
  30:u8glib_arm_v1.18.1\src/u8g_u8toa.c ****   CAUSED AND ON ANY THEORY OF LIABILITY, WHETHER IN CONTRACT, 
  31:u8glib_arm_v1.18.1\src/u8g_u8toa.c ****   STRICT LIABILITY, OR TORT (INCLUDING NEGLIGENCE OR OTHERWISE) 
  32:u8glib_arm_v1.18.1\src/u8g_u8toa.c ****   ARISING IN ANY WAY OUT OF THE USE OF THIS SOFTWARE, EVEN IF 
  33:u8glib_arm_v1.18.1\src/u8g_u8toa.c ****   ADVISED OF THE POSSIBILITY OF SUCH DAMAGE.  
  34:u8glib_arm_v1.18.1\src/u8g_u8toa.c ****   
  35:u8glib_arm_v1.18.1\src/u8g_u8toa.c **** */
  36:u8glib_arm_v1.18.1\src/u8g_u8toa.c **** 
  37:u8glib_arm_v1.18.1\src/u8g_u8toa.c **** 
  38:u8glib_arm_v1.18.1\src/u8g_u8toa.c **** #include "u8g.h"
  39:u8glib_arm_v1.18.1\src/u8g_u8toa.c **** 
  40:u8glib_arm_v1.18.1\src/u8g_u8toa.c **** static const unsigned char u8g_u8toa_tab[3]  = { 100, 10, 1 } ;
  41:u8glib_arm_v1.18.1\src/u8g_u8toa.c **** const char *u8g_u8toap(char * dest, uint8_t v)
  42:u8glib_arm_v1.18.1\src/u8g_u8toa.c **** {
  35              		.loc 1 42 0
  36              		.cfi_startproc
  37              		@ args = 0, pretend = 0, frame = 16
  38              		@ frame_needed = 1, uses_anonymous_args = 0
  39              		@ link register save eliminated.
  40 0000 80B4     		push	{r7}
  41              		.cfi_def_cfa_offset 4
  42              		.cfi_offset 7, -4
  43 0002 85B0     		sub	sp, sp, #20
  44              		.cfi_def_cfa_offset 24
  45 0004 00AF     		add	r7, sp, #0
  46              		.cfi_def_cfa_register 7
  47 0006 7860     		str	r0, [r7, #4]
  48 0008 0B46     		mov	r3, r1
  49 000a FB70     		strb	r3, [r7, #3]
  43:u8glib_arm_v1.18.1\src/u8g_u8toa.c ****   uint8_t pos;
  44:u8glib_arm_v1.18.1\src/u8g_u8toa.c ****   uint8_t d;
  45:u8glib_arm_v1.18.1\src/u8g_u8toa.c ****   uint8_t c;
  46:u8glib_arm_v1.18.1\src/u8g_u8toa.c ****   for( pos = 0; pos < 3; pos++ )
  50              		.loc 1 46 0
  51 000c 0023     		movs	r3, #0
  52 000e FB73     		strb	r3, [r7, #15]
  53 0010 1AE0     		b	.L2
  54              	.L5:
  47:u8glib_arm_v1.18.1\src/u8g_u8toa.c ****   {
  48:u8glib_arm_v1.18.1\src/u8g_u8toa.c ****       d = '0';
  55              		.loc 1 48 0
  56 0012 3023     		movs	r3, #48
  57 0014 BB73     		strb	r3, [r7, #14]
  49:u8glib_arm_v1.18.1\src/u8g_u8toa.c ****       c = *(u8g_u8toa_tab+pos);
  58              		.loc 1 49 0
  59 0016 FB7B     		ldrb	r3, [r7, #15]	@ zero_extendqisi2
  60 0018 124A     		ldr	r2, .L7
  61 001a 1344     		add	r3, r3, r2
  62 001c 1B78     		ldrb	r3, [r3]
  63 001e 7B73     		strb	r3, [r7, #13]
  50:u8glib_arm_v1.18.1\src/u8g_u8toa.c ****       while( v >= c )
  64              		.loc 1 50 0
ARM GAS  C:\Users\KJA\AppData\Local\Temp\ccdtkjLj.s 			page 3


  65 0020 06E0     		b	.L3
  66              	.L4:
  51:u8glib_arm_v1.18.1\src/u8g_u8toa.c ****       {
  52:u8glib_arm_v1.18.1\src/u8g_u8toa.c **** 	v -= c;
  67              		.loc 1 52 0
  68 0022 FA78     		ldrb	r2, [r7, #3]
  69 0024 7B7B     		ldrb	r3, [r7, #13]
  70 0026 D31A     		subs	r3, r2, r3
  71 0028 FB70     		strb	r3, [r7, #3]
  53:u8glib_arm_v1.18.1\src/u8g_u8toa.c **** 	d++;
  72              		.loc 1 53 0
  73 002a BB7B     		ldrb	r3, [r7, #14]	@ zero_extendqisi2
  74 002c 0133     		adds	r3, r3, #1
  75 002e BB73     		strb	r3, [r7, #14]
  76              	.L3:
  50:u8glib_arm_v1.18.1\src/u8g_u8toa.c ****       while( v >= c )
  77              		.loc 1 50 0
  78 0030 FA78     		ldrb	r2, [r7, #3]	@ zero_extendqisi2
  79 0032 7B7B     		ldrb	r3, [r7, #13]	@ zero_extendqisi2
  80 0034 9A42     		cmp	r2, r3
  81 0036 F4D2     		bcs	.L4
  54:u8glib_arm_v1.18.1\src/u8g_u8toa.c ****       }
  55:u8glib_arm_v1.18.1\src/u8g_u8toa.c ****       dest[pos] = d;
  82              		.loc 1 55 0 discriminator 2
  83 0038 FB7B     		ldrb	r3, [r7, #15]	@ zero_extendqisi2
  84 003a 7A68     		ldr	r2, [r7, #4]
  85 003c 1344     		add	r3, r3, r2
  86 003e BA7B     		ldrb	r2, [r7, #14]
  87 0040 1A70     		strb	r2, [r3]
  46:u8glib_arm_v1.18.1\src/u8g_u8toa.c ****   {
  88              		.loc 1 46 0 discriminator 2
  89 0042 FB7B     		ldrb	r3, [r7, #15]	@ zero_extendqisi2
  90 0044 0133     		adds	r3, r3, #1
  91 0046 FB73     		strb	r3, [r7, #15]
  92              	.L2:
  46:u8glib_arm_v1.18.1\src/u8g_u8toa.c ****   {
  93              		.loc 1 46 0 is_stmt 0 discriminator 1
  94 0048 FB7B     		ldrb	r3, [r7, #15]	@ zero_extendqisi2
  95 004a 022B     		cmp	r3, #2
  96 004c E1D9     		bls	.L5
  56:u8glib_arm_v1.18.1\src/u8g_u8toa.c ****   }  
  57:u8glib_arm_v1.18.1\src/u8g_u8toa.c ****   dest[3] = '\0';
  97              		.loc 1 57 0 is_stmt 1
  98 004e 7B68     		ldr	r3, [r7, #4]
  99 0050 0333     		adds	r3, r3, #3
 100 0052 0022     		movs	r2, #0
 101 0054 1A70     		strb	r2, [r3]
  58:u8glib_arm_v1.18.1\src/u8g_u8toa.c ****   return dest;
 102              		.loc 1 58 0
 103 0056 7B68     		ldr	r3, [r7, #4]
  59:u8glib_arm_v1.18.1\src/u8g_u8toa.c **** }
 104              		.loc 1 59 0
 105 0058 1846     		mov	r0, r3
 106 005a 1437     		adds	r7, r7, #20
 107              		.cfi_def_cfa_offset 4
 108 005c BD46     		mov	sp, r7
 109              		.cfi_def_cfa_register 13
ARM GAS  C:\Users\KJA\AppData\Local\Temp\ccdtkjLj.s 			page 4


 110              		@ sp needed
 111 005e 5DF8047B 		ldr	r7, [sp], #4
 112              		.cfi_restore 7
 113              		.cfi_def_cfa_offset 0
 114 0062 7047     		bx	lr
 115              	.L8:
 116              		.align	2
 117              	.L7:
 118 0064 00000000 		.word	u8g_u8toa_tab
 119              		.cfi_endproc
 120              	.LFE0:
 121              		.size	u8g_u8toap, .-u8g_u8toap
 122              		.section	.text.u8g_u8toa,"ax",%progbits
 123              		.align	2
 124              		.global	u8g_u8toa
 125              		.thumb
 126              		.thumb_func
 127              		.type	u8g_u8toa, %function
 128              	u8g_u8toa:
 129              	.LFB1:
  60:u8glib_arm_v1.18.1\src/u8g_u8toa.c **** 
  61:u8glib_arm_v1.18.1\src/u8g_u8toa.c **** /* v = value, d = number of digits */
  62:u8glib_arm_v1.18.1\src/u8g_u8toa.c **** const char *u8g_u8toa(uint8_t v, uint8_t d)
  63:u8glib_arm_v1.18.1\src/u8g_u8toa.c **** {
 130              		.loc 1 63 0
 131              		.cfi_startproc
 132              		@ args = 0, pretend = 0, frame = 8
 133              		@ frame_needed = 1, uses_anonymous_args = 0
 134 0000 80B5     		push	{r7, lr}
 135              		.cfi_def_cfa_offset 8
 136              		.cfi_offset 7, -8
 137              		.cfi_offset 14, -4
 138 0002 82B0     		sub	sp, sp, #8
 139              		.cfi_def_cfa_offset 16
 140 0004 00AF     		add	r7, sp, #0
 141              		.cfi_def_cfa_register 7
 142 0006 0346     		mov	r3, r0
 143 0008 0A46     		mov	r2, r1
 144 000a FB71     		strb	r3, [r7, #7]
 145 000c 1346     		mov	r3, r2
 146 000e BB71     		strb	r3, [r7, #6]
  64:u8glib_arm_v1.18.1\src/u8g_u8toa.c ****   static char buf[4];
  65:u8glib_arm_v1.18.1\src/u8g_u8toa.c ****   d = 3-d;
 147              		.loc 1 65 0
 148 0010 BB79     		ldrb	r3, [r7, #6]
 149 0012 C3F10303 		rsb	r3, r3, #3
 150 0016 BB71     		strb	r3, [r7, #6]
  66:u8glib_arm_v1.18.1\src/u8g_u8toa.c ****   return u8g_u8toap(buf, v) + d;
 151              		.loc 1 66 0
 152 0018 FB79     		ldrb	r3, [r7, #7]	@ zero_extendqisi2
 153 001a 0548     		ldr	r0, .L11
 154 001c 1946     		mov	r1, r3
 155 001e FFF7FEFF 		bl	u8g_u8toap
 156 0022 0246     		mov	r2, r0
 157 0024 BB79     		ldrb	r3, [r7, #6]	@ zero_extendqisi2
 158 0026 1344     		add	r3, r3, r2
  67:u8glib_arm_v1.18.1\src/u8g_u8toa.c **** }
ARM GAS  C:\Users\KJA\AppData\Local\Temp\ccdtkjLj.s 			page 5


 159              		.loc 1 67 0
 160 0028 1846     		mov	r0, r3
 161 002a 0837     		adds	r7, r7, #8
 162              		.cfi_def_cfa_offset 8
 163 002c BD46     		mov	sp, r7
 164              		.cfi_def_cfa_register 13
 165              		@ sp needed
 166 002e 80BD     		pop	{r7, pc}
 167              	.L12:
 168              		.align	2
 169              	.L11:
 170 0030 00000000 		.word	buf.5759
 171              		.cfi_endproc
 172              	.LFE1:
 173              		.size	u8g_u8toa, .-u8g_u8toa
 174              		.bss
 175              		.align	2
 176              	buf.5759:
 177 0000 00000000 		.space	4
 178              		.text
 179              	.Letext0:
 180              		.file 2 "c:\\program files (x86)\\cypress\\psoc creator\\4.0\\psoc creator\\import\\gnu\\arm\\4.9.
 181              		.file 3 "c:\\program files (x86)\\cypress\\psoc creator\\4.0\\psoc creator\\import\\gnu\\arm\\4.9.