ARM GAS  C:\Users\KJA\AppData\Local\Temp\ccevgiJT.s 			page 1


   1              		.syntax unified
   2              		.cpu cortex-m3
   3              		.fpu softvfp
   4              		.eabi_attribute 20, 1
   5              		.eabi_attribute 21, 1
   6              		.eabi_attribute 23, 3
   7              		.eabi_attribute 24, 1
   8              		.eabi_attribute 25, 1
   9              		.eabi_attribute 26, 1
  10              		.eabi_attribute 30, 6
  11              		.eabi_attribute 34, 1
  12              		.eabi_attribute 18, 4
  13              		.thumb
  14              		.file	"u8g_font.c"
  15              		.text
  16              	.Ltext0:
  17              		.cfi_sections	.debug_frame
  18              		.section	.text.u8g_font_get_byte,"ax",%progbits
  19              		.align	2
  20              		.thumb
  21              		.thumb_func
  22              		.type	u8g_font_get_byte, %function
  23              	u8g_font_get_byte:
  24              	.LFB0:
  25              		.file 1 "u8glib_arm_v1.18.1\\src\\u8g_font.c"
   1:u8glib_arm_v1.18.1\src/u8g_font.c **** /*
   2:u8glib_arm_v1.18.1\src/u8g_font.c **** 
   3:u8glib_arm_v1.18.1\src/u8g_font.c ****   u8g_font.c
   4:u8glib_arm_v1.18.1\src/u8g_font.c ****   
   5:u8glib_arm_v1.18.1\src/u8g_font.c ****   U8G Font High Level Interface
   6:u8glib_arm_v1.18.1\src/u8g_font.c **** 
   7:u8glib_arm_v1.18.1\src/u8g_font.c ****   Universal 8bit Graphics Library
   8:u8glib_arm_v1.18.1\src/u8g_font.c ****   
   9:u8glib_arm_v1.18.1\src/u8g_font.c ****   Copyright (c) 2011, olikraus@gmail.com
  10:u8glib_arm_v1.18.1\src/u8g_font.c ****   All rights reserved.
  11:u8glib_arm_v1.18.1\src/u8g_font.c **** 
  12:u8glib_arm_v1.18.1\src/u8g_font.c ****   Redistribution and use in source and binary forms, with or without modification, 
  13:u8glib_arm_v1.18.1\src/u8g_font.c ****   are permitted provided that the following conditions are met:
  14:u8glib_arm_v1.18.1\src/u8g_font.c **** 
  15:u8glib_arm_v1.18.1\src/u8g_font.c ****   * Redistributions of source code must retain the above copyright notice, this list 
  16:u8glib_arm_v1.18.1\src/u8g_font.c ****     of conditions and the following disclaimer.
  17:u8glib_arm_v1.18.1\src/u8g_font.c ****     
  18:u8glib_arm_v1.18.1\src/u8g_font.c ****   * Redistributions in binary form must reproduce the above copyright notice, this 
  19:u8glib_arm_v1.18.1\src/u8g_font.c ****     list of conditions and the following disclaimer in the documentation and/or other 
  20:u8glib_arm_v1.18.1\src/u8g_font.c ****     materials provided with the distribution.
  21:u8glib_arm_v1.18.1\src/u8g_font.c **** 
  22:u8glib_arm_v1.18.1\src/u8g_font.c ****   THIS SOFTWARE IS PROVIDED BY THE COPYRIGHT HOLDERS AND 
  23:u8glib_arm_v1.18.1\src/u8g_font.c ****   CONTRIBUTORS "AS IS" AND ANY EXPRESS OR IMPLIED WARRANTIES, 
  24:u8glib_arm_v1.18.1\src/u8g_font.c ****   INCLUDING, BUT NOT LIMITED TO, THE IMPLIED WARRANTIES OF 
  25:u8glib_arm_v1.18.1\src/u8g_font.c ****   MERCHANTABILITY AND FITNESS FOR A PARTICULAR PURPOSE ARE 
  26:u8glib_arm_v1.18.1\src/u8g_font.c ****   DISCLAIMED. IN NO EVENT SHALL THE COPYRIGHT HOLDER OR 
  27:u8glib_arm_v1.18.1\src/u8g_font.c ****   CONTRIBUTORS BE LIABLE FOR ANY DIRECT, INDIRECT, INCIDENTAL, 
  28:u8glib_arm_v1.18.1\src/u8g_font.c ****   SPECIAL, EXEMPLARY, OR CONSEQUENTIAL DAMAGES (INCLUDING, BUT 
  29:u8glib_arm_v1.18.1\src/u8g_font.c ****   NOT LIMITED TO, PROCUREMENT OF SUBSTITUTE GOODS OR SERVICES; 
  30:u8glib_arm_v1.18.1\src/u8g_font.c ****   LOSS OF USE, DATA, OR PROFITS; OR BUSINESS INTERRUPTION) HOWEVER 
  31:u8glib_arm_v1.18.1\src/u8g_font.c ****   CAUSED AND ON ANY THEORY OF LIABILITY, WHETHER IN CONTRACT, 
  32:u8glib_arm_v1.18.1\src/u8g_font.c ****   STRICT LIABILITY, OR TORT (INCLUDING NEGLIGENCE OR OTHERWISE) 
ARM GAS  C:\Users\KJA\AppData\Local\Temp\ccevgiJT.s 			page 2


  33:u8glib_arm_v1.18.1\src/u8g_font.c ****   ARISING IN ANY WAY OUT OF THE USE OF THIS SOFTWARE, EVEN IF 
  34:u8glib_arm_v1.18.1\src/u8g_font.c ****   ADVISED OF THE POSSIBILITY OF SUCH DAMAGE.  
  35:u8glib_arm_v1.18.1\src/u8g_font.c ****   
  36:u8glib_arm_v1.18.1\src/u8g_font.c **** */
  37:u8glib_arm_v1.18.1\src/u8g_font.c **** 
  38:u8glib_arm_v1.18.1\src/u8g_font.c **** #include "u8g.h"
  39:u8glib_arm_v1.18.1\src/u8g_font.c **** 
  40:u8glib_arm_v1.18.1\src/u8g_font.c **** /* font api */
  41:u8glib_arm_v1.18.1\src/u8g_font.c **** 
  42:u8glib_arm_v1.18.1\src/u8g_font.c **** /* pointer to the start adress of the glyph, points to progmem area */
  43:u8glib_arm_v1.18.1\src/u8g_font.c **** typedef void * u8g_glyph_t;
  44:u8glib_arm_v1.18.1\src/u8g_font.c **** 
  45:u8glib_arm_v1.18.1\src/u8g_font.c **** /* size of the font data structure, there is no struct or class... */
  46:u8glib_arm_v1.18.1\src/u8g_font.c **** #define U8G_FONT_DATA_STRUCT_SIZE 17
  47:u8glib_arm_v1.18.1\src/u8g_font.c **** 
  48:u8glib_arm_v1.18.1\src/u8g_font.c **** /*
  49:u8glib_arm_v1.18.1\src/u8g_font.c ****   ... instead the fields of the font data structure are accessed directly by offset 
  50:u8glib_arm_v1.18.1\src/u8g_font.c ****   font information 
  51:u8glib_arm_v1.18.1\src/u8g_font.c ****   offset
  52:u8glib_arm_v1.18.1\src/u8g_font.c ****   0             font format
  53:u8glib_arm_v1.18.1\src/u8g_font.c ****   1             FONTBOUNDINGBOX width           unsigned
  54:u8glib_arm_v1.18.1\src/u8g_font.c ****   2             FONTBOUNDINGBOX height          unsigned
  55:u8glib_arm_v1.18.1\src/u8g_font.c ****   3             FONTBOUNDINGBOX x-offset         signed
  56:u8glib_arm_v1.18.1\src/u8g_font.c ****   4             FONTBOUNDINGBOX y-offset        signed
  57:u8glib_arm_v1.18.1\src/u8g_font.c ****   5             capital A height                                unsigned
  58:u8glib_arm_v1.18.1\src/u8g_font.c ****   6             start 'A'
  59:u8glib_arm_v1.18.1\src/u8g_font.c ****   8             start 'a'
  60:u8glib_arm_v1.18.1\src/u8g_font.c ****   10            encoding start
  61:u8glib_arm_v1.18.1\src/u8g_font.c ****   11            encoding end
  62:u8glib_arm_v1.18.1\src/u8g_font.c ****   12            descent 'g'                     negative: below baseline
  63:u8glib_arm_v1.18.1\src/u8g_font.c ****   13            font max ascent
  64:u8glib_arm_v1.18.1\src/u8g_font.c ****   14            font min decent             negative: below baseline 
  65:u8glib_arm_v1.18.1\src/u8g_font.c ****   15            font xascent
  66:u8glib_arm_v1.18.1\src/u8g_font.c ****   16            font xdecent             negative: below baseline 
  67:u8glib_arm_v1.18.1\src/u8g_font.c ****   
  68:u8glib_arm_v1.18.1\src/u8g_font.c **** */
  69:u8glib_arm_v1.18.1\src/u8g_font.c **** 
  70:u8glib_arm_v1.18.1\src/u8g_font.c **** /* use case: What is the width and the height of the minimal box into which string s fints? */
  71:u8glib_arm_v1.18.1\src/u8g_font.c **** void u8g_font_GetStrSize(const void *font, const char *s, u8g_uint_t *width, u8g_uint_t *height);
  72:u8glib_arm_v1.18.1\src/u8g_font.c **** void u8g_font_GetStrSizeP(const void *font, const char *s, u8g_uint_t *width, u8g_uint_t *height);
  73:u8glib_arm_v1.18.1\src/u8g_font.c **** 
  74:u8glib_arm_v1.18.1\src/u8g_font.c **** /* use case: lower left edge of a minimal box is known, what is the correct x, y position for the s
  75:u8glib_arm_v1.18.1\src/u8g_font.c **** void u8g_font_AdjustXYToDraw(const void *font, const char *s, u8g_uint_t *x, u8g_uint_t *y);
  76:u8glib_arm_v1.18.1\src/u8g_font.c **** void u8g_font_AdjustXYToDrawP(const void *font, const char *s, u8g_uint_t *x, u8g_uint_t *y);
  77:u8glib_arm_v1.18.1\src/u8g_font.c **** 
  78:u8glib_arm_v1.18.1\src/u8g_font.c **** /* use case: Baseline origin known, return minimal box */
  79:u8glib_arm_v1.18.1\src/u8g_font.c **** void u8g_font_GetStrMinBox(u8g_t *u8g, const void *font, const char *s, u8g_uint_t *x, u8g_uint_t *
  80:u8glib_arm_v1.18.1\src/u8g_font.c **** 
  81:u8glib_arm_v1.18.1\src/u8g_font.c **** /* procedures */
  82:u8glib_arm_v1.18.1\src/u8g_font.c **** 
  83:u8glib_arm_v1.18.1\src/u8g_font.c **** /*========================================================================*/
  84:u8glib_arm_v1.18.1\src/u8g_font.c **** /* low level byte and word access */
  85:u8glib_arm_v1.18.1\src/u8g_font.c **** 
  86:u8glib_arm_v1.18.1\src/u8g_font.c **** /* removed NOINLINE, because it leads to smaller code, might also be faster */
  87:u8glib_arm_v1.18.1\src/u8g_font.c **** //static uint8_t u8g_font_get_byte(const u8g_fntpgm_uint8_t *font, uint8_t offset) U8G_NOINLINE;
  88:u8glib_arm_v1.18.1\src/u8g_font.c **** static uint8_t u8g_font_get_byte(const u8g_fntpgm_uint8_t *font, uint8_t offset)
  89:u8glib_arm_v1.18.1\src/u8g_font.c **** {
ARM GAS  C:\Users\KJA\AppData\Local\Temp\ccevgiJT.s 			page 3


  26              		.loc 1 89 0
  27              		.cfi_startproc
  28              		@ args = 0, pretend = 0, frame = 8
  29              		@ frame_needed = 1, uses_anonymous_args = 0
  30              		@ link register save eliminated.
  31 0000 80B4     		push	{r7}
  32              		.cfi_def_cfa_offset 4
  33              		.cfi_offset 7, -4
  34 0002 83B0     		sub	sp, sp, #12
  35              		.cfi_def_cfa_offset 16
  36 0004 00AF     		add	r7, sp, #0
  37              		.cfi_def_cfa_register 7
  38 0006 7860     		str	r0, [r7, #4]
  39 0008 0B46     		mov	r3, r1
  40 000a FB70     		strb	r3, [r7, #3]
  90:u8glib_arm_v1.18.1\src/u8g_font.c ****   font += offset;
  41              		.loc 1 90 0
  42 000c FB78     		ldrb	r3, [r7, #3]	@ zero_extendqisi2
  43 000e 7A68     		ldr	r2, [r7, #4]
  44 0010 1344     		add	r3, r3, r2
  45 0012 7B60     		str	r3, [r7, #4]
  91:u8glib_arm_v1.18.1\src/u8g_font.c ****   return u8g_pgm_read( (u8g_pgm_uint8_t *)font );  
  46              		.loc 1 91 0
  47 0014 7B68     		ldr	r3, [r7, #4]
  48 0016 1B78     		ldrb	r3, [r3]	@ zero_extendqisi2
  92:u8glib_arm_v1.18.1\src/u8g_font.c **** }
  49              		.loc 1 92 0
  50 0018 1846     		mov	r0, r3
  51 001a 0C37     		adds	r7, r7, #12
  52              		.cfi_def_cfa_offset 4
  53 001c BD46     		mov	sp, r7
  54              		.cfi_def_cfa_register 13
  55              		@ sp needed
  56 001e 5DF8047B 		ldr	r7, [sp], #4
  57              		.cfi_restore 7
  58              		.cfi_def_cfa_offset 0
  59 0022 7047     		bx	lr
  60              		.cfi_endproc
  61              	.LFE0:
  62              		.size	u8g_font_get_byte, .-u8g_font_get_byte
  63              		.section	.text.u8g_font_get_word,"ax",%progbits
  64              		.align	2
  65              		.thumb
  66              		.thumb_func
  67              		.type	u8g_font_get_word, %function
  68              	u8g_font_get_word:
  69              	.LFB1:
  93:u8glib_arm_v1.18.1\src/u8g_font.c **** 
  94:u8glib_arm_v1.18.1\src/u8g_font.c **** static uint16_t u8g_font_get_word(const u8g_fntpgm_uint8_t *font, uint8_t offset) U8G_NOINLINE; 
  95:u8glib_arm_v1.18.1\src/u8g_font.c **** static uint16_t u8g_font_get_word(const u8g_fntpgm_uint8_t *font, uint8_t offset)
  96:u8glib_arm_v1.18.1\src/u8g_font.c **** {
  70              		.loc 1 96 0
  71              		.cfi_startproc
  72              		@ args = 0, pretend = 0, frame = 16
  73              		@ frame_needed = 1, uses_anonymous_args = 0
  74              		@ link register save eliminated.
  75 0000 80B4     		push	{r7}
ARM GAS  C:\Users\KJA\AppData\Local\Temp\ccevgiJT.s 			page 4


  76              		.cfi_def_cfa_offset 4
  77              		.cfi_offset 7, -4
  78 0002 85B0     		sub	sp, sp, #20
  79              		.cfi_def_cfa_offset 24
  80 0004 00AF     		add	r7, sp, #0
  81              		.cfi_def_cfa_register 7
  82 0006 7860     		str	r0, [r7, #4]
  83 0008 0B46     		mov	r3, r1
  84 000a FB70     		strb	r3, [r7, #3]
  97:u8glib_arm_v1.18.1\src/u8g_font.c ****     uint16_t pos;
  98:u8glib_arm_v1.18.1\src/u8g_font.c ****     font += offset;
  85              		.loc 1 98 0
  86 000c FB78     		ldrb	r3, [r7, #3]	@ zero_extendqisi2
  87 000e 7A68     		ldr	r2, [r7, #4]
  88 0010 1344     		add	r3, r3, r2
  89 0012 7B60     		str	r3, [r7, #4]
  99:u8glib_arm_v1.18.1\src/u8g_font.c ****     pos = u8g_pgm_read( (u8g_pgm_uint8_t *)font );
  90              		.loc 1 99 0
  91 0014 7B68     		ldr	r3, [r7, #4]
  92 0016 1B78     		ldrb	r3, [r3]	@ zero_extendqisi2
  93 0018 FB81     		strh	r3, [r7, #14]	@ movhi
 100:u8glib_arm_v1.18.1\src/u8g_font.c ****     font++;
  94              		.loc 1 100 0
  95 001a 7B68     		ldr	r3, [r7, #4]
  96 001c 0133     		adds	r3, r3, #1
  97 001e 7B60     		str	r3, [r7, #4]
 101:u8glib_arm_v1.18.1\src/u8g_font.c ****     pos <<= 8;
  98              		.loc 1 101 0
  99 0020 FB89     		ldrh	r3, [r7, #14]	@ movhi
 100 0022 1B02     		lsls	r3, r3, #8
 101 0024 FB81     		strh	r3, [r7, #14]	@ movhi
 102:u8glib_arm_v1.18.1\src/u8g_font.c ****     pos += u8g_pgm_read( (u8g_pgm_uint8_t *)font);
 102              		.loc 1 102 0
 103 0026 7B68     		ldr	r3, [r7, #4]
 104 0028 1B78     		ldrb	r3, [r3]	@ zero_extendqisi2
 105 002a 9AB2     		uxth	r2, r3
 106 002c FB89     		ldrh	r3, [r7, #14]	@ movhi
 107 002e 1344     		add	r3, r3, r2
 108 0030 FB81     		strh	r3, [r7, #14]	@ movhi
 103:u8glib_arm_v1.18.1\src/u8g_font.c ****     return pos;
 109              		.loc 1 103 0
 110 0032 FB89     		ldrh	r3, [r7, #14]
 104:u8glib_arm_v1.18.1\src/u8g_font.c **** }
 111              		.loc 1 104 0
 112 0034 1846     		mov	r0, r3
 113 0036 1437     		adds	r7, r7, #20
 114              		.cfi_def_cfa_offset 4
 115 0038 BD46     		mov	sp, r7
 116              		.cfi_def_cfa_register 13
 117              		@ sp needed
 118 003a 5DF8047B 		ldr	r7, [sp], #4
 119              		.cfi_restore 7
 120              		.cfi_def_cfa_offset 0
 121 003e 7047     		bx	lr
 122              		.cfi_endproc
 123              	.LFE1:
 124              		.size	u8g_font_get_word, .-u8g_font_get_word
ARM GAS  C:\Users\KJA\AppData\Local\Temp\ccevgiJT.s 			page 5


 125              		.section	.text.u8g_font_GetFormat,"ax",%progbits
 126              		.align	2
 127              		.thumb
 128              		.thumb_func
 129              		.type	u8g_font_GetFormat, %function
 130              	u8g_font_GetFormat:
 131              	.LFB2:
 105:u8glib_arm_v1.18.1\src/u8g_font.c **** 
 106:u8glib_arm_v1.18.1\src/u8g_font.c **** /*========================================================================*/
 107:u8glib_arm_v1.18.1\src/u8g_font.c **** /* direct access on the font */
 108:u8glib_arm_v1.18.1\src/u8g_font.c **** 
 109:u8glib_arm_v1.18.1\src/u8g_font.c **** static uint8_t u8g_font_GetFormat(const u8g_fntpgm_uint8_t *font) U8G_NOINLINE;
 110:u8glib_arm_v1.18.1\src/u8g_font.c **** static uint8_t u8g_font_GetFormat(const u8g_fntpgm_uint8_t *font)
 111:u8glib_arm_v1.18.1\src/u8g_font.c **** {
 132              		.loc 1 111 0
 133              		.cfi_startproc
 134              		@ args = 0, pretend = 0, frame = 8
 135              		@ frame_needed = 1, uses_anonymous_args = 0
 136 0000 80B5     		push	{r7, lr}
 137              		.cfi_def_cfa_offset 8
 138              		.cfi_offset 7, -8
 139              		.cfi_offset 14, -4
 140 0002 82B0     		sub	sp, sp, #8
 141              		.cfi_def_cfa_offset 16
 142 0004 00AF     		add	r7, sp, #0
 143              		.cfi_def_cfa_register 7
 144 0006 7860     		str	r0, [r7, #4]
 112:u8glib_arm_v1.18.1\src/u8g_font.c ****   return u8g_font_get_byte(font, 0);
 145              		.loc 1 112 0
 146 0008 7868     		ldr	r0, [r7, #4]
 147 000a 0021     		movs	r1, #0
 148 000c FFF7FEFF 		bl	u8g_font_get_byte
 149 0010 0346     		mov	r3, r0
 113:u8glib_arm_v1.18.1\src/u8g_font.c **** }
 150              		.loc 1 113 0
 151 0012 1846     		mov	r0, r3
 152 0014 0837     		adds	r7, r7, #8
 153              		.cfi_def_cfa_offset 8
 154 0016 BD46     		mov	sp, r7
 155              		.cfi_def_cfa_register 13
 156              		@ sp needed
 157 0018 80BD     		pop	{r7, pc}
 158              		.cfi_endproc
 159              	.LFE2:
 160              		.size	u8g_font_GetFormat, .-u8g_font_GetFormat
 161 001a 00BF     		.section	.text.u8g_font_GetFontGlyphStructureSize,"ax",%progbits
 162              		.align	2
 163              		.thumb
 164              		.thumb_func
 165              		.type	u8g_font_GetFontGlyphStructureSize, %function
 166              	u8g_font_GetFontGlyphStructureSize:
 167              	.LFB3:
 114:u8glib_arm_v1.18.1\src/u8g_font.c **** 
 115:u8glib_arm_v1.18.1\src/u8g_font.c **** static uint8_t u8g_font_GetFontGlyphStructureSize(const u8g_fntpgm_uint8_t *font) U8G_NOINLINE;
 116:u8glib_arm_v1.18.1\src/u8g_font.c **** static uint8_t u8g_font_GetFontGlyphStructureSize(const u8g_fntpgm_uint8_t *font)
 117:u8glib_arm_v1.18.1\src/u8g_font.c **** {
 168              		.loc 1 117 0
ARM GAS  C:\Users\KJA\AppData\Local\Temp\ccevgiJT.s 			page 6


 169              		.cfi_startproc
 170              		@ args = 0, pretend = 0, frame = 8
 171              		@ frame_needed = 1, uses_anonymous_args = 0
 172 0000 80B5     		push	{r7, lr}
 173              		.cfi_def_cfa_offset 8
 174              		.cfi_offset 7, -8
 175              		.cfi_offset 14, -4
 176 0002 82B0     		sub	sp, sp, #8
 177              		.cfi_def_cfa_offset 16
 178 0004 00AF     		add	r7, sp, #0
 179              		.cfi_def_cfa_register 7
 180 0006 7860     		str	r0, [r7, #4]
 118:u8glib_arm_v1.18.1\src/u8g_font.c ****   switch(u8g_font_GetFormat(font))
 181              		.loc 1 118 0
 182 0008 7868     		ldr	r0, [r7, #4]
 183 000a FFF7FEFF 		bl	u8g_font_GetFormat
 184 000e 0346     		mov	r3, r0
 185 0010 012B     		cmp	r3, #1
 186 0012 05D0     		beq	.L9
 187 0014 022B     		cmp	r3, #2
 188 0016 05D0     		beq	.L10
 189 0018 002B     		cmp	r3, #0
 190 001a 05D1     		bne	.L13
 119:u8glib_arm_v1.18.1\src/u8g_font.c ****   {
 120:u8glib_arm_v1.18.1\src/u8g_font.c ****     case 0: return 6;
 191              		.loc 1 120 0
 192 001c 0623     		movs	r3, #6
 193 001e 04E0     		b	.L12
 194              	.L9:
 121:u8glib_arm_v1.18.1\src/u8g_font.c ****     case 1: return 3;
 195              		.loc 1 121 0
 196 0020 0323     		movs	r3, #3
 197 0022 02E0     		b	.L12
 198              	.L10:
 122:u8glib_arm_v1.18.1\src/u8g_font.c ****     case 2: return 6;
 199              		.loc 1 122 0
 200 0024 0623     		movs	r3, #6
 201 0026 00E0     		b	.L12
 202              	.L13:
 123:u8glib_arm_v1.18.1\src/u8g_font.c ****   }
 124:u8glib_arm_v1.18.1\src/u8g_font.c ****   return 3;
 203              		.loc 1 124 0
 204 0028 0323     		movs	r3, #3
 205              	.L12:
 125:u8glib_arm_v1.18.1\src/u8g_font.c **** }
 206              		.loc 1 125 0
 207 002a 1846     		mov	r0, r3
 208 002c 0837     		adds	r7, r7, #8
 209              		.cfi_def_cfa_offset 8
 210 002e BD46     		mov	sp, r7
 211              		.cfi_def_cfa_register 13
 212              		@ sp needed
 213 0030 80BD     		pop	{r7, pc}
 214              		.cfi_endproc
 215              	.LFE3:
 216              		.size	u8g_font_GetFontGlyphStructureSize, .-u8g_font_GetFontGlyphStructureSize
 217 0032 00BF     		.section	.text.u8g_font_GetBBXWidth,"ax",%progbits
ARM GAS  C:\Users\KJA\AppData\Local\Temp\ccevgiJT.s 			page 7


 218              		.align	2
 219              		.thumb
 220              		.thumb_func
 221              		.type	u8g_font_GetBBXWidth, %function
 222              	u8g_font_GetBBXWidth:
 223              	.LFB4:
 126:u8glib_arm_v1.18.1\src/u8g_font.c **** 
 127:u8glib_arm_v1.18.1\src/u8g_font.c **** static uint8_t u8g_font_GetBBXWidth(const void *font)
 128:u8glib_arm_v1.18.1\src/u8g_font.c **** {
 224              		.loc 1 128 0
 225              		.cfi_startproc
 226              		@ args = 0, pretend = 0, frame = 8
 227              		@ frame_needed = 1, uses_anonymous_args = 0
 228 0000 80B5     		push	{r7, lr}
 229              		.cfi_def_cfa_offset 8
 230              		.cfi_offset 7, -8
 231              		.cfi_offset 14, -4
 232 0002 82B0     		sub	sp, sp, #8
 233              		.cfi_def_cfa_offset 16
 234 0004 00AF     		add	r7, sp, #0
 235              		.cfi_def_cfa_register 7
 236 0006 7860     		str	r0, [r7, #4]
 129:u8glib_arm_v1.18.1\src/u8g_font.c ****   return u8g_font_get_byte(font, 1);
 237              		.loc 1 129 0
 238 0008 7868     		ldr	r0, [r7, #4]
 239 000a 0121     		movs	r1, #1
 240 000c FFF7FEFF 		bl	u8g_font_get_byte
 241 0010 0346     		mov	r3, r0
 130:u8glib_arm_v1.18.1\src/u8g_font.c **** }
 242              		.loc 1 130 0
 243 0012 1846     		mov	r0, r3
 244 0014 0837     		adds	r7, r7, #8
 245              		.cfi_def_cfa_offset 8
 246 0016 BD46     		mov	sp, r7
 247              		.cfi_def_cfa_register 13
 248              		@ sp needed
 249 0018 80BD     		pop	{r7, pc}
 250              		.cfi_endproc
 251              	.LFE4:
 252              		.size	u8g_font_GetBBXWidth, .-u8g_font_GetBBXWidth
 253 001a 00BF     		.section	.text.u8g_font_GetBBXHeight,"ax",%progbits
 254              		.align	2
 255              		.thumb
 256              		.thumb_func
 257              		.type	u8g_font_GetBBXHeight, %function
 258              	u8g_font_GetBBXHeight:
 259              	.LFB5:
 131:u8glib_arm_v1.18.1\src/u8g_font.c **** 
 132:u8glib_arm_v1.18.1\src/u8g_font.c **** static uint8_t u8g_font_GetBBXHeight(const void *font)
 133:u8glib_arm_v1.18.1\src/u8g_font.c **** {
 260              		.loc 1 133 0
 261              		.cfi_startproc
 262              		@ args = 0, pretend = 0, frame = 8
 263              		@ frame_needed = 1, uses_anonymous_args = 0
 264 0000 80B5     		push	{r7, lr}
 265              		.cfi_def_cfa_offset 8
 266              		.cfi_offset 7, -8
ARM GAS  C:\Users\KJA\AppData\Local\Temp\ccevgiJT.s 			page 8


 267              		.cfi_offset 14, -4
 268 0002 82B0     		sub	sp, sp, #8
 269              		.cfi_def_cfa_offset 16
 270 0004 00AF     		add	r7, sp, #0
 271              		.cfi_def_cfa_register 7
 272 0006 7860     		str	r0, [r7, #4]
 134:u8glib_arm_v1.18.1\src/u8g_font.c ****   return u8g_font_get_byte(font, 2);
 273              		.loc 1 134 0
 274 0008 7868     		ldr	r0, [r7, #4]
 275 000a 0221     		movs	r1, #2
 276 000c FFF7FEFF 		bl	u8g_font_get_byte
 277 0010 0346     		mov	r3, r0
 135:u8glib_arm_v1.18.1\src/u8g_font.c **** }
 278              		.loc 1 135 0
 279 0012 1846     		mov	r0, r3
 280 0014 0837     		adds	r7, r7, #8
 281              		.cfi_def_cfa_offset 8
 282 0016 BD46     		mov	sp, r7
 283              		.cfi_def_cfa_register 13
 284              		@ sp needed
 285 0018 80BD     		pop	{r7, pc}
 286              		.cfi_endproc
 287              	.LFE5:
 288              		.size	u8g_font_GetBBXHeight, .-u8g_font_GetBBXHeight
 289 001a 00BF     		.section	.text.u8g_font_GetBBXOffX,"ax",%progbits
 290              		.align	2
 291              		.thumb
 292              		.thumb_func
 293              		.type	u8g_font_GetBBXOffX, %function
 294              	u8g_font_GetBBXOffX:
 295              	.LFB6:
 136:u8glib_arm_v1.18.1\src/u8g_font.c **** 
 137:u8glib_arm_v1.18.1\src/u8g_font.c **** static int8_t u8g_font_GetBBXOffX(const void *font)
 138:u8glib_arm_v1.18.1\src/u8g_font.c **** {
 296              		.loc 1 138 0
 297              		.cfi_startproc
 298              		@ args = 0, pretend = 0, frame = 8
 299              		@ frame_needed = 1, uses_anonymous_args = 0
 300 0000 80B5     		push	{r7, lr}
 301              		.cfi_def_cfa_offset 8
 302              		.cfi_offset 7, -8
 303              		.cfi_offset 14, -4
 304 0002 82B0     		sub	sp, sp, #8
 305              		.cfi_def_cfa_offset 16
 306 0004 00AF     		add	r7, sp, #0
 307              		.cfi_def_cfa_register 7
 308 0006 7860     		str	r0, [r7, #4]
 139:u8glib_arm_v1.18.1\src/u8g_font.c ****   return u8g_font_get_byte(font, 3);
 309              		.loc 1 139 0
 310 0008 7868     		ldr	r0, [r7, #4]
 311 000a 0321     		movs	r1, #3
 312 000c FFF7FEFF 		bl	u8g_font_get_byte
 313 0010 0346     		mov	r3, r0
 314 0012 DBB2     		uxtb	r3, r3
 315 0014 5BB2     		sxtb	r3, r3
 140:u8glib_arm_v1.18.1\src/u8g_font.c **** }
 316              		.loc 1 140 0
ARM GAS  C:\Users\KJA\AppData\Local\Temp\ccevgiJT.s 			page 9


 317 0016 1846     		mov	r0, r3
 318 0018 0837     		adds	r7, r7, #8
 319              		.cfi_def_cfa_offset 8
 320 001a BD46     		mov	sp, r7
 321              		.cfi_def_cfa_register 13
 322              		@ sp needed
 323 001c 80BD     		pop	{r7, pc}
 324              		.cfi_endproc
 325              	.LFE6:
 326              		.size	u8g_font_GetBBXOffX, .-u8g_font_GetBBXOffX
 327 001e 00BF     		.section	.text.u8g_font_GetBBXOffY,"ax",%progbits
 328              		.align	2
 329              		.thumb
 330              		.thumb_func
 331              		.type	u8g_font_GetBBXOffY, %function
 332              	u8g_font_GetBBXOffY:
 333              	.LFB7:
 141:u8glib_arm_v1.18.1\src/u8g_font.c **** 
 142:u8glib_arm_v1.18.1\src/u8g_font.c **** static int8_t u8g_font_GetBBXOffY(const void *font)
 143:u8glib_arm_v1.18.1\src/u8g_font.c **** {
 334              		.loc 1 143 0
 335              		.cfi_startproc
 336              		@ args = 0, pretend = 0, frame = 8
 337              		@ frame_needed = 1, uses_anonymous_args = 0
 338 0000 80B5     		push	{r7, lr}
 339              		.cfi_def_cfa_offset 8
 340              		.cfi_offset 7, -8
 341              		.cfi_offset 14, -4
 342 0002 82B0     		sub	sp, sp, #8
 343              		.cfi_def_cfa_offset 16
 344 0004 00AF     		add	r7, sp, #0
 345              		.cfi_def_cfa_register 7
 346 0006 7860     		str	r0, [r7, #4]
 144:u8glib_arm_v1.18.1\src/u8g_font.c ****   return u8g_font_get_byte(font, 4);
 347              		.loc 1 144 0
 348 0008 7868     		ldr	r0, [r7, #4]
 349 000a 0421     		movs	r1, #4
 350 000c FFF7FEFF 		bl	u8g_font_get_byte
 351 0010 0346     		mov	r3, r0
 352 0012 DBB2     		uxtb	r3, r3
 353 0014 5BB2     		sxtb	r3, r3
 145:u8glib_arm_v1.18.1\src/u8g_font.c **** }
 354              		.loc 1 145 0
 355 0016 1846     		mov	r0, r3
 356 0018 0837     		adds	r7, r7, #8
 357              		.cfi_def_cfa_offset 8
 358 001a BD46     		mov	sp, r7
 359              		.cfi_def_cfa_register 13
 360              		@ sp needed
 361 001c 80BD     		pop	{r7, pc}
 362              		.cfi_endproc
 363              	.LFE7:
 364              		.size	u8g_font_GetBBXOffY, .-u8g_font_GetBBXOffY
 365 001e 00BF     		.section	.text.u8g_font_GetCapitalAHeight,"ax",%progbits
 366              		.align	2
 367              		.global	u8g_font_GetCapitalAHeight
 368              		.thumb
ARM GAS  C:\Users\KJA\AppData\Local\Temp\ccevgiJT.s 			page 10


 369              		.thumb_func
 370              		.type	u8g_font_GetCapitalAHeight, %function
 371              	u8g_font_GetCapitalAHeight:
 372              	.LFB8:
 146:u8glib_arm_v1.18.1\src/u8g_font.c **** 
 147:u8glib_arm_v1.18.1\src/u8g_font.c **** uint8_t u8g_font_GetCapitalAHeight(const void *font)
 148:u8glib_arm_v1.18.1\src/u8g_font.c **** {
 373              		.loc 1 148 0
 374              		.cfi_startproc
 375              		@ args = 0, pretend = 0, frame = 8
 376              		@ frame_needed = 1, uses_anonymous_args = 0
 377 0000 80B5     		push	{r7, lr}
 378              		.cfi_def_cfa_offset 8
 379              		.cfi_offset 7, -8
 380              		.cfi_offset 14, -4
 381 0002 82B0     		sub	sp, sp, #8
 382              		.cfi_def_cfa_offset 16
 383 0004 00AF     		add	r7, sp, #0
 384              		.cfi_def_cfa_register 7
 385 0006 7860     		str	r0, [r7, #4]
 149:u8glib_arm_v1.18.1\src/u8g_font.c ****   return u8g_font_get_byte(font, 5);
 386              		.loc 1 149 0
 387 0008 7868     		ldr	r0, [r7, #4]
 388 000a 0521     		movs	r1, #5
 389 000c FFF7FEFF 		bl	u8g_font_get_byte
 390 0010 0346     		mov	r3, r0
 150:u8glib_arm_v1.18.1\src/u8g_font.c **** }
 391              		.loc 1 150 0
 392 0012 1846     		mov	r0, r3
 393 0014 0837     		adds	r7, r7, #8
 394              		.cfi_def_cfa_offset 8
 395 0016 BD46     		mov	sp, r7
 396              		.cfi_def_cfa_register 13
 397              		@ sp needed
 398 0018 80BD     		pop	{r7, pc}
 399              		.cfi_endproc
 400              	.LFE8:
 401              		.size	u8g_font_GetCapitalAHeight, .-u8g_font_GetCapitalAHeight
 402 001a 00BF     		.section	.text.u8g_font_GetEncoding65Pos,"ax",%progbits
 403              		.align	2
 404              		.global	u8g_font_GetEncoding65Pos
 405              		.thumb
 406              		.thumb_func
 407              		.type	u8g_font_GetEncoding65Pos, %function
 408              	u8g_font_GetEncoding65Pos:
 409              	.LFB9:
 151:u8glib_arm_v1.18.1\src/u8g_font.c **** 
 152:u8glib_arm_v1.18.1\src/u8g_font.c **** uint16_t u8g_font_GetEncoding65Pos(const void *font) U8G_NOINLINE;
 153:u8glib_arm_v1.18.1\src/u8g_font.c **** uint16_t u8g_font_GetEncoding65Pos(const void *font)
 154:u8glib_arm_v1.18.1\src/u8g_font.c **** {
 410              		.loc 1 154 0
 411              		.cfi_startproc
 412              		@ args = 0, pretend = 0, frame = 8
 413              		@ frame_needed = 1, uses_anonymous_args = 0
 414 0000 80B5     		push	{r7, lr}
 415              		.cfi_def_cfa_offset 8
 416              		.cfi_offset 7, -8
ARM GAS  C:\Users\KJA\AppData\Local\Temp\ccevgiJT.s 			page 11


 417              		.cfi_offset 14, -4
 418 0002 82B0     		sub	sp, sp, #8
 419              		.cfi_def_cfa_offset 16
 420 0004 00AF     		add	r7, sp, #0
 421              		.cfi_def_cfa_register 7
 422 0006 7860     		str	r0, [r7, #4]
 155:u8glib_arm_v1.18.1\src/u8g_font.c ****     return u8g_font_get_word(font, 6);
 423              		.loc 1 155 0
 424 0008 7868     		ldr	r0, [r7, #4]
 425 000a 0621     		movs	r1, #6
 426 000c FFF7FEFF 		bl	u8g_font_get_word
 427 0010 0346     		mov	r3, r0
 156:u8glib_arm_v1.18.1\src/u8g_font.c **** }
 428              		.loc 1 156 0
 429 0012 1846     		mov	r0, r3
 430 0014 0837     		adds	r7, r7, #8
 431              		.cfi_def_cfa_offset 8
 432 0016 BD46     		mov	sp, r7
 433              		.cfi_def_cfa_register 13
 434              		@ sp needed
 435 0018 80BD     		pop	{r7, pc}
 436              		.cfi_endproc
 437              	.LFE9:
 438              		.size	u8g_font_GetEncoding65Pos, .-u8g_font_GetEncoding65Pos
 439 001a 00BF     		.section	.text.u8g_font_GetEncoding97Pos,"ax",%progbits
 440              		.align	2
 441              		.global	u8g_font_GetEncoding97Pos
 442              		.thumb
 443              		.thumb_func
 444              		.type	u8g_font_GetEncoding97Pos, %function
 445              	u8g_font_GetEncoding97Pos:
 446              	.LFB10:
 157:u8glib_arm_v1.18.1\src/u8g_font.c **** 
 158:u8glib_arm_v1.18.1\src/u8g_font.c **** uint16_t u8g_font_GetEncoding97Pos(const void *font) U8G_NOINLINE;
 159:u8glib_arm_v1.18.1\src/u8g_font.c **** uint16_t u8g_font_GetEncoding97Pos(const void *font)
 160:u8glib_arm_v1.18.1\src/u8g_font.c **** {
 447              		.loc 1 160 0
 448              		.cfi_startproc
 449              		@ args = 0, pretend = 0, frame = 8
 450              		@ frame_needed = 1, uses_anonymous_args = 0
 451 0000 80B5     		push	{r7, lr}
 452              		.cfi_def_cfa_offset 8
 453              		.cfi_offset 7, -8
 454              		.cfi_offset 14, -4
 455 0002 82B0     		sub	sp, sp, #8
 456              		.cfi_def_cfa_offset 16
 457 0004 00AF     		add	r7, sp, #0
 458              		.cfi_def_cfa_register 7
 459 0006 7860     		str	r0, [r7, #4]
 161:u8glib_arm_v1.18.1\src/u8g_font.c ****     return u8g_font_get_word(font, 8);
 460              		.loc 1 161 0
 461 0008 7868     		ldr	r0, [r7, #4]
 462 000a 0821     		movs	r1, #8
 463 000c FFF7FEFF 		bl	u8g_font_get_word
 464 0010 0346     		mov	r3, r0
 162:u8glib_arm_v1.18.1\src/u8g_font.c **** }
 465              		.loc 1 162 0
ARM GAS  C:\Users\KJA\AppData\Local\Temp\ccevgiJT.s 			page 12


 466 0012 1846     		mov	r0, r3
 467 0014 0837     		adds	r7, r7, #8
 468              		.cfi_def_cfa_offset 8
 469 0016 BD46     		mov	sp, r7
 470              		.cfi_def_cfa_register 13
 471              		@ sp needed
 472 0018 80BD     		pop	{r7, pc}
 473              		.cfi_endproc
 474              	.LFE10:
 475              		.size	u8g_font_GetEncoding97Pos, .-u8g_font_GetEncoding97Pos
 476 001a 00BF     		.section	.text.u8g_font_GetFontStartEncoding,"ax",%progbits
 477              		.align	2
 478              		.global	u8g_font_GetFontStartEncoding
 479              		.thumb
 480              		.thumb_func
 481              		.type	u8g_font_GetFontStartEncoding, %function
 482              	u8g_font_GetFontStartEncoding:
 483              	.LFB11:
 163:u8glib_arm_v1.18.1\src/u8g_font.c **** 
 164:u8glib_arm_v1.18.1\src/u8g_font.c **** uint8_t u8g_font_GetFontStartEncoding(const void *font)
 165:u8glib_arm_v1.18.1\src/u8g_font.c **** {
 484              		.loc 1 165 0
 485              		.cfi_startproc
 486              		@ args = 0, pretend = 0, frame = 8
 487              		@ frame_needed = 1, uses_anonymous_args = 0
 488 0000 80B5     		push	{r7, lr}
 489              		.cfi_def_cfa_offset 8
 490              		.cfi_offset 7, -8
 491              		.cfi_offset 14, -4
 492 0002 82B0     		sub	sp, sp, #8
 493              		.cfi_def_cfa_offset 16
 494 0004 00AF     		add	r7, sp, #0
 495              		.cfi_def_cfa_register 7
 496 0006 7860     		str	r0, [r7, #4]
 166:u8glib_arm_v1.18.1\src/u8g_font.c ****   return u8g_font_get_byte(font, 10);
 497              		.loc 1 166 0
 498 0008 7868     		ldr	r0, [r7, #4]
 499 000a 0A21     		movs	r1, #10
 500 000c FFF7FEFF 		bl	u8g_font_get_byte
 501 0010 0346     		mov	r3, r0
 167:u8glib_arm_v1.18.1\src/u8g_font.c **** }
 502              		.loc 1 167 0
 503 0012 1846     		mov	r0, r3
 504 0014 0837     		adds	r7, r7, #8
 505              		.cfi_def_cfa_offset 8
 506 0016 BD46     		mov	sp, r7
 507              		.cfi_def_cfa_register 13
 508              		@ sp needed
 509 0018 80BD     		pop	{r7, pc}
 510              		.cfi_endproc
 511              	.LFE11:
 512              		.size	u8g_font_GetFontStartEncoding, .-u8g_font_GetFontStartEncoding
 513 001a 00BF     		.section	.text.u8g_font_GetFontEndEncoding,"ax",%progbits
 514              		.align	2
 515              		.global	u8g_font_GetFontEndEncoding
 516              		.thumb
 517              		.thumb_func
ARM GAS  C:\Users\KJA\AppData\Local\Temp\ccevgiJT.s 			page 13


 518              		.type	u8g_font_GetFontEndEncoding, %function
 519              	u8g_font_GetFontEndEncoding:
 520              	.LFB12:
 168:u8glib_arm_v1.18.1\src/u8g_font.c **** 
 169:u8glib_arm_v1.18.1\src/u8g_font.c **** uint8_t u8g_font_GetFontEndEncoding(const void *font)
 170:u8glib_arm_v1.18.1\src/u8g_font.c **** {
 521              		.loc 1 170 0
 522              		.cfi_startproc
 523              		@ args = 0, pretend = 0, frame = 8
 524              		@ frame_needed = 1, uses_anonymous_args = 0
 525 0000 80B5     		push	{r7, lr}
 526              		.cfi_def_cfa_offset 8
 527              		.cfi_offset 7, -8
 528              		.cfi_offset 14, -4
 529 0002 82B0     		sub	sp, sp, #8
 530              		.cfi_def_cfa_offset 16
 531 0004 00AF     		add	r7, sp, #0
 532              		.cfi_def_cfa_register 7
 533 0006 7860     		str	r0, [r7, #4]
 171:u8glib_arm_v1.18.1\src/u8g_font.c ****   return u8g_font_get_byte(font, 11);
 534              		.loc 1 171 0
 535 0008 7868     		ldr	r0, [r7, #4]
 536 000a 0B21     		movs	r1, #11
 537 000c FFF7FEFF 		bl	u8g_font_get_byte
 538 0010 0346     		mov	r3, r0
 172:u8glib_arm_v1.18.1\src/u8g_font.c **** }
 539              		.loc 1 172 0
 540 0012 1846     		mov	r0, r3
 541 0014 0837     		adds	r7, r7, #8
 542              		.cfi_def_cfa_offset 8
 543 0016 BD46     		mov	sp, r7
 544              		.cfi_def_cfa_register 13
 545              		@ sp needed
 546 0018 80BD     		pop	{r7, pc}
 547              		.cfi_endproc
 548              	.LFE12:
 549              		.size	u8g_font_GetFontEndEncoding, .-u8g_font_GetFontEndEncoding
 550 001a 00BF     		.section	.text.u8g_font_GetLowerGDescent,"ax",%progbits
 551              		.align	2
 552              		.global	u8g_font_GetLowerGDescent
 553              		.thumb
 554              		.thumb_func
 555              		.type	u8g_font_GetLowerGDescent, %function
 556              	u8g_font_GetLowerGDescent:
 557              	.LFB13:
 173:u8glib_arm_v1.18.1\src/u8g_font.c **** 
 174:u8glib_arm_v1.18.1\src/u8g_font.c **** int8_t u8g_font_GetLowerGDescent(const void *font)
 175:u8glib_arm_v1.18.1\src/u8g_font.c **** {
 558              		.loc 1 175 0
 559              		.cfi_startproc
 560              		@ args = 0, pretend = 0, frame = 8
 561              		@ frame_needed = 1, uses_anonymous_args = 0
 562 0000 80B5     		push	{r7, lr}
 563              		.cfi_def_cfa_offset 8
 564              		.cfi_offset 7, -8
 565              		.cfi_offset 14, -4
 566 0002 82B0     		sub	sp, sp, #8
ARM GAS  C:\Users\KJA\AppData\Local\Temp\ccevgiJT.s 			page 14


 567              		.cfi_def_cfa_offset 16
 568 0004 00AF     		add	r7, sp, #0
 569              		.cfi_def_cfa_register 7
 570 0006 7860     		str	r0, [r7, #4]
 176:u8glib_arm_v1.18.1\src/u8g_font.c ****   return u8g_font_get_byte(font, 12);
 571              		.loc 1 176 0
 572 0008 7868     		ldr	r0, [r7, #4]
 573 000a 0C21     		movs	r1, #12
 574 000c FFF7FEFF 		bl	u8g_font_get_byte
 575 0010 0346     		mov	r3, r0
 576 0012 DBB2     		uxtb	r3, r3
 577 0014 5BB2     		sxtb	r3, r3
 177:u8glib_arm_v1.18.1\src/u8g_font.c **** }
 578              		.loc 1 177 0
 579 0016 1846     		mov	r0, r3
 580 0018 0837     		adds	r7, r7, #8
 581              		.cfi_def_cfa_offset 8
 582 001a BD46     		mov	sp, r7
 583              		.cfi_def_cfa_register 13
 584              		@ sp needed
 585 001c 80BD     		pop	{r7, pc}
 586              		.cfi_endproc
 587              	.LFE13:
 588              		.size	u8g_font_GetLowerGDescent, .-u8g_font_GetLowerGDescent
 589 001e 00BF     		.section	.text.u8g_font_GetFontAscent,"ax",%progbits
 590              		.align	2
 591              		.global	u8g_font_GetFontAscent
 592              		.thumb
 593              		.thumb_func
 594              		.type	u8g_font_GetFontAscent, %function
 595              	u8g_font_GetFontAscent:
 596              	.LFB14:
 178:u8glib_arm_v1.18.1\src/u8g_font.c **** 
 179:u8glib_arm_v1.18.1\src/u8g_font.c **** int8_t u8g_font_GetFontAscent(const void *font)
 180:u8glib_arm_v1.18.1\src/u8g_font.c **** {
 597              		.loc 1 180 0
 598              		.cfi_startproc
 599              		@ args = 0, pretend = 0, frame = 8
 600              		@ frame_needed = 1, uses_anonymous_args = 0
 601 0000 80B5     		push	{r7, lr}
 602              		.cfi_def_cfa_offset 8
 603              		.cfi_offset 7, -8
 604              		.cfi_offset 14, -4
 605 0002 82B0     		sub	sp, sp, #8
 606              		.cfi_def_cfa_offset 16
 607 0004 00AF     		add	r7, sp, #0
 608              		.cfi_def_cfa_register 7
 609 0006 7860     		str	r0, [r7, #4]
 181:u8glib_arm_v1.18.1\src/u8g_font.c ****   return u8g_font_get_byte(font, 13);
 610              		.loc 1 181 0
 611 0008 7868     		ldr	r0, [r7, #4]
 612 000a 0D21     		movs	r1, #13
 613 000c FFF7FEFF 		bl	u8g_font_get_byte
 614 0010 0346     		mov	r3, r0
 615 0012 DBB2     		uxtb	r3, r3
 616 0014 5BB2     		sxtb	r3, r3
 182:u8glib_arm_v1.18.1\src/u8g_font.c **** }
ARM GAS  C:\Users\KJA\AppData\Local\Temp\ccevgiJT.s 			page 15


 617              		.loc 1 182 0
 618 0016 1846     		mov	r0, r3
 619 0018 0837     		adds	r7, r7, #8
 620              		.cfi_def_cfa_offset 8
 621 001a BD46     		mov	sp, r7
 622              		.cfi_def_cfa_register 13
 623              		@ sp needed
 624 001c 80BD     		pop	{r7, pc}
 625              		.cfi_endproc
 626              	.LFE14:
 627              		.size	u8g_font_GetFontAscent, .-u8g_font_GetFontAscent
 628 001e 00BF     		.section	.text.u8g_font_GetFontDescent,"ax",%progbits
 629              		.align	2
 630              		.global	u8g_font_GetFontDescent
 631              		.thumb
 632              		.thumb_func
 633              		.type	u8g_font_GetFontDescent, %function
 634              	u8g_font_GetFontDescent:
 635              	.LFB15:
 183:u8glib_arm_v1.18.1\src/u8g_font.c **** 
 184:u8glib_arm_v1.18.1\src/u8g_font.c **** int8_t u8g_font_GetFontDescent(const void *font)
 185:u8glib_arm_v1.18.1\src/u8g_font.c **** {
 636              		.loc 1 185 0
 637              		.cfi_startproc
 638              		@ args = 0, pretend = 0, frame = 8
 639              		@ frame_needed = 1, uses_anonymous_args = 0
 640 0000 80B5     		push	{r7, lr}
 641              		.cfi_def_cfa_offset 8
 642              		.cfi_offset 7, -8
 643              		.cfi_offset 14, -4
 644 0002 82B0     		sub	sp, sp, #8
 645              		.cfi_def_cfa_offset 16
 646 0004 00AF     		add	r7, sp, #0
 647              		.cfi_def_cfa_register 7
 648 0006 7860     		str	r0, [r7, #4]
 186:u8glib_arm_v1.18.1\src/u8g_font.c ****   return u8g_font_get_byte(font, 14);
 649              		.loc 1 186 0
 650 0008 7868     		ldr	r0, [r7, #4]
 651 000a 0E21     		movs	r1, #14
 652 000c FFF7FEFF 		bl	u8g_font_get_byte
 653 0010 0346     		mov	r3, r0
 654 0012 DBB2     		uxtb	r3, r3
 655 0014 5BB2     		sxtb	r3, r3
 187:u8glib_arm_v1.18.1\src/u8g_font.c **** }
 656              		.loc 1 187 0
 657 0016 1846     		mov	r0, r3
 658 0018 0837     		adds	r7, r7, #8
 659              		.cfi_def_cfa_offset 8
 660 001a BD46     		mov	sp, r7
 661              		.cfi_def_cfa_register 13
 662              		@ sp needed
 663 001c 80BD     		pop	{r7, pc}
 664              		.cfi_endproc
 665              	.LFE15:
 666              		.size	u8g_font_GetFontDescent, .-u8g_font_GetFontDescent
 667 001e 00BF     		.section	.text.u8g_font_GetFontXAscent,"ax",%progbits
 668              		.align	2
ARM GAS  C:\Users\KJA\AppData\Local\Temp\ccevgiJT.s 			page 16


 669              		.global	u8g_font_GetFontXAscent
 670              		.thumb
 671              		.thumb_func
 672              		.type	u8g_font_GetFontXAscent, %function
 673              	u8g_font_GetFontXAscent:
 674              	.LFB16:
 188:u8glib_arm_v1.18.1\src/u8g_font.c **** 
 189:u8glib_arm_v1.18.1\src/u8g_font.c **** int8_t u8g_font_GetFontXAscent(const void *font)
 190:u8glib_arm_v1.18.1\src/u8g_font.c **** {
 675              		.loc 1 190 0
 676              		.cfi_startproc
 677              		@ args = 0, pretend = 0, frame = 8
 678              		@ frame_needed = 1, uses_anonymous_args = 0
 679 0000 80B5     		push	{r7, lr}
 680              		.cfi_def_cfa_offset 8
 681              		.cfi_offset 7, -8
 682              		.cfi_offset 14, -4
 683 0002 82B0     		sub	sp, sp, #8
 684              		.cfi_def_cfa_offset 16
 685 0004 00AF     		add	r7, sp, #0
 686              		.cfi_def_cfa_register 7
 687 0006 7860     		str	r0, [r7, #4]
 191:u8glib_arm_v1.18.1\src/u8g_font.c ****   return u8g_font_get_byte(font, 15);
 688              		.loc 1 191 0
 689 0008 7868     		ldr	r0, [r7, #4]
 690 000a 0F21     		movs	r1, #15
 691 000c FFF7FEFF 		bl	u8g_font_get_byte
 692 0010 0346     		mov	r3, r0
 693 0012 DBB2     		uxtb	r3, r3
 694 0014 5BB2     		sxtb	r3, r3
 192:u8glib_arm_v1.18.1\src/u8g_font.c **** }
 695              		.loc 1 192 0
 696 0016 1846     		mov	r0, r3
 697 0018 0837     		adds	r7, r7, #8
 698              		.cfi_def_cfa_offset 8
 699 001a BD46     		mov	sp, r7
 700              		.cfi_def_cfa_register 13
 701              		@ sp needed
 702 001c 80BD     		pop	{r7, pc}
 703              		.cfi_endproc
 704              	.LFE16:
 705              		.size	u8g_font_GetFontXAscent, .-u8g_font_GetFontXAscent
 706 001e 00BF     		.section	.text.u8g_font_GetFontXDescent,"ax",%progbits
 707              		.align	2
 708              		.global	u8g_font_GetFontXDescent
 709              		.thumb
 710              		.thumb_func
 711              		.type	u8g_font_GetFontXDescent, %function
 712              	u8g_font_GetFontXDescent:
 713              	.LFB17:
 193:u8glib_arm_v1.18.1\src/u8g_font.c **** 
 194:u8glib_arm_v1.18.1\src/u8g_font.c **** int8_t u8g_font_GetFontXDescent(const void *font)
 195:u8glib_arm_v1.18.1\src/u8g_font.c **** {
 714              		.loc 1 195 0
 715              		.cfi_startproc
 716              		@ args = 0, pretend = 0, frame = 8
 717              		@ frame_needed = 1, uses_anonymous_args = 0
ARM GAS  C:\Users\KJA\AppData\Local\Temp\ccevgiJT.s 			page 17


 718 0000 80B5     		push	{r7, lr}
 719              		.cfi_def_cfa_offset 8
 720              		.cfi_offset 7, -8
 721              		.cfi_offset 14, -4
 722 0002 82B0     		sub	sp, sp, #8
 723              		.cfi_def_cfa_offset 16
 724 0004 00AF     		add	r7, sp, #0
 725              		.cfi_def_cfa_register 7
 726 0006 7860     		str	r0, [r7, #4]
 196:u8glib_arm_v1.18.1\src/u8g_font.c ****   return u8g_font_get_byte(font, 16);
 727              		.loc 1 196 0
 728 0008 7868     		ldr	r0, [r7, #4]
 729 000a 1021     		movs	r1, #16
 730 000c FFF7FEFF 		bl	u8g_font_get_byte
 731 0010 0346     		mov	r3, r0
 732 0012 DBB2     		uxtb	r3, r3
 733 0014 5BB2     		sxtb	r3, r3
 197:u8glib_arm_v1.18.1\src/u8g_font.c **** }
 734              		.loc 1 197 0
 735 0016 1846     		mov	r0, r3
 736 0018 0837     		adds	r7, r7, #8
 737              		.cfi_def_cfa_offset 8
 738 001a BD46     		mov	sp, r7
 739              		.cfi_def_cfa_register 13
 740              		@ sp needed
 741 001c 80BD     		pop	{r7, pc}
 742              		.cfi_endproc
 743              	.LFE17:
 744              		.size	u8g_font_GetFontXDescent, .-u8g_font_GetFontXDescent
 745 001e 00BF     		.section	.text.u8g_font_GetGlyphDataStart,"ax",%progbits
 746              		.align	2
 747              		.thumb
 748              		.thumb_func
 749              		.type	u8g_font_GetGlyphDataStart, %function
 750              	u8g_font_GetGlyphDataStart:
 751              	.LFB18:
 198:u8glib_arm_v1.18.1\src/u8g_font.c **** 
 199:u8glib_arm_v1.18.1\src/u8g_font.c **** 
 200:u8glib_arm_v1.18.1\src/u8g_font.c **** /* return the data start for a font and the glyph pointer */
 201:u8glib_arm_v1.18.1\src/u8g_font.c **** static uint8_t *u8g_font_GetGlyphDataStart(const void *font, u8g_glyph_t g)
 202:u8glib_arm_v1.18.1\src/u8g_font.c **** {
 752              		.loc 1 202 0
 753              		.cfi_startproc
 754              		@ args = 0, pretend = 0, frame = 8
 755              		@ frame_needed = 1, uses_anonymous_args = 0
 756 0000 80B5     		push	{r7, lr}
 757              		.cfi_def_cfa_offset 8
 758              		.cfi_offset 7, -8
 759              		.cfi_offset 14, -4
 760 0002 82B0     		sub	sp, sp, #8
 761              		.cfi_def_cfa_offset 16
 762 0004 00AF     		add	r7, sp, #0
 763              		.cfi_def_cfa_register 7
 764 0006 7860     		str	r0, [r7, #4]
 765 0008 3960     		str	r1, [r7]
 203:u8glib_arm_v1.18.1\src/u8g_font.c ****   return ((u8g_fntpgm_uint8_t *)g) + u8g_font_GetFontGlyphStructureSize(font);
 766              		.loc 1 203 0
ARM GAS  C:\Users\KJA\AppData\Local\Temp\ccevgiJT.s 			page 18


 767 000a 7868     		ldr	r0, [r7, #4]
 768 000c FFF7FEFF 		bl	u8g_font_GetFontGlyphStructureSize
 769 0010 0346     		mov	r3, r0
 770 0012 1A46     		mov	r2, r3
 771 0014 3B68     		ldr	r3, [r7]
 772 0016 1344     		add	r3, r3, r2
 204:u8glib_arm_v1.18.1\src/u8g_font.c **** }
 773              		.loc 1 204 0
 774 0018 1846     		mov	r0, r3
 775 001a 0837     		adds	r7, r7, #8
 776              		.cfi_def_cfa_offset 8
 777 001c BD46     		mov	sp, r7
 778              		.cfi_def_cfa_register 13
 779              		@ sp needed
 780 001e 80BD     		pop	{r7, pc}
 781              		.cfi_endproc
 782              	.LFE18:
 783              		.size	u8g_font_GetGlyphDataStart, .-u8g_font_GetGlyphDataStart
 784              		.section	.text.u8g_font_GetSize,"ax",%progbits
 785              		.align	2
 786              		.global	u8g_font_GetSize
 787              		.thumb
 788              		.thumb_func
 789              		.type	u8g_font_GetSize, %function
 790              	u8g_font_GetSize:
 791              	.LFB19:
 205:u8glib_arm_v1.18.1\src/u8g_font.c **** 
 206:u8glib_arm_v1.18.1\src/u8g_font.c **** /* calculate the overall length of the font, only used to create the picture for the google wiki */
 207:u8glib_arm_v1.18.1\src/u8g_font.c **** size_t u8g_font_GetSize(const void *font)
 208:u8glib_arm_v1.18.1\src/u8g_font.c **** {
 792              		.loc 1 208 0
 793              		.cfi_startproc
 794              		@ args = 0, pretend = 0, frame = 24
 795              		@ frame_needed = 1, uses_anonymous_args = 0
 796 0000 80B5     		push	{r7, lr}
 797              		.cfi_def_cfa_offset 8
 798              		.cfi_offset 7, -8
 799              		.cfi_offset 14, -4
 800 0002 86B0     		sub	sp, sp, #24
 801              		.cfi_def_cfa_offset 32
 802 0004 00AF     		add	r7, sp, #0
 803              		.cfi_def_cfa_register 7
 804 0006 7860     		str	r0, [r7, #4]
 209:u8glib_arm_v1.18.1\src/u8g_font.c ****   uint8_t *p = (uint8_t *)(font);
 805              		.loc 1 209 0
 806 0008 7B68     		ldr	r3, [r7, #4]
 807 000a 7B61     		str	r3, [r7, #20]
 210:u8glib_arm_v1.18.1\src/u8g_font.c ****   uint8_t font_format = u8g_font_GetFormat(font);
 808              		.loc 1 210 0
 809 000c 7868     		ldr	r0, [r7, #4]
 810 000e FFF7FEFF 		bl	u8g_font_GetFormat
 811 0012 0346     		mov	r3, r0
 812 0014 7B74     		strb	r3, [r7, #17]
 211:u8glib_arm_v1.18.1\src/u8g_font.c ****   uint8_t data_structure_size = u8g_font_GetFontGlyphStructureSize(font);
 813              		.loc 1 211 0
 814 0016 7868     		ldr	r0, [r7, #4]
 815 0018 FFF7FEFF 		bl	u8g_font_GetFontGlyphStructureSize
ARM GAS  C:\Users\KJA\AppData\Local\Temp\ccevgiJT.s 			page 19


 816 001c 0346     		mov	r3, r0
 817 001e 3B74     		strb	r3, [r7, #16]
 212:u8glib_arm_v1.18.1\src/u8g_font.c ****   uint8_t start, end;
 213:u8glib_arm_v1.18.1\src/u8g_font.c ****   uint8_t i;
 214:u8glib_arm_v1.18.1\src/u8g_font.c ****   uint8_t mask = 255;
 818              		.loc 1 214 0
 819 0020 FF23     		movs	r3, #255
 820 0022 BB74     		strb	r3, [r7, #18]
 215:u8glib_arm_v1.18.1\src/u8g_font.c ****   
 216:u8glib_arm_v1.18.1\src/u8g_font.c ****   start = u8g_font_GetFontStartEncoding(font);
 821              		.loc 1 216 0
 822 0024 7868     		ldr	r0, [r7, #4]
 823 0026 FFF7FEFF 		bl	u8g_font_GetFontStartEncoding
 824 002a 0346     		mov	r3, r0
 825 002c FB73     		strb	r3, [r7, #15]
 217:u8glib_arm_v1.18.1\src/u8g_font.c ****   end = u8g_font_GetFontEndEncoding(font);
 826              		.loc 1 217 0
 827 002e 7868     		ldr	r0, [r7, #4]
 828 0030 FFF7FEFF 		bl	u8g_font_GetFontEndEncoding
 829 0034 0346     		mov	r3, r0
 830 0036 BB73     		strb	r3, [r7, #14]
 218:u8glib_arm_v1.18.1\src/u8g_font.c **** 
 219:u8glib_arm_v1.18.1\src/u8g_font.c ****   if ( font_format == 1 )
 831              		.loc 1 219 0
 832 0038 7B7C     		ldrb	r3, [r7, #17]	@ zero_extendqisi2
 833 003a 012B     		cmp	r3, #1
 834 003c 01D1     		bne	.L45
 220:u8glib_arm_v1.18.1\src/u8g_font.c ****     mask = 15;
 835              		.loc 1 220 0
 836 003e 0F23     		movs	r3, #15
 837 0040 BB74     		strb	r3, [r7, #18]
 838              	.L45:
 221:u8glib_arm_v1.18.1\src/u8g_font.c **** 
 222:u8glib_arm_v1.18.1\src/u8g_font.c ****   p += U8G_FONT_DATA_STRUCT_SIZE;       /* skip font general information */  
 839              		.loc 1 222 0
 840 0042 7B69     		ldr	r3, [r7, #20]
 841 0044 1133     		adds	r3, r3, #17
 842 0046 7B61     		str	r3, [r7, #20]
 223:u8glib_arm_v1.18.1\src/u8g_font.c **** 
 224:u8glib_arm_v1.18.1\src/u8g_font.c ****   i = start;  
 843              		.loc 1 224 0
 844 0048 FB7B     		ldrb	r3, [r7, #15]
 845 004a FB74     		strb	r3, [r7, #19]
 846              	.L50:
 225:u8glib_arm_v1.18.1\src/u8g_font.c ****   for(;;)
 226:u8glib_arm_v1.18.1\src/u8g_font.c ****   {
 227:u8glib_arm_v1.18.1\src/u8g_font.c ****     if ( u8g_pgm_read((u8g_pgm_uint8_t *)(p)) == 255 )
 847              		.loc 1 227 0
 848 004c 7B69     		ldr	r3, [r7, #20]
 849 004e 1B78     		ldrb	r3, [r3]	@ zero_extendqisi2
 850 0050 FF2B     		cmp	r3, #255
 851 0052 03D1     		bne	.L46
 228:u8glib_arm_v1.18.1\src/u8g_font.c ****     {
 229:u8glib_arm_v1.18.1\src/u8g_font.c ****       p += 1;
 852              		.loc 1 229 0
 853 0054 7B69     		ldr	r3, [r7, #20]
 854 0056 0133     		adds	r3, r3, #1
ARM GAS  C:\Users\KJA\AppData\Local\Temp\ccevgiJT.s 			page 20


 855 0058 7B61     		str	r3, [r7, #20]
 856 005a 0DE0     		b	.L47
 857              	.L46:
 230:u8glib_arm_v1.18.1\src/u8g_font.c ****     }
 231:u8glib_arm_v1.18.1\src/u8g_font.c ****     else
 232:u8glib_arm_v1.18.1\src/u8g_font.c ****     {
 233:u8glib_arm_v1.18.1\src/u8g_font.c ****       p += u8g_pgm_read( ((u8g_pgm_uint8_t *)(p)) + 2 ) & mask;
 858              		.loc 1 233 0
 859 005c 7B69     		ldr	r3, [r7, #20]
 860 005e 0233     		adds	r3, r3, #2
 861 0060 1A78     		ldrb	r2, [r3]	@ zero_extendqisi2
 862 0062 BB7C     		ldrb	r3, [r7, #18]
 863 0064 1340     		ands	r3, r3, r2
 864 0066 DBB2     		uxtb	r3, r3
 865 0068 1A46     		mov	r2, r3
 866 006a 7B69     		ldr	r3, [r7, #20]
 867 006c 1344     		add	r3, r3, r2
 868 006e 7B61     		str	r3, [r7, #20]
 234:u8glib_arm_v1.18.1\src/u8g_font.c ****       p += data_structure_size;
 869              		.loc 1 234 0
 870 0070 3B7C     		ldrb	r3, [r7, #16]	@ zero_extendqisi2
 871 0072 7A69     		ldr	r2, [r7, #20]
 872 0074 1344     		add	r3, r3, r2
 873 0076 7B61     		str	r3, [r7, #20]
 874              	.L47:
 235:u8glib_arm_v1.18.1\src/u8g_font.c ****     }
 236:u8glib_arm_v1.18.1\src/u8g_font.c ****     if ( i == end )
 875              		.loc 1 236 0
 876 0078 FA7C     		ldrb	r2, [r7, #19]	@ zero_extendqisi2
 877 007a BB7B     		ldrb	r3, [r7, #14]	@ zero_extendqisi2
 878 007c 9A42     		cmp	r2, r3
 879 007e 00D1     		bne	.L48
 237:u8glib_arm_v1.18.1\src/u8g_font.c ****       break;
 880              		.loc 1 237 0
 881 0080 03E0     		b	.L52
 882              	.L48:
 238:u8glib_arm_v1.18.1\src/u8g_font.c ****     i++;
 883              		.loc 1 238 0
 884 0082 FB7C     		ldrb	r3, [r7, #19]	@ zero_extendqisi2
 885 0084 0133     		adds	r3, r3, #1
 886 0086 FB74     		strb	r3, [r7, #19]
 239:u8glib_arm_v1.18.1\src/u8g_font.c ****   }
 887              		.loc 1 239 0
 888 0088 E0E7     		b	.L50
 889              	.L52:
 240:u8glib_arm_v1.18.1\src/u8g_font.c ****     
 241:u8glib_arm_v1.18.1\src/u8g_font.c ****   return p - (uint8_t *)font;
 890              		.loc 1 241 0
 891 008a 7A69     		ldr	r2, [r7, #20]
 892 008c 7B68     		ldr	r3, [r7, #4]
 893 008e D31A     		subs	r3, r2, r3
 242:u8glib_arm_v1.18.1\src/u8g_font.c **** }
 894              		.loc 1 242 0
 895 0090 1846     		mov	r0, r3
 896 0092 1837     		adds	r7, r7, #24
 897              		.cfi_def_cfa_offset 8
 898 0094 BD46     		mov	sp, r7
ARM GAS  C:\Users\KJA\AppData\Local\Temp\ccevgiJT.s 			page 21


 899              		.cfi_def_cfa_register 13
 900              		@ sp needed
 901 0096 80BD     		pop	{r7, pc}
 902              		.cfi_endproc
 903              	.LFE19:
 904              		.size	u8g_font_GetSize, .-u8g_font_GetSize
 905              		.section	.text.u8g_GetFontBBXWidth,"ax",%progbits
 906              		.align	2
 907              		.global	u8g_GetFontBBXWidth
 908              		.thumb
 909              		.thumb_func
 910              		.type	u8g_GetFontBBXWidth, %function
 911              	u8g_GetFontBBXWidth:
 912              	.LFB20:
 243:u8glib_arm_v1.18.1\src/u8g_font.c **** 
 244:u8glib_arm_v1.18.1\src/u8g_font.c **** /*========================================================================*/
 245:u8glib_arm_v1.18.1\src/u8g_font.c **** /* u8g interface, font access */
 246:u8glib_arm_v1.18.1\src/u8g_font.c **** 
 247:u8glib_arm_v1.18.1\src/u8g_font.c **** uint8_t u8g_GetFontBBXWidth(u8g_t *u8g)
 248:u8glib_arm_v1.18.1\src/u8g_font.c **** {
 913              		.loc 1 248 0
 914              		.cfi_startproc
 915              		@ args = 0, pretend = 0, frame = 8
 916              		@ frame_needed = 1, uses_anonymous_args = 0
 917 0000 80B5     		push	{r7, lr}
 918              		.cfi_def_cfa_offset 8
 919              		.cfi_offset 7, -8
 920              		.cfi_offset 14, -4
 921 0002 82B0     		sub	sp, sp, #8
 922              		.cfi_def_cfa_offset 16
 923 0004 00AF     		add	r7, sp, #0
 924              		.cfi_def_cfa_register 7
 925 0006 7860     		str	r0, [r7, #4]
 249:u8glib_arm_v1.18.1\src/u8g_font.c ****   return u8g_font_GetBBXWidth(u8g->font);
 926              		.loc 1 249 0
 927 0008 7B68     		ldr	r3, [r7, #4]
 928 000a 9B68     		ldr	r3, [r3, #8]
 929 000c 1846     		mov	r0, r3
 930 000e FFF7FEFF 		bl	u8g_font_GetBBXWidth
 931 0012 0346     		mov	r3, r0
 250:u8glib_arm_v1.18.1\src/u8g_font.c **** }
 932              		.loc 1 250 0
 933 0014 1846     		mov	r0, r3
 934 0016 0837     		adds	r7, r7, #8
 935              		.cfi_def_cfa_offset 8
 936 0018 BD46     		mov	sp, r7
 937              		.cfi_def_cfa_register 13
 938              		@ sp needed
 939 001a 80BD     		pop	{r7, pc}
 940              		.cfi_endproc
 941              	.LFE20:
 942              		.size	u8g_GetFontBBXWidth, .-u8g_GetFontBBXWidth
 943              		.section	.text.u8g_GetFontBBXHeight,"ax",%progbits
 944              		.align	2
 945              		.global	u8g_GetFontBBXHeight
 946              		.thumb
 947              		.thumb_func
ARM GAS  C:\Users\KJA\AppData\Local\Temp\ccevgiJT.s 			page 22


 948              		.type	u8g_GetFontBBXHeight, %function
 949              	u8g_GetFontBBXHeight:
 950              	.LFB21:
 251:u8glib_arm_v1.18.1\src/u8g_font.c **** 
 252:u8glib_arm_v1.18.1\src/u8g_font.c **** uint8_t u8g_GetFontBBXHeight(u8g_t *u8g)
 253:u8glib_arm_v1.18.1\src/u8g_font.c **** {
 951              		.loc 1 253 0
 952              		.cfi_startproc
 953              		@ args = 0, pretend = 0, frame = 8
 954              		@ frame_needed = 1, uses_anonymous_args = 0
 955 0000 80B5     		push	{r7, lr}
 956              		.cfi_def_cfa_offset 8
 957              		.cfi_offset 7, -8
 958              		.cfi_offset 14, -4
 959 0002 82B0     		sub	sp, sp, #8
 960              		.cfi_def_cfa_offset 16
 961 0004 00AF     		add	r7, sp, #0
 962              		.cfi_def_cfa_register 7
 963 0006 7860     		str	r0, [r7, #4]
 254:u8glib_arm_v1.18.1\src/u8g_font.c ****   return u8g_font_GetBBXHeight(u8g->font);
 964              		.loc 1 254 0
 965 0008 7B68     		ldr	r3, [r7, #4]
 966 000a 9B68     		ldr	r3, [r3, #8]
 967 000c 1846     		mov	r0, r3
 968 000e FFF7FEFF 		bl	u8g_font_GetBBXHeight
 969 0012 0346     		mov	r3, r0
 255:u8glib_arm_v1.18.1\src/u8g_font.c **** }
 970              		.loc 1 255 0
 971 0014 1846     		mov	r0, r3
 972 0016 0837     		adds	r7, r7, #8
 973              		.cfi_def_cfa_offset 8
 974 0018 BD46     		mov	sp, r7
 975              		.cfi_def_cfa_register 13
 976              		@ sp needed
 977 001a 80BD     		pop	{r7, pc}
 978              		.cfi_endproc
 979              	.LFE21:
 980              		.size	u8g_GetFontBBXHeight, .-u8g_GetFontBBXHeight
 981              		.section	.text.u8g_GetFontBBXOffX,"ax",%progbits
 982              		.align	2
 983              		.global	u8g_GetFontBBXOffX
 984              		.thumb
 985              		.thumb_func
 986              		.type	u8g_GetFontBBXOffX, %function
 987              	u8g_GetFontBBXOffX:
 988              	.LFB22:
 256:u8glib_arm_v1.18.1\src/u8g_font.c **** 
 257:u8glib_arm_v1.18.1\src/u8g_font.c **** int8_t u8g_GetFontBBXOffX(u8g_t *u8g) U8G_NOINLINE;
 258:u8glib_arm_v1.18.1\src/u8g_font.c **** int8_t u8g_GetFontBBXOffX(u8g_t *u8g)
 259:u8glib_arm_v1.18.1\src/u8g_font.c **** {
 989              		.loc 1 259 0
 990              		.cfi_startproc
 991              		@ args = 0, pretend = 0, frame = 8
 992              		@ frame_needed = 1, uses_anonymous_args = 0
 993 0000 80B5     		push	{r7, lr}
 994              		.cfi_def_cfa_offset 8
 995              		.cfi_offset 7, -8
ARM GAS  C:\Users\KJA\AppData\Local\Temp\ccevgiJT.s 			page 23


 996              		.cfi_offset 14, -4
 997 0002 82B0     		sub	sp, sp, #8
 998              		.cfi_def_cfa_offset 16
 999 0004 00AF     		add	r7, sp, #0
 1000              		.cfi_def_cfa_register 7
 1001 0006 7860     		str	r0, [r7, #4]
 260:u8glib_arm_v1.18.1\src/u8g_font.c ****   return u8g_font_GetBBXOffX(u8g->font);
 1002              		.loc 1 260 0
 1003 0008 7B68     		ldr	r3, [r7, #4]
 1004 000a 9B68     		ldr	r3, [r3, #8]
 1005 000c 1846     		mov	r0, r3
 1006 000e FFF7FEFF 		bl	u8g_font_GetBBXOffX
 1007 0012 0346     		mov	r3, r0
 261:u8glib_arm_v1.18.1\src/u8g_font.c **** }
 1008              		.loc 1 261 0
 1009 0014 1846     		mov	r0, r3
 1010 0016 0837     		adds	r7, r7, #8
 1011              		.cfi_def_cfa_offset 8
 1012 0018 BD46     		mov	sp, r7
 1013              		.cfi_def_cfa_register 13
 1014              		@ sp needed
 1015 001a 80BD     		pop	{r7, pc}
 1016              		.cfi_endproc
 1017              	.LFE22:
 1018              		.size	u8g_GetFontBBXOffX, .-u8g_GetFontBBXOffX
 1019              		.section	.text.u8g_GetFontBBXOffY,"ax",%progbits
 1020              		.align	2
 1021              		.global	u8g_GetFontBBXOffY
 1022              		.thumb
 1023              		.thumb_func
 1024              		.type	u8g_GetFontBBXOffY, %function
 1025              	u8g_GetFontBBXOffY:
 1026              	.LFB23:
 262:u8glib_arm_v1.18.1\src/u8g_font.c **** 
 263:u8glib_arm_v1.18.1\src/u8g_font.c **** int8_t u8g_GetFontBBXOffY(u8g_t *u8g) U8G_NOINLINE;
 264:u8glib_arm_v1.18.1\src/u8g_font.c **** int8_t u8g_GetFontBBXOffY(u8g_t *u8g)
 265:u8glib_arm_v1.18.1\src/u8g_font.c **** {
 1027              		.loc 1 265 0
 1028              		.cfi_startproc
 1029              		@ args = 0, pretend = 0, frame = 8
 1030              		@ frame_needed = 1, uses_anonymous_args = 0
 1031 0000 80B5     		push	{r7, lr}
 1032              		.cfi_def_cfa_offset 8
 1033              		.cfi_offset 7, -8
 1034              		.cfi_offset 14, -4
 1035 0002 82B0     		sub	sp, sp, #8
 1036              		.cfi_def_cfa_offset 16
 1037 0004 00AF     		add	r7, sp, #0
 1038              		.cfi_def_cfa_register 7
 1039 0006 7860     		str	r0, [r7, #4]
 266:u8glib_arm_v1.18.1\src/u8g_font.c ****   return u8g_font_GetBBXOffY(u8g->font);
 1040              		.loc 1 266 0
 1041 0008 7B68     		ldr	r3, [r7, #4]
 1042 000a 9B68     		ldr	r3, [r3, #8]
 1043 000c 1846     		mov	r0, r3
 1044 000e FFF7FEFF 		bl	u8g_font_GetBBXOffY
 1045 0012 0346     		mov	r3, r0
ARM GAS  C:\Users\KJA\AppData\Local\Temp\ccevgiJT.s 			page 24


 267:u8glib_arm_v1.18.1\src/u8g_font.c **** }
 1046              		.loc 1 267 0
 1047 0014 1846     		mov	r0, r3
 1048 0016 0837     		adds	r7, r7, #8
 1049              		.cfi_def_cfa_offset 8
 1050 0018 BD46     		mov	sp, r7
 1051              		.cfi_def_cfa_register 13
 1052              		@ sp needed
 1053 001a 80BD     		pop	{r7, pc}
 1054              		.cfi_endproc
 1055              	.LFE23:
 1056              		.size	u8g_GetFontBBXOffY, .-u8g_GetFontBBXOffY
 1057              		.section	.text.u8g_GetFontCapitalAHeight,"ax",%progbits
 1058              		.align	2
 1059              		.global	u8g_GetFontCapitalAHeight
 1060              		.thumb
 1061              		.thumb_func
 1062              		.type	u8g_GetFontCapitalAHeight, %function
 1063              	u8g_GetFontCapitalAHeight:
 1064              	.LFB24:
 268:u8glib_arm_v1.18.1\src/u8g_font.c **** 
 269:u8glib_arm_v1.18.1\src/u8g_font.c **** uint8_t u8g_GetFontCapitalAHeight(u8g_t *u8g) U8G_NOINLINE; 
 270:u8glib_arm_v1.18.1\src/u8g_font.c **** uint8_t u8g_GetFontCapitalAHeight(u8g_t *u8g)
 271:u8glib_arm_v1.18.1\src/u8g_font.c **** {
 1065              		.loc 1 271 0
 1066              		.cfi_startproc
 1067              		@ args = 0, pretend = 0, frame = 8
 1068              		@ frame_needed = 1, uses_anonymous_args = 0
 1069 0000 80B5     		push	{r7, lr}
 1070              		.cfi_def_cfa_offset 8
 1071              		.cfi_offset 7, -8
 1072              		.cfi_offset 14, -4
 1073 0002 82B0     		sub	sp, sp, #8
 1074              		.cfi_def_cfa_offset 16
 1075 0004 00AF     		add	r7, sp, #0
 1076              		.cfi_def_cfa_register 7
 1077 0006 7860     		str	r0, [r7, #4]
 272:u8glib_arm_v1.18.1\src/u8g_font.c ****   return u8g_font_GetCapitalAHeight(u8g->font);
 1078              		.loc 1 272 0
 1079 0008 7B68     		ldr	r3, [r7, #4]
 1080 000a 9B68     		ldr	r3, [r3, #8]
 1081 000c 1846     		mov	r0, r3
 1082 000e FFF7FEFF 		bl	u8g_font_GetCapitalAHeight
 1083 0012 0346     		mov	r3, r0
 273:u8glib_arm_v1.18.1\src/u8g_font.c **** }
 1084              		.loc 1 273 0
 1085 0014 1846     		mov	r0, r3
 1086 0016 0837     		adds	r7, r7, #8
 1087              		.cfi_def_cfa_offset 8
 1088 0018 BD46     		mov	sp, r7
 1089              		.cfi_def_cfa_register 13
 1090              		@ sp needed
 1091 001a 80BD     		pop	{r7, pc}
 1092              		.cfi_endproc
 1093              	.LFE24:
 1094              		.size	u8g_GetFontCapitalAHeight, .-u8g_GetFontCapitalAHeight
 1095              		.section	.text.u8g_CopyGlyphDataToCache,"ax",%progbits
ARM GAS  C:\Users\KJA\AppData\Local\Temp\ccevgiJT.s 			page 25


 1096              		.align	2
 1097              		.thumb
 1098              		.thumb_func
 1099              		.type	u8g_CopyGlyphDataToCache, %function
 1100              	u8g_CopyGlyphDataToCache:
 1101              	.LFB25:
 274:u8glib_arm_v1.18.1\src/u8g_font.c **** 
 275:u8glib_arm_v1.18.1\src/u8g_font.c **** /*========================================================================*/
 276:u8glib_arm_v1.18.1\src/u8g_font.c **** /* glyph handling */
 277:u8glib_arm_v1.18.1\src/u8g_font.c **** 
 278:u8glib_arm_v1.18.1\src/u8g_font.c **** static void u8g_CopyGlyphDataToCache(u8g_t *u8g, u8g_glyph_t g)
 279:u8glib_arm_v1.18.1\src/u8g_font.c **** {
 1102              		.loc 1 279 0
 1103              		.cfi_startproc
 1104              		@ args = 0, pretend = 0, frame = 16
 1105              		@ frame_needed = 1, uses_anonymous_args = 0
 1106 0000 80B5     		push	{r7, lr}
 1107              		.cfi_def_cfa_offset 8
 1108              		.cfi_offset 7, -8
 1109              		.cfi_offset 14, -4
 1110 0002 84B0     		sub	sp, sp, #16
 1111              		.cfi_def_cfa_offset 24
 1112 0004 00AF     		add	r7, sp, #0
 1113              		.cfi_def_cfa_register 7
 1114 0006 7860     		str	r0, [r7, #4]
 1115 0008 3960     		str	r1, [r7]
 280:u8glib_arm_v1.18.1\src/u8g_font.c ****   uint8_t tmp;
 281:u8glib_arm_v1.18.1\src/u8g_font.c ****   switch( u8g_font_GetFormat(u8g->font) )
 1116              		.loc 1 281 0
 1117 000a 7B68     		ldr	r3, [r7, #4]
 1118 000c 9B68     		ldr	r3, [r3, #8]
 1119 000e 1846     		mov	r0, r3
 1120 0010 FFF7FEFF 		bl	u8g_font_GetFormat
 1121 0014 0346     		mov	r3, r0
 1122 0016 002B     		cmp	r3, #0
 1123 0018 01D0     		beq	.L65
 1124 001a 022B     		cmp	r3, #2
 1125 001c 1BD1     		bne	.L67
 1126              	.L65:
 282:u8glib_arm_v1.18.1\src/u8g_font.c ****   {
 283:u8glib_arm_v1.18.1\src/u8g_font.c ****     case 0:
 284:u8glib_arm_v1.18.1\src/u8g_font.c ****     case 2:
 285:u8glib_arm_v1.18.1\src/u8g_font.c ****   /*
 286:u8glib_arm_v1.18.1\src/u8g_font.c ****     format 0
 287:u8glib_arm_v1.18.1\src/u8g_font.c ****     glyph information 
 288:u8glib_arm_v1.18.1\src/u8g_font.c ****     offset
 289:u8glib_arm_v1.18.1\src/u8g_font.c ****     0             BBX width                                       unsigned
 290:u8glib_arm_v1.18.1\src/u8g_font.c ****     1             BBX height                                      unsigned
 291:u8glib_arm_v1.18.1\src/u8g_font.c ****     2             data size                                          unsigned    (BBX width + 7)/8 
 292:u8glib_arm_v1.18.1\src/u8g_font.c ****     3             DWIDTH                                          signed
 293:u8glib_arm_v1.18.1\src/u8g_font.c ****     4             BBX xoffset                                    signed
 294:u8glib_arm_v1.18.1\src/u8g_font.c ****     5             BBX yoffset                                    signed
 295:u8glib_arm_v1.18.1\src/u8g_font.c ****   byte 0 == 255 indicates empty glyph
 296:u8glib_arm_v1.18.1\src/u8g_font.c ****   */
 297:u8glib_arm_v1.18.1\src/u8g_font.c ****       u8g->glyph_width =  u8g_pgm_read( ((u8g_pgm_uint8_t *)g) + 0 );
 1127              		.loc 1 297 0
 1128 001e 3B68     		ldr	r3, [r7]
ARM GAS  C:\Users\KJA\AppData\Local\Temp\ccevgiJT.s 			page 26


 1129 0020 1A78     		ldrb	r2, [r3]	@ zero_extendqisi2
 1130 0022 7B68     		ldr	r3, [r7, #4]
 1131 0024 DA77     		strb	r2, [r3, #31]
 298:u8glib_arm_v1.18.1\src/u8g_font.c ****       u8g->glyph_height =  u8g_pgm_read( ((u8g_pgm_uint8_t *)g) + 1 );
 1132              		.loc 1 298 0
 1133 0026 3B68     		ldr	r3, [r7]
 1134 0028 5A78     		ldrb	r2, [r3, #1]	@ zero_extendqisi2
 1135 002a 7B68     		ldr	r3, [r7, #4]
 1136 002c 83F82020 		strb	r2, [r3, #32]
 299:u8glib_arm_v1.18.1\src/u8g_font.c ****       u8g->glyph_dx =  u8g_pgm_read( ((u8g_pgm_uint8_t *)g) + 3 );
 1137              		.loc 1 299 0
 1138 0030 3B68     		ldr	r3, [r7]
 1139 0032 0333     		adds	r3, r3, #3
 1140 0034 1B78     		ldrb	r3, [r3]	@ zero_extendqisi2
 1141 0036 DAB2     		uxtb	r2, r3
 1142 0038 7B68     		ldr	r3, [r7, #4]
 1143 003a 1A77     		strb	r2, [r3, #28]
 300:u8glib_arm_v1.18.1\src/u8g_font.c ****       u8g->glyph_x =  u8g_pgm_read( ((u8g_pgm_uint8_t *)g) + 4 );
 1144              		.loc 1 300 0
 1145 003c 3B68     		ldr	r3, [r7]
 1146 003e 0433     		adds	r3, r3, #4
 1147 0040 1B78     		ldrb	r3, [r3]	@ zero_extendqisi2
 1148 0042 DAB2     		uxtb	r2, r3
 1149 0044 7B68     		ldr	r3, [r7, #4]
 1150 0046 5A77     		strb	r2, [r3, #29]
 301:u8glib_arm_v1.18.1\src/u8g_font.c ****       u8g->glyph_y =  u8g_pgm_read( ((u8g_pgm_uint8_t *)g) + 5 );
 1151              		.loc 1 301 0
 1152 0048 3B68     		ldr	r3, [r7]
 1153 004a 0533     		adds	r3, r3, #5
 1154 004c 1B78     		ldrb	r3, [r3]	@ zero_extendqisi2
 1155 004e DAB2     		uxtb	r2, r3
 1156 0050 7B68     		ldr	r3, [r7, #4]
 1157 0052 9A77     		strb	r2, [r3, #30]
 302:u8glib_arm_v1.18.1\src/u8g_font.c ****       break;
 1158              		.loc 1 302 0
 1159 0054 30E0     		b	.L63
 1160              	.L67:
 303:u8glib_arm_v1.18.1\src/u8g_font.c ****     case 1:
 304:u8glib_arm_v1.18.1\src/u8g_font.c ****     default:
 305:u8glib_arm_v1.18.1\src/u8g_font.c ****       /*
 306:u8glib_arm_v1.18.1\src/u8g_font.c **** format 1
 307:u8glib_arm_v1.18.1\src/u8g_font.c ****   0             BBX xoffset                                    signed   --> upper 4 Bit
 308:u8glib_arm_v1.18.1\src/u8g_font.c ****   0             BBX yoffset                                    signed --> lower 4 Bit
 309:u8glib_arm_v1.18.1\src/u8g_font.c ****   1             BBX width                                       unsigned --> upper 4 Bit
 310:u8glib_arm_v1.18.1\src/u8g_font.c ****   1             BBX height                                      unsigned --> lower 4 Bit
 311:u8glib_arm_v1.18.1\src/u8g_font.c ****   2             data size                                           unsigned -(BBX width + 7)/8 * B
 312:u8glib_arm_v1.18.1\src/u8g_font.c ****   2             DWIDTH                                          signed --> upper  4 Bit
 313:u8glib_arm_v1.18.1\src/u8g_font.c ****   byte 0 == 255 indicates empty glyph
 314:u8glib_arm_v1.18.1\src/u8g_font.c ****       */
 315:u8glib_arm_v1.18.1\src/u8g_font.c ****     
 316:u8glib_arm_v1.18.1\src/u8g_font.c ****       tmp = u8g_pgm_read( ((u8g_pgm_uint8_t *)g) + 0 );
 1161              		.loc 1 316 0
 1162 0056 3B68     		ldr	r3, [r7]
 1163 0058 1B78     		ldrb	r3, [r3]
 1164 005a FB73     		strb	r3, [r7, #15]
 317:u8glib_arm_v1.18.1\src/u8g_font.c ****       u8g->glyph_y =  tmp & 15;
 1165              		.loc 1 317 0
ARM GAS  C:\Users\KJA\AppData\Local\Temp\ccevgiJT.s 			page 27


 1166 005c FB7B     		ldrb	r3, [r7, #15]	@ zero_extendqisi2
 1167 005e 03F00F03 		and	r3, r3, #15
 1168 0062 DAB2     		uxtb	r2, r3
 1169 0064 7B68     		ldr	r3, [r7, #4]
 1170 0066 9A77     		strb	r2, [r3, #30]
 318:u8glib_arm_v1.18.1\src/u8g_font.c ****       u8g->glyph_y-=2;
 1171              		.loc 1 318 0
 1172 0068 7B68     		ldr	r3, [r7, #4]
 1173 006a 9B7F     		ldrb	r3, [r3, #30]	@ zero_extendqisi2
 1174 006c DBB2     		uxtb	r3, r3
 1175 006e 023B     		subs	r3, r3, #2
 1176 0070 DBB2     		uxtb	r3, r3
 1177 0072 DAB2     		uxtb	r2, r3
 1178 0074 7B68     		ldr	r3, [r7, #4]
 1179 0076 9A77     		strb	r2, [r3, #30]
 319:u8glib_arm_v1.18.1\src/u8g_font.c ****       tmp >>= 4;
 1180              		.loc 1 319 0
 1181 0078 FB7B     		ldrb	r3, [r7, #15]	@ zero_extendqisi2
 1182 007a 1B09     		lsrs	r3, r3, #4
 1183 007c FB73     		strb	r3, [r7, #15]
 320:u8glib_arm_v1.18.1\src/u8g_font.c ****       u8g->glyph_x =  tmp;
 1184              		.loc 1 320 0
 1185 007e FA7B     		ldrb	r2, [r7, #15]	@ zero_extendqisi2
 1186 0080 7B68     		ldr	r3, [r7, #4]
 1187 0082 5A77     		strb	r2, [r3, #29]
 321:u8glib_arm_v1.18.1\src/u8g_font.c ****     
 322:u8glib_arm_v1.18.1\src/u8g_font.c ****       tmp = u8g_pgm_read( ((u8g_pgm_uint8_t *)g) + 1 );
 1188              		.loc 1 322 0
 1189 0084 3B68     		ldr	r3, [r7]
 1190 0086 5B78     		ldrb	r3, [r3, #1]
 1191 0088 FB73     		strb	r3, [r7, #15]
 323:u8glib_arm_v1.18.1\src/u8g_font.c ****       u8g->glyph_height =  tmp & 15;
 1192              		.loc 1 323 0
 1193 008a FB7B     		ldrb	r3, [r7, #15]
 1194 008c 03F00F03 		and	r3, r3, #15
 1195 0090 DAB2     		uxtb	r2, r3
 1196 0092 7B68     		ldr	r3, [r7, #4]
 1197 0094 83F82020 		strb	r2, [r3, #32]
 324:u8glib_arm_v1.18.1\src/u8g_font.c ****       tmp >>= 4;
 1198              		.loc 1 324 0
 1199 0098 FB7B     		ldrb	r3, [r7, #15]	@ zero_extendqisi2
 1200 009a 1B09     		lsrs	r3, r3, #4
 1201 009c FB73     		strb	r3, [r7, #15]
 325:u8glib_arm_v1.18.1\src/u8g_font.c ****       u8g->glyph_width =  tmp;
 1202              		.loc 1 325 0
 1203 009e 7B68     		ldr	r3, [r7, #4]
 1204 00a0 FA7B     		ldrb	r2, [r7, #15]
 1205 00a2 DA77     		strb	r2, [r3, #31]
 326:u8glib_arm_v1.18.1\src/u8g_font.c ****       
 327:u8glib_arm_v1.18.1\src/u8g_font.c ****       tmp = u8g_pgm_read( ((u8g_pgm_uint8_t *)g) + 2 );
 1206              		.loc 1 327 0
 1207 00a4 3B68     		ldr	r3, [r7]
 1208 00a6 9B78     		ldrb	r3, [r3, #2]
 1209 00a8 FB73     		strb	r3, [r7, #15]
 328:u8glib_arm_v1.18.1\src/u8g_font.c ****       tmp >>= 4;
 1210              		.loc 1 328 0
 1211 00aa FB7B     		ldrb	r3, [r7, #15]	@ zero_extendqisi2
ARM GAS  C:\Users\KJA\AppData\Local\Temp\ccevgiJT.s 			page 28


 1212 00ac 1B09     		lsrs	r3, r3, #4
 1213 00ae FB73     		strb	r3, [r7, #15]
 329:u8glib_arm_v1.18.1\src/u8g_font.c ****       u8g->glyph_dx = tmp;
 1214              		.loc 1 329 0
 1215 00b0 FA7B     		ldrb	r2, [r7, #15]	@ zero_extendqisi2
 1216 00b2 7B68     		ldr	r3, [r7, #4]
 1217 00b4 1A77     		strb	r2, [r3, #28]
 330:u8glib_arm_v1.18.1\src/u8g_font.c ****     
 331:u8glib_arm_v1.18.1\src/u8g_font.c ****       
 332:u8glib_arm_v1.18.1\src/u8g_font.c ****       break;
 1218              		.loc 1 332 0
 1219 00b6 00BF     		nop
 1220              	.L63:
 333:u8glib_arm_v1.18.1\src/u8g_font.c ****   }
 334:u8glib_arm_v1.18.1\src/u8g_font.c **** }
 1221              		.loc 1 334 0
 1222 00b8 1037     		adds	r7, r7, #16
 1223              		.cfi_def_cfa_offset 8
 1224 00ba BD46     		mov	sp, r7
 1225              		.cfi_def_cfa_register 13
 1226              		@ sp needed
 1227 00bc 80BD     		pop	{r7, pc}
 1228              		.cfi_endproc
 1229              	.LFE25:
 1230              		.size	u8g_CopyGlyphDataToCache, .-u8g_CopyGlyphDataToCache
 1231 00be 00BF     		.section	.text.u8g_FillEmptyGlyphCache,"ax",%progbits
 1232              		.align	2
 1233              		.thumb
 1234              		.thumb_func
 1235              		.type	u8g_FillEmptyGlyphCache, %function
 1236              	u8g_FillEmptyGlyphCache:
 1237              	.LFB26:
 335:u8glib_arm_v1.18.1\src/u8g_font.c **** 
 336:u8glib_arm_v1.18.1\src/u8g_font.c **** //void u8g_FillEmptyGlyphCache(u8g_t *u8g) U8G_NOINLINE;
 337:u8glib_arm_v1.18.1\src/u8g_font.c **** static void u8g_FillEmptyGlyphCache(u8g_t *u8g)
 338:u8glib_arm_v1.18.1\src/u8g_font.c **** {
 1238              		.loc 1 338 0
 1239              		.cfi_startproc
 1240              		@ args = 0, pretend = 0, frame = 8
 1241              		@ frame_needed = 1, uses_anonymous_args = 0
 1242              		@ link register save eliminated.
 1243 0000 80B4     		push	{r7}
 1244              		.cfi_def_cfa_offset 4
 1245              		.cfi_offset 7, -4
 1246 0002 83B0     		sub	sp, sp, #12
 1247              		.cfi_def_cfa_offset 16
 1248 0004 00AF     		add	r7, sp, #0
 1249              		.cfi_def_cfa_register 7
 1250 0006 7860     		str	r0, [r7, #4]
 339:u8glib_arm_v1.18.1\src/u8g_font.c ****   u8g->glyph_dx = 0;
 1251              		.loc 1 339 0
 1252 0008 7B68     		ldr	r3, [r7, #4]
 1253 000a 0022     		movs	r2, #0
 1254 000c 1A77     		strb	r2, [r3, #28]
 340:u8glib_arm_v1.18.1\src/u8g_font.c ****   u8g->glyph_width = 0;
 1255              		.loc 1 340 0
 1256 000e 7B68     		ldr	r3, [r7, #4]
ARM GAS  C:\Users\KJA\AppData\Local\Temp\ccevgiJT.s 			page 29


 1257 0010 0022     		movs	r2, #0
 1258 0012 DA77     		strb	r2, [r3, #31]
 341:u8glib_arm_v1.18.1\src/u8g_font.c ****   u8g->glyph_height = 0;
 1259              		.loc 1 341 0
 1260 0014 7B68     		ldr	r3, [r7, #4]
 1261 0016 0022     		movs	r2, #0
 1262 0018 83F82020 		strb	r2, [r3, #32]
 342:u8glib_arm_v1.18.1\src/u8g_font.c ****   u8g->glyph_x = 0;
 1263              		.loc 1 342 0
 1264 001c 7B68     		ldr	r3, [r7, #4]
 1265 001e 0022     		movs	r2, #0
 1266 0020 5A77     		strb	r2, [r3, #29]
 343:u8glib_arm_v1.18.1\src/u8g_font.c ****   u8g->glyph_y = 0;
 1267              		.loc 1 343 0
 1268 0022 7B68     		ldr	r3, [r7, #4]
 1269 0024 0022     		movs	r2, #0
 1270 0026 9A77     		strb	r2, [r3, #30]
 344:u8glib_arm_v1.18.1\src/u8g_font.c **** }
 1271              		.loc 1 344 0
 1272 0028 0C37     		adds	r7, r7, #12
 1273              		.cfi_def_cfa_offset 4
 1274 002a BD46     		mov	sp, r7
 1275              		.cfi_def_cfa_register 13
 1276              		@ sp needed
 1277 002c 5DF8047B 		ldr	r7, [sp], #4
 1278              		.cfi_restore 7
 1279              		.cfi_def_cfa_offset 0
 1280 0030 7047     		bx	lr
 1281              		.cfi_endproc
 1282              	.LFE26:
 1283              		.size	u8g_FillEmptyGlyphCache, .-u8g_FillEmptyGlyphCache
 1284 0032 00BF     		.section	.text.u8g_GetGlyph,"ax",%progbits
 1285              		.align	2
 1286              		.global	u8g_GetGlyph
 1287              		.thumb
 1288              		.thumb_func
 1289              		.type	u8g_GetGlyph, %function
 1290              	u8g_GetGlyph:
 1291              	.LFB27:
 345:u8glib_arm_v1.18.1\src/u8g_font.c **** 
 346:u8glib_arm_v1.18.1\src/u8g_font.c **** /*
 347:u8glib_arm_v1.18.1\src/u8g_font.c ****   Find (with some speed optimization) and return a pointer to the glyph data structure
 348:u8glib_arm_v1.18.1\src/u8g_font.c ****   Also uncompress (format 1) and copy the content of the data structure to the u8g structure
 349:u8glib_arm_v1.18.1\src/u8g_font.c **** */
 350:u8glib_arm_v1.18.1\src/u8g_font.c **** u8g_glyph_t u8g_GetGlyph(u8g_t *u8g, uint8_t requested_encoding)
 351:u8glib_arm_v1.18.1\src/u8g_font.c **** {
 1292              		.loc 1 351 0
 1293              		.cfi_startproc
 1294              		@ args = 0, pretend = 0, frame = 24
 1295              		@ frame_needed = 1, uses_anonymous_args = 0
 1296 0000 80B5     		push	{r7, lr}
 1297              		.cfi_def_cfa_offset 8
 1298              		.cfi_offset 7, -8
 1299              		.cfi_offset 14, -4
 1300 0002 86B0     		sub	sp, sp, #24
 1301              		.cfi_def_cfa_offset 32
 1302 0004 00AF     		add	r7, sp, #0
ARM GAS  C:\Users\KJA\AppData\Local\Temp\ccevgiJT.s 			page 30


 1303              		.cfi_def_cfa_register 7
 1304 0006 7860     		str	r0, [r7, #4]
 1305 0008 0B46     		mov	r3, r1
 1306 000a FB70     		strb	r3, [r7, #3]
 352:u8glib_arm_v1.18.1\src/u8g_font.c ****   uint8_t *p = (uint8_t *)(u8g->font);
 1307              		.loc 1 352 0
 1308 000c 7B68     		ldr	r3, [r7, #4]
 1309 000e 9B68     		ldr	r3, [r3, #8]
 1310 0010 7B61     		str	r3, [r7, #20]
 353:u8glib_arm_v1.18.1\src/u8g_font.c ****   uint8_t font_format = u8g_font_GetFormat(u8g->font);
 1311              		.loc 1 353 0
 1312 0012 7B68     		ldr	r3, [r7, #4]
 1313 0014 9B68     		ldr	r3, [r3, #8]
 1314 0016 1846     		mov	r0, r3
 1315 0018 FFF7FEFF 		bl	u8g_font_GetFormat
 1316 001c 0346     		mov	r3, r0
 1317 001e 3B74     		strb	r3, [r7, #16]
 354:u8glib_arm_v1.18.1\src/u8g_font.c ****   uint8_t data_structure_size = u8g_font_GetFontGlyphStructureSize(u8g->font);
 1318              		.loc 1 354 0
 1319 0020 7B68     		ldr	r3, [r7, #4]
 1320 0022 9B68     		ldr	r3, [r3, #8]
 1321 0024 1846     		mov	r0, r3
 1322 0026 FFF7FEFF 		bl	u8g_font_GetFontGlyphStructureSize
 1323 002a 0346     		mov	r3, r0
 1324 002c FB73     		strb	r3, [r7, #15]
 355:u8glib_arm_v1.18.1\src/u8g_font.c ****   uint8_t start, end;
 356:u8glib_arm_v1.18.1\src/u8g_font.c ****   uint16_t pos;
 357:u8glib_arm_v1.18.1\src/u8g_font.c ****   uint8_t i;
 358:u8glib_arm_v1.18.1\src/u8g_font.c ****   uint8_t mask = 255;
 1325              		.loc 1 358 0
 1326 002e FF23     		movs	r3, #255
 1327 0030 7B74     		strb	r3, [r7, #17]
 359:u8glib_arm_v1.18.1\src/u8g_font.c **** 
 360:u8glib_arm_v1.18.1\src/u8g_font.c ****   if ( font_format == 1 )
 1328              		.loc 1 360 0
 1329 0032 3B7C     		ldrb	r3, [r7, #16]	@ zero_extendqisi2
 1330 0034 012B     		cmp	r3, #1
 1331 0036 01D1     		bne	.L70
 361:u8glib_arm_v1.18.1\src/u8g_font.c ****     mask = 15;
 1332              		.loc 1 361 0
 1333 0038 0F23     		movs	r3, #15
 1334 003a 7B74     		strb	r3, [r7, #17]
 1335              	.L70:
 362:u8glib_arm_v1.18.1\src/u8g_font.c ****   
 363:u8glib_arm_v1.18.1\src/u8g_font.c ****   start = u8g_font_GetFontStartEncoding(u8g->font);
 1336              		.loc 1 363 0
 1337 003c 7B68     		ldr	r3, [r7, #4]
 1338 003e 9B68     		ldr	r3, [r3, #8]
 1339 0040 1846     		mov	r0, r3
 1340 0042 FFF7FEFF 		bl	u8g_font_GetFontStartEncoding
 1341 0046 0346     		mov	r3, r0
 1342 0048 FB74     		strb	r3, [r7, #19]
 364:u8glib_arm_v1.18.1\src/u8g_font.c ****   end = u8g_font_GetFontEndEncoding(u8g->font);
 1343              		.loc 1 364 0
 1344 004a 7B68     		ldr	r3, [r7, #4]
 1345 004c 9B68     		ldr	r3, [r3, #8]
 1346 004e 1846     		mov	r0, r3
ARM GAS  C:\Users\KJA\AppData\Local\Temp\ccevgiJT.s 			page 31


 1347 0050 FFF7FEFF 		bl	u8g_font_GetFontEndEncoding
 1348 0054 0346     		mov	r3, r0
 1349 0056 BB73     		strb	r3, [r7, #14]
 365:u8glib_arm_v1.18.1\src/u8g_font.c **** 
 366:u8glib_arm_v1.18.1\src/u8g_font.c ****   pos = u8g_font_GetEncoding97Pos(u8g->font);
 1350              		.loc 1 366 0
 1351 0058 7B68     		ldr	r3, [r7, #4]
 1352 005a 9B68     		ldr	r3, [r3, #8]
 1353 005c 1846     		mov	r0, r3
 1354 005e FFF7FEFF 		bl	u8g_font_GetEncoding97Pos
 1355 0062 0346     		mov	r3, r0
 1356 0064 BB81     		strh	r3, [r7, #12]	@ movhi
 367:u8glib_arm_v1.18.1\src/u8g_font.c ****   if ( requested_encoding >= 97 && pos > 0 )
 1357              		.loc 1 367 0
 1358 0066 FB78     		ldrb	r3, [r7, #3]	@ zero_extendqisi2
 1359 0068 602B     		cmp	r3, #96
 1360 006a 09D9     		bls	.L71
 1361              		.loc 1 367 0 is_stmt 0 discriminator 1
 1362 006c BB89     		ldrh	r3, [r7, #12]
 1363 006e 002B     		cmp	r3, #0
 1364 0070 06D0     		beq	.L71
 368:u8glib_arm_v1.18.1\src/u8g_font.c ****   {
 369:u8glib_arm_v1.18.1\src/u8g_font.c ****     p+= pos;
 1365              		.loc 1 369 0 is_stmt 1
 1366 0072 BB89     		ldrh	r3, [r7, #12]
 1367 0074 7A69     		ldr	r2, [r7, #20]
 1368 0076 1344     		add	r3, r3, r2
 1369 0078 7B61     		str	r3, [r7, #20]
 370:u8glib_arm_v1.18.1\src/u8g_font.c ****     start = 97;
 1370              		.loc 1 370 0
 1371 007a 6123     		movs	r3, #97
 1372 007c FB74     		strb	r3, [r7, #19]
 1373 007e 16E0     		b	.L72
 1374              	.L71:
 371:u8glib_arm_v1.18.1\src/u8g_font.c ****   }
 372:u8glib_arm_v1.18.1\src/u8g_font.c ****   else 
 373:u8glib_arm_v1.18.1\src/u8g_font.c ****   {
 374:u8glib_arm_v1.18.1\src/u8g_font.c ****     pos = u8g_font_GetEncoding65Pos(u8g->font);
 1375              		.loc 1 374 0
 1376 0080 7B68     		ldr	r3, [r7, #4]
 1377 0082 9B68     		ldr	r3, [r3, #8]
 1378 0084 1846     		mov	r0, r3
 1379 0086 FFF7FEFF 		bl	u8g_font_GetEncoding65Pos
 1380 008a 0346     		mov	r3, r0
 1381 008c BB81     		strh	r3, [r7, #12]	@ movhi
 375:u8glib_arm_v1.18.1\src/u8g_font.c ****     if ( requested_encoding >= 65 && pos > 0 )
 1382              		.loc 1 375 0
 1383 008e FB78     		ldrb	r3, [r7, #3]	@ zero_extendqisi2
 1384 0090 402B     		cmp	r3, #64
 1385 0092 09D9     		bls	.L73
 1386              		.loc 1 375 0 is_stmt 0 discriminator 1
 1387 0094 BB89     		ldrh	r3, [r7, #12]
 1388 0096 002B     		cmp	r3, #0
 1389 0098 06D0     		beq	.L73
 376:u8glib_arm_v1.18.1\src/u8g_font.c ****     {
 377:u8glib_arm_v1.18.1\src/u8g_font.c ****       p+= pos;
 1390              		.loc 1 377 0 is_stmt 1
ARM GAS  C:\Users\KJA\AppData\Local\Temp\ccevgiJT.s 			page 32


 1391 009a BB89     		ldrh	r3, [r7, #12]
 1392 009c 7A69     		ldr	r2, [r7, #20]
 1393 009e 1344     		add	r3, r3, r2
 1394 00a0 7B61     		str	r3, [r7, #20]
 378:u8glib_arm_v1.18.1\src/u8g_font.c ****       start = 65;
 1395              		.loc 1 378 0
 1396 00a2 4123     		movs	r3, #65
 1397 00a4 FB74     		strb	r3, [r7, #19]
 1398 00a6 02E0     		b	.L72
 1399              	.L73:
 379:u8glib_arm_v1.18.1\src/u8g_font.c ****     }
 380:u8glib_arm_v1.18.1\src/u8g_font.c ****     else
 381:u8glib_arm_v1.18.1\src/u8g_font.c ****       p += U8G_FONT_DATA_STRUCT_SIZE;       /* skip font general information */  
 1400              		.loc 1 381 0
 1401 00a8 7B69     		ldr	r3, [r7, #20]
 1402 00aa 1133     		adds	r3, r3, #17
 1403 00ac 7B61     		str	r3, [r7, #20]
 1404              	.L72:
 382:u8glib_arm_v1.18.1\src/u8g_font.c ****   }
 383:u8glib_arm_v1.18.1\src/u8g_font.c ****   
 384:u8glib_arm_v1.18.1\src/u8g_font.c ****   if ( requested_encoding > end )
 1405              		.loc 1 384 0
 1406 00ae FA78     		ldrb	r2, [r7, #3]	@ zero_extendqisi2
 1407 00b0 BB7B     		ldrb	r3, [r7, #14]	@ zero_extendqisi2
 1408 00b2 9A42     		cmp	r2, r3
 1409 00b4 04D9     		bls	.L74
 385:u8glib_arm_v1.18.1\src/u8g_font.c ****   {
 386:u8glib_arm_v1.18.1\src/u8g_font.c ****     u8g_FillEmptyGlyphCache(u8g);
 1410              		.loc 1 386 0
 1411 00b6 7868     		ldr	r0, [r7, #4]
 1412 00b8 FFF7FEFF 		bl	u8g_FillEmptyGlyphCache
 387:u8glib_arm_v1.18.1\src/u8g_font.c ****     return NULL;                      /* not found */
 1413              		.loc 1 387 0
 1414 00bc 0023     		movs	r3, #0
 1415 00be 32E0     		b	.L75
 1416              	.L74:
 388:u8glib_arm_v1.18.1\src/u8g_font.c ****   }
 389:u8glib_arm_v1.18.1\src/u8g_font.c ****   
 390:u8glib_arm_v1.18.1\src/u8g_font.c ****   i = start;
 1417              		.loc 1 390 0
 1418 00c0 FB7C     		ldrb	r3, [r7, #19]
 1419 00c2 BB74     		strb	r3, [r7, #18]
 391:u8glib_arm_v1.18.1\src/u8g_font.c ****   if ( i <= end )
 1420              		.loc 1 391 0
 1421 00c4 BA7C     		ldrb	r2, [r7, #18]	@ zero_extendqisi2
 1422 00c6 BB7B     		ldrb	r3, [r7, #14]	@ zero_extendqisi2
 1423 00c8 9A42     		cmp	r2, r3
 1424 00ca 28D8     		bhi	.L76
 1425              	.L81:
 392:u8glib_arm_v1.18.1\src/u8g_font.c ****   {
 393:u8glib_arm_v1.18.1\src/u8g_font.c ****     for(;;)
 394:u8glib_arm_v1.18.1\src/u8g_font.c ****     {
 395:u8glib_arm_v1.18.1\src/u8g_font.c ****       if ( u8g_pgm_read((u8g_pgm_uint8_t *)(p)) == 255 )
 1426              		.loc 1 395 0
 1427 00cc 7B69     		ldr	r3, [r7, #20]
 1428 00ce 1B78     		ldrb	r3, [r3]	@ zero_extendqisi2
 1429 00d0 FF2B     		cmp	r3, #255
ARM GAS  C:\Users\KJA\AppData\Local\Temp\ccevgiJT.s 			page 33


 1430 00d2 03D1     		bne	.L77
 396:u8glib_arm_v1.18.1\src/u8g_font.c ****       {
 397:u8glib_arm_v1.18.1\src/u8g_font.c ****         p += 1;
 1431              		.loc 1 397 0
 1432 00d4 7B69     		ldr	r3, [r7, #20]
 1433 00d6 0133     		adds	r3, r3, #1
 1434 00d8 7B61     		str	r3, [r7, #20]
 1435 00da 17E0     		b	.L78
 1436              	.L77:
 398:u8glib_arm_v1.18.1\src/u8g_font.c ****       }
 399:u8glib_arm_v1.18.1\src/u8g_font.c ****       else
 400:u8glib_arm_v1.18.1\src/u8g_font.c ****       {
 401:u8glib_arm_v1.18.1\src/u8g_font.c ****         if ( i == requested_encoding )
 1437              		.loc 1 401 0
 1438 00dc BA7C     		ldrb	r2, [r7, #18]	@ zero_extendqisi2
 1439 00de FB78     		ldrb	r3, [r7, #3]	@ zero_extendqisi2
 1440 00e0 9A42     		cmp	r2, r3
 1441 00e2 05D1     		bne	.L79
 402:u8glib_arm_v1.18.1\src/u8g_font.c ****         {
 403:u8glib_arm_v1.18.1\src/u8g_font.c ****           u8g_CopyGlyphDataToCache(u8g, p);
 1442              		.loc 1 403 0
 1443 00e4 7868     		ldr	r0, [r7, #4]
 1444 00e6 7969     		ldr	r1, [r7, #20]
 1445 00e8 FFF7FEFF 		bl	u8g_CopyGlyphDataToCache
 404:u8glib_arm_v1.18.1\src/u8g_font.c ****           return p;
 1446              		.loc 1 404 0
 1447 00ec 7B69     		ldr	r3, [r7, #20]
 1448 00ee 1AE0     		b	.L75
 1449              	.L79:
 405:u8glib_arm_v1.18.1\src/u8g_font.c ****         }
 406:u8glib_arm_v1.18.1\src/u8g_font.c ****         p += u8g_pgm_read( ((u8g_pgm_uint8_t *)(p)) + 2 ) & mask;
 1450              		.loc 1 406 0
 1451 00f0 7B69     		ldr	r3, [r7, #20]
 1452 00f2 0233     		adds	r3, r3, #2
 1453 00f4 1A78     		ldrb	r2, [r3]	@ zero_extendqisi2
 1454 00f6 7B7C     		ldrb	r3, [r7, #17]
 1455 00f8 1340     		ands	r3, r3, r2
 1456 00fa DBB2     		uxtb	r3, r3
 1457 00fc 1A46     		mov	r2, r3
 1458 00fe 7B69     		ldr	r3, [r7, #20]
 1459 0100 1344     		add	r3, r3, r2
 1460 0102 7B61     		str	r3, [r7, #20]
 407:u8glib_arm_v1.18.1\src/u8g_font.c ****         p += data_structure_size;
 1461              		.loc 1 407 0
 1462 0104 FB7B     		ldrb	r3, [r7, #15]	@ zero_extendqisi2
 1463 0106 7A69     		ldr	r2, [r7, #20]
 1464 0108 1344     		add	r3, r3, r2
 1465 010a 7B61     		str	r3, [r7, #20]
 1466              	.L78:
 408:u8glib_arm_v1.18.1\src/u8g_font.c ****       }
 409:u8glib_arm_v1.18.1\src/u8g_font.c ****       if ( i == end )
 1467              		.loc 1 409 0
 1468 010c BA7C     		ldrb	r2, [r7, #18]	@ zero_extendqisi2
 1469 010e BB7B     		ldrb	r3, [r7, #14]	@ zero_extendqisi2
 1470 0110 9A42     		cmp	r2, r3
 1471 0112 00D1     		bne	.L80
 410:u8glib_arm_v1.18.1\src/u8g_font.c ****         break;
ARM GAS  C:\Users\KJA\AppData\Local\Temp\ccevgiJT.s 			page 34


 1472              		.loc 1 410 0
 1473 0114 03E0     		b	.L76
 1474              	.L80:
 411:u8glib_arm_v1.18.1\src/u8g_font.c ****       i++;
 1475              		.loc 1 411 0
 1476 0116 BB7C     		ldrb	r3, [r7, #18]	@ zero_extendqisi2
 1477 0118 0133     		adds	r3, r3, #1
 1478 011a BB74     		strb	r3, [r7, #18]
 412:u8glib_arm_v1.18.1\src/u8g_font.c ****     }
 1479              		.loc 1 412 0
 1480 011c D6E7     		b	.L81
 1481              	.L76:
 413:u8glib_arm_v1.18.1\src/u8g_font.c ****   }
 414:u8glib_arm_v1.18.1\src/u8g_font.c ****   
 415:u8glib_arm_v1.18.1\src/u8g_font.c ****   u8g_FillEmptyGlyphCache(u8g);
 1482              		.loc 1 415 0
 1483 011e 7868     		ldr	r0, [r7, #4]
 1484 0120 FFF7FEFF 		bl	u8g_FillEmptyGlyphCache
 416:u8glib_arm_v1.18.1\src/u8g_font.c ****     
 417:u8glib_arm_v1.18.1\src/u8g_font.c ****   return NULL;
 1485              		.loc 1 417 0
 1486 0124 0023     		movs	r3, #0
 1487              	.L75:
 418:u8glib_arm_v1.18.1\src/u8g_font.c **** }
 1488              		.loc 1 418 0
 1489 0126 1846     		mov	r0, r3
 1490 0128 1837     		adds	r7, r7, #24
 1491              		.cfi_def_cfa_offset 8
 1492 012a BD46     		mov	sp, r7
 1493              		.cfi_def_cfa_register 13
 1494              		@ sp needed
 1495 012c 80BD     		pop	{r7, pc}
 1496              		.cfi_endproc
 1497              	.LFE27:
 1498              		.size	u8g_GetGlyph, .-u8g_GetGlyph
 1499 012e 00BF     		.section	.text.u8g_IsGlyph,"ax",%progbits
 1500              		.align	2
 1501              		.global	u8g_IsGlyph
 1502              		.thumb
 1503              		.thumb_func
 1504              		.type	u8g_IsGlyph, %function
 1505              	u8g_IsGlyph:
 1506              	.LFB28:
 419:u8glib_arm_v1.18.1\src/u8g_font.c **** 
 420:u8glib_arm_v1.18.1\src/u8g_font.c **** uint8_t u8g_IsGlyph(u8g_t *u8g, uint8_t requested_encoding)
 421:u8glib_arm_v1.18.1\src/u8g_font.c **** {
 1507              		.loc 1 421 0
 1508              		.cfi_startproc
 1509              		@ args = 0, pretend = 0, frame = 8
 1510              		@ frame_needed = 1, uses_anonymous_args = 0
 1511 0000 80B5     		push	{r7, lr}
 1512              		.cfi_def_cfa_offset 8
 1513              		.cfi_offset 7, -8
 1514              		.cfi_offset 14, -4
 1515 0002 82B0     		sub	sp, sp, #8
 1516              		.cfi_def_cfa_offset 16
 1517 0004 00AF     		add	r7, sp, #0
ARM GAS  C:\Users\KJA\AppData\Local\Temp\ccevgiJT.s 			page 35


 1518              		.cfi_def_cfa_register 7
 1519 0006 7860     		str	r0, [r7, #4]
 1520 0008 0B46     		mov	r3, r1
 1521 000a FB70     		strb	r3, [r7, #3]
 422:u8glib_arm_v1.18.1\src/u8g_font.c ****   if ( u8g_GetGlyph(u8g, requested_encoding) != NULL )
 1522              		.loc 1 422 0
 1523 000c FB78     		ldrb	r3, [r7, #3]	@ zero_extendqisi2
 1524 000e 7868     		ldr	r0, [r7, #4]
 1525 0010 1946     		mov	r1, r3
 1526 0012 FFF7FEFF 		bl	u8g_GetGlyph
 1527 0016 0346     		mov	r3, r0
 1528 0018 002B     		cmp	r3, #0
 1529 001a 01D0     		beq	.L83
 423:u8glib_arm_v1.18.1\src/u8g_font.c ****     return 1;
 1530              		.loc 1 423 0
 1531 001c 0123     		movs	r3, #1
 1532 001e 00E0     		b	.L84
 1533              	.L83:
 424:u8glib_arm_v1.18.1\src/u8g_font.c ****   return 0;
 1534              		.loc 1 424 0
 1535 0020 0023     		movs	r3, #0
 1536              	.L84:
 425:u8glib_arm_v1.18.1\src/u8g_font.c **** }
 1537              		.loc 1 425 0
 1538 0022 1846     		mov	r0, r3
 1539 0024 0837     		adds	r7, r7, #8
 1540              		.cfi_def_cfa_offset 8
 1541 0026 BD46     		mov	sp, r7
 1542              		.cfi_def_cfa_register 13
 1543              		@ sp needed
 1544 0028 80BD     		pop	{r7, pc}
 1545              		.cfi_endproc
 1546              	.LFE28:
 1547              		.size	u8g_IsGlyph, .-u8g_IsGlyph
 1548 002a 00BF     		.section	.text.u8g_GetGlyphDeltaX,"ax",%progbits
 1549              		.align	2
 1550              		.global	u8g_GetGlyphDeltaX
 1551              		.thumb
 1552              		.thumb_func
 1553              		.type	u8g_GetGlyphDeltaX, %function
 1554              	u8g_GetGlyphDeltaX:
 1555              	.LFB29:
 426:u8glib_arm_v1.18.1\src/u8g_font.c **** 
 427:u8glib_arm_v1.18.1\src/u8g_font.c **** int8_t u8g_GetGlyphDeltaX(u8g_t *u8g, uint8_t requested_encoding)
 428:u8glib_arm_v1.18.1\src/u8g_font.c **** {
 1556              		.loc 1 428 0
 1557              		.cfi_startproc
 1558              		@ args = 0, pretend = 0, frame = 8
 1559              		@ frame_needed = 1, uses_anonymous_args = 0
 1560 0000 80B5     		push	{r7, lr}
 1561              		.cfi_def_cfa_offset 8
 1562              		.cfi_offset 7, -8
 1563              		.cfi_offset 14, -4
 1564 0002 82B0     		sub	sp, sp, #8
 1565              		.cfi_def_cfa_offset 16
 1566 0004 00AF     		add	r7, sp, #0
 1567              		.cfi_def_cfa_register 7
ARM GAS  C:\Users\KJA\AppData\Local\Temp\ccevgiJT.s 			page 36


 1568 0006 7860     		str	r0, [r7, #4]
 1569 0008 0B46     		mov	r3, r1
 1570 000a FB70     		strb	r3, [r7, #3]
 429:u8glib_arm_v1.18.1\src/u8g_font.c ****   if ( u8g_GetGlyph(u8g, requested_encoding) == NULL )
 1571              		.loc 1 429 0
 1572 000c FB78     		ldrb	r3, [r7, #3]	@ zero_extendqisi2
 1573 000e 7868     		ldr	r0, [r7, #4]
 1574 0010 1946     		mov	r1, r3
 1575 0012 FFF7FEFF 		bl	u8g_GetGlyph
 1576 0016 0346     		mov	r3, r0
 1577 0018 002B     		cmp	r3, #0
 1578 001a 01D1     		bne	.L86
 430:u8glib_arm_v1.18.1\src/u8g_font.c ****     return 0;  /* should never happen, so return something */
 1579              		.loc 1 430 0
 1580 001c 0023     		movs	r3, #0
 1581 001e 01E0     		b	.L87
 1582              	.L86:
 431:u8glib_arm_v1.18.1\src/u8g_font.c ****   return u8g->glyph_dx;
 1583              		.loc 1 431 0
 1584 0020 7B68     		ldr	r3, [r7, #4]
 1585 0022 1B7F     		ldrb	r3, [r3, #28]	@ zero_extendqisi2
 1586              	.L87:
 1587 0024 5BB2     		sxtb	r3, r3
 432:u8glib_arm_v1.18.1\src/u8g_font.c **** }
 1588              		.loc 1 432 0
 1589 0026 1846     		mov	r0, r3
 1590 0028 0837     		adds	r7, r7, #8
 1591              		.cfi_def_cfa_offset 8
 1592 002a BD46     		mov	sp, r7
 1593              		.cfi_def_cfa_register 13
 1594              		@ sp needed
 1595 002c 80BD     		pop	{r7, pc}
 1596              		.cfi_endproc
 1597              	.LFE29:
 1598              		.size	u8g_GetGlyphDeltaX, .-u8g_GetGlyphDeltaX
 1599 002e 00BF     		.section	.text.u8g_draw_glyph,"ax",%progbits
 1600              		.align	2
 1601              		.global	u8g_draw_glyph
 1602              		.thumb
 1603              		.thumb_func
 1604              		.type	u8g_draw_glyph, %function
 1605              	u8g_draw_glyph:
 1606              	.LFB30:
 433:u8glib_arm_v1.18.1\src/u8g_font.c **** 
 434:u8glib_arm_v1.18.1\src/u8g_font.c **** 
 435:u8glib_arm_v1.18.1\src/u8g_font.c **** /*========================================================================*/
 436:u8glib_arm_v1.18.1\src/u8g_font.c **** /* glyph drawing procedures */
 437:u8glib_arm_v1.18.1\src/u8g_font.c **** 
 438:u8glib_arm_v1.18.1\src/u8g_font.c **** #ifdef OBSOLETE
 439:u8glib_arm_v1.18.1\src/u8g_font.c **** /*
 440:u8glib_arm_v1.18.1\src/u8g_font.c ****   Draw a glyph
 441:u8glib_arm_v1.18.1\src/u8g_font.c ****   x,y: left baseline position of the glyph
 442:u8glib_arm_v1.18.1\src/u8g_font.c **** */
 443:u8glib_arm_v1.18.1\src/u8g_font.c **** int8_t u8g_DrawGlyphDir(u8g_t *u8g, u8g_uint_t x, u8g_uint_t y, uint8_t dir, uint8_t encoding)
 444:u8glib_arm_v1.18.1\src/u8g_font.c **** {
 445:u8glib_arm_v1.18.1\src/u8g_font.c ****   u8g_glyph_t g;
 446:u8glib_arm_v1.18.1\src/u8g_font.c ****   uint8_t w, h, i, j;
ARM GAS  C:\Users\KJA\AppData\Local\Temp\ccevgiJT.s 			page 37


 447:u8glib_arm_v1.18.1\src/u8g_font.c ****   const u8g_pgm_uint8_t *data;
 448:u8glib_arm_v1.18.1\src/u8g_font.c ****   uint8_t bytes_per_line;
 449:u8glib_arm_v1.18.1\src/u8g_font.c ****   u8g_uint_t ix, iy;
 450:u8glib_arm_v1.18.1\src/u8g_font.c **** 
 451:u8glib_arm_v1.18.1\src/u8g_font.c ****   g = u8g_GetGlyph(u8g, encoding);
 452:u8glib_arm_v1.18.1\src/u8g_font.c ****   if ( g == NULL  )
 453:u8glib_arm_v1.18.1\src/u8g_font.c ****     return 0;
 454:u8glib_arm_v1.18.1\src/u8g_font.c ****   w = u8g->glyph_width;
 455:u8glib_arm_v1.18.1\src/u8g_font.c ****   h = u8g->glyph_height;
 456:u8glib_arm_v1.18.1\src/u8g_font.c **** 
 457:u8glib_arm_v1.18.1\src/u8g_font.c ****   bytes_per_line = w;
 458:u8glib_arm_v1.18.1\src/u8g_font.c ****   bytes_per_line += 7;
 459:u8glib_arm_v1.18.1\src/u8g_font.c ****   bytes_per_line /= 8;
 460:u8glib_arm_v1.18.1\src/u8g_font.c ****   
 461:u8glib_arm_v1.18.1\src/u8g_font.c ****   data = u8g_font_GetGlyphDataStart(u8g->font, g);
 462:u8glib_arm_v1.18.1\src/u8g_font.c **** 
 463:u8glib_arm_v1.18.1\src/u8g_font.c ****   switch(dir)
 464:u8glib_arm_v1.18.1\src/u8g_font.c ****   {
 465:u8glib_arm_v1.18.1\src/u8g_font.c ****     case 0:
 466:u8glib_arm_v1.18.1\src/u8g_font.c ****       x += u8g->glyph_x;
 467:u8glib_arm_v1.18.1\src/u8g_font.c ****       y -= u8g->glyph_y;
 468:u8glib_arm_v1.18.1\src/u8g_font.c ****       y--;
 469:u8glib_arm_v1.18.1\src/u8g_font.c ****       //u8g_DrawFrame(u8g, x, y-h+1, w, h);
 470:u8glib_arm_v1.18.1\src/u8g_font.c ****       if ( u8g_IsBBXIntersection(u8g, x, y-h+1, w, h) == 0 )
 471:u8glib_arm_v1.18.1\src/u8g_font.c ****         return u8g->glyph_dx;
 472:u8glib_arm_v1.18.1\src/u8g_font.c ****       
 473:u8glib_arm_v1.18.1\src/u8g_font.c ****       iy = y;
 474:u8glib_arm_v1.18.1\src/u8g_font.c ****       iy -= h;
 475:u8glib_arm_v1.18.1\src/u8g_font.c ****       iy++;
 476:u8glib_arm_v1.18.1\src/u8g_font.c ****       
 477:u8glib_arm_v1.18.1\src/u8g_font.c ****       for( j = 0; j < h; j++ )
 478:u8glib_arm_v1.18.1\src/u8g_font.c ****       {
 479:u8glib_arm_v1.18.1\src/u8g_font.c ****         ix = x;
 480:u8glib_arm_v1.18.1\src/u8g_font.c ****         for( i = 0; i < bytes_per_line; i++ )
 481:u8glib_arm_v1.18.1\src/u8g_font.c ****         {
 482:u8glib_arm_v1.18.1\src/u8g_font.c ****           u8g_Draw8Pixel(u8g, ix, iy, dir, u8g_pgm_read(data));
 483:u8glib_arm_v1.18.1\src/u8g_font.c ****           data++;
 484:u8glib_arm_v1.18.1\src/u8g_font.c ****           ix+=8;
 485:u8glib_arm_v1.18.1\src/u8g_font.c ****         }
 486:u8glib_arm_v1.18.1\src/u8g_font.c ****         iy++;
 487:u8glib_arm_v1.18.1\src/u8g_font.c ****       }
 488:u8glib_arm_v1.18.1\src/u8g_font.c ****       break;
 489:u8glib_arm_v1.18.1\src/u8g_font.c ****     case 1:
 490:u8glib_arm_v1.18.1\src/u8g_font.c ****       x += u8g->glyph_y;
 491:u8glib_arm_v1.18.1\src/u8g_font.c ****       x++;
 492:u8glib_arm_v1.18.1\src/u8g_font.c ****       y += u8g->glyph_x;
 493:u8glib_arm_v1.18.1\src/u8g_font.c ****       //printf("enc %d, dir %d, x %d, y %d, w %d, h %d\n", encoding, dir, x, y, w, h);
 494:u8glib_arm_v1.18.1\src/u8g_font.c ****       //u8g_DrawFrame(u8g, x, y, h, w);
 495:u8glib_arm_v1.18.1\src/u8g_font.c ****       if ( u8g_IsBBXIntersection(u8g, x, y, h, w) == 0 )
 496:u8glib_arm_v1.18.1\src/u8g_font.c ****         return u8g->glyph_dx;
 497:u8glib_arm_v1.18.1\src/u8g_font.c ****       
 498:u8glib_arm_v1.18.1\src/u8g_font.c ****       ix = x;
 499:u8glib_arm_v1.18.1\src/u8g_font.c ****       ix += h;
 500:u8glib_arm_v1.18.1\src/u8g_font.c ****       ix--;
 501:u8glib_arm_v1.18.1\src/u8g_font.c ****       for( j = 0; j < h; j++ )
 502:u8glib_arm_v1.18.1\src/u8g_font.c ****       {
 503:u8glib_arm_v1.18.1\src/u8g_font.c ****         iy = y;
ARM GAS  C:\Users\KJA\AppData\Local\Temp\ccevgiJT.s 			page 38


 504:u8glib_arm_v1.18.1\src/u8g_font.c ****         for( i = 0; i < bytes_per_line; i++ )
 505:u8glib_arm_v1.18.1\src/u8g_font.c ****         {
 506:u8glib_arm_v1.18.1\src/u8g_font.c ****           u8g_Draw8Pixel(u8g, ix, iy, dir, u8g_pgm_read(data));
 507:u8glib_arm_v1.18.1\src/u8g_font.c ****           data++;
 508:u8glib_arm_v1.18.1\src/u8g_font.c ****           iy+=8;
 509:u8glib_arm_v1.18.1\src/u8g_font.c ****         }
 510:u8glib_arm_v1.18.1\src/u8g_font.c ****         ix--;
 511:u8glib_arm_v1.18.1\src/u8g_font.c ****       }
 512:u8glib_arm_v1.18.1\src/u8g_font.c ****       break;
 513:u8glib_arm_v1.18.1\src/u8g_font.c ****     case 2:
 514:u8glib_arm_v1.18.1\src/u8g_font.c ****       x -= u8g->glyph_x;
 515:u8glib_arm_v1.18.1\src/u8g_font.c ****       y += u8g->glyph_y;
 516:u8glib_arm_v1.18.1\src/u8g_font.c ****       y++;
 517:u8glib_arm_v1.18.1\src/u8g_font.c ****       if ( u8g_IsBBXIntersection(u8g, x-w-1, y, w, h) == 0 )
 518:u8glib_arm_v1.18.1\src/u8g_font.c ****         return u8g->glyph_dx;
 519:u8glib_arm_v1.18.1\src/u8g_font.c ****       
 520:u8glib_arm_v1.18.1\src/u8g_font.c ****       iy = y;
 521:u8glib_arm_v1.18.1\src/u8g_font.c ****       iy += h;
 522:u8glib_arm_v1.18.1\src/u8g_font.c ****       iy--;
 523:u8glib_arm_v1.18.1\src/u8g_font.c ****       for( j = 0; j < h; j++ )
 524:u8glib_arm_v1.18.1\src/u8g_font.c ****       {
 525:u8glib_arm_v1.18.1\src/u8g_font.c ****         ix = x;
 526:u8glib_arm_v1.18.1\src/u8g_font.c ****         for( i = 0; i < bytes_per_line; i++ )
 527:u8glib_arm_v1.18.1\src/u8g_font.c ****         {
 528:u8glib_arm_v1.18.1\src/u8g_font.c ****           u8g_Draw8Pixel(u8g, ix, iy, dir, u8g_pgm_read(data));
 529:u8glib_arm_v1.18.1\src/u8g_font.c ****           data++;
 530:u8glib_arm_v1.18.1\src/u8g_font.c ****           ix-=8;
 531:u8glib_arm_v1.18.1\src/u8g_font.c ****         }
 532:u8glib_arm_v1.18.1\src/u8g_font.c ****         iy--;
 533:u8glib_arm_v1.18.1\src/u8g_font.c ****       }
 534:u8glib_arm_v1.18.1\src/u8g_font.c ****       break;
 535:u8glib_arm_v1.18.1\src/u8g_font.c ****     case 3:
 536:u8glib_arm_v1.18.1\src/u8g_font.c ****       x -= u8g->glyph_y;
 537:u8glib_arm_v1.18.1\src/u8g_font.c ****       x--;
 538:u8glib_arm_v1.18.1\src/u8g_font.c ****       y -= u8g->glyph_x;
 539:u8glib_arm_v1.18.1\src/u8g_font.c ****       
 540:u8glib_arm_v1.18.1\src/u8g_font.c ****       if ( u8g_IsBBXIntersection(u8g, x-h-1, y-w-1, h, w) == 0 )
 541:u8glib_arm_v1.18.1\src/u8g_font.c ****         return u8g->glyph_dx;
 542:u8glib_arm_v1.18.1\src/u8g_font.c ****       
 543:u8glib_arm_v1.18.1\src/u8g_font.c ****       ix = x;
 544:u8glib_arm_v1.18.1\src/u8g_font.c ****       ix -= h;
 545:u8glib_arm_v1.18.1\src/u8g_font.c ****       ix++;
 546:u8glib_arm_v1.18.1\src/u8g_font.c ****       
 547:u8glib_arm_v1.18.1\src/u8g_font.c ****       for( j = 0; j < h; j++ )
 548:u8glib_arm_v1.18.1\src/u8g_font.c ****       {
 549:u8glib_arm_v1.18.1\src/u8g_font.c ****         iy = y;
 550:u8glib_arm_v1.18.1\src/u8g_font.c ****         for( i = 0; i < bytes_per_line; i++ )
 551:u8glib_arm_v1.18.1\src/u8g_font.c ****         {
 552:u8glib_arm_v1.18.1\src/u8g_font.c ****           u8g_Draw8Pixel(u8g, ix, iy, dir, u8g_pgm_read(data));
 553:u8glib_arm_v1.18.1\src/u8g_font.c ****           data++;
 554:u8glib_arm_v1.18.1\src/u8g_font.c ****           iy-=8;
 555:u8glib_arm_v1.18.1\src/u8g_font.c ****         }
 556:u8glib_arm_v1.18.1\src/u8g_font.c ****         ix++;
 557:u8glib_arm_v1.18.1\src/u8g_font.c ****       }
 558:u8glib_arm_v1.18.1\src/u8g_font.c ****       break;    
 559:u8glib_arm_v1.18.1\src/u8g_font.c ****   }
 560:u8glib_arm_v1.18.1\src/u8g_font.c ****   return u8g->glyph_dx;
ARM GAS  C:\Users\KJA\AppData\Local\Temp\ccevgiJT.s 			page 39


 561:u8glib_arm_v1.18.1\src/u8g_font.c **** }
 562:u8glib_arm_v1.18.1\src/u8g_font.c **** #endif
 563:u8glib_arm_v1.18.1\src/u8g_font.c **** 
 564:u8glib_arm_v1.18.1\src/u8g_font.c **** int8_t u8g_draw_glyph(u8g_t *u8g, u8g_uint_t x, u8g_uint_t y, uint8_t encoding)
 565:u8glib_arm_v1.18.1\src/u8g_font.c **** {
 1607              		.loc 1 565 0
 1608              		.cfi_startproc
 1609              		@ args = 0, pretend = 0, frame = 24
 1610              		@ frame_needed = 1, uses_anonymous_args = 0
 1611 0000 90B5     		push	{r4, r7, lr}
 1612              		.cfi_def_cfa_offset 12
 1613              		.cfi_offset 4, -12
 1614              		.cfi_offset 7, -8
 1615              		.cfi_offset 14, -4
 1616 0002 89B0     		sub	sp, sp, #36
 1617              		.cfi_def_cfa_offset 48
 1618 0004 02AF     		add	r7, sp, #8
 1619              		.cfi_def_cfa 7, 40
 1620 0006 7860     		str	r0, [r7, #4]
 1621 0008 0846     		mov	r0, r1
 1622 000a 1146     		mov	r1, r2
 1623 000c 1A46     		mov	r2, r3
 1624 000e 0346     		mov	r3, r0
 1625 0010 FB70     		strb	r3, [r7, #3]
 1626 0012 0B46     		mov	r3, r1
 1627 0014 BB70     		strb	r3, [r7, #2]
 1628 0016 1346     		mov	r3, r2
 1629 0018 7B70     		strb	r3, [r7, #1]
 1630              	.LBB2:
 566:u8glib_arm_v1.18.1\src/u8g_font.c ****   const u8g_pgm_uint8_t *data;
 567:u8glib_arm_v1.18.1\src/u8g_font.c ****   uint8_t w, h;
 568:u8glib_arm_v1.18.1\src/u8g_font.c ****   uint8_t i, j;
 569:u8glib_arm_v1.18.1\src/u8g_font.c ****   u8g_uint_t ix, iy;
 570:u8glib_arm_v1.18.1\src/u8g_font.c **** 
 571:u8glib_arm_v1.18.1\src/u8g_font.c ****   {
 572:u8glib_arm_v1.18.1\src/u8g_font.c ****     u8g_glyph_t g = u8g_GetGlyph(u8g, encoding);
 1631              		.loc 1 572 0
 1632 001a 7B78     		ldrb	r3, [r7, #1]	@ zero_extendqisi2
 1633 001c 7868     		ldr	r0, [r7, #4]
 1634 001e 1946     		mov	r1, r3
 1635 0020 FFF7FEFF 		bl	u8g_GetGlyph
 1636 0024 F860     		str	r0, [r7, #12]
 573:u8glib_arm_v1.18.1\src/u8g_font.c ****     if ( g == NULL  )
 1637              		.loc 1 573 0
 1638 0026 FB68     		ldr	r3, [r7, #12]
 1639 0028 002B     		cmp	r3, #0
 1640 002a 01D1     		bne	.L89
 574:u8glib_arm_v1.18.1\src/u8g_font.c ****       return 0;
 1641              		.loc 1 574 0
 1642 002c 0023     		movs	r3, #0
 1643 002e 69E0     		b	.L90
 1644              	.L89:
 575:u8glib_arm_v1.18.1\src/u8g_font.c ****     data = u8g_font_GetGlyphDataStart(u8g->font, g);
 1645              		.loc 1 575 0
 1646 0030 7B68     		ldr	r3, [r7, #4]
 1647 0032 9B68     		ldr	r3, [r3, #8]
 1648 0034 1846     		mov	r0, r3
ARM GAS  C:\Users\KJA\AppData\Local\Temp\ccevgiJT.s 			page 40


 1649 0036 F968     		ldr	r1, [r7, #12]
 1650 0038 FFF7FEFF 		bl	u8g_font_GetGlyphDataStart
 1651 003c 7861     		str	r0, [r7, #20]
 1652              	.LBE2:
 576:u8glib_arm_v1.18.1\src/u8g_font.c ****   }
 577:u8glib_arm_v1.18.1\src/u8g_font.c ****   
 578:u8glib_arm_v1.18.1\src/u8g_font.c ****   w = u8g->glyph_width;
 1653              		.loc 1 578 0
 1654 003e 7B68     		ldr	r3, [r7, #4]
 1655 0040 DB7F     		ldrb	r3, [r3, #31]
 1656 0042 FB72     		strb	r3, [r7, #11]
 579:u8glib_arm_v1.18.1\src/u8g_font.c ****   h = u8g->glyph_height;
 1657              		.loc 1 579 0
 1658 0044 7B68     		ldr	r3, [r7, #4]
 1659 0046 93F82030 		ldrb	r3, [r3, #32]
 1660 004a BB72     		strb	r3, [r7, #10]
 580:u8glib_arm_v1.18.1\src/u8g_font.c ****   
 581:u8glib_arm_v1.18.1\src/u8g_font.c ****   x += u8g->glyph_x;
 1661              		.loc 1 581 0
 1662 004c 7B68     		ldr	r3, [r7, #4]
 1663 004e 5B7F     		ldrb	r3, [r3, #29]	@ zero_extendqisi2
 1664 0050 DAB2     		uxtb	r2, r3
 1665 0052 FB78     		ldrb	r3, [r7, #3]
 1666 0054 1344     		add	r3, r3, r2
 1667 0056 FB70     		strb	r3, [r7, #3]
 582:u8glib_arm_v1.18.1\src/u8g_font.c ****   y -= u8g->glyph_y;
 1668              		.loc 1 582 0
 1669 0058 7B68     		ldr	r3, [r7, #4]
 1670 005a 9B7F     		ldrb	r3, [r3, #30]	@ zero_extendqisi2
 1671 005c DBB2     		uxtb	r3, r3
 1672 005e BA78     		ldrb	r2, [r7, #2]
 1673 0060 D31A     		subs	r3, r2, r3
 1674 0062 BB70     		strb	r3, [r7, #2]
 583:u8glib_arm_v1.18.1\src/u8g_font.c ****   y--;
 1675              		.loc 1 583 0
 1676 0064 BB78     		ldrb	r3, [r7, #2]	@ zero_extendqisi2
 1677 0066 013B     		subs	r3, r3, #1
 1678 0068 BB70     		strb	r3, [r7, #2]
 584:u8glib_arm_v1.18.1\src/u8g_font.c ****   
 585:u8glib_arm_v1.18.1\src/u8g_font.c ****   if ( u8g_IsBBXIntersection(u8g, x, y-h+1, w, h) == 0 )
 1679              		.loc 1 585 0
 1680 006a BA78     		ldrb	r2, [r7, #2]
 1681 006c BB7A     		ldrb	r3, [r7, #10]
 1682 006e D31A     		subs	r3, r2, r3
 1683 0070 DBB2     		uxtb	r3, r3
 1684 0072 0133     		adds	r3, r3, #1
 1685 0074 DAB2     		uxtb	r2, r3
 1686 0076 F978     		ldrb	r1, [r7, #3]	@ zero_extendqisi2
 1687 0078 FC7A     		ldrb	r4, [r7, #11]	@ zero_extendqisi2
 1688 007a BB7A     		ldrb	r3, [r7, #10]	@ zero_extendqisi2
 1689 007c 0093     		str	r3, [sp]
 1690 007e 7868     		ldr	r0, [r7, #4]
 1691 0080 2346     		mov	r3, r4
 1692 0082 FFF7FEFF 		bl	u8g_IsBBXIntersection
 1693 0086 0346     		mov	r3, r0
 1694 0088 002B     		cmp	r3, #0
 1695 008a 02D1     		bne	.L91
ARM GAS  C:\Users\KJA\AppData\Local\Temp\ccevgiJT.s 			page 41


 586:u8glib_arm_v1.18.1\src/u8g_font.c ****     return u8g->glyph_dx;
 1696              		.loc 1 586 0
 1697 008c 7B68     		ldr	r3, [r7, #4]
 1698 008e 1B7F     		ldrb	r3, [r3, #28]	@ zero_extendqisi2
 1699 0090 38E0     		b	.L90
 1700              	.L91:
 587:u8glib_arm_v1.18.1\src/u8g_font.c **** 
 588:u8glib_arm_v1.18.1\src/u8g_font.c ****   /* now, w is reused as bytes per line */
 589:u8glib_arm_v1.18.1\src/u8g_font.c ****   w += 7;
 1701              		.loc 1 589 0
 1702 0092 FB7A     		ldrb	r3, [r7, #11]
 1703 0094 0733     		adds	r3, r3, #7
 1704 0096 FB72     		strb	r3, [r7, #11]
 590:u8glib_arm_v1.18.1\src/u8g_font.c ****   w /= 8;
 1705              		.loc 1 590 0
 1706 0098 FB7A     		ldrb	r3, [r7, #11]	@ zero_extendqisi2
 1707 009a DB08     		lsrs	r3, r3, #3
 1708 009c FB72     		strb	r3, [r7, #11]
 591:u8glib_arm_v1.18.1\src/u8g_font.c ****   
 592:u8glib_arm_v1.18.1\src/u8g_font.c ****   iy = y;
 1709              		.loc 1 592 0
 1710 009e BB78     		ldrb	r3, [r7, #2]
 1711 00a0 3B74     		strb	r3, [r7, #16]
 593:u8glib_arm_v1.18.1\src/u8g_font.c ****   iy -= h;
 1712              		.loc 1 593 0
 1713 00a2 3A7C     		ldrb	r2, [r7, #16]
 1714 00a4 BB7A     		ldrb	r3, [r7, #10]
 1715 00a6 D31A     		subs	r3, r2, r3
 1716 00a8 3B74     		strb	r3, [r7, #16]
 594:u8glib_arm_v1.18.1\src/u8g_font.c ****   iy++;
 1717              		.loc 1 594 0
 1718 00aa 3B7C     		ldrb	r3, [r7, #16]	@ zero_extendqisi2
 1719 00ac 0133     		adds	r3, r3, #1
 1720 00ae 3B74     		strb	r3, [r7, #16]
 595:u8glib_arm_v1.18.1\src/u8g_font.c **** 
 596:u8glib_arm_v1.18.1\src/u8g_font.c ****   for( j = 0; j < h; j++ )
 1721              		.loc 1 596 0
 1722 00b0 0023     		movs	r3, #0
 1723 00b2 BB74     		strb	r3, [r7, #18]
 1724 00b4 20E0     		b	.L92
 1725              	.L95:
 597:u8glib_arm_v1.18.1\src/u8g_font.c ****   {
 598:u8glib_arm_v1.18.1\src/u8g_font.c ****     ix = x;
 1726              		.loc 1 598 0
 1727 00b6 FB78     		ldrb	r3, [r7, #3]
 1728 00b8 7B74     		strb	r3, [r7, #17]
 599:u8glib_arm_v1.18.1\src/u8g_font.c ****     for( i = 0; i < w; i++ )
 1729              		.loc 1 599 0
 1730 00ba 0023     		movs	r3, #0
 1731 00bc FB74     		strb	r3, [r7, #19]
 1732 00be 11E0     		b	.L93
 1733              	.L94:
 600:u8glib_arm_v1.18.1\src/u8g_font.c ****     {
 601:u8glib_arm_v1.18.1\src/u8g_font.c ****       u8g_Draw8Pixel(u8g, ix, iy, 0, u8g_pgm_read(data));
 1734              		.loc 1 601 0 discriminator 3
 1735 00c0 7B69     		ldr	r3, [r7, #20]
 1736 00c2 1B78     		ldrb	r3, [r3]	@ zero_extendqisi2
ARM GAS  C:\Users\KJA\AppData\Local\Temp\ccevgiJT.s 			page 42


 1737 00c4 797C     		ldrb	r1, [r7, #17]	@ zero_extendqisi2
 1738 00c6 3A7C     		ldrb	r2, [r7, #16]	@ zero_extendqisi2
 1739 00c8 0093     		str	r3, [sp]
 1740 00ca 7868     		ldr	r0, [r7, #4]
 1741 00cc 0023     		movs	r3, #0
 1742 00ce FFF7FEFF 		bl	u8g_Draw8Pixel
 602:u8glib_arm_v1.18.1\src/u8g_font.c ****       data++;
 1743              		.loc 1 602 0 discriminator 3
 1744 00d2 7B69     		ldr	r3, [r7, #20]
 1745 00d4 0133     		adds	r3, r3, #1
 1746 00d6 7B61     		str	r3, [r7, #20]
 603:u8glib_arm_v1.18.1\src/u8g_font.c ****       ix+=8;
 1747              		.loc 1 603 0 discriminator 3
 1748 00d8 7B7C     		ldrb	r3, [r7, #17]
 1749 00da 0833     		adds	r3, r3, #8
 1750 00dc 7B74     		strb	r3, [r7, #17]
 599:u8glib_arm_v1.18.1\src/u8g_font.c ****     {
 1751              		.loc 1 599 0 discriminator 3
 1752 00de FB7C     		ldrb	r3, [r7, #19]	@ zero_extendqisi2
 1753 00e0 0133     		adds	r3, r3, #1
 1754 00e2 FB74     		strb	r3, [r7, #19]
 1755              	.L93:
 599:u8glib_arm_v1.18.1\src/u8g_font.c ****     {
 1756              		.loc 1 599 0 is_stmt 0 discriminator 1
 1757 00e4 FA7C     		ldrb	r2, [r7, #19]	@ zero_extendqisi2
 1758 00e6 FB7A     		ldrb	r3, [r7, #11]	@ zero_extendqisi2
 1759 00e8 9A42     		cmp	r2, r3
 1760 00ea E9D3     		bcc	.L94
 604:u8glib_arm_v1.18.1\src/u8g_font.c ****     }
 605:u8glib_arm_v1.18.1\src/u8g_font.c ****     iy++;
 1761              		.loc 1 605 0 is_stmt 1 discriminator 2
 1762 00ec 3B7C     		ldrb	r3, [r7, #16]	@ zero_extendqisi2
 1763 00ee 0133     		adds	r3, r3, #1
 1764 00f0 3B74     		strb	r3, [r7, #16]
 596:u8glib_arm_v1.18.1\src/u8g_font.c ****   {
 1765              		.loc 1 596 0 discriminator 2
 1766 00f2 BB7C     		ldrb	r3, [r7, #18]	@ zero_extendqisi2
 1767 00f4 0133     		adds	r3, r3, #1
 1768 00f6 BB74     		strb	r3, [r7, #18]
 1769              	.L92:
 596:u8glib_arm_v1.18.1\src/u8g_font.c ****   {
 1770              		.loc 1 596 0 is_stmt 0 discriminator 1
 1771 00f8 BA7C     		ldrb	r2, [r7, #18]	@ zero_extendqisi2
 1772 00fa BB7A     		ldrb	r3, [r7, #10]	@ zero_extendqisi2
 1773 00fc 9A42     		cmp	r2, r3
 1774 00fe DAD3     		bcc	.L95
 606:u8glib_arm_v1.18.1\src/u8g_font.c ****   }
 607:u8glib_arm_v1.18.1\src/u8g_font.c ****   return u8g->glyph_dx;
 1775              		.loc 1 607 0 is_stmt 1
 1776 0100 7B68     		ldr	r3, [r7, #4]
 1777 0102 1B7F     		ldrb	r3, [r3, #28]	@ zero_extendqisi2
 1778              	.L90:
 1779 0104 5BB2     		sxtb	r3, r3
 608:u8glib_arm_v1.18.1\src/u8g_font.c **** }
 1780              		.loc 1 608 0
 1781 0106 1846     		mov	r0, r3
 1782 0108 1C37     		adds	r7, r7, #28
ARM GAS  C:\Users\KJA\AppData\Local\Temp\ccevgiJT.s 			page 43


 1783              		.cfi_def_cfa_offset 12
 1784 010a BD46     		mov	sp, r7
 1785              		.cfi_def_cfa_register 13
 1786              		@ sp needed
 1787 010c 90BD     		pop	{r4, r7, pc}
 1788              		.cfi_endproc
 1789              	.LFE30:
 1790              		.size	u8g_draw_glyph, .-u8g_draw_glyph
 1791 010e 00BF     		.section	.text.u8g_DrawGlyph,"ax",%progbits
 1792              		.align	2
 1793              		.global	u8g_DrawGlyph
 1794              		.thumb
 1795              		.thumb_func
 1796              		.type	u8g_DrawGlyph, %function
 1797              	u8g_DrawGlyph:
 1798              	.LFB31:
 609:u8glib_arm_v1.18.1\src/u8g_font.c **** 
 610:u8glib_arm_v1.18.1\src/u8g_font.c **** int8_t u8g_DrawGlyph(u8g_t *u8g, u8g_uint_t x, u8g_uint_t y, uint8_t encoding)
 611:u8glib_arm_v1.18.1\src/u8g_font.c **** {
 1799              		.loc 1 611 0
 1800              		.cfi_startproc
 1801              		@ args = 0, pretend = 0, frame = 8
 1802              		@ frame_needed = 1, uses_anonymous_args = 0
 1803 0000 80B5     		push	{r7, lr}
 1804              		.cfi_def_cfa_offset 8
 1805              		.cfi_offset 7, -8
 1806              		.cfi_offset 14, -4
 1807 0002 82B0     		sub	sp, sp, #8
 1808              		.cfi_def_cfa_offset 16
 1809 0004 00AF     		add	r7, sp, #0
 1810              		.cfi_def_cfa_register 7
 1811 0006 7860     		str	r0, [r7, #4]
 1812 0008 0846     		mov	r0, r1
 1813 000a 1146     		mov	r1, r2
 1814 000c 1A46     		mov	r2, r3
 1815 000e 0346     		mov	r3, r0
 1816 0010 FB70     		strb	r3, [r7, #3]
 1817 0012 0B46     		mov	r3, r1
 1818 0014 BB70     		strb	r3, [r7, #2]
 1819 0016 1346     		mov	r3, r2
 1820 0018 7B70     		strb	r3, [r7, #1]
 612:u8glib_arm_v1.18.1\src/u8g_font.c ****   y += u8g->font_calc_vref(u8g);
 1821              		.loc 1 612 0
 1822 001a 7B68     		ldr	r3, [r7, #4]
 1823 001c 5B6A     		ldr	r3, [r3, #36]
 1824 001e 7868     		ldr	r0, [r7, #4]
 1825 0020 9847     		blx	r3
 1826 0022 0346     		mov	r3, r0
 1827 0024 1A46     		mov	r2, r3
 1828 0026 BB78     		ldrb	r3, [r7, #2]
 1829 0028 1344     		add	r3, r3, r2
 1830 002a BB70     		strb	r3, [r7, #2]
 613:u8glib_arm_v1.18.1\src/u8g_font.c ****   return u8g_draw_glyph(u8g, x, y, encoding);
 1831              		.loc 1 613 0
 1832 002c F978     		ldrb	r1, [r7, #3]	@ zero_extendqisi2
 1833 002e BA78     		ldrb	r2, [r7, #2]	@ zero_extendqisi2
 1834 0030 7B78     		ldrb	r3, [r7, #1]	@ zero_extendqisi2
ARM GAS  C:\Users\KJA\AppData\Local\Temp\ccevgiJT.s 			page 44


 1835 0032 7868     		ldr	r0, [r7, #4]
 1836 0034 FFF7FEFF 		bl	u8g_draw_glyph
 1837 0038 0346     		mov	r3, r0
 614:u8glib_arm_v1.18.1\src/u8g_font.c **** }
 1838              		.loc 1 614 0
 1839 003a 1846     		mov	r0, r3
 1840 003c 0837     		adds	r7, r7, #8
 1841              		.cfi_def_cfa_offset 8
 1842 003e BD46     		mov	sp, r7
 1843              		.cfi_def_cfa_register 13
 1844              		@ sp needed
 1845 0040 80BD     		pop	{r7, pc}
 1846              		.cfi_endproc
 1847              	.LFE31:
 1848              		.size	u8g_DrawGlyph, .-u8g_DrawGlyph
 1849 0042 00BF     		.section	.text.u8g_draw_glyph90,"ax",%progbits
 1850              		.align	2
 1851              		.global	u8g_draw_glyph90
 1852              		.thumb
 1853              		.thumb_func
 1854              		.type	u8g_draw_glyph90, %function
 1855              	u8g_draw_glyph90:
 1856              	.LFB32:
 615:u8glib_arm_v1.18.1\src/u8g_font.c **** 
 616:u8glib_arm_v1.18.1\src/u8g_font.c **** int8_t u8g_draw_glyph90(u8g_t *u8g, u8g_uint_t x, u8g_uint_t y, uint8_t encoding)
 617:u8glib_arm_v1.18.1\src/u8g_font.c **** {
 1857              		.loc 1 617 0
 1858              		.cfi_startproc
 1859              		@ args = 0, pretend = 0, frame = 24
 1860              		@ frame_needed = 1, uses_anonymous_args = 0
 1861 0000 90B5     		push	{r4, r7, lr}
 1862              		.cfi_def_cfa_offset 12
 1863              		.cfi_offset 4, -12
 1864              		.cfi_offset 7, -8
 1865              		.cfi_offset 14, -4
 1866 0002 89B0     		sub	sp, sp, #36
 1867              		.cfi_def_cfa_offset 48
 1868 0004 02AF     		add	r7, sp, #8
 1869              		.cfi_def_cfa 7, 40
 1870 0006 7860     		str	r0, [r7, #4]
 1871 0008 0846     		mov	r0, r1
 1872 000a 1146     		mov	r1, r2
 1873 000c 1A46     		mov	r2, r3
 1874 000e 0346     		mov	r3, r0
 1875 0010 FB70     		strb	r3, [r7, #3]
 1876 0012 0B46     		mov	r3, r1
 1877 0014 BB70     		strb	r3, [r7, #2]
 1878 0016 1346     		mov	r3, r2
 1879 0018 7B70     		strb	r3, [r7, #1]
 1880              	.LBB3:
 618:u8glib_arm_v1.18.1\src/u8g_font.c ****   const u8g_pgm_uint8_t *data;
 619:u8glib_arm_v1.18.1\src/u8g_font.c ****   uint8_t w, h;
 620:u8glib_arm_v1.18.1\src/u8g_font.c ****   uint8_t i, j;
 621:u8glib_arm_v1.18.1\src/u8g_font.c ****   u8g_uint_t ix, iy;
 622:u8glib_arm_v1.18.1\src/u8g_font.c **** 
 623:u8glib_arm_v1.18.1\src/u8g_font.c ****   {
 624:u8glib_arm_v1.18.1\src/u8g_font.c ****     u8g_glyph_t g = u8g_GetGlyph(u8g, encoding);
ARM GAS  C:\Users\KJA\AppData\Local\Temp\ccevgiJT.s 			page 45


 1881              		.loc 1 624 0
 1882 001a 7B78     		ldrb	r3, [r7, #1]	@ zero_extendqisi2
 1883 001c 7868     		ldr	r0, [r7, #4]
 1884 001e 1946     		mov	r1, r3
 1885 0020 FFF7FEFF 		bl	u8g_GetGlyph
 1886 0024 F860     		str	r0, [r7, #12]
 625:u8glib_arm_v1.18.1\src/u8g_font.c ****     if ( g == NULL  )
 1887              		.loc 1 625 0
 1888 0026 FB68     		ldr	r3, [r7, #12]
 1889 0028 002B     		cmp	r3, #0
 1890 002a 01D1     		bne	.L99
 626:u8glib_arm_v1.18.1\src/u8g_font.c ****       return 0;
 1891              		.loc 1 626 0
 1892 002c 0023     		movs	r3, #0
 1893 002e 64E0     		b	.L100
 1894              	.L99:
 627:u8glib_arm_v1.18.1\src/u8g_font.c ****     data = u8g_font_GetGlyphDataStart(u8g->font, g);
 1895              		.loc 1 627 0
 1896 0030 7B68     		ldr	r3, [r7, #4]
 1897 0032 9B68     		ldr	r3, [r3, #8]
 1898 0034 1846     		mov	r0, r3
 1899 0036 F968     		ldr	r1, [r7, #12]
 1900 0038 FFF7FEFF 		bl	u8g_font_GetGlyphDataStart
 1901 003c 7861     		str	r0, [r7, #20]
 1902              	.LBE3:
 628:u8glib_arm_v1.18.1\src/u8g_font.c ****   }
 629:u8glib_arm_v1.18.1\src/u8g_font.c ****   
 630:u8glib_arm_v1.18.1\src/u8g_font.c ****   w = u8g->glyph_width;
 1903              		.loc 1 630 0
 1904 003e 7B68     		ldr	r3, [r7, #4]
 1905 0040 DB7F     		ldrb	r3, [r3, #31]
 1906 0042 FB72     		strb	r3, [r7, #11]
 631:u8glib_arm_v1.18.1\src/u8g_font.c ****   h = u8g->glyph_height;
 1907              		.loc 1 631 0
 1908 0044 7B68     		ldr	r3, [r7, #4]
 1909 0046 93F82030 		ldrb	r3, [r3, #32]
 1910 004a BB72     		strb	r3, [r7, #10]
 632:u8glib_arm_v1.18.1\src/u8g_font.c ****   
 633:u8glib_arm_v1.18.1\src/u8g_font.c ****   x += u8g->glyph_y;
 1911              		.loc 1 633 0
 1912 004c 7B68     		ldr	r3, [r7, #4]
 1913 004e 9B7F     		ldrb	r3, [r3, #30]	@ zero_extendqisi2
 1914 0050 DAB2     		uxtb	r2, r3
 1915 0052 FB78     		ldrb	r3, [r7, #3]
 1916 0054 1344     		add	r3, r3, r2
 1917 0056 FB70     		strb	r3, [r7, #3]
 634:u8glib_arm_v1.18.1\src/u8g_font.c ****   x++;
 1918              		.loc 1 634 0
 1919 0058 FB78     		ldrb	r3, [r7, #3]	@ zero_extendqisi2
 1920 005a 0133     		adds	r3, r3, #1
 1921 005c FB70     		strb	r3, [r7, #3]
 635:u8glib_arm_v1.18.1\src/u8g_font.c ****   y += u8g->glyph_x;
 1922              		.loc 1 635 0
 1923 005e 7B68     		ldr	r3, [r7, #4]
 1924 0060 5B7F     		ldrb	r3, [r3, #29]	@ zero_extendqisi2
 1925 0062 DAB2     		uxtb	r2, r3
 1926 0064 BB78     		ldrb	r3, [r7, #2]
ARM GAS  C:\Users\KJA\AppData\Local\Temp\ccevgiJT.s 			page 46


 1927 0066 1344     		add	r3, r3, r2
 1928 0068 BB70     		strb	r3, [r7, #2]
 636:u8glib_arm_v1.18.1\src/u8g_font.c ****   
 637:u8glib_arm_v1.18.1\src/u8g_font.c ****   if ( u8g_IsBBXIntersection(u8g, x, y, h, w) == 0 )
 1929              		.loc 1 637 0
 1930 006a F978     		ldrb	r1, [r7, #3]	@ zero_extendqisi2
 1931 006c BA78     		ldrb	r2, [r7, #2]	@ zero_extendqisi2
 1932 006e BC7A     		ldrb	r4, [r7, #10]	@ zero_extendqisi2
 1933 0070 FB7A     		ldrb	r3, [r7, #11]	@ zero_extendqisi2
 1934 0072 0093     		str	r3, [sp]
 1935 0074 7868     		ldr	r0, [r7, #4]
 1936 0076 2346     		mov	r3, r4
 1937 0078 FFF7FEFF 		bl	u8g_IsBBXIntersection
 1938 007c 0346     		mov	r3, r0
 1939 007e 002B     		cmp	r3, #0
 1940 0080 02D1     		bne	.L101
 638:u8glib_arm_v1.18.1\src/u8g_font.c ****     return u8g->glyph_dx;
 1941              		.loc 1 638 0
 1942 0082 7B68     		ldr	r3, [r7, #4]
 1943 0084 1B7F     		ldrb	r3, [r3, #28]	@ zero_extendqisi2
 1944 0086 38E0     		b	.L100
 1945              	.L101:
 639:u8glib_arm_v1.18.1\src/u8g_font.c **** 
 640:u8glib_arm_v1.18.1\src/u8g_font.c ****   /* now, w is reused as bytes per line */
 641:u8glib_arm_v1.18.1\src/u8g_font.c ****   w += 7;
 1946              		.loc 1 641 0
 1947 0088 FB7A     		ldrb	r3, [r7, #11]
 1948 008a 0733     		adds	r3, r3, #7
 1949 008c FB72     		strb	r3, [r7, #11]
 642:u8glib_arm_v1.18.1\src/u8g_font.c ****   w /= 8;
 1950              		.loc 1 642 0
 1951 008e FB7A     		ldrb	r3, [r7, #11]	@ zero_extendqisi2
 1952 0090 DB08     		lsrs	r3, r3, #3
 1953 0092 FB72     		strb	r3, [r7, #11]
 643:u8glib_arm_v1.18.1\src/u8g_font.c ****   
 644:u8glib_arm_v1.18.1\src/u8g_font.c ****   ix = x;
 1954              		.loc 1 644 0
 1955 0094 FB78     		ldrb	r3, [r7, #3]
 1956 0096 7B74     		strb	r3, [r7, #17]
 645:u8glib_arm_v1.18.1\src/u8g_font.c ****   ix += h;
 1957              		.loc 1 645 0
 1958 0098 7A7C     		ldrb	r2, [r7, #17]
 1959 009a BB7A     		ldrb	r3, [r7, #10]
 1960 009c 1344     		add	r3, r3, r2
 1961 009e 7B74     		strb	r3, [r7, #17]
 646:u8glib_arm_v1.18.1\src/u8g_font.c ****   ix--;
 1962              		.loc 1 646 0
 1963 00a0 7B7C     		ldrb	r3, [r7, #17]	@ zero_extendqisi2
 1964 00a2 013B     		subs	r3, r3, #1
 1965 00a4 7B74     		strb	r3, [r7, #17]
 647:u8glib_arm_v1.18.1\src/u8g_font.c ****   for( j = 0; j < h; j++ )
 1966              		.loc 1 647 0
 1967 00a6 0023     		movs	r3, #0
 1968 00a8 BB74     		strb	r3, [r7, #18]
 1969 00aa 20E0     		b	.L102
 1970              	.L105:
 648:u8glib_arm_v1.18.1\src/u8g_font.c ****   {
ARM GAS  C:\Users\KJA\AppData\Local\Temp\ccevgiJT.s 			page 47


 649:u8glib_arm_v1.18.1\src/u8g_font.c ****     iy = y;
 1971              		.loc 1 649 0
 1972 00ac BB78     		ldrb	r3, [r7, #2]
 1973 00ae 3B74     		strb	r3, [r7, #16]
 650:u8glib_arm_v1.18.1\src/u8g_font.c ****     for( i = 0; i < w; i++ )
 1974              		.loc 1 650 0
 1975 00b0 0023     		movs	r3, #0
 1976 00b2 FB74     		strb	r3, [r7, #19]
 1977 00b4 11E0     		b	.L103
 1978              	.L104:
 651:u8glib_arm_v1.18.1\src/u8g_font.c ****     {
 652:u8glib_arm_v1.18.1\src/u8g_font.c ****       u8g_Draw8Pixel(u8g, ix, iy, 1, u8g_pgm_read(data));
 1979              		.loc 1 652 0 discriminator 3
 1980 00b6 7B69     		ldr	r3, [r7, #20]
 1981 00b8 1B78     		ldrb	r3, [r3]	@ zero_extendqisi2
 1982 00ba 797C     		ldrb	r1, [r7, #17]	@ zero_extendqisi2
 1983 00bc 3A7C     		ldrb	r2, [r7, #16]	@ zero_extendqisi2
 1984 00be 0093     		str	r3, [sp]
 1985 00c0 7868     		ldr	r0, [r7, #4]
 1986 00c2 0123     		movs	r3, #1
 1987 00c4 FFF7FEFF 		bl	u8g_Draw8Pixel
 653:u8glib_arm_v1.18.1\src/u8g_font.c ****       data++;
 1988              		.loc 1 653 0 discriminator 3
 1989 00c8 7B69     		ldr	r3, [r7, #20]
 1990 00ca 0133     		adds	r3, r3, #1
 1991 00cc 7B61     		str	r3, [r7, #20]
 654:u8glib_arm_v1.18.1\src/u8g_font.c ****       iy+=8;
 1992              		.loc 1 654 0 discriminator 3
 1993 00ce 3B7C     		ldrb	r3, [r7, #16]
 1994 00d0 0833     		adds	r3, r3, #8
 1995 00d2 3B74     		strb	r3, [r7, #16]
 650:u8glib_arm_v1.18.1\src/u8g_font.c ****     {
 1996              		.loc 1 650 0 discriminator 3
 1997 00d4 FB7C     		ldrb	r3, [r7, #19]	@ zero_extendqisi2
 1998 00d6 0133     		adds	r3, r3, #1
 1999 00d8 FB74     		strb	r3, [r7, #19]
 2000              	.L103:
 650:u8glib_arm_v1.18.1\src/u8g_font.c ****     {
 2001              		.loc 1 650 0 is_stmt 0 discriminator 1
 2002 00da FA7C     		ldrb	r2, [r7, #19]	@ zero_extendqisi2
 2003 00dc FB7A     		ldrb	r3, [r7, #11]	@ zero_extendqisi2
 2004 00de 9A42     		cmp	r2, r3
 2005 00e0 E9D3     		bcc	.L104
 655:u8glib_arm_v1.18.1\src/u8g_font.c ****     }
 656:u8glib_arm_v1.18.1\src/u8g_font.c ****     ix--;
 2006              		.loc 1 656 0 is_stmt 1 discriminator 2
 2007 00e2 7B7C     		ldrb	r3, [r7, #17]	@ zero_extendqisi2
 2008 00e4 013B     		subs	r3, r3, #1
 2009 00e6 7B74     		strb	r3, [r7, #17]
 647:u8glib_arm_v1.18.1\src/u8g_font.c ****   {
 2010              		.loc 1 647 0 discriminator 2
 2011 00e8 BB7C     		ldrb	r3, [r7, #18]	@ zero_extendqisi2
 2012 00ea 0133     		adds	r3, r3, #1
 2013 00ec BB74     		strb	r3, [r7, #18]
 2014              	.L102:
 647:u8glib_arm_v1.18.1\src/u8g_font.c ****   {
 2015              		.loc 1 647 0 is_stmt 0 discriminator 1
ARM GAS  C:\Users\KJA\AppData\Local\Temp\ccevgiJT.s 			page 48


 2016 00ee BA7C     		ldrb	r2, [r7, #18]	@ zero_extendqisi2
 2017 00f0 BB7A     		ldrb	r3, [r7, #10]	@ zero_extendqisi2
 2018 00f2 9A42     		cmp	r2, r3
 2019 00f4 DAD3     		bcc	.L105
 657:u8glib_arm_v1.18.1\src/u8g_font.c ****   }
 658:u8glib_arm_v1.18.1\src/u8g_font.c ****   return u8g->glyph_dx;
 2020              		.loc 1 658 0 is_stmt 1
 2021 00f6 7B68     		ldr	r3, [r7, #4]
 2022 00f8 1B7F     		ldrb	r3, [r3, #28]	@ zero_extendqisi2
 2023              	.L100:
 2024 00fa 5BB2     		sxtb	r3, r3
 659:u8glib_arm_v1.18.1\src/u8g_font.c **** }
 2025              		.loc 1 659 0
 2026 00fc 1846     		mov	r0, r3
 2027 00fe 1C37     		adds	r7, r7, #28
 2028              		.cfi_def_cfa_offset 12
 2029 0100 BD46     		mov	sp, r7
 2030              		.cfi_def_cfa_register 13
 2031              		@ sp needed
 2032 0102 90BD     		pop	{r4, r7, pc}
 2033              		.cfi_endproc
 2034              	.LFE32:
 2035              		.size	u8g_draw_glyph90, .-u8g_draw_glyph90
 2036              		.section	.text.u8g_DrawGlyph90,"ax",%progbits
 2037              		.align	2
 2038              		.global	u8g_DrawGlyph90
 2039              		.thumb
 2040              		.thumb_func
 2041              		.type	u8g_DrawGlyph90, %function
 2042              	u8g_DrawGlyph90:
 2043              	.LFB33:
 660:u8glib_arm_v1.18.1\src/u8g_font.c **** 
 661:u8glib_arm_v1.18.1\src/u8g_font.c **** int8_t u8g_DrawGlyph90(u8g_t *u8g, u8g_uint_t x, u8g_uint_t y, uint8_t encoding)
 662:u8glib_arm_v1.18.1\src/u8g_font.c **** {
 2044              		.loc 1 662 0
 2045              		.cfi_startproc
 2046              		@ args = 0, pretend = 0, frame = 8
 2047              		@ frame_needed = 1, uses_anonymous_args = 0
 2048 0000 80B5     		push	{r7, lr}
 2049              		.cfi_def_cfa_offset 8
 2050              		.cfi_offset 7, -8
 2051              		.cfi_offset 14, -4
 2052 0002 82B0     		sub	sp, sp, #8
 2053              		.cfi_def_cfa_offset 16
 2054 0004 00AF     		add	r7, sp, #0
 2055              		.cfi_def_cfa_register 7
 2056 0006 7860     		str	r0, [r7, #4]
 2057 0008 0846     		mov	r0, r1
 2058 000a 1146     		mov	r1, r2
 2059 000c 1A46     		mov	r2, r3
 2060 000e 0346     		mov	r3, r0
 2061 0010 FB70     		strb	r3, [r7, #3]
 2062 0012 0B46     		mov	r3, r1
 2063 0014 BB70     		strb	r3, [r7, #2]
 2064 0016 1346     		mov	r3, r2
 2065 0018 7B70     		strb	r3, [r7, #1]
 663:u8glib_arm_v1.18.1\src/u8g_font.c ****   x -= u8g->font_calc_vref(u8g);
ARM GAS  C:\Users\KJA\AppData\Local\Temp\ccevgiJT.s 			page 49


 2066              		.loc 1 663 0
 2067 001a 7B68     		ldr	r3, [r7, #4]
 2068 001c 5B6A     		ldr	r3, [r3, #36]
 2069 001e 7868     		ldr	r0, [r7, #4]
 2070 0020 9847     		blx	r3
 2071 0022 0346     		mov	r3, r0
 2072 0024 1A46     		mov	r2, r3
 2073 0026 FB78     		ldrb	r3, [r7, #3]
 2074 0028 9B1A     		subs	r3, r3, r2
 2075 002a FB70     		strb	r3, [r7, #3]
 664:u8glib_arm_v1.18.1\src/u8g_font.c ****   return u8g_draw_glyph90(u8g, x, y, encoding);
 2076              		.loc 1 664 0
 2077 002c F978     		ldrb	r1, [r7, #3]	@ zero_extendqisi2
 2078 002e BA78     		ldrb	r2, [r7, #2]	@ zero_extendqisi2
 2079 0030 7B78     		ldrb	r3, [r7, #1]	@ zero_extendqisi2
 2080 0032 7868     		ldr	r0, [r7, #4]
 2081 0034 FFF7FEFF 		bl	u8g_draw_glyph90
 2082 0038 0346     		mov	r3, r0
 665:u8glib_arm_v1.18.1\src/u8g_font.c **** }
 2083              		.loc 1 665 0
 2084 003a 1846     		mov	r0, r3
 2085 003c 0837     		adds	r7, r7, #8
 2086              		.cfi_def_cfa_offset 8
 2087 003e BD46     		mov	sp, r7
 2088              		.cfi_def_cfa_register 13
 2089              		@ sp needed
 2090 0040 80BD     		pop	{r7, pc}
 2091              		.cfi_endproc
 2092              	.LFE33:
 2093              		.size	u8g_DrawGlyph90, .-u8g_DrawGlyph90
 2094 0042 00BF     		.section	.text.u8g_draw_glyph180,"ax",%progbits
 2095              		.align	2
 2096              		.global	u8g_draw_glyph180
 2097              		.thumb
 2098              		.thumb_func
 2099              		.type	u8g_draw_glyph180, %function
 2100              	u8g_draw_glyph180:
 2101              	.LFB34:
 666:u8glib_arm_v1.18.1\src/u8g_font.c **** 
 667:u8glib_arm_v1.18.1\src/u8g_font.c **** 
 668:u8glib_arm_v1.18.1\src/u8g_font.c **** int8_t u8g_draw_glyph180(u8g_t *u8g, u8g_uint_t x, u8g_uint_t y, uint8_t encoding)
 669:u8glib_arm_v1.18.1\src/u8g_font.c **** {
 2102              		.loc 1 669 0
 2103              		.cfi_startproc
 2104              		@ args = 0, pretend = 0, frame = 24
 2105              		@ frame_needed = 1, uses_anonymous_args = 0
 2106 0000 90B5     		push	{r4, r7, lr}
 2107              		.cfi_def_cfa_offset 12
 2108              		.cfi_offset 4, -12
 2109              		.cfi_offset 7, -8
 2110              		.cfi_offset 14, -4
 2111 0002 89B0     		sub	sp, sp, #36
 2112              		.cfi_def_cfa_offset 48
 2113 0004 02AF     		add	r7, sp, #8
 2114              		.cfi_def_cfa 7, 40
 2115 0006 7860     		str	r0, [r7, #4]
 2116 0008 0846     		mov	r0, r1
ARM GAS  C:\Users\KJA\AppData\Local\Temp\ccevgiJT.s 			page 50


 2117 000a 1146     		mov	r1, r2
 2118 000c 1A46     		mov	r2, r3
 2119 000e 0346     		mov	r3, r0
 2120 0010 FB70     		strb	r3, [r7, #3]
 2121 0012 0B46     		mov	r3, r1
 2122 0014 BB70     		strb	r3, [r7, #2]
 2123 0016 1346     		mov	r3, r2
 2124 0018 7B70     		strb	r3, [r7, #1]
 2125              	.LBB4:
 670:u8glib_arm_v1.18.1\src/u8g_font.c ****   const u8g_pgm_uint8_t *data;
 671:u8glib_arm_v1.18.1\src/u8g_font.c ****   uint8_t w, h;
 672:u8glib_arm_v1.18.1\src/u8g_font.c ****   uint8_t i, j;
 673:u8glib_arm_v1.18.1\src/u8g_font.c ****   u8g_uint_t ix, iy;
 674:u8glib_arm_v1.18.1\src/u8g_font.c **** 
 675:u8glib_arm_v1.18.1\src/u8g_font.c ****   {
 676:u8glib_arm_v1.18.1\src/u8g_font.c ****     u8g_glyph_t g = u8g_GetGlyph(u8g, encoding);
 2126              		.loc 1 676 0
 2127 001a 7B78     		ldrb	r3, [r7, #1]	@ zero_extendqisi2
 2128 001c 7868     		ldr	r0, [r7, #4]
 2129 001e 1946     		mov	r1, r3
 2130 0020 FFF7FEFF 		bl	u8g_GetGlyph
 2131 0024 F860     		str	r0, [r7, #12]
 677:u8glib_arm_v1.18.1\src/u8g_font.c ****     if ( g == NULL  )
 2132              		.loc 1 677 0
 2133 0026 FB68     		ldr	r3, [r7, #12]
 2134 0028 002B     		cmp	r3, #0
 2135 002a 01D1     		bne	.L109
 678:u8glib_arm_v1.18.1\src/u8g_font.c ****       return 0;
 2136              		.loc 1 678 0
 2137 002c 0023     		movs	r3, #0
 2138 002e 69E0     		b	.L110
 2139              	.L109:
 679:u8glib_arm_v1.18.1\src/u8g_font.c ****     data = u8g_font_GetGlyphDataStart(u8g->font, g);
 2140              		.loc 1 679 0
 2141 0030 7B68     		ldr	r3, [r7, #4]
 2142 0032 9B68     		ldr	r3, [r3, #8]
 2143 0034 1846     		mov	r0, r3
 2144 0036 F968     		ldr	r1, [r7, #12]
 2145 0038 FFF7FEFF 		bl	u8g_font_GetGlyphDataStart
 2146 003c 7861     		str	r0, [r7, #20]
 2147              	.LBE4:
 680:u8glib_arm_v1.18.1\src/u8g_font.c ****   }
 681:u8glib_arm_v1.18.1\src/u8g_font.c ****   
 682:u8glib_arm_v1.18.1\src/u8g_font.c ****   w = u8g->glyph_width;
 2148              		.loc 1 682 0
 2149 003e 7B68     		ldr	r3, [r7, #4]
 2150 0040 DB7F     		ldrb	r3, [r3, #31]
 2151 0042 FB72     		strb	r3, [r7, #11]
 683:u8glib_arm_v1.18.1\src/u8g_font.c ****   h = u8g->glyph_height;
 2152              		.loc 1 683 0
 2153 0044 7B68     		ldr	r3, [r7, #4]
 2154 0046 93F82030 		ldrb	r3, [r3, #32]
 2155 004a BB72     		strb	r3, [r7, #10]
 684:u8glib_arm_v1.18.1\src/u8g_font.c ****   
 685:u8glib_arm_v1.18.1\src/u8g_font.c ****   x -= u8g->glyph_x;
 2156              		.loc 1 685 0
 2157 004c 7B68     		ldr	r3, [r7, #4]
ARM GAS  C:\Users\KJA\AppData\Local\Temp\ccevgiJT.s 			page 51


 2158 004e 5B7F     		ldrb	r3, [r3, #29]	@ zero_extendqisi2
 2159 0050 DBB2     		uxtb	r3, r3
 2160 0052 FA78     		ldrb	r2, [r7, #3]
 2161 0054 D31A     		subs	r3, r2, r3
 2162 0056 FB70     		strb	r3, [r7, #3]
 686:u8glib_arm_v1.18.1\src/u8g_font.c ****   y += u8g->glyph_y;
 2163              		.loc 1 686 0
 2164 0058 7B68     		ldr	r3, [r7, #4]
 2165 005a 9B7F     		ldrb	r3, [r3, #30]	@ zero_extendqisi2
 2166 005c DAB2     		uxtb	r2, r3
 2167 005e BB78     		ldrb	r3, [r7, #2]
 2168 0060 1344     		add	r3, r3, r2
 2169 0062 BB70     		strb	r3, [r7, #2]
 687:u8glib_arm_v1.18.1\src/u8g_font.c ****   y++;
 2170              		.loc 1 687 0
 2171 0064 BB78     		ldrb	r3, [r7, #2]	@ zero_extendqisi2
 2172 0066 0133     		adds	r3, r3, #1
 2173 0068 BB70     		strb	r3, [r7, #2]
 688:u8glib_arm_v1.18.1\src/u8g_font.c ****   
 689:u8glib_arm_v1.18.1\src/u8g_font.c ****   if ( u8g_IsBBXIntersection(u8g, x-(w-1), y, w, h) == 0 )
 2174              		.loc 1 689 0
 2175 006a FA78     		ldrb	r2, [r7, #3]
 2176 006c FB7A     		ldrb	r3, [r7, #11]
 2177 006e D31A     		subs	r3, r2, r3
 2178 0070 DBB2     		uxtb	r3, r3
 2179 0072 0133     		adds	r3, r3, #1
 2180 0074 D9B2     		uxtb	r1, r3
 2181 0076 BA78     		ldrb	r2, [r7, #2]	@ zero_extendqisi2
 2182 0078 FC7A     		ldrb	r4, [r7, #11]	@ zero_extendqisi2
 2183 007a BB7A     		ldrb	r3, [r7, #10]	@ zero_extendqisi2
 2184 007c 0093     		str	r3, [sp]
 2185 007e 7868     		ldr	r0, [r7, #4]
 2186 0080 2346     		mov	r3, r4
 2187 0082 FFF7FEFF 		bl	u8g_IsBBXIntersection
 2188 0086 0346     		mov	r3, r0
 2189 0088 002B     		cmp	r3, #0
 2190 008a 02D1     		bne	.L111
 690:u8glib_arm_v1.18.1\src/u8g_font.c ****     return u8g->glyph_dx;
 2191              		.loc 1 690 0
 2192 008c 7B68     		ldr	r3, [r7, #4]
 2193 008e 1B7F     		ldrb	r3, [r3, #28]	@ zero_extendqisi2
 2194 0090 38E0     		b	.L110
 2195              	.L111:
 691:u8glib_arm_v1.18.1\src/u8g_font.c **** 
 692:u8glib_arm_v1.18.1\src/u8g_font.c ****   /* now, w is reused as bytes per line */
 693:u8glib_arm_v1.18.1\src/u8g_font.c ****   w += 7;
 2196              		.loc 1 693 0
 2197 0092 FB7A     		ldrb	r3, [r7, #11]
 2198 0094 0733     		adds	r3, r3, #7
 2199 0096 FB72     		strb	r3, [r7, #11]
 694:u8glib_arm_v1.18.1\src/u8g_font.c ****   w /= 8;
 2200              		.loc 1 694 0
 2201 0098 FB7A     		ldrb	r3, [r7, #11]	@ zero_extendqisi2
 2202 009a DB08     		lsrs	r3, r3, #3
 2203 009c FB72     		strb	r3, [r7, #11]
 695:u8glib_arm_v1.18.1\src/u8g_font.c ****   
 696:u8glib_arm_v1.18.1\src/u8g_font.c ****   iy = y;
ARM GAS  C:\Users\KJA\AppData\Local\Temp\ccevgiJT.s 			page 52


 2204              		.loc 1 696 0
 2205 009e BB78     		ldrb	r3, [r7, #2]
 2206 00a0 3B74     		strb	r3, [r7, #16]
 697:u8glib_arm_v1.18.1\src/u8g_font.c ****   iy += h;
 2207              		.loc 1 697 0
 2208 00a2 3A7C     		ldrb	r2, [r7, #16]
 2209 00a4 BB7A     		ldrb	r3, [r7, #10]
 2210 00a6 1344     		add	r3, r3, r2
 2211 00a8 3B74     		strb	r3, [r7, #16]
 698:u8glib_arm_v1.18.1\src/u8g_font.c ****   iy--;
 2212              		.loc 1 698 0
 2213 00aa 3B7C     		ldrb	r3, [r7, #16]	@ zero_extendqisi2
 2214 00ac 013B     		subs	r3, r3, #1
 2215 00ae 3B74     		strb	r3, [r7, #16]
 699:u8glib_arm_v1.18.1\src/u8g_font.c ****   for( j = 0; j < h; j++ )
 2216              		.loc 1 699 0
 2217 00b0 0023     		movs	r3, #0
 2218 00b2 BB74     		strb	r3, [r7, #18]
 2219 00b4 20E0     		b	.L112
 2220              	.L115:
 700:u8glib_arm_v1.18.1\src/u8g_font.c ****   {
 701:u8glib_arm_v1.18.1\src/u8g_font.c ****     ix = x;
 2221              		.loc 1 701 0
 2222 00b6 FB78     		ldrb	r3, [r7, #3]
 2223 00b8 7B74     		strb	r3, [r7, #17]
 702:u8glib_arm_v1.18.1\src/u8g_font.c ****     for( i = 0; i < w; i++ )
 2224              		.loc 1 702 0
 2225 00ba 0023     		movs	r3, #0
 2226 00bc FB74     		strb	r3, [r7, #19]
 2227 00be 11E0     		b	.L113
 2228              	.L114:
 703:u8glib_arm_v1.18.1\src/u8g_font.c ****     {
 704:u8glib_arm_v1.18.1\src/u8g_font.c ****       u8g_Draw8Pixel(u8g, ix, iy, 2, u8g_pgm_read(data));
 2229              		.loc 1 704 0 discriminator 3
 2230 00c0 7B69     		ldr	r3, [r7, #20]
 2231 00c2 1B78     		ldrb	r3, [r3]	@ zero_extendqisi2
 2232 00c4 797C     		ldrb	r1, [r7, #17]	@ zero_extendqisi2
 2233 00c6 3A7C     		ldrb	r2, [r7, #16]	@ zero_extendqisi2
 2234 00c8 0093     		str	r3, [sp]
 2235 00ca 7868     		ldr	r0, [r7, #4]
 2236 00cc 0223     		movs	r3, #2
 2237 00ce FFF7FEFF 		bl	u8g_Draw8Pixel
 705:u8glib_arm_v1.18.1\src/u8g_font.c ****       data++;
 2238              		.loc 1 705 0 discriminator 3
 2239 00d2 7B69     		ldr	r3, [r7, #20]
 2240 00d4 0133     		adds	r3, r3, #1
 2241 00d6 7B61     		str	r3, [r7, #20]
 706:u8glib_arm_v1.18.1\src/u8g_font.c ****       ix-=8;
 2242              		.loc 1 706 0 discriminator 3
 2243 00d8 7B7C     		ldrb	r3, [r7, #17]
 2244 00da 083B     		subs	r3, r3, #8
 2245 00dc 7B74     		strb	r3, [r7, #17]
 702:u8glib_arm_v1.18.1\src/u8g_font.c ****     {
 2246              		.loc 1 702 0 discriminator 3
 2247 00de FB7C     		ldrb	r3, [r7, #19]	@ zero_extendqisi2
 2248 00e0 0133     		adds	r3, r3, #1
 2249 00e2 FB74     		strb	r3, [r7, #19]
ARM GAS  C:\Users\KJA\AppData\Local\Temp\ccevgiJT.s 			page 53


 2250              	.L113:
 702:u8glib_arm_v1.18.1\src/u8g_font.c ****     {
 2251              		.loc 1 702 0 is_stmt 0 discriminator 1
 2252 00e4 FA7C     		ldrb	r2, [r7, #19]	@ zero_extendqisi2
 2253 00e6 FB7A     		ldrb	r3, [r7, #11]	@ zero_extendqisi2
 2254 00e8 9A42     		cmp	r2, r3
 2255 00ea E9D3     		bcc	.L114
 707:u8glib_arm_v1.18.1\src/u8g_font.c ****     }
 708:u8glib_arm_v1.18.1\src/u8g_font.c ****     iy--;
 2256              		.loc 1 708 0 is_stmt 1 discriminator 2
 2257 00ec 3B7C     		ldrb	r3, [r7, #16]	@ zero_extendqisi2
 2258 00ee 013B     		subs	r3, r3, #1
 2259 00f0 3B74     		strb	r3, [r7, #16]
 699:u8glib_arm_v1.18.1\src/u8g_font.c ****   {
 2260              		.loc 1 699 0 discriminator 2
 2261 00f2 BB7C     		ldrb	r3, [r7, #18]	@ zero_extendqisi2
 2262 00f4 0133     		adds	r3, r3, #1
 2263 00f6 BB74     		strb	r3, [r7, #18]
 2264              	.L112:
 699:u8glib_arm_v1.18.1\src/u8g_font.c ****   {
 2265              		.loc 1 699 0 is_stmt 0 discriminator 1
 2266 00f8 BA7C     		ldrb	r2, [r7, #18]	@ zero_extendqisi2
 2267 00fa BB7A     		ldrb	r3, [r7, #10]	@ zero_extendqisi2
 2268 00fc 9A42     		cmp	r2, r3
 2269 00fe DAD3     		bcc	.L115
 709:u8glib_arm_v1.18.1\src/u8g_font.c ****   }
 710:u8glib_arm_v1.18.1\src/u8g_font.c ****   return u8g->glyph_dx;
 2270              		.loc 1 710 0 is_stmt 1
 2271 0100 7B68     		ldr	r3, [r7, #4]
 2272 0102 1B7F     		ldrb	r3, [r3, #28]	@ zero_extendqisi2
 2273              	.L110:
 2274 0104 5BB2     		sxtb	r3, r3
 711:u8glib_arm_v1.18.1\src/u8g_font.c **** }
 2275              		.loc 1 711 0
 2276 0106 1846     		mov	r0, r3
 2277 0108 1C37     		adds	r7, r7, #28
 2278              		.cfi_def_cfa_offset 12
 2279 010a BD46     		mov	sp, r7
 2280              		.cfi_def_cfa_register 13
 2281              		@ sp needed
 2282 010c 90BD     		pop	{r4, r7, pc}
 2283              		.cfi_endproc
 2284              	.LFE34:
 2285              		.size	u8g_draw_glyph180, .-u8g_draw_glyph180
 2286 010e 00BF     		.section	.text.u8g_DrawGlyph180,"ax",%progbits
 2287              		.align	2
 2288              		.global	u8g_DrawGlyph180
 2289              		.thumb
 2290              		.thumb_func
 2291              		.type	u8g_DrawGlyph180, %function
 2292              	u8g_DrawGlyph180:
 2293              	.LFB35:
 712:u8glib_arm_v1.18.1\src/u8g_font.c **** 
 713:u8glib_arm_v1.18.1\src/u8g_font.c **** int8_t u8g_DrawGlyph180(u8g_t *u8g, u8g_uint_t x, u8g_uint_t y, uint8_t encoding)
 714:u8glib_arm_v1.18.1\src/u8g_font.c **** {
 2294              		.loc 1 714 0
 2295              		.cfi_startproc
ARM GAS  C:\Users\KJA\AppData\Local\Temp\ccevgiJT.s 			page 54


 2296              		@ args = 0, pretend = 0, frame = 8
 2297              		@ frame_needed = 1, uses_anonymous_args = 0
 2298 0000 80B5     		push	{r7, lr}
 2299              		.cfi_def_cfa_offset 8
 2300              		.cfi_offset 7, -8
 2301              		.cfi_offset 14, -4
 2302 0002 82B0     		sub	sp, sp, #8
 2303              		.cfi_def_cfa_offset 16
 2304 0004 00AF     		add	r7, sp, #0
 2305              		.cfi_def_cfa_register 7
 2306 0006 7860     		str	r0, [r7, #4]
 2307 0008 0846     		mov	r0, r1
 2308 000a 1146     		mov	r1, r2
 2309 000c 1A46     		mov	r2, r3
 2310 000e 0346     		mov	r3, r0
 2311 0010 FB70     		strb	r3, [r7, #3]
 2312 0012 0B46     		mov	r3, r1
 2313 0014 BB70     		strb	r3, [r7, #2]
 2314 0016 1346     		mov	r3, r2
 2315 0018 7B70     		strb	r3, [r7, #1]
 715:u8glib_arm_v1.18.1\src/u8g_font.c ****   y -= u8g->font_calc_vref(u8g);
 2316              		.loc 1 715 0
 2317 001a 7B68     		ldr	r3, [r7, #4]
 2318 001c 5B6A     		ldr	r3, [r3, #36]
 2319 001e 7868     		ldr	r0, [r7, #4]
 2320 0020 9847     		blx	r3
 2321 0022 0346     		mov	r3, r0
 2322 0024 1A46     		mov	r2, r3
 2323 0026 BB78     		ldrb	r3, [r7, #2]
 2324 0028 9B1A     		subs	r3, r3, r2
 2325 002a BB70     		strb	r3, [r7, #2]
 716:u8glib_arm_v1.18.1\src/u8g_font.c ****   return u8g_draw_glyph180(u8g, x, y, encoding);
 2326              		.loc 1 716 0
 2327 002c F978     		ldrb	r1, [r7, #3]	@ zero_extendqisi2
 2328 002e BA78     		ldrb	r2, [r7, #2]	@ zero_extendqisi2
 2329 0030 7B78     		ldrb	r3, [r7, #1]	@ zero_extendqisi2
 2330 0032 7868     		ldr	r0, [r7, #4]
 2331 0034 FFF7FEFF 		bl	u8g_draw_glyph180
 2332 0038 0346     		mov	r3, r0
 717:u8glib_arm_v1.18.1\src/u8g_font.c **** }
 2333              		.loc 1 717 0
 2334 003a 1846     		mov	r0, r3
 2335 003c 0837     		adds	r7, r7, #8
 2336              		.cfi_def_cfa_offset 8
 2337 003e BD46     		mov	sp, r7
 2338              		.cfi_def_cfa_register 13
 2339              		@ sp needed
 2340 0040 80BD     		pop	{r7, pc}
 2341              		.cfi_endproc
 2342              	.LFE35:
 2343              		.size	u8g_DrawGlyph180, .-u8g_DrawGlyph180
 2344 0042 00BF     		.section	.text.u8g_draw_glyph270,"ax",%progbits
 2345              		.align	2
 2346              		.global	u8g_draw_glyph270
 2347              		.thumb
 2348              		.thumb_func
 2349              		.type	u8g_draw_glyph270, %function
ARM GAS  C:\Users\KJA\AppData\Local\Temp\ccevgiJT.s 			page 55


 2350              	u8g_draw_glyph270:
 2351              	.LFB36:
 718:u8glib_arm_v1.18.1\src/u8g_font.c **** 
 719:u8glib_arm_v1.18.1\src/u8g_font.c **** 
 720:u8glib_arm_v1.18.1\src/u8g_font.c **** int8_t u8g_draw_glyph270(u8g_t *u8g, u8g_uint_t x, u8g_uint_t y, uint8_t encoding)
 721:u8glib_arm_v1.18.1\src/u8g_font.c **** {
 2352              		.loc 1 721 0
 2353              		.cfi_startproc
 2354              		@ args = 0, pretend = 0, frame = 24
 2355              		@ frame_needed = 1, uses_anonymous_args = 0
 2356 0000 90B5     		push	{r4, r7, lr}
 2357              		.cfi_def_cfa_offset 12
 2358              		.cfi_offset 4, -12
 2359              		.cfi_offset 7, -8
 2360              		.cfi_offset 14, -4
 2361 0002 89B0     		sub	sp, sp, #36
 2362              		.cfi_def_cfa_offset 48
 2363 0004 02AF     		add	r7, sp, #8
 2364              		.cfi_def_cfa 7, 40
 2365 0006 7860     		str	r0, [r7, #4]
 2366 0008 0846     		mov	r0, r1
 2367 000a 1146     		mov	r1, r2
 2368 000c 1A46     		mov	r2, r3
 2369 000e 0346     		mov	r3, r0
 2370 0010 FB70     		strb	r3, [r7, #3]
 2371 0012 0B46     		mov	r3, r1
 2372 0014 BB70     		strb	r3, [r7, #2]
 2373 0016 1346     		mov	r3, r2
 2374 0018 7B70     		strb	r3, [r7, #1]
 2375              	.LBB5:
 722:u8glib_arm_v1.18.1\src/u8g_font.c ****   const u8g_pgm_uint8_t *data;
 723:u8glib_arm_v1.18.1\src/u8g_font.c ****   uint8_t w, h;
 724:u8glib_arm_v1.18.1\src/u8g_font.c ****   uint8_t i, j;
 725:u8glib_arm_v1.18.1\src/u8g_font.c ****   u8g_uint_t ix, iy;
 726:u8glib_arm_v1.18.1\src/u8g_font.c **** 
 727:u8glib_arm_v1.18.1\src/u8g_font.c ****   {
 728:u8glib_arm_v1.18.1\src/u8g_font.c ****     u8g_glyph_t g = u8g_GetGlyph(u8g, encoding);
 2376              		.loc 1 728 0
 2377 001a 7B78     		ldrb	r3, [r7, #1]	@ zero_extendqisi2
 2378 001c 7868     		ldr	r0, [r7, #4]
 2379 001e 1946     		mov	r1, r3
 2380 0020 FFF7FEFF 		bl	u8g_GetGlyph
 2381 0024 F860     		str	r0, [r7, #12]
 729:u8glib_arm_v1.18.1\src/u8g_font.c ****     if ( g == NULL  )
 2382              		.loc 1 729 0
 2383 0026 FB68     		ldr	r3, [r7, #12]
 2384 0028 002B     		cmp	r3, #0
 2385 002a 01D1     		bne	.L119
 730:u8glib_arm_v1.18.1\src/u8g_font.c ****       return 0;
 2386              		.loc 1 730 0
 2387 002c 0023     		movs	r3, #0
 2388 002e 6EE0     		b	.L120
 2389              	.L119:
 731:u8glib_arm_v1.18.1\src/u8g_font.c ****     data = u8g_font_GetGlyphDataStart(u8g->font, g);
 2390              		.loc 1 731 0
 2391 0030 7B68     		ldr	r3, [r7, #4]
 2392 0032 9B68     		ldr	r3, [r3, #8]
ARM GAS  C:\Users\KJA\AppData\Local\Temp\ccevgiJT.s 			page 56


 2393 0034 1846     		mov	r0, r3
 2394 0036 F968     		ldr	r1, [r7, #12]
 2395 0038 FFF7FEFF 		bl	u8g_font_GetGlyphDataStart
 2396 003c 7861     		str	r0, [r7, #20]
 2397              	.LBE5:
 732:u8glib_arm_v1.18.1\src/u8g_font.c ****   }
 733:u8glib_arm_v1.18.1\src/u8g_font.c ****   
 734:u8glib_arm_v1.18.1\src/u8g_font.c ****   w = u8g->glyph_width;
 2398              		.loc 1 734 0
 2399 003e 7B68     		ldr	r3, [r7, #4]
 2400 0040 DB7F     		ldrb	r3, [r3, #31]
 2401 0042 FB72     		strb	r3, [r7, #11]
 735:u8glib_arm_v1.18.1\src/u8g_font.c ****   h = u8g->glyph_height;
 2402              		.loc 1 735 0
 2403 0044 7B68     		ldr	r3, [r7, #4]
 2404 0046 93F82030 		ldrb	r3, [r3, #32]
 2405 004a BB72     		strb	r3, [r7, #10]
 736:u8glib_arm_v1.18.1\src/u8g_font.c ****   
 737:u8glib_arm_v1.18.1\src/u8g_font.c ****   x -= u8g->glyph_y;
 2406              		.loc 1 737 0
 2407 004c 7B68     		ldr	r3, [r7, #4]
 2408 004e 9B7F     		ldrb	r3, [r3, #30]	@ zero_extendqisi2
 2409 0050 DBB2     		uxtb	r3, r3
 2410 0052 FA78     		ldrb	r2, [r7, #3]
 2411 0054 D31A     		subs	r3, r2, r3
 2412 0056 FB70     		strb	r3, [r7, #3]
 738:u8glib_arm_v1.18.1\src/u8g_font.c ****   x--;
 2413              		.loc 1 738 0
 2414 0058 FB78     		ldrb	r3, [r7, #3]	@ zero_extendqisi2
 2415 005a 013B     		subs	r3, r3, #1
 2416 005c FB70     		strb	r3, [r7, #3]
 739:u8glib_arm_v1.18.1\src/u8g_font.c ****   y -= u8g->glyph_x;
 2417              		.loc 1 739 0
 2418 005e 7B68     		ldr	r3, [r7, #4]
 2419 0060 5B7F     		ldrb	r3, [r3, #29]	@ zero_extendqisi2
 2420 0062 DBB2     		uxtb	r3, r3
 2421 0064 BA78     		ldrb	r2, [r7, #2]
 2422 0066 D31A     		subs	r3, r2, r3
 2423 0068 BB70     		strb	r3, [r7, #2]
 740:u8glib_arm_v1.18.1\src/u8g_font.c ****   
 741:u8glib_arm_v1.18.1\src/u8g_font.c ****   if ( u8g_IsBBXIntersection(u8g, x-(h-1), y-(w-1), h, w) == 0 )
 2424              		.loc 1 741 0
 2425 006a FA78     		ldrb	r2, [r7, #3]
 2426 006c BB7A     		ldrb	r3, [r7, #10]
 2427 006e D31A     		subs	r3, r2, r3
 2428 0070 DBB2     		uxtb	r3, r3
 2429 0072 0133     		adds	r3, r3, #1
 2430 0074 D9B2     		uxtb	r1, r3
 2431 0076 BA78     		ldrb	r2, [r7, #2]
 2432 0078 FB7A     		ldrb	r3, [r7, #11]
 2433 007a D31A     		subs	r3, r2, r3
 2434 007c DBB2     		uxtb	r3, r3
 2435 007e 0133     		adds	r3, r3, #1
 2436 0080 DAB2     		uxtb	r2, r3
 2437 0082 BC7A     		ldrb	r4, [r7, #10]	@ zero_extendqisi2
 2438 0084 FB7A     		ldrb	r3, [r7, #11]	@ zero_extendqisi2
 2439 0086 0093     		str	r3, [sp]
ARM GAS  C:\Users\KJA\AppData\Local\Temp\ccevgiJT.s 			page 57


 2440 0088 7868     		ldr	r0, [r7, #4]
 2441 008a 2346     		mov	r3, r4
 2442 008c FFF7FEFF 		bl	u8g_IsBBXIntersection
 2443 0090 0346     		mov	r3, r0
 2444 0092 002B     		cmp	r3, #0
 2445 0094 02D1     		bne	.L121
 742:u8glib_arm_v1.18.1\src/u8g_font.c ****     return u8g->glyph_dx;
 2446              		.loc 1 742 0
 2447 0096 7B68     		ldr	r3, [r7, #4]
 2448 0098 1B7F     		ldrb	r3, [r3, #28]	@ zero_extendqisi2
 2449 009a 38E0     		b	.L120
 2450              	.L121:
 743:u8glib_arm_v1.18.1\src/u8g_font.c ****   
 744:u8glib_arm_v1.18.1\src/u8g_font.c **** 
 745:u8glib_arm_v1.18.1\src/u8g_font.c ****   /* now, w is reused as bytes per line */
 746:u8glib_arm_v1.18.1\src/u8g_font.c ****   w += 7;
 2451              		.loc 1 746 0
 2452 009c FB7A     		ldrb	r3, [r7, #11]
 2453 009e 0733     		adds	r3, r3, #7
 2454 00a0 FB72     		strb	r3, [r7, #11]
 747:u8glib_arm_v1.18.1\src/u8g_font.c ****   w /= 8;  
 2455              		.loc 1 747 0
 2456 00a2 FB7A     		ldrb	r3, [r7, #11]	@ zero_extendqisi2
 2457 00a4 DB08     		lsrs	r3, r3, #3
 2458 00a6 FB72     		strb	r3, [r7, #11]
 748:u8glib_arm_v1.18.1\src/u8g_font.c ****       
 749:u8glib_arm_v1.18.1\src/u8g_font.c ****   ix = x;
 2459              		.loc 1 749 0
 2460 00a8 FB78     		ldrb	r3, [r7, #3]
 2461 00aa 7B74     		strb	r3, [r7, #17]
 750:u8glib_arm_v1.18.1\src/u8g_font.c ****   ix -= h;
 2462              		.loc 1 750 0
 2463 00ac 7A7C     		ldrb	r2, [r7, #17]
 2464 00ae BB7A     		ldrb	r3, [r7, #10]
 2465 00b0 D31A     		subs	r3, r2, r3
 2466 00b2 7B74     		strb	r3, [r7, #17]
 751:u8glib_arm_v1.18.1\src/u8g_font.c ****   ix++;
 2467              		.loc 1 751 0
 2468 00b4 7B7C     		ldrb	r3, [r7, #17]	@ zero_extendqisi2
 2469 00b6 0133     		adds	r3, r3, #1
 2470 00b8 7B74     		strb	r3, [r7, #17]
 752:u8glib_arm_v1.18.1\src/u8g_font.c ****   
 753:u8glib_arm_v1.18.1\src/u8g_font.c ****   for( j = 0; j < h; j++ )
 2471              		.loc 1 753 0
 2472 00ba 0023     		movs	r3, #0
 2473 00bc BB74     		strb	r3, [r7, #18]
 2474 00be 20E0     		b	.L122
 2475              	.L125:
 754:u8glib_arm_v1.18.1\src/u8g_font.c ****   {
 755:u8glib_arm_v1.18.1\src/u8g_font.c ****     iy = y;
 2476              		.loc 1 755 0
 2477 00c0 BB78     		ldrb	r3, [r7, #2]
 2478 00c2 3B74     		strb	r3, [r7, #16]
 756:u8glib_arm_v1.18.1\src/u8g_font.c ****     for( i = 0; i < w; i++ )
 2479              		.loc 1 756 0
 2480 00c4 0023     		movs	r3, #0
 2481 00c6 FB74     		strb	r3, [r7, #19]
ARM GAS  C:\Users\KJA\AppData\Local\Temp\ccevgiJT.s 			page 58


 2482 00c8 11E0     		b	.L123
 2483              	.L124:
 757:u8glib_arm_v1.18.1\src/u8g_font.c ****     {
 758:u8glib_arm_v1.18.1\src/u8g_font.c ****       u8g_Draw8Pixel(u8g, ix, iy, 3, u8g_pgm_read(data));
 2484              		.loc 1 758 0 discriminator 3
 2485 00ca 7B69     		ldr	r3, [r7, #20]
 2486 00cc 1B78     		ldrb	r3, [r3]	@ zero_extendqisi2
 2487 00ce 797C     		ldrb	r1, [r7, #17]	@ zero_extendqisi2
 2488 00d0 3A7C     		ldrb	r2, [r7, #16]	@ zero_extendqisi2
 2489 00d2 0093     		str	r3, [sp]
 2490 00d4 7868     		ldr	r0, [r7, #4]
 2491 00d6 0323     		movs	r3, #3
 2492 00d8 FFF7FEFF 		bl	u8g_Draw8Pixel
 759:u8glib_arm_v1.18.1\src/u8g_font.c ****       data++;
 2493              		.loc 1 759 0 discriminator 3
 2494 00dc 7B69     		ldr	r3, [r7, #20]
 2495 00de 0133     		adds	r3, r3, #1
 2496 00e0 7B61     		str	r3, [r7, #20]
 760:u8glib_arm_v1.18.1\src/u8g_font.c ****       iy-=8;
 2497              		.loc 1 760 0 discriminator 3
 2498 00e2 3B7C     		ldrb	r3, [r7, #16]
 2499 00e4 083B     		subs	r3, r3, #8
 2500 00e6 3B74     		strb	r3, [r7, #16]
 756:u8glib_arm_v1.18.1\src/u8g_font.c ****     {
 2501              		.loc 1 756 0 discriminator 3
 2502 00e8 FB7C     		ldrb	r3, [r7, #19]	@ zero_extendqisi2
 2503 00ea 0133     		adds	r3, r3, #1
 2504 00ec FB74     		strb	r3, [r7, #19]
 2505              	.L123:
 756:u8glib_arm_v1.18.1\src/u8g_font.c ****     {
 2506              		.loc 1 756 0 is_stmt 0 discriminator 1
 2507 00ee FA7C     		ldrb	r2, [r7, #19]	@ zero_extendqisi2
 2508 00f0 FB7A     		ldrb	r3, [r7, #11]	@ zero_extendqisi2
 2509 00f2 9A42     		cmp	r2, r3
 2510 00f4 E9D3     		bcc	.L124
 761:u8glib_arm_v1.18.1\src/u8g_font.c ****     }
 762:u8glib_arm_v1.18.1\src/u8g_font.c ****     ix++;
 2511              		.loc 1 762 0 is_stmt 1 discriminator 2
 2512 00f6 7B7C     		ldrb	r3, [r7, #17]	@ zero_extendqisi2
 2513 00f8 0133     		adds	r3, r3, #1
 2514 00fa 7B74     		strb	r3, [r7, #17]
 753:u8glib_arm_v1.18.1\src/u8g_font.c ****   {
 2515              		.loc 1 753 0 discriminator 2
 2516 00fc BB7C     		ldrb	r3, [r7, #18]	@ zero_extendqisi2
 2517 00fe 0133     		adds	r3, r3, #1
 2518 0100 BB74     		strb	r3, [r7, #18]
 2519              	.L122:
 753:u8glib_arm_v1.18.1\src/u8g_font.c ****   {
 2520              		.loc 1 753 0 is_stmt 0 discriminator 1
 2521 0102 BA7C     		ldrb	r2, [r7, #18]	@ zero_extendqisi2
 2522 0104 BB7A     		ldrb	r3, [r7, #10]	@ zero_extendqisi2
 2523 0106 9A42     		cmp	r2, r3
 2524 0108 DAD3     		bcc	.L125
 763:u8glib_arm_v1.18.1\src/u8g_font.c ****   }
 764:u8glib_arm_v1.18.1\src/u8g_font.c ****   return u8g->glyph_dx;
 2525              		.loc 1 764 0 is_stmt 1
 2526 010a 7B68     		ldr	r3, [r7, #4]
ARM GAS  C:\Users\KJA\AppData\Local\Temp\ccevgiJT.s 			page 59


 2527 010c 1B7F     		ldrb	r3, [r3, #28]	@ zero_extendqisi2
 2528              	.L120:
 2529 010e 5BB2     		sxtb	r3, r3
 765:u8glib_arm_v1.18.1\src/u8g_font.c **** }
 2530              		.loc 1 765 0
 2531 0110 1846     		mov	r0, r3
 2532 0112 1C37     		adds	r7, r7, #28
 2533              		.cfi_def_cfa_offset 12
 2534 0114 BD46     		mov	sp, r7
 2535              		.cfi_def_cfa_register 13
 2536              		@ sp needed
 2537 0116 90BD     		pop	{r4, r7, pc}
 2538              		.cfi_endproc
 2539              	.LFE36:
 2540              		.size	u8g_draw_glyph270, .-u8g_draw_glyph270
 2541              		.section	.text.u8g_DrawGlyph270,"ax",%progbits
 2542              		.align	2
 2543              		.global	u8g_DrawGlyph270
 2544              		.thumb
 2545              		.thumb_func
 2546              		.type	u8g_DrawGlyph270, %function
 2547              	u8g_DrawGlyph270:
 2548              	.LFB37:
 766:u8glib_arm_v1.18.1\src/u8g_font.c **** 
 767:u8glib_arm_v1.18.1\src/u8g_font.c **** int8_t u8g_DrawGlyph270(u8g_t *u8g, u8g_uint_t x, u8g_uint_t y, uint8_t encoding)
 768:u8glib_arm_v1.18.1\src/u8g_font.c **** {
 2549              		.loc 1 768 0
 2550              		.cfi_startproc
 2551              		@ args = 0, pretend = 0, frame = 8
 2552              		@ frame_needed = 1, uses_anonymous_args = 0
 2553 0000 80B5     		push	{r7, lr}
 2554              		.cfi_def_cfa_offset 8
 2555              		.cfi_offset 7, -8
 2556              		.cfi_offset 14, -4
 2557 0002 82B0     		sub	sp, sp, #8
 2558              		.cfi_def_cfa_offset 16
 2559 0004 00AF     		add	r7, sp, #0
 2560              		.cfi_def_cfa_register 7
 2561 0006 7860     		str	r0, [r7, #4]
 2562 0008 0846     		mov	r0, r1
 2563 000a 1146     		mov	r1, r2
 2564 000c 1A46     		mov	r2, r3
 2565 000e 0346     		mov	r3, r0
 2566 0010 FB70     		strb	r3, [r7, #3]
 2567 0012 0B46     		mov	r3, r1
 2568 0014 BB70     		strb	r3, [r7, #2]
 2569 0016 1346     		mov	r3, r2
 2570 0018 7B70     		strb	r3, [r7, #1]
 769:u8glib_arm_v1.18.1\src/u8g_font.c ****   x += u8g->font_calc_vref(u8g);
 2571              		.loc 1 769 0
 2572 001a 7B68     		ldr	r3, [r7, #4]
 2573 001c 5B6A     		ldr	r3, [r3, #36]
 2574 001e 7868     		ldr	r0, [r7, #4]
 2575 0020 9847     		blx	r3
 2576 0022 0346     		mov	r3, r0
 2577 0024 1A46     		mov	r2, r3
 2578 0026 FB78     		ldrb	r3, [r7, #3]
ARM GAS  C:\Users\KJA\AppData\Local\Temp\ccevgiJT.s 			page 60


 2579 0028 1344     		add	r3, r3, r2
 2580 002a FB70     		strb	r3, [r7, #3]
 770:u8glib_arm_v1.18.1\src/u8g_font.c ****   return u8g_draw_glyph270(u8g, x, y, encoding);
 2581              		.loc 1 770 0
 2582 002c F978     		ldrb	r1, [r7, #3]	@ zero_extendqisi2
 2583 002e BA78     		ldrb	r2, [r7, #2]	@ zero_extendqisi2
 2584 0030 7B78     		ldrb	r3, [r7, #1]	@ zero_extendqisi2
 2585 0032 7868     		ldr	r0, [r7, #4]
 2586 0034 FFF7FEFF 		bl	u8g_draw_glyph270
 2587 0038 0346     		mov	r3, r0
 771:u8glib_arm_v1.18.1\src/u8g_font.c **** }
 2588              		.loc 1 771 0
 2589 003a 1846     		mov	r0, r3
 2590 003c 0837     		adds	r7, r7, #8
 2591              		.cfi_def_cfa_offset 8
 2592 003e BD46     		mov	sp, r7
 2593              		.cfi_def_cfa_register 13
 2594              		@ sp needed
 2595 0040 80BD     		pop	{r7, pc}
 2596              		.cfi_endproc
 2597              	.LFE37:
 2598              		.size	u8g_DrawGlyph270, .-u8g_DrawGlyph270
 2599 0042 00BF     		.section	.text.u8g_DrawStr,"ax",%progbits
 2600              		.align	2
 2601              		.global	u8g_DrawStr
 2602              		.thumb
 2603              		.thumb_func
 2604              		.type	u8g_DrawStr, %function
 2605              	u8g_DrawStr:
 2606              	.LFB38:
 772:u8glib_arm_v1.18.1\src/u8g_font.c **** 
 773:u8glib_arm_v1.18.1\src/u8g_font.c **** 
 774:u8glib_arm_v1.18.1\src/u8g_font.c **** 
 775:u8glib_arm_v1.18.1\src/u8g_font.c **** #ifdef OBSOLETE
 776:u8glib_arm_v1.18.1\src/u8g_font.c **** /*
 777:u8glib_arm_v1.18.1\src/u8g_font.c ****   Draw a glyph
 778:u8glib_arm_v1.18.1\src/u8g_font.c ****   x,y: lower left corner of the font bounding box
 779:u8glib_arm_v1.18.1\src/u8g_font.c **** */
 780:u8glib_arm_v1.18.1\src/u8g_font.c **** int8_t u8g_DrawGlyphFontBBX(u8g_t *u8g, u8g_uint_t x, u8g_uint_t y, uint8_t dir, uint8_t encoding)
 781:u8glib_arm_v1.18.1\src/u8g_font.c **** {
 782:u8glib_arm_v1.18.1\src/u8g_font.c ****   /* TODO: apply "dir" */
 783:u8glib_arm_v1.18.1\src/u8g_font.c ****   x -= u8g_GetFontBBXOffX(u8g);
 784:u8glib_arm_v1.18.1\src/u8g_font.c ****   y += u8g_GetFontBBXOffY(u8g);
 785:u8glib_arm_v1.18.1\src/u8g_font.c ****   return u8g_DrawGlyphDir(u8g, x, y, dir, encoding);
 786:u8glib_arm_v1.18.1\src/u8g_font.c **** }
 787:u8glib_arm_v1.18.1\src/u8g_font.c **** #endif
 788:u8glib_arm_v1.18.1\src/u8g_font.c **** 
 789:u8glib_arm_v1.18.1\src/u8g_font.c **** /*========================================================================*/
 790:u8glib_arm_v1.18.1\src/u8g_font.c **** /* string drawing procedures */
 791:u8glib_arm_v1.18.1\src/u8g_font.c **** 
 792:u8glib_arm_v1.18.1\src/u8g_font.c **** 
 793:u8glib_arm_v1.18.1\src/u8g_font.c **** u8g_uint_t u8g_DrawStr(u8g_t *u8g, u8g_uint_t x, u8g_uint_t y, const char *s)
 794:u8glib_arm_v1.18.1\src/u8g_font.c **** {
 2607              		.loc 1 794 0
 2608              		.cfi_startproc
 2609              		@ args = 0, pretend = 0, frame = 24
 2610              		@ frame_needed = 1, uses_anonymous_args = 0
ARM GAS  C:\Users\KJA\AppData\Local\Temp\ccevgiJT.s 			page 61


 2611 0000 80B5     		push	{r7, lr}
 2612              		.cfi_def_cfa_offset 8
 2613              		.cfi_offset 7, -8
 2614              		.cfi_offset 14, -4
 2615 0002 86B0     		sub	sp, sp, #24
 2616              		.cfi_def_cfa_offset 32
 2617 0004 00AF     		add	r7, sp, #0
 2618              		.cfi_def_cfa_register 7
 2619 0006 F860     		str	r0, [r7, #12]
 2620 0008 7B60     		str	r3, [r7, #4]
 2621 000a 0B46     		mov	r3, r1
 2622 000c FB72     		strb	r3, [r7, #11]
 2623 000e 1346     		mov	r3, r2
 2624 0010 BB72     		strb	r3, [r7, #10]
 795:u8glib_arm_v1.18.1\src/u8g_font.c ****   u8g_uint_t t = 0;
 2625              		.loc 1 795 0
 2626 0012 0023     		movs	r3, #0
 2627 0014 FB75     		strb	r3, [r7, #23]
 796:u8glib_arm_v1.18.1\src/u8g_font.c ****   int8_t d;
 797:u8glib_arm_v1.18.1\src/u8g_font.c ****   
 798:u8glib_arm_v1.18.1\src/u8g_font.c ****   //u8g_uint_t u8g_GetStrWidth(u8g, s);
 799:u8glib_arm_v1.18.1\src/u8g_font.c ****   //u8g_font_GetFontAscent(u8g->font)-u8g_font_GetFontDescent(u8g->font);
 800:u8glib_arm_v1.18.1\src/u8g_font.c ****   
 801:u8glib_arm_v1.18.1\src/u8g_font.c ****   y += u8g->font_calc_vref(u8g);
 2628              		.loc 1 801 0
 2629 0016 FB68     		ldr	r3, [r7, #12]
 2630 0018 5B6A     		ldr	r3, [r3, #36]
 2631 001a F868     		ldr	r0, [r7, #12]
 2632 001c 9847     		blx	r3
 2633 001e 0346     		mov	r3, r0
 2634 0020 1A46     		mov	r2, r3
 2635 0022 BB7A     		ldrb	r3, [r7, #10]
 2636 0024 1344     		add	r3, r3, r2
 2637 0026 BB72     		strb	r3, [r7, #10]
 802:u8glib_arm_v1.18.1\src/u8g_font.c ****   
 803:u8glib_arm_v1.18.1\src/u8g_font.c ****   while( *s != '\0' )
 2638              		.loc 1 803 0
 2639 0028 13E0     		b	.L129
 2640              	.L130:
 804:u8glib_arm_v1.18.1\src/u8g_font.c ****   {
 805:u8glib_arm_v1.18.1\src/u8g_font.c ****     d = u8g_draw_glyph(u8g, x, y, *s);
 2641              		.loc 1 805 0
 2642 002a 7B68     		ldr	r3, [r7, #4]
 2643 002c 1B78     		ldrb	r3, [r3]	@ zero_extendqisi2
 2644 002e F97A     		ldrb	r1, [r7, #11]	@ zero_extendqisi2
 2645 0030 BA7A     		ldrb	r2, [r7, #10]	@ zero_extendqisi2
 2646 0032 F868     		ldr	r0, [r7, #12]
 2647 0034 FFF7FEFF 		bl	u8g_draw_glyph
 2648 0038 0346     		mov	r3, r0
 2649 003a BB75     		strb	r3, [r7, #22]
 806:u8glib_arm_v1.18.1\src/u8g_font.c ****     x += d;
 2650              		.loc 1 806 0
 2651 003c BA7D     		ldrb	r2, [r7, #22]	@ zero_extendqisi2
 2652 003e FB7A     		ldrb	r3, [r7, #11]
 2653 0040 1344     		add	r3, r3, r2
 2654 0042 FB72     		strb	r3, [r7, #11]
 807:u8glib_arm_v1.18.1\src/u8g_font.c ****     t += d;
ARM GAS  C:\Users\KJA\AppData\Local\Temp\ccevgiJT.s 			page 62


 2655              		.loc 1 807 0
 2656 0044 BA7D     		ldrb	r2, [r7, #22]	@ zero_extendqisi2
 2657 0046 FB7D     		ldrb	r3, [r7, #23]
 2658 0048 1344     		add	r3, r3, r2
 2659 004a FB75     		strb	r3, [r7, #23]
 808:u8glib_arm_v1.18.1\src/u8g_font.c ****     s++;
 2660              		.loc 1 808 0
 2661 004c 7B68     		ldr	r3, [r7, #4]
 2662 004e 0133     		adds	r3, r3, #1
 2663 0050 7B60     		str	r3, [r7, #4]
 2664              	.L129:
 803:u8glib_arm_v1.18.1\src/u8g_font.c ****   {
 2665              		.loc 1 803 0
 2666 0052 7B68     		ldr	r3, [r7, #4]
 2667 0054 1B78     		ldrb	r3, [r3]	@ zero_extendqisi2
 2668 0056 002B     		cmp	r3, #0
 2669 0058 E7D1     		bne	.L130
 809:u8glib_arm_v1.18.1\src/u8g_font.c ****   }
 810:u8glib_arm_v1.18.1\src/u8g_font.c ****   return t;
 2670              		.loc 1 810 0
 2671 005a FB7D     		ldrb	r3, [r7, #23]	@ zero_extendqisi2
 811:u8glib_arm_v1.18.1\src/u8g_font.c **** }
 2672              		.loc 1 811 0
 2673 005c 1846     		mov	r0, r3
 2674 005e 1837     		adds	r7, r7, #24
 2675              		.cfi_def_cfa_offset 8
 2676 0060 BD46     		mov	sp, r7
 2677              		.cfi_def_cfa_register 13
 2678              		@ sp needed
 2679 0062 80BD     		pop	{r7, pc}
 2680              		.cfi_endproc
 2681              	.LFE38:
 2682              		.size	u8g_DrawStr, .-u8g_DrawStr
 2683              		.section	.text.u8g_DrawStr90,"ax",%progbits
 2684              		.align	2
 2685              		.global	u8g_DrawStr90
 2686              		.thumb
 2687              		.thumb_func
 2688              		.type	u8g_DrawStr90, %function
 2689              	u8g_DrawStr90:
 2690              	.LFB39:
 812:u8glib_arm_v1.18.1\src/u8g_font.c **** 
 813:u8glib_arm_v1.18.1\src/u8g_font.c **** u8g_uint_t u8g_DrawStr90(u8g_t *u8g, u8g_uint_t x, u8g_uint_t y, const char *s)
 814:u8glib_arm_v1.18.1\src/u8g_font.c **** {
 2691              		.loc 1 814 0
 2692              		.cfi_startproc
 2693              		@ args = 0, pretend = 0, frame = 24
 2694              		@ frame_needed = 1, uses_anonymous_args = 0
 2695 0000 80B5     		push	{r7, lr}
 2696              		.cfi_def_cfa_offset 8
 2697              		.cfi_offset 7, -8
 2698              		.cfi_offset 14, -4
 2699 0002 86B0     		sub	sp, sp, #24
 2700              		.cfi_def_cfa_offset 32
 2701 0004 00AF     		add	r7, sp, #0
 2702              		.cfi_def_cfa_register 7
 2703 0006 F860     		str	r0, [r7, #12]
ARM GAS  C:\Users\KJA\AppData\Local\Temp\ccevgiJT.s 			page 63


 2704 0008 7B60     		str	r3, [r7, #4]
 2705 000a 0B46     		mov	r3, r1
 2706 000c FB72     		strb	r3, [r7, #11]
 2707 000e 1346     		mov	r3, r2
 2708 0010 BB72     		strb	r3, [r7, #10]
 815:u8glib_arm_v1.18.1\src/u8g_font.c ****   u8g_uint_t t = 0;
 2709              		.loc 1 815 0
 2710 0012 0023     		movs	r3, #0
 2711 0014 FB75     		strb	r3, [r7, #23]
 816:u8glib_arm_v1.18.1\src/u8g_font.c ****   int8_t d;
 817:u8glib_arm_v1.18.1\src/u8g_font.c ****     
 818:u8glib_arm_v1.18.1\src/u8g_font.c ****   x -= u8g->font_calc_vref(u8g);
 2712              		.loc 1 818 0
 2713 0016 FB68     		ldr	r3, [r7, #12]
 2714 0018 5B6A     		ldr	r3, [r3, #36]
 2715 001a F868     		ldr	r0, [r7, #12]
 2716 001c 9847     		blx	r3
 2717 001e 0346     		mov	r3, r0
 2718 0020 1A46     		mov	r2, r3
 2719 0022 FB7A     		ldrb	r3, [r7, #11]
 2720 0024 9B1A     		subs	r3, r3, r2
 2721 0026 FB72     		strb	r3, [r7, #11]
 819:u8glib_arm_v1.18.1\src/u8g_font.c **** 
 820:u8glib_arm_v1.18.1\src/u8g_font.c ****   while( *s != '\0' )
 2722              		.loc 1 820 0
 2723 0028 13E0     		b	.L133
 2724              	.L134:
 821:u8glib_arm_v1.18.1\src/u8g_font.c ****   {
 822:u8glib_arm_v1.18.1\src/u8g_font.c ****     d = u8g_draw_glyph90(u8g, x, y, *s);
 2725              		.loc 1 822 0
 2726 002a 7B68     		ldr	r3, [r7, #4]
 2727 002c 1B78     		ldrb	r3, [r3]	@ zero_extendqisi2
 2728 002e F97A     		ldrb	r1, [r7, #11]	@ zero_extendqisi2
 2729 0030 BA7A     		ldrb	r2, [r7, #10]	@ zero_extendqisi2
 2730 0032 F868     		ldr	r0, [r7, #12]
 2731 0034 FFF7FEFF 		bl	u8g_draw_glyph90
 2732 0038 0346     		mov	r3, r0
 2733 003a BB75     		strb	r3, [r7, #22]
 823:u8glib_arm_v1.18.1\src/u8g_font.c ****     y += d;
 2734              		.loc 1 823 0
 2735 003c BA7D     		ldrb	r2, [r7, #22]	@ zero_extendqisi2
 2736 003e BB7A     		ldrb	r3, [r7, #10]
 2737 0040 1344     		add	r3, r3, r2
 2738 0042 BB72     		strb	r3, [r7, #10]
 824:u8glib_arm_v1.18.1\src/u8g_font.c ****     t += d;
 2739              		.loc 1 824 0
 2740 0044 BA7D     		ldrb	r2, [r7, #22]	@ zero_extendqisi2
 2741 0046 FB7D     		ldrb	r3, [r7, #23]
 2742 0048 1344     		add	r3, r3, r2
 2743 004a FB75     		strb	r3, [r7, #23]
 825:u8glib_arm_v1.18.1\src/u8g_font.c ****     s++;
 2744              		.loc 1 825 0
 2745 004c 7B68     		ldr	r3, [r7, #4]
 2746 004e 0133     		adds	r3, r3, #1
 2747 0050 7B60     		str	r3, [r7, #4]
 2748              	.L133:
 820:u8glib_arm_v1.18.1\src/u8g_font.c ****   {
ARM GAS  C:\Users\KJA\AppData\Local\Temp\ccevgiJT.s 			page 64


 2749              		.loc 1 820 0
 2750 0052 7B68     		ldr	r3, [r7, #4]
 2751 0054 1B78     		ldrb	r3, [r3]	@ zero_extendqisi2
 2752 0056 002B     		cmp	r3, #0
 2753 0058 E7D1     		bne	.L134
 826:u8glib_arm_v1.18.1\src/u8g_font.c ****   }
 827:u8glib_arm_v1.18.1\src/u8g_font.c ****   return t;
 2754              		.loc 1 827 0
 2755 005a FB7D     		ldrb	r3, [r7, #23]	@ zero_extendqisi2
 828:u8glib_arm_v1.18.1\src/u8g_font.c **** }
 2756              		.loc 1 828 0
 2757 005c 1846     		mov	r0, r3
 2758 005e 1837     		adds	r7, r7, #24
 2759              		.cfi_def_cfa_offset 8
 2760 0060 BD46     		mov	sp, r7
 2761              		.cfi_def_cfa_register 13
 2762              		@ sp needed
 2763 0062 80BD     		pop	{r7, pc}
 2764              		.cfi_endproc
 2765              	.LFE39:
 2766              		.size	u8g_DrawStr90, .-u8g_DrawStr90
 2767              		.section	.text.u8g_DrawStr180,"ax",%progbits
 2768              		.align	2
 2769              		.global	u8g_DrawStr180
 2770              		.thumb
 2771              		.thumb_func
 2772              		.type	u8g_DrawStr180, %function
 2773              	u8g_DrawStr180:
 2774              	.LFB40:
 829:u8glib_arm_v1.18.1\src/u8g_font.c **** 
 830:u8glib_arm_v1.18.1\src/u8g_font.c **** u8g_uint_t u8g_DrawStr180(u8g_t *u8g, u8g_uint_t x, u8g_uint_t y, const char *s)
 831:u8glib_arm_v1.18.1\src/u8g_font.c **** {
 2775              		.loc 1 831 0
 2776              		.cfi_startproc
 2777              		@ args = 0, pretend = 0, frame = 24
 2778              		@ frame_needed = 1, uses_anonymous_args = 0
 2779 0000 80B5     		push	{r7, lr}
 2780              		.cfi_def_cfa_offset 8
 2781              		.cfi_offset 7, -8
 2782              		.cfi_offset 14, -4
 2783 0002 86B0     		sub	sp, sp, #24
 2784              		.cfi_def_cfa_offset 32
 2785 0004 00AF     		add	r7, sp, #0
 2786              		.cfi_def_cfa_register 7
 2787 0006 F860     		str	r0, [r7, #12]
 2788 0008 7B60     		str	r3, [r7, #4]
 2789 000a 0B46     		mov	r3, r1
 2790 000c FB72     		strb	r3, [r7, #11]
 2791 000e 1346     		mov	r3, r2
 2792 0010 BB72     		strb	r3, [r7, #10]
 832:u8glib_arm_v1.18.1\src/u8g_font.c ****   u8g_uint_t t = 0;
 2793              		.loc 1 832 0
 2794 0012 0023     		movs	r3, #0
 2795 0014 FB75     		strb	r3, [r7, #23]
 833:u8glib_arm_v1.18.1\src/u8g_font.c ****   int8_t d;
 834:u8glib_arm_v1.18.1\src/u8g_font.c **** 
 835:u8glib_arm_v1.18.1\src/u8g_font.c ****   y -= u8g->font_calc_vref(u8g);
ARM GAS  C:\Users\KJA\AppData\Local\Temp\ccevgiJT.s 			page 65


 2796              		.loc 1 835 0
 2797 0016 FB68     		ldr	r3, [r7, #12]
 2798 0018 5B6A     		ldr	r3, [r3, #36]
 2799 001a F868     		ldr	r0, [r7, #12]
 2800 001c 9847     		blx	r3
 2801 001e 0346     		mov	r3, r0
 2802 0020 1A46     		mov	r2, r3
 2803 0022 BB7A     		ldrb	r3, [r7, #10]
 2804 0024 9B1A     		subs	r3, r3, r2
 2805 0026 BB72     		strb	r3, [r7, #10]
 836:u8glib_arm_v1.18.1\src/u8g_font.c ****   
 837:u8glib_arm_v1.18.1\src/u8g_font.c ****   while( *s != '\0' )
 2806              		.loc 1 837 0
 2807 0028 13E0     		b	.L137
 2808              	.L138:
 838:u8glib_arm_v1.18.1\src/u8g_font.c ****   {
 839:u8glib_arm_v1.18.1\src/u8g_font.c ****     d = u8g_draw_glyph180(u8g, x, y, *s);
 2809              		.loc 1 839 0
 2810 002a 7B68     		ldr	r3, [r7, #4]
 2811 002c 1B78     		ldrb	r3, [r3]	@ zero_extendqisi2
 2812 002e F97A     		ldrb	r1, [r7, #11]	@ zero_extendqisi2
 2813 0030 BA7A     		ldrb	r2, [r7, #10]	@ zero_extendqisi2
 2814 0032 F868     		ldr	r0, [r7, #12]
 2815 0034 FFF7FEFF 		bl	u8g_draw_glyph180
 2816 0038 0346     		mov	r3, r0
 2817 003a BB75     		strb	r3, [r7, #22]
 840:u8glib_arm_v1.18.1\src/u8g_font.c ****     x -= d;
 2818              		.loc 1 840 0
 2819 003c BB7D     		ldrb	r3, [r7, #22]	@ zero_extendqisi2
 2820 003e FA7A     		ldrb	r2, [r7, #11]
 2821 0040 D31A     		subs	r3, r2, r3
 2822 0042 FB72     		strb	r3, [r7, #11]
 841:u8glib_arm_v1.18.1\src/u8g_font.c ****     t += d;
 2823              		.loc 1 841 0
 2824 0044 BA7D     		ldrb	r2, [r7, #22]	@ zero_extendqisi2
 2825 0046 FB7D     		ldrb	r3, [r7, #23]
 2826 0048 1344     		add	r3, r3, r2
 2827 004a FB75     		strb	r3, [r7, #23]
 842:u8glib_arm_v1.18.1\src/u8g_font.c ****     s++;
 2828              		.loc 1 842 0
 2829 004c 7B68     		ldr	r3, [r7, #4]
 2830 004e 0133     		adds	r3, r3, #1
 2831 0050 7B60     		str	r3, [r7, #4]
 2832              	.L137:
 837:u8glib_arm_v1.18.1\src/u8g_font.c ****   {
 2833              		.loc 1 837 0
 2834 0052 7B68     		ldr	r3, [r7, #4]
 2835 0054 1B78     		ldrb	r3, [r3]	@ zero_extendqisi2
 2836 0056 002B     		cmp	r3, #0
 2837 0058 E7D1     		bne	.L138
 843:u8glib_arm_v1.18.1\src/u8g_font.c ****   }
 844:u8glib_arm_v1.18.1\src/u8g_font.c ****   return t;
 2838              		.loc 1 844 0
 2839 005a FB7D     		ldrb	r3, [r7, #23]	@ zero_extendqisi2
 845:u8glib_arm_v1.18.1\src/u8g_font.c **** }
 2840              		.loc 1 845 0
 2841 005c 1846     		mov	r0, r3
ARM GAS  C:\Users\KJA\AppData\Local\Temp\ccevgiJT.s 			page 66


 2842 005e 1837     		adds	r7, r7, #24
 2843              		.cfi_def_cfa_offset 8
 2844 0060 BD46     		mov	sp, r7
 2845              		.cfi_def_cfa_register 13
 2846              		@ sp needed
 2847 0062 80BD     		pop	{r7, pc}
 2848              		.cfi_endproc
 2849              	.LFE40:
 2850              		.size	u8g_DrawStr180, .-u8g_DrawStr180
 2851              		.section	.text.u8g_DrawStr270,"ax",%progbits
 2852              		.align	2
 2853              		.global	u8g_DrawStr270
 2854              		.thumb
 2855              		.thumb_func
 2856              		.type	u8g_DrawStr270, %function
 2857              	u8g_DrawStr270:
 2858              	.LFB41:
 846:u8glib_arm_v1.18.1\src/u8g_font.c **** 
 847:u8glib_arm_v1.18.1\src/u8g_font.c **** u8g_uint_t u8g_DrawStr270(u8g_t *u8g, u8g_uint_t x, u8g_uint_t y, const char *s)
 848:u8glib_arm_v1.18.1\src/u8g_font.c **** {
 2859              		.loc 1 848 0
 2860              		.cfi_startproc
 2861              		@ args = 0, pretend = 0, frame = 24
 2862              		@ frame_needed = 1, uses_anonymous_args = 0
 2863 0000 80B5     		push	{r7, lr}
 2864              		.cfi_def_cfa_offset 8
 2865              		.cfi_offset 7, -8
 2866              		.cfi_offset 14, -4
 2867 0002 86B0     		sub	sp, sp, #24
 2868              		.cfi_def_cfa_offset 32
 2869 0004 00AF     		add	r7, sp, #0
 2870              		.cfi_def_cfa_register 7
 2871 0006 F860     		str	r0, [r7, #12]
 2872 0008 7B60     		str	r3, [r7, #4]
 2873 000a 0B46     		mov	r3, r1
 2874 000c FB72     		strb	r3, [r7, #11]
 2875 000e 1346     		mov	r3, r2
 2876 0010 BB72     		strb	r3, [r7, #10]
 849:u8glib_arm_v1.18.1\src/u8g_font.c ****   u8g_uint_t t = 0;
 2877              		.loc 1 849 0
 2878 0012 0023     		movs	r3, #0
 2879 0014 FB75     		strb	r3, [r7, #23]
 850:u8glib_arm_v1.18.1\src/u8g_font.c ****   int8_t d;
 851:u8glib_arm_v1.18.1\src/u8g_font.c **** 
 852:u8glib_arm_v1.18.1\src/u8g_font.c ****   x += u8g->font_calc_vref(u8g);
 2880              		.loc 1 852 0
 2881 0016 FB68     		ldr	r3, [r7, #12]
 2882 0018 5B6A     		ldr	r3, [r3, #36]
 2883 001a F868     		ldr	r0, [r7, #12]
 2884 001c 9847     		blx	r3
 2885 001e 0346     		mov	r3, r0
 2886 0020 1A46     		mov	r2, r3
 2887 0022 FB7A     		ldrb	r3, [r7, #11]
 2888 0024 1344     		add	r3, r3, r2
 2889 0026 FB72     		strb	r3, [r7, #11]
 853:u8glib_arm_v1.18.1\src/u8g_font.c **** 
 854:u8glib_arm_v1.18.1\src/u8g_font.c ****   while( *s != '\0' )
ARM GAS  C:\Users\KJA\AppData\Local\Temp\ccevgiJT.s 			page 67


 2890              		.loc 1 854 0
 2891 0028 13E0     		b	.L141
 2892              	.L142:
 855:u8glib_arm_v1.18.1\src/u8g_font.c ****   {
 856:u8glib_arm_v1.18.1\src/u8g_font.c ****     d = u8g_draw_glyph270(u8g, x, y, *s);
 2893              		.loc 1 856 0
 2894 002a 7B68     		ldr	r3, [r7, #4]
 2895 002c 1B78     		ldrb	r3, [r3]	@ zero_extendqisi2
 2896 002e F97A     		ldrb	r1, [r7, #11]	@ zero_extendqisi2
 2897 0030 BA7A     		ldrb	r2, [r7, #10]	@ zero_extendqisi2
 2898 0032 F868     		ldr	r0, [r7, #12]
 2899 0034 FFF7FEFF 		bl	u8g_draw_glyph270
 2900 0038 0346     		mov	r3, r0
 2901 003a BB75     		strb	r3, [r7, #22]
 857:u8glib_arm_v1.18.1\src/u8g_font.c ****     y -= d;
 2902              		.loc 1 857 0
 2903 003c BB7D     		ldrb	r3, [r7, #22]	@ zero_extendqisi2
 2904 003e BA7A     		ldrb	r2, [r7, #10]
 2905 0040 D31A     		subs	r3, r2, r3
 2906 0042 BB72     		strb	r3, [r7, #10]
 858:u8glib_arm_v1.18.1\src/u8g_font.c ****     t += d;
 2907              		.loc 1 858 0
 2908 0044 BA7D     		ldrb	r2, [r7, #22]	@ zero_extendqisi2
 2909 0046 FB7D     		ldrb	r3, [r7, #23]
 2910 0048 1344     		add	r3, r3, r2
 2911 004a FB75     		strb	r3, [r7, #23]
 859:u8glib_arm_v1.18.1\src/u8g_font.c ****     s++;
 2912              		.loc 1 859 0
 2913 004c 7B68     		ldr	r3, [r7, #4]
 2914 004e 0133     		adds	r3, r3, #1
 2915 0050 7B60     		str	r3, [r7, #4]
 2916              	.L141:
 854:u8glib_arm_v1.18.1\src/u8g_font.c ****   {
 2917              		.loc 1 854 0
 2918 0052 7B68     		ldr	r3, [r7, #4]
 2919 0054 1B78     		ldrb	r3, [r3]	@ zero_extendqisi2
 2920 0056 002B     		cmp	r3, #0
 2921 0058 E7D1     		bne	.L142
 860:u8glib_arm_v1.18.1\src/u8g_font.c ****   }
 861:u8glib_arm_v1.18.1\src/u8g_font.c ****   return t;
 2922              		.loc 1 861 0
 2923 005a FB7D     		ldrb	r3, [r7, #23]	@ zero_extendqisi2
 862:u8glib_arm_v1.18.1\src/u8g_font.c **** }
 2924              		.loc 1 862 0
 2925 005c 1846     		mov	r0, r3
 2926 005e 1837     		adds	r7, r7, #24
 2927              		.cfi_def_cfa_offset 8
 2928 0060 BD46     		mov	sp, r7
 2929              		.cfi_def_cfa_register 13
 2930              		@ sp needed
 2931 0062 80BD     		pop	{r7, pc}
 2932              		.cfi_endproc
 2933              	.LFE41:
 2934              		.size	u8g_DrawStr270, .-u8g_DrawStr270
 2935              		.section	.text.u8g_DrawStrDir,"ax",%progbits
 2936              		.align	2
 2937              		.global	u8g_DrawStrDir
ARM GAS  C:\Users\KJA\AppData\Local\Temp\ccevgiJT.s 			page 68


 2938              		.thumb
 2939              		.thumb_func
 2940              		.type	u8g_DrawStrDir, %function
 2941              	u8g_DrawStrDir:
 2942              	.LFB42:
 863:u8glib_arm_v1.18.1\src/u8g_font.c **** 
 864:u8glib_arm_v1.18.1\src/u8g_font.c **** u8g_uint_t u8g_DrawStrDir(u8g_t *u8g, u8g_uint_t x, u8g_uint_t y, uint8_t dir, const char *s)
 865:u8glib_arm_v1.18.1\src/u8g_font.c **** {
 2943              		.loc 1 865 0
 2944              		.cfi_startproc
 2945              		@ args = 4, pretend = 0, frame = 8
 2946              		@ frame_needed = 1, uses_anonymous_args = 0
 2947 0000 80B5     		push	{r7, lr}
 2948              		.cfi_def_cfa_offset 8
 2949              		.cfi_offset 7, -8
 2950              		.cfi_offset 14, -4
 2951 0002 82B0     		sub	sp, sp, #8
 2952              		.cfi_def_cfa_offset 16
 2953 0004 00AF     		add	r7, sp, #0
 2954              		.cfi_def_cfa_register 7
 2955 0006 7860     		str	r0, [r7, #4]
 2956 0008 0846     		mov	r0, r1
 2957 000a 1146     		mov	r1, r2
 2958 000c 1A46     		mov	r2, r3
 2959 000e 0346     		mov	r3, r0
 2960 0010 FB70     		strb	r3, [r7, #3]
 2961 0012 0B46     		mov	r3, r1
 2962 0014 BB70     		strb	r3, [r7, #2]
 2963 0016 1346     		mov	r3, r2
 2964 0018 7B70     		strb	r3, [r7, #1]
 866:u8glib_arm_v1.18.1\src/u8g_font.c ****   switch(dir)
 2965              		.loc 1 866 0
 2966 001a 7B78     		ldrb	r3, [r7, #1]	@ zero_extendqisi2
 2967 001c 032B     		cmp	r3, #3
 2968 001e 33D8     		bhi	.L145
 2969 0020 01A2     		adr	r2, .L147
 2970 0022 52F823F0 		ldr	pc, [r2, r3, lsl #2]
 2971 0026 00BF     		.p2align 2
 2972              	.L147:
 2973 0028 39000000 		.word	.L146+1
 2974 002c 4D000000 		.word	.L148+1
 2975 0030 61000000 		.word	.L149+1
 2976 0034 75000000 		.word	.L150+1
 2977              		.p2align 1
 2978              	.L146:
 867:u8glib_arm_v1.18.1\src/u8g_font.c ****   {
 868:u8glib_arm_v1.18.1\src/u8g_font.c ****     case 0:
 869:u8glib_arm_v1.18.1\src/u8g_font.c ****       return u8g_DrawStr(u8g, x, y, s);
 2979              		.loc 1 869 0
 2980 0038 FA78     		ldrb	r2, [r7, #3]	@ zero_extendqisi2
 2981 003a BB78     		ldrb	r3, [r7, #2]	@ zero_extendqisi2
 2982 003c 7868     		ldr	r0, [r7, #4]
 2983 003e 1146     		mov	r1, r2
 2984 0040 1A46     		mov	r2, r3
 2985 0042 3B69     		ldr	r3, [r7, #16]
 2986 0044 FFF7FEFF 		bl	u8g_DrawStr
 2987 0048 0346     		mov	r3, r0
ARM GAS  C:\Users\KJA\AppData\Local\Temp\ccevgiJT.s 			page 69


 2988 004a 1EE0     		b	.L151
 2989              	.L148:
 870:u8glib_arm_v1.18.1\src/u8g_font.c ****     case 1:
 871:u8glib_arm_v1.18.1\src/u8g_font.c ****       return u8g_DrawStr90(u8g, x, y, s);
 2990              		.loc 1 871 0
 2991 004c FA78     		ldrb	r2, [r7, #3]	@ zero_extendqisi2
 2992 004e BB78     		ldrb	r3, [r7, #2]	@ zero_extendqisi2
 2993 0050 7868     		ldr	r0, [r7, #4]
 2994 0052 1146     		mov	r1, r2
 2995 0054 1A46     		mov	r2, r3
 2996 0056 3B69     		ldr	r3, [r7, #16]
 2997 0058 FFF7FEFF 		bl	u8g_DrawStr90
 2998 005c 0346     		mov	r3, r0
 2999 005e 14E0     		b	.L151
 3000              	.L149:
 872:u8glib_arm_v1.18.1\src/u8g_font.c ****     case 2:
 873:u8glib_arm_v1.18.1\src/u8g_font.c ****       return u8g_DrawStr180(u8g, x, y, s);
 3001              		.loc 1 873 0
 3002 0060 FA78     		ldrb	r2, [r7, #3]	@ zero_extendqisi2
 3003 0062 BB78     		ldrb	r3, [r7, #2]	@ zero_extendqisi2
 3004 0064 7868     		ldr	r0, [r7, #4]
 3005 0066 1146     		mov	r1, r2
 3006 0068 1A46     		mov	r2, r3
 3007 006a 3B69     		ldr	r3, [r7, #16]
 3008 006c FFF7FEFF 		bl	u8g_DrawStr180
 3009 0070 0346     		mov	r3, r0
 3010 0072 0AE0     		b	.L151
 3011              	.L150:
 874:u8glib_arm_v1.18.1\src/u8g_font.c ****     case 3:
 875:u8glib_arm_v1.18.1\src/u8g_font.c ****       return u8g_DrawStr270(u8g, x, y, s);
 3012              		.loc 1 875 0
 3013 0074 FA78     		ldrb	r2, [r7, #3]	@ zero_extendqisi2
 3014 0076 BB78     		ldrb	r3, [r7, #2]	@ zero_extendqisi2
 3015 0078 7868     		ldr	r0, [r7, #4]
 3016 007a 1146     		mov	r1, r2
 3017 007c 1A46     		mov	r2, r3
 3018 007e 3B69     		ldr	r3, [r7, #16]
 3019 0080 FFF7FEFF 		bl	u8g_DrawStr270
 3020 0084 0346     		mov	r3, r0
 3021 0086 00E0     		b	.L151
 3022              	.L145:
 876:u8glib_arm_v1.18.1\src/u8g_font.c ****   }
 877:u8glib_arm_v1.18.1\src/u8g_font.c ****   return 0;
 3023              		.loc 1 877 0
 3024 0088 0023     		movs	r3, #0
 3025              	.L151:
 878:u8glib_arm_v1.18.1\src/u8g_font.c **** }
 3026              		.loc 1 878 0
 3027 008a 1846     		mov	r0, r3
 3028 008c 0837     		adds	r7, r7, #8
 3029              		.cfi_def_cfa_offset 8
 3030 008e BD46     		mov	sp, r7
 3031              		.cfi_def_cfa_register 13
 3032              		@ sp needed
 3033 0090 80BD     		pop	{r7, pc}
 3034              		.cfi_endproc
 3035              	.LFE42:
ARM GAS  C:\Users\KJA\AppData\Local\Temp\ccevgiJT.s 			page 70


 3036              		.size	u8g_DrawStrDir, .-u8g_DrawStrDir
 3037 0092 00BF     		.section	.text.u8g_DrawStrP,"ax",%progbits
 3038              		.align	2
 3039              		.global	u8g_DrawStrP
 3040              		.thumb
 3041              		.thumb_func
 3042              		.type	u8g_DrawStrP, %function
 3043              	u8g_DrawStrP:
 3044              	.LFB43:
 879:u8glib_arm_v1.18.1\src/u8g_font.c **** 
 880:u8glib_arm_v1.18.1\src/u8g_font.c **** u8g_uint_t u8g_DrawStrP(u8g_t *u8g, u8g_uint_t x, u8g_uint_t y, const u8g_pgm_uint8_t *s)
 881:u8glib_arm_v1.18.1\src/u8g_font.c **** {
 3045              		.loc 1 881 0
 3046              		.cfi_startproc
 3047              		@ args = 0, pretend = 0, frame = 24
 3048              		@ frame_needed = 1, uses_anonymous_args = 0
 3049 0000 80B5     		push	{r7, lr}
 3050              		.cfi_def_cfa_offset 8
 3051              		.cfi_offset 7, -8
 3052              		.cfi_offset 14, -4
 3053 0002 86B0     		sub	sp, sp, #24
 3054              		.cfi_def_cfa_offset 32
 3055 0004 00AF     		add	r7, sp, #0
 3056              		.cfi_def_cfa_register 7
 3057 0006 F860     		str	r0, [r7, #12]
 3058 0008 7B60     		str	r3, [r7, #4]
 3059 000a 0B46     		mov	r3, r1
 3060 000c FB72     		strb	r3, [r7, #11]
 3061 000e 1346     		mov	r3, r2
 3062 0010 BB72     		strb	r3, [r7, #10]
 882:u8glib_arm_v1.18.1\src/u8g_font.c ****   u8g_uint_t t = 0;
 3063              		.loc 1 882 0
 3064 0012 0023     		movs	r3, #0
 3065 0014 FB75     		strb	r3, [r7, #23]
 883:u8glib_arm_v1.18.1\src/u8g_font.c ****   int8_t d;
 884:u8glib_arm_v1.18.1\src/u8g_font.c ****   uint8_t c;
 885:u8glib_arm_v1.18.1\src/u8g_font.c ****   
 886:u8glib_arm_v1.18.1\src/u8g_font.c ****   y += u8g->font_calc_vref(u8g);
 3066              		.loc 1 886 0
 3067 0016 FB68     		ldr	r3, [r7, #12]
 3068 0018 5B6A     		ldr	r3, [r3, #36]
 3069 001a F868     		ldr	r0, [r7, #12]
 3070 001c 9847     		blx	r3
 3071 001e 0346     		mov	r3, r0
 3072 0020 1A46     		mov	r2, r3
 3073 0022 BB7A     		ldrb	r3, [r7, #10]
 3074 0024 1344     		add	r3, r3, r2
 3075 0026 BB72     		strb	r3, [r7, #10]
 3076              	.L155:
 887:u8glib_arm_v1.18.1\src/u8g_font.c ****   
 888:u8glib_arm_v1.18.1\src/u8g_font.c ****   for(;;)
 889:u8glib_arm_v1.18.1\src/u8g_font.c ****   {
 890:u8glib_arm_v1.18.1\src/u8g_font.c ****     c = u8g_pgm_read(s);
 3077              		.loc 1 890 0
 3078 0028 7B68     		ldr	r3, [r7, #4]
 3079 002a 1B78     		ldrb	r3, [r3]
 3080 002c BB75     		strb	r3, [r7, #22]
ARM GAS  C:\Users\KJA\AppData\Local\Temp\ccevgiJT.s 			page 71


 891:u8glib_arm_v1.18.1\src/u8g_font.c ****     if ( c == '\0' )
 3081              		.loc 1 891 0
 3082 002e BB7D     		ldrb	r3, [r7, #22]	@ zero_extendqisi2
 3083 0030 002B     		cmp	r3, #0
 3084 0032 00D1     		bne	.L153
 892:u8glib_arm_v1.18.1\src/u8g_font.c ****       break;
 3085              		.loc 1 892 0
 3086 0034 13E0     		b	.L157
 3087              	.L153:
 893:u8glib_arm_v1.18.1\src/u8g_font.c ****     d = u8g_draw_glyph(u8g, x, y, c);
 3088              		.loc 1 893 0
 3089 0036 F97A     		ldrb	r1, [r7, #11]	@ zero_extendqisi2
 3090 0038 BA7A     		ldrb	r2, [r7, #10]	@ zero_extendqisi2
 3091 003a BB7D     		ldrb	r3, [r7, #22]	@ zero_extendqisi2
 3092 003c F868     		ldr	r0, [r7, #12]
 3093 003e FFF7FEFF 		bl	u8g_draw_glyph
 3094 0042 0346     		mov	r3, r0
 3095 0044 7B75     		strb	r3, [r7, #21]
 894:u8glib_arm_v1.18.1\src/u8g_font.c ****     x += d;
 3096              		.loc 1 894 0
 3097 0046 7A7D     		ldrb	r2, [r7, #21]	@ zero_extendqisi2
 3098 0048 FB7A     		ldrb	r3, [r7, #11]
 3099 004a 1344     		add	r3, r3, r2
 3100 004c FB72     		strb	r3, [r7, #11]
 895:u8glib_arm_v1.18.1\src/u8g_font.c ****     t += d;
 3101              		.loc 1 895 0
 3102 004e 7A7D     		ldrb	r2, [r7, #21]	@ zero_extendqisi2
 3103 0050 FB7D     		ldrb	r3, [r7, #23]
 3104 0052 1344     		add	r3, r3, r2
 3105 0054 FB75     		strb	r3, [r7, #23]
 896:u8glib_arm_v1.18.1\src/u8g_font.c ****     s++;
 3106              		.loc 1 896 0
 3107 0056 7B68     		ldr	r3, [r7, #4]
 3108 0058 0133     		adds	r3, r3, #1
 3109 005a 7B60     		str	r3, [r7, #4]
 897:u8glib_arm_v1.18.1\src/u8g_font.c ****   }
 3110              		.loc 1 897 0
 3111 005c E4E7     		b	.L155
 3112              	.L157:
 898:u8glib_arm_v1.18.1\src/u8g_font.c ****   return t;
 3113              		.loc 1 898 0
 3114 005e FB7D     		ldrb	r3, [r7, #23]	@ zero_extendqisi2
 899:u8glib_arm_v1.18.1\src/u8g_font.c **** }
 3115              		.loc 1 899 0
 3116 0060 1846     		mov	r0, r3
 3117 0062 1837     		adds	r7, r7, #24
 3118              		.cfi_def_cfa_offset 8
 3119 0064 BD46     		mov	sp, r7
 3120              		.cfi_def_cfa_register 13
 3121              		@ sp needed
 3122 0066 80BD     		pop	{r7, pc}
 3123              		.cfi_endproc
 3124              	.LFE43:
 3125              		.size	u8g_DrawStrP, .-u8g_DrawStrP
 3126              		.section	.text.u8g_DrawStr90P,"ax",%progbits
 3127              		.align	2
 3128              		.global	u8g_DrawStr90P
ARM GAS  C:\Users\KJA\AppData\Local\Temp\ccevgiJT.s 			page 72


 3129              		.thumb
 3130              		.thumb_func
 3131              		.type	u8g_DrawStr90P, %function
 3132              	u8g_DrawStr90P:
 3133              	.LFB44:
 900:u8glib_arm_v1.18.1\src/u8g_font.c **** 
 901:u8glib_arm_v1.18.1\src/u8g_font.c **** u8g_uint_t u8g_DrawStr90P(u8g_t *u8g, u8g_uint_t x, u8g_uint_t y, const u8g_pgm_uint8_t *s)
 902:u8glib_arm_v1.18.1\src/u8g_font.c **** {
 3134              		.loc 1 902 0
 3135              		.cfi_startproc
 3136              		@ args = 0, pretend = 0, frame = 24
 3137              		@ frame_needed = 1, uses_anonymous_args = 0
 3138 0000 80B5     		push	{r7, lr}
 3139              		.cfi_def_cfa_offset 8
 3140              		.cfi_offset 7, -8
 3141              		.cfi_offset 14, -4
 3142 0002 86B0     		sub	sp, sp, #24
 3143              		.cfi_def_cfa_offset 32
 3144 0004 00AF     		add	r7, sp, #0
 3145              		.cfi_def_cfa_register 7
 3146 0006 F860     		str	r0, [r7, #12]
 3147 0008 7B60     		str	r3, [r7, #4]
 3148 000a 0B46     		mov	r3, r1
 3149 000c FB72     		strb	r3, [r7, #11]
 3150 000e 1346     		mov	r3, r2
 3151 0010 BB72     		strb	r3, [r7, #10]
 903:u8glib_arm_v1.18.1\src/u8g_font.c ****   u8g_uint_t t = 0;
 3152              		.loc 1 903 0
 3153 0012 0023     		movs	r3, #0
 3154 0014 FB75     		strb	r3, [r7, #23]
 904:u8glib_arm_v1.18.1\src/u8g_font.c ****   int8_t d;
 905:u8glib_arm_v1.18.1\src/u8g_font.c ****   uint8_t c;
 906:u8glib_arm_v1.18.1\src/u8g_font.c ****   
 907:u8glib_arm_v1.18.1\src/u8g_font.c ****   x -= u8g->font_calc_vref(u8g);
 3155              		.loc 1 907 0
 3156 0016 FB68     		ldr	r3, [r7, #12]
 3157 0018 5B6A     		ldr	r3, [r3, #36]
 3158 001a F868     		ldr	r0, [r7, #12]
 3159 001c 9847     		blx	r3
 3160 001e 0346     		mov	r3, r0
 3161 0020 1A46     		mov	r2, r3
 3162 0022 FB7A     		ldrb	r3, [r7, #11]
 3163 0024 9B1A     		subs	r3, r3, r2
 3164 0026 FB72     		strb	r3, [r7, #11]
 3165              	.L161:
 908:u8glib_arm_v1.18.1\src/u8g_font.c **** 
 909:u8glib_arm_v1.18.1\src/u8g_font.c ****   for(;;)
 910:u8glib_arm_v1.18.1\src/u8g_font.c ****   {
 911:u8glib_arm_v1.18.1\src/u8g_font.c ****     c = u8g_pgm_read(s);
 3166              		.loc 1 911 0
 3167 0028 7B68     		ldr	r3, [r7, #4]
 3168 002a 1B78     		ldrb	r3, [r3]
 3169 002c BB75     		strb	r3, [r7, #22]
 912:u8glib_arm_v1.18.1\src/u8g_font.c ****     if ( c == '\0' )
 3170              		.loc 1 912 0
 3171 002e BB7D     		ldrb	r3, [r7, #22]	@ zero_extendqisi2
 3172 0030 002B     		cmp	r3, #0
ARM GAS  C:\Users\KJA\AppData\Local\Temp\ccevgiJT.s 			page 73


 3173 0032 00D1     		bne	.L159
 913:u8glib_arm_v1.18.1\src/u8g_font.c ****       break;
 3174              		.loc 1 913 0
 3175 0034 13E0     		b	.L163
 3176              	.L159:
 914:u8glib_arm_v1.18.1\src/u8g_font.c ****     d = u8g_DrawGlyph90(u8g, x, y, c);
 3177              		.loc 1 914 0
 3178 0036 F97A     		ldrb	r1, [r7, #11]	@ zero_extendqisi2
 3179 0038 BA7A     		ldrb	r2, [r7, #10]	@ zero_extendqisi2
 3180 003a BB7D     		ldrb	r3, [r7, #22]	@ zero_extendqisi2
 3181 003c F868     		ldr	r0, [r7, #12]
 3182 003e FFF7FEFF 		bl	u8g_DrawGlyph90
 3183 0042 0346     		mov	r3, r0
 3184 0044 7B75     		strb	r3, [r7, #21]
 915:u8glib_arm_v1.18.1\src/u8g_font.c ****     y += d;
 3185              		.loc 1 915 0
 3186 0046 7A7D     		ldrb	r2, [r7, #21]	@ zero_extendqisi2
 3187 0048 BB7A     		ldrb	r3, [r7, #10]
 3188 004a 1344     		add	r3, r3, r2
 3189 004c BB72     		strb	r3, [r7, #10]
 916:u8glib_arm_v1.18.1\src/u8g_font.c ****     t += d;
 3190              		.loc 1 916 0
 3191 004e 7A7D     		ldrb	r2, [r7, #21]	@ zero_extendqisi2
 3192 0050 FB7D     		ldrb	r3, [r7, #23]
 3193 0052 1344     		add	r3, r3, r2
 3194 0054 FB75     		strb	r3, [r7, #23]
 917:u8glib_arm_v1.18.1\src/u8g_font.c ****     s++;
 3195              		.loc 1 917 0
 3196 0056 7B68     		ldr	r3, [r7, #4]
 3197 0058 0133     		adds	r3, r3, #1
 3198 005a 7B60     		str	r3, [r7, #4]
 918:u8glib_arm_v1.18.1\src/u8g_font.c ****   }
 3199              		.loc 1 918 0
 3200 005c E4E7     		b	.L161
 3201              	.L163:
 919:u8glib_arm_v1.18.1\src/u8g_font.c ****   return t;
 3202              		.loc 1 919 0
 3203 005e FB7D     		ldrb	r3, [r7, #23]	@ zero_extendqisi2
 920:u8glib_arm_v1.18.1\src/u8g_font.c **** }
 3204              		.loc 1 920 0
 3205 0060 1846     		mov	r0, r3
 3206 0062 1837     		adds	r7, r7, #24
 3207              		.cfi_def_cfa_offset 8
 3208 0064 BD46     		mov	sp, r7
 3209              		.cfi_def_cfa_register 13
 3210              		@ sp needed
 3211 0066 80BD     		pop	{r7, pc}
 3212              		.cfi_endproc
 3213              	.LFE44:
 3214              		.size	u8g_DrawStr90P, .-u8g_DrawStr90P
 3215              		.section	.text.u8g_DrawStr180P,"ax",%progbits
 3216              		.align	2
 3217              		.global	u8g_DrawStr180P
 3218              		.thumb
 3219              		.thumb_func
 3220              		.type	u8g_DrawStr180P, %function
 3221              	u8g_DrawStr180P:
ARM GAS  C:\Users\KJA\AppData\Local\Temp\ccevgiJT.s 			page 74


 3222              	.LFB45:
 921:u8glib_arm_v1.18.1\src/u8g_font.c **** 
 922:u8glib_arm_v1.18.1\src/u8g_font.c **** u8g_uint_t u8g_DrawStr180P(u8g_t *u8g, u8g_uint_t x, u8g_uint_t y, const u8g_pgm_uint8_t *s)
 923:u8glib_arm_v1.18.1\src/u8g_font.c **** {
 3223              		.loc 1 923 0
 3224              		.cfi_startproc
 3225              		@ args = 0, pretend = 0, frame = 24
 3226              		@ frame_needed = 1, uses_anonymous_args = 0
 3227 0000 80B5     		push	{r7, lr}
 3228              		.cfi_def_cfa_offset 8
 3229              		.cfi_offset 7, -8
 3230              		.cfi_offset 14, -4
 3231 0002 86B0     		sub	sp, sp, #24
 3232              		.cfi_def_cfa_offset 32
 3233 0004 00AF     		add	r7, sp, #0
 3234              		.cfi_def_cfa_register 7
 3235 0006 F860     		str	r0, [r7, #12]
 3236 0008 7B60     		str	r3, [r7, #4]
 3237 000a 0B46     		mov	r3, r1
 3238 000c FB72     		strb	r3, [r7, #11]
 3239 000e 1346     		mov	r3, r2
 3240 0010 BB72     		strb	r3, [r7, #10]
 924:u8glib_arm_v1.18.1\src/u8g_font.c ****   u8g_uint_t t = 0;
 3241              		.loc 1 924 0
 3242 0012 0023     		movs	r3, #0
 3243 0014 FB75     		strb	r3, [r7, #23]
 925:u8glib_arm_v1.18.1\src/u8g_font.c ****   int8_t d;
 926:u8glib_arm_v1.18.1\src/u8g_font.c ****   uint8_t c;
 927:u8glib_arm_v1.18.1\src/u8g_font.c **** 
 928:u8glib_arm_v1.18.1\src/u8g_font.c ****   y -= u8g->font_calc_vref(u8g);
 3244              		.loc 1 928 0
 3245 0016 FB68     		ldr	r3, [r7, #12]
 3246 0018 5B6A     		ldr	r3, [r3, #36]
 3247 001a F868     		ldr	r0, [r7, #12]
 3248 001c 9847     		blx	r3
 3249 001e 0346     		mov	r3, r0
 3250 0020 1A46     		mov	r2, r3
 3251 0022 BB7A     		ldrb	r3, [r7, #10]
 3252 0024 9B1A     		subs	r3, r3, r2
 3253 0026 BB72     		strb	r3, [r7, #10]
 3254              	.L167:
 929:u8glib_arm_v1.18.1\src/u8g_font.c ****   
 930:u8glib_arm_v1.18.1\src/u8g_font.c ****   for(;;)
 931:u8glib_arm_v1.18.1\src/u8g_font.c ****   {
 932:u8glib_arm_v1.18.1\src/u8g_font.c ****     c = u8g_pgm_read(s);
 3255              		.loc 1 932 0
 3256 0028 7B68     		ldr	r3, [r7, #4]
 3257 002a 1B78     		ldrb	r3, [r3]
 3258 002c BB75     		strb	r3, [r7, #22]
 933:u8glib_arm_v1.18.1\src/u8g_font.c ****     if ( c == '\0' )
 3259              		.loc 1 933 0
 3260 002e BB7D     		ldrb	r3, [r7, #22]	@ zero_extendqisi2
 3261 0030 002B     		cmp	r3, #0
 3262 0032 00D1     		bne	.L165
 934:u8glib_arm_v1.18.1\src/u8g_font.c ****       break;
 3263              		.loc 1 934 0
 3264 0034 13E0     		b	.L169
ARM GAS  C:\Users\KJA\AppData\Local\Temp\ccevgiJT.s 			page 75


 3265              	.L165:
 935:u8glib_arm_v1.18.1\src/u8g_font.c ****     d = u8g_DrawGlyph180(u8g, x, y, c);
 3266              		.loc 1 935 0
 3267 0036 F97A     		ldrb	r1, [r7, #11]	@ zero_extendqisi2
 3268 0038 BA7A     		ldrb	r2, [r7, #10]	@ zero_extendqisi2
 3269 003a BB7D     		ldrb	r3, [r7, #22]	@ zero_extendqisi2
 3270 003c F868     		ldr	r0, [r7, #12]
 3271 003e FFF7FEFF 		bl	u8g_DrawGlyph180
 3272 0042 0346     		mov	r3, r0
 3273 0044 7B75     		strb	r3, [r7, #21]
 936:u8glib_arm_v1.18.1\src/u8g_font.c ****     x -= d;
 3274              		.loc 1 936 0
 3275 0046 7B7D     		ldrb	r3, [r7, #21]	@ zero_extendqisi2
 3276 0048 FA7A     		ldrb	r2, [r7, #11]
 3277 004a D31A     		subs	r3, r2, r3
 3278 004c FB72     		strb	r3, [r7, #11]
 937:u8glib_arm_v1.18.1\src/u8g_font.c ****     t += d;
 3279              		.loc 1 937 0
 3280 004e 7A7D     		ldrb	r2, [r7, #21]	@ zero_extendqisi2
 3281 0050 FB7D     		ldrb	r3, [r7, #23]
 3282 0052 1344     		add	r3, r3, r2
 3283 0054 FB75     		strb	r3, [r7, #23]
 938:u8glib_arm_v1.18.1\src/u8g_font.c ****     s++;
 3284              		.loc 1 938 0
 3285 0056 7B68     		ldr	r3, [r7, #4]
 3286 0058 0133     		adds	r3, r3, #1
 3287 005a 7B60     		str	r3, [r7, #4]
 939:u8glib_arm_v1.18.1\src/u8g_font.c ****   }
 3288              		.loc 1 939 0
 3289 005c E4E7     		b	.L167
 3290              	.L169:
 940:u8glib_arm_v1.18.1\src/u8g_font.c ****   return t;
 3291              		.loc 1 940 0
 3292 005e FB7D     		ldrb	r3, [r7, #23]	@ zero_extendqisi2
 941:u8glib_arm_v1.18.1\src/u8g_font.c **** }
 3293              		.loc 1 941 0
 3294 0060 1846     		mov	r0, r3
 3295 0062 1837     		adds	r7, r7, #24
 3296              		.cfi_def_cfa_offset 8
 3297 0064 BD46     		mov	sp, r7
 3298              		.cfi_def_cfa_register 13
 3299              		@ sp needed
 3300 0066 80BD     		pop	{r7, pc}
 3301              		.cfi_endproc
 3302              	.LFE45:
 3303              		.size	u8g_DrawStr180P, .-u8g_DrawStr180P
 3304              		.section	.text.u8g_DrawStr270P,"ax",%progbits
 3305              		.align	2
 3306              		.global	u8g_DrawStr270P
 3307              		.thumb
 3308              		.thumb_func
 3309              		.type	u8g_DrawStr270P, %function
 3310              	u8g_DrawStr270P:
 3311              	.LFB46:
 942:u8glib_arm_v1.18.1\src/u8g_font.c **** 
 943:u8glib_arm_v1.18.1\src/u8g_font.c **** u8g_uint_t u8g_DrawStr270P(u8g_t *u8g, u8g_uint_t x, u8g_uint_t y, const u8g_pgm_uint8_t *s)
 944:u8glib_arm_v1.18.1\src/u8g_font.c **** {
ARM GAS  C:\Users\KJA\AppData\Local\Temp\ccevgiJT.s 			page 76


 3312              		.loc 1 944 0
 3313              		.cfi_startproc
 3314              		@ args = 0, pretend = 0, frame = 24
 3315              		@ frame_needed = 1, uses_anonymous_args = 0
 3316 0000 80B5     		push	{r7, lr}
 3317              		.cfi_def_cfa_offset 8
 3318              		.cfi_offset 7, -8
 3319              		.cfi_offset 14, -4
 3320 0002 86B0     		sub	sp, sp, #24
 3321              		.cfi_def_cfa_offset 32
 3322 0004 00AF     		add	r7, sp, #0
 3323              		.cfi_def_cfa_register 7
 3324 0006 F860     		str	r0, [r7, #12]
 3325 0008 7B60     		str	r3, [r7, #4]
 3326 000a 0B46     		mov	r3, r1
 3327 000c FB72     		strb	r3, [r7, #11]
 3328 000e 1346     		mov	r3, r2
 3329 0010 BB72     		strb	r3, [r7, #10]
 945:u8glib_arm_v1.18.1\src/u8g_font.c ****   u8g_uint_t t = 0;
 3330              		.loc 1 945 0
 3331 0012 0023     		movs	r3, #0
 3332 0014 FB75     		strb	r3, [r7, #23]
 946:u8glib_arm_v1.18.1\src/u8g_font.c ****   int8_t d;
 947:u8glib_arm_v1.18.1\src/u8g_font.c ****   uint8_t c;
 948:u8glib_arm_v1.18.1\src/u8g_font.c **** 
 949:u8glib_arm_v1.18.1\src/u8g_font.c ****   x += u8g->font_calc_vref(u8g);
 3333              		.loc 1 949 0
 3334 0016 FB68     		ldr	r3, [r7, #12]
 3335 0018 5B6A     		ldr	r3, [r3, #36]
 3336 001a F868     		ldr	r0, [r7, #12]
 3337 001c 9847     		blx	r3
 3338 001e 0346     		mov	r3, r0
 3339 0020 1A46     		mov	r2, r3
 3340 0022 FB7A     		ldrb	r3, [r7, #11]
 3341 0024 1344     		add	r3, r3, r2
 3342 0026 FB72     		strb	r3, [r7, #11]
 3343              	.L173:
 950:u8glib_arm_v1.18.1\src/u8g_font.c **** 
 951:u8glib_arm_v1.18.1\src/u8g_font.c ****   for(;;)
 952:u8glib_arm_v1.18.1\src/u8g_font.c ****   {
 953:u8glib_arm_v1.18.1\src/u8g_font.c ****     c = u8g_pgm_read(s);
 3344              		.loc 1 953 0
 3345 0028 7B68     		ldr	r3, [r7, #4]
 3346 002a 1B78     		ldrb	r3, [r3]
 3347 002c BB75     		strb	r3, [r7, #22]
 954:u8glib_arm_v1.18.1\src/u8g_font.c ****     if ( c == '\0' )
 3348              		.loc 1 954 0
 3349 002e BB7D     		ldrb	r3, [r7, #22]	@ zero_extendqisi2
 3350 0030 002B     		cmp	r3, #0
 3351 0032 00D1     		bne	.L171
 955:u8glib_arm_v1.18.1\src/u8g_font.c ****       break;
 3352              		.loc 1 955 0
 3353 0034 13E0     		b	.L175
 3354              	.L171:
 956:u8glib_arm_v1.18.1\src/u8g_font.c ****     d = u8g_DrawGlyph270(u8g, x, y, c);
 3355              		.loc 1 956 0
 3356 0036 F97A     		ldrb	r1, [r7, #11]	@ zero_extendqisi2
ARM GAS  C:\Users\KJA\AppData\Local\Temp\ccevgiJT.s 			page 77


 3357 0038 BA7A     		ldrb	r2, [r7, #10]	@ zero_extendqisi2
 3358 003a BB7D     		ldrb	r3, [r7, #22]	@ zero_extendqisi2
 3359 003c F868     		ldr	r0, [r7, #12]
 3360 003e FFF7FEFF 		bl	u8g_DrawGlyph270
 3361 0042 0346     		mov	r3, r0
 3362 0044 7B75     		strb	r3, [r7, #21]
 957:u8glib_arm_v1.18.1\src/u8g_font.c ****     y -= d;
 3363              		.loc 1 957 0
 3364 0046 7B7D     		ldrb	r3, [r7, #21]	@ zero_extendqisi2
 3365 0048 BA7A     		ldrb	r2, [r7, #10]
 3366 004a D31A     		subs	r3, r2, r3
 3367 004c BB72     		strb	r3, [r7, #10]
 958:u8glib_arm_v1.18.1\src/u8g_font.c ****     t += d;
 3368              		.loc 1 958 0
 3369 004e 7A7D     		ldrb	r2, [r7, #21]	@ zero_extendqisi2
 3370 0050 FB7D     		ldrb	r3, [r7, #23]
 3371 0052 1344     		add	r3, r3, r2
 3372 0054 FB75     		strb	r3, [r7, #23]
 959:u8glib_arm_v1.18.1\src/u8g_font.c ****     s++;
 3373              		.loc 1 959 0
 3374 0056 7B68     		ldr	r3, [r7, #4]
 3375 0058 0133     		adds	r3, r3, #1
 3376 005a 7B60     		str	r3, [r7, #4]
 960:u8glib_arm_v1.18.1\src/u8g_font.c ****   }
 3377              		.loc 1 960 0
 3378 005c E4E7     		b	.L173
 3379              	.L175:
 961:u8glib_arm_v1.18.1\src/u8g_font.c ****   return t;
 3380              		.loc 1 961 0
 3381 005e FB7D     		ldrb	r3, [r7, #23]	@ zero_extendqisi2
 962:u8glib_arm_v1.18.1\src/u8g_font.c **** }
 3382              		.loc 1 962 0
 3383 0060 1846     		mov	r0, r3
 3384 0062 1837     		adds	r7, r7, #24
 3385              		.cfi_def_cfa_offset 8
 3386 0064 BD46     		mov	sp, r7
 3387              		.cfi_def_cfa_register 13
 3388              		@ sp needed
 3389 0066 80BD     		pop	{r7, pc}
 3390              		.cfi_endproc
 3391              	.LFE46:
 3392              		.size	u8g_DrawStr270P, .-u8g_DrawStr270P
 3393              		.section	.text.u8g_DrawStrFontBBX,"ax",%progbits
 3394              		.align	2
 3395              		.global	u8g_DrawStrFontBBX
 3396              		.thumb
 3397              		.thumb_func
 3398              		.type	u8g_DrawStrFontBBX, %function
 3399              	u8g_DrawStrFontBBX:
 3400              	.LFB47:
 963:u8glib_arm_v1.18.1\src/u8g_font.c **** 
 964:u8glib_arm_v1.18.1\src/u8g_font.c **** u8g_uint_t u8g_DrawStrFontBBX(u8g_t *u8g, u8g_uint_t x, u8g_uint_t y, uint8_t dir, const char *s)
 965:u8glib_arm_v1.18.1\src/u8g_font.c **** {
 3401              		.loc 1 965 0
 3402              		.cfi_startproc
 3403              		@ args = 4, pretend = 0, frame = 8
 3404              		@ frame_needed = 1, uses_anonymous_args = 0
ARM GAS  C:\Users\KJA\AppData\Local\Temp\ccevgiJT.s 			page 78


 3405 0000 90B5     		push	{r4, r7, lr}
 3406              		.cfi_def_cfa_offset 12
 3407              		.cfi_offset 4, -12
 3408              		.cfi_offset 7, -8
 3409              		.cfi_offset 14, -4
 3410 0002 85B0     		sub	sp, sp, #20
 3411              		.cfi_def_cfa_offset 32
 3412 0004 02AF     		add	r7, sp, #8
 3413              		.cfi_def_cfa 7, 24
 3414 0006 7860     		str	r0, [r7, #4]
 3415 0008 0846     		mov	r0, r1
 3416 000a 1146     		mov	r1, r2
 3417 000c 1A46     		mov	r2, r3
 3418 000e 0346     		mov	r3, r0
 3419 0010 FB70     		strb	r3, [r7, #3]
 3420 0012 0B46     		mov	r3, r1
 3421 0014 BB70     		strb	r3, [r7, #2]
 3422 0016 1346     		mov	r3, r2
 3423 0018 7B70     		strb	r3, [r7, #1]
 966:u8glib_arm_v1.18.1\src/u8g_font.c ****   x -= u8g_GetFontBBXOffX(u8g);
 3424              		.loc 1 966 0
 3425 001a 7868     		ldr	r0, [r7, #4]
 3426 001c FFF7FEFF 		bl	u8g_GetFontBBXOffX
 3427 0020 0346     		mov	r3, r0
 3428 0022 DBB2     		uxtb	r3, r3
 3429 0024 FA78     		ldrb	r2, [r7, #3]
 3430 0026 D31A     		subs	r3, r2, r3
 3431 0028 FB70     		strb	r3, [r7, #3]
 967:u8glib_arm_v1.18.1\src/u8g_font.c ****   y += u8g_GetFontBBXOffY(u8g);
 3432              		.loc 1 967 0
 3433 002a 7868     		ldr	r0, [r7, #4]
 3434 002c FFF7FEFF 		bl	u8g_GetFontBBXOffY
 3435 0030 0346     		mov	r3, r0
 3436 0032 DAB2     		uxtb	r2, r3
 3437 0034 BB78     		ldrb	r3, [r7, #2]
 3438 0036 1344     		add	r3, r3, r2
 3439 0038 BB70     		strb	r3, [r7, #2]
 968:u8glib_arm_v1.18.1\src/u8g_font.c ****   return u8g_DrawStrDir(u8g, x, y, dir, s);
 3440              		.loc 1 968 0
 3441 003a F978     		ldrb	r1, [r7, #3]	@ zero_extendqisi2
 3442 003c BA78     		ldrb	r2, [r7, #2]	@ zero_extendqisi2
 3443 003e 7C78     		ldrb	r4, [r7, #1]	@ zero_extendqisi2
 3444 0040 BB69     		ldr	r3, [r7, #24]
 3445 0042 0093     		str	r3, [sp]
 3446 0044 7868     		ldr	r0, [r7, #4]
 3447 0046 2346     		mov	r3, r4
 3448 0048 FFF7FEFF 		bl	u8g_DrawStrDir
 3449 004c 0346     		mov	r3, r0
 969:u8glib_arm_v1.18.1\src/u8g_font.c **** }
 3450              		.loc 1 969 0
 3451 004e 1846     		mov	r0, r3
 3452 0050 0C37     		adds	r7, r7, #12
 3453              		.cfi_def_cfa_offset 12
 3454 0052 BD46     		mov	sp, r7
 3455              		.cfi_def_cfa_register 13
 3456              		@ sp needed
 3457 0054 90BD     		pop	{r4, r7, pc}
ARM GAS  C:\Users\KJA\AppData\Local\Temp\ccevgiJT.s 			page 79


 3458              		.cfi_endproc
 3459              	.LFE47:
 3460              		.size	u8g_DrawStrFontBBX, .-u8g_DrawStrFontBBX
 3461 0056 00BF     		.section	.text.u8g_DrawGlyphFontBBX,"ax",%progbits
 3462              		.align	2
 3463              		.global	u8g_DrawGlyphFontBBX
 3464              		.thumb
 3465              		.thumb_func
 3466              		.type	u8g_DrawGlyphFontBBX, %function
 3467              	u8g_DrawGlyphFontBBX:
 3468              	.LFB48:
 970:u8glib_arm_v1.18.1\src/u8g_font.c **** 
 971:u8glib_arm_v1.18.1\src/u8g_font.c **** /* still used by picgen.c, dir argument is ignored */
 972:u8glib_arm_v1.18.1\src/u8g_font.c **** int8_t u8g_DrawGlyphFontBBX(u8g_t *u8g, u8g_uint_t x, u8g_uint_t y, uint8_t dir, uint8_t encoding)
 973:u8glib_arm_v1.18.1\src/u8g_font.c **** {
 3469              		.loc 1 973 0
 3470              		.cfi_startproc
 3471              		@ args = 4, pretend = 0, frame = 8
 3472              		@ frame_needed = 1, uses_anonymous_args = 0
 3473 0000 80B5     		push	{r7, lr}
 3474              		.cfi_def_cfa_offset 8
 3475              		.cfi_offset 7, -8
 3476              		.cfi_offset 14, -4
 3477 0002 82B0     		sub	sp, sp, #8
 3478              		.cfi_def_cfa_offset 16
 3479 0004 00AF     		add	r7, sp, #0
 3480              		.cfi_def_cfa_register 7
 3481 0006 7860     		str	r0, [r7, #4]
 3482 0008 0846     		mov	r0, r1
 3483 000a 1146     		mov	r1, r2
 3484 000c 1A46     		mov	r2, r3
 3485 000e 0346     		mov	r3, r0
 3486 0010 FB70     		strb	r3, [r7, #3]
 3487 0012 0B46     		mov	r3, r1
 3488 0014 BB70     		strb	r3, [r7, #2]
 3489 0016 1346     		mov	r3, r2
 3490 0018 7B70     		strb	r3, [r7, #1]
 974:u8glib_arm_v1.18.1\src/u8g_font.c ****   x -= u8g_GetFontBBXOffX(u8g);
 3491              		.loc 1 974 0
 3492 001a 7868     		ldr	r0, [r7, #4]
 3493 001c FFF7FEFF 		bl	u8g_GetFontBBXOffX
 3494 0020 0346     		mov	r3, r0
 3495 0022 DBB2     		uxtb	r3, r3
 3496 0024 FA78     		ldrb	r2, [r7, #3]
 3497 0026 D31A     		subs	r3, r2, r3
 3498 0028 FB70     		strb	r3, [r7, #3]
 975:u8glib_arm_v1.18.1\src/u8g_font.c ****   y += u8g_GetFontBBXOffY(u8g);
 3499              		.loc 1 975 0
 3500 002a 7868     		ldr	r0, [r7, #4]
 3501 002c FFF7FEFF 		bl	u8g_GetFontBBXOffY
 3502 0030 0346     		mov	r3, r0
 3503 0032 DAB2     		uxtb	r2, r3
 3504 0034 BB78     		ldrb	r3, [r7, #2]
 3505 0036 1344     		add	r3, r3, r2
 3506 0038 BB70     		strb	r3, [r7, #2]
 976:u8glib_arm_v1.18.1\src/u8g_font.c ****   u8g_draw_glyph(u8g, x, y, encoding);
 3507              		.loc 1 976 0
ARM GAS  C:\Users\KJA\AppData\Local\Temp\ccevgiJT.s 			page 80


 3508 003a F978     		ldrb	r1, [r7, #3]	@ zero_extendqisi2
 3509 003c BA78     		ldrb	r2, [r7, #2]	@ zero_extendqisi2
 3510 003e 3B7C     		ldrb	r3, [r7, #16]	@ zero_extendqisi2
 3511 0040 7868     		ldr	r0, [r7, #4]
 3512 0042 FFF7FEFF 		bl	u8g_draw_glyph
 977:u8glib_arm_v1.18.1\src/u8g_font.c ****   return 0;
 3513              		.loc 1 977 0
 3514 0046 0023     		movs	r3, #0
 3515 0048 5BB2     		sxtb	r3, r3
 978:u8glib_arm_v1.18.1\src/u8g_font.c **** }
 3516              		.loc 1 978 0
 3517 004a 1846     		mov	r0, r3
 3518 004c 0837     		adds	r7, r7, #8
 3519              		.cfi_def_cfa_offset 8
 3520 004e BD46     		mov	sp, r7
 3521              		.cfi_def_cfa_register 13
 3522              		@ sp needed
 3523 0050 80BD     		pop	{r7, pc}
 3524              		.cfi_endproc
 3525              	.LFE48:
 3526              		.size	u8g_DrawGlyphFontBBX, .-u8g_DrawGlyphFontBBX
 3527 0052 00BF     		.section	.text.u8g_UpdateRefHeight,"ax",%progbits
 3528              		.align	2
 3529              		.global	u8g_UpdateRefHeight
 3530              		.thumb
 3531              		.thumb_func
 3532              		.type	u8g_UpdateRefHeight, %function
 3533              	u8g_UpdateRefHeight:
 3534              	.LFB49:
 979:u8glib_arm_v1.18.1\src/u8g_font.c **** 
 980:u8glib_arm_v1.18.1\src/u8g_font.c **** 
 981:u8glib_arm_v1.18.1\src/u8g_font.c **** /*========================================================================*/
 982:u8glib_arm_v1.18.1\src/u8g_font.c **** /* set ascent/descent for reference point calculation */
 983:u8glib_arm_v1.18.1\src/u8g_font.c **** 
 984:u8glib_arm_v1.18.1\src/u8g_font.c **** void u8g_UpdateRefHeight(u8g_t *u8g)
 985:u8glib_arm_v1.18.1\src/u8g_font.c **** {
 3535              		.loc 1 985 0
 3536              		.cfi_startproc
 3537              		@ args = 0, pretend = 0, frame = 16
 3538              		@ frame_needed = 1, uses_anonymous_args = 0
 3539 0000 80B5     		push	{r7, lr}
 3540              		.cfi_def_cfa_offset 8
 3541              		.cfi_offset 7, -8
 3542              		.cfi_offset 14, -4
 3543 0002 84B0     		sub	sp, sp, #16
 3544              		.cfi_def_cfa_offset 24
 3545 0004 00AF     		add	r7, sp, #0
 3546              		.cfi_def_cfa_register 7
 3547 0006 7860     		str	r0, [r7, #4]
 986:u8glib_arm_v1.18.1\src/u8g_font.c ****   uint16_t ls;
 987:u8glib_arm_v1.18.1\src/u8g_font.c ****   if ( u8g->font == NULL )
 3548              		.loc 1 987 0
 3549 0008 7B68     		ldr	r3, [r7, #4]
 3550 000a 9B68     		ldr	r3, [r3, #8]
 3551 000c 002B     		cmp	r3, #0
 3552 000e 00D1     		bne	.L181
 988:u8glib_arm_v1.18.1\src/u8g_font.c ****     return;
ARM GAS  C:\Users\KJA\AppData\Local\Temp\ccevgiJT.s 			page 81


 3553              		.loc 1 988 0
 3554 0010 6CE0     		b	.L180
 3555              	.L181:
 989:u8glib_arm_v1.18.1\src/u8g_font.c ****   if ( u8g->font_height_mode == U8G_FONT_HEIGHT_MODE_TEXT )
 3556              		.loc 1 989 0
 3557 0012 7B68     		ldr	r3, [r7, #4]
 3558 0014 93F82830 		ldrb	r3, [r3, #40]	@ zero_extendqisi2
 3559 0018 002B     		cmp	r3, #0
 3560 001a 14D1     		bne	.L183
 990:u8glib_arm_v1.18.1\src/u8g_font.c ****   {
 991:u8glib_arm_v1.18.1\src/u8g_font.c ****     u8g->font_ref_ascent = u8g_font_GetCapitalAHeight(u8g->font);
 3561              		.loc 1 991 0
 3562 001c 7B68     		ldr	r3, [r7, #4]
 3563 001e 9B68     		ldr	r3, [r3, #8]
 3564 0020 1846     		mov	r0, r3
 3565 0022 FFF7FEFF 		bl	u8g_font_GetCapitalAHeight
 3566 0026 0346     		mov	r3, r0
 3567 0028 DAB2     		uxtb	r2, r3
 3568 002a 7B68     		ldr	r3, [r7, #4]
 3569 002c 83F82920 		strb	r2, [r3, #41]
 992:u8glib_arm_v1.18.1\src/u8g_font.c ****     u8g->font_ref_descent = u8g_font_GetLowerGDescent(u8g->font);
 3570              		.loc 1 992 0
 3571 0030 7B68     		ldr	r3, [r7, #4]
 3572 0032 9B68     		ldr	r3, [r3, #8]
 3573 0034 1846     		mov	r0, r3
 3574 0036 FFF7FEFF 		bl	u8g_font_GetLowerGDescent
 3575 003a 0346     		mov	r3, r0
 3576 003c 1A46     		mov	r2, r3
 3577 003e 7B68     		ldr	r3, [r7, #4]
 3578 0040 83F82A20 		strb	r2, [r3, #42]
 3579 0044 2DE0     		b	.L184
 3580              	.L183:
 993:u8glib_arm_v1.18.1\src/u8g_font.c ****   }
 994:u8glib_arm_v1.18.1\src/u8g_font.c ****   else if ( u8g->font_height_mode == U8G_FONT_HEIGHT_MODE_XTEXT )
 3581              		.loc 1 994 0
 3582 0046 7B68     		ldr	r3, [r7, #4]
 3583 0048 93F82830 		ldrb	r3, [r3, #40]	@ zero_extendqisi2
 3584 004c 012B     		cmp	r3, #1
 3585 004e 14D1     		bne	.L185
 995:u8glib_arm_v1.18.1\src/u8g_font.c ****   {
 996:u8glib_arm_v1.18.1\src/u8g_font.c ****     u8g->font_ref_ascent = u8g_font_GetFontXAscent(u8g->font);
 3586              		.loc 1 996 0
 3587 0050 7B68     		ldr	r3, [r7, #4]
 3588 0052 9B68     		ldr	r3, [r3, #8]
 3589 0054 1846     		mov	r0, r3
 3590 0056 FFF7FEFF 		bl	u8g_font_GetFontXAscent
 3591 005a 0346     		mov	r3, r0
 3592 005c 1A46     		mov	r2, r3
 3593 005e 7B68     		ldr	r3, [r7, #4]
 3594 0060 83F82920 		strb	r2, [r3, #41]
 997:u8glib_arm_v1.18.1\src/u8g_font.c ****     u8g->font_ref_descent = u8g_font_GetFontXDescent(u8g->font);
 3595              		.loc 1 997 0
 3596 0064 7B68     		ldr	r3, [r7, #4]
 3597 0066 9B68     		ldr	r3, [r3, #8]
 3598 0068 1846     		mov	r0, r3
 3599 006a FFF7FEFF 		bl	u8g_font_GetFontXDescent
 3600 006e 0346     		mov	r3, r0
ARM GAS  C:\Users\KJA\AppData\Local\Temp\ccevgiJT.s 			page 82


 3601 0070 1A46     		mov	r2, r3
 3602 0072 7B68     		ldr	r3, [r7, #4]
 3603 0074 83F82A20 		strb	r2, [r3, #42]
 3604 0078 13E0     		b	.L184
 3605              	.L185:
 998:u8glib_arm_v1.18.1\src/u8g_font.c ****   }
 999:u8glib_arm_v1.18.1\src/u8g_font.c ****   else
1000:u8glib_arm_v1.18.1\src/u8g_font.c ****   {
1001:u8glib_arm_v1.18.1\src/u8g_font.c ****     u8g->font_ref_ascent = u8g_font_GetFontAscent(u8g->font);
 3606              		.loc 1 1001 0
 3607 007a 7B68     		ldr	r3, [r7, #4]
 3608 007c 9B68     		ldr	r3, [r3, #8]
 3609 007e 1846     		mov	r0, r3
 3610 0080 FFF7FEFF 		bl	u8g_font_GetFontAscent
 3611 0084 0346     		mov	r3, r0
 3612 0086 1A46     		mov	r2, r3
 3613 0088 7B68     		ldr	r3, [r7, #4]
 3614 008a 83F82920 		strb	r2, [r3, #41]
1002:u8glib_arm_v1.18.1\src/u8g_font.c ****     u8g->font_ref_descent = u8g_font_GetFontDescent(u8g->font);
 3615              		.loc 1 1002 0
 3616 008e 7B68     		ldr	r3, [r7, #4]
 3617 0090 9B68     		ldr	r3, [r3, #8]
 3618 0092 1846     		mov	r0, r3
 3619 0094 FFF7FEFF 		bl	u8g_font_GetFontDescent
 3620 0098 0346     		mov	r3, r0
 3621 009a 1A46     		mov	r2, r3
 3622 009c 7B68     		ldr	r3, [r7, #4]
 3623 009e 83F82A20 		strb	r2, [r3, #42]
 3624              	.L184:
1003:u8glib_arm_v1.18.1\src/u8g_font.c ****   }
1004:u8glib_arm_v1.18.1\src/u8g_font.c ****   
1005:u8glib_arm_v1.18.1\src/u8g_font.c ****   ls = u8g->font_ref_ascent - u8g->font_ref_descent;
 3625              		.loc 1 1005 0
 3626 00a2 7B68     		ldr	r3, [r7, #4]
 3627 00a4 93F82930 		ldrb	r3, [r3, #41]	@ zero_extendqisi2
 3628 00a8 5BB2     		sxtb	r3, r3
 3629 00aa 9AB2     		uxth	r2, r3
 3630 00ac 7B68     		ldr	r3, [r7, #4]
 3631 00ae 93F82A30 		ldrb	r3, [r3, #42]	@ zero_extendqisi2
 3632 00b2 5BB2     		sxtb	r3, r3
 3633 00b4 9BB2     		uxth	r3, r3
 3634 00b6 D31A     		subs	r3, r2, r3
 3635 00b8 9BB2     		uxth	r3, r3
 3636 00ba FB81     		strh	r3, [r7, #14]	@ movhi
1006:u8glib_arm_v1.18.1\src/u8g_font.c ****   if ( u8g->font_line_spacing_factor != 64 )
 3637              		.loc 1 1006 0
 3638 00bc 7B68     		ldr	r3, [r7, #4]
 3639 00be 93F82B30 		ldrb	r3, [r3, #43]	@ zero_extendqisi2
 3640 00c2 402B     		cmp	r3, #64
 3641 00c4 0DD0     		beq	.L186
1007:u8glib_arm_v1.18.1\src/u8g_font.c ****   {
1008:u8glib_arm_v1.18.1\src/u8g_font.c ****     ls &= 255;
 3642              		.loc 1 1008 0
 3643 00c6 FB89     		ldrh	r3, [r7, #14]	@ movhi
 3644 00c8 DBB2     		uxtb	r3, r3
 3645 00ca FB81     		strh	r3, [r7, #14]	@ movhi
1009:u8glib_arm_v1.18.1\src/u8g_font.c ****     ls *= u8g->font_line_spacing_factor;
ARM GAS  C:\Users\KJA\AppData\Local\Temp\ccevgiJT.s 			page 83


 3646              		.loc 1 1009 0
 3647 00cc 7B68     		ldr	r3, [r7, #4]
 3648 00ce 93F82B30 		ldrb	r3, [r3, #43]	@ zero_extendqisi2
 3649 00d2 9BB2     		uxth	r3, r3
 3650 00d4 FA89     		ldrh	r2, [r7, #14]	@ movhi
 3651 00d6 02FB03F3 		mul	r3, r2, r3
 3652 00da FB81     		strh	r3, [r7, #14]	@ movhi
1010:u8glib_arm_v1.18.1\src/u8g_font.c ****     ls >>= 6;
 3653              		.loc 1 1010 0
 3654 00dc FB89     		ldrh	r3, [r7, #14]
 3655 00de 9B09     		lsrs	r3, r3, #6
 3656 00e0 FB81     		strh	r3, [r7, #14]	@ movhi
 3657              	.L186:
1011:u8glib_arm_v1.18.1\src/u8g_font.c ****   }
1012:u8glib_arm_v1.18.1\src/u8g_font.c ****   u8g->line_spacing = ls;
 3658              		.loc 1 1012 0
 3659 00e2 FB89     		ldrh	r3, [r7, #14]	@ movhi
 3660 00e4 DAB2     		uxtb	r2, r3
 3661 00e6 7B68     		ldr	r3, [r7, #4]
 3662 00e8 83F82C20 		strb	r2, [r3, #44]
 3663              	.L180:
1013:u8glib_arm_v1.18.1\src/u8g_font.c **** }
 3664              		.loc 1 1013 0
 3665 00ec 1037     		adds	r7, r7, #16
 3666              		.cfi_def_cfa_offset 8
 3667 00ee BD46     		mov	sp, r7
 3668              		.cfi_def_cfa_register 13
 3669              		@ sp needed
 3670 00f0 80BD     		pop	{r7, pc}
 3671              		.cfi_endproc
 3672              	.LFE49:
 3673              		.size	u8g_UpdateRefHeight, .-u8g_UpdateRefHeight
 3674 00f2 00BF     		.section	.text.u8g_SetFontRefHeightText,"ax",%progbits
 3675              		.align	2
 3676              		.global	u8g_SetFontRefHeightText
 3677              		.thumb
 3678              		.thumb_func
 3679              		.type	u8g_SetFontRefHeightText, %function
 3680              	u8g_SetFontRefHeightText:
 3681              	.LFB50:
1014:u8glib_arm_v1.18.1\src/u8g_font.c **** 
1015:u8glib_arm_v1.18.1\src/u8g_font.c **** void u8g_SetFontRefHeightText(u8g_t *u8g)
1016:u8glib_arm_v1.18.1\src/u8g_font.c **** {
 3682              		.loc 1 1016 0
 3683              		.cfi_startproc
 3684              		@ args = 0, pretend = 0, frame = 8
 3685              		@ frame_needed = 1, uses_anonymous_args = 0
 3686 0000 80B5     		push	{r7, lr}
 3687              		.cfi_def_cfa_offset 8
 3688              		.cfi_offset 7, -8
 3689              		.cfi_offset 14, -4
 3690 0002 82B0     		sub	sp, sp, #8
 3691              		.cfi_def_cfa_offset 16
 3692 0004 00AF     		add	r7, sp, #0
 3693              		.cfi_def_cfa_register 7
 3694 0006 7860     		str	r0, [r7, #4]
1017:u8glib_arm_v1.18.1\src/u8g_font.c ****   u8g->font_height_mode = U8G_FONT_HEIGHT_MODE_TEXT;
ARM GAS  C:\Users\KJA\AppData\Local\Temp\ccevgiJT.s 			page 84


 3695              		.loc 1 1017 0
 3696 0008 7B68     		ldr	r3, [r7, #4]
 3697 000a 0022     		movs	r2, #0
 3698 000c 83F82820 		strb	r2, [r3, #40]
1018:u8glib_arm_v1.18.1\src/u8g_font.c ****   u8g_UpdateRefHeight(u8g);
 3699              		.loc 1 1018 0
 3700 0010 7868     		ldr	r0, [r7, #4]
 3701 0012 FFF7FEFF 		bl	u8g_UpdateRefHeight
1019:u8glib_arm_v1.18.1\src/u8g_font.c **** }
 3702              		.loc 1 1019 0
 3703 0016 0837     		adds	r7, r7, #8
 3704              		.cfi_def_cfa_offset 8
 3705 0018 BD46     		mov	sp, r7
 3706              		.cfi_def_cfa_register 13
 3707              		@ sp needed
 3708 001a 80BD     		pop	{r7, pc}
 3709              		.cfi_endproc
 3710              	.LFE50:
 3711              		.size	u8g_SetFontRefHeightText, .-u8g_SetFontRefHeightText
 3712              		.section	.text.u8g_SetFontRefHeightExtendedText,"ax",%progbits
 3713              		.align	2
 3714              		.global	u8g_SetFontRefHeightExtendedText
 3715              		.thumb
 3716              		.thumb_func
 3717              		.type	u8g_SetFontRefHeightExtendedText, %function
 3718              	u8g_SetFontRefHeightExtendedText:
 3719              	.LFB51:
1020:u8glib_arm_v1.18.1\src/u8g_font.c **** 
1021:u8glib_arm_v1.18.1\src/u8g_font.c **** void u8g_SetFontRefHeightExtendedText(u8g_t *u8g)
1022:u8glib_arm_v1.18.1\src/u8g_font.c **** {
 3720              		.loc 1 1022 0
 3721              		.cfi_startproc
 3722              		@ args = 0, pretend = 0, frame = 8
 3723              		@ frame_needed = 1, uses_anonymous_args = 0
 3724 0000 80B5     		push	{r7, lr}
 3725              		.cfi_def_cfa_offset 8
 3726              		.cfi_offset 7, -8
 3727              		.cfi_offset 14, -4
 3728 0002 82B0     		sub	sp, sp, #8
 3729              		.cfi_def_cfa_offset 16
 3730 0004 00AF     		add	r7, sp, #0
 3731              		.cfi_def_cfa_register 7
 3732 0006 7860     		str	r0, [r7, #4]
1023:u8glib_arm_v1.18.1\src/u8g_font.c ****   u8g->font_height_mode = U8G_FONT_HEIGHT_MODE_XTEXT;
 3733              		.loc 1 1023 0
 3734 0008 7B68     		ldr	r3, [r7, #4]
 3735 000a 0122     		movs	r2, #1
 3736 000c 83F82820 		strb	r2, [r3, #40]
1024:u8glib_arm_v1.18.1\src/u8g_font.c ****   u8g_UpdateRefHeight(u8g);
 3737              		.loc 1 1024 0
 3738 0010 7868     		ldr	r0, [r7, #4]
 3739 0012 FFF7FEFF 		bl	u8g_UpdateRefHeight
1025:u8glib_arm_v1.18.1\src/u8g_font.c **** }
 3740              		.loc 1 1025 0
 3741 0016 0837     		adds	r7, r7, #8
 3742              		.cfi_def_cfa_offset 8
 3743 0018 BD46     		mov	sp, r7
ARM GAS  C:\Users\KJA\AppData\Local\Temp\ccevgiJT.s 			page 85


 3744              		.cfi_def_cfa_register 13
 3745              		@ sp needed
 3746 001a 80BD     		pop	{r7, pc}
 3747              		.cfi_endproc
 3748              	.LFE51:
 3749              		.size	u8g_SetFontRefHeightExtendedText, .-u8g_SetFontRefHeightExtendedText
 3750              		.section	.text.u8g_SetFontRefHeightAll,"ax",%progbits
 3751              		.align	2
 3752              		.global	u8g_SetFontRefHeightAll
 3753              		.thumb
 3754              		.thumb_func
 3755              		.type	u8g_SetFontRefHeightAll, %function
 3756              	u8g_SetFontRefHeightAll:
 3757              	.LFB52:
1026:u8glib_arm_v1.18.1\src/u8g_font.c **** 
1027:u8glib_arm_v1.18.1\src/u8g_font.c **** 
1028:u8glib_arm_v1.18.1\src/u8g_font.c **** void u8g_SetFontRefHeightAll(u8g_t *u8g)
1029:u8glib_arm_v1.18.1\src/u8g_font.c **** {
 3758              		.loc 1 1029 0
 3759              		.cfi_startproc
 3760              		@ args = 0, pretend = 0, frame = 8
 3761              		@ frame_needed = 1, uses_anonymous_args = 0
 3762 0000 80B5     		push	{r7, lr}
 3763              		.cfi_def_cfa_offset 8
 3764              		.cfi_offset 7, -8
 3765              		.cfi_offset 14, -4
 3766 0002 82B0     		sub	sp, sp, #8
 3767              		.cfi_def_cfa_offset 16
 3768 0004 00AF     		add	r7, sp, #0
 3769              		.cfi_def_cfa_register 7
 3770 0006 7860     		str	r0, [r7, #4]
1030:u8glib_arm_v1.18.1\src/u8g_font.c ****   u8g->font_height_mode = U8G_FONT_HEIGHT_MODE_ALL;
 3771              		.loc 1 1030 0
 3772 0008 7B68     		ldr	r3, [r7, #4]
 3773 000a 0222     		movs	r2, #2
 3774 000c 83F82820 		strb	r2, [r3, #40]
1031:u8glib_arm_v1.18.1\src/u8g_font.c ****   u8g_UpdateRefHeight(u8g);
 3775              		.loc 1 1031 0
 3776 0010 7868     		ldr	r0, [r7, #4]
 3777 0012 FFF7FEFF 		bl	u8g_UpdateRefHeight
1032:u8glib_arm_v1.18.1\src/u8g_font.c **** }
 3778              		.loc 1 1032 0
 3779 0016 0837     		adds	r7, r7, #8
 3780              		.cfi_def_cfa_offset 8
 3781 0018 BD46     		mov	sp, r7
 3782              		.cfi_def_cfa_register 13
 3783              		@ sp needed
 3784 001a 80BD     		pop	{r7, pc}
 3785              		.cfi_endproc
 3786              	.LFE52:
 3787              		.size	u8g_SetFontRefHeightAll, .-u8g_SetFontRefHeightAll
 3788              		.section	.text.u8g_SetFontLineSpacingFactor,"ax",%progbits
 3789              		.align	2
 3790              		.global	u8g_SetFontLineSpacingFactor
 3791              		.thumb
 3792              		.thumb_func
 3793              		.type	u8g_SetFontLineSpacingFactor, %function
ARM GAS  C:\Users\KJA\AppData\Local\Temp\ccevgiJT.s 			page 86


 3794              	u8g_SetFontLineSpacingFactor:
 3795              	.LFB53:
1033:u8glib_arm_v1.18.1\src/u8g_font.c **** 
1034:u8glib_arm_v1.18.1\src/u8g_font.c **** /* factor = 64: linespaceing == ascent and descent */
1035:u8glib_arm_v1.18.1\src/u8g_font.c **** void u8g_SetFontLineSpacingFactor(u8g_t *u8g, uint8_t  factor)
1036:u8glib_arm_v1.18.1\src/u8g_font.c **** {
 3796              		.loc 1 1036 0
 3797              		.cfi_startproc
 3798              		@ args = 0, pretend = 0, frame = 8
 3799              		@ frame_needed = 1, uses_anonymous_args = 0
 3800 0000 80B5     		push	{r7, lr}
 3801              		.cfi_def_cfa_offset 8
 3802              		.cfi_offset 7, -8
 3803              		.cfi_offset 14, -4
 3804 0002 82B0     		sub	sp, sp, #8
 3805              		.cfi_def_cfa_offset 16
 3806 0004 00AF     		add	r7, sp, #0
 3807              		.cfi_def_cfa_register 7
 3808 0006 7860     		str	r0, [r7, #4]
 3809 0008 0B46     		mov	r3, r1
 3810 000a FB70     		strb	r3, [r7, #3]
1037:u8glib_arm_v1.18.1\src/u8g_font.c ****   u8g->font_line_spacing_factor = factor;
 3811              		.loc 1 1037 0
 3812 000c 7B68     		ldr	r3, [r7, #4]
 3813 000e FA78     		ldrb	r2, [r7, #3]
 3814 0010 83F82B20 		strb	r2, [r3, #43]
1038:u8glib_arm_v1.18.1\src/u8g_font.c ****   u8g_UpdateRefHeight(u8g);
 3815              		.loc 1 1038 0
 3816 0014 7868     		ldr	r0, [r7, #4]
 3817 0016 FFF7FEFF 		bl	u8g_UpdateRefHeight
1039:u8glib_arm_v1.18.1\src/u8g_font.c **** }
 3818              		.loc 1 1039 0
 3819 001a 0837     		adds	r7, r7, #8
 3820              		.cfi_def_cfa_offset 8
 3821 001c BD46     		mov	sp, r7
 3822              		.cfi_def_cfa_register 13
 3823              		@ sp needed
 3824 001e 80BD     		pop	{r7, pc}
 3825              		.cfi_endproc
 3826              	.LFE53:
 3827              		.size	u8g_SetFontLineSpacingFactor, .-u8g_SetFontLineSpacingFactor
 3828              		.section	.text.u8g_font_calc_vref_font,"ax",%progbits
 3829              		.align	2
 3830              		.global	u8g_font_calc_vref_font
 3831              		.thumb
 3832              		.thumb_func
 3833              		.type	u8g_font_calc_vref_font, %function
 3834              	u8g_font_calc_vref_font:
 3835              	.LFB54:
1040:u8glib_arm_v1.18.1\src/u8g_font.c **** 
1041:u8glib_arm_v1.18.1\src/u8g_font.c **** 
1042:u8glib_arm_v1.18.1\src/u8g_font.c **** 
1043:u8glib_arm_v1.18.1\src/u8g_font.c **** /*========================================================================*/
1044:u8glib_arm_v1.18.1\src/u8g_font.c **** /* callback procedures to correct the y position */
1045:u8glib_arm_v1.18.1\src/u8g_font.c **** 
1046:u8glib_arm_v1.18.1\src/u8g_font.c **** u8g_uint_t u8g_font_calc_vref_font(u8g_t *u8g)
1047:u8glib_arm_v1.18.1\src/u8g_font.c **** {
ARM GAS  C:\Users\KJA\AppData\Local\Temp\ccevgiJT.s 			page 87


 3836              		.loc 1 1047 0
 3837              		.cfi_startproc
 3838              		@ args = 0, pretend = 0, frame = 8
 3839              		@ frame_needed = 1, uses_anonymous_args = 0
 3840              		@ link register save eliminated.
 3841 0000 80B4     		push	{r7}
 3842              		.cfi_def_cfa_offset 4
 3843              		.cfi_offset 7, -4
 3844 0002 83B0     		sub	sp, sp, #12
 3845              		.cfi_def_cfa_offset 16
 3846 0004 00AF     		add	r7, sp, #0
 3847              		.cfi_def_cfa_register 7
 3848 0006 7860     		str	r0, [r7, #4]
1048:u8glib_arm_v1.18.1\src/u8g_font.c ****   return 0;
 3849              		.loc 1 1048 0
 3850 0008 0023     		movs	r3, #0
1049:u8glib_arm_v1.18.1\src/u8g_font.c **** }
 3851              		.loc 1 1049 0
 3852 000a 1846     		mov	r0, r3
 3853 000c 0C37     		adds	r7, r7, #12
 3854              		.cfi_def_cfa_offset 4
 3855 000e BD46     		mov	sp, r7
 3856              		.cfi_def_cfa_register 13
 3857              		@ sp needed
 3858 0010 5DF8047B 		ldr	r7, [sp], #4
 3859              		.cfi_restore 7
 3860              		.cfi_def_cfa_offset 0
 3861 0014 7047     		bx	lr
 3862              		.cfi_endproc
 3863              	.LFE54:
 3864              		.size	u8g_font_calc_vref_font, .-u8g_font_calc_vref_font
 3865 0016 00BF     		.section	.text.u8g_SetFontPosBaseline,"ax",%progbits
 3866              		.align	2
 3867              		.global	u8g_SetFontPosBaseline
 3868              		.thumb
 3869              		.thumb_func
 3870              		.type	u8g_SetFontPosBaseline, %function
 3871              	u8g_SetFontPosBaseline:
 3872              	.LFB55:
1050:u8glib_arm_v1.18.1\src/u8g_font.c **** 
1051:u8glib_arm_v1.18.1\src/u8g_font.c **** void u8g_SetFontPosBaseline(u8g_t *u8g)
1052:u8glib_arm_v1.18.1\src/u8g_font.c **** {
 3873              		.loc 1 1052 0
 3874              		.cfi_startproc
 3875              		@ args = 0, pretend = 0, frame = 8
 3876              		@ frame_needed = 1, uses_anonymous_args = 0
 3877              		@ link register save eliminated.
 3878 0000 80B4     		push	{r7}
 3879              		.cfi_def_cfa_offset 4
 3880              		.cfi_offset 7, -4
 3881 0002 83B0     		sub	sp, sp, #12
 3882              		.cfi_def_cfa_offset 16
 3883 0004 00AF     		add	r7, sp, #0
 3884              		.cfi_def_cfa_register 7
 3885 0006 7860     		str	r0, [r7, #4]
1053:u8glib_arm_v1.18.1\src/u8g_font.c ****   u8g->font_calc_vref = u8g_font_calc_vref_font;
 3886              		.loc 1 1053 0
ARM GAS  C:\Users\KJA\AppData\Local\Temp\ccevgiJT.s 			page 88


 3887 0008 7B68     		ldr	r3, [r7, #4]
 3888 000a 034A     		ldr	r2, .L194
 3889 000c 5A62     		str	r2, [r3, #36]
1054:u8glib_arm_v1.18.1\src/u8g_font.c **** }
 3890              		.loc 1 1054 0
 3891 000e 0C37     		adds	r7, r7, #12
 3892              		.cfi_def_cfa_offset 4
 3893 0010 BD46     		mov	sp, r7
 3894              		.cfi_def_cfa_register 13
 3895              		@ sp needed
 3896 0012 5DF8047B 		ldr	r7, [sp], #4
 3897              		.cfi_restore 7
 3898              		.cfi_def_cfa_offset 0
 3899 0016 7047     		bx	lr
 3900              	.L195:
 3901              		.align	2
 3902              	.L194:
 3903 0018 00000000 		.word	u8g_font_calc_vref_font
 3904              		.cfi_endproc
 3905              	.LFE55:
 3906              		.size	u8g_SetFontPosBaseline, .-u8g_SetFontPosBaseline
 3907              		.section	.text.u8g_font_calc_vref_bottom,"ax",%progbits
 3908              		.align	2
 3909              		.global	u8g_font_calc_vref_bottom
 3910              		.thumb
 3911              		.thumb_func
 3912              		.type	u8g_font_calc_vref_bottom, %function
 3913              	u8g_font_calc_vref_bottom:
 3914              	.LFB56:
1055:u8glib_arm_v1.18.1\src/u8g_font.c **** 
1056:u8glib_arm_v1.18.1\src/u8g_font.c **** 
1057:u8glib_arm_v1.18.1\src/u8g_font.c **** u8g_uint_t u8g_font_calc_vref_bottom(u8g_t *u8g)
1058:u8glib_arm_v1.18.1\src/u8g_font.c **** {
 3915              		.loc 1 1058 0
 3916              		.cfi_startproc
 3917              		@ args = 0, pretend = 0, frame = 8
 3918              		@ frame_needed = 1, uses_anonymous_args = 0
 3919              		@ link register save eliminated.
 3920 0000 80B4     		push	{r7}
 3921              		.cfi_def_cfa_offset 4
 3922              		.cfi_offset 7, -4
 3923 0002 83B0     		sub	sp, sp, #12
 3924              		.cfi_def_cfa_offset 16
 3925 0004 00AF     		add	r7, sp, #0
 3926              		.cfi_def_cfa_register 7
 3927 0006 7860     		str	r0, [r7, #4]
1059:u8glib_arm_v1.18.1\src/u8g_font.c ****   /* y += (u8g_uint_t)(u8g_int_t)(u8g->font_ref_descent); */
1060:u8glib_arm_v1.18.1\src/u8g_font.c ****   return (u8g_uint_t)(u8g_int_t)(u8g->font_ref_descent);
 3928              		.loc 1 1060 0
 3929 0008 7B68     		ldr	r3, [r7, #4]
 3930 000a 93F82A30 		ldrb	r3, [r3, #42]	@ zero_extendqisi2
 3931 000e DBB2     		uxtb	r3, r3
1061:u8glib_arm_v1.18.1\src/u8g_font.c **** }
 3932              		.loc 1 1061 0
 3933 0010 1846     		mov	r0, r3
 3934 0012 0C37     		adds	r7, r7, #12
 3935              		.cfi_def_cfa_offset 4
ARM GAS  C:\Users\KJA\AppData\Local\Temp\ccevgiJT.s 			page 89


 3936 0014 BD46     		mov	sp, r7
 3937              		.cfi_def_cfa_register 13
 3938              		@ sp needed
 3939 0016 5DF8047B 		ldr	r7, [sp], #4
 3940              		.cfi_restore 7
 3941              		.cfi_def_cfa_offset 0
 3942 001a 7047     		bx	lr
 3943              		.cfi_endproc
 3944              	.LFE56:
 3945              		.size	u8g_font_calc_vref_bottom, .-u8g_font_calc_vref_bottom
 3946              		.section	.text.u8g_SetFontPosBottom,"ax",%progbits
 3947              		.align	2
 3948              		.global	u8g_SetFontPosBottom
 3949              		.thumb
 3950              		.thumb_func
 3951              		.type	u8g_SetFontPosBottom, %function
 3952              	u8g_SetFontPosBottom:
 3953              	.LFB57:
1062:u8glib_arm_v1.18.1\src/u8g_font.c **** 
1063:u8glib_arm_v1.18.1\src/u8g_font.c **** void u8g_SetFontPosBottom(u8g_t *u8g)
1064:u8glib_arm_v1.18.1\src/u8g_font.c **** {
 3954              		.loc 1 1064 0
 3955              		.cfi_startproc
 3956              		@ args = 0, pretend = 0, frame = 8
 3957              		@ frame_needed = 1, uses_anonymous_args = 0
 3958              		@ link register save eliminated.
 3959 0000 80B4     		push	{r7}
 3960              		.cfi_def_cfa_offset 4
 3961              		.cfi_offset 7, -4
 3962 0002 83B0     		sub	sp, sp, #12
 3963              		.cfi_def_cfa_offset 16
 3964 0004 00AF     		add	r7, sp, #0
 3965              		.cfi_def_cfa_register 7
 3966 0006 7860     		str	r0, [r7, #4]
1065:u8glib_arm_v1.18.1\src/u8g_font.c ****   u8g->font_calc_vref = u8g_font_calc_vref_bottom;
 3967              		.loc 1 1065 0
 3968 0008 7B68     		ldr	r3, [r7, #4]
 3969 000a 034A     		ldr	r2, .L199
 3970 000c 5A62     		str	r2, [r3, #36]
1066:u8glib_arm_v1.18.1\src/u8g_font.c **** }
 3971              		.loc 1 1066 0
 3972 000e 0C37     		adds	r7, r7, #12
 3973              		.cfi_def_cfa_offset 4
 3974 0010 BD46     		mov	sp, r7
 3975              		.cfi_def_cfa_register 13
 3976              		@ sp needed
 3977 0012 5DF8047B 		ldr	r7, [sp], #4
 3978              		.cfi_restore 7
 3979              		.cfi_def_cfa_offset 0
 3980 0016 7047     		bx	lr
 3981              	.L200:
 3982              		.align	2
 3983              	.L199:
 3984 0018 00000000 		.word	u8g_font_calc_vref_bottom
 3985              		.cfi_endproc
 3986              	.LFE57:
 3987              		.size	u8g_SetFontPosBottom, .-u8g_SetFontPosBottom
ARM GAS  C:\Users\KJA\AppData\Local\Temp\ccevgiJT.s 			page 90


 3988              		.section	.text.u8g_font_calc_vref_top,"ax",%progbits
 3989              		.align	2
 3990              		.global	u8g_font_calc_vref_top
 3991              		.thumb
 3992              		.thumb_func
 3993              		.type	u8g_font_calc_vref_top, %function
 3994              	u8g_font_calc_vref_top:
 3995              	.LFB58:
1067:u8glib_arm_v1.18.1\src/u8g_font.c **** 
1068:u8glib_arm_v1.18.1\src/u8g_font.c **** u8g_uint_t u8g_font_calc_vref_top(u8g_t *u8g)
1069:u8glib_arm_v1.18.1\src/u8g_font.c **** {
 3996              		.loc 1 1069 0
 3997              		.cfi_startproc
 3998              		@ args = 0, pretend = 0, frame = 16
 3999              		@ frame_needed = 1, uses_anonymous_args = 0
 4000              		@ link register save eliminated.
 4001 0000 80B4     		push	{r7}
 4002              		.cfi_def_cfa_offset 4
 4003              		.cfi_offset 7, -4
 4004 0002 85B0     		sub	sp, sp, #20
 4005              		.cfi_def_cfa_offset 24
 4006 0004 00AF     		add	r7, sp, #0
 4007              		.cfi_def_cfa_register 7
 4008 0006 7860     		str	r0, [r7, #4]
1070:u8glib_arm_v1.18.1\src/u8g_font.c ****   u8g_uint_t tmp;
1071:u8glib_arm_v1.18.1\src/u8g_font.c ****   /* reference pos is one pixel above the upper edge of the reference glyph */
1072:u8glib_arm_v1.18.1\src/u8g_font.c **** 
1073:u8glib_arm_v1.18.1\src/u8g_font.c ****   /*
1074:u8glib_arm_v1.18.1\src/u8g_font.c ****   y += (u8g_uint_t)(u8g_int_t)(u8g->font_ref_ascent);
1075:u8glib_arm_v1.18.1\src/u8g_font.c ****   y++;
1076:u8glib_arm_v1.18.1\src/u8g_font.c ****   */
1077:u8glib_arm_v1.18.1\src/u8g_font.c ****   tmp = (u8g_uint_t)(u8g_int_t)(u8g->font_ref_ascent);
 4009              		.loc 1 1077 0
 4010 0008 7B68     		ldr	r3, [r7, #4]
 4011 000a 93F82930 		ldrb	r3, [r3, #41]	@ zero_extendqisi2
 4012 000e FB73     		strb	r3, [r7, #15]
1078:u8glib_arm_v1.18.1\src/u8g_font.c ****   tmp++;
 4013              		.loc 1 1078 0
 4014 0010 FB7B     		ldrb	r3, [r7, #15]	@ zero_extendqisi2
 4015 0012 0133     		adds	r3, r3, #1
 4016 0014 FB73     		strb	r3, [r7, #15]
1079:u8glib_arm_v1.18.1\src/u8g_font.c ****   return tmp;
 4017              		.loc 1 1079 0
 4018 0016 FB7B     		ldrb	r3, [r7, #15]	@ zero_extendqisi2
1080:u8glib_arm_v1.18.1\src/u8g_font.c **** }
 4019              		.loc 1 1080 0
 4020 0018 1846     		mov	r0, r3
 4021 001a 1437     		adds	r7, r7, #20
 4022              		.cfi_def_cfa_offset 4
 4023 001c BD46     		mov	sp, r7
 4024              		.cfi_def_cfa_register 13
 4025              		@ sp needed
 4026 001e 5DF8047B 		ldr	r7, [sp], #4
 4027              		.cfi_restore 7
 4028              		.cfi_def_cfa_offset 0
 4029 0022 7047     		bx	lr
 4030              		.cfi_endproc
ARM GAS  C:\Users\KJA\AppData\Local\Temp\ccevgiJT.s 			page 91


 4031              	.LFE58:
 4032              		.size	u8g_font_calc_vref_top, .-u8g_font_calc_vref_top
 4033              		.section	.text.u8g_SetFontPosTop,"ax",%progbits
 4034              		.align	2
 4035              		.global	u8g_SetFontPosTop
 4036              		.thumb
 4037              		.thumb_func
 4038              		.type	u8g_SetFontPosTop, %function
 4039              	u8g_SetFontPosTop:
 4040              	.LFB59:
1081:u8glib_arm_v1.18.1\src/u8g_font.c **** 
1082:u8glib_arm_v1.18.1\src/u8g_font.c **** void u8g_SetFontPosTop(u8g_t *u8g)
1083:u8glib_arm_v1.18.1\src/u8g_font.c **** {
 4041              		.loc 1 1083 0
 4042              		.cfi_startproc
 4043              		@ args = 0, pretend = 0, frame = 8
 4044              		@ frame_needed = 1, uses_anonymous_args = 0
 4045              		@ link register save eliminated.
 4046 0000 80B4     		push	{r7}
 4047              		.cfi_def_cfa_offset 4
 4048              		.cfi_offset 7, -4
 4049 0002 83B0     		sub	sp, sp, #12
 4050              		.cfi_def_cfa_offset 16
 4051 0004 00AF     		add	r7, sp, #0
 4052              		.cfi_def_cfa_register 7
 4053 0006 7860     		str	r0, [r7, #4]
1084:u8glib_arm_v1.18.1\src/u8g_font.c ****   u8g->font_calc_vref = u8g_font_calc_vref_top;
 4054              		.loc 1 1084 0
 4055 0008 7B68     		ldr	r3, [r7, #4]
 4056 000a 034A     		ldr	r2, .L204
 4057 000c 5A62     		str	r2, [r3, #36]
1085:u8glib_arm_v1.18.1\src/u8g_font.c **** }
 4058              		.loc 1 1085 0
 4059 000e 0C37     		adds	r7, r7, #12
 4060              		.cfi_def_cfa_offset 4
 4061 0010 BD46     		mov	sp, r7
 4062              		.cfi_def_cfa_register 13
 4063              		@ sp needed
 4064 0012 5DF8047B 		ldr	r7, [sp], #4
 4065              		.cfi_restore 7
 4066              		.cfi_def_cfa_offset 0
 4067 0016 7047     		bx	lr
 4068              	.L205:
 4069              		.align	2
 4070              	.L204:
 4071 0018 00000000 		.word	u8g_font_calc_vref_top
 4072              		.cfi_endproc
 4073              	.LFE59:
 4074              		.size	u8g_SetFontPosTop, .-u8g_SetFontPosTop
 4075              		.section	.text.u8g_font_calc_vref_center,"ax",%progbits
 4076              		.align	2
 4077              		.global	u8g_font_calc_vref_center
 4078              		.thumb
 4079              		.thumb_func
 4080              		.type	u8g_font_calc_vref_center, %function
 4081              	u8g_font_calc_vref_center:
 4082              	.LFB60:
ARM GAS  C:\Users\KJA\AppData\Local\Temp\ccevgiJT.s 			page 92


1086:u8glib_arm_v1.18.1\src/u8g_font.c **** 
1087:u8glib_arm_v1.18.1\src/u8g_font.c **** u8g_uint_t u8g_font_calc_vref_center(u8g_t *u8g)
1088:u8glib_arm_v1.18.1\src/u8g_font.c **** {
 4083              		.loc 1 1088 0
 4084              		.cfi_startproc
 4085              		@ args = 0, pretend = 0, frame = 16
 4086              		@ frame_needed = 1, uses_anonymous_args = 0
 4087              		@ link register save eliminated.
 4088 0000 80B4     		push	{r7}
 4089              		.cfi_def_cfa_offset 4
 4090              		.cfi_offset 7, -4
 4091 0002 85B0     		sub	sp, sp, #20
 4092              		.cfi_def_cfa_offset 24
 4093 0004 00AF     		add	r7, sp, #0
 4094              		.cfi_def_cfa_register 7
 4095 0006 7860     		str	r0, [r7, #4]
1089:u8glib_arm_v1.18.1\src/u8g_font.c ****   int8_t tmp;
1090:u8glib_arm_v1.18.1\src/u8g_font.c ****   tmp = u8g->font_ref_ascent;
 4096              		.loc 1 1090 0
 4097 0008 7B68     		ldr	r3, [r7, #4]
 4098 000a 93F82930 		ldrb	r3, [r3, #41]
 4099 000e FB73     		strb	r3, [r7, #15]
1091:u8glib_arm_v1.18.1\src/u8g_font.c ****   tmp -= u8g->font_ref_descent;
 4100              		.loc 1 1091 0
 4101 0010 FA7B     		ldrb	r2, [r7, #15]	@ zero_extendqisi2
 4102 0012 7B68     		ldr	r3, [r7, #4]
 4103 0014 93F82A30 		ldrb	r3, [r3, #42]	@ zero_extendqisi2
 4104 0018 DBB2     		uxtb	r3, r3
 4105 001a D31A     		subs	r3, r2, r3
 4106 001c DBB2     		uxtb	r3, r3
 4107 001e FB73     		strb	r3, [r7, #15]
1092:u8glib_arm_v1.18.1\src/u8g_font.c ****   tmp /= 2;
 4108              		.loc 1 1092 0
 4109 0020 97F90F30 		ldrsb	r3, [r7, #15]
 4110 0024 DA0F     		lsrs	r2, r3, #31
 4111 0026 1344     		add	r3, r3, r2
 4112 0028 5B10     		asrs	r3, r3, #1
 4113 002a FB73     		strb	r3, [r7, #15]
1093:u8glib_arm_v1.18.1\src/u8g_font.c ****   tmp += u8g->font_ref_descent;  
 4114              		.loc 1 1093 0
 4115 002c 7B68     		ldr	r3, [r7, #4]
 4116 002e 93F82A30 		ldrb	r3, [r3, #42]	@ zero_extendqisi2
 4117 0032 DAB2     		uxtb	r2, r3
 4118 0034 FB7B     		ldrb	r3, [r7, #15]	@ zero_extendqisi2
 4119 0036 1344     		add	r3, r3, r2
 4120 0038 DBB2     		uxtb	r3, r3
 4121 003a FB73     		strb	r3, [r7, #15]
1094:u8glib_arm_v1.18.1\src/u8g_font.c ****   /* y += (u8g_uint_t)(u8g_int_t)(tmp); */
1095:u8glib_arm_v1.18.1\src/u8g_font.c ****   return tmp;
 4122              		.loc 1 1095 0
 4123 003c FB7B     		ldrb	r3, [r7, #15]	@ zero_extendqisi2
1096:u8glib_arm_v1.18.1\src/u8g_font.c **** }
 4124              		.loc 1 1096 0
 4125 003e 1846     		mov	r0, r3
 4126 0040 1437     		adds	r7, r7, #20
 4127              		.cfi_def_cfa_offset 4
 4128 0042 BD46     		mov	sp, r7
ARM GAS  C:\Users\KJA\AppData\Local\Temp\ccevgiJT.s 			page 93


 4129              		.cfi_def_cfa_register 13
 4130              		@ sp needed
 4131 0044 5DF8047B 		ldr	r7, [sp], #4
 4132              		.cfi_restore 7
 4133              		.cfi_def_cfa_offset 0
 4134 0048 7047     		bx	lr
 4135              		.cfi_endproc
 4136              	.LFE60:
 4137              		.size	u8g_font_calc_vref_center, .-u8g_font_calc_vref_center
 4138 004a 00BF     		.section	.text.u8g_SetFontPosCenter,"ax",%progbits
 4139              		.align	2
 4140              		.global	u8g_SetFontPosCenter
 4141              		.thumb
 4142              		.thumb_func
 4143              		.type	u8g_SetFontPosCenter, %function
 4144              	u8g_SetFontPosCenter:
 4145              	.LFB61:
1097:u8glib_arm_v1.18.1\src/u8g_font.c **** 
1098:u8glib_arm_v1.18.1\src/u8g_font.c **** void u8g_SetFontPosCenter(u8g_t *u8g)
1099:u8glib_arm_v1.18.1\src/u8g_font.c **** {
 4146              		.loc 1 1099 0
 4147              		.cfi_startproc
 4148              		@ args = 0, pretend = 0, frame = 8
 4149              		@ frame_needed = 1, uses_anonymous_args = 0
 4150              		@ link register save eliminated.
 4151 0000 80B4     		push	{r7}
 4152              		.cfi_def_cfa_offset 4
 4153              		.cfi_offset 7, -4
 4154 0002 83B0     		sub	sp, sp, #12
 4155              		.cfi_def_cfa_offset 16
 4156 0004 00AF     		add	r7, sp, #0
 4157              		.cfi_def_cfa_register 7
 4158 0006 7860     		str	r0, [r7, #4]
1100:u8glib_arm_v1.18.1\src/u8g_font.c ****   u8g->font_calc_vref = u8g_font_calc_vref_center;
 4159              		.loc 1 1100 0
 4160 0008 7B68     		ldr	r3, [r7, #4]
 4161 000a 034A     		ldr	r2, .L209
 4162 000c 5A62     		str	r2, [r3, #36]
1101:u8glib_arm_v1.18.1\src/u8g_font.c **** }
 4163              		.loc 1 1101 0
 4164 000e 0C37     		adds	r7, r7, #12
 4165              		.cfi_def_cfa_offset 4
 4166 0010 BD46     		mov	sp, r7
 4167              		.cfi_def_cfa_register 13
 4168              		@ sp needed
 4169 0012 5DF8047B 		ldr	r7, [sp], #4
 4170              		.cfi_restore 7
 4171              		.cfi_def_cfa_offset 0
 4172 0016 7047     		bx	lr
 4173              	.L210:
 4174              		.align	2
 4175              	.L209:
 4176 0018 00000000 		.word	u8g_font_calc_vref_center
 4177              		.cfi_endproc
 4178              	.LFE61:
 4179              		.size	u8g_SetFontPosCenter, .-u8g_SetFontPosCenter
 4180              		.section	.text.u8g_font_get_char,"ax",%progbits
ARM GAS  C:\Users\KJA\AppData\Local\Temp\ccevgiJT.s 			page 94


 4181              		.align	2
 4182              		.global	u8g_font_get_char
 4183              		.thumb
 4184              		.thumb_func
 4185              		.type	u8g_font_get_char, %function
 4186              	u8g_font_get_char:
 4187              	.LFB62:
1102:u8glib_arm_v1.18.1\src/u8g_font.c **** 
1103:u8glib_arm_v1.18.1\src/u8g_font.c **** /*========================================================================*/
1104:u8glib_arm_v1.18.1\src/u8g_font.c **** /* string pixel width calculation */
1105:u8glib_arm_v1.18.1\src/u8g_font.c **** 
1106:u8glib_arm_v1.18.1\src/u8g_font.c **** char u8g_font_get_char(const void *s)
1107:u8glib_arm_v1.18.1\src/u8g_font.c **** {
 4188              		.loc 1 1107 0
 4189              		.cfi_startproc
 4190              		@ args = 0, pretend = 0, frame = 8
 4191              		@ frame_needed = 1, uses_anonymous_args = 0
 4192              		@ link register save eliminated.
 4193 0000 80B4     		push	{r7}
 4194              		.cfi_def_cfa_offset 4
 4195              		.cfi_offset 7, -4
 4196 0002 83B0     		sub	sp, sp, #12
 4197              		.cfi_def_cfa_offset 16
 4198 0004 00AF     		add	r7, sp, #0
 4199              		.cfi_def_cfa_register 7
 4200 0006 7860     		str	r0, [r7, #4]
1108:u8glib_arm_v1.18.1\src/u8g_font.c ****   return *(const char *)(s);
 4201              		.loc 1 1108 0
 4202 0008 7B68     		ldr	r3, [r7, #4]
 4203 000a 1B78     		ldrb	r3, [r3]	@ zero_extendqisi2
1109:u8glib_arm_v1.18.1\src/u8g_font.c **** }
 4204              		.loc 1 1109 0
 4205 000c 1846     		mov	r0, r3
 4206 000e 0C37     		adds	r7, r7, #12
 4207              		.cfi_def_cfa_offset 4
 4208 0010 BD46     		mov	sp, r7
 4209              		.cfi_def_cfa_register 13
 4210              		@ sp needed
 4211 0012 5DF8047B 		ldr	r7, [sp], #4
 4212              		.cfi_restore 7
 4213              		.cfi_def_cfa_offset 0
 4214 0016 7047     		bx	lr
 4215              		.cfi_endproc
 4216              	.LFE62:
 4217              		.size	u8g_font_get_char, .-u8g_font_get_char
 4218              		.section	.text.u8g_font_get_charP,"ax",%progbits
 4219              		.align	2
 4220              		.global	u8g_font_get_charP
 4221              		.thumb
 4222              		.thumb_func
 4223              		.type	u8g_font_get_charP, %function
 4224              	u8g_font_get_charP:
 4225              	.LFB63:
1110:u8glib_arm_v1.18.1\src/u8g_font.c **** 
1111:u8glib_arm_v1.18.1\src/u8g_font.c **** char u8g_font_get_charP(const void *s)
1112:u8glib_arm_v1.18.1\src/u8g_font.c **** {
 4226              		.loc 1 1112 0
ARM GAS  C:\Users\KJA\AppData\Local\Temp\ccevgiJT.s 			page 95


 4227              		.cfi_startproc
 4228              		@ args = 0, pretend = 0, frame = 8
 4229              		@ frame_needed = 1, uses_anonymous_args = 0
 4230              		@ link register save eliminated.
 4231 0000 80B4     		push	{r7}
 4232              		.cfi_def_cfa_offset 4
 4233              		.cfi_offset 7, -4
 4234 0002 83B0     		sub	sp, sp, #12
 4235              		.cfi_def_cfa_offset 16
 4236 0004 00AF     		add	r7, sp, #0
 4237              		.cfi_def_cfa_register 7
 4238 0006 7860     		str	r0, [r7, #4]
1113:u8glib_arm_v1.18.1\src/u8g_font.c ****   return u8g_pgm_read(s);
 4239              		.loc 1 1113 0
 4240 0008 7B68     		ldr	r3, [r7, #4]
 4241 000a 1B78     		ldrb	r3, [r3]	@ zero_extendqisi2
1114:u8glib_arm_v1.18.1\src/u8g_font.c **** }
 4242              		.loc 1 1114 0
 4243 000c 1846     		mov	r0, r3
 4244 000e 0C37     		adds	r7, r7, #12
 4245              		.cfi_def_cfa_offset 4
 4246 0010 BD46     		mov	sp, r7
 4247              		.cfi_def_cfa_register 13
 4248              		@ sp needed
 4249 0012 5DF8047B 		ldr	r7, [sp], #4
 4250              		.cfi_restore 7
 4251              		.cfi_def_cfa_offset 0
 4252 0016 7047     		bx	lr
 4253              		.cfi_endproc
 4254              	.LFE63:
 4255              		.size	u8g_font_get_charP, .-u8g_font_get_charP
 4256              		.section	.text.u8g_font_calc_str_pixel_width,"ax",%progbits
 4257              		.align	2
 4258              		.global	u8g_font_calc_str_pixel_width
 4259              		.thumb
 4260              		.thumb_func
 4261              		.type	u8g_font_calc_str_pixel_width, %function
 4262              	u8g_font_calc_str_pixel_width:
 4263              	.LFB64:
1115:u8glib_arm_v1.18.1\src/u8g_font.c **** 
1116:u8glib_arm_v1.18.1\src/u8g_font.c **** typedef char (*u8g_font_get_char_fn)(const void *s);
1117:u8glib_arm_v1.18.1\src/u8g_font.c **** 
1118:u8glib_arm_v1.18.1\src/u8g_font.c **** 
1119:u8glib_arm_v1.18.1\src/u8g_font.c **** u8g_uint_t u8g_font_calc_str_pixel_width(u8g_t *u8g, const char *s, u8g_font_get_char_fn get_char )
1120:u8glib_arm_v1.18.1\src/u8g_font.c **** {
 4264              		.loc 1 1120 0
 4265              		.cfi_startproc
 4266              		@ args = 0, pretend = 0, frame = 24
 4267              		@ frame_needed = 1, uses_anonymous_args = 0
 4268 0000 80B5     		push	{r7, lr}
 4269              		.cfi_def_cfa_offset 8
 4270              		.cfi_offset 7, -8
 4271              		.cfi_offset 14, -4
 4272 0002 86B0     		sub	sp, sp, #24
 4273              		.cfi_def_cfa_offset 32
 4274 0004 00AF     		add	r7, sp, #0
 4275              		.cfi_def_cfa_register 7
ARM GAS  C:\Users\KJA\AppData\Local\Temp\ccevgiJT.s 			page 96


 4276 0006 F860     		str	r0, [r7, #12]
 4277 0008 B960     		str	r1, [r7, #8]
 4278 000a 7A60     		str	r2, [r7, #4]
1121:u8glib_arm_v1.18.1\src/u8g_font.c ****   u8g_uint_t  w;
1122:u8glib_arm_v1.18.1\src/u8g_font.c ****   uint8_t enc;
1123:u8glib_arm_v1.18.1\src/u8g_font.c ****   
1124:u8glib_arm_v1.18.1\src/u8g_font.c ****   /* reset the total minimal width to zero, this will be expanded during calculation */
1125:u8glib_arm_v1.18.1\src/u8g_font.c ****   w = 0;
 4279              		.loc 1 1125 0
 4280 000c 0023     		movs	r3, #0
 4281 000e FB75     		strb	r3, [r7, #23]
1126:u8glib_arm_v1.18.1\src/u8g_font.c ****     
1127:u8glib_arm_v1.18.1\src/u8g_font.c ****   enc = get_char(s);
 4282              		.loc 1 1127 0
 4283 0010 7B68     		ldr	r3, [r7, #4]
 4284 0012 B868     		ldr	r0, [r7, #8]
 4285 0014 9847     		blx	r3
 4286 0016 0346     		mov	r3, r0
 4287 0018 BB75     		strb	r3, [r7, #22]
1128:u8glib_arm_v1.18.1\src/u8g_font.c ****   
1129:u8glib_arm_v1.18.1\src/u8g_font.c ****   /* check for empty string, width is already 0 */
1130:u8glib_arm_v1.18.1\src/u8g_font.c ****   if ( enc == '\0' )
 4288              		.loc 1 1130 0
 4289 001a BB7D     		ldrb	r3, [r7, #22]	@ zero_extendqisi2
 4290 001c 002B     		cmp	r3, #0
 4291 001e 01D1     		bne	.L216
1131:u8glib_arm_v1.18.1\src/u8g_font.c ****   {
1132:u8glib_arm_v1.18.1\src/u8g_font.c ****     return w;
 4292              		.loc 1 1132 0
 4293 0020 FB7D     		ldrb	r3, [r7, #23]	@ zero_extendqisi2
 4294 0022 3BE0     		b	.L217
 4295              	.L216:
1133:u8glib_arm_v1.18.1\src/u8g_font.c ****   }
1134:u8glib_arm_v1.18.1\src/u8g_font.c ****   
1135:u8glib_arm_v1.18.1\src/u8g_font.c ****   /* get the glyph information of the first char. This must be valid, because we already checked fo
1136:u8glib_arm_v1.18.1\src/u8g_font.c ****   /* if *s is not inside the font, then the cached parameters of the glyph are all zero */
1137:u8glib_arm_v1.18.1\src/u8g_font.c ****   u8g_GetGlyph(u8g, enc);
 4296              		.loc 1 1137 0
 4297 0024 BB7D     		ldrb	r3, [r7, #22]	@ zero_extendqisi2
 4298 0026 F868     		ldr	r0, [r7, #12]
 4299 0028 1946     		mov	r1, r3
 4300 002a FFF7FEFF 		bl	u8g_GetGlyph
1138:u8glib_arm_v1.18.1\src/u8g_font.c **** 
1139:u8glib_arm_v1.18.1\src/u8g_font.c ****   /* strlen(s) == 1:       width = width(s[0]) */
1140:u8glib_arm_v1.18.1\src/u8g_font.c ****   /* strlen(s) == 2:       width = - offx(s[0]) + deltax(s[0]) + offx(s[1]) + width(s[1]) */
1141:u8glib_arm_v1.18.1\src/u8g_font.c ****   /* strlen(s) == 3:       width = - offx(s[0]) + deltax(s[0]) + deltax(s[1]) + offx(s[2]) + width(
1142:u8glib_arm_v1.18.1\src/u8g_font.c ****   
1143:u8glib_arm_v1.18.1\src/u8g_font.c ****   /* assume that the string has size 2 or more, than start with negative offset-x */
1144:u8glib_arm_v1.18.1\src/u8g_font.c ****   /* for string with size 1, this will be nullified after the loop */
1145:u8glib_arm_v1.18.1\src/u8g_font.c ****   w = -u8g->glyph_x;  
 4301              		.loc 1 1145 0
 4302 002e FB68     		ldr	r3, [r7, #12]
 4303 0030 5B7F     		ldrb	r3, [r3, #29]	@ zero_extendqisi2
 4304 0032 DBB2     		uxtb	r3, r3
 4305 0034 5B42     		negs	r3, r3
 4306 0036 FB75     		strb	r3, [r7, #23]
 4307              	.L220:
ARM GAS  C:\Users\KJA\AppData\Local\Temp\ccevgiJT.s 			page 97


1146:u8glib_arm_v1.18.1\src/u8g_font.c ****   for(;;)
1147:u8glib_arm_v1.18.1\src/u8g_font.c ****   {
1148:u8glib_arm_v1.18.1\src/u8g_font.c ****     
1149:u8glib_arm_v1.18.1\src/u8g_font.c ****     /* check and stop if the end of the string is reached */
1150:u8glib_arm_v1.18.1\src/u8g_font.c ****     s++;
 4308              		.loc 1 1150 0
 4309 0038 BB68     		ldr	r3, [r7, #8]
 4310 003a 0133     		adds	r3, r3, #1
 4311 003c BB60     		str	r3, [r7, #8]
1151:u8glib_arm_v1.18.1\src/u8g_font.c ****     if ( get_char(s) == '\0' )
 4312              		.loc 1 1151 0
 4313 003e 7B68     		ldr	r3, [r7, #4]
 4314 0040 B868     		ldr	r0, [r7, #8]
 4315 0042 9847     		blx	r3
 4316 0044 0346     		mov	r3, r0
 4317 0046 002B     		cmp	r3, #0
 4318 0048 04D1     		bne	.L218
1152:u8glib_arm_v1.18.1\src/u8g_font.c ****       break;
 4319              		.loc 1 1152 0
 4320 004a 00BF     		nop
1153:u8glib_arm_v1.18.1\src/u8g_font.c ****     
1154:u8glib_arm_v1.18.1\src/u8g_font.c ****     /* if there are still more characters, add the delta to the next glyph */
1155:u8glib_arm_v1.18.1\src/u8g_font.c ****     w += u8g->glyph_dx;
1156:u8glib_arm_v1.18.1\src/u8g_font.c ****     
1157:u8glib_arm_v1.18.1\src/u8g_font.c ****     /* store the encoding in a local variable, used also after the for(;;) loop */
1158:u8glib_arm_v1.18.1\src/u8g_font.c ****     enc = get_char(s);
1159:u8glib_arm_v1.18.1\src/u8g_font.c ****     
1160:u8glib_arm_v1.18.1\src/u8g_font.c ****     /* load the next glyph information */
1161:u8glib_arm_v1.18.1\src/u8g_font.c ****     u8g_GetGlyph(u8g, enc);
1162:u8glib_arm_v1.18.1\src/u8g_font.c ****   }
1163:u8glib_arm_v1.18.1\src/u8g_font.c ****   
1164:u8glib_arm_v1.18.1\src/u8g_font.c ****   /* finally calculate the width of the last char */
1165:u8glib_arm_v1.18.1\src/u8g_font.c ****   /* here is another exception, if the last char is a black, use the dx value instead */
1166:u8glib_arm_v1.18.1\src/u8g_font.c ****   if ( enc != ' ' )
 4321              		.loc 1 1166 0
 4322 004c BB7D     		ldrb	r3, [r7, #22]	@ zero_extendqisi2
 4323 004e 202B     		cmp	r3, #32
 4324 0050 1DD0     		beq	.L221
 4325 0052 10E0     		b	.L223
 4326              	.L218:
1155:u8glib_arm_v1.18.1\src/u8g_font.c ****     
 4327              		.loc 1 1155 0
 4328 0054 FB68     		ldr	r3, [r7, #12]
 4329 0056 1B7F     		ldrb	r3, [r3, #28]	@ zero_extendqisi2
 4330 0058 DAB2     		uxtb	r2, r3
 4331 005a FB7D     		ldrb	r3, [r7, #23]
 4332 005c 1344     		add	r3, r3, r2
 4333 005e FB75     		strb	r3, [r7, #23]
1158:u8glib_arm_v1.18.1\src/u8g_font.c ****     
 4334              		.loc 1 1158 0
 4335 0060 7B68     		ldr	r3, [r7, #4]
 4336 0062 B868     		ldr	r0, [r7, #8]
 4337 0064 9847     		blx	r3
 4338 0066 0346     		mov	r3, r0
 4339 0068 BB75     		strb	r3, [r7, #22]
1161:u8glib_arm_v1.18.1\src/u8g_font.c ****   }
 4340              		.loc 1 1161 0
ARM GAS  C:\Users\KJA\AppData\Local\Temp\ccevgiJT.s 			page 98


 4341 006a BB7D     		ldrb	r3, [r7, #22]	@ zero_extendqisi2
 4342 006c F868     		ldr	r0, [r7, #12]
 4343 006e 1946     		mov	r1, r3
 4344 0070 FFF7FEFF 		bl	u8g_GetGlyph
1162:u8glib_arm_v1.18.1\src/u8g_font.c ****   
 4345              		.loc 1 1162 0
 4346 0074 E0E7     		b	.L220
 4347              	.L223:
1167:u8glib_arm_v1.18.1\src/u8g_font.c ****   {
1168:u8glib_arm_v1.18.1\src/u8g_font.c ****     /* if g was not updated in the for loop (strlen() == 1), then the initial offset x gets removed
1169:u8glib_arm_v1.18.1\src/u8g_font.c ****     w += u8g->glyph_width;
 4348              		.loc 1 1169 0
 4349 0076 FB68     		ldr	r3, [r7, #12]
 4350 0078 DA7F     		ldrb	r2, [r3, #31]	@ zero_extendqisi2
 4351 007a FB7D     		ldrb	r3, [r7, #23]
 4352 007c 1344     		add	r3, r3, r2
 4353 007e FB75     		strb	r3, [r7, #23]
1170:u8glib_arm_v1.18.1\src/u8g_font.c ****     w += u8g->glyph_x;
 4354              		.loc 1 1170 0
 4355 0080 FB68     		ldr	r3, [r7, #12]
 4356 0082 5B7F     		ldrb	r3, [r3, #29]	@ zero_extendqisi2
 4357 0084 DAB2     		uxtb	r2, r3
 4358 0086 FB7D     		ldrb	r3, [r7, #23]
 4359 0088 1344     		add	r3, r3, r2
 4360 008a FB75     		strb	r3, [r7, #23]
 4361 008c 05E0     		b	.L222
 4362              	.L221:
1171:u8glib_arm_v1.18.1\src/u8g_font.c ****   }
1172:u8glib_arm_v1.18.1\src/u8g_font.c ****   else
1173:u8glib_arm_v1.18.1\src/u8g_font.c ****   {
1174:u8glib_arm_v1.18.1\src/u8g_font.c ****     w += u8g->glyph_dx;
 4363              		.loc 1 1174 0
 4364 008e FB68     		ldr	r3, [r7, #12]
 4365 0090 1B7F     		ldrb	r3, [r3, #28]	@ zero_extendqisi2
 4366 0092 DAB2     		uxtb	r2, r3
 4367 0094 FB7D     		ldrb	r3, [r7, #23]
 4368 0096 1344     		add	r3, r3, r2
 4369 0098 FB75     		strb	r3, [r7, #23]
 4370              	.L222:
1175:u8glib_arm_v1.18.1\src/u8g_font.c ****   }
1176:u8glib_arm_v1.18.1\src/u8g_font.c ****   
1177:u8glib_arm_v1.18.1\src/u8g_font.c ****   
1178:u8glib_arm_v1.18.1\src/u8g_font.c ****   return w;
 4371              		.loc 1 1178 0
 4372 009a FB7D     		ldrb	r3, [r7, #23]	@ zero_extendqisi2
 4373              	.L217:
1179:u8glib_arm_v1.18.1\src/u8g_font.c **** }
 4374              		.loc 1 1179 0
 4375 009c 1846     		mov	r0, r3
 4376 009e 1837     		adds	r7, r7, #24
 4377              		.cfi_def_cfa_offset 8
 4378 00a0 BD46     		mov	sp, r7
 4379              		.cfi_def_cfa_register 13
 4380              		@ sp needed
 4381 00a2 80BD     		pop	{r7, pc}
 4382              		.cfi_endproc
 4383              	.LFE64:
ARM GAS  C:\Users\KJA\AppData\Local\Temp\ccevgiJT.s 			page 99


 4384              		.size	u8g_font_calc_str_pixel_width, .-u8g_font_calc_str_pixel_width
 4385              		.section	.text.u8g_GetStrPixelWidth,"ax",%progbits
 4386              		.align	2
 4387              		.global	u8g_GetStrPixelWidth
 4388              		.thumb
 4389              		.thumb_func
 4390              		.type	u8g_GetStrPixelWidth, %function
 4391              	u8g_GetStrPixelWidth:
 4392              	.LFB65:
1180:u8glib_arm_v1.18.1\src/u8g_font.c **** 
1181:u8glib_arm_v1.18.1\src/u8g_font.c **** u8g_uint_t u8g_GetStrPixelWidth(u8g_t *u8g, const char *s)
1182:u8glib_arm_v1.18.1\src/u8g_font.c **** {
 4393              		.loc 1 1182 0
 4394              		.cfi_startproc
 4395              		@ args = 0, pretend = 0, frame = 8
 4396              		@ frame_needed = 1, uses_anonymous_args = 0
 4397 0000 80B5     		push	{r7, lr}
 4398              		.cfi_def_cfa_offset 8
 4399              		.cfi_offset 7, -8
 4400              		.cfi_offset 14, -4
 4401 0002 82B0     		sub	sp, sp, #8
 4402              		.cfi_def_cfa_offset 16
 4403 0004 00AF     		add	r7, sp, #0
 4404              		.cfi_def_cfa_register 7
 4405 0006 7860     		str	r0, [r7, #4]
 4406 0008 3960     		str	r1, [r7]
1183:u8glib_arm_v1.18.1\src/u8g_font.c ****   return u8g_font_calc_str_pixel_width(u8g, s, u8g_font_get_char);
 4407              		.loc 1 1183 0
 4408 000a 7868     		ldr	r0, [r7, #4]
 4409 000c 3968     		ldr	r1, [r7]
 4410 000e 044A     		ldr	r2, .L226
 4411 0010 FFF7FEFF 		bl	u8g_font_calc_str_pixel_width
 4412 0014 0346     		mov	r3, r0
1184:u8glib_arm_v1.18.1\src/u8g_font.c **** }
 4413              		.loc 1 1184 0
 4414 0016 1846     		mov	r0, r3
 4415 0018 0837     		adds	r7, r7, #8
 4416              		.cfi_def_cfa_offset 8
 4417 001a BD46     		mov	sp, r7
 4418              		.cfi_def_cfa_register 13
 4419              		@ sp needed
 4420 001c 80BD     		pop	{r7, pc}
 4421              	.L227:
 4422 001e 00BF     		.align	2
 4423              	.L226:
 4424 0020 00000000 		.word	u8g_font_get_char
 4425              		.cfi_endproc
 4426              	.LFE65:
 4427              		.size	u8g_GetStrPixelWidth, .-u8g_GetStrPixelWidth
 4428              		.section	.text.u8g_GetStrPixelWidthP,"ax",%progbits
 4429              		.align	2
 4430              		.global	u8g_GetStrPixelWidthP
 4431              		.thumb
 4432              		.thumb_func
 4433              		.type	u8g_GetStrPixelWidthP, %function
 4434              	u8g_GetStrPixelWidthP:
 4435              	.LFB66:
ARM GAS  C:\Users\KJA\AppData\Local\Temp\ccevgiJT.s 			page 100


1185:u8glib_arm_v1.18.1\src/u8g_font.c **** 
1186:u8glib_arm_v1.18.1\src/u8g_font.c **** u8g_uint_t u8g_GetStrPixelWidthP(u8g_t *u8g, const u8g_pgm_uint8_t *s)
1187:u8glib_arm_v1.18.1\src/u8g_font.c **** {
 4436              		.loc 1 1187 0
 4437              		.cfi_startproc
 4438              		@ args = 0, pretend = 0, frame = 8
 4439              		@ frame_needed = 1, uses_anonymous_args = 0
 4440 0000 80B5     		push	{r7, lr}
 4441              		.cfi_def_cfa_offset 8
 4442              		.cfi_offset 7, -8
 4443              		.cfi_offset 14, -4
 4444 0002 82B0     		sub	sp, sp, #8
 4445              		.cfi_def_cfa_offset 16
 4446 0004 00AF     		add	r7, sp, #0
 4447              		.cfi_def_cfa_register 7
 4448 0006 7860     		str	r0, [r7, #4]
 4449 0008 3960     		str	r1, [r7]
1188:u8glib_arm_v1.18.1\src/u8g_font.c ****   return u8g_font_calc_str_pixel_width(u8g, (const char *)s, u8g_font_get_charP);
 4450              		.loc 1 1188 0
 4451 000a 7868     		ldr	r0, [r7, #4]
 4452 000c 3968     		ldr	r1, [r7]
 4453 000e 044A     		ldr	r2, .L230
 4454 0010 FFF7FEFF 		bl	u8g_font_calc_str_pixel_width
 4455 0014 0346     		mov	r3, r0
1189:u8glib_arm_v1.18.1\src/u8g_font.c **** }
 4456              		.loc 1 1189 0
 4457 0016 1846     		mov	r0, r3
 4458 0018 0837     		adds	r7, r7, #8
 4459              		.cfi_def_cfa_offset 8
 4460 001a BD46     		mov	sp, r7
 4461              		.cfi_def_cfa_register 13
 4462              		@ sp needed
 4463 001c 80BD     		pop	{r7, pc}
 4464              	.L231:
 4465 001e 00BF     		.align	2
 4466              	.L230:
 4467 0020 00000000 		.word	u8g_font_get_charP
 4468              		.cfi_endproc
 4469              	.LFE66:
 4470              		.size	u8g_GetStrPixelWidthP, .-u8g_GetStrPixelWidthP
 4471              		.section	.text.u8g_GetStrX,"ax",%progbits
 4472              		.align	2
 4473              		.global	u8g_GetStrX
 4474              		.thumb
 4475              		.thumb_func
 4476              		.type	u8g_GetStrX, %function
 4477              	u8g_GetStrX:
 4478              	.LFB67:
1190:u8glib_arm_v1.18.1\src/u8g_font.c **** 
1191:u8glib_arm_v1.18.1\src/u8g_font.c **** int8_t u8g_GetStrX(u8g_t *u8g, const char *s)
1192:u8glib_arm_v1.18.1\src/u8g_font.c **** {
 4479              		.loc 1 1192 0
 4480              		.cfi_startproc
 4481              		@ args = 0, pretend = 0, frame = 8
 4482              		@ frame_needed = 1, uses_anonymous_args = 0
 4483 0000 80B5     		push	{r7, lr}
 4484              		.cfi_def_cfa_offset 8
ARM GAS  C:\Users\KJA\AppData\Local\Temp\ccevgiJT.s 			page 101


 4485              		.cfi_offset 7, -8
 4486              		.cfi_offset 14, -4
 4487 0002 82B0     		sub	sp, sp, #8
 4488              		.cfi_def_cfa_offset 16
 4489 0004 00AF     		add	r7, sp, #0
 4490              		.cfi_def_cfa_register 7
 4491 0006 7860     		str	r0, [r7, #4]
 4492 0008 3960     		str	r1, [r7]
1193:u8glib_arm_v1.18.1\src/u8g_font.c ****   u8g_GetGlyph(u8g, *s);
 4493              		.loc 1 1193 0
 4494 000a 3B68     		ldr	r3, [r7]
 4495 000c 1B78     		ldrb	r3, [r3]	@ zero_extendqisi2
 4496 000e 7868     		ldr	r0, [r7, #4]
 4497 0010 1946     		mov	r1, r3
 4498 0012 FFF7FEFF 		bl	u8g_GetGlyph
1194:u8glib_arm_v1.18.1\src/u8g_font.c ****   return u8g->glyph_x;  
 4499              		.loc 1 1194 0
 4500 0016 7B68     		ldr	r3, [r7, #4]
 4501 0018 5B7F     		ldrb	r3, [r3, #29]	@ zero_extendqisi2
 4502 001a 5BB2     		sxtb	r3, r3
1195:u8glib_arm_v1.18.1\src/u8g_font.c **** }
 4503              		.loc 1 1195 0
 4504 001c 1846     		mov	r0, r3
 4505 001e 0837     		adds	r7, r7, #8
 4506              		.cfi_def_cfa_offset 8
 4507 0020 BD46     		mov	sp, r7
 4508              		.cfi_def_cfa_register 13
 4509              		@ sp needed
 4510 0022 80BD     		pop	{r7, pc}
 4511              		.cfi_endproc
 4512              	.LFE67:
 4513              		.size	u8g_GetStrX, .-u8g_GetStrX
 4514              		.section	.text.u8g_GetStrXP,"ax",%progbits
 4515              		.align	2
 4516              		.global	u8g_GetStrXP
 4517              		.thumb
 4518              		.thumb_func
 4519              		.type	u8g_GetStrXP, %function
 4520              	u8g_GetStrXP:
 4521              	.LFB68:
1196:u8glib_arm_v1.18.1\src/u8g_font.c **** 
1197:u8glib_arm_v1.18.1\src/u8g_font.c **** int8_t u8g_GetStrXP(u8g_t *u8g, const u8g_pgm_uint8_t *s)
1198:u8glib_arm_v1.18.1\src/u8g_font.c **** {
 4522              		.loc 1 1198 0
 4523              		.cfi_startproc
 4524              		@ args = 0, pretend = 0, frame = 8
 4525              		@ frame_needed = 1, uses_anonymous_args = 0
 4526 0000 80B5     		push	{r7, lr}
 4527              		.cfi_def_cfa_offset 8
 4528              		.cfi_offset 7, -8
 4529              		.cfi_offset 14, -4
 4530 0002 82B0     		sub	sp, sp, #8
 4531              		.cfi_def_cfa_offset 16
 4532 0004 00AF     		add	r7, sp, #0
 4533              		.cfi_def_cfa_register 7
 4534 0006 7860     		str	r0, [r7, #4]
 4535 0008 3960     		str	r1, [r7]
ARM GAS  C:\Users\KJA\AppData\Local\Temp\ccevgiJT.s 			page 102


1199:u8glib_arm_v1.18.1\src/u8g_font.c ****   u8g_GetGlyph(u8g, u8g_pgm_read(s));
 4536              		.loc 1 1199 0
 4537 000a 3B68     		ldr	r3, [r7]
 4538 000c 1B78     		ldrb	r3, [r3]	@ zero_extendqisi2
 4539 000e 7868     		ldr	r0, [r7, #4]
 4540 0010 1946     		mov	r1, r3
 4541 0012 FFF7FEFF 		bl	u8g_GetGlyph
1200:u8glib_arm_v1.18.1\src/u8g_font.c ****   return u8g->glyph_x;  
 4542              		.loc 1 1200 0
 4543 0016 7B68     		ldr	r3, [r7, #4]
 4544 0018 5B7F     		ldrb	r3, [r3, #29]	@ zero_extendqisi2
 4545 001a 5BB2     		sxtb	r3, r3
1201:u8glib_arm_v1.18.1\src/u8g_font.c **** }
 4546              		.loc 1 1201 0
 4547 001c 1846     		mov	r0, r3
 4548 001e 0837     		adds	r7, r7, #8
 4549              		.cfi_def_cfa_offset 8
 4550 0020 BD46     		mov	sp, r7
 4551              		.cfi_def_cfa_register 13
 4552              		@ sp needed
 4553 0022 80BD     		pop	{r7, pc}
 4554              		.cfi_endproc
 4555              	.LFE68:
 4556              		.size	u8g_GetStrXP, .-u8g_GetStrXP
 4557              		.section	.text.u8g_GetStrWidth,"ax",%progbits
 4558              		.align	2
 4559              		.global	u8g_GetStrWidth
 4560              		.thumb
 4561              		.thumb_func
 4562              		.type	u8g_GetStrWidth, %function
 4563              	u8g_GetStrWidth:
 4564              	.LFB69:
1202:u8glib_arm_v1.18.1\src/u8g_font.c **** 
1203:u8glib_arm_v1.18.1\src/u8g_font.c **** /*========================================================================*/
1204:u8glib_arm_v1.18.1\src/u8g_font.c **** /* string width calculation */
1205:u8glib_arm_v1.18.1\src/u8g_font.c **** 
1206:u8glib_arm_v1.18.1\src/u8g_font.c **** u8g_uint_t u8g_GetStrWidth(u8g_t *u8g, const char *s)
1207:u8glib_arm_v1.18.1\src/u8g_font.c **** {
 4565              		.loc 1 1207 0
 4566              		.cfi_startproc
 4567              		@ args = 0, pretend = 0, frame = 16
 4568              		@ frame_needed = 1, uses_anonymous_args = 0
 4569 0000 80B5     		push	{r7, lr}
 4570              		.cfi_def_cfa_offset 8
 4571              		.cfi_offset 7, -8
 4572              		.cfi_offset 14, -4
 4573 0002 84B0     		sub	sp, sp, #16
 4574              		.cfi_def_cfa_offset 24
 4575 0004 00AF     		add	r7, sp, #0
 4576              		.cfi_def_cfa_register 7
 4577 0006 7860     		str	r0, [r7, #4]
 4578 0008 3960     		str	r1, [r7]
1208:u8glib_arm_v1.18.1\src/u8g_font.c ****   u8g_uint_t  w;
1209:u8glib_arm_v1.18.1\src/u8g_font.c ****   uint8_t encoding;
1210:u8glib_arm_v1.18.1\src/u8g_font.c ****   
1211:u8glib_arm_v1.18.1\src/u8g_font.c ****   /* reset the total width to zero, this will be expanded during calculation */
1212:u8glib_arm_v1.18.1\src/u8g_font.c ****   w = 0;
ARM GAS  C:\Users\KJA\AppData\Local\Temp\ccevgiJT.s 			page 103


 4579              		.loc 1 1212 0
 4580 000a 0023     		movs	r3, #0
 4581 000c FB73     		strb	r3, [r7, #15]
 4582              	.L239:
1213:u8glib_arm_v1.18.1\src/u8g_font.c ****   
1214:u8glib_arm_v1.18.1\src/u8g_font.c ****   for(;;)
1215:u8glib_arm_v1.18.1\src/u8g_font.c ****   {
1216:u8glib_arm_v1.18.1\src/u8g_font.c ****     encoding = *s;
 4583              		.loc 1 1216 0
 4584 000e 3B68     		ldr	r3, [r7]
 4585 0010 1B78     		ldrb	r3, [r3]
 4586 0012 BB73     		strb	r3, [r7, #14]
1217:u8glib_arm_v1.18.1\src/u8g_font.c ****     if ( encoding == 0 )
 4587              		.loc 1 1217 0
 4588 0014 BB7B     		ldrb	r3, [r7, #14]	@ zero_extendqisi2
 4589 0016 002B     		cmp	r3, #0
 4590 0018 00D1     		bne	.L237
1218:u8glib_arm_v1.18.1\src/u8g_font.c ****       break;
 4591              		.loc 1 1218 0
 4592 001a 0EE0     		b	.L241
 4593              	.L237:
1219:u8glib_arm_v1.18.1\src/u8g_font.c **** 
1220:u8glib_arm_v1.18.1\src/u8g_font.c ****     /* load glyph information */
1221:u8glib_arm_v1.18.1\src/u8g_font.c ****     u8g_GetGlyph(u8g, encoding);
 4594              		.loc 1 1221 0
 4595 001c BB7B     		ldrb	r3, [r7, #14]	@ zero_extendqisi2
 4596 001e 7868     		ldr	r0, [r7, #4]
 4597 0020 1946     		mov	r1, r3
 4598 0022 FFF7FEFF 		bl	u8g_GetGlyph
1222:u8glib_arm_v1.18.1\src/u8g_font.c ****     w += u8g->glyph_dx;    
 4599              		.loc 1 1222 0
 4600 0026 7B68     		ldr	r3, [r7, #4]
 4601 0028 1B7F     		ldrb	r3, [r3, #28]	@ zero_extendqisi2
 4602 002a DAB2     		uxtb	r2, r3
 4603 002c FB7B     		ldrb	r3, [r7, #15]
 4604 002e 1344     		add	r3, r3, r2
 4605 0030 FB73     		strb	r3, [r7, #15]
1223:u8glib_arm_v1.18.1\src/u8g_font.c ****     
1224:u8glib_arm_v1.18.1\src/u8g_font.c ****     /* goto next char */
1225:u8glib_arm_v1.18.1\src/u8g_font.c ****     s++;
 4606              		.loc 1 1225 0
 4607 0032 3B68     		ldr	r3, [r7]
 4608 0034 0133     		adds	r3, r3, #1
 4609 0036 3B60     		str	r3, [r7]
1226:u8glib_arm_v1.18.1\src/u8g_font.c ****   }
 4610              		.loc 1 1226 0
 4611 0038 E9E7     		b	.L239
 4612              	.L241:
1227:u8glib_arm_v1.18.1\src/u8g_font.c ****   
1228:u8glib_arm_v1.18.1\src/u8g_font.c ****   return w;  
 4613              		.loc 1 1228 0
 4614 003a FB7B     		ldrb	r3, [r7, #15]	@ zero_extendqisi2
1229:u8glib_arm_v1.18.1\src/u8g_font.c **** }
 4615              		.loc 1 1229 0
 4616 003c 1846     		mov	r0, r3
 4617 003e 1037     		adds	r7, r7, #16
 4618              		.cfi_def_cfa_offset 8
ARM GAS  C:\Users\KJA\AppData\Local\Temp\ccevgiJT.s 			page 104


 4619 0040 BD46     		mov	sp, r7
 4620              		.cfi_def_cfa_register 13
 4621              		@ sp needed
 4622 0042 80BD     		pop	{r7, pc}
 4623              		.cfi_endproc
 4624              	.LFE69:
 4625              		.size	u8g_GetStrWidth, .-u8g_GetStrWidth
 4626              		.section	.text.u8g_GetStrWidthP,"ax",%progbits
 4627              		.align	2
 4628              		.global	u8g_GetStrWidthP
 4629              		.thumb
 4630              		.thumb_func
 4631              		.type	u8g_GetStrWidthP, %function
 4632              	u8g_GetStrWidthP:
 4633              	.LFB70:
1230:u8glib_arm_v1.18.1\src/u8g_font.c **** 
1231:u8glib_arm_v1.18.1\src/u8g_font.c **** 
1232:u8glib_arm_v1.18.1\src/u8g_font.c **** u8g_uint_t u8g_GetStrWidthP(u8g_t *u8g, const u8g_pgm_uint8_t *s)
1233:u8glib_arm_v1.18.1\src/u8g_font.c **** {
 4634              		.loc 1 1233 0
 4635              		.cfi_startproc
 4636              		@ args = 0, pretend = 0, frame = 16
 4637              		@ frame_needed = 1, uses_anonymous_args = 0
 4638 0000 80B5     		push	{r7, lr}
 4639              		.cfi_def_cfa_offset 8
 4640              		.cfi_offset 7, -8
 4641              		.cfi_offset 14, -4
 4642 0002 84B0     		sub	sp, sp, #16
 4643              		.cfi_def_cfa_offset 24
 4644 0004 00AF     		add	r7, sp, #0
 4645              		.cfi_def_cfa_register 7
 4646 0006 7860     		str	r0, [r7, #4]
 4647 0008 3960     		str	r1, [r7]
1234:u8glib_arm_v1.18.1\src/u8g_font.c ****   u8g_uint_t  w;
1235:u8glib_arm_v1.18.1\src/u8g_font.c ****   uint8_t encoding;
1236:u8glib_arm_v1.18.1\src/u8g_font.c ****   
1237:u8glib_arm_v1.18.1\src/u8g_font.c ****   /* reset the total width to zero, this will be expanded during calculation */
1238:u8glib_arm_v1.18.1\src/u8g_font.c ****   w = 0;
 4648              		.loc 1 1238 0
 4649 000a 0023     		movs	r3, #0
 4650 000c FB73     		strb	r3, [r7, #15]
 4651              	.L245:
1239:u8glib_arm_v1.18.1\src/u8g_font.c ****   
1240:u8glib_arm_v1.18.1\src/u8g_font.c ****   for(;;)
1241:u8glib_arm_v1.18.1\src/u8g_font.c ****   {
1242:u8glib_arm_v1.18.1\src/u8g_font.c ****     encoding = u8g_pgm_read(s);
 4652              		.loc 1 1242 0
 4653 000e 3B68     		ldr	r3, [r7]
 4654 0010 1B78     		ldrb	r3, [r3]
 4655 0012 BB73     		strb	r3, [r7, #14]
1243:u8glib_arm_v1.18.1\src/u8g_font.c ****     if ( encoding == 0 )
 4656              		.loc 1 1243 0
 4657 0014 BB7B     		ldrb	r3, [r7, #14]	@ zero_extendqisi2
 4658 0016 002B     		cmp	r3, #0
 4659 0018 00D1     		bne	.L243
1244:u8glib_arm_v1.18.1\src/u8g_font.c ****       break;
 4660              		.loc 1 1244 0
ARM GAS  C:\Users\KJA\AppData\Local\Temp\ccevgiJT.s 			page 105


 4661 001a 0EE0     		b	.L247
 4662              	.L243:
1245:u8glib_arm_v1.18.1\src/u8g_font.c **** 
1246:u8glib_arm_v1.18.1\src/u8g_font.c ****     /* load glyph information */
1247:u8glib_arm_v1.18.1\src/u8g_font.c ****     u8g_GetGlyph(u8g, encoding);
 4663              		.loc 1 1247 0
 4664 001c BB7B     		ldrb	r3, [r7, #14]	@ zero_extendqisi2
 4665 001e 7868     		ldr	r0, [r7, #4]
 4666 0020 1946     		mov	r1, r3
 4667 0022 FFF7FEFF 		bl	u8g_GetGlyph
1248:u8glib_arm_v1.18.1\src/u8g_font.c ****     w += u8g->glyph_dx;    
 4668              		.loc 1 1248 0
 4669 0026 7B68     		ldr	r3, [r7, #4]
 4670 0028 1B7F     		ldrb	r3, [r3, #28]	@ zero_extendqisi2
 4671 002a DAB2     		uxtb	r2, r3
 4672 002c FB7B     		ldrb	r3, [r7, #15]
 4673 002e 1344     		add	r3, r3, r2
 4674 0030 FB73     		strb	r3, [r7, #15]
1249:u8glib_arm_v1.18.1\src/u8g_font.c ****     
1250:u8glib_arm_v1.18.1\src/u8g_font.c ****     /* goto next char */
1251:u8glib_arm_v1.18.1\src/u8g_font.c ****     s++;
 4675              		.loc 1 1251 0
 4676 0032 3B68     		ldr	r3, [r7]
 4677 0034 0133     		adds	r3, r3, #1
 4678 0036 3B60     		str	r3, [r7]
1252:u8glib_arm_v1.18.1\src/u8g_font.c ****   }
 4679              		.loc 1 1252 0
 4680 0038 E9E7     		b	.L245
 4681              	.L247:
1253:u8glib_arm_v1.18.1\src/u8g_font.c ****   
1254:u8glib_arm_v1.18.1\src/u8g_font.c ****   return w;  
 4682              		.loc 1 1254 0
 4683 003a FB7B     		ldrb	r3, [r7, #15]	@ zero_extendqisi2
1255:u8glib_arm_v1.18.1\src/u8g_font.c **** }
 4684              		.loc 1 1255 0
 4685 003c 1846     		mov	r0, r3
 4686 003e 1037     		adds	r7, r7, #16
 4687              		.cfi_def_cfa_offset 8
 4688 0040 BD46     		mov	sp, r7
 4689              		.cfi_def_cfa_register 13
 4690              		@ sp needed
 4691 0042 80BD     		pop	{r7, pc}
 4692              		.cfi_endproc
 4693              	.LFE70:
 4694              		.size	u8g_GetStrWidthP, .-u8g_GetStrWidthP
 4695              		.section	.text.u8g_font_calc_str_min_box,"ax",%progbits
 4696              		.align	2
 4697              		.thumb
 4698              		.thumb_func
 4699              		.type	u8g_font_calc_str_min_box, %function
 4700              	u8g_font_calc_str_min_box:
 4701              	.LFB71:
1256:u8glib_arm_v1.18.1\src/u8g_font.c **** 
1257:u8glib_arm_v1.18.1\src/u8g_font.c **** 
1258:u8glib_arm_v1.18.1\src/u8g_font.c **** /*========================================================================*/
1259:u8glib_arm_v1.18.1\src/u8g_font.c **** /* calculation of font/glyph/string characteristics */
1260:u8glib_arm_v1.18.1\src/u8g_font.c **** 
ARM GAS  C:\Users\KJA\AppData\Local\Temp\ccevgiJT.s 			page 106


1261:u8glib_arm_v1.18.1\src/u8g_font.c **** 
1262:u8glib_arm_v1.18.1\src/u8g_font.c **** /*
1263:u8glib_arm_v1.18.1\src/u8g_font.c ****   Description:
1264:u8glib_arm_v1.18.1\src/u8g_font.c ****     Calculate parameter for the minimal bounding box on a given string
1265:u8glib_arm_v1.18.1\src/u8g_font.c ****   Output
1266:u8glib_arm_v1.18.1\src/u8g_font.c ****     buf->y_min          extend of the lower left edge if the string below (y_min<0) or above (y_min
1267:u8glib_arm_v1.18.1\src/u8g_font.c ****     buf->y_max          extend of the upper left edge if the string below (y_min<0) or above (y_min
1268:u8glib_arm_v1.18.1\src/u8g_font.c ****     buf->w                 the width of the string
1269:u8glib_arm_v1.18.1\src/u8g_font.c **** */
1270:u8glib_arm_v1.18.1\src/u8g_font.c **** struct u8g_str_size_struct
1271:u8glib_arm_v1.18.1\src/u8g_font.c **** {
1272:u8glib_arm_v1.18.1\src/u8g_font.c ****   int8_t y_min;         /* descent */
1273:u8glib_arm_v1.18.1\src/u8g_font.c ****   int8_t y_max;         /* ascent */
1274:u8glib_arm_v1.18.1\src/u8g_font.c ****   int8_t x, y;             /* the reference point of the font (negated!) */
1275:u8glib_arm_v1.18.1\src/u8g_font.c ****   u8g_uint_t w;         /* width of the overall string */
1276:u8glib_arm_v1.18.1\src/u8g_font.c **** };
1277:u8glib_arm_v1.18.1\src/u8g_font.c **** typedef struct u8g_str_size_struct u8g_str_size_t;
1278:u8glib_arm_v1.18.1\src/u8g_font.c **** 
1279:u8glib_arm_v1.18.1\src/u8g_font.c **** static void u8g_font_calc_str_min_box(u8g_t *u8g, const char *s, u8g_str_size_t *buf)
1280:u8glib_arm_v1.18.1\src/u8g_font.c **** {
 4702              		.loc 1 1280 0
 4703              		.cfi_startproc
 4704              		@ args = 0, pretend = 0, frame = 24
 4705              		@ frame_needed = 1, uses_anonymous_args = 0
 4706 0000 80B5     		push	{r7, lr}
 4707              		.cfi_def_cfa_offset 8
 4708              		.cfi_offset 7, -8
 4709              		.cfi_offset 14, -4
 4710 0002 86B0     		sub	sp, sp, #24
 4711              		.cfi_def_cfa_offset 32
 4712 0004 00AF     		add	r7, sp, #0
 4713              		.cfi_def_cfa_register 7
 4714 0006 F860     		str	r0, [r7, #12]
 4715 0008 B960     		str	r1, [r7, #8]
 4716 000a 7A60     		str	r2, [r7, #4]
1281:u8glib_arm_v1.18.1\src/u8g_font.c ****   /* u8g_glyph_t g; */
1282:u8glib_arm_v1.18.1\src/u8g_font.c ****   int8_t tmp;
1283:u8glib_arm_v1.18.1\src/u8g_font.c ****   
1284:u8glib_arm_v1.18.1\src/u8g_font.c ****   /* reset the total minimal width to zero, this will be expanded during calculation */
1285:u8glib_arm_v1.18.1\src/u8g_font.c ****   buf->w = 0;
 4717              		.loc 1 1285 0
 4718 000c 7B68     		ldr	r3, [r7, #4]
 4719 000e 0022     		movs	r2, #0
 4720 0010 1A71     		strb	r2, [r3, #4]
1286:u8glib_arm_v1.18.1\src/u8g_font.c ****     
1287:u8glib_arm_v1.18.1\src/u8g_font.c ****   /* check for empty string, width is already 0, but also reset y_min and y_max to 0 */
1288:u8glib_arm_v1.18.1\src/u8g_font.c ****   if ( *s == '\0' )
 4721              		.loc 1 1288 0
 4722 0012 BB68     		ldr	r3, [r7, #8]
 4723 0014 1B78     		ldrb	r3, [r3]	@ zero_extendqisi2
 4724 0016 002B     		cmp	r3, #0
 4725 0018 0CD1     		bne	.L249
1289:u8glib_arm_v1.18.1\src/u8g_font.c ****   {
1290:u8glib_arm_v1.18.1\src/u8g_font.c ****     buf->y_min = 0;
 4726              		.loc 1 1290 0
 4727 001a 7B68     		ldr	r3, [r7, #4]
 4728 001c 0022     		movs	r2, #0
ARM GAS  C:\Users\KJA\AppData\Local\Temp\ccevgiJT.s 			page 107


 4729 001e 1A70     		strb	r2, [r3]
1291:u8glib_arm_v1.18.1\src/u8g_font.c ****     buf->y_max = 0;
 4730              		.loc 1 1291 0
 4731 0020 7B68     		ldr	r3, [r7, #4]
 4732 0022 0022     		movs	r2, #0
 4733 0024 5A70     		strb	r2, [r3, #1]
1292:u8glib_arm_v1.18.1\src/u8g_font.c ****     buf->x = 0;
 4734              		.loc 1 1292 0
 4735 0026 7B68     		ldr	r3, [r7, #4]
 4736 0028 0022     		movs	r2, #0
 4737 002a 9A70     		strb	r2, [r3, #2]
1293:u8glib_arm_v1.18.1\src/u8g_font.c ****     buf->y = 0;
 4738              		.loc 1 1293 0
 4739 002c 7B68     		ldr	r3, [r7, #4]
 4740 002e 0022     		movs	r2, #0
 4741 0030 DA70     		strb	r2, [r3, #3]
1294:u8glib_arm_v1.18.1\src/u8g_font.c ****     return;
 4742              		.loc 1 1294 0
 4743 0032 62E0     		b	.L248
 4744              	.L249:
1295:u8glib_arm_v1.18.1\src/u8g_font.c ****   }
1296:u8glib_arm_v1.18.1\src/u8g_font.c ****   
1297:u8glib_arm_v1.18.1\src/u8g_font.c ****   /* reset y_min to the largest possible value. Later we search for the smallest value */
1298:u8glib_arm_v1.18.1\src/u8g_font.c ****   /* y_min contains the position [pixel] of the lower left edge of the glyph above (y_min>0) or bel
1299:u8glib_arm_v1.18.1\src/u8g_font.c ****   buf->y_min = 127;
 4745              		.loc 1 1299 0
 4746 0034 7B68     		ldr	r3, [r7, #4]
 4747 0036 7F22     		movs	r2, #127
 4748 0038 1A70     		strb	r2, [r3]
1300:u8glib_arm_v1.18.1\src/u8g_font.c ****   /* reset y_max to the smallest possible value. Later we search for the highest value */
1301:u8glib_arm_v1.18.1\src/u8g_font.c ****   /* y_max contains the position [pixel] of the upper left edge of the glyph above (y_max>0) or bel
1302:u8glib_arm_v1.18.1\src/u8g_font.c ****   buf->y_max = -128;
 4749              		.loc 1 1302 0
 4750 003a 7B68     		ldr	r3, [r7, #4]
 4751 003c 8022     		movs	r2, #128
 4752 003e 5A70     		strb	r2, [r3, #1]
1303:u8glib_arm_v1.18.1\src/u8g_font.c **** 
1304:u8glib_arm_v1.18.1\src/u8g_font.c ****   /* get the glyph information of the first char. This must be valid, because we already checked fo
1305:u8glib_arm_v1.18.1\src/u8g_font.c ****   u8g_GetGlyph(u8g, *s);
 4753              		.loc 1 1305 0
 4754 0040 BB68     		ldr	r3, [r7, #8]
 4755 0042 1B78     		ldrb	r3, [r3]	@ zero_extendqisi2
 4756 0044 F868     		ldr	r0, [r7, #12]
 4757 0046 1946     		mov	r1, r3
 4758 0048 FFF7FEFF 		bl	u8g_GetGlyph
1306:u8glib_arm_v1.18.1\src/u8g_font.c **** 
1307:u8glib_arm_v1.18.1\src/u8g_font.c ****   /* strlen(s) == 1:       width = width(s[0]) */
1308:u8glib_arm_v1.18.1\src/u8g_font.c ****   /* strlen(s) == 2:       width = - offx(s[0]) + deltax(s[0]) + offx(s[1]) + width(s[1]) */
1309:u8glib_arm_v1.18.1\src/u8g_font.c ****   /* strlen(s) == 3:       width = - offx(s[0]) + deltax(s[0]) + deltax(s[1]) + offx(s[2]) + width(
1310:u8glib_arm_v1.18.1\src/u8g_font.c ****   
1311:u8glib_arm_v1.18.1\src/u8g_font.c ****   /* assume that the string has size 2 or more, than start with negative offset-x */
1312:u8glib_arm_v1.18.1\src/u8g_font.c ****   /* for string with size 1, this will be nullified after the loop */
1313:u8glib_arm_v1.18.1\src/u8g_font.c ****   // buf->w = - u8g_font_GetGlyphBBXOffX(u8g->font, g);
1314:u8glib_arm_v1.18.1\src/u8g_font.c ****   buf->w = - u8g->glyph_x;
 4759              		.loc 1 1314 0
 4760 004c FB68     		ldr	r3, [r7, #12]
 4761 004e 5B7F     		ldrb	r3, [r3, #29]	@ zero_extendqisi2
ARM GAS  C:\Users\KJA\AppData\Local\Temp\ccevgiJT.s 			page 108


 4762 0050 DBB2     		uxtb	r3, r3
 4763 0052 5B42     		negs	r3, r3
 4764 0054 DAB2     		uxtb	r2, r3
 4765 0056 7B68     		ldr	r3, [r7, #4]
 4766 0058 1A71     		strb	r2, [r3, #4]
1315:u8glib_arm_v1.18.1\src/u8g_font.c ****   
1316:u8glib_arm_v1.18.1\src/u8g_font.c ****   /* Also copy the position of the first glyph. This is the reference point of the string (negated)
1317:u8glib_arm_v1.18.1\src/u8g_font.c ****   buf->x = u8g->glyph_x;
 4767              		.loc 1 1317 0
 4768 005a FB68     		ldr	r3, [r7, #12]
 4769 005c 5A7F     		ldrb	r2, [r3, #29]	@ zero_extendqisi2
 4770 005e 7B68     		ldr	r3, [r7, #4]
 4771 0060 9A70     		strb	r2, [r3, #2]
1318:u8glib_arm_v1.18.1\src/u8g_font.c ****   buf->y = u8g->glyph_y;
 4772              		.loc 1 1318 0
 4773 0062 FB68     		ldr	r3, [r7, #12]
 4774 0064 9A7F     		ldrb	r2, [r3, #30]	@ zero_extendqisi2
 4775 0066 7B68     		ldr	r3, [r7, #4]
 4776 0068 DA70     		strb	r2, [r3, #3]
 4777              	.L255:
1319:u8glib_arm_v1.18.1\src/u8g_font.c ****   
1320:u8glib_arm_v1.18.1\src/u8g_font.c ****   for(;;)
1321:u8glib_arm_v1.18.1\src/u8g_font.c ****   {
1322:u8glib_arm_v1.18.1\src/u8g_font.c ****     
1323:u8glib_arm_v1.18.1\src/u8g_font.c ****     /* calculated y position of the upper left corner (y_max) and lower left corner (y_min) of the 
1324:u8glib_arm_v1.18.1\src/u8g_font.c ****     /* relative to the base line */
1325:u8glib_arm_v1.18.1\src/u8g_font.c ****     
1326:u8glib_arm_v1.18.1\src/u8g_font.c ****     tmp = u8g->glyph_y;
 4778              		.loc 1 1326 0
 4779 006a FB68     		ldr	r3, [r7, #12]
 4780 006c 9B7F     		ldrb	r3, [r3, #30]
 4781 006e FB75     		strb	r3, [r7, #23]
1327:u8glib_arm_v1.18.1\src/u8g_font.c ****     if ( buf->y_min > tmp )
 4782              		.loc 1 1327 0
 4783 0070 7B68     		ldr	r3, [r7, #4]
 4784 0072 1B78     		ldrb	r3, [r3]	@ zero_extendqisi2
 4785 0074 97F91720 		ldrsb	r2, [r7, #23]
 4786 0078 5BB2     		sxtb	r3, r3
 4787 007a 9A42     		cmp	r2, r3
 4788 007c 02DA     		bge	.L251
1328:u8glib_arm_v1.18.1\src/u8g_font.c ****       buf->y_min = tmp;
 4789              		.loc 1 1328 0
 4790 007e 7B68     		ldr	r3, [r7, #4]
 4791 0080 FA7D     		ldrb	r2, [r7, #23]
 4792 0082 1A70     		strb	r2, [r3]
 4793              	.L251:
1329:u8glib_arm_v1.18.1\src/u8g_font.c ****     
1330:u8glib_arm_v1.18.1\src/u8g_font.c ****     tmp +=u8g->glyph_height;
 4794              		.loc 1 1330 0
 4795 0084 FB68     		ldr	r3, [r7, #12]
 4796 0086 93F82020 		ldrb	r2, [r3, #32]	@ zero_extendqisi2
 4797 008a FB7D     		ldrb	r3, [r7, #23]	@ zero_extendqisi2
 4798 008c 1344     		add	r3, r3, r2
 4799 008e DBB2     		uxtb	r3, r3
 4800 0090 FB75     		strb	r3, [r7, #23]
1331:u8glib_arm_v1.18.1\src/u8g_font.c ****     if ( buf->y_max < tmp )
 4801              		.loc 1 1331 0
ARM GAS  C:\Users\KJA\AppData\Local\Temp\ccevgiJT.s 			page 109


 4802 0092 7B68     		ldr	r3, [r7, #4]
 4803 0094 5B78     		ldrb	r3, [r3, #1]	@ zero_extendqisi2
 4804 0096 97F91720 		ldrsb	r2, [r7, #23]
 4805 009a 5BB2     		sxtb	r3, r3
 4806 009c 9A42     		cmp	r2, r3
 4807 009e 02DD     		ble	.L252
1332:u8glib_arm_v1.18.1\src/u8g_font.c ****       buf->y_max = tmp;
 4808              		.loc 1 1332 0
 4809 00a0 7B68     		ldr	r3, [r7, #4]
 4810 00a2 FA7D     		ldrb	r2, [r7, #23]
 4811 00a4 5A70     		strb	r2, [r3, #1]
 4812              	.L252:
1333:u8glib_arm_v1.18.1\src/u8g_font.c ****     
1334:u8glib_arm_v1.18.1\src/u8g_font.c ****     /* check and stop if the end of the string is reached */
1335:u8glib_arm_v1.18.1\src/u8g_font.c ****     s++;
 4813              		.loc 1 1335 0
 4814 00a6 BB68     		ldr	r3, [r7, #8]
 4815 00a8 0133     		adds	r3, r3, #1
 4816 00aa BB60     		str	r3, [r7, #8]
1336:u8glib_arm_v1.18.1\src/u8g_font.c ****     if ( *s == '\0' )
 4817              		.loc 1 1336 0
 4818 00ac BB68     		ldr	r3, [r7, #8]
 4819 00ae 1B78     		ldrb	r3, [r3]	@ zero_extendqisi2
 4820 00b0 002B     		cmp	r3, #0
 4821 00b2 12D1     		bne	.L253
1337:u8glib_arm_v1.18.1\src/u8g_font.c ****       break;
 4822              		.loc 1 1337 0
 4823 00b4 00BF     		nop
1338:u8glib_arm_v1.18.1\src/u8g_font.c ****     
1339:u8glib_arm_v1.18.1\src/u8g_font.c ****     /* if there are still more characters, add the delta to the next glyph */
1340:u8glib_arm_v1.18.1\src/u8g_font.c ****     buf->w += u8g->glyph_dx;
1341:u8glib_arm_v1.18.1\src/u8g_font.c ****     
1342:u8glib_arm_v1.18.1\src/u8g_font.c ****     /* load the next glyph information */
1343:u8glib_arm_v1.18.1\src/u8g_font.c ****     u8g_GetGlyph(u8g, *s);
1344:u8glib_arm_v1.18.1\src/u8g_font.c ****   }
1345:u8glib_arm_v1.18.1\src/u8g_font.c ****   
1346:u8glib_arm_v1.18.1\src/u8g_font.c ****   /* finally calculate the width of the last char */
1347:u8glib_arm_v1.18.1\src/u8g_font.c ****   /* if g was not updated in the for loop (strlen() == 1), then the initial offset x gets removed *
1348:u8glib_arm_v1.18.1\src/u8g_font.c ****   buf->w += u8g->glyph_width;
 4824              		.loc 1 1348 0
 4825 00b6 7B68     		ldr	r3, [r7, #4]
 4826 00b8 1A79     		ldrb	r2, [r3, #4]	@ zero_extendqisi2
 4827 00ba FB68     		ldr	r3, [r7, #12]
 4828 00bc DB7F     		ldrb	r3, [r3, #31]	@ zero_extendqisi2
 4829 00be 1344     		add	r3, r3, r2
 4830 00c0 DAB2     		uxtb	r2, r3
 4831 00c2 7B68     		ldr	r3, [r7, #4]
 4832 00c4 1A71     		strb	r2, [r3, #4]
1349:u8glib_arm_v1.18.1\src/u8g_font.c ****   // buf->w += u8g_font_GetGlyphBBXOffX(u8g->font, g);
1350:u8glib_arm_v1.18.1\src/u8g_font.c ****   
1351:u8glib_arm_v1.18.1\src/u8g_font.c ****   buf->w += u8g->glyph_x;
 4833              		.loc 1 1351 0
 4834 00c6 7B68     		ldr	r3, [r7, #4]
 4835 00c8 1A79     		ldrb	r2, [r3, #4]	@ zero_extendqisi2
 4836 00ca FB68     		ldr	r3, [r7, #12]
 4837 00cc 5B7F     		ldrb	r3, [r3, #29]	@ zero_extendqisi2
 4838 00ce DBB2     		uxtb	r3, r3
ARM GAS  C:\Users\KJA\AppData\Local\Temp\ccevgiJT.s 			page 110


 4839 00d0 1344     		add	r3, r3, r2
 4840 00d2 DAB2     		uxtb	r2, r3
 4841 00d4 7B68     		ldr	r3, [r7, #4]
 4842 00d6 1A71     		strb	r2, [r3, #4]
 4843 00d8 0FE0     		b	.L248
 4844              	.L253:
1340:u8glib_arm_v1.18.1\src/u8g_font.c ****     
 4845              		.loc 1 1340 0
 4846 00da 7B68     		ldr	r3, [r7, #4]
 4847 00dc 1A79     		ldrb	r2, [r3, #4]	@ zero_extendqisi2
 4848 00de FB68     		ldr	r3, [r7, #12]
 4849 00e0 1B7F     		ldrb	r3, [r3, #28]	@ zero_extendqisi2
 4850 00e2 DBB2     		uxtb	r3, r3
 4851 00e4 1344     		add	r3, r3, r2
 4852 00e6 DAB2     		uxtb	r2, r3
 4853 00e8 7B68     		ldr	r3, [r7, #4]
 4854 00ea 1A71     		strb	r2, [r3, #4]
1343:u8glib_arm_v1.18.1\src/u8g_font.c ****   }
 4855              		.loc 1 1343 0
 4856 00ec BB68     		ldr	r3, [r7, #8]
 4857 00ee 1B78     		ldrb	r3, [r3]	@ zero_extendqisi2
 4858 00f0 F868     		ldr	r0, [r7, #12]
 4859 00f2 1946     		mov	r1, r3
 4860 00f4 FFF7FEFF 		bl	u8g_GetGlyph
1344:u8glib_arm_v1.18.1\src/u8g_font.c ****   
 4861              		.loc 1 1344 0
 4862 00f8 B7E7     		b	.L255
 4863              	.L248:
1352:u8glib_arm_v1.18.1\src/u8g_font.c **** }
 4864              		.loc 1 1352 0
 4865 00fa 1837     		adds	r7, r7, #24
 4866              		.cfi_def_cfa_offset 8
 4867 00fc BD46     		mov	sp, r7
 4868              		.cfi_def_cfa_register 13
 4869              		@ sp needed
 4870 00fe 80BD     		pop	{r7, pc}
 4871              		.cfi_endproc
 4872              	.LFE71:
 4873              		.size	u8g_font_calc_str_min_box, .-u8g_font_calc_str_min_box
 4874              		.section	.text.u8g_font_box_min,"ax",%progbits
 4875              		.align	2
 4876              		.global	u8g_font_box_min
 4877              		.thumb
 4878              		.thumb_func
 4879              		.type	u8g_font_box_min, %function
 4880              	u8g_font_box_min:
 4881              	.LFB72:
1353:u8glib_arm_v1.18.1\src/u8g_font.c **** 
1354:u8glib_arm_v1.18.1\src/u8g_font.c **** /* calculate minimal box */
1355:u8glib_arm_v1.18.1\src/u8g_font.c **** void u8g_font_box_min(u8g_t *u8g, const char *s, u8g_str_size_t *buf)
1356:u8glib_arm_v1.18.1\src/u8g_font.c **** {
 4882              		.loc 1 1356 0
 4883              		.cfi_startproc
 4884              		@ args = 0, pretend = 0, frame = 16
 4885              		@ frame_needed = 1, uses_anonymous_args = 0
 4886 0000 80B5     		push	{r7, lr}
 4887              		.cfi_def_cfa_offset 8
ARM GAS  C:\Users\KJA\AppData\Local\Temp\ccevgiJT.s 			page 111


 4888              		.cfi_offset 7, -8
 4889              		.cfi_offset 14, -4
 4890 0002 84B0     		sub	sp, sp, #16
 4891              		.cfi_def_cfa_offset 24
 4892 0004 00AF     		add	r7, sp, #0
 4893              		.cfi_def_cfa_register 7
 4894 0006 F860     		str	r0, [r7, #12]
 4895 0008 B960     		str	r1, [r7, #8]
 4896 000a 7A60     		str	r2, [r7, #4]
1357:u8glib_arm_v1.18.1\src/u8g_font.c ****   u8g_font_calc_str_min_box(u8g, s, buf);
 4897              		.loc 1 1357 0
 4898 000c F868     		ldr	r0, [r7, #12]
 4899 000e B968     		ldr	r1, [r7, #8]
 4900 0010 7A68     		ldr	r2, [r7, #4]
 4901 0012 FFF7FEFF 		bl	u8g_font_calc_str_min_box
1358:u8glib_arm_v1.18.1\src/u8g_font.c **** }
 4902              		.loc 1 1358 0
 4903 0016 1037     		adds	r7, r7, #16
 4904              		.cfi_def_cfa_offset 8
 4905 0018 BD46     		mov	sp, r7
 4906              		.cfi_def_cfa_register 13
 4907              		@ sp needed
 4908 001a 80BD     		pop	{r7, pc}
 4909              		.cfi_endproc
 4910              	.LFE72:
 4911              		.size	u8g_font_box_min, .-u8g_font_box_min
 4912              		.section	.text.u8g_font_box_left_gA,"ax",%progbits
 4913              		.align	2
 4914              		.global	u8g_font_box_left_gA
 4915              		.thumb
 4916              		.thumb_func
 4917              		.type	u8g_font_box_left_gA, %function
 4918              	u8g_font_box_left_gA:
 4919              	.LFB73:
1359:u8glib_arm_v1.18.1\src/u8g_font.c **** 
1360:u8glib_arm_v1.18.1\src/u8g_font.c **** /* calculate gA box, but do not calculate the overall width */
1361:u8glib_arm_v1.18.1\src/u8g_font.c **** void u8g_font_box_left_gA(u8g_t *u8g, const char *s, u8g_str_size_t *buf)
1362:u8glib_arm_v1.18.1\src/u8g_font.c **** {
 4920              		.loc 1 1362 0
 4921              		.cfi_startproc
 4922              		@ args = 0, pretend = 0, frame = 16
 4923              		@ frame_needed = 1, uses_anonymous_args = 0
 4924              		@ link register save eliminated.
 4925 0000 80B4     		push	{r7}
 4926              		.cfi_def_cfa_offset 4
 4927              		.cfi_offset 7, -4
 4928 0002 85B0     		sub	sp, sp, #20
 4929              		.cfi_def_cfa_offset 24
 4930 0004 00AF     		add	r7, sp, #0
 4931              		.cfi_def_cfa_register 7
 4932 0006 F860     		str	r0, [r7, #12]
 4933 0008 B960     		str	r1, [r7, #8]
 4934 000a 7A60     		str	r2, [r7, #4]
1363:u8glib_arm_v1.18.1\src/u8g_font.c ****   
1364:u8glib_arm_v1.18.1\src/u8g_font.c **** }
 4935              		.loc 1 1364 0
 4936 000c 1437     		adds	r7, r7, #20
ARM GAS  C:\Users\KJA\AppData\Local\Temp\ccevgiJT.s 			page 112


 4937              		.cfi_def_cfa_offset 4
 4938 000e BD46     		mov	sp, r7
 4939              		.cfi_def_cfa_register 13
 4940              		@ sp needed
 4941 0010 5DF8047B 		ldr	r7, [sp], #4
 4942              		.cfi_restore 7
 4943              		.cfi_def_cfa_offset 0
 4944 0014 7047     		bx	lr
 4945              		.cfi_endproc
 4946              	.LFE73:
 4947              		.size	u8g_font_box_left_gA, .-u8g_font_box_left_gA
 4948 0016 00BF     		.section	.text.u8g_font_box_all_gA,"ax",%progbits
 4949              		.align	2
 4950              		.global	u8g_font_box_all_gA
 4951              		.thumb
 4952              		.thumb_func
 4953              		.type	u8g_font_box_all_gA, %function
 4954              	u8g_font_box_all_gA:
 4955              	.LFB74:
1365:u8glib_arm_v1.18.1\src/u8g_font.c **** 
1366:u8glib_arm_v1.18.1\src/u8g_font.c **** /* calculate gA box, including overall width */
1367:u8glib_arm_v1.18.1\src/u8g_font.c **** void u8g_font_box_all_gA(u8g_t *u8g, const char *s, u8g_str_size_t *buf)
1368:u8glib_arm_v1.18.1\src/u8g_font.c **** {
 4956              		.loc 1 1368 0
 4957              		.cfi_startproc
 4958              		@ args = 0, pretend = 0, frame = 16
 4959              		@ frame_needed = 1, uses_anonymous_args = 0
 4960              		@ link register save eliminated.
 4961 0000 80B4     		push	{r7}
 4962              		.cfi_def_cfa_offset 4
 4963              		.cfi_offset 7, -4
 4964 0002 85B0     		sub	sp, sp, #20
 4965              		.cfi_def_cfa_offset 24
 4966 0004 00AF     		add	r7, sp, #0
 4967              		.cfi_def_cfa_register 7
 4968 0006 F860     		str	r0, [r7, #12]
 4969 0008 B960     		str	r1, [r7, #8]
 4970 000a 7A60     		str	r2, [r7, #4]
1369:u8glib_arm_v1.18.1\src/u8g_font.c ****   
1370:u8glib_arm_v1.18.1\src/u8g_font.c **** }
 4971              		.loc 1 1370 0
 4972 000c 1437     		adds	r7, r7, #20
 4973              		.cfi_def_cfa_offset 4
 4974 000e BD46     		mov	sp, r7
 4975              		.cfi_def_cfa_register 13
 4976              		@ sp needed
 4977 0010 5DF8047B 		ldr	r7, [sp], #4
 4978              		.cfi_restore 7
 4979              		.cfi_def_cfa_offset 0
 4980 0014 7047     		bx	lr
 4981              		.cfi_endproc
 4982              	.LFE74:
 4983              		.size	u8g_font_box_all_gA, .-u8g_font_box_all_gA
 4984 0016 00BF     		.section	.text.u8g_font_get_str_box_fill_args,"ax",%progbits
 4985              		.align	2
 4986              		.thumb
 4987              		.thumb_func
ARM GAS  C:\Users\KJA\AppData\Local\Temp\ccevgiJT.s 			page 113


 4988              		.type	u8g_font_get_str_box_fill_args, %function
 4989              	u8g_font_get_str_box_fill_args:
 4990              	.LFB75:
1371:u8glib_arm_v1.18.1\src/u8g_font.c **** 
1372:u8glib_arm_v1.18.1\src/u8g_font.c **** 
1373:u8glib_arm_v1.18.1\src/u8g_font.c **** static void u8g_font_get_str_box_fill_args(u8g_t *u8g, const char *s, u8g_str_size_t *buf, u8g_uint
1374:u8glib_arm_v1.18.1\src/u8g_font.c **** {
 4991              		.loc 1 1374 0
 4992              		.cfi_startproc
 4993              		@ args = 12, pretend = 0, frame = 16
 4994              		@ frame_needed = 1, uses_anonymous_args = 0
 4995 0000 80B5     		push	{r7, lr}
 4996              		.cfi_def_cfa_offset 8
 4997              		.cfi_offset 7, -8
 4998              		.cfi_offset 14, -4
 4999 0002 84B0     		sub	sp, sp, #16
 5000              		.cfi_def_cfa_offset 24
 5001 0004 00AF     		add	r7, sp, #0
 5002              		.cfi_def_cfa_register 7
 5003 0006 F860     		str	r0, [r7, #12]
 5004 0008 B960     		str	r1, [r7, #8]
 5005 000a 7A60     		str	r2, [r7, #4]
 5006 000c 3B60     		str	r3, [r7]
1375:u8glib_arm_v1.18.1\src/u8g_font.c ****   /*
1376:u8glib_arm_v1.18.1\src/u8g_font.c ****   u8g_glyph_t g;
1377:u8glib_arm_v1.18.1\src/u8g_font.c ****   g =
1378:u8glib_arm_v1.18.1\src/u8g_font.c ****   */  
1379:u8glib_arm_v1.18.1\src/u8g_font.c ****   u8g_GetGlyph(u8g, *s);
 5007              		.loc 1 1379 0
 5008 000e BB68     		ldr	r3, [r7, #8]
 5009 0010 1B78     		ldrb	r3, [r3]	@ zero_extendqisi2
 5010 0012 F868     		ldr	r0, [r7, #12]
 5011 0014 1946     		mov	r1, r3
 5012 0016 FFF7FEFF 		bl	u8g_GetGlyph
1380:u8glib_arm_v1.18.1\src/u8g_font.c ****   *x += u8g->glyph_x;
 5013              		.loc 1 1380 0
 5014 001a 3B68     		ldr	r3, [r7]
 5015 001c 1A78     		ldrb	r2, [r3]	@ zero_extendqisi2
 5016 001e FB68     		ldr	r3, [r7, #12]
 5017 0020 5B7F     		ldrb	r3, [r3, #29]	@ zero_extendqisi2
 5018 0022 DBB2     		uxtb	r3, r3
 5019 0024 1344     		add	r3, r3, r2
 5020 0026 DAB2     		uxtb	r2, r3
 5021 0028 3B68     		ldr	r3, [r7]
 5022 002a 1A70     		strb	r2, [r3]
1381:u8glib_arm_v1.18.1\src/u8g_font.c ****   *width = buf->w;
 5023              		.loc 1 1381 0
 5024 002c 7B68     		ldr	r3, [r7, #4]
 5025 002e 1A79     		ldrb	r2, [r3, #4]	@ zero_extendqisi2
 5026 0030 FB69     		ldr	r3, [r7, #28]
 5027 0032 1A70     		strb	r2, [r3]
1382:u8glib_arm_v1.18.1\src/u8g_font.c ****   *y -= buf->y_max;
 5028              		.loc 1 1382 0
 5029 0034 BB69     		ldr	r3, [r7, #24]
 5030 0036 1A78     		ldrb	r2, [r3]	@ zero_extendqisi2
 5031 0038 7B68     		ldr	r3, [r7, #4]
 5032 003a 5B78     		ldrb	r3, [r3, #1]	@ zero_extendqisi2
ARM GAS  C:\Users\KJA\AppData\Local\Temp\ccevgiJT.s 			page 114


 5033 003c DBB2     		uxtb	r3, r3
 5034 003e D31A     		subs	r3, r2, r3
 5035 0040 DAB2     		uxtb	r2, r3
 5036 0042 BB69     		ldr	r3, [r7, #24]
 5037 0044 1A70     		strb	r2, [r3]
1383:u8glib_arm_v1.18.1\src/u8g_font.c ****   /* +1 because y_max is a height, this compensates the next step */
1384:u8glib_arm_v1.18.1\src/u8g_font.c ****   //*y += 1;                      
1385:u8glib_arm_v1.18.1\src/u8g_font.c ****   /* because the reference point is one below the string, this compensates the previous step */
1386:u8glib_arm_v1.18.1\src/u8g_font.c ****   //*y -= 1;
1387:u8glib_arm_v1.18.1\src/u8g_font.c ****   *height = buf->y_max;
 5038              		.loc 1 1387 0
 5039 0046 7B68     		ldr	r3, [r7, #4]
 5040 0048 5B78     		ldrb	r3, [r3, #1]	@ zero_extendqisi2
 5041 004a DAB2     		uxtb	r2, r3
 5042 004c 3B6A     		ldr	r3, [r7, #32]
 5043 004e 1A70     		strb	r2, [r3]
1388:u8glib_arm_v1.18.1\src/u8g_font.c ****   *height -= buf->y_min;
 5044              		.loc 1 1388 0
 5045 0050 3B6A     		ldr	r3, [r7, #32]
 5046 0052 1A78     		ldrb	r2, [r3]	@ zero_extendqisi2
 5047 0054 7B68     		ldr	r3, [r7, #4]
 5048 0056 1B78     		ldrb	r3, [r3]	@ zero_extendqisi2
 5049 0058 DBB2     		uxtb	r3, r3
 5050 005a D31A     		subs	r3, r2, r3
 5051 005c DAB2     		uxtb	r2, r3
 5052 005e 3B6A     		ldr	r3, [r7, #32]
 5053 0060 1A70     		strb	r2, [r3]
1389:u8glib_arm_v1.18.1\src/u8g_font.c **** }
 5054              		.loc 1 1389 0
 5055 0062 1037     		adds	r7, r7, #16
 5056              		.cfi_def_cfa_offset 8
 5057 0064 BD46     		mov	sp, r7
 5058              		.cfi_def_cfa_register 13
 5059              		@ sp needed
 5060 0066 80BD     		pop	{r7, pc}
 5061              		.cfi_endproc
 5062              	.LFE75:
 5063              		.size	u8g_font_get_str_box_fill_args, .-u8g_font_get_str_box_fill_args
 5064              		.section	.text.u8g_GetStrMinBox,"ax",%progbits
 5065              		.align	2
 5066              		.global	u8g_GetStrMinBox
 5067              		.thumb
 5068              		.thumb_func
 5069              		.type	u8g_GetStrMinBox, %function
 5070              	u8g_GetStrMinBox:
 5071              	.LFB76:
1390:u8glib_arm_v1.18.1\src/u8g_font.c **** 
1391:u8glib_arm_v1.18.1\src/u8g_font.c **** 
1392:u8glib_arm_v1.18.1\src/u8g_font.c **** void u8g_GetStrMinBox(u8g_t *u8g, const char *s, u8g_uint_t *x, u8g_uint_t *y, u8g_uint_t *width, u
1393:u8glib_arm_v1.18.1\src/u8g_font.c **** {
 5072              		.loc 1 1393 0
 5073              		.cfi_startproc
 5074              		@ args = 8, pretend = 0, frame = 24
 5075              		@ frame_needed = 1, uses_anonymous_args = 0
 5076 0000 80B5     		push	{r7, lr}
 5077              		.cfi_def_cfa_offset 8
 5078              		.cfi_offset 7, -8
ARM GAS  C:\Users\KJA\AppData\Local\Temp\ccevgiJT.s 			page 115


 5079              		.cfi_offset 14, -4
 5080 0002 8AB0     		sub	sp, sp, #40
 5081              		.cfi_def_cfa_offset 48
 5082 0004 04AF     		add	r7, sp, #16
 5083              		.cfi_def_cfa 7, 32
 5084 0006 F860     		str	r0, [r7, #12]
 5085 0008 B960     		str	r1, [r7, #8]
 5086 000a 7A60     		str	r2, [r7, #4]
 5087 000c 3B60     		str	r3, [r7]
1394:u8glib_arm_v1.18.1\src/u8g_font.c ****   u8g_str_size_t buf;
1395:u8glib_arm_v1.18.1\src/u8g_font.c ****   
1396:u8glib_arm_v1.18.1\src/u8g_font.c ****   if ( *s == '\0' )
 5088              		.loc 1 1396 0
 5089 000e BB68     		ldr	r3, [r7, #8]
 5090 0010 1B78     		ldrb	r3, [r3]	@ zero_extendqisi2
 5091 0012 002B     		cmp	r3, #0
 5092 0014 06D1     		bne	.L261
1397:u8glib_arm_v1.18.1\src/u8g_font.c ****   {
1398:u8glib_arm_v1.18.1\src/u8g_font.c ****     *width= 0;
 5093              		.loc 1 1398 0
 5094 0016 3B6A     		ldr	r3, [r7, #32]
 5095 0018 0022     		movs	r2, #0
 5096 001a 1A70     		strb	r2, [r3]
1399:u8glib_arm_v1.18.1\src/u8g_font.c ****     *height = 0;
 5097              		.loc 1 1399 0
 5098 001c 7B6A     		ldr	r3, [r7, #36]
 5099 001e 0022     		movs	r2, #0
 5100 0020 1A70     		strb	r2, [r3]
 5101 0022 13E0     		b	.L260
 5102              	.L261:
1400:u8glib_arm_v1.18.1\src/u8g_font.c ****     return;
1401:u8glib_arm_v1.18.1\src/u8g_font.c ****   }
1402:u8glib_arm_v1.18.1\src/u8g_font.c ****   
1403:u8glib_arm_v1.18.1\src/u8g_font.c ****   u8g_font_calc_str_min_box(u8g, s, &buf);
 5103              		.loc 1 1403 0
 5104 0024 07F11003 		add	r3, r7, #16
 5105 0028 F868     		ldr	r0, [r7, #12]
 5106 002a B968     		ldr	r1, [r7, #8]
 5107 002c 1A46     		mov	r2, r3
 5108 002e FFF7FEFF 		bl	u8g_font_calc_str_min_box
1404:u8glib_arm_v1.18.1\src/u8g_font.c ****   u8g_font_get_str_box_fill_args(u8g, s, &buf, x, y, width, height);
 5109              		.loc 1 1404 0
 5110 0032 07F11002 		add	r2, r7, #16
 5111 0036 3B68     		ldr	r3, [r7]
 5112 0038 0093     		str	r3, [sp]
 5113 003a 3B6A     		ldr	r3, [r7, #32]
 5114 003c 0193     		str	r3, [sp, #4]
 5115 003e 7B6A     		ldr	r3, [r7, #36]
 5116 0040 0293     		str	r3, [sp, #8]
 5117 0042 F868     		ldr	r0, [r7, #12]
 5118 0044 B968     		ldr	r1, [r7, #8]
 5119 0046 7B68     		ldr	r3, [r7, #4]
 5120 0048 FFF7FEFF 		bl	u8g_font_get_str_box_fill_args
 5121              	.L260:
1405:u8glib_arm_v1.18.1\src/u8g_font.c **** }
 5122              		.loc 1 1405 0
 5123 004c 1837     		adds	r7, r7, #24
ARM GAS  C:\Users\KJA\AppData\Local\Temp\ccevgiJT.s 			page 116


 5124              		.cfi_def_cfa_offset 8
 5125 004e BD46     		mov	sp, r7
 5126              		.cfi_def_cfa_register 13
 5127              		@ sp needed
 5128 0050 80BD     		pop	{r7, pc}
 5129              		.cfi_endproc
 5130              	.LFE76:
 5131              		.size	u8g_GetStrMinBox, .-u8g_GetStrMinBox
 5132 0052 00BF     		.section	.text.u8g_GetStrAMinBox,"ax",%progbits
 5133              		.align	2
 5134              		.global	u8g_GetStrAMinBox
 5135              		.thumb
 5136              		.thumb_func
 5137              		.type	u8g_GetStrAMinBox, %function
 5138              	u8g_GetStrAMinBox:
 5139              	.LFB77:
1406:u8glib_arm_v1.18.1\src/u8g_font.c **** 
1407:u8glib_arm_v1.18.1\src/u8g_font.c **** 
1408:u8glib_arm_v1.18.1\src/u8g_font.c **** void u8g_GetStrAMinBox(u8g_t *u8g, const char *s, u8g_uint_t *x, u8g_uint_t *y, u8g_uint_t *width, 
1409:u8glib_arm_v1.18.1\src/u8g_font.c **** {
 5140              		.loc 1 1409 0
 5141              		.cfi_startproc
 5142              		@ args = 8, pretend = 0, frame = 24
 5143              		@ frame_needed = 1, uses_anonymous_args = 0
 5144 0000 80B5     		push	{r7, lr}
 5145              		.cfi_def_cfa_offset 8
 5146              		.cfi_offset 7, -8
 5147              		.cfi_offset 14, -4
 5148 0002 8AB0     		sub	sp, sp, #40
 5149              		.cfi_def_cfa_offset 48
 5150 0004 04AF     		add	r7, sp, #16
 5151              		.cfi_def_cfa 7, 32
 5152 0006 F860     		str	r0, [r7, #12]
 5153 0008 B960     		str	r1, [r7, #8]
 5154 000a 7A60     		str	r2, [r7, #4]
 5155 000c 3B60     		str	r3, [r7]
1410:u8glib_arm_v1.18.1\src/u8g_font.c ****   u8g_str_size_t buf;
1411:u8glib_arm_v1.18.1\src/u8g_font.c ****   uint8_t cap_a;
1412:u8glib_arm_v1.18.1\src/u8g_font.c ****   
1413:u8glib_arm_v1.18.1\src/u8g_font.c ****   if ( *s == '\0' )
 5156              		.loc 1 1413 0
 5157 000e BB68     		ldr	r3, [r7, #8]
 5158 0010 1B78     		ldrb	r3, [r3]	@ zero_extendqisi2
 5159 0012 002B     		cmp	r3, #0
 5160 0014 06D1     		bne	.L264
1414:u8glib_arm_v1.18.1\src/u8g_font.c ****   {
1415:u8glib_arm_v1.18.1\src/u8g_font.c ****     *width= 0;
 5161              		.loc 1 1415 0
 5162 0016 3B6A     		ldr	r3, [r7, #32]
 5163 0018 0022     		movs	r2, #0
 5164 001a 1A70     		strb	r2, [r3]
1416:u8glib_arm_v1.18.1\src/u8g_font.c ****     *height = 0;
 5165              		.loc 1 1416 0
 5166 001c 7B6A     		ldr	r3, [r7, #36]
 5167 001e 0022     		movs	r2, #0
 5168 0020 1A70     		strb	r2, [r3]
 5169 0022 21E0     		b	.L263
ARM GAS  C:\Users\KJA\AppData\Local\Temp\ccevgiJT.s 			page 117


 5170              	.L264:
1417:u8glib_arm_v1.18.1\src/u8g_font.c ****     return;
1418:u8glib_arm_v1.18.1\src/u8g_font.c ****   }
1419:u8glib_arm_v1.18.1\src/u8g_font.c ****   
1420:u8glib_arm_v1.18.1\src/u8g_font.c ****   cap_a = u8g_font_GetCapitalAHeight(u8g->font);
 5171              		.loc 1 1420 0
 5172 0024 FB68     		ldr	r3, [r7, #12]
 5173 0026 9B68     		ldr	r3, [r3, #8]
 5174 0028 1846     		mov	r0, r3
 5175 002a FFF7FEFF 		bl	u8g_font_GetCapitalAHeight
 5176 002e 0346     		mov	r3, r0
 5177 0030 FB75     		strb	r3, [r7, #23]
1421:u8glib_arm_v1.18.1\src/u8g_font.c ****   u8g_font_calc_str_min_box(u8g, s, &buf);
 5178              		.loc 1 1421 0
 5179 0032 07F11003 		add	r3, r7, #16
 5180 0036 F868     		ldr	r0, [r7, #12]
 5181 0038 B968     		ldr	r1, [r7, #8]
 5182 003a 1A46     		mov	r2, r3
 5183 003c FFF7FEFF 		bl	u8g_font_calc_str_min_box
1422:u8glib_arm_v1.18.1\src/u8g_font.c ****   if ( buf.y_max < cap_a )
 5184              		.loc 1 1422 0
 5185 0040 7B7C     		ldrb	r3, [r7, #17]	@ zero_extendqisi2
 5186 0042 5AB2     		sxtb	r2, r3
 5187 0044 FB7D     		ldrb	r3, [r7, #23]	@ zero_extendqisi2
 5188 0046 9A42     		cmp	r2, r3
 5189 0048 01DA     		bge	.L266
1423:u8glib_arm_v1.18.1\src/u8g_font.c ****     buf.y_max = cap_a;
 5190              		.loc 1 1423 0
 5191 004a FB7D     		ldrb	r3, [r7, #23]	@ zero_extendqisi2
 5192 004c 7B74     		strb	r3, [r7, #17]
 5193              	.L266:
1424:u8glib_arm_v1.18.1\src/u8g_font.c ****   u8g_font_get_str_box_fill_args(u8g, s, &buf, x, y, width, height);
 5194              		.loc 1 1424 0
 5195 004e 07F11002 		add	r2, r7, #16
 5196 0052 3B68     		ldr	r3, [r7]
 5197 0054 0093     		str	r3, [sp]
 5198 0056 3B6A     		ldr	r3, [r7, #32]
 5199 0058 0193     		str	r3, [sp, #4]
 5200 005a 7B6A     		ldr	r3, [r7, #36]
 5201 005c 0293     		str	r3, [sp, #8]
 5202 005e F868     		ldr	r0, [r7, #12]
 5203 0060 B968     		ldr	r1, [r7, #8]
 5204 0062 7B68     		ldr	r3, [r7, #4]
 5205 0064 FFF7FEFF 		bl	u8g_font_get_str_box_fill_args
 5206              	.L263:
1425:u8glib_arm_v1.18.1\src/u8g_font.c **** }
 5207              		.loc 1 1425 0
 5208 0068 1837     		adds	r7, r7, #24
 5209              		.cfi_def_cfa_offset 8
 5210 006a BD46     		mov	sp, r7
 5211              		.cfi_def_cfa_register 13
 5212              		@ sp needed
 5213 006c 80BD     		pop	{r7, pc}
 5214              		.cfi_endproc
 5215              	.LFE77:
 5216              		.size	u8g_GetStrAMinBox, .-u8g_GetStrAMinBox
 5217 006e 00BF     		.section	.text.u8g_SetFont,"ax",%progbits
ARM GAS  C:\Users\KJA\AppData\Local\Temp\ccevgiJT.s 			page 118


 5218              		.align	2
 5219              		.global	u8g_SetFont
 5220              		.thumb
 5221              		.thumb_func
 5222              		.type	u8g_SetFont, %function
 5223              	u8g_SetFont:
 5224              	.LFB78:
1426:u8glib_arm_v1.18.1\src/u8g_font.c **** 
1427:u8glib_arm_v1.18.1\src/u8g_font.c **** void u8g_SetFont(u8g_t *u8g, const u8g_fntpgm_uint8_t  *font)
1428:u8glib_arm_v1.18.1\src/u8g_font.c **** {
 5225              		.loc 1 1428 0
 5226              		.cfi_startproc
 5227              		@ args = 0, pretend = 0, frame = 8
 5228              		@ frame_needed = 1, uses_anonymous_args = 0
 5229 0000 80B5     		push	{r7, lr}
 5230              		.cfi_def_cfa_offset 8
 5231              		.cfi_offset 7, -8
 5232              		.cfi_offset 14, -4
 5233 0002 82B0     		sub	sp, sp, #8
 5234              		.cfi_def_cfa_offset 16
 5235 0004 00AF     		add	r7, sp, #0
 5236              		.cfi_def_cfa_register 7
 5237 0006 7860     		str	r0, [r7, #4]
 5238 0008 3960     		str	r1, [r7]
1429:u8glib_arm_v1.18.1\src/u8g_font.c ****   if ( u8g->font != font )
 5239              		.loc 1 1429 0
 5240 000a 7B68     		ldr	r3, [r7, #4]
 5241 000c 9A68     		ldr	r2, [r3, #8]
 5242 000e 3B68     		ldr	r3, [r7]
 5243 0010 9A42     		cmp	r2, r3
 5244 0012 08D0     		beq	.L267
1430:u8glib_arm_v1.18.1\src/u8g_font.c ****   {
1431:u8glib_arm_v1.18.1\src/u8g_font.c ****     u8g->font = font;
 5245              		.loc 1 1431 0
 5246 0014 7B68     		ldr	r3, [r7, #4]
 5247 0016 3A68     		ldr	r2, [r7]
 5248 0018 9A60     		str	r2, [r3, #8]
1432:u8glib_arm_v1.18.1\src/u8g_font.c ****     u8g_UpdateRefHeight(u8g);
 5249              		.loc 1 1432 0
 5250 001a 7868     		ldr	r0, [r7, #4]
 5251 001c FFF7FEFF 		bl	u8g_UpdateRefHeight
1433:u8glib_arm_v1.18.1\src/u8g_font.c ****     u8g_SetFontPosBaseline(u8g);
 5252              		.loc 1 1433 0
 5253 0020 7868     		ldr	r0, [r7, #4]
 5254 0022 FFF7FEFF 		bl	u8g_SetFontPosBaseline
 5255              	.L267:
1434:u8glib_arm_v1.18.1\src/u8g_font.c ****   }
1435:u8glib_arm_v1.18.1\src/u8g_font.c **** }
 5256              		.loc 1 1435 0
 5257 0026 0837     		adds	r7, r7, #8
 5258              		.cfi_def_cfa_offset 8
 5259 0028 BD46     		mov	sp, r7
 5260              		.cfi_def_cfa_register 13
 5261              		@ sp needed
 5262 002a 80BD     		pop	{r7, pc}
 5263              		.cfi_endproc
 5264              	.LFE78:
ARM GAS  C:\Users\KJA\AppData\Local\Temp\ccevgiJT.s 			page 119


 5265              		.size	u8g_SetFont, .-u8g_SetFont
 5266              		.section	.text.u8g_draw_aa_glyph,"ax",%progbits
 5267              		.align	2
 5268              		.global	u8g_draw_aa_glyph
 5269              		.thumb
 5270              		.thumb_func
 5271              		.type	u8g_draw_aa_glyph, %function
 5272              	u8g_draw_aa_glyph:
 5273              	.LFB79:
1436:u8glib_arm_v1.18.1\src/u8g_font.c **** 
1437:u8glib_arm_v1.18.1\src/u8g_font.c **** /*========================================================================*/
1438:u8glib_arm_v1.18.1\src/u8g_font.c **** /* anti aliasing fonts */
1439:u8glib_arm_v1.18.1\src/u8g_font.c **** 
1440:u8glib_arm_v1.18.1\src/u8g_font.c **** int8_t u8g_draw_aa_glyph(u8g_t *u8g, u8g_uint_t x, u8g_uint_t y, uint8_t encoding)
1441:u8glib_arm_v1.18.1\src/u8g_font.c **** {
 5274              		.loc 1 1441 0
 5275              		.cfi_startproc
 5276              		@ args = 0, pretend = 0, frame = 24
 5277              		@ frame_needed = 1, uses_anonymous_args = 0
 5278 0000 90B5     		push	{r4, r7, lr}
 5279              		.cfi_def_cfa_offset 12
 5280              		.cfi_offset 4, -12
 5281              		.cfi_offset 7, -8
 5282              		.cfi_offset 14, -4
 5283 0002 89B0     		sub	sp, sp, #36
 5284              		.cfi_def_cfa_offset 48
 5285 0004 02AF     		add	r7, sp, #8
 5286              		.cfi_def_cfa 7, 40
 5287 0006 7860     		str	r0, [r7, #4]
 5288 0008 0846     		mov	r0, r1
 5289 000a 1146     		mov	r1, r2
 5290 000c 1A46     		mov	r2, r3
 5291 000e 0346     		mov	r3, r0
 5292 0010 FB70     		strb	r3, [r7, #3]
 5293 0012 0B46     		mov	r3, r1
 5294 0014 BB70     		strb	r3, [r7, #2]
 5295 0016 1346     		mov	r3, r2
 5296 0018 7B70     		strb	r3, [r7, #1]
 5297              	.LBB6:
1442:u8glib_arm_v1.18.1\src/u8g_font.c ****   const u8g_pgm_uint8_t *data;
1443:u8glib_arm_v1.18.1\src/u8g_font.c ****   uint8_t w, h;
1444:u8glib_arm_v1.18.1\src/u8g_font.c ****   uint8_t i, j;
1445:u8glib_arm_v1.18.1\src/u8g_font.c ****   u8g_uint_t ix, iy;
1446:u8glib_arm_v1.18.1\src/u8g_font.c **** 
1447:u8glib_arm_v1.18.1\src/u8g_font.c ****   {
1448:u8glib_arm_v1.18.1\src/u8g_font.c ****     u8g_glyph_t g = u8g_GetGlyph(u8g, encoding);
 5298              		.loc 1 1448 0
 5299 001a 7B78     		ldrb	r3, [r7, #1]	@ zero_extendqisi2
 5300 001c 7868     		ldr	r0, [r7, #4]
 5301 001e 1946     		mov	r1, r3
 5302 0020 FFF7FEFF 		bl	u8g_GetGlyph
 5303 0024 F860     		str	r0, [r7, #12]
1449:u8glib_arm_v1.18.1\src/u8g_font.c ****     if ( g == NULL  )
 5304              		.loc 1 1449 0
 5305 0026 FB68     		ldr	r3, [r7, #12]
 5306 0028 002B     		cmp	r3, #0
 5307 002a 01D1     		bne	.L270
ARM GAS  C:\Users\KJA\AppData\Local\Temp\ccevgiJT.s 			page 120


1450:u8glib_arm_v1.18.1\src/u8g_font.c ****       return 0;
 5308              		.loc 1 1450 0
 5309 002c 0023     		movs	r3, #0
 5310 002e 69E0     		b	.L271
 5311              	.L270:
1451:u8glib_arm_v1.18.1\src/u8g_font.c ****     data = u8g_font_GetGlyphDataStart(u8g->font, g);
 5312              		.loc 1 1451 0
 5313 0030 7B68     		ldr	r3, [r7, #4]
 5314 0032 9B68     		ldr	r3, [r3, #8]
 5315 0034 1846     		mov	r0, r3
 5316 0036 F968     		ldr	r1, [r7, #12]
 5317 0038 FFF7FEFF 		bl	u8g_font_GetGlyphDataStart
 5318 003c 7861     		str	r0, [r7, #20]
 5319              	.LBE6:
1452:u8glib_arm_v1.18.1\src/u8g_font.c ****   }
1453:u8glib_arm_v1.18.1\src/u8g_font.c ****   
1454:u8glib_arm_v1.18.1\src/u8g_font.c ****   w = u8g->glyph_width;
 5320              		.loc 1 1454 0
 5321 003e 7B68     		ldr	r3, [r7, #4]
 5322 0040 DB7F     		ldrb	r3, [r3, #31]
 5323 0042 FB72     		strb	r3, [r7, #11]
1455:u8glib_arm_v1.18.1\src/u8g_font.c ****   h = u8g->glyph_height;
 5324              		.loc 1 1455 0
 5325 0044 7B68     		ldr	r3, [r7, #4]
 5326 0046 93F82030 		ldrb	r3, [r3, #32]
 5327 004a BB72     		strb	r3, [r7, #10]
1456:u8glib_arm_v1.18.1\src/u8g_font.c ****   
1457:u8glib_arm_v1.18.1\src/u8g_font.c ****   x += u8g->glyph_x;
 5328              		.loc 1 1457 0
 5329 004c 7B68     		ldr	r3, [r7, #4]
 5330 004e 5B7F     		ldrb	r3, [r3, #29]	@ zero_extendqisi2
 5331 0050 DAB2     		uxtb	r2, r3
 5332 0052 FB78     		ldrb	r3, [r7, #3]
 5333 0054 1344     		add	r3, r3, r2
 5334 0056 FB70     		strb	r3, [r7, #3]
1458:u8glib_arm_v1.18.1\src/u8g_font.c ****   y -= u8g->glyph_y;
 5335              		.loc 1 1458 0
 5336 0058 7B68     		ldr	r3, [r7, #4]
 5337 005a 9B7F     		ldrb	r3, [r3, #30]	@ zero_extendqisi2
 5338 005c DBB2     		uxtb	r3, r3
 5339 005e BA78     		ldrb	r2, [r7, #2]
 5340 0060 D31A     		subs	r3, r2, r3
 5341 0062 BB70     		strb	r3, [r7, #2]
1459:u8glib_arm_v1.18.1\src/u8g_font.c ****   y--;
 5342              		.loc 1 1459 0
 5343 0064 BB78     		ldrb	r3, [r7, #2]	@ zero_extendqisi2
 5344 0066 013B     		subs	r3, r3, #1
 5345 0068 BB70     		strb	r3, [r7, #2]
1460:u8glib_arm_v1.18.1\src/u8g_font.c ****   
1461:u8glib_arm_v1.18.1\src/u8g_font.c ****   if ( u8g_IsBBXIntersection(u8g, x, y-h+1, w, h) == 0 )
 5346              		.loc 1 1461 0
 5347 006a BA78     		ldrb	r2, [r7, #2]
 5348 006c BB7A     		ldrb	r3, [r7, #10]
 5349 006e D31A     		subs	r3, r2, r3
 5350 0070 DBB2     		uxtb	r3, r3
 5351 0072 0133     		adds	r3, r3, #1
 5352 0074 DAB2     		uxtb	r2, r3
ARM GAS  C:\Users\KJA\AppData\Local\Temp\ccevgiJT.s 			page 121


 5353 0076 F978     		ldrb	r1, [r7, #3]	@ zero_extendqisi2
 5354 0078 FC7A     		ldrb	r4, [r7, #11]	@ zero_extendqisi2
 5355 007a BB7A     		ldrb	r3, [r7, #10]	@ zero_extendqisi2
 5356 007c 0093     		str	r3, [sp]
 5357 007e 7868     		ldr	r0, [r7, #4]
 5358 0080 2346     		mov	r3, r4
 5359 0082 FFF7FEFF 		bl	u8g_IsBBXIntersection
 5360 0086 0346     		mov	r3, r0
 5361 0088 002B     		cmp	r3, #0
 5362 008a 02D1     		bne	.L272
1462:u8glib_arm_v1.18.1\src/u8g_font.c ****     return u8g->glyph_dx;
 5363              		.loc 1 1462 0
 5364 008c 7B68     		ldr	r3, [r7, #4]
 5365 008e 1B7F     		ldrb	r3, [r3, #28]	@ zero_extendqisi2
 5366 0090 38E0     		b	.L271
 5367              	.L272:
1463:u8glib_arm_v1.18.1\src/u8g_font.c **** 
1464:u8glib_arm_v1.18.1\src/u8g_font.c ****   /* now, w is reused as bytes per line */
1465:u8glib_arm_v1.18.1\src/u8g_font.c ****   w += 3;
 5368              		.loc 1 1465 0
 5369 0092 FB7A     		ldrb	r3, [r7, #11]
 5370 0094 0333     		adds	r3, r3, #3
 5371 0096 FB72     		strb	r3, [r7, #11]
1466:u8glib_arm_v1.18.1\src/u8g_font.c ****   w /= 4;
 5372              		.loc 1 1466 0
 5373 0098 FB7A     		ldrb	r3, [r7, #11]	@ zero_extendqisi2
 5374 009a 9B08     		lsrs	r3, r3, #2
 5375 009c FB72     		strb	r3, [r7, #11]
1467:u8glib_arm_v1.18.1\src/u8g_font.c ****   
1468:u8glib_arm_v1.18.1\src/u8g_font.c ****   iy = y;
 5376              		.loc 1 1468 0
 5377 009e BB78     		ldrb	r3, [r7, #2]
 5378 00a0 3B74     		strb	r3, [r7, #16]
1469:u8glib_arm_v1.18.1\src/u8g_font.c ****   iy -= h;
 5379              		.loc 1 1469 0
 5380 00a2 3A7C     		ldrb	r2, [r7, #16]
 5381 00a4 BB7A     		ldrb	r3, [r7, #10]
 5382 00a6 D31A     		subs	r3, r2, r3
 5383 00a8 3B74     		strb	r3, [r7, #16]
1470:u8glib_arm_v1.18.1\src/u8g_font.c ****   iy++;
 5384              		.loc 1 1470 0
 5385 00aa 3B7C     		ldrb	r3, [r7, #16]	@ zero_extendqisi2
 5386 00ac 0133     		adds	r3, r3, #1
 5387 00ae 3B74     		strb	r3, [r7, #16]
1471:u8glib_arm_v1.18.1\src/u8g_font.c **** 
1472:u8glib_arm_v1.18.1\src/u8g_font.c ****   for( j = 0; j < h; j++ )
 5388              		.loc 1 1472 0
 5389 00b0 0023     		movs	r3, #0
 5390 00b2 BB74     		strb	r3, [r7, #18]
 5391 00b4 20E0     		b	.L273
 5392              	.L276:
1473:u8glib_arm_v1.18.1\src/u8g_font.c ****   {
1474:u8glib_arm_v1.18.1\src/u8g_font.c ****     ix = x;
 5393              		.loc 1 1474 0
 5394 00b6 FB78     		ldrb	r3, [r7, #3]
 5395 00b8 7B74     		strb	r3, [r7, #17]
1475:u8glib_arm_v1.18.1\src/u8g_font.c ****     for( i = 0; i < w; i++ )
ARM GAS  C:\Users\KJA\AppData\Local\Temp\ccevgiJT.s 			page 122


 5396              		.loc 1 1475 0
 5397 00ba 0023     		movs	r3, #0
 5398 00bc FB74     		strb	r3, [r7, #19]
 5399 00be 11E0     		b	.L274
 5400              	.L275:
1476:u8glib_arm_v1.18.1\src/u8g_font.c ****     {
1477:u8glib_arm_v1.18.1\src/u8g_font.c ****       u8g_Draw4TPixel(u8g, ix, iy, 0, u8g_pgm_read(data));
 5401              		.loc 1 1477 0 discriminator 3
 5402 00c0 7B69     		ldr	r3, [r7, #20]
 5403 00c2 1B78     		ldrb	r3, [r3]	@ zero_extendqisi2
 5404 00c4 797C     		ldrb	r1, [r7, #17]	@ zero_extendqisi2
 5405 00c6 3A7C     		ldrb	r2, [r7, #16]	@ zero_extendqisi2
 5406 00c8 0093     		str	r3, [sp]
 5407 00ca 7868     		ldr	r0, [r7, #4]
 5408 00cc 0023     		movs	r3, #0
 5409 00ce FFF7FEFF 		bl	u8g_Draw4TPixel
1478:u8glib_arm_v1.18.1\src/u8g_font.c ****       data++;
 5410              		.loc 1 1478 0 discriminator 3
 5411 00d2 7B69     		ldr	r3, [r7, #20]
 5412 00d4 0133     		adds	r3, r3, #1
 5413 00d6 7B61     		str	r3, [r7, #20]
1479:u8glib_arm_v1.18.1\src/u8g_font.c ****       ix+=4;
 5414              		.loc 1 1479 0 discriminator 3
 5415 00d8 7B7C     		ldrb	r3, [r7, #17]
 5416 00da 0433     		adds	r3, r3, #4
 5417 00dc 7B74     		strb	r3, [r7, #17]
1475:u8glib_arm_v1.18.1\src/u8g_font.c ****     {
 5418              		.loc 1 1475 0 discriminator 3
 5419 00de FB7C     		ldrb	r3, [r7, #19]	@ zero_extendqisi2
 5420 00e0 0133     		adds	r3, r3, #1
 5421 00e2 FB74     		strb	r3, [r7, #19]
 5422              	.L274:
1475:u8glib_arm_v1.18.1\src/u8g_font.c ****     {
 5423              		.loc 1 1475 0 is_stmt 0 discriminator 1
 5424 00e4 FA7C     		ldrb	r2, [r7, #19]	@ zero_extendqisi2
 5425 00e6 FB7A     		ldrb	r3, [r7, #11]	@ zero_extendqisi2
 5426 00e8 9A42     		cmp	r2, r3
 5427 00ea E9D3     		bcc	.L275
1480:u8glib_arm_v1.18.1\src/u8g_font.c ****     }
1481:u8glib_arm_v1.18.1\src/u8g_font.c ****     iy++;
 5428              		.loc 1 1481 0 is_stmt 1 discriminator 2
 5429 00ec 3B7C     		ldrb	r3, [r7, #16]	@ zero_extendqisi2
 5430 00ee 0133     		adds	r3, r3, #1
 5431 00f0 3B74     		strb	r3, [r7, #16]
1472:u8glib_arm_v1.18.1\src/u8g_font.c ****   {
 5432              		.loc 1 1472 0 discriminator 2
 5433 00f2 BB7C     		ldrb	r3, [r7, #18]	@ zero_extendqisi2
 5434 00f4 0133     		adds	r3, r3, #1
 5435 00f6 BB74     		strb	r3, [r7, #18]
 5436              	.L273:
1472:u8glib_arm_v1.18.1\src/u8g_font.c ****   {
 5437              		.loc 1 1472 0 is_stmt 0 discriminator 1
 5438 00f8 BA7C     		ldrb	r2, [r7, #18]	@ zero_extendqisi2
 5439 00fa BB7A     		ldrb	r3, [r7, #10]	@ zero_extendqisi2
 5440 00fc 9A42     		cmp	r2, r3
 5441 00fe DAD3     		bcc	.L276
1482:u8glib_arm_v1.18.1\src/u8g_font.c ****   }
ARM GAS  C:\Users\KJA\AppData\Local\Temp\ccevgiJT.s 			page 123


1483:u8glib_arm_v1.18.1\src/u8g_font.c ****   return u8g->glyph_dx;
 5442              		.loc 1 1483 0 is_stmt 1
 5443 0100 7B68     		ldr	r3, [r7, #4]
 5444 0102 1B7F     		ldrb	r3, [r3, #28]	@ zero_extendqisi2
 5445              	.L271:
 5446 0104 5BB2     		sxtb	r3, r3
1484:u8glib_arm_v1.18.1\src/u8g_font.c **** }
 5447              		.loc 1 1484 0
 5448 0106 1846     		mov	r0, r3
 5449 0108 1C37     		adds	r7, r7, #28
 5450              		.cfi_def_cfa_offset 12
 5451 010a BD46     		mov	sp, r7
 5452              		.cfi_def_cfa_register 13
 5453              		@ sp needed
 5454 010c 90BD     		pop	{r4, r7, pc}
 5455              		.cfi_endproc
 5456              	.LFE79:
 5457              		.size	u8g_draw_aa_glyph, .-u8g_draw_aa_glyph
 5458 010e 00BF     		.section	.text.u8g_DrawAAGlyph,"ax",%progbits
 5459              		.align	2
 5460              		.global	u8g_DrawAAGlyph
 5461              		.thumb
 5462              		.thumb_func
 5463              		.type	u8g_DrawAAGlyph, %function
 5464              	u8g_DrawAAGlyph:
 5465              	.LFB80:
1485:u8glib_arm_v1.18.1\src/u8g_font.c **** 
1486:u8glib_arm_v1.18.1\src/u8g_font.c **** int8_t u8g_DrawAAGlyph(u8g_t *u8g, u8g_uint_t x, u8g_uint_t y, uint8_t encoding)
1487:u8glib_arm_v1.18.1\src/u8g_font.c **** {
 5466              		.loc 1 1487 0
 5467              		.cfi_startproc
 5468              		@ args = 0, pretend = 0, frame = 8
 5469              		@ frame_needed = 1, uses_anonymous_args = 0
 5470 0000 80B5     		push	{r7, lr}
 5471              		.cfi_def_cfa_offset 8
 5472              		.cfi_offset 7, -8
 5473              		.cfi_offset 14, -4
 5474 0002 82B0     		sub	sp, sp, #8
 5475              		.cfi_def_cfa_offset 16
 5476 0004 00AF     		add	r7, sp, #0
 5477              		.cfi_def_cfa_register 7
 5478 0006 7860     		str	r0, [r7, #4]
 5479 0008 0846     		mov	r0, r1
 5480 000a 1146     		mov	r1, r2
 5481 000c 1A46     		mov	r2, r3
 5482 000e 0346     		mov	r3, r0
 5483 0010 FB70     		strb	r3, [r7, #3]
 5484 0012 0B46     		mov	r3, r1
 5485 0014 BB70     		strb	r3, [r7, #2]
 5486 0016 1346     		mov	r3, r2
 5487 0018 7B70     		strb	r3, [r7, #1]
1488:u8glib_arm_v1.18.1\src/u8g_font.c ****   y += u8g->font_calc_vref(u8g);
 5488              		.loc 1 1488 0
 5489 001a 7B68     		ldr	r3, [r7, #4]
 5490 001c 5B6A     		ldr	r3, [r3, #36]
 5491 001e 7868     		ldr	r0, [r7, #4]
 5492 0020 9847     		blx	r3
ARM GAS  C:\Users\KJA\AppData\Local\Temp\ccevgiJT.s 			page 124


 5493 0022 0346     		mov	r3, r0
 5494 0024 1A46     		mov	r2, r3
 5495 0026 BB78     		ldrb	r3, [r7, #2]
 5496 0028 1344     		add	r3, r3, r2
 5497 002a BB70     		strb	r3, [r7, #2]
1489:u8glib_arm_v1.18.1\src/u8g_font.c ****   return u8g_draw_aa_glyph(u8g, x, y, encoding);
 5498              		.loc 1 1489 0
 5499 002c F978     		ldrb	r1, [r7, #3]	@ zero_extendqisi2
 5500 002e BA78     		ldrb	r2, [r7, #2]	@ zero_extendqisi2
 5501 0030 7B78     		ldrb	r3, [r7, #1]	@ zero_extendqisi2
 5502 0032 7868     		ldr	r0, [r7, #4]
 5503 0034 FFF7FEFF 		bl	u8g_draw_aa_glyph
 5504 0038 0346     		mov	r3, r0
1490:u8glib_arm_v1.18.1\src/u8g_font.c **** }
 5505              		.loc 1 1490 0
 5506 003a 1846     		mov	r0, r3
 5507 003c 0837     		adds	r7, r7, #8
 5508              		.cfi_def_cfa_offset 8
 5509 003e BD46     		mov	sp, r7
 5510              		.cfi_def_cfa_register 13
 5511              		@ sp needed
 5512 0040 80BD     		pop	{r7, pc}
 5513              		.cfi_endproc
 5514              	.LFE80:
 5515              		.size	u8g_DrawAAGlyph, .-u8g_DrawAAGlyph
 5516 0042 00BF     		.section	.text.u8g_DrawAAStr,"ax",%progbits
 5517              		.align	2
 5518              		.global	u8g_DrawAAStr
 5519              		.thumb
 5520              		.thumb_func
 5521              		.type	u8g_DrawAAStr, %function
 5522              	u8g_DrawAAStr:
 5523              	.LFB81:
1491:u8glib_arm_v1.18.1\src/u8g_font.c **** 
1492:u8glib_arm_v1.18.1\src/u8g_font.c **** u8g_uint_t u8g_DrawAAStr(u8g_t *u8g, u8g_uint_t x, u8g_uint_t y, const char *s)
1493:u8glib_arm_v1.18.1\src/u8g_font.c **** {
 5524              		.loc 1 1493 0
 5525              		.cfi_startproc
 5526              		@ args = 0, pretend = 0, frame = 24
 5527              		@ frame_needed = 1, uses_anonymous_args = 0
 5528 0000 80B5     		push	{r7, lr}
 5529              		.cfi_def_cfa_offset 8
 5530              		.cfi_offset 7, -8
 5531              		.cfi_offset 14, -4
 5532 0002 86B0     		sub	sp, sp, #24
 5533              		.cfi_def_cfa_offset 32
 5534 0004 00AF     		add	r7, sp, #0
 5535              		.cfi_def_cfa_register 7
 5536 0006 F860     		str	r0, [r7, #12]
 5537 0008 7B60     		str	r3, [r7, #4]
 5538 000a 0B46     		mov	r3, r1
 5539 000c FB72     		strb	r3, [r7, #11]
 5540 000e 1346     		mov	r3, r2
 5541 0010 BB72     		strb	r3, [r7, #10]
1494:u8glib_arm_v1.18.1\src/u8g_font.c ****   u8g_uint_t t = 0;
 5542              		.loc 1 1494 0
 5543 0012 0023     		movs	r3, #0
ARM GAS  C:\Users\KJA\AppData\Local\Temp\ccevgiJT.s 			page 125


 5544 0014 FB75     		strb	r3, [r7, #23]
1495:u8glib_arm_v1.18.1\src/u8g_font.c ****   int8_t d;
1496:u8glib_arm_v1.18.1\src/u8g_font.c **** 
1497:u8glib_arm_v1.18.1\src/u8g_font.c ****   if ( u8g_font_GetFormat(u8g->font)  != 2 )
 5545              		.loc 1 1497 0
 5546 0016 FB68     		ldr	r3, [r7, #12]
 5547 0018 9B68     		ldr	r3, [r3, #8]
 5548 001a 1846     		mov	r0, r3
 5549 001c FFF7FEFF 		bl	u8g_font_GetFormat
 5550 0020 0346     		mov	r3, r0
 5551 0022 022B     		cmp	r3, #2
 5552 0024 01D0     		beq	.L280
1498:u8glib_arm_v1.18.1\src/u8g_font.c ****     return 0;
 5553              		.loc 1 1498 0
 5554 0026 0023     		movs	r3, #0
 5555 0028 22E0     		b	.L281
 5556              	.L280:
1499:u8glib_arm_v1.18.1\src/u8g_font.c ****   //u8g_uint_t u8g_GetStrWidth(u8g, s);
1500:u8glib_arm_v1.18.1\src/u8g_font.c ****   //u8g_font_GetFontAscent(u8g->font)-u8g_font_GetFontDescent(u8g->font);
1501:u8glib_arm_v1.18.1\src/u8g_font.c ****   
1502:u8glib_arm_v1.18.1\src/u8g_font.c ****   y += u8g->font_calc_vref(u8g);
 5557              		.loc 1 1502 0
 5558 002a FB68     		ldr	r3, [r7, #12]
 5559 002c 5B6A     		ldr	r3, [r3, #36]
 5560 002e F868     		ldr	r0, [r7, #12]
 5561 0030 9847     		blx	r3
 5562 0032 0346     		mov	r3, r0
 5563 0034 1A46     		mov	r2, r3
 5564 0036 BB7A     		ldrb	r3, [r7, #10]
 5565 0038 1344     		add	r3, r3, r2
 5566 003a BB72     		strb	r3, [r7, #10]
1503:u8glib_arm_v1.18.1\src/u8g_font.c ****   
1504:u8glib_arm_v1.18.1\src/u8g_font.c ****   while( *s != '\0' )
 5567              		.loc 1 1504 0
 5568 003c 13E0     		b	.L282
 5569              	.L283:
1505:u8glib_arm_v1.18.1\src/u8g_font.c ****   {
1506:u8glib_arm_v1.18.1\src/u8g_font.c ****     d = u8g_draw_aa_glyph(u8g, x, y, *s);
 5570              		.loc 1 1506 0
 5571 003e 7B68     		ldr	r3, [r7, #4]
 5572 0040 1B78     		ldrb	r3, [r3]	@ zero_extendqisi2
 5573 0042 F97A     		ldrb	r1, [r7, #11]	@ zero_extendqisi2
 5574 0044 BA7A     		ldrb	r2, [r7, #10]	@ zero_extendqisi2
 5575 0046 F868     		ldr	r0, [r7, #12]
 5576 0048 FFF7FEFF 		bl	u8g_draw_aa_glyph
 5577 004c 0346     		mov	r3, r0
 5578 004e BB75     		strb	r3, [r7, #22]
1507:u8glib_arm_v1.18.1\src/u8g_font.c ****     x += d;
 5579              		.loc 1 1507 0
 5580 0050 BA7D     		ldrb	r2, [r7, #22]	@ zero_extendqisi2
 5581 0052 FB7A     		ldrb	r3, [r7, #11]
 5582 0054 1344     		add	r3, r3, r2
 5583 0056 FB72     		strb	r3, [r7, #11]
1508:u8glib_arm_v1.18.1\src/u8g_font.c ****     t += d;
 5584              		.loc 1 1508 0
 5585 0058 BA7D     		ldrb	r2, [r7, #22]	@ zero_extendqisi2
 5586 005a FB7D     		ldrb	r3, [r7, #23]
ARM GAS  C:\Users\KJA\AppData\Local\Temp\ccevgiJT.s 			page 126


 5587 005c 1344     		add	r3, r3, r2
 5588 005e FB75     		strb	r3, [r7, #23]
1509:u8glib_arm_v1.18.1\src/u8g_font.c ****     s++;
 5589              		.loc 1 1509 0
 5590 0060 7B68     		ldr	r3, [r7, #4]
 5591 0062 0133     		adds	r3, r3, #1
 5592 0064 7B60     		str	r3, [r7, #4]
 5593              	.L282:
1504:u8glib_arm_v1.18.1\src/u8g_font.c ****   {
 5594              		.loc 1 1504 0
 5595 0066 7B68     		ldr	r3, [r7, #4]
 5596 0068 1B78     		ldrb	r3, [r3]	@ zero_extendqisi2
 5597 006a 002B     		cmp	r3, #0
 5598 006c E7D1     		bne	.L283
1510:u8glib_arm_v1.18.1\src/u8g_font.c ****   }
1511:u8glib_arm_v1.18.1\src/u8g_font.c ****   return t;
 5599              		.loc 1 1511 0
 5600 006e FB7D     		ldrb	r3, [r7, #23]	@ zero_extendqisi2
 5601              	.L281:
1512:u8glib_arm_v1.18.1\src/u8g_font.c **** }
 5602              		.loc 1 1512 0
 5603 0070 1846     		mov	r0, r3
 5604 0072 1837     		adds	r7, r7, #24
 5605              		.cfi_def_cfa_offset 8
 5606 0074 BD46     		mov	sp, r7
 5607              		.cfi_def_cfa_register 13
 5608              		@ sp needed
 5609 0076 80BD     		pop	{r7, pc}
 5610              		.cfi_endproc
 5611              	.LFE81:
 5612              		.size	u8g_DrawAAStr, .-u8g_DrawAAStr
 5613              		.text
 5614              	.Letext0:
 5615              		.file 2 "c:\\program files (x86)\\cypress\\psoc creator\\4.0\\psoc creator\\import\\gnu\\arm\\4.9.
 5616              		.file 3 "c:\\program files (x86)\\cypress\\psoc creator\\4.0\\psoc creator\\import\\gnu\\arm\\4.9.
 5617              		.file 4 "c:\\program files (x86)\\cypress\\psoc creator\\4.0\\psoc creator\\import\\gnu\\arm\\4.9.
 5618              		.file 5 "u8glib_arm_v1.18.1\\src\\u8g.h"
 5619              		.section	.debug_info,"",%progbits
 5620              	.Ldebug_info0:
 5621 0000 B11C0000 		.4byte	0x1cb1
 5622 0004 0400     		.2byte	0x4
 5623 0006 00000000 		.4byte	.Ldebug_abbrev0
 5624 000a 04       		.byte	0x4
 5625 000b 01       		.uleb128 0x1
 5626 000c BD050000 		.4byte	.LASF166
 5627 0010 01       		.byte	0x1
 5628 0011 63010000 		.4byte	.LASF167
 5629 0015 0C040000 		.4byte	.LASF168
 5630 0019 00000000 		.4byte	.Ldebug_ranges0+0
 5631 001d 00000000 		.4byte	0
 5632 0021 00000000 		.4byte	.Ldebug_line0
 5633 0025 02       		.uleb128 0x2
 5634 0026 04       		.byte	0x4
 5635 0027 05       		.byte	0x5
 5636 0028 696E7400 		.ascii	"int\000"
 5637 002c 03       		.uleb128 0x3
 5638 002d 41000000 		.4byte	.LASF1
ARM GAS  C:\Users\KJA\AppData\Local\Temp\ccevgiJT.s 			page 127


 5639 0031 02       		.byte	0x2
 5640 0032 D4       		.byte	0xd4
 5641 0033 37000000 		.4byte	0x37
 5642 0037 04       		.uleb128 0x4
 5643 0038 04       		.byte	0x4
 5644 0039 07       		.byte	0x7
 5645 003a 45030000 		.4byte	.LASF0
 5646 003e 03       		.uleb128 0x3
 5647 003f FA000000 		.4byte	.LASF2
 5648 0043 03       		.byte	0x3
 5649 0044 1B       		.byte	0x1b
 5650 0045 49000000 		.4byte	0x49
 5651 0049 04       		.uleb128 0x4
 5652 004a 01       		.byte	0x1
 5653 004b 06       		.byte	0x6
 5654 004c 57010000 		.4byte	.LASF3
 5655 0050 03       		.uleb128 0x3
 5656 0051 48000000 		.4byte	.LASF4
 5657 0055 03       		.byte	0x3
 5658 0056 1D       		.byte	0x1d
 5659 0057 5B000000 		.4byte	0x5b
 5660 005b 04       		.uleb128 0x4
 5661 005c 01       		.byte	0x1
 5662 005d 08       		.byte	0x8
 5663 005e 32070000 		.4byte	.LASF5
 5664 0062 04       		.uleb128 0x4
 5665 0063 02       		.byte	0x2
 5666 0064 05       		.byte	0x5
 5667 0065 83070000 		.4byte	.LASF6
 5668 0069 03       		.uleb128 0x3
 5669 006a C0080000 		.4byte	.LASF7
 5670 006e 03       		.byte	0x3
 5671 006f 2B       		.byte	0x2b
 5672 0070 74000000 		.4byte	0x74
 5673 0074 04       		.uleb128 0x4
 5674 0075 02       		.byte	0x2
 5675 0076 07       		.byte	0x7
 5676 0077 2A090000 		.4byte	.LASF8
 5677 007b 04       		.uleb128 0x4
 5678 007c 04       		.byte	0x4
 5679 007d 05       		.byte	0x5
 5680 007e E9010000 		.4byte	.LASF9
 5681 0082 04       		.uleb128 0x4
 5682 0083 04       		.byte	0x4
 5683 0084 07       		.byte	0x7
 5684 0085 97030000 		.4byte	.LASF10
 5685 0089 04       		.uleb128 0x4
 5686 008a 08       		.byte	0x8
 5687 008b 05       		.byte	0x5
 5688 008c 49010000 		.4byte	.LASF11
 5689 0090 04       		.uleb128 0x4
 5690 0091 08       		.byte	0x8
 5691 0092 07       		.byte	0x7
 5692 0093 93000000 		.4byte	.LASF12
 5693 0097 03       		.uleb128 0x3
 5694 0098 59090000 		.4byte	.LASF13
 5695 009c 04       		.byte	0x4
ARM GAS  C:\Users\KJA\AppData\Local\Temp\ccevgiJT.s 			page 128


 5696 009d 14       		.byte	0x14
 5697 009e 3E000000 		.4byte	0x3e
 5698 00a2 03       		.uleb128 0x3
 5699 00a3 DF090000 		.4byte	.LASF14
 5700 00a7 04       		.byte	0x4
 5701 00a8 15       		.byte	0x15
 5702 00a9 50000000 		.4byte	0x50
 5703 00ad 03       		.uleb128 0x3
 5704 00ae 62020000 		.4byte	.LASF15
 5705 00b2 04       		.byte	0x4
 5706 00b3 21       		.byte	0x21
 5707 00b4 69000000 		.4byte	0x69
 5708 00b8 03       		.uleb128 0x3
 5709 00b9 5B060000 		.4byte	.LASF16
 5710 00bd 05       		.byte	0x5
 5711 00be 80       		.byte	0x80
 5712 00bf A2000000 		.4byte	0xa2
 5713 00c3 03       		.uleb128 0x3
 5714 00c4 05030000 		.4byte	.LASF17
 5715 00c8 05       		.byte	0x5
 5716 00c9 81       		.byte	0x81
 5717 00ca A2000000 		.4byte	0xa2
 5718 00ce 03       		.uleb128 0x3
 5719 00cf 5C020000 		.4byte	.LASF18
 5720 00d3 05       		.byte	0x5
 5721 00d4 A0       		.byte	0xa0
 5722 00d5 D9000000 		.4byte	0xd9
 5723 00d9 05       		.uleb128 0x5
 5724 00da 3A020000 		.4byte	.LASF45
 5725 00de 3C       		.byte	0x3c
 5726 00df 05       		.byte	0x5
 5727 00e0 4B04     		.2byte	0x44b
 5728 00e2 39020000 		.4byte	0x239
 5729 00e6 06       		.uleb128 0x6
 5730 00e7 D5030000 		.4byte	.LASF19
 5731 00eb 05       		.byte	0x5
 5732 00ec 4D04     		.2byte	0x44d
 5733 00ee 2E030000 		.4byte	0x32e
 5734 00f2 00       		.byte	0
 5735 00f3 06       		.uleb128 0x6
 5736 00f4 970A0000 		.4byte	.LASF20
 5737 00f8 05       		.byte	0x5
 5738 00f9 4E04     		.2byte	0x44e
 5739 00fb 2E030000 		.4byte	0x32e
 5740 00ff 01       		.byte	0x1
 5741 0100 07       		.uleb128 0x7
 5742 0101 64657600 		.ascii	"dev\000"
 5743 0105 05       		.byte	0x5
 5744 0106 5104     		.2byte	0x451
 5745 0108 79030000 		.4byte	0x379
 5746 010c 04       		.byte	0x4
 5747 010d 06       		.uleb128 0x6
 5748 010e 9D090000 		.4byte	.LASF21
 5749 0112 05       		.byte	0x5
 5750 0113 5204     		.2byte	0x452
 5751 0115 0B040000 		.4byte	0x40b
 5752 0119 08       		.byte	0x8
ARM GAS  C:\Users\KJA\AppData\Local\Temp\ccevgiJT.s 			page 129


 5753 011a 06       		.uleb128 0x6
 5754 011b 33080000 		.4byte	.LASF22
 5755 011f 05       		.byte	0x5
 5756 0120 5304     		.2byte	0x453
 5757 0122 0B040000 		.4byte	0x40b
 5758 0126 0C       		.byte	0xc
 5759 0127 06       		.uleb128 0x6
 5760 0128 52030000 		.4byte	.LASF23
 5761 012c 05       		.byte	0x5
 5762 012d 5404     		.2byte	0x454
 5763 012f A2000000 		.4byte	0xa2
 5764 0133 10       		.byte	0x10
 5765 0134 06       		.uleb128 0x6
 5766 0135 76020000 		.4byte	.LASF24
 5767 0139 05       		.byte	0x5
 5768 013a 5404     		.2byte	0x454
 5769 013c A2000000 		.4byte	0xa2
 5770 0140 11       		.byte	0x11
 5771 0141 06       		.uleb128 0x6
 5772 0142 9E010000 		.4byte	.LASF25
 5773 0146 05       		.byte	0x5
 5774 0147 5504     		.2byte	0x455
 5775 0149 A2000000 		.4byte	0xa2
 5776 014d 12       		.byte	0x12
 5777 014e 06       		.uleb128 0x6
 5778 014f A6080000 		.4byte	.LASF26
 5779 0153 05       		.byte	0x5
 5780 0154 5604     		.2byte	0x456
 5781 0156 A2000000 		.4byte	0xa2
 5782 015a 13       		.byte	0x13
 5783 015b 06       		.uleb128 0x6
 5784 015c 92080000 		.4byte	.LASF27
 5785 0160 05       		.byte	0x5
 5786 0161 5704     		.2byte	0x457
 5787 0163 2E030000 		.4byte	0x32e
 5788 0167 14       		.byte	0x14
 5789 0168 06       		.uleb128 0x6
 5790 0169 B4050000 		.4byte	.LASF28
 5791 016d 05       		.byte	0x5
 5792 016e 5804     		.2byte	0x458
 5793 0170 2E030000 		.4byte	0x32e
 5794 0174 15       		.byte	0x15
 5795 0175 06       		.uleb128 0x6
 5796 0176 DF010000 		.4byte	.LASF29
 5797 017a 05       		.byte	0x5
 5798 017b 5904     		.2byte	0x459
 5799 017d B0030000 		.4byte	0x3b0
 5800 0181 18       		.byte	0x18
 5801 0182 06       		.uleb128 0x6
 5802 0183 40070000 		.4byte	.LASF30
 5803 0187 05       		.byte	0x5
 5804 0188 5B04     		.2byte	0x45b
 5805 018a 97000000 		.4byte	0x97
 5806 018e 1C       		.byte	0x1c
 5807 018f 06       		.uleb128 0x6
 5808 0190 82080000 		.4byte	.LASF31
 5809 0194 05       		.byte	0x5
ARM GAS  C:\Users\KJA\AppData\Local\Temp\ccevgiJT.s 			page 130


 5810 0195 5C04     		.2byte	0x45c
 5811 0197 97000000 		.4byte	0x97
 5812 019b 1D       		.byte	0x1d
 5813 019c 06       		.uleb128 0x6
 5814 019d 8A080000 		.4byte	.LASF32
 5815 01a1 05       		.byte	0x5
 5816 01a2 5D04     		.2byte	0x45d
 5817 01a4 97000000 		.4byte	0x97
 5818 01a8 1E       		.byte	0x1e
 5819 01a9 06       		.uleb128 0x6
 5820 01aa 3D090000 		.4byte	.LASF33
 5821 01ae 05       		.byte	0x5
 5822 01af 5E04     		.2byte	0x45e
 5823 01b1 A2000000 		.4byte	0xa2
 5824 01b5 1F       		.byte	0x1f
 5825 01b6 06       		.uleb128 0x6
 5826 01b7 47050000 		.4byte	.LASF34
 5827 01bb 05       		.byte	0x5
 5828 01bc 5F04     		.2byte	0x45f
 5829 01be A2000000 		.4byte	0xa2
 5830 01c2 20       		.byte	0x20
 5831 01c3 06       		.uleb128 0x6
 5832 01c4 11000000 		.4byte	.LASF35
 5833 01c8 05       		.byte	0x5
 5834 01c9 6104     		.2byte	0x461
 5835 01cb CD030000 		.4byte	0x3cd
 5836 01cf 24       		.byte	0x24
 5837 01d0 06       		.uleb128 0x6
 5838 01d1 1C050000 		.4byte	.LASF36
 5839 01d5 05       		.byte	0x5
 5840 01d6 6204     		.2byte	0x462
 5841 01d8 A2000000 		.4byte	0xa2
 5842 01dc 28       		.byte	0x28
 5843 01dd 06       		.uleb128 0x6
 5844 01de 18030000 		.4byte	.LASF37
 5845 01e2 05       		.byte	0x5
 5846 01e3 6304     		.2byte	0x463
 5847 01e5 97000000 		.4byte	0x97
 5848 01e9 29       		.byte	0x29
 5849 01ea 06       		.uleb128 0x6
 5850 01eb A1020000 		.4byte	.LASF38
 5851 01ef 05       		.byte	0x5
 5852 01f0 6404     		.2byte	0x464
 5853 01f2 97000000 		.4byte	0x97
 5854 01f6 2A       		.byte	0x2a
 5855 01f7 06       		.uleb128 0x6
 5856 01f8 190A0000 		.4byte	.LASF39
 5857 01fc 05       		.byte	0x5
 5858 01fd 6504     		.2byte	0x465
 5859 01ff A2000000 		.4byte	0xa2
 5860 0203 2B       		.byte	0x2b
 5861 0204 06       		.uleb128 0x6
 5862 0205 90040000 		.4byte	.LASF40
 5863 0209 05       		.byte	0x5
 5864 020a 6604     		.2byte	0x466
 5865 020c A2000000 		.4byte	0xa2
 5866 0210 2C       		.byte	0x2c
ARM GAS  C:\Users\KJA\AppData\Local\Temp\ccevgiJT.s 			page 131


 5867 0211 06       		.uleb128 0x6
 5868 0212 86020000 		.4byte	.LASF41
 5869 0216 05       		.byte	0x5
 5870 0217 6804     		.2byte	0x468
 5871 0219 75020000 		.4byte	0x275
 5872 021d 2D       		.byte	0x2d
 5873 021e 06       		.uleb128 0x6
 5874 021f 52000000 		.4byte	.LASF42
 5875 0223 05       		.byte	0x5
 5876 0224 6F04     		.2byte	0x46f
 5877 0226 EE030000 		.4byte	0x3ee
 5878 022a 34       		.byte	0x34
 5879 022b 06       		.uleb128 0x6
 5880 022c A7050000 		.4byte	.LASF43
 5881 0230 05       		.byte	0x5
 5882 0231 7104     		.2byte	0x471
 5883 0233 E5020000 		.4byte	0x2e5
 5884 0237 38       		.byte	0x38
 5885 0238 00       		.byte	0
 5886 0239 03       		.uleb128 0x3
 5887 023a 52020000 		.4byte	.LASF44
 5888 023e 05       		.byte	0x5
 5889 023f A1       		.byte	0xa1
 5890 0240 44020000 		.4byte	0x244
 5891 0244 08       		.uleb128 0x8
 5892 0245 93070000 		.4byte	.LASF46
 5893 0249 0C       		.byte	0xc
 5894 024a 05       		.byte	0x5
 5895 024b CF       		.byte	0xcf
 5896 024c 75020000 		.4byte	0x275
 5897 0250 09       		.uleb128 0x9
 5898 0251 BB060000 		.4byte	.LASF47
 5899 0255 05       		.byte	0x5
 5900 0256 D1       		.byte	0xd1
 5901 0257 44030000 		.4byte	0x344
 5902 025b 00       		.byte	0
 5903 025c 09       		.uleb128 0x9
 5904 025d A5060000 		.4byte	.LASF48
 5905 0261 05       		.byte	0x5
 5906 0262 D2       		.byte	0xd2
 5907 0263 7F030000 		.4byte	0x37f
 5908 0267 04       		.byte	0x4
 5909 0268 09       		.uleb128 0x9
 5910 0269 6B080000 		.4byte	.LASF49
 5911 026d 05       		.byte	0x5
 5912 026e D3       		.byte	0xd3
 5913 026f 81030000 		.4byte	0x381
 5914 0273 08       		.byte	0x8
 5915 0274 00       		.byte	0
 5916 0275 03       		.uleb128 0x3
 5917 0276 E5060000 		.4byte	.LASF50
 5918 027a 05       		.byte	0x5
 5919 027b A3       		.byte	0xa3
 5920 027c 80020000 		.4byte	0x280
 5921 0280 05       		.uleb128 0x5
 5922 0281 20000000 		.4byte	.LASF51
 5923 0285 07       		.byte	0x7
ARM GAS  C:\Users\KJA\AppData\Local\Temp\ccevgiJT.s 			page 132


 5924 0286 05       		.byte	0x5
 5925 0287 1D02     		.2byte	0x21d
 5926 0289 E5020000 		.4byte	0x2e5
 5927 028d 07       		.uleb128 0x7
 5928 028e 7800     		.ascii	"x\000"
 5929 0290 05       		.byte	0x5
 5930 0291 1F02     		.2byte	0x21f
 5931 0293 2E030000 		.4byte	0x32e
 5932 0297 00       		.byte	0
 5933 0298 07       		.uleb128 0x7
 5934 0299 7900     		.ascii	"y\000"
 5935 029b 05       		.byte	0x5
 5936 029c 1F02     		.2byte	0x21f
 5937 029e 2E030000 		.4byte	0x32e
 5938 02a2 01       		.byte	0x1
 5939 02a3 06       		.uleb128 0x6
 5940 02a4 BC000000 		.4byte	.LASF52
 5941 02a8 05       		.byte	0x5
 5942 02a9 2002     		.2byte	0x220
 5943 02ab A2000000 		.4byte	0xa2
 5944 02af 02       		.byte	0x2
 5945 02b0 07       		.uleb128 0x7
 5946 02b1 64697200 		.ascii	"dir\000"
 5947 02b5 05       		.byte	0x5
 5948 02b6 2102     		.2byte	0x221
 5949 02b8 A2000000 		.4byte	0xa2
 5950 02bc 03       		.byte	0x3
 5951 02bd 06       		.uleb128 0x6
 5952 02be 9B080000 		.4byte	.LASF53
 5953 02c2 05       		.byte	0x5
 5954 02c3 2202     		.2byte	0x222
 5955 02c5 A2000000 		.4byte	0xa2
 5956 02c9 04       		.byte	0x4
 5957 02ca 06       		.uleb128 0x6
 5958 02cb CF090000 		.4byte	.LASF54
 5959 02cf 05       		.byte	0x5
 5960 02d0 2302     		.2byte	0x223
 5961 02d2 A2000000 		.4byte	0xa2
 5962 02d6 05       		.byte	0x5
 5963 02d7 06       		.uleb128 0x6
 5964 02d8 6B060000 		.4byte	.LASF55
 5965 02dc 05       		.byte	0x5
 5966 02dd 2402     		.2byte	0x224
 5967 02df A2000000 		.4byte	0xa2
 5968 02e3 06       		.byte	0x6
 5969 02e4 00       		.byte	0
 5970 02e5 03       		.uleb128 0x3
 5971 02e6 67040000 		.4byte	.LASF56
 5972 02ea 05       		.byte	0x5
 5973 02eb A5       		.byte	0xa5
 5974 02ec F0020000 		.4byte	0x2f0
 5975 02f0 05       		.uleb128 0x5
 5976 02f1 9E0A0000 		.4byte	.LASF57
 5977 02f5 04       		.byte	0x4
 5978 02f6 05       		.byte	0x5
 5979 02f7 3102     		.2byte	0x231
 5980 02f9 2E030000 		.4byte	0x32e
ARM GAS  C:\Users\KJA\AppData\Local\Temp\ccevgiJT.s 			page 133


 5981 02fd 07       		.uleb128 0x7
 5982 02fe 783000   		.ascii	"x0\000"
 5983 0301 05       		.byte	0x5
 5984 0302 3302     		.2byte	0x233
 5985 0304 2E030000 		.4byte	0x32e
 5986 0308 00       		.byte	0
 5987 0309 07       		.uleb128 0x7
 5988 030a 793000   		.ascii	"y0\000"
 5989 030d 05       		.byte	0x5
 5990 030e 3302     		.2byte	0x233
 5991 0310 2E030000 		.4byte	0x32e
 5992 0314 01       		.byte	0x1
 5993 0315 07       		.uleb128 0x7
 5994 0316 783100   		.ascii	"x1\000"
 5995 0319 05       		.byte	0x5
 5996 031a 3302     		.2byte	0x233
 5997 031c 2E030000 		.4byte	0x32e
 5998 0320 02       		.byte	0x2
 5999 0321 07       		.uleb128 0x7
 6000 0322 793100   		.ascii	"y1\000"
 6001 0325 05       		.byte	0x5
 6002 0326 3302     		.2byte	0x233
 6003 0328 2E030000 		.4byte	0x32e
 6004 032c 03       		.byte	0x3
 6005 032d 00       		.byte	0
 6006 032e 03       		.uleb128 0x3
 6007 032f 6B020000 		.4byte	.LASF58
 6008 0333 05       		.byte	0x5
 6009 0334 AF       		.byte	0xaf
 6010 0335 A2000000 		.4byte	0xa2
 6011 0339 03       		.uleb128 0x3
 6012 033a 79070000 		.4byte	.LASF59
 6013 033e 05       		.byte	0x5
 6014 033f B0       		.byte	0xb0
 6015 0340 97000000 		.4byte	0x97
 6016 0344 03       		.uleb128 0x3
 6017 0345 AE090000 		.4byte	.LASF60
 6018 0349 05       		.byte	0x5
 6019 034a C7       		.byte	0xc7
 6020 034b 4F030000 		.4byte	0x34f
 6021 034f 0A       		.uleb128 0xa
 6022 0350 04       		.byte	0x4
 6023 0351 55030000 		.4byte	0x355
 6024 0355 0B       		.uleb128 0xb
 6025 0356 A2000000 		.4byte	0xa2
 6026 035a 73030000 		.4byte	0x373
 6027 035e 0C       		.uleb128 0xc
 6028 035f 73030000 		.4byte	0x373
 6029 0363 0C       		.uleb128 0xc
 6030 0364 79030000 		.4byte	0x379
 6031 0368 0C       		.uleb128 0xc
 6032 0369 A2000000 		.4byte	0xa2
 6033 036d 0C       		.uleb128 0xc
 6034 036e 7F030000 		.4byte	0x37f
 6035 0372 00       		.byte	0
 6036 0373 0A       		.uleb128 0xa
 6037 0374 04       		.byte	0x4
ARM GAS  C:\Users\KJA\AppData\Local\Temp\ccevgiJT.s 			page 134


 6038 0375 CE000000 		.4byte	0xce
 6039 0379 0A       		.uleb128 0xa
 6040 037a 04       		.byte	0x4
 6041 037b 39020000 		.4byte	0x239
 6042 037f 0D       		.uleb128 0xd
 6043 0380 04       		.byte	0x4
 6044 0381 03       		.uleb128 0x3
 6045 0382 AD060000 		.4byte	.LASF61
 6046 0386 05       		.byte	0x5
 6047 0387 CA       		.byte	0xca
 6048 0388 8C030000 		.4byte	0x38c
 6049 038c 0A       		.uleb128 0xa
 6050 038d 04       		.byte	0x4
 6051 038e 92030000 		.4byte	0x392
 6052 0392 0B       		.uleb128 0xb
 6053 0393 A2000000 		.4byte	0xa2
 6054 0397 B0030000 		.4byte	0x3b0
 6055 039b 0C       		.uleb128 0xc
 6056 039c 73030000 		.4byte	0x373
 6057 03a0 0C       		.uleb128 0xc
 6058 03a1 A2000000 		.4byte	0xa2
 6059 03a5 0C       		.uleb128 0xc
 6060 03a6 A2000000 		.4byte	0xa2
 6061 03aa 0C       		.uleb128 0xc
 6062 03ab 7F030000 		.4byte	0x37f
 6063 03af 00       		.byte	0
 6064 03b0 0E       		.uleb128 0xe
 6065 03b1 0F020000 		.4byte	.LASF62
 6066 03b5 05       		.byte	0x5
 6067 03b6 0D04     		.2byte	0x40d
 6068 03b8 BC030000 		.4byte	0x3bc
 6069 03bc 0A       		.uleb128 0xa
 6070 03bd 04       		.byte	0x4
 6071 03be C2030000 		.4byte	0x3c2
 6072 03c2 0F       		.uleb128 0xf
 6073 03c3 CD030000 		.4byte	0x3cd
 6074 03c7 0C       		.uleb128 0xc
 6075 03c8 73030000 		.4byte	0x373
 6076 03cc 00       		.byte	0
 6077 03cd 0E       		.uleb128 0xe
 6078 03ce BE020000 		.4byte	.LASF63
 6079 03d2 05       		.byte	0x5
 6080 03d3 1004     		.2byte	0x410
 6081 03d5 D9030000 		.4byte	0x3d9
 6082 03d9 0A       		.uleb128 0xa
 6083 03da 04       		.byte	0x4
 6084 03db DF030000 		.4byte	0x3df
 6085 03df 0B       		.uleb128 0xb
 6086 03e0 2E030000 		.4byte	0x32e
 6087 03e4 EE030000 		.4byte	0x3ee
 6088 03e8 0C       		.uleb128 0xc
 6089 03e9 73030000 		.4byte	0x373
 6090 03ed 00       		.byte	0
 6091 03ee 0E       		.uleb128 0xe
 6092 03ef 1D090000 		.4byte	.LASF64
 6093 03f3 05       		.byte	0x5
 6094 03f4 1304     		.2byte	0x413
ARM GAS  C:\Users\KJA\AppData\Local\Temp\ccevgiJT.s 			page 135


 6095 03f6 FA030000 		.4byte	0x3fa
 6096 03fa 0A       		.uleb128 0xa
 6097 03fb 04       		.byte	0x4
 6098 03fc 00040000 		.4byte	0x400
 6099 0400 0F       		.uleb128 0xf
 6100 0401 0B040000 		.4byte	0x40b
 6101 0405 0C       		.uleb128 0xc
 6102 0406 A2000000 		.4byte	0xa2
 6103 040a 00       		.byte	0
 6104 040b 0A       		.uleb128 0xa
 6105 040c 04       		.byte	0x4
 6106 040d 11040000 		.4byte	0x411
 6107 0411 10       		.uleb128 0x10
 6108 0412 B8000000 		.4byte	0xb8
 6109 0416 04       		.uleb128 0x4
 6110 0417 04       		.byte	0x4
 6111 0418 07       		.byte	0x7
 6112 0419 54050000 		.4byte	.LASF65
 6113 041d 03       		.uleb128 0x3
 6114 041e 03020000 		.4byte	.LASF66
 6115 0422 01       		.byte	0x1
 6116 0423 2B       		.byte	0x2b
 6117 0424 7F030000 		.4byte	0x37f
 6118 0428 0E       		.uleb128 0xe
 6119 0429 BE010000 		.4byte	.LASF67
 6120 042d 01       		.byte	0x1
 6121 042e 5C04     		.2byte	0x45c
 6122 0430 34040000 		.4byte	0x434
 6123 0434 0A       		.uleb128 0xa
 6124 0435 04       		.byte	0x4
 6125 0436 3A040000 		.4byte	0x43a
 6126 043a 0B       		.uleb128 0xb
 6127 043b 49040000 		.4byte	0x449
 6128 043f 49040000 		.4byte	0x449
 6129 0443 0C       		.uleb128 0xc
 6130 0444 50040000 		.4byte	0x450
 6131 0448 00       		.byte	0
 6132 0449 04       		.uleb128 0x4
 6133 044a 01       		.byte	0x1
 6134 044b 08       		.byte	0x8
 6135 044c A1080000 		.4byte	.LASF68
 6136 0450 0A       		.uleb128 0xa
 6137 0451 04       		.byte	0x4
 6138 0452 56040000 		.4byte	0x456
 6139 0456 11       		.uleb128 0x11
 6140 0457 05       		.uleb128 0x5
 6141 0458 A90A0000 		.4byte	.LASF69
 6142 045c 05       		.byte	0x5
 6143 045d 01       		.byte	0x1
 6144 045e F604     		.2byte	0x4f6
 6145 0460 A0040000 		.4byte	0x4a0
 6146 0464 06       		.uleb128 0x6
 6147 0465 8D070000 		.4byte	.LASF70
 6148 0469 01       		.byte	0x1
 6149 046a F804     		.2byte	0x4f8
 6150 046c 97000000 		.4byte	0x97
 6151 0470 00       		.byte	0
ARM GAS  C:\Users\KJA\AppData\Local\Temp\ccevgiJT.s 			page 136


 6152 0471 06       		.uleb128 0x6
 6153 0472 2C070000 		.4byte	.LASF71
 6154 0476 01       		.byte	0x1
 6155 0477 F904     		.2byte	0x4f9
 6156 0479 97000000 		.4byte	0x97
 6157 047d 01       		.byte	0x1
 6158 047e 07       		.uleb128 0x7
 6159 047f 7800     		.ascii	"x\000"
 6160 0481 01       		.byte	0x1
 6161 0482 FA04     		.2byte	0x4fa
 6162 0484 97000000 		.4byte	0x97
 6163 0488 02       		.byte	0x2
 6164 0489 07       		.uleb128 0x7
 6165 048a 7900     		.ascii	"y\000"
 6166 048c 01       		.byte	0x1
 6167 048d FA04     		.2byte	0x4fa
 6168 048f 97000000 		.4byte	0x97
 6169 0493 03       		.byte	0x3
 6170 0494 07       		.uleb128 0x7
 6171 0495 7700     		.ascii	"w\000"
 6172 0497 01       		.byte	0x1
 6173 0498 FB04     		.2byte	0x4fb
 6174 049a 2E030000 		.4byte	0x32e
 6175 049e 04       		.byte	0x4
 6176 049f 00       		.byte	0
 6177 04a0 0E       		.uleb128 0xe
 6178 04a1 C2060000 		.4byte	.LASF72
 6179 04a5 01       		.byte	0x1
 6180 04a6 FD04     		.2byte	0x4fd
 6181 04a8 57040000 		.4byte	0x457
 6182 04ac 12       		.uleb128 0x12
 6183 04ad 5D050000 		.4byte	.LASF74
 6184 04b1 01       		.byte	0x1
 6185 04b2 58       		.byte	0x58
 6186 04b3 A2000000 		.4byte	0xa2
 6187 04b7 00000000 		.4byte	.LFB0
 6188 04bb 24000000 		.4byte	.LFE0-.LFB0
 6189 04bf 01       		.uleb128 0x1
 6190 04c0 9C       		.byte	0x9c
 6191 04c1 E2040000 		.4byte	0x4e2
 6192 04c5 13       		.uleb128 0x13
 6193 04c6 9D090000 		.4byte	.LASF21
 6194 04ca 01       		.byte	0x1
 6195 04cb 58       		.byte	0x58
 6196 04cc E2040000 		.4byte	0x4e2
 6197 04d0 02       		.uleb128 0x2
 6198 04d1 91       		.byte	0x91
 6199 04d2 74       		.sleb128 -12
 6200 04d3 13       		.uleb128 0x13
 6201 04d4 16090000 		.4byte	.LASF73
 6202 04d8 01       		.byte	0x1
 6203 04d9 58       		.byte	0x58
 6204 04da A2000000 		.4byte	0xa2
 6205 04de 02       		.uleb128 0x2
 6206 04df 91       		.byte	0x91
 6207 04e0 73       		.sleb128 -13
 6208 04e1 00       		.byte	0
ARM GAS  C:\Users\KJA\AppData\Local\Temp\ccevgiJT.s 			page 137


 6209 04e2 0A       		.uleb128 0xa
 6210 04e3 04       		.byte	0x4
 6211 04e4 E8040000 		.4byte	0x4e8
 6212 04e8 10       		.uleb128 0x10
 6213 04e9 C3000000 		.4byte	0xc3
 6214 04ed 12       		.uleb128 0x12
 6215 04ee 59080000 		.4byte	.LASF75
 6216 04f2 01       		.byte	0x1
 6217 04f3 5F       		.byte	0x5f
 6218 04f4 AD000000 		.4byte	0xad
 6219 04f8 00000000 		.4byte	.LFB1
 6220 04fc 40000000 		.4byte	.LFE1-.LFB1
 6221 0500 01       		.uleb128 0x1
 6222 0501 9C       		.byte	0x9c
 6223 0502 31050000 		.4byte	0x531
 6224 0506 13       		.uleb128 0x13
 6225 0507 9D090000 		.4byte	.LASF21
 6226 050b 01       		.byte	0x1
 6227 050c 5F       		.byte	0x5f
 6228 050d E2040000 		.4byte	0x4e2
 6229 0511 02       		.uleb128 0x2
 6230 0512 91       		.byte	0x91
 6231 0513 6C       		.sleb128 -20
 6232 0514 13       		.uleb128 0x13
 6233 0515 16090000 		.4byte	.LASF73
 6234 0519 01       		.byte	0x1
 6235 051a 5F       		.byte	0x5f
 6236 051b A2000000 		.4byte	0xa2
 6237 051f 02       		.uleb128 0x2
 6238 0520 91       		.byte	0x91
 6239 0521 6B       		.sleb128 -21
 6240 0522 14       		.uleb128 0x14
 6241 0523 706F7300 		.ascii	"pos\000"
 6242 0527 01       		.byte	0x1
 6243 0528 61       		.byte	0x61
 6244 0529 AD000000 		.4byte	0xad
 6245 052d 02       		.uleb128 0x2
 6246 052e 91       		.byte	0x91
 6247 052f 76       		.sleb128 -10
 6248 0530 00       		.byte	0
 6249 0531 15       		.uleb128 0x15
 6250 0532 BC090000 		.4byte	.LASF76
 6251 0536 01       		.byte	0x1
 6252 0537 6E       		.byte	0x6e
 6253 0538 A2000000 		.4byte	0xa2
 6254 053c 00000000 		.4byte	.LFB2
 6255 0540 1A000000 		.4byte	.LFE2-.LFB2
 6256 0544 01       		.uleb128 0x1
 6257 0545 9C       		.byte	0x9c
 6258 0546 59050000 		.4byte	0x559
 6259 054a 13       		.uleb128 0x13
 6260 054b 9D090000 		.4byte	.LASF21
 6261 054f 01       		.byte	0x1
 6262 0550 6E       		.byte	0x6e
 6263 0551 E2040000 		.4byte	0x4e2
 6264 0555 02       		.uleb128 0x2
 6265 0556 91       		.byte	0x91
ARM GAS  C:\Users\KJA\AppData\Local\Temp\ccevgiJT.s 			page 138


 6266 0557 74       		.sleb128 -12
 6267 0558 00       		.byte	0
 6268 0559 15       		.uleb128 0x15
 6269 055a E70A0000 		.4byte	.LASF77
 6270 055e 01       		.byte	0x1
 6271 055f 74       		.byte	0x74
 6272 0560 A2000000 		.4byte	0xa2
 6273 0564 00000000 		.4byte	.LFB3
 6274 0568 32000000 		.4byte	.LFE3-.LFB3
 6275 056c 01       		.uleb128 0x1
 6276 056d 9C       		.byte	0x9c
 6277 056e 81050000 		.4byte	0x581
 6278 0572 13       		.uleb128 0x13
 6279 0573 9D090000 		.4byte	.LASF21
 6280 0577 01       		.byte	0x1
 6281 0578 74       		.byte	0x74
 6282 0579 E2040000 		.4byte	0x4e2
 6283 057d 02       		.uleb128 0x2
 6284 057e 91       		.byte	0x91
 6285 057f 74       		.sleb128 -12
 6286 0580 00       		.byte	0
 6287 0581 15       		.uleb128 0x15
 6288 0582 D7020000 		.4byte	.LASF78
 6289 0586 01       		.byte	0x1
 6290 0587 7F       		.byte	0x7f
 6291 0588 A2000000 		.4byte	0xa2
 6292 058c 00000000 		.4byte	.LFB4
 6293 0590 1A000000 		.4byte	.LFE4-.LFB4
 6294 0594 01       		.uleb128 0x1
 6295 0595 9C       		.byte	0x9c
 6296 0596 A9050000 		.4byte	0x5a9
 6297 059a 13       		.uleb128 0x13
 6298 059b 9D090000 		.4byte	.LASF21
 6299 059f 01       		.byte	0x1
 6300 05a0 7F       		.byte	0x7f
 6301 05a1 50040000 		.4byte	0x450
 6302 05a5 02       		.uleb128 0x2
 6303 05a6 91       		.byte	0x91
 6304 05a7 74       		.sleb128 -12
 6305 05a8 00       		.byte	0
 6306 05a9 15       		.uleb128 0x15
 6307 05aa 08080000 		.4byte	.LASF79
 6308 05ae 01       		.byte	0x1
 6309 05af 84       		.byte	0x84
 6310 05b0 A2000000 		.4byte	0xa2
 6311 05b4 00000000 		.4byte	.LFB5
 6312 05b8 1A000000 		.4byte	.LFE5-.LFB5
 6313 05bc 01       		.uleb128 0x1
 6314 05bd 9C       		.byte	0x9c
 6315 05be D1050000 		.4byte	0x5d1
 6316 05c2 13       		.uleb128 0x13
 6317 05c3 9D090000 		.4byte	.LASF21
 6318 05c7 01       		.byte	0x1
 6319 05c8 84       		.byte	0x84
 6320 05c9 50040000 		.4byte	0x450
 6321 05cd 02       		.uleb128 0x2
 6322 05ce 91       		.byte	0x91
ARM GAS  C:\Users\KJA\AppData\Local\Temp\ccevgiJT.s 			page 139


 6323 05cf 74       		.sleb128 -12
 6324 05d0 00       		.byte	0
 6325 05d1 15       		.uleb128 0x15
 6326 05d2 B7040000 		.4byte	.LASF80
 6327 05d6 01       		.byte	0x1
 6328 05d7 89       		.byte	0x89
 6329 05d8 97000000 		.4byte	0x97
 6330 05dc 00000000 		.4byte	.LFB6
 6331 05e0 1E000000 		.4byte	.LFE6-.LFB6
 6332 05e4 01       		.uleb128 0x1
 6333 05e5 9C       		.byte	0x9c
 6334 05e6 F9050000 		.4byte	0x5f9
 6335 05ea 13       		.uleb128 0x13
 6336 05eb 9D090000 		.4byte	.LASF21
 6337 05ef 01       		.byte	0x1
 6338 05f0 89       		.byte	0x89
 6339 05f1 50040000 		.4byte	0x450
 6340 05f5 02       		.uleb128 0x2
 6341 05f6 91       		.byte	0x91
 6342 05f7 74       		.sleb128 -12
 6343 05f8 00       		.byte	0
 6344 05f9 15       		.uleb128 0x15
 6345 05fa CB040000 		.4byte	.LASF81
 6346 05fe 01       		.byte	0x1
 6347 05ff 8E       		.byte	0x8e
 6348 0600 97000000 		.4byte	0x97
 6349 0604 00000000 		.4byte	.LFB7
 6350 0608 1E000000 		.4byte	.LFE7-.LFB7
 6351 060c 01       		.uleb128 0x1
 6352 060d 9C       		.byte	0x9c
 6353 060e 21060000 		.4byte	0x621
 6354 0612 13       		.uleb128 0x13
 6355 0613 9D090000 		.4byte	.LASF21
 6356 0617 01       		.byte	0x1
 6357 0618 8E       		.byte	0x8e
 6358 0619 50040000 		.4byte	0x450
 6359 061d 02       		.uleb128 0x2
 6360 061e 91       		.byte	0x91
 6361 061f 74       		.sleb128 -12
 6362 0620 00       		.byte	0
 6363 0621 16       		.uleb128 0x16
 6364 0622 70060000 		.4byte	.LASF82
 6365 0626 01       		.byte	0x1
 6366 0627 93       		.byte	0x93
 6367 0628 A2000000 		.4byte	0xa2
 6368 062c 00000000 		.4byte	.LFB8
 6369 0630 1A000000 		.4byte	.LFE8-.LFB8
 6370 0634 01       		.uleb128 0x1
 6371 0635 9C       		.byte	0x9c
 6372 0636 49060000 		.4byte	0x649
 6373 063a 13       		.uleb128 0x13
 6374 063b 9D090000 		.4byte	.LASF21
 6375 063f 01       		.byte	0x1
 6376 0640 93       		.byte	0x93
 6377 0641 50040000 		.4byte	0x450
 6378 0645 02       		.uleb128 0x2
 6379 0646 91       		.byte	0x91
ARM GAS  C:\Users\KJA\AppData\Local\Temp\ccevgiJT.s 			page 140


 6380 0647 74       		.sleb128 -12
 6381 0648 00       		.byte	0
 6382 0649 16       		.uleb128 0x16
 6383 064a 320A0000 		.4byte	.LASF83
 6384 064e 01       		.byte	0x1
 6385 064f 99       		.byte	0x99
 6386 0650 AD000000 		.4byte	0xad
 6387 0654 00000000 		.4byte	.LFB9
 6388 0658 1A000000 		.4byte	.LFE9-.LFB9
 6389 065c 01       		.uleb128 0x1
 6390 065d 9C       		.byte	0x9c
 6391 065e 71060000 		.4byte	0x671
 6392 0662 13       		.uleb128 0x13
 6393 0663 9D090000 		.4byte	.LASF21
 6394 0667 01       		.byte	0x1
 6395 0668 99       		.byte	0x99
 6396 0669 50040000 		.4byte	0x450
 6397 066d 02       		.uleb128 0x2
 6398 066e 91       		.byte	0x91
 6399 066f 74       		.sleb128 -12
 6400 0670 00       		.byte	0
 6401 0671 16       		.uleb128 0x16
 6402 0672 2D050000 		.4byte	.LASF84
 6403 0676 01       		.byte	0x1
 6404 0677 9F       		.byte	0x9f
 6405 0678 AD000000 		.4byte	0xad
 6406 067c 00000000 		.4byte	.LFB10
 6407 0680 1A000000 		.4byte	.LFE10-.LFB10
 6408 0684 01       		.uleb128 0x1
 6409 0685 9C       		.byte	0x9c
 6410 0686 99060000 		.4byte	0x699
 6411 068a 13       		.uleb128 0x13
 6412 068b 9D090000 		.4byte	.LASF21
 6413 068f 01       		.byte	0x1
 6414 0690 9F       		.byte	0x9f
 6415 0691 50040000 		.4byte	0x450
 6416 0695 02       		.uleb128 0x2
 6417 0696 91       		.byte	0x91
 6418 0697 74       		.sleb128 -12
 6419 0698 00       		.byte	0
 6420 0699 16       		.uleb128 0x16
 6421 069a 730A0000 		.4byte	.LASF85
 6422 069e 01       		.byte	0x1
 6423 069f A4       		.byte	0xa4
 6424 06a0 A2000000 		.4byte	0xa2
 6425 06a4 00000000 		.4byte	.LFB11
 6426 06a8 1A000000 		.4byte	.LFE11-.LFB11
 6427 06ac 01       		.uleb128 0x1
 6428 06ad 9C       		.byte	0x9c
 6429 06ae C1060000 		.4byte	0x6c1
 6430 06b2 13       		.uleb128 0x13
 6431 06b3 9D090000 		.4byte	.LASF21
 6432 06b7 01       		.byte	0x1
 6433 06b8 A4       		.byte	0xa4
 6434 06b9 50040000 		.4byte	0x450
 6435 06bd 02       		.uleb128 0x2
 6436 06be 91       		.byte	0x91
ARM GAS  C:\Users\KJA\AppData\Local\Temp\ccevgiJT.s 			page 141


 6437 06bf 74       		.sleb128 -12
 6438 06c0 00       		.byte	0
 6439 06c1 16       		.uleb128 0x16
 6440 06c2 A9030000 		.4byte	.LASF86
 6441 06c6 01       		.byte	0x1
 6442 06c7 A9       		.byte	0xa9
 6443 06c8 A2000000 		.4byte	0xa2
 6444 06cc 00000000 		.4byte	.LFB12
 6445 06d0 1A000000 		.4byte	.LFE12-.LFB12
 6446 06d4 01       		.uleb128 0x1
 6447 06d5 9C       		.byte	0x9c
 6448 06d6 E9060000 		.4byte	0x6e9
 6449 06da 13       		.uleb128 0x13
 6450 06db 9D090000 		.4byte	.LASF21
 6451 06df 01       		.byte	0x1
 6452 06e0 A9       		.byte	0xa9
 6453 06e1 50040000 		.4byte	0x450
 6454 06e5 02       		.uleb128 0x2
 6455 06e6 91       		.byte	0x91
 6456 06e7 74       		.sleb128 -12
 6457 06e8 00       		.byte	0
 6458 06e9 16       		.uleb128 0x16
 6459 06ea 9D040000 		.4byte	.LASF87
 6460 06ee 01       		.byte	0x1
 6461 06ef AE       		.byte	0xae
 6462 06f0 97000000 		.4byte	0x97
 6463 06f4 00000000 		.4byte	.LFB13
 6464 06f8 1E000000 		.4byte	.LFE13-.LFB13
 6465 06fc 01       		.uleb128 0x1
 6466 06fd 9C       		.byte	0x9c
 6467 06fe 11070000 		.4byte	0x711
 6468 0702 13       		.uleb128 0x13
 6469 0703 9D090000 		.4byte	.LASF21
 6470 0707 01       		.byte	0x1
 6471 0708 AE       		.byte	0xae
 6472 0709 50040000 		.4byte	0x450
 6473 070d 02       		.uleb128 0x2
 6474 070e 91       		.byte	0x91
 6475 070f 74       		.sleb128 -12
 6476 0710 00       		.byte	0
 6477 0711 16       		.uleb128 0x16
 6478 0712 DB030000 		.4byte	.LASF88
 6479 0716 01       		.byte	0x1
 6480 0717 B3       		.byte	0xb3
 6481 0718 97000000 		.4byte	0x97
 6482 071c 00000000 		.4byte	.LFB14
 6483 0720 1E000000 		.4byte	.LFE14-.LFB14
 6484 0724 01       		.uleb128 0x1
 6485 0725 9C       		.byte	0x9c
 6486 0726 39070000 		.4byte	0x739
 6487 072a 13       		.uleb128 0x13
 6488 072b 9D090000 		.4byte	.LASF21
 6489 072f 01       		.byte	0x1
 6490 0730 B3       		.byte	0xb3
 6491 0731 50040000 		.4byte	0x450
 6492 0735 02       		.uleb128 0x2
 6493 0736 91       		.byte	0x91
ARM GAS  C:\Users\KJA\AppData\Local\Temp\ccevgiJT.s 			page 142


 6494 0737 74       		.sleb128 -12
 6495 0738 00       		.byte	0
 6496 0739 16       		.uleb128 0x16
 6497 073a BD0A0000 		.4byte	.LASF89
 6498 073e 01       		.byte	0x1
 6499 073f B8       		.byte	0xb8
 6500 0740 97000000 		.4byte	0x97
 6501 0744 00000000 		.4byte	.LFB15
 6502 0748 1E000000 		.4byte	.LFE15-.LFB15
 6503 074c 01       		.uleb128 0x1
 6504 074d 9C       		.byte	0x9c
 6505 074e 61070000 		.4byte	0x761
 6506 0752 13       		.uleb128 0x13
 6507 0753 9D090000 		.4byte	.LASF21
 6508 0757 01       		.byte	0x1
 6509 0758 B8       		.byte	0xb8
 6510 0759 50040000 		.4byte	0x450
 6511 075d 02       		.uleb128 0x2
 6512 075e 91       		.byte	0x91
 6513 075f 74       		.sleb128 -12
 6514 0760 00       		.byte	0
 6515 0761 16       		.uleb128 0x16
 6516 0762 6E090000 		.4byte	.LASF90
 6517 0766 01       		.byte	0x1
 6518 0767 BD       		.byte	0xbd
 6519 0768 97000000 		.4byte	0x97
 6520 076c 00000000 		.4byte	.LFB16
 6521 0770 1E000000 		.4byte	.LFE16-.LFB16
 6522 0774 01       		.uleb128 0x1
 6523 0775 9C       		.byte	0x9c
 6524 0776 89070000 		.4byte	0x789
 6525 077a 13       		.uleb128 0x13
 6526 077b 9D090000 		.4byte	.LASF21
 6527 077f 01       		.byte	0x1
 6528 0780 BD       		.byte	0xbd
 6529 0781 50040000 		.4byte	0x450
 6530 0785 02       		.uleb128 0x2
 6531 0786 91       		.byte	0x91
 6532 0787 74       		.sleb128 -12
 6533 0788 00       		.byte	0
 6534 0789 16       		.uleb128 0x16
 6535 078a FA040000 		.4byte	.LASF91
 6536 078e 01       		.byte	0x1
 6537 078f C2       		.byte	0xc2
 6538 0790 97000000 		.4byte	0x97
 6539 0794 00000000 		.4byte	.LFB17
 6540 0798 1E000000 		.4byte	.LFE17-.LFB17
 6541 079c 01       		.uleb128 0x1
 6542 079d 9C       		.byte	0x9c
 6543 079e B1070000 		.4byte	0x7b1
 6544 07a2 13       		.uleb128 0x13
 6545 07a3 9D090000 		.4byte	.LASF21
 6546 07a7 01       		.byte	0x1
 6547 07a8 C2       		.byte	0xc2
 6548 07a9 50040000 		.4byte	0x450
 6549 07ad 02       		.uleb128 0x2
 6550 07ae 91       		.byte	0x91
ARM GAS  C:\Users\KJA\AppData\Local\Temp\ccevgiJT.s 			page 143


 6551 07af 74       		.sleb128 -12
 6552 07b0 00       		.byte	0
 6553 07b1 15       		.uleb128 0x15
 6554 07b2 DF040000 		.4byte	.LASF92
 6555 07b6 01       		.byte	0x1
 6556 07b7 C9       		.byte	0xc9
 6557 07b8 E5070000 		.4byte	0x7e5
 6558 07bc 00000000 		.4byte	.LFB18
 6559 07c0 20000000 		.4byte	.LFE18-.LFB18
 6560 07c4 01       		.uleb128 0x1
 6561 07c5 9C       		.byte	0x9c
 6562 07c6 E5070000 		.4byte	0x7e5
 6563 07ca 13       		.uleb128 0x13
 6564 07cb 9D090000 		.4byte	.LASF21
 6565 07cf 01       		.byte	0x1
 6566 07d0 C9       		.byte	0xc9
 6567 07d1 50040000 		.4byte	0x450
 6568 07d5 02       		.uleb128 0x2
 6569 07d6 91       		.byte	0x91
 6570 07d7 74       		.sleb128 -12
 6571 07d8 17       		.uleb128 0x17
 6572 07d9 6700     		.ascii	"g\000"
 6573 07db 01       		.byte	0x1
 6574 07dc C9       		.byte	0xc9
 6575 07dd 1D040000 		.4byte	0x41d
 6576 07e1 02       		.uleb128 0x2
 6577 07e2 91       		.byte	0x91
 6578 07e3 70       		.sleb128 -16
 6579 07e4 00       		.byte	0
 6580 07e5 0A       		.uleb128 0xa
 6581 07e6 04       		.byte	0x4
 6582 07e7 A2000000 		.4byte	0xa2
 6583 07eb 16       		.uleb128 0x16
 6584 07ec 00000000 		.4byte	.LASF93
 6585 07f0 01       		.byte	0x1
 6586 07f1 CF       		.byte	0xcf
 6587 07f2 2C000000 		.4byte	0x2c
 6588 07f6 00000000 		.4byte	.LFB19
 6589 07fa 98000000 		.4byte	.LFE19-.LFB19
 6590 07fe 01       		.uleb128 0x1
 6591 07ff 9C       		.byte	0x9c
 6592 0800 71080000 		.4byte	0x871
 6593 0804 13       		.uleb128 0x13
 6594 0805 9D090000 		.4byte	.LASF21
 6595 0809 01       		.byte	0x1
 6596 080a CF       		.byte	0xcf
 6597 080b 50040000 		.4byte	0x450
 6598 080f 02       		.uleb128 0x2
 6599 0810 91       		.byte	0x91
 6600 0811 64       		.sleb128 -28
 6601 0812 14       		.uleb128 0x14
 6602 0813 7000     		.ascii	"p\000"
 6603 0815 01       		.byte	0x1
 6604 0816 D1       		.byte	0xd1
 6605 0817 E5070000 		.4byte	0x7e5
 6606 081b 02       		.uleb128 0x2
 6607 081c 91       		.byte	0x91
ARM GAS  C:\Users\KJA\AppData\Local\Temp\ccevgiJT.s 			page 144


 6608 081d 74       		.sleb128 -12
 6609 081e 18       		.uleb128 0x18
 6610 081f 0D0A0000 		.4byte	.LASF94
 6611 0823 01       		.byte	0x1
 6612 0824 D2       		.byte	0xd2
 6613 0825 A2000000 		.4byte	0xa2
 6614 0829 02       		.uleb128 0x2
 6615 082a 91       		.byte	0x91
 6616 082b 71       		.sleb128 -15
 6617 082c 18       		.uleb128 0x18
 6618 082d 84050000 		.4byte	.LASF95
 6619 0831 01       		.byte	0x1
 6620 0832 D3       		.byte	0xd3
 6621 0833 A2000000 		.4byte	0xa2
 6622 0837 02       		.uleb128 0x2
 6623 0838 91       		.byte	0x91
 6624 0839 70       		.sleb128 -16
 6625 083a 18       		.uleb128 0x18
 6626 083b 910A0000 		.4byte	.LASF96
 6627 083f 01       		.byte	0x1
 6628 0840 D4       		.byte	0xd4
 6629 0841 A2000000 		.4byte	0xa2
 6630 0845 02       		.uleb128 0x2
 6631 0846 91       		.byte	0x91
 6632 0847 6F       		.sleb128 -17
 6633 0848 14       		.uleb128 0x14
 6634 0849 656E6400 		.ascii	"end\000"
 6635 084d 01       		.byte	0x1
 6636 084e D4       		.byte	0xd4
 6637 084f A2000000 		.4byte	0xa2
 6638 0853 02       		.uleb128 0x2
 6639 0854 91       		.byte	0x91
 6640 0855 6E       		.sleb128 -18
 6641 0856 14       		.uleb128 0x14
 6642 0857 6900     		.ascii	"i\000"
 6643 0859 01       		.byte	0x1
 6644 085a D5       		.byte	0xd5
 6645 085b A2000000 		.4byte	0xa2
 6646 085f 02       		.uleb128 0x2
 6647 0860 91       		.byte	0x91
 6648 0861 73       		.sleb128 -13
 6649 0862 18       		.uleb128 0x18
 6650 0863 00030000 		.4byte	.LASF97
 6651 0867 01       		.byte	0x1
 6652 0868 D6       		.byte	0xd6
 6653 0869 A2000000 		.4byte	0xa2
 6654 086d 02       		.uleb128 0x2
 6655 086e 91       		.byte	0x91
 6656 086f 72       		.sleb128 -14
 6657 0870 00       		.byte	0
 6658 0871 16       		.uleb128 0x16
 6659 0872 EC020000 		.4byte	.LASF98
 6660 0876 01       		.byte	0x1
 6661 0877 F7       		.byte	0xf7
 6662 0878 A2000000 		.4byte	0xa2
 6663 087c 00000000 		.4byte	.LFB20
 6664 0880 1C000000 		.4byte	.LFE20-.LFB20
ARM GAS  C:\Users\KJA\AppData\Local\Temp\ccevgiJT.s 			page 145


 6665 0884 01       		.uleb128 0x1
 6666 0885 9C       		.byte	0x9c
 6667 0886 99080000 		.4byte	0x899
 6668 088a 17       		.uleb128 0x17
 6669 088b 75386700 		.ascii	"u8g\000"
 6670 088f 01       		.byte	0x1
 6671 0890 F7       		.byte	0xf7
 6672 0891 73030000 		.4byte	0x373
 6673 0895 02       		.uleb128 0x2
 6674 0896 91       		.byte	0x91
 6675 0897 74       		.sleb128 -12
 6676 0898 00       		.byte	0
 6677 0899 16       		.uleb128 0x16
 6678 089a 6F050000 		.4byte	.LASF99
 6679 089e 01       		.byte	0x1
 6680 089f FC       		.byte	0xfc
 6681 08a0 A2000000 		.4byte	0xa2
 6682 08a4 00000000 		.4byte	.LFB21
 6683 08a8 1C000000 		.4byte	.LFE21-.LFB21
 6684 08ac 01       		.uleb128 0x1
 6685 08ad 9C       		.byte	0x9c
 6686 08ae C1080000 		.4byte	0x8c1
 6687 08b2 17       		.uleb128 0x17
 6688 08b3 75386700 		.ascii	"u8g\000"
 6689 08b7 01       		.byte	0x1
 6690 08b8 FC       		.byte	0xfc
 6691 08b9 73030000 		.4byte	0x373
 6692 08bd 02       		.uleb128 0x2
 6693 08be 91       		.byte	0x91
 6694 08bf 74       		.sleb128 -12
 6695 08c0 00       		.byte	0
 6696 08c1 19       		.uleb128 0x19
 6697 08c2 71030000 		.4byte	.LASF100
 6698 08c6 01       		.byte	0x1
 6699 08c7 0201     		.2byte	0x102
 6700 08c9 97000000 		.4byte	0x97
 6701 08cd 00000000 		.4byte	.LFB22
 6702 08d1 1C000000 		.4byte	.LFE22-.LFB22
 6703 08d5 01       		.uleb128 0x1
 6704 08d6 9C       		.byte	0x9c
 6705 08d7 EB080000 		.4byte	0x8eb
 6706 08db 1A       		.uleb128 0x1a
 6707 08dc 75386700 		.ascii	"u8g\000"
 6708 08e0 01       		.byte	0x1
 6709 08e1 0201     		.2byte	0x102
 6710 08e3 73030000 		.4byte	0x373
 6711 08e7 02       		.uleb128 0x2
 6712 08e8 91       		.byte	0x91
 6713 08e9 74       		.sleb128 -12
 6714 08ea 00       		.byte	0
 6715 08eb 19       		.uleb128 0x19
 6716 08ec 84030000 		.4byte	.LASF101
 6717 08f0 01       		.byte	0x1
 6718 08f1 0801     		.2byte	0x108
 6719 08f3 97000000 		.4byte	0x97
 6720 08f7 00000000 		.4byte	.LFB23
 6721 08fb 1C000000 		.4byte	.LFE23-.LFB23
ARM GAS  C:\Users\KJA\AppData\Local\Temp\ccevgiJT.s 			page 146


 6722 08ff 01       		.uleb128 0x1
 6723 0900 9C       		.byte	0x9c
 6724 0901 15090000 		.4byte	0x915
 6725 0905 1A       		.uleb128 0x1a
 6726 0906 75386700 		.ascii	"u8g\000"
 6727 090a 01       		.byte	0x1
 6728 090b 0801     		.2byte	0x108
 6729 090d 73030000 		.4byte	0x373
 6730 0911 02       		.uleb128 0x2
 6731 0912 91       		.byte	0x91
 6732 0913 74       		.sleb128 -12
 6733 0914 00       		.byte	0
 6734 0915 19       		.uleb128 0x19
 6735 0916 F2030000 		.4byte	.LASF102
 6736 091a 01       		.byte	0x1
 6737 091b 0E01     		.2byte	0x10e
 6738 091d A2000000 		.4byte	0xa2
 6739 0921 00000000 		.4byte	.LFB24
 6740 0925 1C000000 		.4byte	.LFE24-.LFB24
 6741 0929 01       		.uleb128 0x1
 6742 092a 9C       		.byte	0x9c
 6743 092b 3F090000 		.4byte	0x93f
 6744 092f 1A       		.uleb128 0x1a
 6745 0930 75386700 		.ascii	"u8g\000"
 6746 0934 01       		.byte	0x1
 6747 0935 0E01     		.2byte	0x10e
 6748 0937 73030000 		.4byte	0x373
 6749 093b 02       		.uleb128 0x2
 6750 093c 91       		.byte	0x91
 6751 093d 74       		.sleb128 -12
 6752 093e 00       		.byte	0
 6753 093f 1B       		.uleb128 0x1b
 6754 0940 85010000 		.4byte	.LASF103
 6755 0944 01       		.byte	0x1
 6756 0945 1601     		.2byte	0x116
 6757 0947 00000000 		.4byte	.LFB25
 6758 094b BE000000 		.4byte	.LFE25-.LFB25
 6759 094f 01       		.uleb128 0x1
 6760 0950 9C       		.byte	0x9c
 6761 0951 81090000 		.4byte	0x981
 6762 0955 1A       		.uleb128 0x1a
 6763 0956 75386700 		.ascii	"u8g\000"
 6764 095a 01       		.byte	0x1
 6765 095b 1601     		.2byte	0x116
 6766 095d 73030000 		.4byte	0x373
 6767 0961 02       		.uleb128 0x2
 6768 0962 91       		.byte	0x91
 6769 0963 6C       		.sleb128 -20
 6770 0964 1A       		.uleb128 0x1a
 6771 0965 6700     		.ascii	"g\000"
 6772 0967 01       		.byte	0x1
 6773 0968 1601     		.2byte	0x116
 6774 096a 1D040000 		.4byte	0x41d
 6775 096e 02       		.uleb128 0x2
 6776 096f 91       		.byte	0x91
 6777 0970 68       		.sleb128 -24
 6778 0971 1C       		.uleb128 0x1c
ARM GAS  C:\Users\KJA\AppData\Local\Temp\ccevgiJT.s 			page 147


 6779 0972 746D7000 		.ascii	"tmp\000"
 6780 0976 01       		.byte	0x1
 6781 0977 1801     		.2byte	0x118
 6782 0979 A2000000 		.4byte	0xa2
 6783 097d 02       		.uleb128 0x2
 6784 097e 91       		.byte	0x91
 6785 097f 77       		.sleb128 -9
 6786 0980 00       		.byte	0
 6787 0981 1D       		.uleb128 0x1d
 6788 0982 22020000 		.4byte	.LASF104
 6789 0986 01       		.byte	0x1
 6790 0987 5101     		.2byte	0x151
 6791 0989 00000000 		.4byte	.LFB26
 6792 098d 32000000 		.4byte	.LFE26-.LFB26
 6793 0991 01       		.uleb128 0x1
 6794 0992 9C       		.byte	0x9c
 6795 0993 A7090000 		.4byte	0x9a7
 6796 0997 1A       		.uleb128 0x1a
 6797 0998 75386700 		.ascii	"u8g\000"
 6798 099c 01       		.byte	0x1
 6799 099d 5101     		.2byte	0x151
 6800 099f 73030000 		.4byte	0x373
 6801 09a3 02       		.uleb128 0x2
 6802 09a4 91       		.byte	0x91
 6803 09a5 74       		.sleb128 -12
 6804 09a6 00       		.byte	0
 6805 09a7 19       		.uleb128 0x19
 6806 09a8 AD070000 		.4byte	.LASF105
 6807 09ac 01       		.byte	0x1
 6808 09ad 5E01     		.2byte	0x15e
 6809 09af 1D040000 		.4byte	0x41d
 6810 09b3 00000000 		.4byte	.LFB27
 6811 09b7 2E010000 		.4byte	.LFE27-.LFB27
 6812 09bb 01       		.uleb128 0x1
 6813 09bc 9C       		.byte	0x9c
 6814 09bd 540A0000 		.4byte	0xa54
 6815 09c1 1A       		.uleb128 0x1a
 6816 09c2 75386700 		.ascii	"u8g\000"
 6817 09c6 01       		.byte	0x1
 6818 09c7 5E01     		.2byte	0x15e
 6819 09c9 73030000 		.4byte	0x373
 6820 09cd 02       		.uleb128 0x2
 6821 09ce 91       		.byte	0x91
 6822 09cf 64       		.sleb128 -28
 6823 09d0 1E       		.uleb128 0x1e
 6824 09d1 47040000 		.4byte	.LASF106
 6825 09d5 01       		.byte	0x1
 6826 09d6 5E01     		.2byte	0x15e
 6827 09d8 A2000000 		.4byte	0xa2
 6828 09dc 02       		.uleb128 0x2
 6829 09dd 91       		.byte	0x91
 6830 09de 63       		.sleb128 -29
 6831 09df 1C       		.uleb128 0x1c
 6832 09e0 7000     		.ascii	"p\000"
 6833 09e2 01       		.byte	0x1
 6834 09e3 6001     		.2byte	0x160
 6835 09e5 E5070000 		.4byte	0x7e5
ARM GAS  C:\Users\KJA\AppData\Local\Temp\ccevgiJT.s 			page 148


 6836 09e9 02       		.uleb128 0x2
 6837 09ea 91       		.byte	0x91
 6838 09eb 74       		.sleb128 -12
 6839 09ec 1F       		.uleb128 0x1f
 6840 09ed 0D0A0000 		.4byte	.LASF94
 6841 09f1 01       		.byte	0x1
 6842 09f2 6101     		.2byte	0x161
 6843 09f4 A2000000 		.4byte	0xa2
 6844 09f8 02       		.uleb128 0x2
 6845 09f9 91       		.byte	0x91
 6846 09fa 70       		.sleb128 -16
 6847 09fb 1F       		.uleb128 0x1f
 6848 09fc 84050000 		.4byte	.LASF95
 6849 0a00 01       		.byte	0x1
 6850 0a01 6201     		.2byte	0x162
 6851 0a03 A2000000 		.4byte	0xa2
 6852 0a07 02       		.uleb128 0x2
 6853 0a08 91       		.byte	0x91
 6854 0a09 6F       		.sleb128 -17
 6855 0a0a 1F       		.uleb128 0x1f
 6856 0a0b 910A0000 		.4byte	.LASF96
 6857 0a0f 01       		.byte	0x1
 6858 0a10 6301     		.2byte	0x163
 6859 0a12 A2000000 		.4byte	0xa2
 6860 0a16 02       		.uleb128 0x2
 6861 0a17 91       		.byte	0x91
 6862 0a18 73       		.sleb128 -13
 6863 0a19 1C       		.uleb128 0x1c
 6864 0a1a 656E6400 		.ascii	"end\000"
 6865 0a1e 01       		.byte	0x1
 6866 0a1f 6301     		.2byte	0x163
 6867 0a21 A2000000 		.4byte	0xa2
 6868 0a25 02       		.uleb128 0x2
 6869 0a26 91       		.byte	0x91
 6870 0a27 6E       		.sleb128 -18
 6871 0a28 1C       		.uleb128 0x1c
 6872 0a29 706F7300 		.ascii	"pos\000"
 6873 0a2d 01       		.byte	0x1
 6874 0a2e 6401     		.2byte	0x164
 6875 0a30 AD000000 		.4byte	0xad
 6876 0a34 02       		.uleb128 0x2
 6877 0a35 91       		.byte	0x91
 6878 0a36 6C       		.sleb128 -20
 6879 0a37 1C       		.uleb128 0x1c
 6880 0a38 6900     		.ascii	"i\000"
 6881 0a3a 01       		.byte	0x1
 6882 0a3b 6501     		.2byte	0x165
 6883 0a3d A2000000 		.4byte	0xa2
 6884 0a41 02       		.uleb128 0x2
 6885 0a42 91       		.byte	0x91
 6886 0a43 72       		.sleb128 -14
 6887 0a44 1F       		.uleb128 0x1f
 6888 0a45 00030000 		.4byte	.LASF97
 6889 0a49 01       		.byte	0x1
 6890 0a4a 6601     		.2byte	0x166
 6891 0a4c A2000000 		.4byte	0xa2
 6892 0a50 02       		.uleb128 0x2
ARM GAS  C:\Users\KJA\AppData\Local\Temp\ccevgiJT.s 			page 149


 6893 0a51 91       		.byte	0x91
 6894 0a52 71       		.sleb128 -15
 6895 0a53 00       		.byte	0
 6896 0a54 19       		.uleb128 0x19
 6897 0a55 35000000 		.4byte	.LASF107
 6898 0a59 01       		.byte	0x1
 6899 0a5a A401     		.2byte	0x1a4
 6900 0a5c A2000000 		.4byte	0xa2
 6901 0a60 00000000 		.4byte	.LFB28
 6902 0a64 2A000000 		.4byte	.LFE28-.LFB28
 6903 0a68 01       		.uleb128 0x1
 6904 0a69 9C       		.byte	0x9c
 6905 0a6a 8D0A0000 		.4byte	0xa8d
 6906 0a6e 1A       		.uleb128 0x1a
 6907 0a6f 75386700 		.ascii	"u8g\000"
 6908 0a73 01       		.byte	0x1
 6909 0a74 A401     		.2byte	0x1a4
 6910 0a76 73030000 		.4byte	0x373
 6911 0a7a 02       		.uleb128 0x2
 6912 0a7b 91       		.byte	0x91
 6913 0a7c 74       		.sleb128 -12
 6914 0a7d 1E       		.uleb128 0x1e
 6915 0a7e 47040000 		.4byte	.LASF106
 6916 0a82 01       		.byte	0x1
 6917 0a83 A401     		.2byte	0x1a4
 6918 0a85 A2000000 		.4byte	0xa2
 6919 0a89 02       		.uleb128 0x2
 6920 0a8a 91       		.byte	0x91
 6921 0a8b 73       		.sleb128 -13
 6922 0a8c 00       		.byte	0
 6923 0a8d 19       		.uleb128 0x19
 6924 0a8e 36010000 		.4byte	.LASF108
 6925 0a92 01       		.byte	0x1
 6926 0a93 AB01     		.2byte	0x1ab
 6927 0a95 97000000 		.4byte	0x97
 6928 0a99 00000000 		.4byte	.LFB29
 6929 0a9d 2E000000 		.4byte	.LFE29-.LFB29
 6930 0aa1 01       		.uleb128 0x1
 6931 0aa2 9C       		.byte	0x9c
 6932 0aa3 C60A0000 		.4byte	0xac6
 6933 0aa7 1A       		.uleb128 0x1a
 6934 0aa8 75386700 		.ascii	"u8g\000"
 6935 0aac 01       		.byte	0x1
 6936 0aad AB01     		.2byte	0x1ab
 6937 0aaf 73030000 		.4byte	0x373
 6938 0ab3 02       		.uleb128 0x2
 6939 0ab4 91       		.byte	0x91
 6940 0ab5 74       		.sleb128 -12
 6941 0ab6 1E       		.uleb128 0x1e
 6942 0ab7 47040000 		.4byte	.LASF106
 6943 0abb 01       		.byte	0x1
 6944 0abc AB01     		.2byte	0x1ab
 6945 0abe A2000000 		.4byte	0xa2
 6946 0ac2 02       		.uleb128 0x2
 6947 0ac3 91       		.byte	0x91
 6948 0ac4 73       		.sleb128 -13
 6949 0ac5 00       		.byte	0
ARM GAS  C:\Users\KJA\AppData\Local\Temp\ccevgiJT.s 			page 150


 6950 0ac6 19       		.uleb128 0x19
 6951 0ac7 9E070000 		.4byte	.LASF109
 6952 0acb 01       		.byte	0x1
 6953 0acc 3402     		.2byte	0x234
 6954 0ace 97000000 		.4byte	0x97
 6955 0ad2 00000000 		.4byte	.LFB30
 6956 0ad6 0E010000 		.4byte	.LFE30-.LFB30
 6957 0ada 01       		.uleb128 0x1
 6958 0adb 9C       		.byte	0x9c
 6959 0adc 8F0B0000 		.4byte	0xb8f
 6960 0ae0 1A       		.uleb128 0x1a
 6961 0ae1 75386700 		.ascii	"u8g\000"
 6962 0ae5 01       		.byte	0x1
 6963 0ae6 3402     		.2byte	0x234
 6964 0ae8 73030000 		.4byte	0x373
 6965 0aec 02       		.uleb128 0x2
 6966 0aed 91       		.byte	0x91
 6967 0aee 5C       		.sleb128 -36
 6968 0aef 1A       		.uleb128 0x1a
 6969 0af0 7800     		.ascii	"x\000"
 6970 0af2 01       		.byte	0x1
 6971 0af3 3402     		.2byte	0x234
 6972 0af5 2E030000 		.4byte	0x32e
 6973 0af9 02       		.uleb128 0x2
 6974 0afa 91       		.byte	0x91
 6975 0afb 5B       		.sleb128 -37
 6976 0afc 1A       		.uleb128 0x1a
 6977 0afd 7900     		.ascii	"y\000"
 6978 0aff 01       		.byte	0x1
 6979 0b00 3402     		.2byte	0x234
 6980 0b02 2E030000 		.4byte	0x32e
 6981 0b06 02       		.uleb128 0x2
 6982 0b07 91       		.byte	0x91
 6983 0b08 5A       		.sleb128 -38
 6984 0b09 1E       		.uleb128 0x1e
 6985 0b0a 13050000 		.4byte	.LASF110
 6986 0b0e 01       		.byte	0x1
 6987 0b0f 3402     		.2byte	0x234
 6988 0b11 A2000000 		.4byte	0xa2
 6989 0b15 02       		.uleb128 0x2
 6990 0b16 91       		.byte	0x91
 6991 0b17 59       		.sleb128 -39
 6992 0b18 1F       		.uleb128 0x1f
 6993 0b19 C2000000 		.4byte	.LASF111
 6994 0b1d 01       		.byte	0x1
 6995 0b1e 3602     		.2byte	0x236
 6996 0b20 0B040000 		.4byte	0x40b
 6997 0b24 02       		.uleb128 0x2
 6998 0b25 91       		.byte	0x91
 6999 0b26 6C       		.sleb128 -20
 7000 0b27 1C       		.uleb128 0x1c
 7001 0b28 7700     		.ascii	"w\000"
 7002 0b2a 01       		.byte	0x1
 7003 0b2b 3702     		.2byte	0x237
 7004 0b2d A2000000 		.4byte	0xa2
 7005 0b31 02       		.uleb128 0x2
 7006 0b32 91       		.byte	0x91
ARM GAS  C:\Users\KJA\AppData\Local\Temp\ccevgiJT.s 			page 151


 7007 0b33 63       		.sleb128 -29
 7008 0b34 1C       		.uleb128 0x1c
 7009 0b35 6800     		.ascii	"h\000"
 7010 0b37 01       		.byte	0x1
 7011 0b38 3702     		.2byte	0x237
 7012 0b3a A2000000 		.4byte	0xa2
 7013 0b3e 02       		.uleb128 0x2
 7014 0b3f 91       		.byte	0x91
 7015 0b40 62       		.sleb128 -30
 7016 0b41 1C       		.uleb128 0x1c
 7017 0b42 6900     		.ascii	"i\000"
 7018 0b44 01       		.byte	0x1
 7019 0b45 3802     		.2byte	0x238
 7020 0b47 A2000000 		.4byte	0xa2
 7021 0b4b 02       		.uleb128 0x2
 7022 0b4c 91       		.byte	0x91
 7023 0b4d 6B       		.sleb128 -21
 7024 0b4e 1C       		.uleb128 0x1c
 7025 0b4f 6A00     		.ascii	"j\000"
 7026 0b51 01       		.byte	0x1
 7027 0b52 3802     		.2byte	0x238
 7028 0b54 A2000000 		.4byte	0xa2
 7029 0b58 02       		.uleb128 0x2
 7030 0b59 91       		.byte	0x91
 7031 0b5a 6A       		.sleb128 -22
 7032 0b5b 1C       		.uleb128 0x1c
 7033 0b5c 697800   		.ascii	"ix\000"
 7034 0b5f 01       		.byte	0x1
 7035 0b60 3902     		.2byte	0x239
 7036 0b62 2E030000 		.4byte	0x32e
 7037 0b66 02       		.uleb128 0x2
 7038 0b67 91       		.byte	0x91
 7039 0b68 69       		.sleb128 -23
 7040 0b69 1C       		.uleb128 0x1c
 7041 0b6a 697900   		.ascii	"iy\000"
 7042 0b6d 01       		.byte	0x1
 7043 0b6e 3902     		.2byte	0x239
 7044 0b70 2E030000 		.4byte	0x32e
 7045 0b74 02       		.uleb128 0x2
 7046 0b75 91       		.byte	0x91
 7047 0b76 68       		.sleb128 -24
 7048 0b77 20       		.uleb128 0x20
 7049 0b78 1A000000 		.4byte	.LBB2
 7050 0b7c 24000000 		.4byte	.LBE2-.LBB2
 7051 0b80 1C       		.uleb128 0x1c
 7052 0b81 6700     		.ascii	"g\000"
 7053 0b83 01       		.byte	0x1
 7054 0b84 3C02     		.2byte	0x23c
 7055 0b86 1D040000 		.4byte	0x41d
 7056 0b8a 02       		.uleb128 0x2
 7057 0b8b 91       		.byte	0x91
 7058 0b8c 64       		.sleb128 -28
 7059 0b8d 00       		.byte	0
 7060 0b8e 00       		.byte	0
 7061 0b8f 19       		.uleb128 0x19
 7062 0b90 E7090000 		.4byte	.LASF112
 7063 0b94 01       		.byte	0x1
ARM GAS  C:\Users\KJA\AppData\Local\Temp\ccevgiJT.s 			page 152


 7064 0b95 6202     		.2byte	0x262
 7065 0b97 97000000 		.4byte	0x97
 7066 0b9b 00000000 		.4byte	.LFB31
 7067 0b9f 42000000 		.4byte	.LFE31-.LFB31
 7068 0ba3 01       		.uleb128 0x1
 7069 0ba4 9C       		.byte	0x9c
 7070 0ba5 E20B0000 		.4byte	0xbe2
 7071 0ba9 1A       		.uleb128 0x1a
 7072 0baa 75386700 		.ascii	"u8g\000"
 7073 0bae 01       		.byte	0x1
 7074 0baf 6202     		.2byte	0x262
 7075 0bb1 73030000 		.4byte	0x373
 7076 0bb5 02       		.uleb128 0x2
 7077 0bb6 91       		.byte	0x91
 7078 0bb7 74       		.sleb128 -12
 7079 0bb8 1A       		.uleb128 0x1a
 7080 0bb9 7800     		.ascii	"x\000"
 7081 0bbb 01       		.byte	0x1
 7082 0bbc 6202     		.2byte	0x262
 7083 0bbe 2E030000 		.4byte	0x32e
 7084 0bc2 02       		.uleb128 0x2
 7085 0bc3 91       		.byte	0x91
 7086 0bc4 73       		.sleb128 -13
 7087 0bc5 1A       		.uleb128 0x1a
 7088 0bc6 7900     		.ascii	"y\000"
 7089 0bc8 01       		.byte	0x1
 7090 0bc9 6202     		.2byte	0x262
 7091 0bcb 2E030000 		.4byte	0x32e
 7092 0bcf 02       		.uleb128 0x2
 7093 0bd0 91       		.byte	0x91
 7094 0bd1 72       		.sleb128 -14
 7095 0bd2 1E       		.uleb128 0x1e
 7096 0bd3 13050000 		.4byte	.LASF110
 7097 0bd7 01       		.byte	0x1
 7098 0bd8 6202     		.2byte	0x262
 7099 0bda A2000000 		.4byte	0xa2
 7100 0bde 02       		.uleb128 0x2
 7101 0bdf 91       		.byte	0x91
 7102 0be0 71       		.sleb128 -15
 7103 0be1 00       		.byte	0
 7104 0be2 19       		.uleb128 0x19
 7105 0be3 90020000 		.4byte	.LASF113
 7106 0be7 01       		.byte	0x1
 7107 0be8 6802     		.2byte	0x268
 7108 0bea 97000000 		.4byte	0x97
 7109 0bee 00000000 		.4byte	.LFB32
 7110 0bf2 04010000 		.4byte	.LFE32-.LFB32
 7111 0bf6 01       		.uleb128 0x1
 7112 0bf7 9C       		.byte	0x9c
 7113 0bf8 AB0C0000 		.4byte	0xcab
 7114 0bfc 1A       		.uleb128 0x1a
 7115 0bfd 75386700 		.ascii	"u8g\000"
 7116 0c01 01       		.byte	0x1
 7117 0c02 6802     		.2byte	0x268
 7118 0c04 73030000 		.4byte	0x373
 7119 0c08 02       		.uleb128 0x2
 7120 0c09 91       		.byte	0x91
ARM GAS  C:\Users\KJA\AppData\Local\Temp\ccevgiJT.s 			page 153


 7121 0c0a 5C       		.sleb128 -36
 7122 0c0b 1A       		.uleb128 0x1a
 7123 0c0c 7800     		.ascii	"x\000"
 7124 0c0e 01       		.byte	0x1
 7125 0c0f 6802     		.2byte	0x268
 7126 0c11 2E030000 		.4byte	0x32e
 7127 0c15 02       		.uleb128 0x2
 7128 0c16 91       		.byte	0x91
 7129 0c17 5B       		.sleb128 -37
 7130 0c18 1A       		.uleb128 0x1a
 7131 0c19 7900     		.ascii	"y\000"
 7132 0c1b 01       		.byte	0x1
 7133 0c1c 6802     		.2byte	0x268
 7134 0c1e 2E030000 		.4byte	0x32e
 7135 0c22 02       		.uleb128 0x2
 7136 0c23 91       		.byte	0x91
 7137 0c24 5A       		.sleb128 -38
 7138 0c25 1E       		.uleb128 0x1e
 7139 0c26 13050000 		.4byte	.LASF110
 7140 0c2a 01       		.byte	0x1
 7141 0c2b 6802     		.2byte	0x268
 7142 0c2d A2000000 		.4byte	0xa2
 7143 0c31 02       		.uleb128 0x2
 7144 0c32 91       		.byte	0x91
 7145 0c33 59       		.sleb128 -39
 7146 0c34 1F       		.uleb128 0x1f
 7147 0c35 C2000000 		.4byte	.LASF111
 7148 0c39 01       		.byte	0x1
 7149 0c3a 6A02     		.2byte	0x26a
 7150 0c3c 0B040000 		.4byte	0x40b
 7151 0c40 02       		.uleb128 0x2
 7152 0c41 91       		.byte	0x91
 7153 0c42 6C       		.sleb128 -20
 7154 0c43 1C       		.uleb128 0x1c
 7155 0c44 7700     		.ascii	"w\000"
 7156 0c46 01       		.byte	0x1
 7157 0c47 6B02     		.2byte	0x26b
 7158 0c49 A2000000 		.4byte	0xa2
 7159 0c4d 02       		.uleb128 0x2
 7160 0c4e 91       		.byte	0x91
 7161 0c4f 63       		.sleb128 -29
 7162 0c50 1C       		.uleb128 0x1c
 7163 0c51 6800     		.ascii	"h\000"
 7164 0c53 01       		.byte	0x1
 7165 0c54 6B02     		.2byte	0x26b
 7166 0c56 A2000000 		.4byte	0xa2
 7167 0c5a 02       		.uleb128 0x2
 7168 0c5b 91       		.byte	0x91
 7169 0c5c 62       		.sleb128 -30
 7170 0c5d 1C       		.uleb128 0x1c
 7171 0c5e 6900     		.ascii	"i\000"
 7172 0c60 01       		.byte	0x1
 7173 0c61 6C02     		.2byte	0x26c
 7174 0c63 A2000000 		.4byte	0xa2
 7175 0c67 02       		.uleb128 0x2
 7176 0c68 91       		.byte	0x91
 7177 0c69 6B       		.sleb128 -21
ARM GAS  C:\Users\KJA\AppData\Local\Temp\ccevgiJT.s 			page 154


 7178 0c6a 1C       		.uleb128 0x1c
 7179 0c6b 6A00     		.ascii	"j\000"
 7180 0c6d 01       		.byte	0x1
 7181 0c6e 6C02     		.2byte	0x26c
 7182 0c70 A2000000 		.4byte	0xa2
 7183 0c74 02       		.uleb128 0x2
 7184 0c75 91       		.byte	0x91
 7185 0c76 6A       		.sleb128 -22
 7186 0c77 1C       		.uleb128 0x1c
 7187 0c78 697800   		.ascii	"ix\000"
 7188 0c7b 01       		.byte	0x1
 7189 0c7c 6D02     		.2byte	0x26d
 7190 0c7e 2E030000 		.4byte	0x32e
 7191 0c82 02       		.uleb128 0x2
 7192 0c83 91       		.byte	0x91
 7193 0c84 69       		.sleb128 -23
 7194 0c85 1C       		.uleb128 0x1c
 7195 0c86 697900   		.ascii	"iy\000"
 7196 0c89 01       		.byte	0x1
 7197 0c8a 6D02     		.2byte	0x26d
 7198 0c8c 2E030000 		.4byte	0x32e
 7199 0c90 02       		.uleb128 0x2
 7200 0c91 91       		.byte	0x91
 7201 0c92 68       		.sleb128 -24
 7202 0c93 20       		.uleb128 0x20
 7203 0c94 1A000000 		.4byte	.LBB3
 7204 0c98 24000000 		.4byte	.LBE3-.LBB3
 7205 0c9c 1C       		.uleb128 0x1c
 7206 0c9d 6700     		.ascii	"g\000"
 7207 0c9f 01       		.byte	0x1
 7208 0ca0 7002     		.2byte	0x270
 7209 0ca2 1D040000 		.4byte	0x41d
 7210 0ca6 02       		.uleb128 0x2
 7211 0ca7 91       		.byte	0x91
 7212 0ca8 64       		.sleb128 -28
 7213 0ca9 00       		.byte	0
 7214 0caa 00       		.byte	0
 7215 0cab 19       		.uleb128 0x19
 7216 0cac 49090000 		.4byte	.LASF114
 7217 0cb0 01       		.byte	0x1
 7218 0cb1 9502     		.2byte	0x295
 7219 0cb3 97000000 		.4byte	0x97
 7220 0cb7 00000000 		.4byte	.LFB33
 7221 0cbb 42000000 		.4byte	.LFE33-.LFB33
 7222 0cbf 01       		.uleb128 0x1
 7223 0cc0 9C       		.byte	0x9c
 7224 0cc1 FE0C0000 		.4byte	0xcfe
 7225 0cc5 1A       		.uleb128 0x1a
 7226 0cc6 75386700 		.ascii	"u8g\000"
 7227 0cca 01       		.byte	0x1
 7228 0ccb 9502     		.2byte	0x295
 7229 0ccd 73030000 		.4byte	0x373
 7230 0cd1 02       		.uleb128 0x2
 7231 0cd2 91       		.byte	0x91
 7232 0cd3 74       		.sleb128 -12
 7233 0cd4 1A       		.uleb128 0x1a
 7234 0cd5 7800     		.ascii	"x\000"
ARM GAS  C:\Users\KJA\AppData\Local\Temp\ccevgiJT.s 			page 155


 7235 0cd7 01       		.byte	0x1
 7236 0cd8 9502     		.2byte	0x295
 7237 0cda 2E030000 		.4byte	0x32e
 7238 0cde 02       		.uleb128 0x2
 7239 0cdf 91       		.byte	0x91
 7240 0ce0 73       		.sleb128 -13
 7241 0ce1 1A       		.uleb128 0x1a
 7242 0ce2 7900     		.ascii	"y\000"
 7243 0ce4 01       		.byte	0x1
 7244 0ce5 9502     		.2byte	0x295
 7245 0ce7 2E030000 		.4byte	0x32e
 7246 0ceb 02       		.uleb128 0x2
 7247 0cec 91       		.byte	0x91
 7248 0ced 72       		.sleb128 -14
 7249 0cee 1E       		.uleb128 0x1e
 7250 0cef 13050000 		.4byte	.LASF110
 7251 0cf3 01       		.byte	0x1
 7252 0cf4 9502     		.2byte	0x295
 7253 0cf6 A2000000 		.4byte	0xa2
 7254 0cfa 02       		.uleb128 0x2
 7255 0cfb 91       		.byte	0x91
 7256 0cfc 71       		.sleb128 -15
 7257 0cfd 00       		.byte	0
 7258 0cfe 19       		.uleb128 0x19
 7259 0cff BA070000 		.4byte	.LASF115
 7260 0d03 01       		.byte	0x1
 7261 0d04 9C02     		.2byte	0x29c
 7262 0d06 97000000 		.4byte	0x97
 7263 0d0a 00000000 		.4byte	.LFB34
 7264 0d0e 0E010000 		.4byte	.LFE34-.LFB34
 7265 0d12 01       		.uleb128 0x1
 7266 0d13 9C       		.byte	0x9c
 7267 0d14 C70D0000 		.4byte	0xdc7
 7268 0d18 1A       		.uleb128 0x1a
 7269 0d19 75386700 		.ascii	"u8g\000"
 7270 0d1d 01       		.byte	0x1
 7271 0d1e 9C02     		.2byte	0x29c
 7272 0d20 73030000 		.4byte	0x373
 7273 0d24 02       		.uleb128 0x2
 7274 0d25 91       		.byte	0x91
 7275 0d26 5C       		.sleb128 -36
 7276 0d27 1A       		.uleb128 0x1a
 7277 0d28 7800     		.ascii	"x\000"
 7278 0d2a 01       		.byte	0x1
 7279 0d2b 9C02     		.2byte	0x29c
 7280 0d2d 2E030000 		.4byte	0x32e
 7281 0d31 02       		.uleb128 0x2
 7282 0d32 91       		.byte	0x91
 7283 0d33 5B       		.sleb128 -37
 7284 0d34 1A       		.uleb128 0x1a
 7285 0d35 7900     		.ascii	"y\000"
 7286 0d37 01       		.byte	0x1
 7287 0d38 9C02     		.2byte	0x29c
 7288 0d3a 2E030000 		.4byte	0x32e
 7289 0d3e 02       		.uleb128 0x2
 7290 0d3f 91       		.byte	0x91
 7291 0d40 5A       		.sleb128 -38
ARM GAS  C:\Users\KJA\AppData\Local\Temp\ccevgiJT.s 			page 156


 7292 0d41 1E       		.uleb128 0x1e
 7293 0d42 13050000 		.4byte	.LASF110
 7294 0d46 01       		.byte	0x1
 7295 0d47 9C02     		.2byte	0x29c
 7296 0d49 A2000000 		.4byte	0xa2
 7297 0d4d 02       		.uleb128 0x2
 7298 0d4e 91       		.byte	0x91
 7299 0d4f 59       		.sleb128 -39
 7300 0d50 1F       		.uleb128 0x1f
 7301 0d51 C2000000 		.4byte	.LASF111
 7302 0d55 01       		.byte	0x1
 7303 0d56 9E02     		.2byte	0x29e
 7304 0d58 0B040000 		.4byte	0x40b
 7305 0d5c 02       		.uleb128 0x2
 7306 0d5d 91       		.byte	0x91
 7307 0d5e 6C       		.sleb128 -20
 7308 0d5f 1C       		.uleb128 0x1c
 7309 0d60 7700     		.ascii	"w\000"
 7310 0d62 01       		.byte	0x1
 7311 0d63 9F02     		.2byte	0x29f
 7312 0d65 A2000000 		.4byte	0xa2
 7313 0d69 02       		.uleb128 0x2
 7314 0d6a 91       		.byte	0x91
 7315 0d6b 63       		.sleb128 -29
 7316 0d6c 1C       		.uleb128 0x1c
 7317 0d6d 6800     		.ascii	"h\000"
 7318 0d6f 01       		.byte	0x1
 7319 0d70 9F02     		.2byte	0x29f
 7320 0d72 A2000000 		.4byte	0xa2
 7321 0d76 02       		.uleb128 0x2
 7322 0d77 91       		.byte	0x91
 7323 0d78 62       		.sleb128 -30
 7324 0d79 1C       		.uleb128 0x1c
 7325 0d7a 6900     		.ascii	"i\000"
 7326 0d7c 01       		.byte	0x1
 7327 0d7d A002     		.2byte	0x2a0
 7328 0d7f A2000000 		.4byte	0xa2
 7329 0d83 02       		.uleb128 0x2
 7330 0d84 91       		.byte	0x91
 7331 0d85 6B       		.sleb128 -21
 7332 0d86 1C       		.uleb128 0x1c
 7333 0d87 6A00     		.ascii	"j\000"
 7334 0d89 01       		.byte	0x1
 7335 0d8a A002     		.2byte	0x2a0
 7336 0d8c A2000000 		.4byte	0xa2
 7337 0d90 02       		.uleb128 0x2
 7338 0d91 91       		.byte	0x91
 7339 0d92 6A       		.sleb128 -22
 7340 0d93 1C       		.uleb128 0x1c
 7341 0d94 697800   		.ascii	"ix\000"
 7342 0d97 01       		.byte	0x1
 7343 0d98 A102     		.2byte	0x2a1
 7344 0d9a 2E030000 		.4byte	0x32e
 7345 0d9e 02       		.uleb128 0x2
 7346 0d9f 91       		.byte	0x91
 7347 0da0 69       		.sleb128 -23
 7348 0da1 1C       		.uleb128 0x1c
ARM GAS  C:\Users\KJA\AppData\Local\Temp\ccevgiJT.s 			page 157


 7349 0da2 697900   		.ascii	"iy\000"
 7350 0da5 01       		.byte	0x1
 7351 0da6 A102     		.2byte	0x2a1
 7352 0da8 2E030000 		.4byte	0x32e
 7353 0dac 02       		.uleb128 0x2
 7354 0dad 91       		.byte	0x91
 7355 0dae 68       		.sleb128 -24
 7356 0daf 20       		.uleb128 0x20
 7357 0db0 1A000000 		.4byte	.LBB4
 7358 0db4 24000000 		.4byte	.LBE4-.LBB4
 7359 0db8 1C       		.uleb128 0x1c
 7360 0db9 6700     		.ascii	"g\000"
 7361 0dbb 01       		.byte	0x1
 7362 0dbc A402     		.2byte	0x2a4
 7363 0dbe 1D040000 		.4byte	0x41d
 7364 0dc2 02       		.uleb128 0x2
 7365 0dc3 91       		.byte	0x91
 7366 0dc4 64       		.sleb128 -28
 7367 0dc5 00       		.byte	0
 7368 0dc6 00       		.byte	0
 7369 0dc7 19       		.uleb128 0x19
 7370 0dc8 190B0000 		.4byte	.LASF116
 7371 0dcc 01       		.byte	0x1
 7372 0dcd C902     		.2byte	0x2c9
 7373 0dcf 97000000 		.4byte	0x97
 7374 0dd3 00000000 		.4byte	.LFB35
 7375 0dd7 42000000 		.4byte	.LFE35-.LFB35
 7376 0ddb 01       		.uleb128 0x1
 7377 0ddc 9C       		.byte	0x9c
 7378 0ddd 1A0E0000 		.4byte	0xe1a
 7379 0de1 1A       		.uleb128 0x1a
 7380 0de2 75386700 		.ascii	"u8g\000"
 7381 0de6 01       		.byte	0x1
 7382 0de7 C902     		.2byte	0x2c9
 7383 0de9 73030000 		.4byte	0x373
 7384 0ded 02       		.uleb128 0x2
 7385 0dee 91       		.byte	0x91
 7386 0def 74       		.sleb128 -12
 7387 0df0 1A       		.uleb128 0x1a
 7388 0df1 7800     		.ascii	"x\000"
 7389 0df3 01       		.byte	0x1
 7390 0df4 C902     		.2byte	0x2c9
 7391 0df6 2E030000 		.4byte	0x32e
 7392 0dfa 02       		.uleb128 0x2
 7393 0dfb 91       		.byte	0x91
 7394 0dfc 73       		.sleb128 -13
 7395 0dfd 1A       		.uleb128 0x1a
 7396 0dfe 7900     		.ascii	"y\000"
 7397 0e00 01       		.byte	0x1
 7398 0e01 C902     		.2byte	0x2c9
 7399 0e03 2E030000 		.4byte	0x32e
 7400 0e07 02       		.uleb128 0x2
 7401 0e08 91       		.byte	0x91
 7402 0e09 72       		.sleb128 -14
 7403 0e0a 1E       		.uleb128 0x1e
 7404 0e0b 13050000 		.4byte	.LASF110
 7405 0e0f 01       		.byte	0x1
ARM GAS  C:\Users\KJA\AppData\Local\Temp\ccevgiJT.s 			page 158


 7406 0e10 C902     		.2byte	0x2c9
 7407 0e12 A2000000 		.4byte	0xa2
 7408 0e16 02       		.uleb128 0x2
 7409 0e17 91       		.byte	0x91
 7410 0e18 71       		.sleb128 -15
 7411 0e19 00       		.byte	0
 7412 0e1a 19       		.uleb128 0x19
 7413 0e1b C7000000 		.4byte	.LASF117
 7414 0e1f 01       		.byte	0x1
 7415 0e20 D002     		.2byte	0x2d0
 7416 0e22 97000000 		.4byte	0x97
 7417 0e26 00000000 		.4byte	.LFB36
 7418 0e2a 18010000 		.4byte	.LFE36-.LFB36
 7419 0e2e 01       		.uleb128 0x1
 7420 0e2f 9C       		.byte	0x9c
 7421 0e30 E30E0000 		.4byte	0xee3
 7422 0e34 1A       		.uleb128 0x1a
 7423 0e35 75386700 		.ascii	"u8g\000"
 7424 0e39 01       		.byte	0x1
 7425 0e3a D002     		.2byte	0x2d0
 7426 0e3c 73030000 		.4byte	0x373
 7427 0e40 02       		.uleb128 0x2
 7428 0e41 91       		.byte	0x91
 7429 0e42 5C       		.sleb128 -36
 7430 0e43 1A       		.uleb128 0x1a
 7431 0e44 7800     		.ascii	"x\000"
 7432 0e46 01       		.byte	0x1
 7433 0e47 D002     		.2byte	0x2d0
 7434 0e49 2E030000 		.4byte	0x32e
 7435 0e4d 02       		.uleb128 0x2
 7436 0e4e 91       		.byte	0x91
 7437 0e4f 5B       		.sleb128 -37
 7438 0e50 1A       		.uleb128 0x1a
 7439 0e51 7900     		.ascii	"y\000"
 7440 0e53 01       		.byte	0x1
 7441 0e54 D002     		.2byte	0x2d0
 7442 0e56 2E030000 		.4byte	0x32e
 7443 0e5a 02       		.uleb128 0x2
 7444 0e5b 91       		.byte	0x91
 7445 0e5c 5A       		.sleb128 -38
 7446 0e5d 1E       		.uleb128 0x1e
 7447 0e5e 13050000 		.4byte	.LASF110
 7448 0e62 01       		.byte	0x1
 7449 0e63 D002     		.2byte	0x2d0
 7450 0e65 A2000000 		.4byte	0xa2
 7451 0e69 02       		.uleb128 0x2
 7452 0e6a 91       		.byte	0x91
 7453 0e6b 59       		.sleb128 -39
 7454 0e6c 1F       		.uleb128 0x1f
 7455 0e6d C2000000 		.4byte	.LASF111
 7456 0e71 01       		.byte	0x1
 7457 0e72 D202     		.2byte	0x2d2
 7458 0e74 0B040000 		.4byte	0x40b
 7459 0e78 02       		.uleb128 0x2
 7460 0e79 91       		.byte	0x91
 7461 0e7a 6C       		.sleb128 -20
 7462 0e7b 1C       		.uleb128 0x1c
ARM GAS  C:\Users\KJA\AppData\Local\Temp\ccevgiJT.s 			page 159


 7463 0e7c 7700     		.ascii	"w\000"
 7464 0e7e 01       		.byte	0x1
 7465 0e7f D302     		.2byte	0x2d3
 7466 0e81 A2000000 		.4byte	0xa2
 7467 0e85 02       		.uleb128 0x2
 7468 0e86 91       		.byte	0x91
 7469 0e87 63       		.sleb128 -29
 7470 0e88 1C       		.uleb128 0x1c
 7471 0e89 6800     		.ascii	"h\000"
 7472 0e8b 01       		.byte	0x1
 7473 0e8c D302     		.2byte	0x2d3
 7474 0e8e A2000000 		.4byte	0xa2
 7475 0e92 02       		.uleb128 0x2
 7476 0e93 91       		.byte	0x91
 7477 0e94 62       		.sleb128 -30
 7478 0e95 1C       		.uleb128 0x1c
 7479 0e96 6900     		.ascii	"i\000"
 7480 0e98 01       		.byte	0x1
 7481 0e99 D402     		.2byte	0x2d4
 7482 0e9b A2000000 		.4byte	0xa2
 7483 0e9f 02       		.uleb128 0x2
 7484 0ea0 91       		.byte	0x91
 7485 0ea1 6B       		.sleb128 -21
 7486 0ea2 1C       		.uleb128 0x1c
 7487 0ea3 6A00     		.ascii	"j\000"
 7488 0ea5 01       		.byte	0x1
 7489 0ea6 D402     		.2byte	0x2d4
 7490 0ea8 A2000000 		.4byte	0xa2
 7491 0eac 02       		.uleb128 0x2
 7492 0ead 91       		.byte	0x91
 7493 0eae 6A       		.sleb128 -22
 7494 0eaf 1C       		.uleb128 0x1c
 7495 0eb0 697800   		.ascii	"ix\000"
 7496 0eb3 01       		.byte	0x1
 7497 0eb4 D502     		.2byte	0x2d5
 7498 0eb6 2E030000 		.4byte	0x32e
 7499 0eba 02       		.uleb128 0x2
 7500 0ebb 91       		.byte	0x91
 7501 0ebc 69       		.sleb128 -23
 7502 0ebd 1C       		.uleb128 0x1c
 7503 0ebe 697900   		.ascii	"iy\000"
 7504 0ec1 01       		.byte	0x1
 7505 0ec2 D502     		.2byte	0x2d5
 7506 0ec4 2E030000 		.4byte	0x32e
 7507 0ec8 02       		.uleb128 0x2
 7508 0ec9 91       		.byte	0x91
 7509 0eca 68       		.sleb128 -24
 7510 0ecb 20       		.uleb128 0x20
 7511 0ecc 1A000000 		.4byte	.LBB5
 7512 0ed0 24000000 		.4byte	.LBE5-.LBB5
 7513 0ed4 1C       		.uleb128 0x1c
 7514 0ed5 6700     		.ascii	"g\000"
 7515 0ed7 01       		.byte	0x1
 7516 0ed8 D802     		.2byte	0x2d8
 7517 0eda 1D040000 		.4byte	0x41d
 7518 0ede 02       		.uleb128 0x2
 7519 0edf 91       		.byte	0x91
ARM GAS  C:\Users\KJA\AppData\Local\Temp\ccevgiJT.s 			page 160


 7520 0ee0 64       		.sleb128 -28
 7521 0ee1 00       		.byte	0
 7522 0ee2 00       		.byte	0
 7523 0ee3 19       		.uleb128 0x19
 7524 0ee4 03010000 		.4byte	.LASF118
 7525 0ee8 01       		.byte	0x1
 7526 0ee9 FF02     		.2byte	0x2ff
 7527 0eeb 97000000 		.4byte	0x97
 7528 0eef 00000000 		.4byte	.LFB37
 7529 0ef3 42000000 		.4byte	.LFE37-.LFB37
 7530 0ef7 01       		.uleb128 0x1
 7531 0ef8 9C       		.byte	0x9c
 7532 0ef9 360F0000 		.4byte	0xf36
 7533 0efd 1A       		.uleb128 0x1a
 7534 0efe 75386700 		.ascii	"u8g\000"
 7535 0f02 01       		.byte	0x1
 7536 0f03 FF02     		.2byte	0x2ff
 7537 0f05 73030000 		.4byte	0x373
 7538 0f09 02       		.uleb128 0x2
 7539 0f0a 91       		.byte	0x91
 7540 0f0b 74       		.sleb128 -12
 7541 0f0c 1A       		.uleb128 0x1a
 7542 0f0d 7800     		.ascii	"x\000"
 7543 0f0f 01       		.byte	0x1
 7544 0f10 FF02     		.2byte	0x2ff
 7545 0f12 2E030000 		.4byte	0x32e
 7546 0f16 02       		.uleb128 0x2
 7547 0f17 91       		.byte	0x91
 7548 0f18 73       		.sleb128 -13
 7549 0f19 1A       		.uleb128 0x1a
 7550 0f1a 7900     		.ascii	"y\000"
 7551 0f1c 01       		.byte	0x1
 7552 0f1d FF02     		.2byte	0x2ff
 7553 0f1f 2E030000 		.4byte	0x32e
 7554 0f23 02       		.uleb128 0x2
 7555 0f24 91       		.byte	0x91
 7556 0f25 72       		.sleb128 -14
 7557 0f26 1E       		.uleb128 0x1e
 7558 0f27 13050000 		.4byte	.LASF110
 7559 0f2b 01       		.byte	0x1
 7560 0f2c FF02     		.2byte	0x2ff
 7561 0f2e A2000000 		.4byte	0xa2
 7562 0f32 02       		.uleb128 0x2
 7563 0f33 91       		.byte	0x91
 7564 0f34 71       		.sleb128 -15
 7565 0f35 00       		.byte	0
 7566 0f36 19       		.uleb128 0x19
 7567 0f37 A2090000 		.4byte	.LASF119
 7568 0f3b 01       		.byte	0x1
 7569 0f3c 1903     		.2byte	0x319
 7570 0f3e 2E030000 		.4byte	0x32e
 7571 0f42 00000000 		.4byte	.LFB38
 7572 0f46 64000000 		.4byte	.LFE38-.LFB38
 7573 0f4a 01       		.uleb128 0x1
 7574 0f4b 9C       		.byte	0x9c
 7575 0f4c A10F0000 		.4byte	0xfa1
 7576 0f50 1A       		.uleb128 0x1a
ARM GAS  C:\Users\KJA\AppData\Local\Temp\ccevgiJT.s 			page 161


 7577 0f51 75386700 		.ascii	"u8g\000"
 7578 0f55 01       		.byte	0x1
 7579 0f56 1903     		.2byte	0x319
 7580 0f58 73030000 		.4byte	0x373
 7581 0f5c 02       		.uleb128 0x2
 7582 0f5d 91       		.byte	0x91
 7583 0f5e 6C       		.sleb128 -20
 7584 0f5f 1A       		.uleb128 0x1a
 7585 0f60 7800     		.ascii	"x\000"
 7586 0f62 01       		.byte	0x1
 7587 0f63 1903     		.2byte	0x319
 7588 0f65 2E030000 		.4byte	0x32e
 7589 0f69 02       		.uleb128 0x2
 7590 0f6a 91       		.byte	0x91
 7591 0f6b 6B       		.sleb128 -21
 7592 0f6c 1A       		.uleb128 0x1a
 7593 0f6d 7900     		.ascii	"y\000"
 7594 0f6f 01       		.byte	0x1
 7595 0f70 1903     		.2byte	0x319
 7596 0f72 2E030000 		.4byte	0x32e
 7597 0f76 02       		.uleb128 0x2
 7598 0f77 91       		.byte	0x91
 7599 0f78 6A       		.sleb128 -22
 7600 0f79 1A       		.uleb128 0x1a
 7601 0f7a 7300     		.ascii	"s\000"
 7602 0f7c 01       		.byte	0x1
 7603 0f7d 1903     		.2byte	0x319
 7604 0f7f A10F0000 		.4byte	0xfa1
 7605 0f83 02       		.uleb128 0x2
 7606 0f84 91       		.byte	0x91
 7607 0f85 64       		.sleb128 -28
 7608 0f86 1C       		.uleb128 0x1c
 7609 0f87 7400     		.ascii	"t\000"
 7610 0f89 01       		.byte	0x1
 7611 0f8a 1B03     		.2byte	0x31b
 7612 0f8c 2E030000 		.4byte	0x32e
 7613 0f90 02       		.uleb128 0x2
 7614 0f91 91       		.byte	0x91
 7615 0f92 77       		.sleb128 -9
 7616 0f93 1C       		.uleb128 0x1c
 7617 0f94 6400     		.ascii	"d\000"
 7618 0f96 01       		.byte	0x1
 7619 0f97 1C03     		.2byte	0x31c
 7620 0f99 97000000 		.4byte	0x97
 7621 0f9d 02       		.uleb128 0x2
 7622 0f9e 91       		.byte	0x91
 7623 0f9f 76       		.sleb128 -10
 7624 0fa0 00       		.byte	0
 7625 0fa1 0A       		.uleb128 0xa
 7626 0fa2 04       		.byte	0x4
 7627 0fa3 A70F0000 		.4byte	0xfa7
 7628 0fa7 10       		.uleb128 0x10
 7629 0fa8 49040000 		.4byte	0x449
 7630 0fac 19       		.uleb128 0x19
 7631 0fad 60090000 		.4byte	.LASF120
 7632 0fb1 01       		.byte	0x1
 7633 0fb2 2D03     		.2byte	0x32d
ARM GAS  C:\Users\KJA\AppData\Local\Temp\ccevgiJT.s 			page 162


 7634 0fb4 2E030000 		.4byte	0x32e
 7635 0fb8 00000000 		.4byte	.LFB39
 7636 0fbc 64000000 		.4byte	.LFE39-.LFB39
 7637 0fc0 01       		.uleb128 0x1
 7638 0fc1 9C       		.byte	0x9c
 7639 0fc2 17100000 		.4byte	0x1017
 7640 0fc6 1A       		.uleb128 0x1a
 7641 0fc7 75386700 		.ascii	"u8g\000"
 7642 0fcb 01       		.byte	0x1
 7643 0fcc 2D03     		.2byte	0x32d
 7644 0fce 73030000 		.4byte	0x373
 7645 0fd2 02       		.uleb128 0x2
 7646 0fd3 91       		.byte	0x91
 7647 0fd4 6C       		.sleb128 -20
 7648 0fd5 1A       		.uleb128 0x1a
 7649 0fd6 7800     		.ascii	"x\000"
 7650 0fd8 01       		.byte	0x1
 7651 0fd9 2D03     		.2byte	0x32d
 7652 0fdb 2E030000 		.4byte	0x32e
 7653 0fdf 02       		.uleb128 0x2
 7654 0fe0 91       		.byte	0x91
 7655 0fe1 6B       		.sleb128 -21
 7656 0fe2 1A       		.uleb128 0x1a
 7657 0fe3 7900     		.ascii	"y\000"
 7658 0fe5 01       		.byte	0x1
 7659 0fe6 2D03     		.2byte	0x32d
 7660 0fe8 2E030000 		.4byte	0x32e
 7661 0fec 02       		.uleb128 0x2
 7662 0fed 91       		.byte	0x91
 7663 0fee 6A       		.sleb128 -22
 7664 0fef 1A       		.uleb128 0x1a
 7665 0ff0 7300     		.ascii	"s\000"
 7666 0ff2 01       		.byte	0x1
 7667 0ff3 2D03     		.2byte	0x32d
 7668 0ff5 A10F0000 		.4byte	0xfa1
 7669 0ff9 02       		.uleb128 0x2
 7670 0ffa 91       		.byte	0x91
 7671 0ffb 64       		.sleb128 -28
 7672 0ffc 1C       		.uleb128 0x1c
 7673 0ffd 7400     		.ascii	"t\000"
 7674 0fff 01       		.byte	0x1
 7675 1000 2F03     		.2byte	0x32f
 7676 1002 2E030000 		.4byte	0x32e
 7677 1006 02       		.uleb128 0x2
 7678 1007 91       		.byte	0x91
 7679 1008 77       		.sleb128 -9
 7680 1009 1C       		.uleb128 0x1c
 7681 100a 6400     		.ascii	"d\000"
 7682 100c 01       		.byte	0x1
 7683 100d 3003     		.2byte	0x330
 7684 100f 97000000 		.4byte	0x97
 7685 1013 02       		.uleb128 0x2
 7686 1014 91       		.byte	0x91
 7687 1015 76       		.sleb128 -10
 7688 1016 00       		.byte	0
 7689 1017 19       		.uleb128 0x19
 7690 1018 4C0A0000 		.4byte	.LASF121
ARM GAS  C:\Users\KJA\AppData\Local\Temp\ccevgiJT.s 			page 163


 7691 101c 01       		.byte	0x1
 7692 101d 3E03     		.2byte	0x33e
 7693 101f 2E030000 		.4byte	0x32e
 7694 1023 00000000 		.4byte	.LFB40
 7695 1027 64000000 		.4byte	.LFE40-.LFB40
 7696 102b 01       		.uleb128 0x1
 7697 102c 9C       		.byte	0x9c
 7698 102d 82100000 		.4byte	0x1082
 7699 1031 1A       		.uleb128 0x1a
 7700 1032 75386700 		.ascii	"u8g\000"
 7701 1036 01       		.byte	0x1
 7702 1037 3E03     		.2byte	0x33e
 7703 1039 73030000 		.4byte	0x373
 7704 103d 02       		.uleb128 0x2
 7705 103e 91       		.byte	0x91
 7706 103f 6C       		.sleb128 -20
 7707 1040 1A       		.uleb128 0x1a
 7708 1041 7800     		.ascii	"x\000"
 7709 1043 01       		.byte	0x1
 7710 1044 3E03     		.2byte	0x33e
 7711 1046 2E030000 		.4byte	0x32e
 7712 104a 02       		.uleb128 0x2
 7713 104b 91       		.byte	0x91
 7714 104c 6B       		.sleb128 -21
 7715 104d 1A       		.uleb128 0x1a
 7716 104e 7900     		.ascii	"y\000"
 7717 1050 01       		.byte	0x1
 7718 1051 3E03     		.2byte	0x33e
 7719 1053 2E030000 		.4byte	0x32e
 7720 1057 02       		.uleb128 0x2
 7721 1058 91       		.byte	0x91
 7722 1059 6A       		.sleb128 -22
 7723 105a 1A       		.uleb128 0x1a
 7724 105b 7300     		.ascii	"s\000"
 7725 105d 01       		.byte	0x1
 7726 105e 3E03     		.2byte	0x33e
 7727 1060 A10F0000 		.4byte	0xfa1
 7728 1064 02       		.uleb128 0x2
 7729 1065 91       		.byte	0x91
 7730 1066 64       		.sleb128 -28
 7731 1067 1C       		.uleb128 0x1c
 7732 1068 7400     		.ascii	"t\000"
 7733 106a 01       		.byte	0x1
 7734 106b 4003     		.2byte	0x340
 7735 106d 2E030000 		.4byte	0x32e
 7736 1071 02       		.uleb128 0x2
 7737 1072 91       		.byte	0x91
 7738 1073 77       		.sleb128 -9
 7739 1074 1C       		.uleb128 0x1c
 7740 1075 6400     		.ascii	"d\000"
 7741 1077 01       		.byte	0x1
 7742 1078 4103     		.2byte	0x341
 7743 107a 97000000 		.4byte	0x97
 7744 107e 02       		.uleb128 0x2
 7745 107f 91       		.byte	0x91
 7746 1080 76       		.sleb128 -10
 7747 1081 00       		.byte	0
ARM GAS  C:\Users\KJA\AppData\Local\Temp\ccevgiJT.s 			page 164


 7748 1082 19       		.uleb128 0x19
 7749 1083 98050000 		.4byte	.LASF122
 7750 1087 01       		.byte	0x1
 7751 1088 4F03     		.2byte	0x34f
 7752 108a 2E030000 		.4byte	0x32e
 7753 108e 00000000 		.4byte	.LFB41
 7754 1092 64000000 		.4byte	.LFE41-.LFB41
 7755 1096 01       		.uleb128 0x1
 7756 1097 9C       		.byte	0x9c
 7757 1098 ED100000 		.4byte	0x10ed
 7758 109c 1A       		.uleb128 0x1a
 7759 109d 75386700 		.ascii	"u8g\000"
 7760 10a1 01       		.byte	0x1
 7761 10a2 4F03     		.2byte	0x34f
 7762 10a4 73030000 		.4byte	0x373
 7763 10a8 02       		.uleb128 0x2
 7764 10a9 91       		.byte	0x91
 7765 10aa 6C       		.sleb128 -20
 7766 10ab 1A       		.uleb128 0x1a
 7767 10ac 7800     		.ascii	"x\000"
 7768 10ae 01       		.byte	0x1
 7769 10af 4F03     		.2byte	0x34f
 7770 10b1 2E030000 		.4byte	0x32e
 7771 10b5 02       		.uleb128 0x2
 7772 10b6 91       		.byte	0x91
 7773 10b7 6B       		.sleb128 -21
 7774 10b8 1A       		.uleb128 0x1a
 7775 10b9 7900     		.ascii	"y\000"
 7776 10bb 01       		.byte	0x1
 7777 10bc 4F03     		.2byte	0x34f
 7778 10be 2E030000 		.4byte	0x32e
 7779 10c2 02       		.uleb128 0x2
 7780 10c3 91       		.byte	0x91
 7781 10c4 6A       		.sleb128 -22
 7782 10c5 1A       		.uleb128 0x1a
 7783 10c6 7300     		.ascii	"s\000"
 7784 10c8 01       		.byte	0x1
 7785 10c9 4F03     		.2byte	0x34f
 7786 10cb A10F0000 		.4byte	0xfa1
 7787 10cf 02       		.uleb128 0x2
 7788 10d0 91       		.byte	0x91
 7789 10d1 64       		.sleb128 -28
 7790 10d2 1C       		.uleb128 0x1c
 7791 10d3 7400     		.ascii	"t\000"
 7792 10d5 01       		.byte	0x1
 7793 10d6 5103     		.2byte	0x351
 7794 10d8 2E030000 		.4byte	0x32e
 7795 10dc 02       		.uleb128 0x2
 7796 10dd 91       		.byte	0x91
 7797 10de 77       		.sleb128 -9
 7798 10df 1C       		.uleb128 0x1c
 7799 10e0 6400     		.ascii	"d\000"
 7800 10e2 01       		.byte	0x1
 7801 10e3 5203     		.2byte	0x352
 7802 10e5 97000000 		.4byte	0x97
 7803 10e9 02       		.uleb128 0x2
 7804 10ea 91       		.byte	0x91
ARM GAS  C:\Users\KJA\AppData\Local\Temp\ccevgiJT.s 			page 165


 7805 10eb 76       		.sleb128 -10
 7806 10ec 00       		.byte	0
 7807 10ed 19       		.uleb128 0x19
 7808 10ee 0A0B0000 		.4byte	.LASF123
 7809 10f2 01       		.byte	0x1
 7810 10f3 6003     		.2byte	0x360
 7811 10f5 2E030000 		.4byte	0x32e
 7812 10f9 00000000 		.4byte	.LFB42
 7813 10fd 92000000 		.4byte	.LFE42-.LFB42
 7814 1101 01       		.uleb128 0x1
 7815 1102 9C       		.byte	0x9c
 7816 1103 4D110000 		.4byte	0x114d
 7817 1107 1A       		.uleb128 0x1a
 7818 1108 75386700 		.ascii	"u8g\000"
 7819 110c 01       		.byte	0x1
 7820 110d 6003     		.2byte	0x360
 7821 110f 73030000 		.4byte	0x373
 7822 1113 02       		.uleb128 0x2
 7823 1114 91       		.byte	0x91
 7824 1115 74       		.sleb128 -12
 7825 1116 1A       		.uleb128 0x1a
 7826 1117 7800     		.ascii	"x\000"
 7827 1119 01       		.byte	0x1
 7828 111a 6003     		.2byte	0x360
 7829 111c 2E030000 		.4byte	0x32e
 7830 1120 02       		.uleb128 0x2
 7831 1121 91       		.byte	0x91
 7832 1122 73       		.sleb128 -13
 7833 1123 1A       		.uleb128 0x1a
 7834 1124 7900     		.ascii	"y\000"
 7835 1126 01       		.byte	0x1
 7836 1127 6003     		.2byte	0x360
 7837 1129 2E030000 		.4byte	0x32e
 7838 112d 02       		.uleb128 0x2
 7839 112e 91       		.byte	0x91
 7840 112f 72       		.sleb128 -14
 7841 1130 1A       		.uleb128 0x1a
 7842 1131 64697200 		.ascii	"dir\000"
 7843 1135 01       		.byte	0x1
 7844 1136 6003     		.2byte	0x360
 7845 1138 A2000000 		.4byte	0xa2
 7846 113c 02       		.uleb128 0x2
 7847 113d 91       		.byte	0x91
 7848 113e 71       		.sleb128 -15
 7849 113f 1A       		.uleb128 0x1a
 7850 1140 7300     		.ascii	"s\000"
 7851 1142 01       		.byte	0x1
 7852 1143 6003     		.2byte	0x360
 7853 1145 A10F0000 		.4byte	0xfa1
 7854 1149 02       		.uleb128 0x2
 7855 114a 91       		.byte	0x91
 7856 114b 00       		.sleb128 0
 7857 114c 00       		.byte	0
 7858 114d 19       		.uleb128 0x19
 7859 114e 14010000 		.4byte	.LASF124
 7860 1152 01       		.byte	0x1
 7861 1153 7003     		.2byte	0x370
ARM GAS  C:\Users\KJA\AppData\Local\Temp\ccevgiJT.s 			page 166


 7862 1155 2E030000 		.4byte	0x32e
 7863 1159 00000000 		.4byte	.LFB43
 7864 115d 68000000 		.4byte	.LFE43-.LFB43
 7865 1161 01       		.uleb128 0x1
 7866 1162 9C       		.byte	0x9c
 7867 1163 C5110000 		.4byte	0x11c5
 7868 1167 1A       		.uleb128 0x1a
 7869 1168 75386700 		.ascii	"u8g\000"
 7870 116c 01       		.byte	0x1
 7871 116d 7003     		.2byte	0x370
 7872 116f 73030000 		.4byte	0x373
 7873 1173 02       		.uleb128 0x2
 7874 1174 91       		.byte	0x91
 7875 1175 6C       		.sleb128 -20
 7876 1176 1A       		.uleb128 0x1a
 7877 1177 7800     		.ascii	"x\000"
 7878 1179 01       		.byte	0x1
 7879 117a 7003     		.2byte	0x370
 7880 117c 2E030000 		.4byte	0x32e
 7881 1180 02       		.uleb128 0x2
 7882 1181 91       		.byte	0x91
 7883 1182 6B       		.sleb128 -21
 7884 1183 1A       		.uleb128 0x1a
 7885 1184 7900     		.ascii	"y\000"
 7886 1186 01       		.byte	0x1
 7887 1187 7003     		.2byte	0x370
 7888 1189 2E030000 		.4byte	0x32e
 7889 118d 02       		.uleb128 0x2
 7890 118e 91       		.byte	0x91
 7891 118f 6A       		.sleb128 -22
 7892 1190 1A       		.uleb128 0x1a
 7893 1191 7300     		.ascii	"s\000"
 7894 1193 01       		.byte	0x1
 7895 1194 7003     		.2byte	0x370
 7896 1196 0B040000 		.4byte	0x40b
 7897 119a 02       		.uleb128 0x2
 7898 119b 91       		.byte	0x91
 7899 119c 64       		.sleb128 -28
 7900 119d 1C       		.uleb128 0x1c
 7901 119e 7400     		.ascii	"t\000"
 7902 11a0 01       		.byte	0x1
 7903 11a1 7203     		.2byte	0x372
 7904 11a3 2E030000 		.4byte	0x32e
 7905 11a7 02       		.uleb128 0x2
 7906 11a8 91       		.byte	0x91
 7907 11a9 77       		.sleb128 -9
 7908 11aa 1C       		.uleb128 0x1c
 7909 11ab 6400     		.ascii	"d\000"
 7910 11ad 01       		.byte	0x1
 7911 11ae 7303     		.2byte	0x373
 7912 11b0 97000000 		.4byte	0x97
 7913 11b4 02       		.uleb128 0x2
 7914 11b5 91       		.byte	0x91
 7915 11b6 75       		.sleb128 -11
 7916 11b7 1C       		.uleb128 0x1c
 7917 11b8 6300     		.ascii	"c\000"
 7918 11ba 01       		.byte	0x1
ARM GAS  C:\Users\KJA\AppData\Local\Temp\ccevgiJT.s 			page 167


 7919 11bb 7403     		.2byte	0x374
 7920 11bd A2000000 		.4byte	0xa2
 7921 11c1 02       		.uleb128 0x2
 7922 11c2 91       		.byte	0x91
 7923 11c3 76       		.sleb128 -10
 7924 11c4 00       		.byte	0
 7925 11c5 19       		.uleb128 0x19
 7926 11c6 62030000 		.4byte	.LASF125
 7927 11ca 01       		.byte	0x1
 7928 11cb 8503     		.2byte	0x385
 7929 11cd 2E030000 		.4byte	0x32e
 7930 11d1 00000000 		.4byte	.LFB44
 7931 11d5 68000000 		.4byte	.LFE44-.LFB44
 7932 11d9 01       		.uleb128 0x1
 7933 11da 9C       		.byte	0x9c
 7934 11db 3D120000 		.4byte	0x123d
 7935 11df 1A       		.uleb128 0x1a
 7936 11e0 75386700 		.ascii	"u8g\000"
 7937 11e4 01       		.byte	0x1
 7938 11e5 8503     		.2byte	0x385
 7939 11e7 73030000 		.4byte	0x373
 7940 11eb 02       		.uleb128 0x2
 7941 11ec 91       		.byte	0x91
 7942 11ed 6C       		.sleb128 -20
 7943 11ee 1A       		.uleb128 0x1a
 7944 11ef 7800     		.ascii	"x\000"
 7945 11f1 01       		.byte	0x1
 7946 11f2 8503     		.2byte	0x385
 7947 11f4 2E030000 		.4byte	0x32e
 7948 11f8 02       		.uleb128 0x2
 7949 11f9 91       		.byte	0x91
 7950 11fa 6B       		.sleb128 -21
 7951 11fb 1A       		.uleb128 0x1a
 7952 11fc 7900     		.ascii	"y\000"
 7953 11fe 01       		.byte	0x1
 7954 11ff 8503     		.2byte	0x385
 7955 1201 2E030000 		.4byte	0x32e
 7956 1205 02       		.uleb128 0x2
 7957 1206 91       		.byte	0x91
 7958 1207 6A       		.sleb128 -22
 7959 1208 1A       		.uleb128 0x1a
 7960 1209 7300     		.ascii	"s\000"
 7961 120b 01       		.byte	0x1
 7962 120c 8503     		.2byte	0x385
 7963 120e 0B040000 		.4byte	0x40b
 7964 1212 02       		.uleb128 0x2
 7965 1213 91       		.byte	0x91
 7966 1214 64       		.sleb128 -28
 7967 1215 1C       		.uleb128 0x1c
 7968 1216 7400     		.ascii	"t\000"
 7969 1218 01       		.byte	0x1
 7970 1219 8703     		.2byte	0x387
 7971 121b 2E030000 		.4byte	0x32e
 7972 121f 02       		.uleb128 0x2
 7973 1220 91       		.byte	0x91
 7974 1221 77       		.sleb128 -9
 7975 1222 1C       		.uleb128 0x1c
ARM GAS  C:\Users\KJA\AppData\Local\Temp\ccevgiJT.s 			page 168


 7976 1223 6400     		.ascii	"d\000"
 7977 1225 01       		.byte	0x1
 7978 1226 8803     		.2byte	0x388
 7979 1228 97000000 		.4byte	0x97
 7980 122c 02       		.uleb128 0x2
 7981 122d 91       		.byte	0x91
 7982 122e 75       		.sleb128 -11
 7983 122f 1C       		.uleb128 0x1c
 7984 1230 6300     		.ascii	"c\000"
 7985 1232 01       		.byte	0x1
 7986 1233 8903     		.2byte	0x389
 7987 1235 A2000000 		.4byte	0xa2
 7988 1239 02       		.uleb128 0x2
 7989 123a 91       		.byte	0x91
 7990 123b 76       		.sleb128 -10
 7991 123c 00       		.byte	0
 7992 123d 19       		.uleb128 0x19
 7993 123e AE010000 		.4byte	.LASF126
 7994 1242 01       		.byte	0x1
 7995 1243 9A03     		.2byte	0x39a
 7996 1245 2E030000 		.4byte	0x32e
 7997 1249 00000000 		.4byte	.LFB45
 7998 124d 68000000 		.4byte	.LFE45-.LFB45
 7999 1251 01       		.uleb128 0x1
 8000 1252 9C       		.byte	0x9c
 8001 1253 B5120000 		.4byte	0x12b5
 8002 1257 1A       		.uleb128 0x1a
 8003 1258 75386700 		.ascii	"u8g\000"
 8004 125c 01       		.byte	0x1
 8005 125d 9A03     		.2byte	0x39a
 8006 125f 73030000 		.4byte	0x373
 8007 1263 02       		.uleb128 0x2
 8008 1264 91       		.byte	0x91
 8009 1265 6C       		.sleb128 -20
 8010 1266 1A       		.uleb128 0x1a
 8011 1267 7800     		.ascii	"x\000"
 8012 1269 01       		.byte	0x1
 8013 126a 9A03     		.2byte	0x39a
 8014 126c 2E030000 		.4byte	0x32e
 8015 1270 02       		.uleb128 0x2
 8016 1271 91       		.byte	0x91
 8017 1272 6B       		.sleb128 -21
 8018 1273 1A       		.uleb128 0x1a
 8019 1274 7900     		.ascii	"y\000"
 8020 1276 01       		.byte	0x1
 8021 1277 9A03     		.2byte	0x39a
 8022 1279 2E030000 		.4byte	0x32e
 8023 127d 02       		.uleb128 0x2
 8024 127e 91       		.byte	0x91
 8025 127f 6A       		.sleb128 -22
 8026 1280 1A       		.uleb128 0x1a
 8027 1281 7300     		.ascii	"s\000"
 8028 1283 01       		.byte	0x1
 8029 1284 9A03     		.2byte	0x39a
 8030 1286 0B040000 		.4byte	0x40b
 8031 128a 02       		.uleb128 0x2
 8032 128b 91       		.byte	0x91
ARM GAS  C:\Users\KJA\AppData\Local\Temp\ccevgiJT.s 			page 169


 8033 128c 64       		.sleb128 -28
 8034 128d 1C       		.uleb128 0x1c
 8035 128e 7400     		.ascii	"t\000"
 8036 1290 01       		.byte	0x1
 8037 1291 9C03     		.2byte	0x39c
 8038 1293 2E030000 		.4byte	0x32e
 8039 1297 02       		.uleb128 0x2
 8040 1298 91       		.byte	0x91
 8041 1299 77       		.sleb128 -9
 8042 129a 1C       		.uleb128 0x1c
 8043 129b 6400     		.ascii	"d\000"
 8044 129d 01       		.byte	0x1
 8045 129e 9D03     		.2byte	0x39d
 8046 12a0 97000000 		.4byte	0x97
 8047 12a4 02       		.uleb128 0x2
 8048 12a5 91       		.byte	0x91
 8049 12a6 75       		.sleb128 -11
 8050 12a7 1C       		.uleb128 0x1c
 8051 12a8 6300     		.ascii	"c\000"
 8052 12aa 01       		.byte	0x1
 8053 12ab 9E03     		.2byte	0x39e
 8054 12ad A2000000 		.4byte	0xa2
 8055 12b1 02       		.uleb128 0x2
 8056 12b2 91       		.byte	0x91
 8057 12b3 76       		.sleb128 -10
 8058 12b4 00       		.byte	0
 8059 12b5 19       		.uleb128 0x19
 8060 12b6 C5030000 		.4byte	.LASF127
 8061 12ba 01       		.byte	0x1
 8062 12bb AF03     		.2byte	0x3af
 8063 12bd 2E030000 		.4byte	0x32e
 8064 12c1 00000000 		.4byte	.LFB46
 8065 12c5 68000000 		.4byte	.LFE46-.LFB46
 8066 12c9 01       		.uleb128 0x1
 8067 12ca 9C       		.byte	0x9c
 8068 12cb 2D130000 		.4byte	0x132d
 8069 12cf 1A       		.uleb128 0x1a
 8070 12d0 75386700 		.ascii	"u8g\000"
 8071 12d4 01       		.byte	0x1
 8072 12d5 AF03     		.2byte	0x3af
 8073 12d7 73030000 		.4byte	0x373
 8074 12db 02       		.uleb128 0x2
 8075 12dc 91       		.byte	0x91
 8076 12dd 6C       		.sleb128 -20
 8077 12de 1A       		.uleb128 0x1a
 8078 12df 7800     		.ascii	"x\000"
 8079 12e1 01       		.byte	0x1
 8080 12e2 AF03     		.2byte	0x3af
 8081 12e4 2E030000 		.4byte	0x32e
 8082 12e8 02       		.uleb128 0x2
 8083 12e9 91       		.byte	0x91
 8084 12ea 6B       		.sleb128 -21
 8085 12eb 1A       		.uleb128 0x1a
 8086 12ec 7900     		.ascii	"y\000"
 8087 12ee 01       		.byte	0x1
 8088 12ef AF03     		.2byte	0x3af
 8089 12f1 2E030000 		.4byte	0x32e
ARM GAS  C:\Users\KJA\AppData\Local\Temp\ccevgiJT.s 			page 170


 8090 12f5 02       		.uleb128 0x2
 8091 12f6 91       		.byte	0x91
 8092 12f7 6A       		.sleb128 -22
 8093 12f8 1A       		.uleb128 0x1a
 8094 12f9 7300     		.ascii	"s\000"
 8095 12fb 01       		.byte	0x1
 8096 12fc AF03     		.2byte	0x3af
 8097 12fe 0B040000 		.4byte	0x40b
 8098 1302 02       		.uleb128 0x2
 8099 1303 91       		.byte	0x91
 8100 1304 64       		.sleb128 -28
 8101 1305 1C       		.uleb128 0x1c
 8102 1306 7400     		.ascii	"t\000"
 8103 1308 01       		.byte	0x1
 8104 1309 B103     		.2byte	0x3b1
 8105 130b 2E030000 		.4byte	0x32e
 8106 130f 02       		.uleb128 0x2
 8107 1310 91       		.byte	0x91
 8108 1311 77       		.sleb128 -9
 8109 1312 1C       		.uleb128 0x1c
 8110 1313 6400     		.ascii	"d\000"
 8111 1315 01       		.byte	0x1
 8112 1316 B203     		.2byte	0x3b2
 8113 1318 97000000 		.4byte	0x97
 8114 131c 02       		.uleb128 0x2
 8115 131d 91       		.byte	0x91
 8116 131e 75       		.sleb128 -11
 8117 131f 1C       		.uleb128 0x1c
 8118 1320 6300     		.ascii	"c\000"
 8119 1322 01       		.byte	0x1
 8120 1323 B303     		.2byte	0x3b3
 8121 1325 A2000000 		.4byte	0xa2
 8122 1329 02       		.uleb128 0x2
 8123 132a 91       		.byte	0x91
 8124 132b 76       		.sleb128 -10
 8125 132c 00       		.byte	0
 8126 132d 19       		.uleb128 0x19
 8127 132e 66070000 		.4byte	.LASF128
 8128 1332 01       		.byte	0x1
 8129 1333 C403     		.2byte	0x3c4
 8130 1335 2E030000 		.4byte	0x32e
 8131 1339 00000000 		.4byte	.LFB47
 8132 133d 56000000 		.4byte	.LFE47-.LFB47
 8133 1341 01       		.uleb128 0x1
 8134 1342 9C       		.byte	0x9c
 8135 1343 8D130000 		.4byte	0x138d
 8136 1347 1A       		.uleb128 0x1a
 8137 1348 75386700 		.ascii	"u8g\000"
 8138 134c 01       		.byte	0x1
 8139 134d C403     		.2byte	0x3c4
 8140 134f 73030000 		.4byte	0x373
 8141 1353 02       		.uleb128 0x2
 8142 1354 91       		.byte	0x91
 8143 1355 6C       		.sleb128 -20
 8144 1356 1A       		.uleb128 0x1a
 8145 1357 7800     		.ascii	"x\000"
 8146 1359 01       		.byte	0x1
ARM GAS  C:\Users\KJA\AppData\Local\Temp\ccevgiJT.s 			page 171


 8147 135a C403     		.2byte	0x3c4
 8148 135c 2E030000 		.4byte	0x32e
 8149 1360 02       		.uleb128 0x2
 8150 1361 91       		.byte	0x91
 8151 1362 6B       		.sleb128 -21
 8152 1363 1A       		.uleb128 0x1a
 8153 1364 7900     		.ascii	"y\000"
 8154 1366 01       		.byte	0x1
 8155 1367 C403     		.2byte	0x3c4
 8156 1369 2E030000 		.4byte	0x32e
 8157 136d 02       		.uleb128 0x2
 8158 136e 91       		.byte	0x91
 8159 136f 6A       		.sleb128 -22
 8160 1370 1A       		.uleb128 0x1a
 8161 1371 64697200 		.ascii	"dir\000"
 8162 1375 01       		.byte	0x1
 8163 1376 C403     		.2byte	0x3c4
 8164 1378 A2000000 		.4byte	0xa2
 8165 137c 02       		.uleb128 0x2
 8166 137d 91       		.byte	0x91
 8167 137e 69       		.sleb128 -23
 8168 137f 1A       		.uleb128 0x1a
 8169 1380 7300     		.ascii	"s\000"
 8170 1382 01       		.byte	0x1
 8171 1383 C403     		.2byte	0x3c4
 8172 1385 A10F0000 		.4byte	0xfa1
 8173 1389 02       		.uleb128 0x2
 8174 138a 91       		.byte	0x91
 8175 138b 00       		.sleb128 0
 8176 138c 00       		.byte	0
 8177 138d 19       		.uleb128 0x19
 8178 138e 1E080000 		.4byte	.LASF129
 8179 1392 01       		.byte	0x1
 8180 1393 CC03     		.2byte	0x3cc
 8181 1395 97000000 		.4byte	0x97
 8182 1399 00000000 		.4byte	.LFB48
 8183 139d 52000000 		.4byte	.LFE48-.LFB48
 8184 13a1 01       		.uleb128 0x1
 8185 13a2 9C       		.byte	0x9c
 8186 13a3 EF130000 		.4byte	0x13ef
 8187 13a7 1A       		.uleb128 0x1a
 8188 13a8 75386700 		.ascii	"u8g\000"
 8189 13ac 01       		.byte	0x1
 8190 13ad CC03     		.2byte	0x3cc
 8191 13af 73030000 		.4byte	0x373
 8192 13b3 02       		.uleb128 0x2
 8193 13b4 91       		.byte	0x91
 8194 13b5 74       		.sleb128 -12
 8195 13b6 1A       		.uleb128 0x1a
 8196 13b7 7800     		.ascii	"x\000"
 8197 13b9 01       		.byte	0x1
 8198 13ba CC03     		.2byte	0x3cc
 8199 13bc 2E030000 		.4byte	0x32e
 8200 13c0 02       		.uleb128 0x2
 8201 13c1 91       		.byte	0x91
 8202 13c2 73       		.sleb128 -13
 8203 13c3 1A       		.uleb128 0x1a
ARM GAS  C:\Users\KJA\AppData\Local\Temp\ccevgiJT.s 			page 172


 8204 13c4 7900     		.ascii	"y\000"
 8205 13c6 01       		.byte	0x1
 8206 13c7 CC03     		.2byte	0x3cc
 8207 13c9 2E030000 		.4byte	0x32e
 8208 13cd 02       		.uleb128 0x2
 8209 13ce 91       		.byte	0x91
 8210 13cf 72       		.sleb128 -14
 8211 13d0 1A       		.uleb128 0x1a
 8212 13d1 64697200 		.ascii	"dir\000"
 8213 13d5 01       		.byte	0x1
 8214 13d6 CC03     		.2byte	0x3cc
 8215 13d8 A2000000 		.4byte	0xa2
 8216 13dc 02       		.uleb128 0x2
 8217 13dd 91       		.byte	0x91
 8218 13de 71       		.sleb128 -15
 8219 13df 1E       		.uleb128 0x1e
 8220 13e0 13050000 		.4byte	.LASF110
 8221 13e4 01       		.byte	0x1
 8222 13e5 CC03     		.2byte	0x3cc
 8223 13e7 A2000000 		.4byte	0xa2
 8224 13eb 02       		.uleb128 0x2
 8225 13ec 91       		.byte	0x91
 8226 13ed 00       		.sleb128 0
 8227 13ee 00       		.byte	0
 8228 13ef 21       		.uleb128 0x21
 8229 13f0 D1060000 		.4byte	.LASF130
 8230 13f4 01       		.byte	0x1
 8231 13f5 D803     		.2byte	0x3d8
 8232 13f7 00000000 		.4byte	.LFB49
 8233 13fb F2000000 		.4byte	.LFE49-.LFB49
 8234 13ff 01       		.uleb128 0x1
 8235 1400 9C       		.byte	0x9c
 8236 1401 23140000 		.4byte	0x1423
 8237 1405 1A       		.uleb128 0x1a
 8238 1406 75386700 		.ascii	"u8g\000"
 8239 140a 01       		.byte	0x1
 8240 140b D803     		.2byte	0x3d8
 8241 140d 73030000 		.4byte	0x373
 8242 1411 02       		.uleb128 0x2
 8243 1412 91       		.byte	0x91
 8244 1413 6C       		.sleb128 -20
 8245 1414 1C       		.uleb128 0x1c
 8246 1415 6C7300   		.ascii	"ls\000"
 8247 1418 01       		.byte	0x1
 8248 1419 DA03     		.2byte	0x3da
 8249 141b AD000000 		.4byte	0xad
 8250 141f 02       		.uleb128 0x2
 8251 1420 91       		.byte	0x91
 8252 1421 76       		.sleb128 -10
 8253 1422 00       		.byte	0
 8254 1423 21       		.uleb128 0x21
 8255 1424 77040000 		.4byte	.LASF131
 8256 1428 01       		.byte	0x1
 8257 1429 F703     		.2byte	0x3f7
 8258 142b 00000000 		.4byte	.LFB50
 8259 142f 1C000000 		.4byte	.LFE50-.LFB50
 8260 1433 01       		.uleb128 0x1
ARM GAS  C:\Users\KJA\AppData\Local\Temp\ccevgiJT.s 			page 173


 8261 1434 9C       		.byte	0x9c
 8262 1435 49140000 		.4byte	0x1449
 8263 1439 1A       		.uleb128 0x1a
 8264 143a 75386700 		.ascii	"u8g\000"
 8265 143e 01       		.byte	0x1
 8266 143f F703     		.2byte	0x3f7
 8267 1441 73030000 		.4byte	0x373
 8268 1445 02       		.uleb128 0x2
 8269 1446 91       		.byte	0x91
 8270 1447 74       		.sleb128 -12
 8271 1448 00       		.byte	0
 8272 1449 21       		.uleb128 0x21
 8273 144a D9000000 		.4byte	.LASF132
 8274 144e 01       		.byte	0x1
 8275 144f FD03     		.2byte	0x3fd
 8276 1451 00000000 		.4byte	.LFB51
 8277 1455 1C000000 		.4byte	.LFE51-.LFB51
 8278 1459 01       		.uleb128 0x1
 8279 145a 9C       		.byte	0x9c
 8280 145b 6F140000 		.4byte	0x146f
 8281 145f 1A       		.uleb128 0x1a
 8282 1460 75386700 		.ascii	"u8g\000"
 8283 1464 01       		.byte	0x1
 8284 1465 FD03     		.2byte	0x3fd
 8285 1467 73030000 		.4byte	0x373
 8286 146b 02       		.uleb128 0x2
 8287 146c 91       		.byte	0x91
 8288 146d 74       		.sleb128 -12
 8289 146e 00       		.byte	0
 8290 146f 21       		.uleb128 0x21
 8291 1470 F5090000 		.4byte	.LASF133
 8292 1474 01       		.byte	0x1
 8293 1475 0404     		.2byte	0x404
 8294 1477 00000000 		.4byte	.LFB52
 8295 147b 1C000000 		.4byte	.LFE52-.LFB52
 8296 147f 01       		.uleb128 0x1
 8297 1480 9C       		.byte	0x9c
 8298 1481 95140000 		.4byte	0x1495
 8299 1485 1A       		.uleb128 0x1a
 8300 1486 75386700 		.ascii	"u8g\000"
 8301 148a 01       		.byte	0x1
 8302 148b 0404     		.2byte	0x404
 8303 148d 73030000 		.4byte	0x373
 8304 1491 02       		.uleb128 0x2
 8305 1492 91       		.byte	0x91
 8306 1493 74       		.sleb128 -12
 8307 1494 00       		.byte	0
 8308 1495 21       		.uleb128 0x21
 8309 1496 49070000 		.4byte	.LASF134
 8310 149a 01       		.byte	0x1
 8311 149b 0B04     		.2byte	0x40b
 8312 149d 00000000 		.4byte	.LFB53
 8313 14a1 20000000 		.4byte	.LFE53-.LFB53
 8314 14a5 01       		.uleb128 0x1
 8315 14a6 9C       		.byte	0x9c
 8316 14a7 CA140000 		.4byte	0x14ca
 8317 14ab 1A       		.uleb128 0x1a
ARM GAS  C:\Users\KJA\AppData\Local\Temp\ccevgiJT.s 			page 174


 8318 14ac 75386700 		.ascii	"u8g\000"
 8319 14b0 01       		.byte	0x1
 8320 14b1 0B04     		.2byte	0x40b
 8321 14b3 73030000 		.4byte	0x373
 8322 14b7 02       		.uleb128 0x2
 8323 14b8 91       		.byte	0x91
 8324 14b9 74       		.sleb128 -12
 8325 14ba 1E       		.uleb128 0x1e
 8326 14bb D8090000 		.4byte	.LASF135
 8327 14bf 01       		.byte	0x1
 8328 14c0 0B04     		.2byte	0x40b
 8329 14c2 A2000000 		.4byte	0xa2
 8330 14c6 02       		.uleb128 0x2
 8331 14c7 91       		.byte	0x91
 8332 14c8 73       		.sleb128 -13
 8333 14c9 00       		.byte	0
 8334 14ca 22       		.uleb128 0x22
 8335 14cb 5B0A0000 		.4byte	.LASF136
 8336 14cf 01       		.byte	0x1
 8337 14d0 1604     		.2byte	0x416
 8338 14d2 2E030000 		.4byte	0x32e
 8339 14d6 00000000 		.4byte	.LFB54
 8340 14da 16000000 		.4byte	.LFE54-.LFB54
 8341 14de 01       		.uleb128 0x1
 8342 14df 9C       		.byte	0x9c
 8343 14e0 F4140000 		.4byte	0x14f4
 8344 14e4 1A       		.uleb128 0x1a
 8345 14e5 75386700 		.ascii	"u8g\000"
 8346 14e9 01       		.byte	0x1
 8347 14ea 1604     		.2byte	0x416
 8348 14ec 73030000 		.4byte	0x373
 8349 14f0 02       		.uleb128 0x2
 8350 14f1 91       		.byte	0x91
 8351 14f2 74       		.sleb128 -12
 8352 14f3 00       		.byte	0
 8353 14f4 23       		.uleb128 0x23
 8354 14f5 7C000000 		.4byte	.LASF137
 8355 14f9 01       		.byte	0x1
 8356 14fa 1B04     		.2byte	0x41b
 8357 14fc 00000000 		.4byte	.LFB55
 8358 1500 1C000000 		.4byte	.LFE55-.LFB55
 8359 1504 01       		.uleb128 0x1
 8360 1505 9C       		.byte	0x9c
 8361 1506 1A150000 		.4byte	0x151a
 8362 150a 1A       		.uleb128 0x1a
 8363 150b 75386700 		.ascii	"u8g\000"
 8364 150f 01       		.byte	0x1
 8365 1510 1B04     		.2byte	0x41b
 8366 1512 73030000 		.4byte	0x373
 8367 1516 02       		.uleb128 0x2
 8368 1517 91       		.byte	0x91
 8369 1518 74       		.sleb128 -12
 8370 1519 00       		.byte	0
 8371 151a 22       		.uleb128 0x22
 8372 151b 3F080000 		.4byte	.LASF138
 8373 151f 01       		.byte	0x1
 8374 1520 2104     		.2byte	0x421
ARM GAS  C:\Users\KJA\AppData\Local\Temp\ccevgiJT.s 			page 175


 8375 1522 2E030000 		.4byte	0x32e
 8376 1526 00000000 		.4byte	.LFB56
 8377 152a 1C000000 		.4byte	.LFE56-.LFB56
 8378 152e 01       		.uleb128 0x1
 8379 152f 9C       		.byte	0x9c
 8380 1530 44150000 		.4byte	0x1544
 8381 1534 1A       		.uleb128 0x1a
 8382 1535 75386700 		.ascii	"u8g\000"
 8383 1539 01       		.byte	0x1
 8384 153a 2104     		.2byte	0x421
 8385 153c 73030000 		.4byte	0x373
 8386 1540 02       		.uleb128 0x2
 8387 1541 91       		.byte	0x91
 8388 1542 74       		.sleb128 -12
 8389 1543 00       		.byte	0
 8390 1544 23       		.uleb128 0x23
 8391 1545 17070000 		.4byte	.LASF139
 8392 1549 01       		.byte	0x1
 8393 154a 2704     		.2byte	0x427
 8394 154c 00000000 		.4byte	.LFB57
 8395 1550 1C000000 		.4byte	.LFE57-.LFB57
 8396 1554 01       		.uleb128 0x1
 8397 1555 9C       		.byte	0x9c
 8398 1556 6A150000 		.4byte	0x156a
 8399 155a 1A       		.uleb128 0x1a
 8400 155b 75386700 		.ascii	"u8g\000"
 8401 155f 01       		.byte	0x1
 8402 1560 2704     		.2byte	0x427
 8403 1562 73030000 		.4byte	0x373
 8404 1566 02       		.uleb128 0x2
 8405 1567 91       		.byte	0x91
 8406 1568 74       		.sleb128 -12
 8407 1569 00       		.byte	0
 8408 156a 22       		.uleb128 0x22
 8409 156b 86090000 		.4byte	.LASF140
 8410 156f 01       		.byte	0x1
 8411 1570 2C04     		.2byte	0x42c
 8412 1572 2E030000 		.4byte	0x32e
 8413 1576 00000000 		.4byte	.LFB58
 8414 157a 24000000 		.4byte	.LFE58-.LFB58
 8415 157e 01       		.uleb128 0x1
 8416 157f 9C       		.byte	0x9c
 8417 1580 A3150000 		.4byte	0x15a3
 8418 1584 1A       		.uleb128 0x1a
 8419 1585 75386700 		.ascii	"u8g\000"
 8420 1589 01       		.byte	0x1
 8421 158a 2C04     		.2byte	0x42c
 8422 158c 73030000 		.4byte	0x373
 8423 1590 02       		.uleb128 0x2
 8424 1591 91       		.byte	0x91
 8425 1592 6C       		.sleb128 -20
 8426 1593 1C       		.uleb128 0x1c
 8427 1594 746D7000 		.ascii	"tmp\000"
 8428 1598 01       		.byte	0x1
 8429 1599 2E04     		.2byte	0x42e
 8430 159b 2E030000 		.4byte	0x32e
 8431 159f 02       		.uleb128 0x2
ARM GAS  C:\Users\KJA\AppData\Local\Temp\ccevgiJT.s 			page 176


 8432 15a0 91       		.byte	0x91
 8433 15a1 77       		.sleb128 -9
 8434 15a2 00       		.byte	0
 8435 15a3 23       		.uleb128 0x23
 8436 15a4 E5080000 		.4byte	.LASF141
 8437 15a8 01       		.byte	0x1
 8438 15a9 3A04     		.2byte	0x43a
 8439 15ab 00000000 		.4byte	.LFB59
 8440 15af 1C000000 		.4byte	.LFE59-.LFB59
 8441 15b3 01       		.uleb128 0x1
 8442 15b4 9C       		.byte	0x9c
 8443 15b5 C9150000 		.4byte	0x15c9
 8444 15b9 1A       		.uleb128 0x1a
 8445 15ba 75386700 		.ascii	"u8g\000"
 8446 15be 01       		.byte	0x1
 8447 15bf 3A04     		.2byte	0x43a
 8448 15c1 73030000 		.4byte	0x373
 8449 15c5 02       		.uleb128 0x2
 8450 15c6 91       		.byte	0x91
 8451 15c7 74       		.sleb128 -12
 8452 15c8 00       		.byte	0
 8453 15c9 22       		.uleb128 0x22
 8454 15ca 8B060000 		.4byte	.LASF142
 8455 15ce 01       		.byte	0x1
 8456 15cf 3F04     		.2byte	0x43f
 8457 15d1 2E030000 		.4byte	0x32e
 8458 15d5 00000000 		.4byte	.LFB60
 8459 15d9 4A000000 		.4byte	.LFE60-.LFB60
 8460 15dd 01       		.uleb128 0x1
 8461 15de 9C       		.byte	0x9c
 8462 15df 02160000 		.4byte	0x1602
 8463 15e3 1A       		.uleb128 0x1a
 8464 15e4 75386700 		.ascii	"u8g\000"
 8465 15e8 01       		.byte	0x1
 8466 15e9 3F04     		.2byte	0x43f
 8467 15eb 73030000 		.4byte	0x373
 8468 15ef 02       		.uleb128 0x2
 8469 15f0 91       		.byte	0x91
 8470 15f1 6C       		.sleb128 -20
 8471 15f2 1C       		.uleb128 0x1c
 8472 15f3 746D7000 		.ascii	"tmp\000"
 8473 15f7 01       		.byte	0x1
 8474 15f8 4104     		.2byte	0x441
 8475 15fa 97000000 		.4byte	0x97
 8476 15fe 02       		.uleb128 0x2
 8477 15ff 91       		.byte	0x91
 8478 1600 77       		.sleb128 -9
 8479 1601 00       		.byte	0
 8480 1602 23       		.uleb128 0x23
 8481 1603 21010000 		.4byte	.LASF143
 8482 1607 01       		.byte	0x1
 8483 1608 4A04     		.2byte	0x44a
 8484 160a 00000000 		.4byte	.LFB61
 8485 160e 1C000000 		.4byte	.LFE61-.LFB61
 8486 1612 01       		.uleb128 0x1
 8487 1613 9C       		.byte	0x9c
 8488 1614 28160000 		.4byte	0x1628
ARM GAS  C:\Users\KJA\AppData\Local\Temp\ccevgiJT.s 			page 177


 8489 1618 1A       		.uleb128 0x1a
 8490 1619 75386700 		.ascii	"u8g\000"
 8491 161d 01       		.byte	0x1
 8492 161e 4A04     		.2byte	0x44a
 8493 1620 73030000 		.4byte	0x373
 8494 1624 02       		.uleb128 0x2
 8495 1625 91       		.byte	0x91
 8496 1626 74       		.sleb128 -12
 8497 1627 00       		.byte	0
 8498 1628 22       		.uleb128 0x22
 8499 1629 2A0B0000 		.4byte	.LASF144
 8500 162d 01       		.byte	0x1
 8501 162e 5204     		.2byte	0x452
 8502 1630 49040000 		.4byte	0x449
 8503 1634 00000000 		.4byte	.LFB62
 8504 1638 18000000 		.4byte	.LFE62-.LFB62
 8505 163c 01       		.uleb128 0x1
 8506 163d 9C       		.byte	0x9c
 8507 163e 50160000 		.4byte	0x1650
 8508 1642 1A       		.uleb128 0x1a
 8509 1643 7300     		.ascii	"s\000"
 8510 1645 01       		.byte	0x1
 8511 1646 5204     		.2byte	0x452
 8512 1648 50040000 		.4byte	0x450
 8513 164c 02       		.uleb128 0x2
 8514 164d 91       		.byte	0x91
 8515 164e 74       		.sleb128 -12
 8516 164f 00       		.byte	0
 8517 1650 22       		.uleb128 0x22
 8518 1651 69000000 		.4byte	.LASF145
 8519 1655 01       		.byte	0x1
 8520 1656 5704     		.2byte	0x457
 8521 1658 49040000 		.4byte	0x449
 8522 165c 00000000 		.4byte	.LFB63
 8523 1660 18000000 		.4byte	.LFE63-.LFB63
 8524 1664 01       		.uleb128 0x1
 8525 1665 9C       		.byte	0x9c
 8526 1666 78160000 		.4byte	0x1678
 8527 166a 1A       		.uleb128 0x1a
 8528 166b 7300     		.ascii	"s\000"
 8529 166d 01       		.byte	0x1
 8530 166e 5704     		.2byte	0x457
 8531 1670 50040000 		.4byte	0x450
 8532 1674 02       		.uleb128 0x2
 8533 1675 91       		.byte	0x91
 8534 1676 74       		.sleb128 -12
 8535 1677 00       		.byte	0
 8536 1678 19       		.uleb128 0x19
 8537 1679 F9060000 		.4byte	.LASF146
 8538 167d 01       		.byte	0x1
 8539 167e 5F04     		.2byte	0x45f
 8540 1680 2E030000 		.4byte	0x32e
 8541 1684 00000000 		.4byte	.LFB64
 8542 1688 A4000000 		.4byte	.LFE64-.LFB64
 8543 168c 01       		.uleb128 0x1
 8544 168d 9C       		.byte	0x9c
 8545 168e DA160000 		.4byte	0x16da
ARM GAS  C:\Users\KJA\AppData\Local\Temp\ccevgiJT.s 			page 178


 8546 1692 1A       		.uleb128 0x1a
 8547 1693 75386700 		.ascii	"u8g\000"
 8548 1697 01       		.byte	0x1
 8549 1698 5F04     		.2byte	0x45f
 8550 169a 73030000 		.4byte	0x373
 8551 169e 02       		.uleb128 0x2
 8552 169f 91       		.byte	0x91
 8553 16a0 6C       		.sleb128 -20
 8554 16a1 1A       		.uleb128 0x1a
 8555 16a2 7300     		.ascii	"s\000"
 8556 16a4 01       		.byte	0x1
 8557 16a5 5F04     		.2byte	0x45f
 8558 16a7 A10F0000 		.4byte	0xfa1
 8559 16ab 02       		.uleb128 0x2
 8560 16ac 91       		.byte	0x91
 8561 16ad 68       		.sleb128 -24
 8562 16ae 1E       		.uleb128 0x1e
 8563 16af 28030000 		.4byte	.LASF147
 8564 16b3 01       		.byte	0x1
 8565 16b4 5F04     		.2byte	0x45f
 8566 16b6 28040000 		.4byte	0x428
 8567 16ba 02       		.uleb128 0x2
 8568 16bb 91       		.byte	0x91
 8569 16bc 64       		.sleb128 -28
 8570 16bd 1C       		.uleb128 0x1c
 8571 16be 7700     		.ascii	"w\000"
 8572 16c0 01       		.byte	0x1
 8573 16c1 6104     		.2byte	0x461
 8574 16c3 2E030000 		.4byte	0x32e
 8575 16c7 02       		.uleb128 0x2
 8576 16c8 91       		.byte	0x91
 8577 16c9 77       		.sleb128 -9
 8578 16ca 1C       		.uleb128 0x1c
 8579 16cb 656E6300 		.ascii	"enc\000"
 8580 16cf 01       		.byte	0x1
 8581 16d0 6204     		.2byte	0x462
 8582 16d2 A2000000 		.4byte	0xa2
 8583 16d6 02       		.uleb128 0x2
 8584 16d7 91       		.byte	0x91
 8585 16d8 76       		.sleb128 -10
 8586 16d9 00       		.byte	0
 8587 16da 19       		.uleb128 0x19
 8588 16db F3070000 		.4byte	.LASF148
 8589 16df 01       		.byte	0x1
 8590 16e0 9D04     		.2byte	0x49d
 8591 16e2 2E030000 		.4byte	0x32e
 8592 16e6 00000000 		.4byte	.LFB65
 8593 16ea 24000000 		.4byte	.LFE65-.LFB65
 8594 16ee 01       		.uleb128 0x1
 8595 16ef 9C       		.byte	0x9c
 8596 16f0 11170000 		.4byte	0x1711
 8597 16f4 1A       		.uleb128 0x1a
 8598 16f5 75386700 		.ascii	"u8g\000"
 8599 16f9 01       		.byte	0x1
 8600 16fa 9D04     		.2byte	0x49d
 8601 16fc 73030000 		.4byte	0x373
 8602 1700 02       		.uleb128 0x2
ARM GAS  C:\Users\KJA\AppData\Local\Temp\ccevgiJT.s 			page 179


 8603 1701 91       		.byte	0x91
 8604 1702 74       		.sleb128 -12
 8605 1703 1A       		.uleb128 0x1a
 8606 1704 7300     		.ascii	"s\000"
 8607 1706 01       		.byte	0x1
 8608 1707 9D04     		.2byte	0x49d
 8609 1709 A10F0000 		.4byte	0xfa1
 8610 170d 02       		.uleb128 0x2
 8611 170e 91       		.byte	0x91
 8612 170f 70       		.sleb128 -16
 8613 1710 00       		.byte	0
 8614 1711 19       		.uleb128 0x19
 8615 1712 DD070000 		.4byte	.LASF149
 8616 1716 01       		.byte	0x1
 8617 1717 A204     		.2byte	0x4a2
 8618 1719 2E030000 		.4byte	0x32e
 8619 171d 00000000 		.4byte	.LFB66
 8620 1721 24000000 		.4byte	.LFE66-.LFB66
 8621 1725 01       		.uleb128 0x1
 8622 1726 9C       		.byte	0x9c
 8623 1727 48170000 		.4byte	0x1748
 8624 172b 1A       		.uleb128 0x1a
 8625 172c 75386700 		.ascii	"u8g\000"
 8626 1730 01       		.byte	0x1
 8627 1731 A204     		.2byte	0x4a2
 8628 1733 73030000 		.4byte	0x373
 8629 1737 02       		.uleb128 0x2
 8630 1738 91       		.byte	0x91
 8631 1739 74       		.sleb128 -12
 8632 173a 1A       		.uleb128 0x1a
 8633 173b 7300     		.ascii	"s\000"
 8634 173d 01       		.byte	0x1
 8635 173e A204     		.2byte	0x4a2
 8636 1740 0B040000 		.4byte	0x40b
 8637 1744 02       		.uleb128 0x2
 8638 1745 91       		.byte	0x91
 8639 1746 70       		.sleb128 -16
 8640 1747 00       		.byte	0
 8641 1748 19       		.uleb128 0x19
 8642 1749 B2020000 		.4byte	.LASF150
 8643 174d 01       		.byte	0x1
 8644 174e A704     		.2byte	0x4a7
 8645 1750 97000000 		.4byte	0x97
 8646 1754 00000000 		.4byte	.LFB67
 8647 1758 24000000 		.4byte	.LFE67-.LFB67
 8648 175c 01       		.uleb128 0x1
 8649 175d 9C       		.byte	0x9c
 8650 175e 7F170000 		.4byte	0x177f
 8651 1762 1A       		.uleb128 0x1a
 8652 1763 75386700 		.ascii	"u8g\000"
 8653 1767 01       		.byte	0x1
 8654 1768 A704     		.2byte	0x4a7
 8655 176a 73030000 		.4byte	0x373
 8656 176e 02       		.uleb128 0x2
 8657 176f 91       		.byte	0x91
 8658 1770 74       		.sleb128 -12
 8659 1771 1A       		.uleb128 0x1a
ARM GAS  C:\Users\KJA\AppData\Local\Temp\ccevgiJT.s 			page 180


 8660 1772 7300     		.ascii	"s\000"
 8661 1774 01       		.byte	0x1
 8662 1775 A704     		.2byte	0x4a7
 8663 1777 A10F0000 		.4byte	0xfa1
 8664 177b 02       		.uleb128 0x2
 8665 177c 91       		.byte	0x91
 8666 177d 70       		.sleb128 -16
 8667 177e 00       		.byte	0
 8668 177f 19       		.uleb128 0x19
 8669 1780 5A040000 		.4byte	.LASF151
 8670 1784 01       		.byte	0x1
 8671 1785 AD04     		.2byte	0x4ad
 8672 1787 97000000 		.4byte	0x97
 8673 178b 00000000 		.4byte	.LFB68
 8674 178f 24000000 		.4byte	.LFE68-.LFB68
 8675 1793 01       		.uleb128 0x1
 8676 1794 9C       		.byte	0x9c
 8677 1795 B6170000 		.4byte	0x17b6
 8678 1799 1A       		.uleb128 0x1a
 8679 179a 75386700 		.ascii	"u8g\000"
 8680 179e 01       		.byte	0x1
 8681 179f AD04     		.2byte	0x4ad
 8682 17a1 73030000 		.4byte	0x373
 8683 17a5 02       		.uleb128 0x2
 8684 17a6 91       		.byte	0x91
 8685 17a7 74       		.sleb128 -12
 8686 17a8 1A       		.uleb128 0x1a
 8687 17a9 7300     		.ascii	"s\000"
 8688 17ab 01       		.byte	0x1
 8689 17ac AD04     		.2byte	0x4ad
 8690 17ae 0B040000 		.4byte	0x40b
 8691 17b2 02       		.uleb128 0x2
 8692 17b3 91       		.byte	0x91
 8693 17b4 70       		.sleb128 -16
 8694 17b5 00       		.byte	0
 8695 17b6 19       		.uleb128 0x19
 8696 17b7 4B060000 		.4byte	.LASF152
 8697 17bb 01       		.byte	0x1
 8698 17bc B604     		.2byte	0x4b6
 8699 17be 2E030000 		.4byte	0x32e
 8700 17c2 00000000 		.4byte	.LFB69
 8701 17c6 44000000 		.4byte	.LFE69-.LFB69
 8702 17ca 01       		.uleb128 0x1
 8703 17cb 9C       		.byte	0x9c
 8704 17cc 09180000 		.4byte	0x1809
 8705 17d0 1A       		.uleb128 0x1a
 8706 17d1 75386700 		.ascii	"u8g\000"
 8707 17d5 01       		.byte	0x1
 8708 17d6 B604     		.2byte	0x4b6
 8709 17d8 73030000 		.4byte	0x373
 8710 17dc 02       		.uleb128 0x2
 8711 17dd 91       		.byte	0x91
 8712 17de 6C       		.sleb128 -20
 8713 17df 1A       		.uleb128 0x1a
 8714 17e0 7300     		.ascii	"s\000"
 8715 17e2 01       		.byte	0x1
 8716 17e3 B604     		.2byte	0x4b6
ARM GAS  C:\Users\KJA\AppData\Local\Temp\ccevgiJT.s 			page 181


 8717 17e5 A10F0000 		.4byte	0xfa1
 8718 17e9 02       		.uleb128 0x2
 8719 17ea 91       		.byte	0x91
 8720 17eb 68       		.sleb128 -24
 8721 17ec 1C       		.uleb128 0x1c
 8722 17ed 7700     		.ascii	"w\000"
 8723 17ef 01       		.byte	0x1
 8724 17f0 B804     		.2byte	0x4b8
 8725 17f2 2E030000 		.4byte	0x32e
 8726 17f6 02       		.uleb128 0x2
 8727 17f7 91       		.byte	0x91
 8728 17f8 77       		.sleb128 -9
 8729 17f9 1F       		.uleb128 0x1f
 8730 17fa 13050000 		.4byte	.LASF110
 8731 17fe 01       		.byte	0x1
 8732 17ff B904     		.2byte	0x4b9
 8733 1801 A2000000 		.4byte	0xa2
 8734 1805 02       		.uleb128 0x2
 8735 1806 91       		.byte	0x91
 8736 1807 76       		.sleb128 -10
 8737 1808 00       		.byte	0
 8738 1809 19       		.uleb128 0x19
 8739 180a CC070000 		.4byte	.LASF153
 8740 180e 01       		.byte	0x1
 8741 180f D004     		.2byte	0x4d0
 8742 1811 2E030000 		.4byte	0x32e
 8743 1815 00000000 		.4byte	.LFB70
 8744 1819 44000000 		.4byte	.LFE70-.LFB70
 8745 181d 01       		.uleb128 0x1
 8746 181e 9C       		.byte	0x9c
 8747 181f 5C180000 		.4byte	0x185c
 8748 1823 1A       		.uleb128 0x1a
 8749 1824 75386700 		.ascii	"u8g\000"
 8750 1828 01       		.byte	0x1
 8751 1829 D004     		.2byte	0x4d0
 8752 182b 73030000 		.4byte	0x373
 8753 182f 02       		.uleb128 0x2
 8754 1830 91       		.byte	0x91
 8755 1831 6C       		.sleb128 -20
 8756 1832 1A       		.uleb128 0x1a
 8757 1833 7300     		.ascii	"s\000"
 8758 1835 01       		.byte	0x1
 8759 1836 D004     		.2byte	0x4d0
 8760 1838 0B040000 		.4byte	0x40b
 8761 183c 02       		.uleb128 0x2
 8762 183d 91       		.byte	0x91
 8763 183e 68       		.sleb128 -24
 8764 183f 1C       		.uleb128 0x1c
 8765 1840 7700     		.ascii	"w\000"
 8766 1842 01       		.byte	0x1
 8767 1843 D204     		.2byte	0x4d2
 8768 1845 2E030000 		.4byte	0x32e
 8769 1849 02       		.uleb128 0x2
 8770 184a 91       		.byte	0x91
 8771 184b 77       		.sleb128 -9
 8772 184c 1F       		.uleb128 0x1f
 8773 184d 13050000 		.4byte	.LASF110
ARM GAS  C:\Users\KJA\AppData\Local\Temp\ccevgiJT.s 			page 182


 8774 1851 01       		.byte	0x1
 8775 1852 D304     		.2byte	0x4d3
 8776 1854 A2000000 		.4byte	0xa2
 8777 1858 02       		.uleb128 0x2
 8778 1859 91       		.byte	0x91
 8779 185a 76       		.sleb128 -10
 8780 185b 00       		.byte	0
 8781 185c 1B       		.uleb128 0x1b
 8782 185d CB080000 		.4byte	.LASF154
 8783 1861 01       		.byte	0x1
 8784 1862 FF04     		.2byte	0x4ff
 8785 1864 00000000 		.4byte	.LFB71
 8786 1868 00010000 		.4byte	.LFE71-.LFB71
 8787 186c 01       		.uleb128 0x1
 8788 186d 9C       		.byte	0x9c
 8789 186e AD180000 		.4byte	0x18ad
 8790 1872 1A       		.uleb128 0x1a
 8791 1873 75386700 		.ascii	"u8g\000"
 8792 1877 01       		.byte	0x1
 8793 1878 FF04     		.2byte	0x4ff
 8794 187a 73030000 		.4byte	0x373
 8795 187e 02       		.uleb128 0x2
 8796 187f 91       		.byte	0x91
 8797 1880 6C       		.sleb128 -20
 8798 1881 1A       		.uleb128 0x1a
 8799 1882 7300     		.ascii	"s\000"
 8800 1884 01       		.byte	0x1
 8801 1885 FF04     		.2byte	0x4ff
 8802 1887 A10F0000 		.4byte	0xfa1
 8803 188b 02       		.uleb128 0x2
 8804 188c 91       		.byte	0x91
 8805 188d 68       		.sleb128 -24
 8806 188e 1A       		.uleb128 0x1a
 8807 188f 62756600 		.ascii	"buf\000"
 8808 1893 01       		.byte	0x1
 8809 1894 FF04     		.2byte	0x4ff
 8810 1896 AD180000 		.4byte	0x18ad
 8811 189a 02       		.uleb128 0x2
 8812 189b 91       		.byte	0x91
 8813 189c 64       		.sleb128 -28
 8814 189d 1C       		.uleb128 0x1c
 8815 189e 746D7000 		.ascii	"tmp\000"
 8816 18a2 01       		.byte	0x1
 8817 18a3 0205     		.2byte	0x502
 8818 18a5 97000000 		.4byte	0x97
 8819 18a9 02       		.uleb128 0x2
 8820 18aa 91       		.byte	0x91
 8821 18ab 77       		.sleb128 -9
 8822 18ac 00       		.byte	0
 8823 18ad 0A       		.uleb128 0xa
 8824 18ae 04       		.byte	0x4
 8825 18af A0040000 		.4byte	0x4a0
 8826 18b3 21       		.uleb128 0x21
 8827 18b4 F2010000 		.4byte	.LASF155
 8828 18b8 01       		.byte	0x1
 8829 18b9 4B05     		.2byte	0x54b
 8830 18bb 00000000 		.4byte	.LFB72
ARM GAS  C:\Users\KJA\AppData\Local\Temp\ccevgiJT.s 			page 183


 8831 18bf 1C000000 		.4byte	.LFE72-.LFB72
 8832 18c3 01       		.uleb128 0x1
 8833 18c4 9C       		.byte	0x9c
 8834 18c5 F5180000 		.4byte	0x18f5
 8835 18c9 1A       		.uleb128 0x1a
 8836 18ca 75386700 		.ascii	"u8g\000"
 8837 18ce 01       		.byte	0x1
 8838 18cf 4B05     		.2byte	0x54b
 8839 18d1 73030000 		.4byte	0x373
 8840 18d5 02       		.uleb128 0x2
 8841 18d6 91       		.byte	0x91
 8842 18d7 74       		.sleb128 -12
 8843 18d8 1A       		.uleb128 0x1a
 8844 18d9 7300     		.ascii	"s\000"
 8845 18db 01       		.byte	0x1
 8846 18dc 4B05     		.2byte	0x54b
 8847 18de A10F0000 		.4byte	0xfa1
 8848 18e2 02       		.uleb128 0x2
 8849 18e3 91       		.byte	0x91
 8850 18e4 70       		.sleb128 -16
 8851 18e5 1A       		.uleb128 0x1a
 8852 18e6 62756600 		.ascii	"buf\000"
 8853 18ea 01       		.byte	0x1
 8854 18eb 4B05     		.2byte	0x54b
 8855 18ed AD180000 		.4byte	0x18ad
 8856 18f1 02       		.uleb128 0x2
 8857 18f2 91       		.byte	0x91
 8858 18f3 6C       		.sleb128 -20
 8859 18f4 00       		.byte	0
 8860 18f5 23       		.uleb128 0x23
 8861 18f6 AB080000 		.4byte	.LASF156
 8862 18fa 01       		.byte	0x1
 8863 18fb 5105     		.2byte	0x551
 8864 18fd 00000000 		.4byte	.LFB73
 8865 1901 16000000 		.4byte	.LFE73-.LFB73
 8866 1905 01       		.uleb128 0x1
 8867 1906 9C       		.byte	0x9c
 8868 1907 37190000 		.4byte	0x1937
 8869 190b 1A       		.uleb128 0x1a
 8870 190c 75386700 		.ascii	"u8g\000"
 8871 1910 01       		.byte	0x1
 8872 1911 5105     		.2byte	0x551
 8873 1913 73030000 		.4byte	0x373
 8874 1917 02       		.uleb128 0x2
 8875 1918 91       		.byte	0x91
 8876 1919 74       		.sleb128 -12
 8877 191a 1A       		.uleb128 0x1a
 8878 191b 7300     		.ascii	"s\000"
 8879 191d 01       		.byte	0x1
 8880 191e 5105     		.2byte	0x551
 8881 1920 A10F0000 		.4byte	0xfa1
 8882 1924 02       		.uleb128 0x2
 8883 1925 91       		.byte	0x91
 8884 1926 70       		.sleb128 -16
 8885 1927 1A       		.uleb128 0x1a
 8886 1928 62756600 		.ascii	"buf\000"
 8887 192c 01       		.byte	0x1
ARM GAS  C:\Users\KJA\AppData\Local\Temp\ccevgiJT.s 			page 184


 8888 192d 5105     		.2byte	0x551
 8889 192f AD180000 		.4byte	0x18ad
 8890 1933 02       		.uleb128 0x2
 8891 1934 91       		.byte	0x91
 8892 1935 6C       		.sleb128 -20
 8893 1936 00       		.byte	0
 8894 1937 23       		.uleb128 0x23
 8895 1938 31030000 		.4byte	.LASF157
 8896 193c 01       		.byte	0x1
 8897 193d 5705     		.2byte	0x557
 8898 193f 00000000 		.4byte	.LFB74
 8899 1943 16000000 		.4byte	.LFE74-.LFB74
 8900 1947 01       		.uleb128 0x1
 8901 1948 9C       		.byte	0x9c
 8902 1949 79190000 		.4byte	0x1979
 8903 194d 1A       		.uleb128 0x1a
 8904 194e 75386700 		.ascii	"u8g\000"
 8905 1952 01       		.byte	0x1
 8906 1953 5705     		.2byte	0x557
 8907 1955 73030000 		.4byte	0x373
 8908 1959 02       		.uleb128 0x2
 8909 195a 91       		.byte	0x91
 8910 195b 74       		.sleb128 -12
 8911 195c 1A       		.uleb128 0x1a
 8912 195d 7300     		.ascii	"s\000"
 8913 195f 01       		.byte	0x1
 8914 1960 5705     		.2byte	0x557
 8915 1962 A10F0000 		.4byte	0xfa1
 8916 1966 02       		.uleb128 0x2
 8917 1967 91       		.byte	0x91
 8918 1968 70       		.sleb128 -16
 8919 1969 1A       		.uleb128 0x1a
 8920 196a 62756600 		.ascii	"buf\000"
 8921 196e 01       		.byte	0x1
 8922 196f 5705     		.2byte	0x557
 8923 1971 AD180000 		.4byte	0x18ad
 8924 1975 02       		.uleb128 0x2
 8925 1976 91       		.byte	0x91
 8926 1977 6C       		.sleb128 -20
 8927 1978 00       		.byte	0
 8928 1979 1B       		.uleb128 0x1b
 8929 197a F7080000 		.4byte	.LASF158
 8930 197e 01       		.byte	0x1
 8931 197f 5D05     		.2byte	0x55d
 8932 1981 00000000 		.4byte	.LFB75
 8933 1985 68000000 		.4byte	.LFE75-.LFB75
 8934 1989 01       		.uleb128 0x1
 8935 198a 9C       		.byte	0x9c
 8936 198b F3190000 		.4byte	0x19f3
 8937 198f 1A       		.uleb128 0x1a
 8938 1990 75386700 		.ascii	"u8g\000"
 8939 1994 01       		.byte	0x1
 8940 1995 5D05     		.2byte	0x55d
 8941 1997 73030000 		.4byte	0x373
 8942 199b 02       		.uleb128 0x2
 8943 199c 91       		.byte	0x91
 8944 199d 74       		.sleb128 -12
ARM GAS  C:\Users\KJA\AppData\Local\Temp\ccevgiJT.s 			page 185


 8945 199e 1A       		.uleb128 0x1a
 8946 199f 7300     		.ascii	"s\000"
 8947 19a1 01       		.byte	0x1
 8948 19a2 5D05     		.2byte	0x55d
 8949 19a4 A10F0000 		.4byte	0xfa1
 8950 19a8 02       		.uleb128 0x2
 8951 19a9 91       		.byte	0x91
 8952 19aa 70       		.sleb128 -16
 8953 19ab 1A       		.uleb128 0x1a
 8954 19ac 62756600 		.ascii	"buf\000"
 8955 19b0 01       		.byte	0x1
 8956 19b1 5D05     		.2byte	0x55d
 8957 19b3 AD180000 		.4byte	0x18ad
 8958 19b7 02       		.uleb128 0x2
 8959 19b8 91       		.byte	0x91
 8960 19b9 6C       		.sleb128 -20
 8961 19ba 1A       		.uleb128 0x1a
 8962 19bb 7800     		.ascii	"x\000"
 8963 19bd 01       		.byte	0x1
 8964 19be 5D05     		.2byte	0x55d
 8965 19c0 F3190000 		.4byte	0x19f3
 8966 19c4 02       		.uleb128 0x2
 8967 19c5 91       		.byte	0x91
 8968 19c6 68       		.sleb128 -24
 8969 19c7 1A       		.uleb128 0x1a
 8970 19c8 7900     		.ascii	"y\000"
 8971 19ca 01       		.byte	0x1
 8972 19cb 5D05     		.2byte	0x55d
 8973 19cd F3190000 		.4byte	0x19f3
 8974 19d1 02       		.uleb128 0x2
 8975 19d2 91       		.byte	0x91
 8976 19d3 00       		.sleb128 0
 8977 19d4 1E       		.uleb128 0x1e
 8978 19d5 D5030000 		.4byte	.LASF19
 8979 19d9 01       		.byte	0x1
 8980 19da 5D05     		.2byte	0x55d
 8981 19dc F3190000 		.4byte	0x19f3
 8982 19e0 02       		.uleb128 0x2
 8983 19e1 91       		.byte	0x91
 8984 19e2 04       		.sleb128 4
 8985 19e3 1E       		.uleb128 0x1e
 8986 19e4 970A0000 		.4byte	.LASF20
 8987 19e8 01       		.byte	0x1
 8988 19e9 5D05     		.2byte	0x55d
 8989 19eb F3190000 		.4byte	0x19f3
 8990 19ef 02       		.uleb128 0x2
 8991 19f0 91       		.byte	0x91
 8992 19f1 08       		.sleb128 8
 8993 19f2 00       		.byte	0
 8994 19f3 0A       		.uleb128 0xa
 8995 19f4 04       		.byte	0x4
 8996 19f5 2E030000 		.4byte	0x32e
 8997 19f9 21       		.uleb128 0x21
 8998 19fa 41020000 		.4byte	.LASF159
 8999 19fe 01       		.byte	0x1
 9000 19ff 7005     		.2byte	0x570
 9001 1a01 00000000 		.4byte	.LFB76
ARM GAS  C:\Users\KJA\AppData\Local\Temp\ccevgiJT.s 			page 186


 9002 1a05 52000000 		.4byte	.LFE76-.LFB76
 9003 1a09 01       		.uleb128 0x1
 9004 1a0a 9C       		.byte	0x9c
 9005 1a0b 731A0000 		.4byte	0x1a73
 9006 1a0f 1A       		.uleb128 0x1a
 9007 1a10 75386700 		.ascii	"u8g\000"
 9008 1a14 01       		.byte	0x1
 9009 1a15 7005     		.2byte	0x570
 9010 1a17 73030000 		.4byte	0x373
 9011 1a1b 02       		.uleb128 0x2
 9012 1a1c 91       		.byte	0x91
 9013 1a1d 6C       		.sleb128 -20
 9014 1a1e 1A       		.uleb128 0x1a
 9015 1a1f 7300     		.ascii	"s\000"
 9016 1a21 01       		.byte	0x1
 9017 1a22 7005     		.2byte	0x570
 9018 1a24 A10F0000 		.4byte	0xfa1
 9019 1a28 02       		.uleb128 0x2
 9020 1a29 91       		.byte	0x91
 9021 1a2a 68       		.sleb128 -24
 9022 1a2b 1A       		.uleb128 0x1a
 9023 1a2c 7800     		.ascii	"x\000"
 9024 1a2e 01       		.byte	0x1
 9025 1a2f 7005     		.2byte	0x570
 9026 1a31 F3190000 		.4byte	0x19f3
 9027 1a35 02       		.uleb128 0x2
 9028 1a36 91       		.byte	0x91
 9029 1a37 64       		.sleb128 -28
 9030 1a38 1A       		.uleb128 0x1a
 9031 1a39 7900     		.ascii	"y\000"
 9032 1a3b 01       		.byte	0x1
 9033 1a3c 7005     		.2byte	0x570
 9034 1a3e F3190000 		.4byte	0x19f3
 9035 1a42 02       		.uleb128 0x2
 9036 1a43 91       		.byte	0x91
 9037 1a44 60       		.sleb128 -32
 9038 1a45 1E       		.uleb128 0x1e
 9039 1a46 D5030000 		.4byte	.LASF19
 9040 1a4a 01       		.byte	0x1
 9041 1a4b 7005     		.2byte	0x570
 9042 1a4d F3190000 		.4byte	0x19f3
 9043 1a51 02       		.uleb128 0x2
 9044 1a52 91       		.byte	0x91
 9045 1a53 00       		.sleb128 0
 9046 1a54 1E       		.uleb128 0x1e
 9047 1a55 970A0000 		.4byte	.LASF20
 9048 1a59 01       		.byte	0x1
 9049 1a5a 7005     		.2byte	0x570
 9050 1a5c F3190000 		.4byte	0x19f3
 9051 1a60 02       		.uleb128 0x2
 9052 1a61 91       		.byte	0x91
 9053 1a62 04       		.sleb128 4
 9054 1a63 1C       		.uleb128 0x1c
 9055 1a64 62756600 		.ascii	"buf\000"
 9056 1a68 01       		.byte	0x1
 9057 1a69 7205     		.2byte	0x572
 9058 1a6b A0040000 		.4byte	0x4a0
ARM GAS  C:\Users\KJA\AppData\Local\Temp\ccevgiJT.s 			page 187


 9059 1a6f 02       		.uleb128 0x2
 9060 1a70 91       		.byte	0x91
 9061 1a71 70       		.sleb128 -16
 9062 1a72 00       		.byte	0
 9063 1a73 21       		.uleb128 0x21
 9064 1a74 AA000000 		.4byte	.LASF160
 9065 1a78 01       		.byte	0x1
 9066 1a79 8005     		.2byte	0x580
 9067 1a7b 00000000 		.4byte	.LFB77
 9068 1a7f 6E000000 		.4byte	.LFE77-.LFB77
 9069 1a83 01       		.uleb128 0x1
 9070 1a84 9C       		.byte	0x9c
 9071 1a85 FC1A0000 		.4byte	0x1afc
 9072 1a89 1A       		.uleb128 0x1a
 9073 1a8a 75386700 		.ascii	"u8g\000"
 9074 1a8e 01       		.byte	0x1
 9075 1a8f 8005     		.2byte	0x580
 9076 1a91 73030000 		.4byte	0x373
 9077 1a95 02       		.uleb128 0x2
 9078 1a96 91       		.byte	0x91
 9079 1a97 6C       		.sleb128 -20
 9080 1a98 1A       		.uleb128 0x1a
 9081 1a99 7300     		.ascii	"s\000"
 9082 1a9b 01       		.byte	0x1
 9083 1a9c 8005     		.2byte	0x580
 9084 1a9e A10F0000 		.4byte	0xfa1
 9085 1aa2 02       		.uleb128 0x2
 9086 1aa3 91       		.byte	0x91
 9087 1aa4 68       		.sleb128 -24
 9088 1aa5 1A       		.uleb128 0x1a
 9089 1aa6 7800     		.ascii	"x\000"
 9090 1aa8 01       		.byte	0x1
 9091 1aa9 8005     		.2byte	0x580
 9092 1aab F3190000 		.4byte	0x19f3
 9093 1aaf 02       		.uleb128 0x2
 9094 1ab0 91       		.byte	0x91
 9095 1ab1 64       		.sleb128 -28
 9096 1ab2 1A       		.uleb128 0x1a
 9097 1ab3 7900     		.ascii	"y\000"
 9098 1ab5 01       		.byte	0x1
 9099 1ab6 8005     		.2byte	0x580
 9100 1ab8 F3190000 		.4byte	0x19f3
 9101 1abc 02       		.uleb128 0x2
 9102 1abd 91       		.byte	0x91
 9103 1abe 60       		.sleb128 -32
 9104 1abf 1E       		.uleb128 0x1e
 9105 1ac0 D5030000 		.4byte	.LASF19
 9106 1ac4 01       		.byte	0x1
 9107 1ac5 8005     		.2byte	0x580
 9108 1ac7 F3190000 		.4byte	0x19f3
 9109 1acb 02       		.uleb128 0x2
 9110 1acc 91       		.byte	0x91
 9111 1acd 00       		.sleb128 0
 9112 1ace 1E       		.uleb128 0x1e
 9113 1acf 970A0000 		.4byte	.LASF20
 9114 1ad3 01       		.byte	0x1
 9115 1ad4 8005     		.2byte	0x580
ARM GAS  C:\Users\KJA\AppData\Local\Temp\ccevgiJT.s 			page 188


 9116 1ad6 F3190000 		.4byte	0x19f3
 9117 1ada 02       		.uleb128 0x2
 9118 1adb 91       		.byte	0x91
 9119 1adc 04       		.sleb128 4
 9120 1add 1C       		.uleb128 0x1c
 9121 1ade 62756600 		.ascii	"buf\000"
 9122 1ae2 01       		.byte	0x1
 9123 1ae3 8205     		.2byte	0x582
 9124 1ae5 A0040000 		.4byte	0x4a0
 9125 1ae9 02       		.uleb128 0x2
 9126 1aea 91       		.byte	0x91
 9127 1aeb 70       		.sleb128 -16
 9128 1aec 1F       		.uleb128 0x1f
 9129 1aed 71040000 		.4byte	.LASF161
 9130 1af1 01       		.byte	0x1
 9131 1af2 8305     		.2byte	0x583
 9132 1af4 A2000000 		.4byte	0xa2
 9133 1af8 02       		.uleb128 0x2
 9134 1af9 91       		.byte	0x91
 9135 1afa 77       		.sleb128 -9
 9136 1afb 00       		.byte	0
 9137 1afc 21       		.uleb128 0x21
 9138 1afd D3010000 		.4byte	.LASF162
 9139 1b01 01       		.byte	0x1
 9140 1b02 9305     		.2byte	0x593
 9141 1b04 00000000 		.4byte	.LFB78
 9142 1b08 2C000000 		.4byte	.LFE78-.LFB78
 9143 1b0c 01       		.uleb128 0x1
 9144 1b0d 9C       		.byte	0x9c
 9145 1b0e 311B0000 		.4byte	0x1b31
 9146 1b12 1A       		.uleb128 0x1a
 9147 1b13 75386700 		.ascii	"u8g\000"
 9148 1b17 01       		.byte	0x1
 9149 1b18 9305     		.2byte	0x593
 9150 1b1a 73030000 		.4byte	0x373
 9151 1b1e 02       		.uleb128 0x2
 9152 1b1f 91       		.byte	0x91
 9153 1b20 74       		.sleb128 -12
 9154 1b21 1E       		.uleb128 0x1e
 9155 1b22 9D090000 		.4byte	.LASF21
 9156 1b26 01       		.byte	0x1
 9157 1b27 9305     		.2byte	0x593
 9158 1b29 E2040000 		.4byte	0x4e2
 9159 1b2d 02       		.uleb128 0x2
 9160 1b2e 91       		.byte	0x91
 9161 1b2f 70       		.sleb128 -16
 9162 1b30 00       		.byte	0
 9163 1b31 19       		.uleb128 0x19
 9164 1b32 D50A0000 		.4byte	.LASF163
 9165 1b36 01       		.byte	0x1
 9166 1b37 A005     		.2byte	0x5a0
 9167 1b39 97000000 		.4byte	0x97
 9168 1b3d 00000000 		.4byte	.LFB79
 9169 1b41 0E010000 		.4byte	.LFE79-.LFB79
 9170 1b45 01       		.uleb128 0x1
 9171 1b46 9C       		.byte	0x9c
 9172 1b47 FA1B0000 		.4byte	0x1bfa
ARM GAS  C:\Users\KJA\AppData\Local\Temp\ccevgiJT.s 			page 189


 9173 1b4b 1A       		.uleb128 0x1a
 9174 1b4c 75386700 		.ascii	"u8g\000"
 9175 1b50 01       		.byte	0x1
 9176 1b51 A005     		.2byte	0x5a0
 9177 1b53 73030000 		.4byte	0x373
 9178 1b57 02       		.uleb128 0x2
 9179 1b58 91       		.byte	0x91
 9180 1b59 5C       		.sleb128 -36
 9181 1b5a 1A       		.uleb128 0x1a
 9182 1b5b 7800     		.ascii	"x\000"
 9183 1b5d 01       		.byte	0x1
 9184 1b5e A005     		.2byte	0x5a0
 9185 1b60 2E030000 		.4byte	0x32e
 9186 1b64 02       		.uleb128 0x2
 9187 1b65 91       		.byte	0x91
 9188 1b66 5B       		.sleb128 -37
 9189 1b67 1A       		.uleb128 0x1a
 9190 1b68 7900     		.ascii	"y\000"
 9191 1b6a 01       		.byte	0x1
 9192 1b6b A005     		.2byte	0x5a0
 9193 1b6d 2E030000 		.4byte	0x32e
 9194 1b71 02       		.uleb128 0x2
 9195 1b72 91       		.byte	0x91
 9196 1b73 5A       		.sleb128 -38
 9197 1b74 1E       		.uleb128 0x1e
 9198 1b75 13050000 		.4byte	.LASF110
 9199 1b79 01       		.byte	0x1
 9200 1b7a A005     		.2byte	0x5a0
 9201 1b7c A2000000 		.4byte	0xa2
 9202 1b80 02       		.uleb128 0x2
 9203 1b81 91       		.byte	0x91
 9204 1b82 59       		.sleb128 -39
 9205 1b83 1F       		.uleb128 0x1f
 9206 1b84 C2000000 		.4byte	.LASF111
 9207 1b88 01       		.byte	0x1
 9208 1b89 A205     		.2byte	0x5a2
 9209 1b8b 0B040000 		.4byte	0x40b
 9210 1b8f 02       		.uleb128 0x2
 9211 1b90 91       		.byte	0x91
 9212 1b91 6C       		.sleb128 -20
 9213 1b92 1C       		.uleb128 0x1c
 9214 1b93 7700     		.ascii	"w\000"
 9215 1b95 01       		.byte	0x1
 9216 1b96 A305     		.2byte	0x5a3
 9217 1b98 A2000000 		.4byte	0xa2
 9218 1b9c 02       		.uleb128 0x2
 9219 1b9d 91       		.byte	0x91
 9220 1b9e 63       		.sleb128 -29
 9221 1b9f 1C       		.uleb128 0x1c
 9222 1ba0 6800     		.ascii	"h\000"
 9223 1ba2 01       		.byte	0x1
 9224 1ba3 A305     		.2byte	0x5a3
 9225 1ba5 A2000000 		.4byte	0xa2
 9226 1ba9 02       		.uleb128 0x2
 9227 1baa 91       		.byte	0x91
 9228 1bab 62       		.sleb128 -30
 9229 1bac 1C       		.uleb128 0x1c
ARM GAS  C:\Users\KJA\AppData\Local\Temp\ccevgiJT.s 			page 190


 9230 1bad 6900     		.ascii	"i\000"
 9231 1baf 01       		.byte	0x1
 9232 1bb0 A405     		.2byte	0x5a4
 9233 1bb2 A2000000 		.4byte	0xa2
 9234 1bb6 02       		.uleb128 0x2
 9235 1bb7 91       		.byte	0x91
 9236 1bb8 6B       		.sleb128 -21
 9237 1bb9 1C       		.uleb128 0x1c
 9238 1bba 6A00     		.ascii	"j\000"
 9239 1bbc 01       		.byte	0x1
 9240 1bbd A405     		.2byte	0x5a4
 9241 1bbf A2000000 		.4byte	0xa2
 9242 1bc3 02       		.uleb128 0x2
 9243 1bc4 91       		.byte	0x91
 9244 1bc5 6A       		.sleb128 -22
 9245 1bc6 1C       		.uleb128 0x1c
 9246 1bc7 697800   		.ascii	"ix\000"
 9247 1bca 01       		.byte	0x1
 9248 1bcb A505     		.2byte	0x5a5
 9249 1bcd 2E030000 		.4byte	0x32e
 9250 1bd1 02       		.uleb128 0x2
 9251 1bd2 91       		.byte	0x91
 9252 1bd3 69       		.sleb128 -23
 9253 1bd4 1C       		.uleb128 0x1c
 9254 1bd5 697900   		.ascii	"iy\000"
 9255 1bd8 01       		.byte	0x1
 9256 1bd9 A505     		.2byte	0x5a5
 9257 1bdb 2E030000 		.4byte	0x32e
 9258 1bdf 02       		.uleb128 0x2
 9259 1be0 91       		.byte	0x91
 9260 1be1 68       		.sleb128 -24
 9261 1be2 20       		.uleb128 0x20
 9262 1be3 1A000000 		.4byte	.LBB6
 9263 1be7 24000000 		.4byte	.LBE6-.LBB6
 9264 1beb 1C       		.uleb128 0x1c
 9265 1bec 6700     		.ascii	"g\000"
 9266 1bee 01       		.byte	0x1
 9267 1bef A805     		.2byte	0x5a8
 9268 1bf1 1D040000 		.4byte	0x41d
 9269 1bf5 02       		.uleb128 0x2
 9270 1bf6 91       		.byte	0x91
 9271 1bf7 64       		.sleb128 -28
 9272 1bf8 00       		.byte	0
 9273 1bf9 00       		.byte	0
 9274 1bfa 19       		.uleb128 0x19
 9275 1bfb 72080000 		.4byte	.LASF164
 9276 1bff 01       		.byte	0x1
 9277 1c00 CE05     		.2byte	0x5ce
 9278 1c02 97000000 		.4byte	0x97
 9279 1c06 00000000 		.4byte	.LFB80
 9280 1c0a 42000000 		.4byte	.LFE80-.LFB80
 9281 1c0e 01       		.uleb128 0x1
 9282 1c0f 9C       		.byte	0x9c
 9283 1c10 4D1C0000 		.4byte	0x1c4d
 9284 1c14 1A       		.uleb128 0x1a
 9285 1c15 75386700 		.ascii	"u8g\000"
 9286 1c19 01       		.byte	0x1
ARM GAS  C:\Users\KJA\AppData\Local\Temp\ccevgiJT.s 			page 191


 9287 1c1a CE05     		.2byte	0x5ce
 9288 1c1c 73030000 		.4byte	0x373
 9289 1c20 02       		.uleb128 0x2
 9290 1c21 91       		.byte	0x91
 9291 1c22 74       		.sleb128 -12
 9292 1c23 1A       		.uleb128 0x1a
 9293 1c24 7800     		.ascii	"x\000"
 9294 1c26 01       		.byte	0x1
 9295 1c27 CE05     		.2byte	0x5ce
 9296 1c29 2E030000 		.4byte	0x32e
 9297 1c2d 02       		.uleb128 0x2
 9298 1c2e 91       		.byte	0x91
 9299 1c2f 73       		.sleb128 -13
 9300 1c30 1A       		.uleb128 0x1a
 9301 1c31 7900     		.ascii	"y\000"
 9302 1c33 01       		.byte	0x1
 9303 1c34 CE05     		.2byte	0x5ce
 9304 1c36 2E030000 		.4byte	0x32e
 9305 1c3a 02       		.uleb128 0x2
 9306 1c3b 91       		.byte	0x91
 9307 1c3c 72       		.sleb128 -14
 9308 1c3d 1E       		.uleb128 0x1e
 9309 1c3e 13050000 		.4byte	.LASF110
 9310 1c42 01       		.byte	0x1
 9311 1c43 CE05     		.2byte	0x5ce
 9312 1c45 A2000000 		.4byte	0xa2
 9313 1c49 02       		.uleb128 0x2
 9314 1c4a 91       		.byte	0x91
 9315 1c4b 71       		.sleb128 -15
 9316 1c4c 00       		.byte	0
 9317 1c4d 24       		.uleb128 0x24
 9318 1c4e 5B000000 		.4byte	.LASF165
 9319 1c52 01       		.byte	0x1
 9320 1c53 D405     		.2byte	0x5d4
 9321 1c55 2E030000 		.4byte	0x32e
 9322 1c59 00000000 		.4byte	.LFB81
 9323 1c5d 78000000 		.4byte	.LFE81-.LFB81
 9324 1c61 01       		.uleb128 0x1
 9325 1c62 9C       		.byte	0x9c
 9326 1c63 1A       		.uleb128 0x1a
 9327 1c64 75386700 		.ascii	"u8g\000"
 9328 1c68 01       		.byte	0x1
 9329 1c69 D405     		.2byte	0x5d4
 9330 1c6b 73030000 		.4byte	0x373
 9331 1c6f 02       		.uleb128 0x2
 9332 1c70 91       		.byte	0x91
 9333 1c71 6C       		.sleb128 -20
 9334 1c72 1A       		.uleb128 0x1a
 9335 1c73 7800     		.ascii	"x\000"
 9336 1c75 01       		.byte	0x1
 9337 1c76 D405     		.2byte	0x5d4
 9338 1c78 2E030000 		.4byte	0x32e
 9339 1c7c 02       		.uleb128 0x2
 9340 1c7d 91       		.byte	0x91
 9341 1c7e 6B       		.sleb128 -21
 9342 1c7f 1A       		.uleb128 0x1a
 9343 1c80 7900     		.ascii	"y\000"
ARM GAS  C:\Users\KJA\AppData\Local\Temp\ccevgiJT.s 			page 192


 9344 1c82 01       		.byte	0x1
 9345 1c83 D405     		.2byte	0x5d4
 9346 1c85 2E030000 		.4byte	0x32e
 9347 1c89 02       		.uleb128 0x2
 9348 1c8a 91       		.byte	0x91
 9349 1c8b 6A       		.sleb128 -22
 9350 1c8c 1A       		.uleb128 0x1a
 9351 1c8d 7300     		.ascii	"s\000"
 9352 1c8f 01       		.byte	0x1
 9353 1c90 D405     		.2byte	0x5d4
 9354 1c92 A10F0000 		.4byte	0xfa1
 9355 1c96 02       		.uleb128 0x2
 9356 1c97 91       		.byte	0x91
 9357 1c98 64       		.sleb128 -28
 9358 1c99 1C       		.uleb128 0x1c
 9359 1c9a 7400     		.ascii	"t\000"
 9360 1c9c 01       		.byte	0x1
 9361 1c9d D605     		.2byte	0x5d6
 9362 1c9f 2E030000 		.4byte	0x32e
 9363 1ca3 02       		.uleb128 0x2
 9364 1ca4 91       		.byte	0x91
 9365 1ca5 77       		.sleb128 -9
 9366 1ca6 1C       		.uleb128 0x1c
 9367 1ca7 6400     		.ascii	"d\000"
 9368 1ca9 01       		.byte	0x1
 9369 1caa D705     		.2byte	0x5d7
 9370 1cac 97000000 		.4byte	0x97
 9371 1cb0 02       		.uleb128 0x2
 9372 1cb1 91       		.byte	0x91
 9373 1cb2 76       		.sleb128 -10
 9374 1cb3 00       		.byte	0
 9375 1cb4 00       		.byte	0
 9376              		.section	.debug_abbrev,"",%progbits
 9377              	.Ldebug_abbrev0:
 9378 0000 01       		.uleb128 0x1
 9379 0001 11       		.uleb128 0x11
 9380 0002 01       		.byte	0x1
 9381 0003 25       		.uleb128 0x25
 9382 0004 0E       		.uleb128 0xe
 9383 0005 13       		.uleb128 0x13
 9384 0006 0B       		.uleb128 0xb
 9385 0007 03       		.uleb128 0x3
 9386 0008 0E       		.uleb128 0xe
 9387 0009 1B       		.uleb128 0x1b
 9388 000a 0E       		.uleb128 0xe
 9389 000b 55       		.uleb128 0x55
 9390 000c 17       		.uleb128 0x17
 9391 000d 11       		.uleb128 0x11
 9392 000e 01       		.uleb128 0x1
 9393 000f 10       		.uleb128 0x10
 9394 0010 17       		.uleb128 0x17
 9395 0011 00       		.byte	0
 9396 0012 00       		.byte	0
 9397 0013 02       		.uleb128 0x2
 9398 0014 24       		.uleb128 0x24
 9399 0015 00       		.byte	0
 9400 0016 0B       		.uleb128 0xb
ARM GAS  C:\Users\KJA\AppData\Local\Temp\ccevgiJT.s 			page 193


 9401 0017 0B       		.uleb128 0xb
 9402 0018 3E       		.uleb128 0x3e
 9403 0019 0B       		.uleb128 0xb
 9404 001a 03       		.uleb128 0x3
 9405 001b 08       		.uleb128 0x8
 9406 001c 00       		.byte	0
 9407 001d 00       		.byte	0
 9408 001e 03       		.uleb128 0x3
 9409 001f 16       		.uleb128 0x16
 9410 0020 00       		.byte	0
 9411 0021 03       		.uleb128 0x3
 9412 0022 0E       		.uleb128 0xe
 9413 0023 3A       		.uleb128 0x3a
 9414 0024 0B       		.uleb128 0xb
 9415 0025 3B       		.uleb128 0x3b
 9416 0026 0B       		.uleb128 0xb
 9417 0027 49       		.uleb128 0x49
 9418 0028 13       		.uleb128 0x13
 9419 0029 00       		.byte	0
 9420 002a 00       		.byte	0
 9421 002b 04       		.uleb128 0x4
 9422 002c 24       		.uleb128 0x24
 9423 002d 00       		.byte	0
 9424 002e 0B       		.uleb128 0xb
 9425 002f 0B       		.uleb128 0xb
 9426 0030 3E       		.uleb128 0x3e
 9427 0031 0B       		.uleb128 0xb
 9428 0032 03       		.uleb128 0x3
 9429 0033 0E       		.uleb128 0xe
 9430 0034 00       		.byte	0
 9431 0035 00       		.byte	0
 9432 0036 05       		.uleb128 0x5
 9433 0037 13       		.uleb128 0x13
 9434 0038 01       		.byte	0x1
 9435 0039 03       		.uleb128 0x3
 9436 003a 0E       		.uleb128 0xe
 9437 003b 0B       		.uleb128 0xb
 9438 003c 0B       		.uleb128 0xb
 9439 003d 3A       		.uleb128 0x3a
 9440 003e 0B       		.uleb128 0xb
 9441 003f 3B       		.uleb128 0x3b
 9442 0040 05       		.uleb128 0x5
 9443 0041 01       		.uleb128 0x1
 9444 0042 13       		.uleb128 0x13
 9445 0043 00       		.byte	0
 9446 0044 00       		.byte	0
 9447 0045 06       		.uleb128 0x6
 9448 0046 0D       		.uleb128 0xd
 9449 0047 00       		.byte	0
 9450 0048 03       		.uleb128 0x3
 9451 0049 0E       		.uleb128 0xe
 9452 004a 3A       		.uleb128 0x3a
 9453 004b 0B       		.uleb128 0xb
 9454 004c 3B       		.uleb128 0x3b
 9455 004d 05       		.uleb128 0x5
 9456 004e 49       		.uleb128 0x49
 9457 004f 13       		.uleb128 0x13
ARM GAS  C:\Users\KJA\AppData\Local\Temp\ccevgiJT.s 			page 194


 9458 0050 38       		.uleb128 0x38
 9459 0051 0B       		.uleb128 0xb
 9460 0052 00       		.byte	0
 9461 0053 00       		.byte	0
 9462 0054 07       		.uleb128 0x7
 9463 0055 0D       		.uleb128 0xd
 9464 0056 00       		.byte	0
 9465 0057 03       		.uleb128 0x3
 9466 0058 08       		.uleb128 0x8
 9467 0059 3A       		.uleb128 0x3a
 9468 005a 0B       		.uleb128 0xb
 9469 005b 3B       		.uleb128 0x3b
 9470 005c 05       		.uleb128 0x5
 9471 005d 49       		.uleb128 0x49
 9472 005e 13       		.uleb128 0x13
 9473 005f 38       		.uleb128 0x38
 9474 0060 0B       		.uleb128 0xb
 9475 0061 00       		.byte	0
 9476 0062 00       		.byte	0
 9477 0063 08       		.uleb128 0x8
 9478 0064 13       		.uleb128 0x13
 9479 0065 01       		.byte	0x1
 9480 0066 03       		.uleb128 0x3
 9481 0067 0E       		.uleb128 0xe
 9482 0068 0B       		.uleb128 0xb
 9483 0069 0B       		.uleb128 0xb
 9484 006a 3A       		.uleb128 0x3a
 9485 006b 0B       		.uleb128 0xb
 9486 006c 3B       		.uleb128 0x3b
 9487 006d 0B       		.uleb128 0xb
 9488 006e 01       		.uleb128 0x1
 9489 006f 13       		.uleb128 0x13
 9490 0070 00       		.byte	0
 9491 0071 00       		.byte	0
 9492 0072 09       		.uleb128 0x9
 9493 0073 0D       		.uleb128 0xd
 9494 0074 00       		.byte	0
 9495 0075 03       		.uleb128 0x3
 9496 0076 0E       		.uleb128 0xe
 9497 0077 3A       		.uleb128 0x3a
 9498 0078 0B       		.uleb128 0xb
 9499 0079 3B       		.uleb128 0x3b
 9500 007a 0B       		.uleb128 0xb
 9501 007b 49       		.uleb128 0x49
 9502 007c 13       		.uleb128 0x13
 9503 007d 38       		.uleb128 0x38
 9504 007e 0B       		.uleb128 0xb
 9505 007f 00       		.byte	0
 9506 0080 00       		.byte	0
 9507 0081 0A       		.uleb128 0xa
 9508 0082 0F       		.uleb128 0xf
 9509 0083 00       		.byte	0
 9510 0084 0B       		.uleb128 0xb
 9511 0085 0B       		.uleb128 0xb
 9512 0086 49       		.uleb128 0x49
 9513 0087 13       		.uleb128 0x13
 9514 0088 00       		.byte	0
ARM GAS  C:\Users\KJA\AppData\Local\Temp\ccevgiJT.s 			page 195


 9515 0089 00       		.byte	0
 9516 008a 0B       		.uleb128 0xb
 9517 008b 15       		.uleb128 0x15
 9518 008c 01       		.byte	0x1
 9519 008d 27       		.uleb128 0x27
 9520 008e 19       		.uleb128 0x19
 9521 008f 49       		.uleb128 0x49
 9522 0090 13       		.uleb128 0x13
 9523 0091 01       		.uleb128 0x1
 9524 0092 13       		.uleb128 0x13
 9525 0093 00       		.byte	0
 9526 0094 00       		.byte	0
 9527 0095 0C       		.uleb128 0xc
 9528 0096 05       		.uleb128 0x5
 9529 0097 00       		.byte	0
 9530 0098 49       		.uleb128 0x49
 9531 0099 13       		.uleb128 0x13
 9532 009a 00       		.byte	0
 9533 009b 00       		.byte	0
 9534 009c 0D       		.uleb128 0xd
 9535 009d 0F       		.uleb128 0xf
 9536 009e 00       		.byte	0
 9537 009f 0B       		.uleb128 0xb
 9538 00a0 0B       		.uleb128 0xb
 9539 00a1 00       		.byte	0
 9540 00a2 00       		.byte	0
 9541 00a3 0E       		.uleb128 0xe
 9542 00a4 16       		.uleb128 0x16
 9543 00a5 00       		.byte	0
 9544 00a6 03       		.uleb128 0x3
 9545 00a7 0E       		.uleb128 0xe
 9546 00a8 3A       		.uleb128 0x3a
 9547 00a9 0B       		.uleb128 0xb
 9548 00aa 3B       		.uleb128 0x3b
 9549 00ab 05       		.uleb128 0x5
 9550 00ac 49       		.uleb128 0x49
 9551 00ad 13       		.uleb128 0x13
 9552 00ae 00       		.byte	0
 9553 00af 00       		.byte	0
 9554 00b0 0F       		.uleb128 0xf
 9555 00b1 15       		.uleb128 0x15
 9556 00b2 01       		.byte	0x1
 9557 00b3 27       		.uleb128 0x27
 9558 00b4 19       		.uleb128 0x19
 9559 00b5 01       		.uleb128 0x1
 9560 00b6 13       		.uleb128 0x13
 9561 00b7 00       		.byte	0
 9562 00b8 00       		.byte	0
 9563 00b9 10       		.uleb128 0x10
 9564 00ba 26       		.uleb128 0x26
 9565 00bb 00       		.byte	0
 9566 00bc 49       		.uleb128 0x49
 9567 00bd 13       		.uleb128 0x13
 9568 00be 00       		.byte	0
 9569 00bf 00       		.byte	0
 9570 00c0 11       		.uleb128 0x11
 9571 00c1 26       		.uleb128 0x26
ARM GAS  C:\Users\KJA\AppData\Local\Temp\ccevgiJT.s 			page 196


 9572 00c2 00       		.byte	0
 9573 00c3 00       		.byte	0
 9574 00c4 00       		.byte	0
 9575 00c5 12       		.uleb128 0x12
 9576 00c6 2E       		.uleb128 0x2e
 9577 00c7 01       		.byte	0x1
 9578 00c8 03       		.uleb128 0x3
 9579 00c9 0E       		.uleb128 0xe
 9580 00ca 3A       		.uleb128 0x3a
 9581 00cb 0B       		.uleb128 0xb
 9582 00cc 3B       		.uleb128 0x3b
 9583 00cd 0B       		.uleb128 0xb
 9584 00ce 27       		.uleb128 0x27
 9585 00cf 19       		.uleb128 0x19
 9586 00d0 49       		.uleb128 0x49
 9587 00d1 13       		.uleb128 0x13
 9588 00d2 11       		.uleb128 0x11
 9589 00d3 01       		.uleb128 0x1
 9590 00d4 12       		.uleb128 0x12
 9591 00d5 06       		.uleb128 0x6
 9592 00d6 40       		.uleb128 0x40
 9593 00d7 18       		.uleb128 0x18
 9594 00d8 9742     		.uleb128 0x2117
 9595 00da 19       		.uleb128 0x19
 9596 00db 01       		.uleb128 0x1
 9597 00dc 13       		.uleb128 0x13
 9598 00dd 00       		.byte	0
 9599 00de 00       		.byte	0
 9600 00df 13       		.uleb128 0x13
 9601 00e0 05       		.uleb128 0x5
 9602 00e1 00       		.byte	0
 9603 00e2 03       		.uleb128 0x3
 9604 00e3 0E       		.uleb128 0xe
 9605 00e4 3A       		.uleb128 0x3a
 9606 00e5 0B       		.uleb128 0xb
 9607 00e6 3B       		.uleb128 0x3b
 9608 00e7 0B       		.uleb128 0xb
 9609 00e8 49       		.uleb128 0x49
 9610 00e9 13       		.uleb128 0x13
 9611 00ea 02       		.uleb128 0x2
 9612 00eb 18       		.uleb128 0x18
 9613 00ec 00       		.byte	0
 9614 00ed 00       		.byte	0
 9615 00ee 14       		.uleb128 0x14
 9616 00ef 34       		.uleb128 0x34
 9617 00f0 00       		.byte	0
 9618 00f1 03       		.uleb128 0x3
 9619 00f2 08       		.uleb128 0x8
 9620 00f3 3A       		.uleb128 0x3a
 9621 00f4 0B       		.uleb128 0xb
 9622 00f5 3B       		.uleb128 0x3b
 9623 00f6 0B       		.uleb128 0xb
 9624 00f7 49       		.uleb128 0x49
 9625 00f8 13       		.uleb128 0x13
 9626 00f9 02       		.uleb128 0x2
 9627 00fa 18       		.uleb128 0x18
 9628 00fb 00       		.byte	0
ARM GAS  C:\Users\KJA\AppData\Local\Temp\ccevgiJT.s 			page 197


 9629 00fc 00       		.byte	0
 9630 00fd 15       		.uleb128 0x15
 9631 00fe 2E       		.uleb128 0x2e
 9632 00ff 01       		.byte	0x1
 9633 0100 03       		.uleb128 0x3
 9634 0101 0E       		.uleb128 0xe
 9635 0102 3A       		.uleb128 0x3a
 9636 0103 0B       		.uleb128 0xb
 9637 0104 3B       		.uleb128 0x3b
 9638 0105 0B       		.uleb128 0xb
 9639 0106 27       		.uleb128 0x27
 9640 0107 19       		.uleb128 0x19
 9641 0108 49       		.uleb128 0x49
 9642 0109 13       		.uleb128 0x13
 9643 010a 11       		.uleb128 0x11
 9644 010b 01       		.uleb128 0x1
 9645 010c 12       		.uleb128 0x12
 9646 010d 06       		.uleb128 0x6
 9647 010e 40       		.uleb128 0x40
 9648 010f 18       		.uleb128 0x18
 9649 0110 9642     		.uleb128 0x2116
 9650 0112 19       		.uleb128 0x19
 9651 0113 01       		.uleb128 0x1
 9652 0114 13       		.uleb128 0x13
 9653 0115 00       		.byte	0
 9654 0116 00       		.byte	0
 9655 0117 16       		.uleb128 0x16
 9656 0118 2E       		.uleb128 0x2e
 9657 0119 01       		.byte	0x1
 9658 011a 3F       		.uleb128 0x3f
 9659 011b 19       		.uleb128 0x19
 9660 011c 03       		.uleb128 0x3
 9661 011d 0E       		.uleb128 0xe
 9662 011e 3A       		.uleb128 0x3a
 9663 011f 0B       		.uleb128 0xb
 9664 0120 3B       		.uleb128 0x3b
 9665 0121 0B       		.uleb128 0xb
 9666 0122 27       		.uleb128 0x27
 9667 0123 19       		.uleb128 0x19
 9668 0124 49       		.uleb128 0x49
 9669 0125 13       		.uleb128 0x13
 9670 0126 11       		.uleb128 0x11
 9671 0127 01       		.uleb128 0x1
 9672 0128 12       		.uleb128 0x12
 9673 0129 06       		.uleb128 0x6
 9674 012a 40       		.uleb128 0x40
 9675 012b 18       		.uleb128 0x18
 9676 012c 9642     		.uleb128 0x2116
 9677 012e 19       		.uleb128 0x19
 9678 012f 01       		.uleb128 0x1
 9679 0130 13       		.uleb128 0x13
 9680 0131 00       		.byte	0
 9681 0132 00       		.byte	0
 9682 0133 17       		.uleb128 0x17
 9683 0134 05       		.uleb128 0x5
 9684 0135 00       		.byte	0
 9685 0136 03       		.uleb128 0x3
ARM GAS  C:\Users\KJA\AppData\Local\Temp\ccevgiJT.s 			page 198


 9686 0137 08       		.uleb128 0x8
 9687 0138 3A       		.uleb128 0x3a
 9688 0139 0B       		.uleb128 0xb
 9689 013a 3B       		.uleb128 0x3b
 9690 013b 0B       		.uleb128 0xb
 9691 013c 49       		.uleb128 0x49
 9692 013d 13       		.uleb128 0x13
 9693 013e 02       		.uleb128 0x2
 9694 013f 18       		.uleb128 0x18
 9695 0140 00       		.byte	0
 9696 0141 00       		.byte	0
 9697 0142 18       		.uleb128 0x18
 9698 0143 34       		.uleb128 0x34
 9699 0144 00       		.byte	0
 9700 0145 03       		.uleb128 0x3
 9701 0146 0E       		.uleb128 0xe
 9702 0147 3A       		.uleb128 0x3a
 9703 0148 0B       		.uleb128 0xb
 9704 0149 3B       		.uleb128 0x3b
 9705 014a 0B       		.uleb128 0xb
 9706 014b 49       		.uleb128 0x49
 9707 014c 13       		.uleb128 0x13
 9708 014d 02       		.uleb128 0x2
 9709 014e 18       		.uleb128 0x18
 9710 014f 00       		.byte	0
 9711 0150 00       		.byte	0
 9712 0151 19       		.uleb128 0x19
 9713 0152 2E       		.uleb128 0x2e
 9714 0153 01       		.byte	0x1
 9715 0154 3F       		.uleb128 0x3f
 9716 0155 19       		.uleb128 0x19
 9717 0156 03       		.uleb128 0x3
 9718 0157 0E       		.uleb128 0xe
 9719 0158 3A       		.uleb128 0x3a
 9720 0159 0B       		.uleb128 0xb
 9721 015a 3B       		.uleb128 0x3b
 9722 015b 05       		.uleb128 0x5
 9723 015c 27       		.uleb128 0x27
 9724 015d 19       		.uleb128 0x19
 9725 015e 49       		.uleb128 0x49
 9726 015f 13       		.uleb128 0x13
 9727 0160 11       		.uleb128 0x11
 9728 0161 01       		.uleb128 0x1
 9729 0162 12       		.uleb128 0x12
 9730 0163 06       		.uleb128 0x6
 9731 0164 40       		.uleb128 0x40
 9732 0165 18       		.uleb128 0x18
 9733 0166 9642     		.uleb128 0x2116
 9734 0168 19       		.uleb128 0x19
 9735 0169 01       		.uleb128 0x1
 9736 016a 13       		.uleb128 0x13
 9737 016b 00       		.byte	0
 9738 016c 00       		.byte	0
 9739 016d 1A       		.uleb128 0x1a
 9740 016e 05       		.uleb128 0x5
 9741 016f 00       		.byte	0
 9742 0170 03       		.uleb128 0x3
ARM GAS  C:\Users\KJA\AppData\Local\Temp\ccevgiJT.s 			page 199


 9743 0171 08       		.uleb128 0x8
 9744 0172 3A       		.uleb128 0x3a
 9745 0173 0B       		.uleb128 0xb
 9746 0174 3B       		.uleb128 0x3b
 9747 0175 05       		.uleb128 0x5
 9748 0176 49       		.uleb128 0x49
 9749 0177 13       		.uleb128 0x13
 9750 0178 02       		.uleb128 0x2
 9751 0179 18       		.uleb128 0x18
 9752 017a 00       		.byte	0
 9753 017b 00       		.byte	0
 9754 017c 1B       		.uleb128 0x1b
 9755 017d 2E       		.uleb128 0x2e
 9756 017e 01       		.byte	0x1
 9757 017f 03       		.uleb128 0x3
 9758 0180 0E       		.uleb128 0xe
 9759 0181 3A       		.uleb128 0x3a
 9760 0182 0B       		.uleb128 0xb
 9761 0183 3B       		.uleb128 0x3b
 9762 0184 05       		.uleb128 0x5
 9763 0185 27       		.uleb128 0x27
 9764 0186 19       		.uleb128 0x19
 9765 0187 11       		.uleb128 0x11
 9766 0188 01       		.uleb128 0x1
 9767 0189 12       		.uleb128 0x12
 9768 018a 06       		.uleb128 0x6
 9769 018b 40       		.uleb128 0x40
 9770 018c 18       		.uleb128 0x18
 9771 018d 9642     		.uleb128 0x2116
 9772 018f 19       		.uleb128 0x19
 9773 0190 01       		.uleb128 0x1
 9774 0191 13       		.uleb128 0x13
 9775 0192 00       		.byte	0
 9776 0193 00       		.byte	0
 9777 0194 1C       		.uleb128 0x1c
 9778 0195 34       		.uleb128 0x34
 9779 0196 00       		.byte	0
 9780 0197 03       		.uleb128 0x3
 9781 0198 08       		.uleb128 0x8
 9782 0199 3A       		.uleb128 0x3a
 9783 019a 0B       		.uleb128 0xb
 9784 019b 3B       		.uleb128 0x3b
 9785 019c 05       		.uleb128 0x5
 9786 019d 49       		.uleb128 0x49
 9787 019e 13       		.uleb128 0x13
 9788 019f 02       		.uleb128 0x2
 9789 01a0 18       		.uleb128 0x18
 9790 01a1 00       		.byte	0
 9791 01a2 00       		.byte	0
 9792 01a3 1D       		.uleb128 0x1d
 9793 01a4 2E       		.uleb128 0x2e
 9794 01a5 01       		.byte	0x1
 9795 01a6 03       		.uleb128 0x3
 9796 01a7 0E       		.uleb128 0xe
 9797 01a8 3A       		.uleb128 0x3a
 9798 01a9 0B       		.uleb128 0xb
 9799 01aa 3B       		.uleb128 0x3b
ARM GAS  C:\Users\KJA\AppData\Local\Temp\ccevgiJT.s 			page 200


 9800 01ab 05       		.uleb128 0x5
 9801 01ac 27       		.uleb128 0x27
 9802 01ad 19       		.uleb128 0x19
 9803 01ae 11       		.uleb128 0x11
 9804 01af 01       		.uleb128 0x1
 9805 01b0 12       		.uleb128 0x12
 9806 01b1 06       		.uleb128 0x6
 9807 01b2 40       		.uleb128 0x40
 9808 01b3 18       		.uleb128 0x18
 9809 01b4 9742     		.uleb128 0x2117
 9810 01b6 19       		.uleb128 0x19
 9811 01b7 01       		.uleb128 0x1
 9812 01b8 13       		.uleb128 0x13
 9813 01b9 00       		.byte	0
 9814 01ba 00       		.byte	0
 9815 01bb 1E       		.uleb128 0x1e
 9816 01bc 05       		.uleb128 0x5
 9817 01bd 00       		.byte	0
 9818 01be 03       		.uleb128 0x3
 9819 01bf 0E       		.uleb128 0xe
 9820 01c0 3A       		.uleb128 0x3a
 9821 01c1 0B       		.uleb128 0xb
 9822 01c2 3B       		.uleb128 0x3b
 9823 01c3 05       		.uleb128 0x5
 9824 01c4 49       		.uleb128 0x49
 9825 01c5 13       		.uleb128 0x13
 9826 01c6 02       		.uleb128 0x2
 9827 01c7 18       		.uleb128 0x18
 9828 01c8 00       		.byte	0
 9829 01c9 00       		.byte	0
 9830 01ca 1F       		.uleb128 0x1f
 9831 01cb 34       		.uleb128 0x34
 9832 01cc 00       		.byte	0
 9833 01cd 03       		.uleb128 0x3
 9834 01ce 0E       		.uleb128 0xe
 9835 01cf 3A       		.uleb128 0x3a
 9836 01d0 0B       		.uleb128 0xb
 9837 01d1 3B       		.uleb128 0x3b
 9838 01d2 05       		.uleb128 0x5
 9839 01d3 49       		.uleb128 0x49
 9840 01d4 13       		.uleb128 0x13
 9841 01d5 02       		.uleb128 0x2
 9842 01d6 18       		.uleb128 0x18
 9843 01d7 00       		.byte	0
 9844 01d8 00       		.byte	0
 9845 01d9 20       		.uleb128 0x20
 9846 01da 0B       		.uleb128 0xb
 9847 01db 01       		.byte	0x1
 9848 01dc 11       		.uleb128 0x11
 9849 01dd 01       		.uleb128 0x1
 9850 01de 12       		.uleb128 0x12
 9851 01df 06       		.uleb128 0x6
 9852 01e0 00       		.byte	0
 9853 01e1 00       		.byte	0
 9854 01e2 21       		.uleb128 0x21
 9855 01e3 2E       		.uleb128 0x2e
 9856 01e4 01       		.byte	0x1
ARM GAS  C:\Users\KJA\AppData\Local\Temp\ccevgiJT.s 			page 201


 9857 01e5 3F       		.uleb128 0x3f
 9858 01e6 19       		.uleb128 0x19
 9859 01e7 03       		.uleb128 0x3
 9860 01e8 0E       		.uleb128 0xe
 9861 01e9 3A       		.uleb128 0x3a
 9862 01ea 0B       		.uleb128 0xb
 9863 01eb 3B       		.uleb128 0x3b
 9864 01ec 05       		.uleb128 0x5
 9865 01ed 27       		.uleb128 0x27
 9866 01ee 19       		.uleb128 0x19
 9867 01ef 11       		.uleb128 0x11
 9868 01f0 01       		.uleb128 0x1
 9869 01f1 12       		.uleb128 0x12
 9870 01f2 06       		.uleb128 0x6
 9871 01f3 40       		.uleb128 0x40
 9872 01f4 18       		.uleb128 0x18
 9873 01f5 9642     		.uleb128 0x2116
 9874 01f7 19       		.uleb128 0x19
 9875 01f8 01       		.uleb128 0x1
 9876 01f9 13       		.uleb128 0x13
 9877 01fa 00       		.byte	0
 9878 01fb 00       		.byte	0
 9879 01fc 22       		.uleb128 0x22
 9880 01fd 2E       		.uleb128 0x2e
 9881 01fe 01       		.byte	0x1
 9882 01ff 3F       		.uleb128 0x3f
 9883 0200 19       		.uleb128 0x19
 9884 0201 03       		.uleb128 0x3
 9885 0202 0E       		.uleb128 0xe
 9886 0203 3A       		.uleb128 0x3a
 9887 0204 0B       		.uleb128 0xb
 9888 0205 3B       		.uleb128 0x3b
 9889 0206 05       		.uleb128 0x5
 9890 0207 27       		.uleb128 0x27
 9891 0208 19       		.uleb128 0x19
 9892 0209 49       		.uleb128 0x49
 9893 020a 13       		.uleb128 0x13
 9894 020b 11       		.uleb128 0x11
 9895 020c 01       		.uleb128 0x1
 9896 020d 12       		.uleb128 0x12
 9897 020e 06       		.uleb128 0x6
 9898 020f 40       		.uleb128 0x40
 9899 0210 18       		.uleb128 0x18
 9900 0211 9742     		.uleb128 0x2117
 9901 0213 19       		.uleb128 0x19
 9902 0214 01       		.uleb128 0x1
 9903 0215 13       		.uleb128 0x13
 9904 0216 00       		.byte	0
 9905 0217 00       		.byte	0
 9906 0218 23       		.uleb128 0x23
 9907 0219 2E       		.uleb128 0x2e
 9908 021a 01       		.byte	0x1
 9909 021b 3F       		.uleb128 0x3f
 9910 021c 19       		.uleb128 0x19
 9911 021d 03       		.uleb128 0x3
 9912 021e 0E       		.uleb128 0xe
 9913 021f 3A       		.uleb128 0x3a
ARM GAS  C:\Users\KJA\AppData\Local\Temp\ccevgiJT.s 			page 202


 9914 0220 0B       		.uleb128 0xb
 9915 0221 3B       		.uleb128 0x3b
 9916 0222 05       		.uleb128 0x5
 9917 0223 27       		.uleb128 0x27
 9918 0224 19       		.uleb128 0x19
 9919 0225 11       		.uleb128 0x11
 9920 0226 01       		.uleb128 0x1
 9921 0227 12       		.uleb128 0x12
 9922 0228 06       		.uleb128 0x6
 9923 0229 40       		.uleb128 0x40
 9924 022a 18       		.uleb128 0x18
 9925 022b 9742     		.uleb128 0x2117
 9926 022d 19       		.uleb128 0x19
 9927 022e 01       		.uleb128 0x1
 9928 022f 13       		.uleb128 0x13
 9929 0230 00       		.byte	0
 9930 0231 00       		.byte	0
 9931 0232 24       		.uleb128 0x24
 9932 0233 2E       		.uleb128 0x2e
 9933 0234 01       		.byte	0x1
 9934 0235 3F       		.uleb128 0x3f
 9935 0236 19       		.uleb128 0x19
 9936 0237 03       		.uleb128 0x3
 9937 0238 0E       		.uleb128 0xe
 9938 0239 3A       		.uleb128 0x3a
 9939 023a 0B       		.uleb128 0xb
 9940 023b 3B       		.uleb128 0x3b
 9941 023c 05       		.uleb128 0x5
 9942 023d 27       		.uleb128 0x27
 9943 023e 19       		.uleb128 0x19
 9944 023f 49       		.uleb128 0x49
 9945 0240 13       		.uleb128 0x13
 9946 0241 11       		.uleb128 0x11
 9947 0242 01       		.uleb128 0x1
 9948 0243 12       		.uleb128 0x12
 9949 0244 06       		.uleb128 0x6
 9950 0245 40       		.uleb128 0x40
 9951 0246 18       		.uleb128 0x18
 9952 0247 9642     		.uleb128 0x2116
 9953 0249 19       		.uleb128 0x19
 9954 024a 00       		.byte	0
 9955 024b 00       		.byte	0
 9956 024c 00       		.byte	0
 9957              		.section	.debug_aranges,"",%progbits
 9958 0000 A4020000 		.4byte	0x2a4
 9959 0004 0200     		.2byte	0x2
 9960 0006 00000000 		.4byte	.Ldebug_info0
 9961 000a 04       		.byte	0x4
 9962 000b 00       		.byte	0
 9963 000c 0000     		.2byte	0
 9964 000e 0000     		.2byte	0
 9965 0010 00000000 		.4byte	.LFB0
 9966 0014 24000000 		.4byte	.LFE0-.LFB0
 9967 0018 00000000 		.4byte	.LFB1
 9968 001c 40000000 		.4byte	.LFE1-.LFB1
 9969 0020 00000000 		.4byte	.LFB2
 9970 0024 1A000000 		.4byte	.LFE2-.LFB2
ARM GAS  C:\Users\KJA\AppData\Local\Temp\ccevgiJT.s 			page 203


 9971 0028 00000000 		.4byte	.LFB3
 9972 002c 32000000 		.4byte	.LFE3-.LFB3
 9973 0030 00000000 		.4byte	.LFB4
 9974 0034 1A000000 		.4byte	.LFE4-.LFB4
 9975 0038 00000000 		.4byte	.LFB5
 9976 003c 1A000000 		.4byte	.LFE5-.LFB5
 9977 0040 00000000 		.4byte	.LFB6
 9978 0044 1E000000 		.4byte	.LFE6-.LFB6
 9979 0048 00000000 		.4byte	.LFB7
 9980 004c 1E000000 		.4byte	.LFE7-.LFB7
 9981 0050 00000000 		.4byte	.LFB8
 9982 0054 1A000000 		.4byte	.LFE8-.LFB8
 9983 0058 00000000 		.4byte	.LFB9
 9984 005c 1A000000 		.4byte	.LFE9-.LFB9
 9985 0060 00000000 		.4byte	.LFB10
 9986 0064 1A000000 		.4byte	.LFE10-.LFB10
 9987 0068 00000000 		.4byte	.LFB11
 9988 006c 1A000000 		.4byte	.LFE11-.LFB11
 9989 0070 00000000 		.4byte	.LFB12
 9990 0074 1A000000 		.4byte	.LFE12-.LFB12
 9991 0078 00000000 		.4byte	.LFB13
 9992 007c 1E000000 		.4byte	.LFE13-.LFB13
 9993 0080 00000000 		.4byte	.LFB14
 9994 0084 1E000000 		.4byte	.LFE14-.LFB14
 9995 0088 00000000 		.4byte	.LFB15
 9996 008c 1E000000 		.4byte	.LFE15-.LFB15
 9997 0090 00000000 		.4byte	.LFB16
 9998 0094 1E000000 		.4byte	.LFE16-.LFB16
 9999 0098 00000000 		.4byte	.LFB17
 10000 009c 1E000000 		.4byte	.LFE17-.LFB17
 10001 00a0 00000000 		.4byte	.LFB18
 10002 00a4 20000000 		.4byte	.LFE18-.LFB18
 10003 00a8 00000000 		.4byte	.LFB19
 10004 00ac 98000000 		.4byte	.LFE19-.LFB19
 10005 00b0 00000000 		.4byte	.LFB20
 10006 00b4 1C000000 		.4byte	.LFE20-.LFB20
 10007 00b8 00000000 		.4byte	.LFB21
 10008 00bc 1C000000 		.4byte	.LFE21-.LFB21
 10009 00c0 00000000 		.4byte	.LFB22
 10010 00c4 1C000000 		.4byte	.LFE22-.LFB22
 10011 00c8 00000000 		.4byte	.LFB23
 10012 00cc 1C000000 		.4byte	.LFE23-.LFB23
 10013 00d0 00000000 		.4byte	.LFB24
 10014 00d4 1C000000 		.4byte	.LFE24-.LFB24
 10015 00d8 00000000 		.4byte	.LFB25
 10016 00dc BE000000 		.4byte	.LFE25-.LFB25
 10017 00e0 00000000 		.4byte	.LFB26
 10018 00e4 32000000 		.4byte	.LFE26-.LFB26
 10019 00e8 00000000 		.4byte	.LFB27
 10020 00ec 2E010000 		.4byte	.LFE27-.LFB27
 10021 00f0 00000000 		.4byte	.LFB28
 10022 00f4 2A000000 		.4byte	.LFE28-.LFB28
 10023 00f8 00000000 		.4byte	.LFB29
 10024 00fc 2E000000 		.4byte	.LFE29-.LFB29
 10025 0100 00000000 		.4byte	.LFB30
 10026 0104 0E010000 		.4byte	.LFE30-.LFB30
 10027 0108 00000000 		.4byte	.LFB31
ARM GAS  C:\Users\KJA\AppData\Local\Temp\ccevgiJT.s 			page 204


 10028 010c 42000000 		.4byte	.LFE31-.LFB31
 10029 0110 00000000 		.4byte	.LFB32
 10030 0114 04010000 		.4byte	.LFE32-.LFB32
 10031 0118 00000000 		.4byte	.LFB33
 10032 011c 42000000 		.4byte	.LFE33-.LFB33
 10033 0120 00000000 		.4byte	.LFB34
 10034 0124 0E010000 		.4byte	.LFE34-.LFB34
 10035 0128 00000000 		.4byte	.LFB35
 10036 012c 42000000 		.4byte	.LFE35-.LFB35
 10037 0130 00000000 		.4byte	.LFB36
 10038 0134 18010000 		.4byte	.LFE36-.LFB36
 10039 0138 00000000 		.4byte	.LFB37
 10040 013c 42000000 		.4byte	.LFE37-.LFB37
 10041 0140 00000000 		.4byte	.LFB38
 10042 0144 64000000 		.4byte	.LFE38-.LFB38
 10043 0148 00000000 		.4byte	.LFB39
 10044 014c 64000000 		.4byte	.LFE39-.LFB39
 10045 0150 00000000 		.4byte	.LFB40
 10046 0154 64000000 		.4byte	.LFE40-.LFB40
 10047 0158 00000000 		.4byte	.LFB41
 10048 015c 64000000 		.4byte	.LFE41-.LFB41
 10049 0160 00000000 		.4byte	.LFB42
 10050 0164 92000000 		.4byte	.LFE42-.LFB42
 10051 0168 00000000 		.4byte	.LFB43
 10052 016c 68000000 		.4byte	.LFE43-.LFB43
 10053 0170 00000000 		.4byte	.LFB44
 10054 0174 68000000 		.4byte	.LFE44-.LFB44
 10055 0178 00000000 		.4byte	.LFB45
 10056 017c 68000000 		.4byte	.LFE45-.LFB45
 10057 0180 00000000 		.4byte	.LFB46
 10058 0184 68000000 		.4byte	.LFE46-.LFB46
 10059 0188 00000000 		.4byte	.LFB47
 10060 018c 56000000 		.4byte	.LFE47-.LFB47
 10061 0190 00000000 		.4byte	.LFB48
 10062 0194 52000000 		.4byte	.LFE48-.LFB48
 10063 0198 00000000 		.4byte	.LFB49
 10064 019c F2000000 		.4byte	.LFE49-.LFB49
 10065 01a0 00000000 		.4byte	.LFB50
 10066 01a4 1C000000 		.4byte	.LFE50-.LFB50
 10067 01a8 00000000 		.4byte	.LFB51
 10068 01ac 1C000000 		.4byte	.LFE51-.LFB51
 10069 01b0 00000000 		.4byte	.LFB52
 10070 01b4 1C000000 		.4byte	.LFE52-.LFB52
 10071 01b8 00000000 		.4byte	.LFB53
 10072 01bc 20000000 		.4byte	.LFE53-.LFB53
 10073 01c0 00000000 		.4byte	.LFB54
 10074 01c4 16000000 		.4byte	.LFE54-.LFB54
 10075 01c8 00000000 		.4byte	.LFB55
 10076 01cc 1C000000 		.4byte	.LFE55-.LFB55
 10077 01d0 00000000 		.4byte	.LFB56
 10078 01d4 1C000000 		.4byte	.LFE56-.LFB56
 10079 01d8 00000000 		.4byte	.LFB57
 10080 01dc 1C000000 		.4byte	.LFE57-.LFB57
 10081 01e0 00000000 		.4byte	.LFB58
 10082 01e4 24000000 		.4byte	.LFE58-.LFB58
 10083 01e8 00000000 		.4byte	.LFB59
 10084 01ec 1C000000 		.4byte	.LFE59-.LFB59
ARM GAS  C:\Users\KJA\AppData\Local\Temp\ccevgiJT.s 			page 205


 10085 01f0 00000000 		.4byte	.LFB60
 10086 01f4 4A000000 		.4byte	.LFE60-.LFB60
 10087 01f8 00000000 		.4byte	.LFB61
 10088 01fc 1C000000 		.4byte	.LFE61-.LFB61
 10089 0200 00000000 		.4byte	.LFB62
 10090 0204 18000000 		.4byte	.LFE62-.LFB62
 10091 0208 00000000 		.4byte	.LFB63
 10092 020c 18000000 		.4byte	.LFE63-.LFB63
 10093 0210 00000000 		.4byte	.LFB64
 10094 0214 A4000000 		.4byte	.LFE64-.LFB64
 10095 0218 00000000 		.4byte	.LFB65
 10096 021c 24000000 		.4byte	.LFE65-.LFB65
 10097 0220 00000000 		.4byte	.LFB66
 10098 0224 24000000 		.4byte	.LFE66-.LFB66
 10099 0228 00000000 		.4byte	.LFB67
 10100 022c 24000000 		.4byte	.LFE67-.LFB67
 10101 0230 00000000 		.4byte	.LFB68
 10102 0234 24000000 		.4byte	.LFE68-.LFB68
 10103 0238 00000000 		.4byte	.LFB69
 10104 023c 44000000 		.4byte	.LFE69-.LFB69
 10105 0240 00000000 		.4byte	.LFB70
 10106 0244 44000000 		.4byte	.LFE70-.LFB70
 10107 0248 00000000 		.4byte	.LFB71
 10108 024c 00010000 		.4byte	.LFE71-.LFB71
 10109 0250 00000000 		.4byte	.LFB72
 10110 0254 1C000000 		.4byte	.LFE72-.LFB72
 10111 0258 00000000 		.4byte	.LFB73
 10112 025c 16000000 		.4byte	.LFE73-.LFB73
 10113 0260 00000000 		.4byte	.LFB74
 10114 0264 16000000 		.4byte	.LFE74-.LFB74
 10115 0268 00000000 		.4byte	.LFB75
 10116 026c 68000000 		.4byte	.LFE75-.LFB75
 10117 0270 00000000 		.4byte	.LFB76
 10118 0274 52000000 		.4byte	.LFE76-.LFB76
 10119 0278 00000000 		.4byte	.LFB77
 10120 027c 6E000000 		.4byte	.LFE77-.LFB77
 10121 0280 00000000 		.4byte	.LFB78
 10122 0284 2C000000 		.4byte	.LFE78-.LFB78
 10123 0288 00000000 		.4byte	.LFB79
 10124 028c 0E010000 		.4byte	.LFE79-.LFB79
 10125 0290 00000000 		.4byte	.LFB80
 10126 0294 42000000 		.4byte	.LFE80-.LFB80
 10127 0298 00000000 		.4byte	.LFB81
 10128 029c 78000000 		.4byte	.LFE81-.LFB81
 10129 02a0 00000000 		.4byte	0
 10130 02a4 00000000 		.4byte	0
 10131              		.section	.debug_ranges,"",%progbits
 10132              	.Ldebug_ranges0:
 10133 0000 00000000 		.4byte	.LFB0
 10134 0004 24000000 		.4byte	.LFE0
 10135 0008 00000000 		.4byte	.LFB1
 10136 000c 40000000 		.4byte	.LFE1
 10137 0010 00000000 		.4byte	.LFB2
 10138 0014 1A000000 		.4byte	.LFE2
 10139 0018 00000000 		.4byte	.LFB3
 10140 001c 32000000 		.4byte	.LFE3
 10141 0020 00000000 		.4byte	.LFB4
ARM GAS  C:\Users\KJA\AppData\Local\Temp\ccevgiJT.s 			page 206


 10142 0024 1A000000 		.4byte	.LFE4
 10143 0028 00000000 		.4byte	.LFB5
 10144 002c 1A000000 		.4byte	.LFE5
 10145 0030 00000000 		.4byte	.LFB6
 10146 0034 1E000000 		.4byte	.LFE6
 10147 0038 00000000 		.4byte	.LFB7
 10148 003c 1E000000 		.4byte	.LFE7
 10149 0040 00000000 		.4byte	.LFB8
 10150 0044 1A000000 		.4byte	.LFE8
 10151 0048 00000000 		.4byte	.LFB9
 10152 004c 1A000000 		.4byte	.LFE9
 10153 0050 00000000 		.4byte	.LFB10
 10154 0054 1A000000 		.4byte	.LFE10
 10155 0058 00000000 		.4byte	.LFB11
 10156 005c 1A000000 		.4byte	.LFE11
 10157 0060 00000000 		.4byte	.LFB12
 10158 0064 1A000000 		.4byte	.LFE12
 10159 0068 00000000 		.4byte	.LFB13
 10160 006c 1E000000 		.4byte	.LFE13
 10161 0070 00000000 		.4byte	.LFB14
 10162 0074 1E000000 		.4byte	.LFE14
 10163 0078 00000000 		.4byte	.LFB15
 10164 007c 1E000000 		.4byte	.LFE15
 10165 0080 00000000 		.4byte	.LFB16
 10166 0084 1E000000 		.4byte	.LFE16
 10167 0088 00000000 		.4byte	.LFB17
 10168 008c 1E000000 		.4byte	.LFE17
 10169 0090 00000000 		.4byte	.LFB18
 10170 0094 20000000 		.4byte	.LFE18
 10171 0098 00000000 		.4byte	.LFB19
 10172 009c 98000000 		.4byte	.LFE19
 10173 00a0 00000000 		.4byte	.LFB20
 10174 00a4 1C000000 		.4byte	.LFE20
 10175 00a8 00000000 		.4byte	.LFB21
 10176 00ac 1C000000 		.4byte	.LFE21
 10177 00b0 00000000 		.4byte	.LFB22
 10178 00b4 1C000000 		.4byte	.LFE22
 10179 00b8 00000000 		.4byte	.LFB23
 10180 00bc 1C000000 		.4byte	.LFE23
 10181 00c0 00000000 		.4byte	.LFB24
 10182 00c4 1C000000 		.4byte	.LFE24
 10183 00c8 00000000 		.4byte	.LFB25
 10184 00cc BE000000 		.4byte	.LFE25
 10185 00d0 00000000 		.4byte	.LFB26
 10186 00d4 32000000 		.4byte	.LFE26
 10187 00d8 00000000 		.4byte	.LFB27
 10188 00dc 2E010000 		.4byte	.LFE27
 10189 00e0 00000000 		.4byte	.LFB28
 10190 00e4 2A000000 		.4byte	.LFE28
 10191 00e8 00000000 		.4byte	.LFB29
 10192 00ec 2E000000 		.4byte	.LFE29
 10193 00f0 00000000 		.4byte	.LFB30
 10194 00f4 0E010000 		.4byte	.LFE30
 10195 00f8 00000000 		.4byte	.LFB31
 10196 00fc 42000000 		.4byte	.LFE31
 10197 0100 00000000 		.4byte	.LFB32
 10198 0104 04010000 		.4byte	.LFE32
ARM GAS  C:\Users\KJA\AppData\Local\Temp\ccevgiJT.s 			page 207


 10199 0108 00000000 		.4byte	.LFB33
 10200 010c 42000000 		.4byte	.LFE33
 10201 0110 00000000 		.4byte	.LFB34
 10202 0114 0E010000 		.4byte	.LFE34
 10203 0118 00000000 		.4byte	.LFB35
 10204 011c 42000000 		.4byte	.LFE35
 10205 0120 00000000 		.4byte	.LFB36
 10206 0124 18010000 		.4byte	.LFE36
 10207 0128 00000000 		.4byte	.LFB37
 10208 012c 42000000 		.4byte	.LFE37
 10209 0130 00000000 		.4byte	.LFB38
 10210 0134 64000000 		.4byte	.LFE38
 10211 0138 00000000 		.4byte	.LFB39
 10212 013c 64000000 		.4byte	.LFE39
 10213 0140 00000000 		.4byte	.LFB40
 10214 0144 64000000 		.4byte	.LFE40
 10215 0148 00000000 		.4byte	.LFB41
 10216 014c 64000000 		.4byte	.LFE41
 10217 0150 00000000 		.4byte	.LFB42
 10218 0154 92000000 		.4byte	.LFE42
 10219 0158 00000000 		.4byte	.LFB43
 10220 015c 68000000 		.4byte	.LFE43
 10221 0160 00000000 		.4byte	.LFB44
 10222 0164 68000000 		.4byte	.LFE44
 10223 0168 00000000 		.4byte	.LFB45
 10224 016c 68000000 		.4byte	.LFE45
 10225 0170 00000000 		.4byte	.LFB46
 10226 0174 68000000 		.4byte	.LFE46
 10227 0178 00000000 		.4byte	.LFB47
 10228 017c 56000000 		.4byte	.LFE47
 10229 0180 00000000 		.4byte	.LFB48
 10230 0184 52000000 		.4byte	.LFE48
 10231 0188 00000000 		.4byte	.LFB49
 10232 018c F2000000 		.4byte	.LFE49
 10233 0190 00000000 		.4byte	.LFB50
 10234 0194 1C000000 		.4byte	.LFE50
 10235 0198 00000000 		.4byte	.LFB51
 10236 019c 1C000000 		.4byte	.LFE51
 10237 01a0 00000000 		.4byte	.LFB52
 10238 01a4 1C000000 		.4byte	.LFE52
 10239 01a8 00000000 		.4byte	.LFB53
 10240 01ac 20000000 		.4byte	.LFE53
 10241 01b0 00000000 		.4byte	.LFB54
 10242 01b4 16000000 		.4byte	.LFE54
 10243 01b8 00000000 		.4byte	.LFB55
 10244 01bc 1C000000 		.4byte	.LFE55
 10245 01c0 00000000 		.4byte	.LFB56
 10246 01c4 1C000000 		.4byte	.LFE56
 10247 01c8 00000000 		.4byte	.LFB57
 10248 01cc 1C000000 		.4byte	.LFE57
 10249 01d0 00000000 		.4byte	.LFB58
 10250 01d4 24000000 		.4byte	.LFE58
 10251 01d8 00000000 		.4byte	.LFB59
 10252 01dc 1C000000 		.4byte	.LFE59
 10253 01e0 00000000 		.4byte	.LFB60
 10254 01e4 4A000000 		.4byte	.LFE60
 10255 01e8 00000000 		.4byte	.LFB61
ARM GAS  C:\Users\KJA\AppData\Local\Temp\ccevgiJT.s 			page 208


 10256 01ec 1C000000 		.4byte	.LFE61
 10257 01f0 00000000 		.4byte	.LFB62
 10258 01f4 18000000 		.4byte	.LFE62
 10259 01f8 00000000 		.4byte	.LFB63
 10260 01fc 18000000 		.4byte	.LFE63
 10261 0200 00000000 		.4byte	.LFB64
 10262 0204 A4000000 		.4byte	.LFE64
 10263 0208 00000000 		.4byte	.LFB65
 10264 020c 24000000 		.4byte	.LFE65
 10265 0210 00000000 		.4byte	.LFB66
 10266 0214 24000000 		.4byte	.LFE66
 10267 0218 00000000 		.4byte	.LFB67
 10268 021c 24000000 		.4byte	.LFE67
 10269 0220 00000000 		.4byte	.LFB68
 10270 0224 24000000 		.4byte	.LFE68
 10271 0228 00000000 		.4byte	.LFB69
 10272 022c 44000000 		.4byte	.LFE69
 10273 0230 00000000 		.4byte	.LFB70
 10274 0234 44000000 		.4byte	.LFE70
 10275 0238 00000000 		.4byte	.LFB71
 10276 023c 00010000 		.4byte	.LFE71
 10277 0240 00000000 		.4byte	.LFB72
 10278 0244 1C000000 		.4byte	.LFE72
 10279 0248 00000000 		.4byte	.LFB73
 10280 024c 16000000 		.4byte	.LFE73
 10281 0250 00000000 		.4byte	.LFB74
 10282 0254 16000000 		.4byte	.LFE74
 10283 0258 00000000 		.4byte	.LFB75
 10284 025c 68000000 		.4byte	.LFE75
 10285 0260 00000000 		.4byte	.LFB76
 10286 0264 52000000 		.4byte	.LFE76
 10287 0268 00000000 		.4byte	.LFB77
 10288 026c 6E000000 		.4byte	.LFE77
 10289 0270 00000000 		.4byte	.LFB78
 10290 0274 2C000000 		.4byte	.LFE78
 10291 0278 00000000 		.4byte	.LFB79
 10292 027c 0E010000 		.4byte	.LFE79
 10293 0280 00000000 		.4byte	.LFB80
 10294 0284 42000000 		.4byte	.LFE80
 10295 0288 00000000 		.4byte	.LFB81
 10296 028c 78000000 		.4byte	.LFE81
 10297 0290 00000000 		.4byte	0
 10298 0294 00000000 		.4byte	0
 10299              		.section	.debug_line,"",%progbits
 10300              	.Ldebug_line0:
 10301 0000 150A0000 		.section	.debug_str,"MS",%progbits,1
 10301      0200BB01 
 10301      00000201 
 10301      FB0E0D00 
 10301      01010101 
 10302              	.LASF93:
 10303 0000 7538675F 		.ascii	"u8g_font_GetSize\000"
 10303      666F6E74 
 10303      5F476574 
 10303      53697A65 
 10303      00
 10304              	.LASF35:
ARM GAS  C:\Users\KJA\AppData\Local\Temp\ccevgiJT.s 			page 209


 10305 0011 666F6E74 		.ascii	"font_calc_vref\000"
 10305      5F63616C 
 10305      635F7672 
 10305      656600
 10306              	.LASF51:
 10307 0020 5F753867 		.ascii	"_u8g_dev_arg_pixel_t\000"
 10307      5F646576 
 10307      5F617267 
 10307      5F706978 
 10307      656C5F74 
 10308              	.LASF107:
 10309 0035 7538675F 		.ascii	"u8g_IsGlyph\000"
 10309      4973476C 
 10309      79706800 
 10310              	.LASF1:
 10311 0041 73697A65 		.ascii	"size_t\000"
 10311      5F7400
 10312              	.LASF4:
 10313 0048 5F5F7569 		.ascii	"__uint8_t\000"
 10313      6E74385F 
 10313      7400
 10314              	.LASF42:
 10315 0052 73746174 		.ascii	"state_cb\000"
 10315      655F6362 
 10315      00
 10316              	.LASF165:
 10317 005b 7538675F 		.ascii	"u8g_DrawAAStr\000"
 10317      44726177 
 10317      41415374 
 10317      7200
 10318              	.LASF145:
 10319 0069 7538675F 		.ascii	"u8g_font_get_charP\000"
 10319      666F6E74 
 10319      5F676574 
 10319      5F636861 
 10319      725000
 10320              	.LASF137:
 10321 007c 7538675F 		.ascii	"u8g_SetFontPosBaseline\000"
 10321      53657446 
 10321      6F6E7450 
 10321      6F734261 
 10321      73656C69 
 10322              	.LASF12:
 10323 0093 6C6F6E67 		.ascii	"long long unsigned int\000"
 10323      206C6F6E 
 10323      6720756E 
 10323      7369676E 
 10323      65642069 
 10324              	.LASF160:
 10325 00aa 7538675F 		.ascii	"u8g_GetStrAMinBox\000"
 10325      47657453 
 10325      7472414D 
 10325      696E426F 
 10325      7800
 10326              	.LASF52:
 10327 00bc 70697865 		.ascii	"pixel\000"
 10327      6C00
ARM GAS  C:\Users\KJA\AppData\Local\Temp\ccevgiJT.s 			page 210


 10328              	.LASF111:
 10329 00c2 64617461 		.ascii	"data\000"
 10329      00
 10330              	.LASF117:
 10331 00c7 7538675F 		.ascii	"u8g_draw_glyph270\000"
 10331      64726177 
 10331      5F676C79 
 10331      70683237 
 10331      3000
 10332              	.LASF132:
 10333 00d9 7538675F 		.ascii	"u8g_SetFontRefHeightExtendedText\000"
 10333      53657446 
 10333      6F6E7452 
 10333      65664865 
 10333      69676874 
 10334              	.LASF2:
 10335 00fa 5F5F696E 		.ascii	"__int8_t\000"
 10335      74385F74 
 10335      00
 10336              	.LASF118:
 10337 0103 7538675F 		.ascii	"u8g_DrawGlyph270\000"
 10337      44726177 
 10337      476C7970 
 10337      68323730 
 10337      00
 10338              	.LASF124:
 10339 0114 7538675F 		.ascii	"u8g_DrawStrP\000"
 10339      44726177 
 10339      53747250 
 10339      00
 10340              	.LASF143:
 10341 0121 7538675F 		.ascii	"u8g_SetFontPosCenter\000"
 10341      53657446 
 10341      6F6E7450 
 10341      6F734365 
 10341      6E746572 
 10342              	.LASF108:
 10343 0136 7538675F 		.ascii	"u8g_GetGlyphDeltaX\000"
 10343      47657447 
 10343      6C797068 
 10343      44656C74 
 10343      615800
 10344              	.LASF11:
 10345 0149 6C6F6E67 		.ascii	"long long int\000"
 10345      206C6F6E 
 10345      6720696E 
 10345      7400
 10346              	.LASF3:
 10347 0157 7369676E 		.ascii	"signed char\000"
 10347      65642063 
 10347      68617200 
 10348              	.LASF167:
 10349 0163 7538676C 		.ascii	"u8glib_arm_v1.18.1\\src\\u8g_font.c\000"
 10349      69625F61 
 10349      726D5F76 
 10349      312E3138 
 10349      2E315C73 
ARM GAS  C:\Users\KJA\AppData\Local\Temp\ccevgiJT.s 			page 211


 10350              	.LASF103:
 10351 0185 7538675F 		.ascii	"u8g_CopyGlyphDataToCache\000"
 10351      436F7079 
 10351      476C7970 
 10351      68446174 
 10351      61546F43 
 10352              	.LASF25:
 10353 019e 63757273 		.ascii	"cursor_encoding\000"
 10353      6F725F65 
 10353      6E636F64 
 10353      696E6700 
 10354              	.LASF126:
 10355 01ae 7538675F 		.ascii	"u8g_DrawStr180P\000"
 10355      44726177 
 10355      53747231 
 10355      38305000 
 10356              	.LASF67:
 10357 01be 7538675F 		.ascii	"u8g_font_get_char_fn\000"
 10357      666F6E74 
 10357      5F676574 
 10357      5F636861 
 10357      725F666E 
 10358              	.LASF162:
 10359 01d3 7538675F 		.ascii	"u8g_SetFont\000"
 10359      53657446 
 10359      6F6E7400 
 10360              	.LASF29:
 10361 01df 63757273 		.ascii	"cursor_fn\000"
 10361      6F725F66 
 10361      6E00
 10362              	.LASF9:
 10363 01e9 6C6F6E67 		.ascii	"long int\000"
 10363      20696E74 
 10363      00
 10364              	.LASF155:
 10365 01f2 7538675F 		.ascii	"u8g_font_box_min\000"
 10365      666F6E74 
 10365      5F626F78 
 10365      5F6D696E 
 10365      00
 10366              	.LASF66:
 10367 0203 7538675F 		.ascii	"u8g_glyph_t\000"
 10367      676C7970 
 10367      685F7400 
 10368              	.LASF62:
 10369 020f 7538675F 		.ascii	"u8g_draw_cursor_fn\000"
 10369      64726177 
 10369      5F637572 
 10369      736F725F 
 10369      666E00
 10370              	.LASF104:
 10371 0222 7538675F 		.ascii	"u8g_FillEmptyGlyphCache\000"
 10371      46696C6C 
 10371      456D7074 
 10371      79476C79 
 10371      70684361 
 10372              	.LASF45:
ARM GAS  C:\Users\KJA\AppData\Local\Temp\ccevgiJT.s 			page 212


 10373 023a 5F753867 		.ascii	"_u8g_t\000"
 10373      5F7400
 10374              	.LASF159:
 10375 0241 7538675F 		.ascii	"u8g_GetStrMinBox\000"
 10375      47657453 
 10375      74724D69 
 10375      6E426F78 
 10375      00
 10376              	.LASF44:
 10377 0252 7538675F 		.ascii	"u8g_dev_t\000"
 10377      6465765F 
 10377      7400
 10378              	.LASF18:
 10379 025c 7538675F 		.ascii	"u8g_t\000"
 10379      7400
 10380              	.LASF15:
 10381 0262 75696E74 		.ascii	"uint16_t\000"
 10381      31365F74 
 10381      00
 10382              	.LASF58:
 10383 026b 7538675F 		.ascii	"u8g_uint_t\000"
 10383      75696E74 
 10383      5F7400
 10384              	.LASF24:
 10385 0276 63757273 		.ascii	"cursor_bg_color\000"
 10385      6F725F62 
 10385      675F636F 
 10385      6C6F7200 
 10386              	.LASF41:
 10387 0286 6172675F 		.ascii	"arg_pixel\000"
 10387      70697865 
 10387      6C00
 10388              	.LASF113:
 10389 0290 7538675F 		.ascii	"u8g_draw_glyph90\000"
 10389      64726177 
 10389      5F676C79 
 10389      70683930 
 10389      00
 10390              	.LASF38:
 10391 02a1 666F6E74 		.ascii	"font_ref_descent\000"
 10391      5F726566 
 10391      5F646573 
 10391      63656E74 
 10391      00
 10392              	.LASF150:
 10393 02b2 7538675F 		.ascii	"u8g_GetStrX\000"
 10393      47657453 
 10393      74725800 
 10394              	.LASF63:
 10395 02be 7538675F 		.ascii	"u8g_font_calc_vref_fnptr\000"
 10395      666F6E74 
 10395      5F63616C 
 10395      635F7672 
 10395      65665F66 
 10396              	.LASF78:
 10397 02d7 7538675F 		.ascii	"u8g_font_GetBBXWidth\000"
 10397      666F6E74 
ARM GAS  C:\Users\KJA\AppData\Local\Temp\ccevgiJT.s 			page 213


 10397      5F476574 
 10397      42425857 
 10397      69647468 
 10398              	.LASF98:
 10399 02ec 7538675F 		.ascii	"u8g_GetFontBBXWidth\000"
 10399      47657446 
 10399      6F6E7442 
 10399      42585769 
 10399      64746800 
 10400              	.LASF97:
 10401 0300 6D61736B 		.ascii	"mask\000"
 10401      00
 10402              	.LASF17:
 10403 0305 7538675F 		.ascii	"u8g_fntpgm_uint8_t\000"
 10403      666E7470 
 10403      676D5F75 
 10403      696E7438 
 10403      5F7400
 10404              	.LASF37:
 10405 0318 666F6E74 		.ascii	"font_ref_ascent\000"
 10405      5F726566 
 10405      5F617363 
 10405      656E7400 
 10406              	.LASF147:
 10407 0328 6765745F 		.ascii	"get_char\000"
 10407      63686172 
 10407      00
 10408              	.LASF157:
 10409 0331 7538675F 		.ascii	"u8g_font_box_all_gA\000"
 10409      666F6E74 
 10409      5F626F78 
 10409      5F616C6C 
 10409      5F674100 
 10410              	.LASF0:
 10411 0345 756E7369 		.ascii	"unsigned int\000"
 10411      676E6564 
 10411      20696E74 
 10411      00
 10412              	.LASF23:
 10413 0352 63757273 		.ascii	"cursor_fg_color\000"
 10413      6F725F66 
 10413      675F636F 
 10413      6C6F7200 
 10414              	.LASF125:
 10415 0362 7538675F 		.ascii	"u8g_DrawStr90P\000"
 10415      44726177 
 10415      53747239 
 10415      305000
 10416              	.LASF100:
 10417 0371 7538675F 		.ascii	"u8g_GetFontBBXOffX\000"
 10417      47657446 
 10417      6F6E7442 
 10417      42584F66 
 10417      665800
 10418              	.LASF101:
 10419 0384 7538675F 		.ascii	"u8g_GetFontBBXOffY\000"
 10419      47657446 
ARM GAS  C:\Users\KJA\AppData\Local\Temp\ccevgiJT.s 			page 214


 10419      6F6E7442 
 10419      42584F66 
 10419      665900
 10420              	.LASF10:
 10421 0397 6C6F6E67 		.ascii	"long unsigned int\000"
 10421      20756E73 
 10421      69676E65 
 10421      6420696E 
 10421      7400
 10422              	.LASF86:
 10423 03a9 7538675F 		.ascii	"u8g_font_GetFontEndEncoding\000"
 10423      666F6E74 
 10423      5F476574 
 10423      466F6E74 
 10423      456E6445 
 10424              	.LASF127:
 10425 03c5 7538675F 		.ascii	"u8g_DrawStr270P\000"
 10425      44726177 
 10425      53747232 
 10425      37305000 
 10426              	.LASF19:
 10427 03d5 77696474 		.ascii	"width\000"
 10427      6800
 10428              	.LASF88:
 10429 03db 7538675F 		.ascii	"u8g_font_GetFontAscent\000"
 10429      666F6E74 
 10429      5F476574 
 10429      466F6E74 
 10429      41736365 
 10430              	.LASF102:
 10431 03f2 7538675F 		.ascii	"u8g_GetFontCapitalAHeight\000"
 10431      47657446 
 10431      6F6E7443 
 10431      61706974 
 10431      616C4148 
 10432              	.LASF168:
 10433 040c 443A5C57 		.ascii	"D:\\Workspace\\PSoC_Creator\\Active_Load\\Active_Lo"
 10433      6F726B73 
 10433      70616365 
 10433      5C50536F 
 10433      435F4372 
 10434 043b 61645F76 		.ascii	"ad_v9.cydsn\000"
 10434      392E6379 
 10434      64736E00 
 10435              	.LASF106:
 10436 0447 72657175 		.ascii	"requested_encoding\000"
 10436      65737465 
 10436      645F656E 
 10436      636F6469 
 10436      6E6700
 10437              	.LASF151:
 10438 045a 7538675F 		.ascii	"u8g_GetStrXP\000"
 10438      47657453 
 10438      74725850 
 10438      00
 10439              	.LASF56:
 10440 0467 7538675F 		.ascii	"u8g_box_t\000"
ARM GAS  C:\Users\KJA\AppData\Local\Temp\ccevgiJT.s 			page 215


 10440      626F785F 
 10440      7400
 10441              	.LASF161:
 10442 0471 6361705F 		.ascii	"cap_a\000"
 10442      6100
 10443              	.LASF131:
 10444 0477 7538675F 		.ascii	"u8g_SetFontRefHeightText\000"
 10444      53657446 
 10444      6F6E7452 
 10444      65664865 
 10444      69676874 
 10445              	.LASF40:
 10446 0490 6C696E65 		.ascii	"line_spacing\000"
 10446      5F737061 
 10446      63696E67 
 10446      00
 10447              	.LASF87:
 10448 049d 7538675F 		.ascii	"u8g_font_GetLowerGDescent\000"
 10448      666F6E74 
 10448      5F476574 
 10448      4C6F7765 
 10448      72474465 
 10449              	.LASF80:
 10450 04b7 7538675F 		.ascii	"u8g_font_GetBBXOffX\000"
 10450      666F6E74 
 10450      5F476574 
 10450      4242584F 
 10450      66665800 
 10451              	.LASF81:
 10452 04cb 7538675F 		.ascii	"u8g_font_GetBBXOffY\000"
 10452      666F6E74 
 10452      5F476574 
 10452      4242584F 
 10452      66665900 
 10453              	.LASF92:
 10454 04df 7538675F 		.ascii	"u8g_font_GetGlyphDataStart\000"
 10454      666F6E74 
 10454      5F476574 
 10454      476C7970 
 10454      68446174 
 10455              	.LASF91:
 10456 04fa 7538675F 		.ascii	"u8g_font_GetFontXDescent\000"
 10456      666F6E74 
 10456      5F476574 
 10456      466F6E74 
 10456      58446573 
 10457              	.LASF110:
 10458 0513 656E636F 		.ascii	"encoding\000"
 10458      64696E67 
 10458      00
 10459              	.LASF36:
 10460 051c 666F6E74 		.ascii	"font_height_mode\000"
 10460      5F686569 
 10460      6768745F 
 10460      6D6F6465 
 10460      00
 10461              	.LASF84:
ARM GAS  C:\Users\KJA\AppData\Local\Temp\ccevgiJT.s 			page 216


 10462 052d 7538675F 		.ascii	"u8g_font_GetEncoding97Pos\000"
 10462      666F6E74 
 10462      5F476574 
 10462      456E636F 
 10462      64696E67 
 10463              	.LASF34:
 10464 0547 676C7970 		.ascii	"glyph_height\000"
 10464      685F6865 
 10464      69676874 
 10464      00
 10465              	.LASF65:
 10466 0554 73697A65 		.ascii	"sizetype\000"
 10466      74797065 
 10466      00
 10467              	.LASF74:
 10468 055d 7538675F 		.ascii	"u8g_font_get_byte\000"
 10468      666F6E74 
 10468      5F676574 
 10468      5F627974 
 10468      6500
 10469              	.LASF99:
 10470 056f 7538675F 		.ascii	"u8g_GetFontBBXHeight\000"
 10470      47657446 
 10470      6F6E7442 
 10470      42584865 
 10470      69676874 
 10471              	.LASF95:
 10472 0584 64617461 		.ascii	"data_structure_size\000"
 10472      5F737472 
 10472      75637475 
 10472      72655F73 
 10472      697A6500 
 10473              	.LASF122:
 10474 0598 7538675F 		.ascii	"u8g_DrawStr270\000"
 10474      44726177 
 10474      53747232 
 10474      373000
 10475              	.LASF43:
 10476 05a7 63757272 		.ascii	"current_page\000"
 10476      656E745F 
 10476      70616765 
 10476      00
 10477              	.LASF28:
 10478 05b4 63757273 		.ascii	"cursor_y\000"
 10478      6F725F79 
 10478      00
 10479              	.LASF166:
 10480 05bd 474E5520 		.ascii	"GNU C 4.9.3 20150303 (release) [ARM/embedded-4_9-br"
 10480      4320342E 
 10480      392E3320 
 10480      32303135 
 10480      30333033 
 10481 05f0 616E6368 		.ascii	"anch revision 221220] -mcpu=cortex-m3 -mthumb -g -O"
 10481      20726576 
 10481      6973696F 
 10481      6E203232 
 10481      31323230 
ARM GAS  C:\Users\KJA\AppData\Local\Temp\ccevgiJT.s 			page 217


 10482 0623 30202D66 		.ascii	"0 -ffunction-sections -ffat-lto-objects\000"
 10482      66756E63 
 10482      74696F6E 
 10482      2D736563 
 10482      74696F6E 
 10483              	.LASF152:
 10484 064b 7538675F 		.ascii	"u8g_GetStrWidth\000"
 10484      47657453 
 10484      74725769 
 10484      64746800 
 10485              	.LASF16:
 10486 065b 7538675F 		.ascii	"u8g_pgm_uint8_t\000"
 10486      70676D5F 
 10486      75696E74 
 10486      385F7400 
 10487              	.LASF55:
 10488 066b 626C7565 		.ascii	"blue\000"
 10488      00
 10489              	.LASF82:
 10490 0670 7538675F 		.ascii	"u8g_font_GetCapitalAHeight\000"
 10490      666F6E74 
 10490      5F476574 
 10490      43617069 
 10490      74616C41 
 10491              	.LASF142:
 10492 068b 7538675F 		.ascii	"u8g_font_calc_vref_center\000"
 10492      666F6E74 
 10492      5F63616C 
 10492      635F7672 
 10492      65665F63 
 10493              	.LASF48:
 10494 06a5 6465765F 		.ascii	"dev_mem\000"
 10494      6D656D00 
 10495              	.LASF61:
 10496 06ad 7538675F 		.ascii	"u8g_com_fnptr\000"
 10496      636F6D5F 
 10496      666E7074 
 10496      7200
 10497              	.LASF47:
 10498 06bb 6465765F 		.ascii	"dev_fn\000"
 10498      666E00
 10499              	.LASF72:
 10500 06c2 7538675F 		.ascii	"u8g_str_size_t\000"
 10500      7374725F 
 10500      73697A65 
 10500      5F7400
 10501              	.LASF130:
 10502 06d1 7538675F 		.ascii	"u8g_UpdateRefHeight\000"
 10502      55706461 
 10502      74655265 
 10502      66486569 
 10502      67687400 
 10503              	.LASF50:
 10504 06e5 7538675F 		.ascii	"u8g_dev_arg_pixel_t\000"
 10504      6465765F 
 10504      6172675F 
 10504      70697865 
ARM GAS  C:\Users\KJA\AppData\Local\Temp\ccevgiJT.s 			page 218


 10504      6C5F7400 
 10505              	.LASF146:
 10506 06f9 7538675F 		.ascii	"u8g_font_calc_str_pixel_width\000"
 10506      666F6E74 
 10506      5F63616C 
 10506      635F7374 
 10506      725F7069 
 10507              	.LASF139:
 10508 0717 7538675F 		.ascii	"u8g_SetFontPosBottom\000"
 10508      53657446 
 10508      6F6E7450 
 10508      6F73426F 
 10508      74746F6D 
 10509              	.LASF71:
 10510 072c 795F6D61 		.ascii	"y_max\000"
 10510      7800
 10511              	.LASF5:
 10512 0732 756E7369 		.ascii	"unsigned char\000"
 10512      676E6564 
 10512      20636861 
 10512      7200
 10513              	.LASF30:
 10514 0740 676C7970 		.ascii	"glyph_dx\000"
 10514      685F6478 
 10514      00
 10515              	.LASF134:
 10516 0749 7538675F 		.ascii	"u8g_SetFontLineSpacingFactor\000"
 10516      53657446 
 10516      6F6E744C 
 10516      696E6553 
 10516      70616369 
 10517              	.LASF128:
 10518 0766 7538675F 		.ascii	"u8g_DrawStrFontBBX\000"
 10518      44726177 
 10518      53747246 
 10518      6F6E7442 
 10518      425800
 10519              	.LASF59:
 10520 0779 7538675F 		.ascii	"u8g_int_t\000"
 10520      696E745F 
 10520      7400
 10521              	.LASF6:
 10522 0783 73686F72 		.ascii	"short int\000"
 10522      7420696E 
 10522      7400
 10523              	.LASF70:
 10524 078d 795F6D69 		.ascii	"y_min\000"
 10524      6E00
 10525              	.LASF46:
 10526 0793 5F753867 		.ascii	"_u8g_dev_t\000"
 10526      5F646576 
 10526      5F7400
 10527              	.LASF109:
 10528 079e 7538675F 		.ascii	"u8g_draw_glyph\000"
 10528      64726177 
 10528      5F676C79 
 10528      706800
ARM GAS  C:\Users\KJA\AppData\Local\Temp\ccevgiJT.s 			page 219


 10529              	.LASF105:
 10530 07ad 7538675F 		.ascii	"u8g_GetGlyph\000"
 10530      47657447 
 10530      6C797068 
 10530      00
 10531              	.LASF115:
 10532 07ba 7538675F 		.ascii	"u8g_draw_glyph180\000"
 10532      64726177 
 10532      5F676C79 
 10532      70683138 
 10532      3000
 10533              	.LASF153:
 10534 07cc 7538675F 		.ascii	"u8g_GetStrWidthP\000"
 10534      47657453 
 10534      74725769 
 10534      64746850 
 10534      00
 10535              	.LASF149:
 10536 07dd 7538675F 		.ascii	"u8g_GetStrPixelWidthP\000"
 10536      47657453 
 10536      74725069 
 10536      78656C57 
 10536      69647468 
 10537              	.LASF148:
 10538 07f3 7538675F 		.ascii	"u8g_GetStrPixelWidth\000"
 10538      47657453 
 10538      74725069 
 10538      78656C57 
 10538      69647468 
 10539              	.LASF79:
 10540 0808 7538675F 		.ascii	"u8g_font_GetBBXHeight\000"
 10540      666F6E74 
 10540      5F476574 
 10540      42425848 
 10540      65696768 
 10541              	.LASF129:
 10542 081e 7538675F 		.ascii	"u8g_DrawGlyphFontBBX\000"
 10542      44726177 
 10542      476C7970 
 10542      68466F6E 
 10542      74424258 
 10543              	.LASF22:
 10544 0833 63757273 		.ascii	"cursor_font\000"
 10544      6F725F66 
 10544      6F6E7400 
 10545              	.LASF138:
 10546 083f 7538675F 		.ascii	"u8g_font_calc_vref_bottom\000"
 10546      666F6E74 
 10546      5F63616C 
 10546      635F7672 
 10546      65665F62 
 10547              	.LASF75:
 10548 0859 7538675F 		.ascii	"u8g_font_get_word\000"
 10548      666F6E74 
 10548      5F676574 
 10548      5F776F72 
 10548      6400
ARM GAS  C:\Users\KJA\AppData\Local\Temp\ccevgiJT.s 			page 220


 10549              	.LASF49:
 10550 086b 636F6D5F 		.ascii	"com_fn\000"
 10550      666E00
 10551              	.LASF164:
 10552 0872 7538675F 		.ascii	"u8g_DrawAAGlyph\000"
 10552      44726177 
 10552      4141476C 
 10552      79706800 
 10553              	.LASF31:
 10554 0882 676C7970 		.ascii	"glyph_x\000"
 10554      685F7800 
 10555              	.LASF32:
 10556 088a 676C7970 		.ascii	"glyph_y\000"
 10556      685F7900 
 10557              	.LASF27:
 10558 0892 63757273 		.ascii	"cursor_x\000"
 10558      6F725F78 
 10558      00
 10559              	.LASF53:
 10560 089b 636F6C6F 		.ascii	"color\000"
 10560      7200
 10561              	.LASF68:
 10562 08a1 63686172 		.ascii	"char\000"
 10562      00
 10563              	.LASF26:
 10564 08a6 6D6F6465 		.ascii	"mode\000"
 10564      00
 10565              	.LASF156:
 10566 08ab 7538675F 		.ascii	"u8g_font_box_left_gA\000"
 10566      666F6E74 
 10566      5F626F78 
 10566      5F6C6566 
 10566      745F6741 
 10567              	.LASF7:
 10568 08c0 5F5F7569 		.ascii	"__uint16_t\000"
 10568      6E743136 
 10568      5F7400
 10569              	.LASF154:
 10570 08cb 7538675F 		.ascii	"u8g_font_calc_str_min_box\000"
 10570      666F6E74 
 10570      5F63616C 
 10570      635F7374 
 10570      725F6D69 
 10571              	.LASF141:
 10572 08e5 7538675F 		.ascii	"u8g_SetFontPosTop\000"
 10572      53657446 
 10572      6F6E7450 
 10572      6F73546F 
 10572      7000
 10573              	.LASF158:
 10574 08f7 7538675F 		.ascii	"u8g_font_get_str_box_fill_args\000"
 10574      666F6E74 
 10574      5F676574 
 10574      5F737472 
 10574      5F626F78 
 10575              	.LASF73:
 10576 0916 6F666673 		.ascii	"offset\000"
ARM GAS  C:\Users\KJA\AppData\Local\Temp\ccevgiJT.s 			page 221


 10576      657400
 10577              	.LASF64:
 10578 091d 7538675F 		.ascii	"u8g_state_cb\000"
 10578      73746174 
 10578      655F6362 
 10578      00
 10579              	.LASF8:
 10580 092a 73686F72 		.ascii	"short unsigned int\000"
 10580      7420756E 
 10580      7369676E 
 10580      65642069 
 10580      6E7400
 10581              	.LASF33:
 10582 093d 676C7970 		.ascii	"glyph_width\000"
 10582      685F7769 
 10582      64746800 
 10583              	.LASF114:
 10584 0949 7538675F 		.ascii	"u8g_DrawGlyph90\000"
 10584      44726177 
 10584      476C7970 
 10584      68393000 
 10585              	.LASF13:
 10586 0959 696E7438 		.ascii	"int8_t\000"
 10586      5F7400
 10587              	.LASF120:
 10588 0960 7538675F 		.ascii	"u8g_DrawStr90\000"
 10588      44726177 
 10588      53747239 
 10588      3000
 10589              	.LASF90:
 10590 096e 7538675F 		.ascii	"u8g_font_GetFontXAscent\000"
 10590      666F6E74 
 10590      5F476574 
 10590      466F6E74 
 10590      58417363 
 10591              	.LASF140:
 10592 0986 7538675F 		.ascii	"u8g_font_calc_vref_top\000"
 10592      666F6E74 
 10592      5F63616C 
 10592      635F7672 
 10592      65665F74 
 10593              	.LASF21:
 10594 099d 666F6E74 		.ascii	"font\000"
 10594      00
 10595              	.LASF119:
 10596 09a2 7538675F 		.ascii	"u8g_DrawStr\000"
 10596      44726177 
 10596      53747200 
 10597              	.LASF60:
 10598 09ae 7538675F 		.ascii	"u8g_dev_fnptr\000"
 10598      6465765F 
 10598      666E7074 
 10598      7200
 10599              	.LASF76:
 10600 09bc 7538675F 		.ascii	"u8g_font_GetFormat\000"
 10600      666F6E74 
 10600      5F476574 
ARM GAS  C:\Users\KJA\AppData\Local\Temp\ccevgiJT.s 			page 222


 10600      466F726D 
 10600      617400
 10601              	.LASF54:
 10602 09cf 68695F63 		.ascii	"hi_color\000"
 10602      6F6C6F72 
 10602      00
 10603              	.LASF135:
 10604 09d8 66616374 		.ascii	"factor\000"
 10604      6F7200
 10605              	.LASF14:
 10606 09df 75696E74 		.ascii	"uint8_t\000"
 10606      385F7400 
 10607              	.LASF112:
 10608 09e7 7538675F 		.ascii	"u8g_DrawGlyph\000"
 10608      44726177 
 10608      476C7970 
 10608      6800
 10609              	.LASF133:
 10610 09f5 7538675F 		.ascii	"u8g_SetFontRefHeightAll\000"
 10610      53657446 
 10610      6F6E7452 
 10610      65664865 
 10610      69676874 
 10611              	.LASF94:
 10612 0a0d 666F6E74 		.ascii	"font_format\000"
 10612      5F666F72 
 10612      6D617400 
 10613              	.LASF39:
 10614 0a19 666F6E74 		.ascii	"font_line_spacing_factor\000"
 10614      5F6C696E 
 10614      655F7370 
 10614      6163696E 
 10614      675F6661 
 10615              	.LASF83:
 10616 0a32 7538675F 		.ascii	"u8g_font_GetEncoding65Pos\000"
 10616      666F6E74 
 10616      5F476574 
 10616      456E636F 
 10616      64696E67 
 10617              	.LASF121:
 10618 0a4c 7538675F 		.ascii	"u8g_DrawStr180\000"
 10618      44726177 
 10618      53747231 
 10618      383000
 10619              	.LASF136:
 10620 0a5b 7538675F 		.ascii	"u8g_font_calc_vref_font\000"
 10620      666F6E74 
 10620      5F63616C 
 10620      635F7672 
 10620      65665F66 
 10621              	.LASF85:
 10622 0a73 7538675F 		.ascii	"u8g_font_GetFontStartEncoding\000"
 10622      666F6E74 
 10622      5F476574 
 10622      466F6E74 
 10622      53746172 
 10623              	.LASF96:
ARM GAS  C:\Users\KJA\AppData\Local\Temp\ccevgiJT.s 			page 223


 10624 0a91 73746172 		.ascii	"start\000"
 10624      7400
 10625              	.LASF20:
 10626 0a97 68656967 		.ascii	"height\000"
 10626      687400
 10627              	.LASF57:
 10628 0a9e 5F753867 		.ascii	"_u8g_box_t\000"
 10628      5F626F78 
 10628      5F7400
 10629              	.LASF69:
 10630 0aa9 7538675F 		.ascii	"u8g_str_size_struct\000"
 10630      7374725F 
 10630      73697A65 
 10630      5F737472 
 10630      75637400 
 10631              	.LASF89:
 10632 0abd 7538675F 		.ascii	"u8g_font_GetFontDescent\000"
 10632      666F6E74 
 10632      5F476574 
 10632      466F6E74 
 10632      44657363 
 10633              	.LASF163:
 10634 0ad5 7538675F 		.ascii	"u8g_draw_aa_glyph\000"
 10634      64726177 
 10634      5F61615F 
 10634      676C7970 
 10634      6800
 10635              	.LASF77:
 10636 0ae7 7538675F 		.ascii	"u8g_font_GetFontGlyphStructureSize\000"
 10636      666F6E74 
 10636      5F476574 
 10636      466F6E74 
 10636      476C7970 
 10637              	.LASF123:
 10638 0b0a 7538675F 		.ascii	"u8g_DrawStrDir\000"
 10638      44726177 
 10638      53747244 
 10638      697200
 10639              	.LASF116:
 10640 0b19 7538675F 		.ascii	"u8g_DrawGlyph180\000"
 10640      44726177 
 10640      476C7970 
 10640      68313830 
 10640      00
 10641              	.LASF144:
 10642 0b2a 7538675F 		.ascii	"u8g_font_get_char\000"
 10642      666F6E74 
 10642      5F676574 
 10642      5F636861 
 10642      7200
 10643              		.ident	"GCC: (GNU Tools for ARM Embedded Processors) 4.9.3 20150303 (release) [ARM/embedded-4_9-br
