ARM GAS  C:\Users\Shiguruy\AppData\Local\Temp\ccjEOE4H.s 			page 1


   1              		.syntax unified
   2              		.cpu cortex-m3
   3              		.fpu softvfp
   4              		.eabi_attribute 20, 1
   5              		.eabi_attribute 21, 1
   6              		.eabi_attribute 23, 3
   7              		.eabi_attribute 24, 1
   8              		.eabi_attribute 25, 1
   9              		.eabi_attribute 26, 1
  10              		.eabi_attribute 30, 6
  11              		.eabi_attribute 34, 1
  12              		.eabi_attribute 18, 4
  13              		.thumb
  14              		.file	"u8g_dev_ssd1351_128x128.c"
  15              		.text
  16              	.Ltext0:
  17              		.cfi_sections	.debug_frame
  18              		.section	.rodata
  19              		.align	2
  20              		.type	u8g_dev_ssd1351_128x128_init_seq, %object
  21              		.size	u8g_dev_ssd1351_128x128_init_seq, 210
  22              	u8g_dev_ssd1351_128x128_init_seq:
  23 0000 FF       		.byte	-1
  24 0001 D0       		.byte	-48
  25 0002 FF       		.byte	-1
  26 0003 32       		.byte	50
  27 0004 FF       		.byte	-1
  28 0005 E0       		.byte	-32
  29 0006 FF       		.byte	-1
  30 0007 C1       		.byte	-63
  31 0008 FF       		.byte	-1
  32 0009 D1       		.byte	-47
  33 000a FF       		.byte	-1
  34 000b 32       		.byte	50
  35 000c FD       		.byte	-3
  36 000d FF       		.byte	-1
  37 000e E1       		.byte	-31
  38 000f 12       		.byte	18
  39 0010 FF       		.byte	-1
  40 0011 E0       		.byte	-32
  41 0012 FD       		.byte	-3
  42 0013 FF       		.byte	-1
  43 0014 E1       		.byte	-31
  44 0015 B1       		.byte	-79
  45 0016 FF       		.byte	-1
  46 0017 E0       		.byte	-32
  47 0018 AE       		.byte	-82
  48 0019 FF       		.byte	-1
  49 001a E0       		.byte	-32
  50 001b B3       		.byte	-77
  51 001c FF       		.byte	-1
  52 001d E1       		.byte	-31
  53 001e F1       		.byte	-15
  54 001f FF       		.byte	-1
  55 0020 E0       		.byte	-32
  56 0021 CA       		.byte	-54
  57 0022 FF       		.byte	-1
ARM GAS  C:\Users\Shiguruy\AppData\Local\Temp\ccjEOE4H.s 			page 2


  58 0023 E1       		.byte	-31
  59 0024 7F       		.byte	127
  60 0025 FF       		.byte	-1
  61 0026 E0       		.byte	-32
  62 0027 A0       		.byte	-96
  63 0028 FF       		.byte	-1
  64 0029 E1       		.byte	-31
  65 002a B4       		.byte	-76
  66 002b FF       		.byte	-1
  67 002c E0       		.byte	-32
  68 002d 15       		.byte	21
  69 002e FF       		.byte	-1
  70 002f E1       		.byte	-31
  71 0030 00       		.byte	0
  72 0031 7F       		.byte	127
  73 0032 FF       		.byte	-1
  74 0033 E0       		.byte	-32
  75 0034 75       		.byte	117
  76 0035 FF       		.byte	-1
  77 0036 E1       		.byte	-31
  78 0037 00       		.byte	0
  79 0038 7F       		.byte	127
  80 0039 FF       		.byte	-1
  81 003a E0       		.byte	-32
  82 003b A1       		.byte	-95
  83 003c FF       		.byte	-1
  84 003d E1       		.byte	-31
  85 003e 00       		.byte	0
  86 003f FF       		.byte	-1
  87 0040 E0       		.byte	-32
  88 0041 A2       		.byte	-94
  89 0042 FF       		.byte	-1
  90 0043 E1       		.byte	-31
  91 0044 00       		.byte	0
  92 0045 FF       		.byte	-1
  93 0046 E0       		.byte	-32
  94 0047 B5       		.byte	-75
  95 0048 FF       		.byte	-1
  96 0049 E1       		.byte	-31
  97 004a 00       		.byte	0
  98 004b FF       		.byte	-1
  99 004c E0       		.byte	-32
 100 004d AB       		.byte	-85
 101 004e FF       		.byte	-1
 102 004f E1       		.byte	-31
 103 0050 01       		.byte	1
 104 0051 FF       		.byte	-1
 105 0052 E0       		.byte	-32
 106 0053 B1       		.byte	-79
 107 0054 FF       		.byte	-1
 108 0055 E1       		.byte	-31
 109 0056 32       		.byte	50
 110 0057 FF       		.byte	-1
 111 0058 E0       		.byte	-32
 112 0059 B4       		.byte	-76
 113 005a FF       		.byte	-1
 114 005b E1       		.byte	-31
ARM GAS  C:\Users\Shiguruy\AppData\Local\Temp\ccjEOE4H.s 			page 3


 115 005c A0       		.byte	-96
 116 005d B5       		.byte	-75
 117 005e 55       		.byte	85
 118 005f FF       		.byte	-1
 119 0060 E0       		.byte	-32
 120 0061 BB       		.byte	-69
 121 0062 FF       		.byte	-1
 122 0063 E1       		.byte	-31
 123 0064 17       		.byte	23
 124 0065 FF       		.byte	-1
 125 0066 E0       		.byte	-32
 126 0067 BE       		.byte	-66
 127 0068 FF       		.byte	-1
 128 0069 E1       		.byte	-31
 129 006a 05       		.byte	5
 130 006b FF       		.byte	-1
 131 006c E0       		.byte	-32
 132 006d C1       		.byte	-63
 133 006e FF       		.byte	-1
 134 006f E1       		.byte	-31
 135 0070 C8       		.byte	-56
 136 0071 80       		.byte	-128
 137 0072 C8       		.byte	-56
 138 0073 FF       		.byte	-1
 139 0074 E0       		.byte	-32
 140 0075 C7       		.byte	-57
 141 0076 FF       		.byte	-1
 142 0077 E1       		.byte	-31
 143 0078 0F       		.byte	15
 144 0079 FF       		.byte	-1
 145 007a E0       		.byte	-32
 146 007b B6       		.byte	-74
 147 007c FF       		.byte	-1
 148 007d E1       		.byte	-31
 149 007e 01       		.byte	1
 150 007f FF       		.byte	-1
 151 0080 E0       		.byte	-32
 152 0081 A6       		.byte	-90
 153 0082 FF       		.byte	-1
 154 0083 E0       		.byte	-32
 155 0084 B8       		.byte	-72
 156 0085 FF       		.byte	-1
 157 0086 E1       		.byte	-31
 158 0087 05       		.byte	5
 159 0088 06       		.byte	6
 160 0089 07       		.byte	7
 161 008a 08       		.byte	8
 162 008b 09       		.byte	9
 163 008c 0A       		.byte	10
 164 008d 0B       		.byte	11
 165 008e 0C       		.byte	12
 166 008f 0D       		.byte	13
 167 0090 0E       		.byte	14
 168 0091 0F       		.byte	15
 169 0092 10       		.byte	16
 170 0093 11       		.byte	17
 171 0094 12       		.byte	18
ARM GAS  C:\Users\Shiguruy\AppData\Local\Temp\ccjEOE4H.s 			page 4


 172 0095 13       		.byte	19
 173 0096 14       		.byte	20
 174 0097 15       		.byte	21
 175 0098 16       		.byte	22
 176 0099 18       		.byte	24
 177 009a 1A       		.byte	26
 178 009b 1B       		.byte	27
 179 009c 1C       		.byte	28
 180 009d 1D       		.byte	29
 181 009e 1F       		.byte	31
 182 009f 21       		.byte	33
 183 00a0 23       		.byte	35
 184 00a1 25       		.byte	37
 185 00a2 27       		.byte	39
 186 00a3 2A       		.byte	42
 187 00a4 2D       		.byte	45
 188 00a5 30       		.byte	48
 189 00a6 33       		.byte	51
 190 00a7 36       		.byte	54
 191 00a8 39       		.byte	57
 192 00a9 3C       		.byte	60
 193 00aa 3F       		.byte	63
 194 00ab 42       		.byte	66
 195 00ac 45       		.byte	69
 196 00ad 48       		.byte	72
 197 00ae 4C       		.byte	76
 198 00af 50       		.byte	80
 199 00b0 54       		.byte	84
 200 00b1 58       		.byte	88
 201 00b2 5C       		.byte	92
 202 00b3 60       		.byte	96
 203 00b4 64       		.byte	100
 204 00b5 68       		.byte	104
 205 00b6 6C       		.byte	108
 206 00b7 70       		.byte	112
 207 00b8 74       		.byte	116
 208 00b9 78       		.byte	120
 209 00ba 7D       		.byte	125
 210 00bb 82       		.byte	-126
 211 00bc 87       		.byte	-121
 212 00bd 8C       		.byte	-116
 213 00be 91       		.byte	-111
 214 00bf 96       		.byte	-106
 215 00c0 9B       		.byte	-101
 216 00c1 A0       		.byte	-96
 217 00c2 A5       		.byte	-91
 218 00c3 AA       		.byte	-86
 219 00c4 AF       		.byte	-81
 220 00c5 B4       		.byte	-76
 221 00c6 FF       		.byte	-1
 222 00c7 E0       		.byte	-32
 223 00c8 AF       		.byte	-81
 224 00c9 5C       		.byte	92
 225 00ca FF       		.byte	-1
 226 00cb 32       		.byte	50
 227 00cc FF       		.byte	-1
 228 00cd D0       		.byte	-48
ARM GAS  C:\Users\Shiguruy\AppData\Local\Temp\ccjEOE4H.s 			page 5


 229 00ce FF       		.byte	-1
 230 00cf E1       		.byte	-31
 231 00d0 FF       		.byte	-1
 232 00d1 FE       		.byte	-2
 233 00d2 0000     		.align	2
 234              		.type	u8g_dev_ssd1351_128x128gh_init_seq, %object
 235              		.size	u8g_dev_ssd1351_128x128gh_init_seq, 210
 236              	u8g_dev_ssd1351_128x128gh_init_seq:
 237 00d4 FF       		.byte	-1
 238 00d5 D0       		.byte	-48
 239 00d6 FF       		.byte	-1
 240 00d7 32       		.byte	50
 241 00d8 FF       		.byte	-1
 242 00d9 E0       		.byte	-32
 243 00da FF       		.byte	-1
 244 00db C1       		.byte	-63
 245 00dc FF       		.byte	-1
 246 00dd D1       		.byte	-47
 247 00de FF       		.byte	-1
 248 00df 32       		.byte	50
 249 00e0 FD       		.byte	-3
 250 00e1 FF       		.byte	-1
 251 00e2 E1       		.byte	-31
 252 00e3 12       		.byte	18
 253 00e4 FF       		.byte	-1
 254 00e5 E0       		.byte	-32
 255 00e6 FD       		.byte	-3
 256 00e7 FF       		.byte	-1
 257 00e8 E1       		.byte	-31
 258 00e9 B1       		.byte	-79
 259 00ea FF       		.byte	-1
 260 00eb E0       		.byte	-32
 261 00ec AE       		.byte	-82
 262 00ed FF       		.byte	-1
 263 00ee E0       		.byte	-32
 264 00ef B3       		.byte	-77
 265 00f0 FF       		.byte	-1
 266 00f1 E1       		.byte	-31
 267 00f2 F1       		.byte	-15
 268 00f3 FF       		.byte	-1
 269 00f4 E0       		.byte	-32
 270 00f5 CA       		.byte	-54
 271 00f6 FF       		.byte	-1
 272 00f7 E1       		.byte	-31
 273 00f8 7F       		.byte	127
 274 00f9 FF       		.byte	-1
 275 00fa E0       		.byte	-32
 276 00fb A0       		.byte	-96
 277 00fc FF       		.byte	-1
 278 00fd E1       		.byte	-31
 279 00fe B4       		.byte	-76
 280 00ff FF       		.byte	-1
 281 0100 E0       		.byte	-32
 282 0101 15       		.byte	21
 283 0102 FF       		.byte	-1
 284 0103 E1       		.byte	-31
 285 0104 00       		.byte	0
ARM GAS  C:\Users\Shiguruy\AppData\Local\Temp\ccjEOE4H.s 			page 6


 286 0105 7F       		.byte	127
 287 0106 FF       		.byte	-1
 288 0107 E0       		.byte	-32
 289 0108 75       		.byte	117
 290 0109 FF       		.byte	-1
 291 010a E1       		.byte	-31
 292 010b 00       		.byte	0
 293 010c 7F       		.byte	127
 294 010d FF       		.byte	-1
 295 010e E0       		.byte	-32
 296 010f A1       		.byte	-95
 297 0110 FF       		.byte	-1
 298 0111 E1       		.byte	-31
 299 0112 00       		.byte	0
 300 0113 FF       		.byte	-1
 301 0114 E0       		.byte	-32
 302 0115 A2       		.byte	-94
 303 0116 FF       		.byte	-1
 304 0117 E1       		.byte	-31
 305 0118 00       		.byte	0
 306 0119 FF       		.byte	-1
 307 011a E0       		.byte	-32
 308 011b B5       		.byte	-75
 309 011c FF       		.byte	-1
 310 011d E1       		.byte	-31
 311 011e 03       		.byte	3
 312 011f FF       		.byte	-1
 313 0120 E0       		.byte	-32
 314 0121 AB       		.byte	-85
 315 0122 FF       		.byte	-1
 316 0123 E1       		.byte	-31
 317 0124 01       		.byte	1
 318 0125 FF       		.byte	-1
 319 0126 E0       		.byte	-32
 320 0127 B1       		.byte	-79
 321 0128 FF       		.byte	-1
 322 0129 E1       		.byte	-31
 323 012a 32       		.byte	50
 324 012b FF       		.byte	-1
 325 012c E0       		.byte	-32
 326 012d B4       		.byte	-76
 327 012e FF       		.byte	-1
 328 012f E1       		.byte	-31
 329 0130 A0       		.byte	-96
 330 0131 B5       		.byte	-75
 331 0132 55       		.byte	85
 332 0133 FF       		.byte	-1
 333 0134 E0       		.byte	-32
 334 0135 BB       		.byte	-69
 335 0136 FF       		.byte	-1
 336 0137 E1       		.byte	-31
 337 0138 17       		.byte	23
 338 0139 FF       		.byte	-1
 339 013a E0       		.byte	-32
 340 013b BE       		.byte	-66
 341 013c FF       		.byte	-1
 342 013d E1       		.byte	-31
ARM GAS  C:\Users\Shiguruy\AppData\Local\Temp\ccjEOE4H.s 			page 7


 343 013e 05       		.byte	5
 344 013f FF       		.byte	-1
 345 0140 E0       		.byte	-32
 346 0141 C1       		.byte	-63
 347 0142 FF       		.byte	-1
 348 0143 E1       		.byte	-31
 349 0144 C8       		.byte	-56
 350 0145 80       		.byte	-128
 351 0146 C8       		.byte	-56
 352 0147 FF       		.byte	-1
 353 0148 E0       		.byte	-32
 354 0149 C7       		.byte	-57
 355 014a FF       		.byte	-1
 356 014b E1       		.byte	-31
 357 014c 0F       		.byte	15
 358 014d FF       		.byte	-1
 359 014e E0       		.byte	-32
 360 014f B6       		.byte	-74
 361 0150 FF       		.byte	-1
 362 0151 E1       		.byte	-31
 363 0152 01       		.byte	1
 364 0153 FF       		.byte	-1
 365 0154 E0       		.byte	-32
 366 0155 A6       		.byte	-90
 367 0156 FF       		.byte	-1
 368 0157 E0       		.byte	-32
 369 0158 B8       		.byte	-72
 370 0159 FF       		.byte	-1
 371 015a E1       		.byte	-31
 372 015b 05       		.byte	5
 373 015c 06       		.byte	6
 374 015d 07       		.byte	7
 375 015e 08       		.byte	8
 376 015f 09       		.byte	9
 377 0160 0A       		.byte	10
 378 0161 0B       		.byte	11
 379 0162 0C       		.byte	12
 380 0163 0D       		.byte	13
 381 0164 0E       		.byte	14
 382 0165 0F       		.byte	15
 383 0166 10       		.byte	16
 384 0167 11       		.byte	17
 385 0168 12       		.byte	18
 386 0169 13       		.byte	19
 387 016a 14       		.byte	20
 388 016b 15       		.byte	21
 389 016c 16       		.byte	22
 390 016d 18       		.byte	24
 391 016e 1A       		.byte	26
 392 016f 1B       		.byte	27
 393 0170 1C       		.byte	28
 394 0171 1D       		.byte	29
 395 0172 1F       		.byte	31
 396 0173 21       		.byte	33
 397 0174 23       		.byte	35
 398 0175 25       		.byte	37
 399 0176 27       		.byte	39
ARM GAS  C:\Users\Shiguruy\AppData\Local\Temp\ccjEOE4H.s 			page 8


 400 0177 2A       		.byte	42
 401 0178 2D       		.byte	45
 402 0179 30       		.byte	48
 403 017a 33       		.byte	51
 404 017b 36       		.byte	54
 405 017c 39       		.byte	57
 406 017d 3C       		.byte	60
 407 017e 3F       		.byte	63
 408 017f 42       		.byte	66
 409 0180 45       		.byte	69
 410 0181 48       		.byte	72
 411 0182 4C       		.byte	76
 412 0183 50       		.byte	80
 413 0184 54       		.byte	84
 414 0185 58       		.byte	88
 415 0186 5C       		.byte	92
 416 0187 60       		.byte	96
 417 0188 64       		.byte	100
 418 0189 68       		.byte	104
 419 018a 6C       		.byte	108
 420 018b 70       		.byte	112
 421 018c 74       		.byte	116
 422 018d 78       		.byte	120
 423 018e 7D       		.byte	125
 424 018f 82       		.byte	-126
 425 0190 87       		.byte	-121
 426 0191 8C       		.byte	-116
 427 0192 91       		.byte	-111
 428 0193 96       		.byte	-106
 429 0194 9B       		.byte	-101
 430 0195 A0       		.byte	-96
 431 0196 A5       		.byte	-91
 432 0197 AA       		.byte	-86
 433 0198 AF       		.byte	-81
 434 0199 B4       		.byte	-76
 435 019a FF       		.byte	-1
 436 019b E0       		.byte	-32
 437 019c AF       		.byte	-81
 438 019d 5C       		.byte	92
 439 019e FF       		.byte	-1
 440 019f 32       		.byte	50
 441 01a0 FF       		.byte	-1
 442 01a1 D0       		.byte	-48
 443 01a2 FF       		.byte	-1
 444 01a3 E1       		.byte	-31
 445 01a4 FF       		.byte	-1
 446 01a5 FE       		.byte	-2
 447 01a6 0000     		.align	2
 448              		.type	u8g_dev_ssd1351_128x128_column_seq, %object
 449              		.size	u8g_dev_ssd1351_128x128_column_seq, 25
 450              	u8g_dev_ssd1351_128x128_column_seq:
 451 01a8 FF       		.byte	-1
 452 01a9 D1       		.byte	-47
 453 01aa FF       		.byte	-1
 454 01ab E0       		.byte	-32
 455 01ac 15       		.byte	21
 456 01ad FF       		.byte	-1
ARM GAS  C:\Users\Shiguruy\AppData\Local\Temp\ccjEOE4H.s 			page 9


 457 01ae E1       		.byte	-31
 458 01af 00       		.byte	0
 459 01b0 7F       		.byte	127
 460 01b1 FF       		.byte	-1
 461 01b2 E0       		.byte	-32
 462 01b3 75       		.byte	117
 463 01b4 FF       		.byte	-1
 464 01b5 E1       		.byte	-31
 465 01b6 00       		.byte	0
 466 01b7 7F       		.byte	127
 467 01b8 FF       		.byte	-1
 468 01b9 E0       		.byte	-32
 469 01ba 5C       		.byte	92
 470 01bb FF       		.byte	-1
 471 01bc E1       		.byte	-31
 472 01bd FF       		.byte	-1
 473 01be D0       		.byte	-48
 474 01bf FF       		.byte	-1
 475 01c0 FE       		.byte	-2
 476 01c1 000000   		.bss
 477              		.align	2
 478              	u8g_ssd1351_stream_bytes:
 479 0000 00000000 		.space	24
 479      00000000 
 479      00000000 
 479      00000000 
 479      00000000 
 480              		.section	.text.u8g_ssd1351_to_stream,"ax",%progbits
 481              		.align	2
 482              		.global	u8g_ssd1351_to_stream
 483              		.thumb
 484              		.thumb_func
 485              		.type	u8g_ssd1351_to_stream, %function
 486              	u8g_ssd1351_to_stream:
 487              	.LFB0:
 488              		.file 1 ".\\u8glib_arm_v1.18.1\\src\\u8g_dev_ssd1351_128x128.c"
   1:.\u8glib_arm_v1.18.1\src/u8g_dev_ssd1351_128x128.c **** /*
   2:.\u8glib_arm_v1.18.1\src/u8g_dev_ssd1351_128x128.c **** 
   3:.\u8glib_arm_v1.18.1\src/u8g_dev_ssd1351_128x128.c ****   u8g_dev_ssd1351_128x128.c
   4:.\u8glib_arm_v1.18.1\src/u8g_dev_ssd1351_128x128.c **** 
   5:.\u8glib_arm_v1.18.1\src/u8g_dev_ssd1351_128x128.c ****   Universal 8bit Graphics Library
   6:.\u8glib_arm_v1.18.1\src/u8g_dev_ssd1351_128x128.c ****   
   7:.\u8glib_arm_v1.18.1\src/u8g_dev_ssd1351_128x128.c ****   Copyright (c) 2013, jamjardavies@gmail.com
   8:.\u8glib_arm_v1.18.1\src/u8g_dev_ssd1351_128x128.c ****   Copyright (c) 2013, olikraus@gmail.com
   9:.\u8glib_arm_v1.18.1\src/u8g_dev_ssd1351_128x128.c ****   All rights reserved.
  10:.\u8glib_arm_v1.18.1\src/u8g_dev_ssd1351_128x128.c **** 
  11:.\u8glib_arm_v1.18.1\src/u8g_dev_ssd1351_128x128.c ****   Redistribution and use in source and binary forms, with or without modification, 
  12:.\u8glib_arm_v1.18.1\src/u8g_dev_ssd1351_128x128.c ****   are permitted provided that the following conditions are met:
  13:.\u8glib_arm_v1.18.1\src/u8g_dev_ssd1351_128x128.c **** 
  14:.\u8glib_arm_v1.18.1\src/u8g_dev_ssd1351_128x128.c ****   * Redistributions of source code must retain the above copyright notice, this list 
  15:.\u8glib_arm_v1.18.1\src/u8g_dev_ssd1351_128x128.c ****     of conditions and the following disclaimer.
  16:.\u8glib_arm_v1.18.1\src/u8g_dev_ssd1351_128x128.c ****     
  17:.\u8glib_arm_v1.18.1\src/u8g_dev_ssd1351_128x128.c ****   * Redistributions in binary form must reproduce the above copyright notice, this 
  18:.\u8glib_arm_v1.18.1\src/u8g_dev_ssd1351_128x128.c ****     list of conditions and the following disclaimer in the documentation and/or other 
  19:.\u8glib_arm_v1.18.1\src/u8g_dev_ssd1351_128x128.c ****     materials provided with the distribution.
  20:.\u8glib_arm_v1.18.1\src/u8g_dev_ssd1351_128x128.c **** 
  21:.\u8glib_arm_v1.18.1\src/u8g_dev_ssd1351_128x128.c ****   THIS SOFTWARE IS PROVIDED BY THE COPYRIGHT HOLDERS AND 
ARM GAS  C:\Users\Shiguruy\AppData\Local\Temp\ccjEOE4H.s 			page 10


  22:.\u8glib_arm_v1.18.1\src/u8g_dev_ssd1351_128x128.c ****   CONTRIBUTORS "AS IS" AND ANY EXPRESS OR IMPLIED WARRANTIES, 
  23:.\u8glib_arm_v1.18.1\src/u8g_dev_ssd1351_128x128.c ****   INCLUDING, BUT NOT LIMITED TO, THE IMPLIED WARRANTIES OF 
  24:.\u8glib_arm_v1.18.1\src/u8g_dev_ssd1351_128x128.c ****   MERCHANTABILITY AND FITNESS FOR A PARTICULAR PURPOSE ARE 
  25:.\u8glib_arm_v1.18.1\src/u8g_dev_ssd1351_128x128.c ****   DISCLAIMED. IN NO EVENT SHALL THE COPYRIGHT HOLDER OR 
  26:.\u8glib_arm_v1.18.1\src/u8g_dev_ssd1351_128x128.c ****   CONTRIBUTORS BE LIABLE FOR ANY DIRECT, INDIRECT, INCIDENTAL, 
  27:.\u8glib_arm_v1.18.1\src/u8g_dev_ssd1351_128x128.c ****   SPECIAL, EXEMPLARY, OR CONSEQUENTIAL DAMAGES (INCLUDING, BUT 
  28:.\u8glib_arm_v1.18.1\src/u8g_dev_ssd1351_128x128.c ****   NOT LIMITED TO, PROCUREMENT OF SUBSTITUTE GOODS OR SERVICES; 
  29:.\u8glib_arm_v1.18.1\src/u8g_dev_ssd1351_128x128.c ****   LOSS OF USE, DATA, OR PROFITS; OR BUSINESS INTERRUPTION) HOWEVER 
  30:.\u8glib_arm_v1.18.1\src/u8g_dev_ssd1351_128x128.c ****   CAUSED AND ON ANY THEORY OF LIABILITY, WHETHER IN CONTRACT, 
  31:.\u8glib_arm_v1.18.1\src/u8g_dev_ssd1351_128x128.c ****   STRICT LIABILITY, OR TORT (INCLUDING NEGLIGENCE OR OTHERWISE) 
  32:.\u8glib_arm_v1.18.1\src/u8g_dev_ssd1351_128x128.c ****   ARISING IN ANY WAY OUT OF THE USE OF THIS SOFTWARE, EVEN IF 
  33:.\u8glib_arm_v1.18.1\src/u8g_dev_ssd1351_128x128.c ****   ADVISED OF THE POSSIBILITY OF SUCH DAMAGE.  
  34:.\u8glib_arm_v1.18.1\src/u8g_dev_ssd1351_128x128.c ****   
  35:.\u8glib_arm_v1.18.1\src/u8g_dev_ssd1351_128x128.c ****   History:
  36:.\u8glib_arm_v1.18.1\src/u8g_dev_ssd1351_128x128.c ****   Initial version	20 May 2013 jamjardavies@gmail.com	
  37:.\u8glib_arm_v1.18.1\src/u8g_dev_ssd1351_128x128.c ****   indexed device	22 May 2013 olikraus@gmail.com
  38:.\u8glib_arm_v1.18.1\src/u8g_dev_ssd1351_128x128.c ****   
  39:.\u8glib_arm_v1.18.1\src/u8g_dev_ssd1351_128x128.c **** */
  40:.\u8glib_arm_v1.18.1\src/u8g_dev_ssd1351_128x128.c **** 
  41:.\u8glib_arm_v1.18.1\src/u8g_dev_ssd1351_128x128.c **** #include "u8g.h"
  42:.\u8glib_arm_v1.18.1\src/u8g_dev_ssd1351_128x128.c **** 
  43:.\u8glib_arm_v1.18.1\src/u8g_dev_ssd1351_128x128.c **** #define WIDTH		128
  44:.\u8glib_arm_v1.18.1\src/u8g_dev_ssd1351_128x128.c **** #define HEIGHT		128
  45:.\u8glib_arm_v1.18.1\src/u8g_dev_ssd1351_128x128.c **** #define PAGE_HEIGHT	8
  46:.\u8glib_arm_v1.18.1\src/u8g_dev_ssd1351_128x128.c **** 
  47:.\u8glib_arm_v1.18.1\src/u8g_dev_ssd1351_128x128.c **** static const uint8_t u8g_dev_ssd1351_128x128_init_seq[] PROGMEM = {
  48:.\u8glib_arm_v1.18.1\src/u8g_dev_ssd1351_128x128.c **** 	U8G_ESC_CS(0),					/* disable chip */
  49:.\u8glib_arm_v1.18.1\src/u8g_dev_ssd1351_128x128.c **** 	U8G_ESC_DLY(50),
  50:.\u8glib_arm_v1.18.1\src/u8g_dev_ssd1351_128x128.c **** 	U8G_ESC_ADR(0),					/* instruction mode */
  51:.\u8glib_arm_v1.18.1\src/u8g_dev_ssd1351_128x128.c **** 	U8G_ESC_RST(1),					/* do reset low pulse with (1*16)+2 milliseconds */
  52:.\u8glib_arm_v1.18.1\src/u8g_dev_ssd1351_128x128.c **** 	U8G_ESC_CS(1),					/* enable chip */
  53:.\u8glib_arm_v1.18.1\src/u8g_dev_ssd1351_128x128.c **** 	U8G_ESC_DLY(50),
  54:.\u8glib_arm_v1.18.1\src/u8g_dev_ssd1351_128x128.c **** 
  55:.\u8glib_arm_v1.18.1\src/u8g_dev_ssd1351_128x128.c **** 	0xfd,							/* Command Lock */
  56:.\u8glib_arm_v1.18.1\src/u8g_dev_ssd1351_128x128.c **** 	U8G_ESC_ADR(1),
  57:.\u8glib_arm_v1.18.1\src/u8g_dev_ssd1351_128x128.c **** 	0x12,						
  58:.\u8glib_arm_v1.18.1\src/u8g_dev_ssd1351_128x128.c **** 
  59:.\u8glib_arm_v1.18.1\src/u8g_dev_ssd1351_128x128.c **** 	U8G_ESC_ADR(0),					/* instruction mode */
  60:.\u8glib_arm_v1.18.1\src/u8g_dev_ssd1351_128x128.c **** 	0xfd,
  61:.\u8glib_arm_v1.18.1\src/u8g_dev_ssd1351_128x128.c **** 	U8G_ESC_ADR(1),
  62:.\u8glib_arm_v1.18.1\src/u8g_dev_ssd1351_128x128.c **** 	0xb1,							/* Command Lock */
  63:.\u8glib_arm_v1.18.1\src/u8g_dev_ssd1351_128x128.c **** 
  64:.\u8glib_arm_v1.18.1\src/u8g_dev_ssd1351_128x128.c **** 	U8G_ESC_ADR(0),					/* instruction mode */
  65:.\u8glib_arm_v1.18.1\src/u8g_dev_ssd1351_128x128.c **** 	0xae,							/* Set Display Off */
  66:.\u8glib_arm_v1.18.1\src/u8g_dev_ssd1351_128x128.c **** 
  67:.\u8glib_arm_v1.18.1\src/u8g_dev_ssd1351_128x128.c **** 	U8G_ESC_ADR(0),					/* instruction mode */
  68:.\u8glib_arm_v1.18.1\src/u8g_dev_ssd1351_128x128.c **** 	0xb3,
  69:.\u8glib_arm_v1.18.1\src/u8g_dev_ssd1351_128x128.c **** 	U8G_ESC_ADR(1),
  70:.\u8glib_arm_v1.18.1\src/u8g_dev_ssd1351_128x128.c **** 	0xf1,							/* Front Clock Div */
  71:.\u8glib_arm_v1.18.1\src/u8g_dev_ssd1351_128x128.c **** 
  72:.\u8glib_arm_v1.18.1\src/u8g_dev_ssd1351_128x128.c **** 	U8G_ESC_ADR(0),					/* instruction mode */
  73:.\u8glib_arm_v1.18.1\src/u8g_dev_ssd1351_128x128.c **** 	0xca,
  74:.\u8glib_arm_v1.18.1\src/u8g_dev_ssd1351_128x128.c **** 	U8G_ESC_ADR(1),
  75:.\u8glib_arm_v1.18.1\src/u8g_dev_ssd1351_128x128.c **** 	0x7f,							/* Set Multiplex Ratio */
  76:.\u8glib_arm_v1.18.1\src/u8g_dev_ssd1351_128x128.c **** 
  77:.\u8glib_arm_v1.18.1\src/u8g_dev_ssd1351_128x128.c **** 	U8G_ESC_ADR(0),					/* instruction mode */
  78:.\u8glib_arm_v1.18.1\src/u8g_dev_ssd1351_128x128.c **** 	0xa0,
ARM GAS  C:\Users\Shiguruy\AppData\Local\Temp\ccjEOE4H.s 			page 11


  79:.\u8glib_arm_v1.18.1\src/u8g_dev_ssd1351_128x128.c **** 	U8G_ESC_ADR(1),
  80:.\u8glib_arm_v1.18.1\src/u8g_dev_ssd1351_128x128.c **** 	0xb4,							/* Set Colour Depth */
  81:.\u8glib_arm_v1.18.1\src/u8g_dev_ssd1351_128x128.c **** 
  82:.\u8glib_arm_v1.18.1\src/u8g_dev_ssd1351_128x128.c **** 	U8G_ESC_ADR(0),					/* instruction mode */
  83:.\u8glib_arm_v1.18.1\src/u8g_dev_ssd1351_128x128.c **** 	0x15,
  84:.\u8glib_arm_v1.18.1\src/u8g_dev_ssd1351_128x128.c **** 	U8G_ESC_ADR(1),
  85:.\u8glib_arm_v1.18.1\src/u8g_dev_ssd1351_128x128.c **** 	0x00, 0x7f,						/* Set Column Address */
  86:.\u8glib_arm_v1.18.1\src/u8g_dev_ssd1351_128x128.c **** 
  87:.\u8glib_arm_v1.18.1\src/u8g_dev_ssd1351_128x128.c **** 	U8G_ESC_ADR(0),					/* instruction mode */
  88:.\u8glib_arm_v1.18.1\src/u8g_dev_ssd1351_128x128.c **** 	0x75,
  89:.\u8glib_arm_v1.18.1\src/u8g_dev_ssd1351_128x128.c **** 	U8G_ESC_ADR(1),
  90:.\u8glib_arm_v1.18.1\src/u8g_dev_ssd1351_128x128.c **** 	0x00, 0x7f,						/* Set Row Address */
  91:.\u8glib_arm_v1.18.1\src/u8g_dev_ssd1351_128x128.c **** 
  92:.\u8glib_arm_v1.18.1\src/u8g_dev_ssd1351_128x128.c **** 	U8G_ESC_ADR(0),					/* instruction mode */
  93:.\u8glib_arm_v1.18.1\src/u8g_dev_ssd1351_128x128.c **** 	0xa1,
  94:.\u8glib_arm_v1.18.1\src/u8g_dev_ssd1351_128x128.c **** 	U8G_ESC_ADR(1),
  95:.\u8glib_arm_v1.18.1\src/u8g_dev_ssd1351_128x128.c **** 	0x00,							/* Set Display Start Line */
  96:.\u8glib_arm_v1.18.1\src/u8g_dev_ssd1351_128x128.c **** 
  97:.\u8glib_arm_v1.18.1\src/u8g_dev_ssd1351_128x128.c **** 	U8G_ESC_ADR(0),					/* instruction mode */
  98:.\u8glib_arm_v1.18.1\src/u8g_dev_ssd1351_128x128.c **** 	0xa2,
  99:.\u8glib_arm_v1.18.1\src/u8g_dev_ssd1351_128x128.c **** 	U8G_ESC_ADR(1),
 100:.\u8glib_arm_v1.18.1\src/u8g_dev_ssd1351_128x128.c **** 	0x00,							/* Set Display Offset */
 101:.\u8glib_arm_v1.18.1\src/u8g_dev_ssd1351_128x128.c **** 
 102:.\u8glib_arm_v1.18.1\src/u8g_dev_ssd1351_128x128.c **** 	U8G_ESC_ADR(0),					/* instruction mode */
 103:.\u8glib_arm_v1.18.1\src/u8g_dev_ssd1351_128x128.c **** 	0xb5,
 104:.\u8glib_arm_v1.18.1\src/u8g_dev_ssd1351_128x128.c **** 	U8G_ESC_ADR(1),
 105:.\u8glib_arm_v1.18.1\src/u8g_dev_ssd1351_128x128.c **** 	0x00,							/* Set GPIO */
 106:.\u8glib_arm_v1.18.1\src/u8g_dev_ssd1351_128x128.c **** 
 107:.\u8glib_arm_v1.18.1\src/u8g_dev_ssd1351_128x128.c **** 	U8G_ESC_ADR(0),					/* instruction mode */
 108:.\u8glib_arm_v1.18.1\src/u8g_dev_ssd1351_128x128.c **** 	0xab,
 109:.\u8glib_arm_v1.18.1\src/u8g_dev_ssd1351_128x128.c **** 	U8G_ESC_ADR(1),
 110:.\u8glib_arm_v1.18.1\src/u8g_dev_ssd1351_128x128.c **** 	0x01,							/* Set Function Selection */
 111:.\u8glib_arm_v1.18.1\src/u8g_dev_ssd1351_128x128.c **** 
 112:.\u8glib_arm_v1.18.1\src/u8g_dev_ssd1351_128x128.c **** 	U8G_ESC_ADR(0),					/* instruction mode */
 113:.\u8glib_arm_v1.18.1\src/u8g_dev_ssd1351_128x128.c **** 	0xb1,
 114:.\u8glib_arm_v1.18.1\src/u8g_dev_ssd1351_128x128.c **** 	U8G_ESC_ADR(1),
 115:.\u8glib_arm_v1.18.1\src/u8g_dev_ssd1351_128x128.c **** 	0x32,							/* Set Phase Length */
 116:.\u8glib_arm_v1.18.1\src/u8g_dev_ssd1351_128x128.c **** 
 117:.\u8glib_arm_v1.18.1\src/u8g_dev_ssd1351_128x128.c **** 	U8G_ESC_ADR(0),					/* instruction mode */
 118:.\u8glib_arm_v1.18.1\src/u8g_dev_ssd1351_128x128.c **** 	0xb4,
 119:.\u8glib_arm_v1.18.1\src/u8g_dev_ssd1351_128x128.c **** 	U8G_ESC_ADR(1),
 120:.\u8glib_arm_v1.18.1\src/u8g_dev_ssd1351_128x128.c **** 	0xa0, 0xb5, 0x55,				/* Set Segment Low Voltage */
 121:.\u8glib_arm_v1.18.1\src/u8g_dev_ssd1351_128x128.c **** 
 122:.\u8glib_arm_v1.18.1\src/u8g_dev_ssd1351_128x128.c **** 	U8G_ESC_ADR(0),					/* instruction mode */
 123:.\u8glib_arm_v1.18.1\src/u8g_dev_ssd1351_128x128.c **** 	0xbb,
 124:.\u8glib_arm_v1.18.1\src/u8g_dev_ssd1351_128x128.c **** 	U8G_ESC_ADR(1),
 125:.\u8glib_arm_v1.18.1\src/u8g_dev_ssd1351_128x128.c **** 	0x17,							/* Set Precharge Voltage */
 126:.\u8glib_arm_v1.18.1\src/u8g_dev_ssd1351_128x128.c **** 
 127:.\u8glib_arm_v1.18.1\src/u8g_dev_ssd1351_128x128.c **** 	U8G_ESC_ADR(0),					/* instruction mode */
 128:.\u8glib_arm_v1.18.1\src/u8g_dev_ssd1351_128x128.c **** 	0xbe,
 129:.\u8glib_arm_v1.18.1\src/u8g_dev_ssd1351_128x128.c **** 	U8G_ESC_ADR(1),
 130:.\u8glib_arm_v1.18.1\src/u8g_dev_ssd1351_128x128.c **** 	0x05,							/* Set VComH Voltage */
 131:.\u8glib_arm_v1.18.1\src/u8g_dev_ssd1351_128x128.c **** 
 132:.\u8glib_arm_v1.18.1\src/u8g_dev_ssd1351_128x128.c **** 	U8G_ESC_ADR(0),					/* instruction mode */
 133:.\u8glib_arm_v1.18.1\src/u8g_dev_ssd1351_128x128.c **** 	0xc1,
 134:.\u8glib_arm_v1.18.1\src/u8g_dev_ssd1351_128x128.c **** 	U8G_ESC_ADR(1),
 135:.\u8glib_arm_v1.18.1\src/u8g_dev_ssd1351_128x128.c **** 	0xc8, 0x80, 0xc8,				/* Set Contrast */
ARM GAS  C:\Users\Shiguruy\AppData\Local\Temp\ccjEOE4H.s 			page 12


 136:.\u8glib_arm_v1.18.1\src/u8g_dev_ssd1351_128x128.c **** 
 137:.\u8glib_arm_v1.18.1\src/u8g_dev_ssd1351_128x128.c **** 	U8G_ESC_ADR(0),					/* instruction mode */
 138:.\u8glib_arm_v1.18.1\src/u8g_dev_ssd1351_128x128.c **** 	0xc7,
 139:.\u8glib_arm_v1.18.1\src/u8g_dev_ssd1351_128x128.c **** 	U8G_ESC_ADR(1),
 140:.\u8glib_arm_v1.18.1\src/u8g_dev_ssd1351_128x128.c **** 	0x0f,							/* Set Master Contrast */
 141:.\u8glib_arm_v1.18.1\src/u8g_dev_ssd1351_128x128.c **** 
 142:.\u8glib_arm_v1.18.1\src/u8g_dev_ssd1351_128x128.c **** 	U8G_ESC_ADR(0),					/* instruction mode */
 143:.\u8glib_arm_v1.18.1\src/u8g_dev_ssd1351_128x128.c **** 	0xb6,
 144:.\u8glib_arm_v1.18.1\src/u8g_dev_ssd1351_128x128.c **** 	U8G_ESC_ADR(1),
 145:.\u8glib_arm_v1.18.1\src/u8g_dev_ssd1351_128x128.c **** 	0x01,							/* Set Second Precharge Period */
 146:.\u8glib_arm_v1.18.1\src/u8g_dev_ssd1351_128x128.c **** 
 147:.\u8glib_arm_v1.18.1\src/u8g_dev_ssd1351_128x128.c **** 	U8G_ESC_ADR(0),					/* instruction mode */
 148:.\u8glib_arm_v1.18.1\src/u8g_dev_ssd1351_128x128.c **** 	0xa6,							/* Set Display Mode Reset */
 149:.\u8glib_arm_v1.18.1\src/u8g_dev_ssd1351_128x128.c **** 
 150:.\u8glib_arm_v1.18.1\src/u8g_dev_ssd1351_128x128.c **** 
 151:.\u8glib_arm_v1.18.1\src/u8g_dev_ssd1351_128x128.c **** 	U8G_ESC_ADR(0),					/* instruction mode */
 152:.\u8glib_arm_v1.18.1\src/u8g_dev_ssd1351_128x128.c **** 	0xb8,							/* Set CMD Grayscale Lookup */
 153:.\u8glib_arm_v1.18.1\src/u8g_dev_ssd1351_128x128.c **** 	U8G_ESC_ADR(1),
 154:.\u8glib_arm_v1.18.1\src/u8g_dev_ssd1351_128x128.c **** 	0x05,
 155:.\u8glib_arm_v1.18.1\src/u8g_dev_ssd1351_128x128.c **** 	0x06,
 156:.\u8glib_arm_v1.18.1\src/u8g_dev_ssd1351_128x128.c **** 	0x07,
 157:.\u8glib_arm_v1.18.1\src/u8g_dev_ssd1351_128x128.c **** 	0x08,
 158:.\u8glib_arm_v1.18.1\src/u8g_dev_ssd1351_128x128.c **** 	0x09,
 159:.\u8glib_arm_v1.18.1\src/u8g_dev_ssd1351_128x128.c **** 	0x0a,
 160:.\u8glib_arm_v1.18.1\src/u8g_dev_ssd1351_128x128.c **** 	0x0b,
 161:.\u8glib_arm_v1.18.1\src/u8g_dev_ssd1351_128x128.c **** 	0x0c,
 162:.\u8glib_arm_v1.18.1\src/u8g_dev_ssd1351_128x128.c **** 	0x0D,
 163:.\u8glib_arm_v1.18.1\src/u8g_dev_ssd1351_128x128.c **** 	0x0E,
 164:.\u8glib_arm_v1.18.1\src/u8g_dev_ssd1351_128x128.c **** 	0x0F,
 165:.\u8glib_arm_v1.18.1\src/u8g_dev_ssd1351_128x128.c **** 	0x10,
 166:.\u8glib_arm_v1.18.1\src/u8g_dev_ssd1351_128x128.c **** 	0x11,
 167:.\u8glib_arm_v1.18.1\src/u8g_dev_ssd1351_128x128.c **** 	0x12,
 168:.\u8glib_arm_v1.18.1\src/u8g_dev_ssd1351_128x128.c **** 	0x13,
 169:.\u8glib_arm_v1.18.1\src/u8g_dev_ssd1351_128x128.c **** 	0x14,
 170:.\u8glib_arm_v1.18.1\src/u8g_dev_ssd1351_128x128.c **** 	0x15,
 171:.\u8glib_arm_v1.18.1\src/u8g_dev_ssd1351_128x128.c **** 	0x16,
 172:.\u8glib_arm_v1.18.1\src/u8g_dev_ssd1351_128x128.c **** 	0x18,
 173:.\u8glib_arm_v1.18.1\src/u8g_dev_ssd1351_128x128.c **** 	0x1a,
 174:.\u8glib_arm_v1.18.1\src/u8g_dev_ssd1351_128x128.c **** 	0x1b,
 175:.\u8glib_arm_v1.18.1\src/u8g_dev_ssd1351_128x128.c **** 	0x1C,
 176:.\u8glib_arm_v1.18.1\src/u8g_dev_ssd1351_128x128.c **** 	0x1D,
 177:.\u8glib_arm_v1.18.1\src/u8g_dev_ssd1351_128x128.c **** 	0x1F,
 178:.\u8glib_arm_v1.18.1\src/u8g_dev_ssd1351_128x128.c **** 	0x21,
 179:.\u8glib_arm_v1.18.1\src/u8g_dev_ssd1351_128x128.c **** 	0x23,
 180:.\u8glib_arm_v1.18.1\src/u8g_dev_ssd1351_128x128.c **** 	0x25,
 181:.\u8glib_arm_v1.18.1\src/u8g_dev_ssd1351_128x128.c **** 	0x27,
 182:.\u8glib_arm_v1.18.1\src/u8g_dev_ssd1351_128x128.c **** 	0x2A,
 183:.\u8glib_arm_v1.18.1\src/u8g_dev_ssd1351_128x128.c **** 	0x2D,
 184:.\u8glib_arm_v1.18.1\src/u8g_dev_ssd1351_128x128.c **** 	0x30,
 185:.\u8glib_arm_v1.18.1\src/u8g_dev_ssd1351_128x128.c **** 	0x33,
 186:.\u8glib_arm_v1.18.1\src/u8g_dev_ssd1351_128x128.c **** 	0x36,
 187:.\u8glib_arm_v1.18.1\src/u8g_dev_ssd1351_128x128.c **** 	0x39,
 188:.\u8glib_arm_v1.18.1\src/u8g_dev_ssd1351_128x128.c **** 	0x3C,
 189:.\u8glib_arm_v1.18.1\src/u8g_dev_ssd1351_128x128.c **** 	0x3F,
 190:.\u8glib_arm_v1.18.1\src/u8g_dev_ssd1351_128x128.c **** 	0x42,
 191:.\u8glib_arm_v1.18.1\src/u8g_dev_ssd1351_128x128.c **** 	0x45,
 192:.\u8glib_arm_v1.18.1\src/u8g_dev_ssd1351_128x128.c **** 	0x48,
ARM GAS  C:\Users\Shiguruy\AppData\Local\Temp\ccjEOE4H.s 			page 13


 193:.\u8glib_arm_v1.18.1\src/u8g_dev_ssd1351_128x128.c **** 	0x4C,
 194:.\u8glib_arm_v1.18.1\src/u8g_dev_ssd1351_128x128.c **** 	0x50,
 195:.\u8glib_arm_v1.18.1\src/u8g_dev_ssd1351_128x128.c **** 	0x54,
 196:.\u8glib_arm_v1.18.1\src/u8g_dev_ssd1351_128x128.c **** 	0x58,
 197:.\u8glib_arm_v1.18.1\src/u8g_dev_ssd1351_128x128.c **** 	0x5C,
 198:.\u8glib_arm_v1.18.1\src/u8g_dev_ssd1351_128x128.c **** 	0x60,
 199:.\u8glib_arm_v1.18.1\src/u8g_dev_ssd1351_128x128.c **** 	0x64,
 200:.\u8glib_arm_v1.18.1\src/u8g_dev_ssd1351_128x128.c **** 	0x68,
 201:.\u8glib_arm_v1.18.1\src/u8g_dev_ssd1351_128x128.c **** 	0x6C,
 202:.\u8glib_arm_v1.18.1\src/u8g_dev_ssd1351_128x128.c **** 	0x70,
 203:.\u8glib_arm_v1.18.1\src/u8g_dev_ssd1351_128x128.c **** 	0x74,
 204:.\u8glib_arm_v1.18.1\src/u8g_dev_ssd1351_128x128.c **** 	0x78,
 205:.\u8glib_arm_v1.18.1\src/u8g_dev_ssd1351_128x128.c **** 	0x7D,
 206:.\u8glib_arm_v1.18.1\src/u8g_dev_ssd1351_128x128.c **** 	0x82,
 207:.\u8glib_arm_v1.18.1\src/u8g_dev_ssd1351_128x128.c **** 	0x87,
 208:.\u8glib_arm_v1.18.1\src/u8g_dev_ssd1351_128x128.c **** 	0x8C,
 209:.\u8glib_arm_v1.18.1\src/u8g_dev_ssd1351_128x128.c **** 	0x91,
 210:.\u8glib_arm_v1.18.1\src/u8g_dev_ssd1351_128x128.c **** 	0x96,
 211:.\u8glib_arm_v1.18.1\src/u8g_dev_ssd1351_128x128.c **** 	0x9B,
 212:.\u8glib_arm_v1.18.1\src/u8g_dev_ssd1351_128x128.c **** 	0xA0,
 213:.\u8glib_arm_v1.18.1\src/u8g_dev_ssd1351_128x128.c **** 	0xA5,
 214:.\u8glib_arm_v1.18.1\src/u8g_dev_ssd1351_128x128.c **** 	0xAA,
 215:.\u8glib_arm_v1.18.1\src/u8g_dev_ssd1351_128x128.c **** 	0xAF,
 216:.\u8glib_arm_v1.18.1\src/u8g_dev_ssd1351_128x128.c **** 	0xB4,
 217:.\u8glib_arm_v1.18.1\src/u8g_dev_ssd1351_128x128.c **** 
 218:.\u8glib_arm_v1.18.1\src/u8g_dev_ssd1351_128x128.c **** 	U8G_ESC_ADR(0),
 219:.\u8glib_arm_v1.18.1\src/u8g_dev_ssd1351_128x128.c **** 	0xaf,							/* Set Display On */
 220:.\u8glib_arm_v1.18.1\src/u8g_dev_ssd1351_128x128.c **** 	0x5c,
 221:.\u8glib_arm_v1.18.1\src/u8g_dev_ssd1351_128x128.c **** 	U8G_ESC_DLY(50),
 222:.\u8glib_arm_v1.18.1\src/u8g_dev_ssd1351_128x128.c **** 	U8G_ESC_CS(0),					/* disable chip */
 223:.\u8glib_arm_v1.18.1\src/u8g_dev_ssd1351_128x128.c **** 	U8G_ESC_ADR(1),
 224:.\u8glib_arm_v1.18.1\src/u8g_dev_ssd1351_128x128.c **** 	U8G_ESC_END						/* end of sequence */
 225:.\u8glib_arm_v1.18.1\src/u8g_dev_ssd1351_128x128.c **** };
 226:.\u8glib_arm_v1.18.1\src/u8g_dev_ssd1351_128x128.c **** 
 227:.\u8glib_arm_v1.18.1\src/u8g_dev_ssd1351_128x128.c **** 
 228:.\u8glib_arm_v1.18.1\src/u8g_dev_ssd1351_128x128.c **** /* set gpio to high */
 229:.\u8glib_arm_v1.18.1\src/u8g_dev_ssd1351_128x128.c **** static const uint8_t u8g_dev_ssd1351_128x128gh_init_seq[] PROGMEM = {
 230:.\u8glib_arm_v1.18.1\src/u8g_dev_ssd1351_128x128.c **** 	U8G_ESC_CS(0),					/* disable chip */
 231:.\u8glib_arm_v1.18.1\src/u8g_dev_ssd1351_128x128.c **** 	U8G_ESC_DLY(50),
 232:.\u8glib_arm_v1.18.1\src/u8g_dev_ssd1351_128x128.c **** 	U8G_ESC_ADR(0),					/* instruction mode */
 233:.\u8glib_arm_v1.18.1\src/u8g_dev_ssd1351_128x128.c **** 	U8G_ESC_RST(1),					/* do reset low pulse with (1*16)+2 milliseconds */
 234:.\u8glib_arm_v1.18.1\src/u8g_dev_ssd1351_128x128.c **** 	U8G_ESC_CS(1),					/* enable chip */
 235:.\u8glib_arm_v1.18.1\src/u8g_dev_ssd1351_128x128.c **** 	U8G_ESC_DLY(50),
 236:.\u8glib_arm_v1.18.1\src/u8g_dev_ssd1351_128x128.c **** 
 237:.\u8glib_arm_v1.18.1\src/u8g_dev_ssd1351_128x128.c **** 	0xfd,							/* Command Lock */
 238:.\u8glib_arm_v1.18.1\src/u8g_dev_ssd1351_128x128.c **** 	U8G_ESC_ADR(1),
 239:.\u8glib_arm_v1.18.1\src/u8g_dev_ssd1351_128x128.c **** 	0x12,						
 240:.\u8glib_arm_v1.18.1\src/u8g_dev_ssd1351_128x128.c **** 
 241:.\u8glib_arm_v1.18.1\src/u8g_dev_ssd1351_128x128.c **** 	U8G_ESC_ADR(0),					/* instruction mode */
 242:.\u8glib_arm_v1.18.1\src/u8g_dev_ssd1351_128x128.c **** 	0xfd,
 243:.\u8glib_arm_v1.18.1\src/u8g_dev_ssd1351_128x128.c **** 	U8G_ESC_ADR(1),
 244:.\u8glib_arm_v1.18.1\src/u8g_dev_ssd1351_128x128.c **** 	0xb1,							/* Command Lock */
 245:.\u8glib_arm_v1.18.1\src/u8g_dev_ssd1351_128x128.c **** 
 246:.\u8glib_arm_v1.18.1\src/u8g_dev_ssd1351_128x128.c **** 	U8G_ESC_ADR(0),					/* instruction mode */
 247:.\u8glib_arm_v1.18.1\src/u8g_dev_ssd1351_128x128.c **** 	0xae,							/* Set Display Off */
 248:.\u8glib_arm_v1.18.1\src/u8g_dev_ssd1351_128x128.c **** 
 249:.\u8glib_arm_v1.18.1\src/u8g_dev_ssd1351_128x128.c **** 	U8G_ESC_ADR(0),					/* instruction mode */
ARM GAS  C:\Users\Shiguruy\AppData\Local\Temp\ccjEOE4H.s 			page 14


 250:.\u8glib_arm_v1.18.1\src/u8g_dev_ssd1351_128x128.c **** 	0xb3,
 251:.\u8glib_arm_v1.18.1\src/u8g_dev_ssd1351_128x128.c **** 	U8G_ESC_ADR(1),
 252:.\u8glib_arm_v1.18.1\src/u8g_dev_ssd1351_128x128.c **** 	0xf1,							/* Front Clock Div */
 253:.\u8glib_arm_v1.18.1\src/u8g_dev_ssd1351_128x128.c **** 
 254:.\u8glib_arm_v1.18.1\src/u8g_dev_ssd1351_128x128.c **** 	U8G_ESC_ADR(0),					/* instruction mode */
 255:.\u8glib_arm_v1.18.1\src/u8g_dev_ssd1351_128x128.c **** 	0xca,
 256:.\u8glib_arm_v1.18.1\src/u8g_dev_ssd1351_128x128.c **** 	U8G_ESC_ADR(1),
 257:.\u8glib_arm_v1.18.1\src/u8g_dev_ssd1351_128x128.c **** 	0x7f,							/* Set Multiplex Ratio */
 258:.\u8glib_arm_v1.18.1\src/u8g_dev_ssd1351_128x128.c **** 
 259:.\u8glib_arm_v1.18.1\src/u8g_dev_ssd1351_128x128.c **** 	U8G_ESC_ADR(0),					/* instruction mode */
 260:.\u8glib_arm_v1.18.1\src/u8g_dev_ssd1351_128x128.c **** 	0xa0,
 261:.\u8glib_arm_v1.18.1\src/u8g_dev_ssd1351_128x128.c **** 	U8G_ESC_ADR(1),
 262:.\u8glib_arm_v1.18.1\src/u8g_dev_ssd1351_128x128.c **** 	0xb4,							/* Set Colour Depth */
 263:.\u8glib_arm_v1.18.1\src/u8g_dev_ssd1351_128x128.c **** 
 264:.\u8glib_arm_v1.18.1\src/u8g_dev_ssd1351_128x128.c **** 	U8G_ESC_ADR(0),					/* instruction mode */
 265:.\u8glib_arm_v1.18.1\src/u8g_dev_ssd1351_128x128.c **** 	0x15,
 266:.\u8glib_arm_v1.18.1\src/u8g_dev_ssd1351_128x128.c **** 	U8G_ESC_ADR(1),
 267:.\u8glib_arm_v1.18.1\src/u8g_dev_ssd1351_128x128.c **** 	0x00, 0x7f,						/* Set Column Address */
 268:.\u8glib_arm_v1.18.1\src/u8g_dev_ssd1351_128x128.c **** 
 269:.\u8glib_arm_v1.18.1\src/u8g_dev_ssd1351_128x128.c **** 	U8G_ESC_ADR(0),					/* instruction mode */
 270:.\u8glib_arm_v1.18.1\src/u8g_dev_ssd1351_128x128.c **** 	0x75,
 271:.\u8glib_arm_v1.18.1\src/u8g_dev_ssd1351_128x128.c **** 	U8G_ESC_ADR(1),
 272:.\u8glib_arm_v1.18.1\src/u8g_dev_ssd1351_128x128.c **** 	0x00, 0x7f,						/* Set Row Address */
 273:.\u8glib_arm_v1.18.1\src/u8g_dev_ssd1351_128x128.c **** 
 274:.\u8glib_arm_v1.18.1\src/u8g_dev_ssd1351_128x128.c **** 	U8G_ESC_ADR(0),					/* instruction mode */
 275:.\u8glib_arm_v1.18.1\src/u8g_dev_ssd1351_128x128.c **** 	0xa1,
 276:.\u8glib_arm_v1.18.1\src/u8g_dev_ssd1351_128x128.c **** 	U8G_ESC_ADR(1),
 277:.\u8glib_arm_v1.18.1\src/u8g_dev_ssd1351_128x128.c **** 	0x00,							/* Set Display Start Line */
 278:.\u8glib_arm_v1.18.1\src/u8g_dev_ssd1351_128x128.c **** 
 279:.\u8glib_arm_v1.18.1\src/u8g_dev_ssd1351_128x128.c **** 	U8G_ESC_ADR(0),					/* instruction mode */
 280:.\u8glib_arm_v1.18.1\src/u8g_dev_ssd1351_128x128.c **** 	0xa2,
 281:.\u8glib_arm_v1.18.1\src/u8g_dev_ssd1351_128x128.c **** 	U8G_ESC_ADR(1),
 282:.\u8glib_arm_v1.18.1\src/u8g_dev_ssd1351_128x128.c **** 	0x00,							/* Set Display Offset */
 283:.\u8glib_arm_v1.18.1\src/u8g_dev_ssd1351_128x128.c **** 
 284:.\u8glib_arm_v1.18.1\src/u8g_dev_ssd1351_128x128.c **** 	U8G_ESC_ADR(0),					/* instruction mode */
 285:.\u8glib_arm_v1.18.1\src/u8g_dev_ssd1351_128x128.c **** 	0xb5,
 286:.\u8glib_arm_v1.18.1\src/u8g_dev_ssd1351_128x128.c **** 	U8G_ESC_ADR(1),
 287:.\u8glib_arm_v1.18.1\src/u8g_dev_ssd1351_128x128.c **** 	0x03,							/* Set GPIO to High Level */
 288:.\u8glib_arm_v1.18.1\src/u8g_dev_ssd1351_128x128.c **** 
 289:.\u8glib_arm_v1.18.1\src/u8g_dev_ssd1351_128x128.c **** 	U8G_ESC_ADR(0),					/* instruction mode */
 290:.\u8glib_arm_v1.18.1\src/u8g_dev_ssd1351_128x128.c **** 	0xab,
 291:.\u8glib_arm_v1.18.1\src/u8g_dev_ssd1351_128x128.c **** 	U8G_ESC_ADR(1),
 292:.\u8glib_arm_v1.18.1\src/u8g_dev_ssd1351_128x128.c **** 	0x01,							/* Set Function Selection */
 293:.\u8glib_arm_v1.18.1\src/u8g_dev_ssd1351_128x128.c **** 
 294:.\u8glib_arm_v1.18.1\src/u8g_dev_ssd1351_128x128.c **** 	U8G_ESC_ADR(0),					/* instruction mode */
 295:.\u8glib_arm_v1.18.1\src/u8g_dev_ssd1351_128x128.c **** 	0xb1,
 296:.\u8glib_arm_v1.18.1\src/u8g_dev_ssd1351_128x128.c **** 	U8G_ESC_ADR(1),
 297:.\u8glib_arm_v1.18.1\src/u8g_dev_ssd1351_128x128.c **** 	0x32,							/* Set Phase Length */
 298:.\u8glib_arm_v1.18.1\src/u8g_dev_ssd1351_128x128.c **** 
 299:.\u8glib_arm_v1.18.1\src/u8g_dev_ssd1351_128x128.c **** 	U8G_ESC_ADR(0),					/* instruction mode */
 300:.\u8glib_arm_v1.18.1\src/u8g_dev_ssd1351_128x128.c **** 	0xb4,
 301:.\u8glib_arm_v1.18.1\src/u8g_dev_ssd1351_128x128.c **** 	U8G_ESC_ADR(1),
 302:.\u8glib_arm_v1.18.1\src/u8g_dev_ssd1351_128x128.c **** 	0xa0, 0xb5, 0x55,				/* Set Segment Low Voltage */
 303:.\u8glib_arm_v1.18.1\src/u8g_dev_ssd1351_128x128.c **** 
 304:.\u8glib_arm_v1.18.1\src/u8g_dev_ssd1351_128x128.c **** 	U8G_ESC_ADR(0),					/* instruction mode */
 305:.\u8glib_arm_v1.18.1\src/u8g_dev_ssd1351_128x128.c **** 	0xbb,
 306:.\u8glib_arm_v1.18.1\src/u8g_dev_ssd1351_128x128.c **** 	U8G_ESC_ADR(1),
ARM GAS  C:\Users\Shiguruy\AppData\Local\Temp\ccjEOE4H.s 			page 15


 307:.\u8glib_arm_v1.18.1\src/u8g_dev_ssd1351_128x128.c **** 	0x17,							/* Set Precharge Voltage */
 308:.\u8glib_arm_v1.18.1\src/u8g_dev_ssd1351_128x128.c **** 
 309:.\u8glib_arm_v1.18.1\src/u8g_dev_ssd1351_128x128.c **** 	U8G_ESC_ADR(0),					/* instruction mode */
 310:.\u8glib_arm_v1.18.1\src/u8g_dev_ssd1351_128x128.c **** 	0xbe,
 311:.\u8glib_arm_v1.18.1\src/u8g_dev_ssd1351_128x128.c **** 	U8G_ESC_ADR(1),
 312:.\u8glib_arm_v1.18.1\src/u8g_dev_ssd1351_128x128.c **** 	0x05,							/* Set VComH Voltage */
 313:.\u8glib_arm_v1.18.1\src/u8g_dev_ssd1351_128x128.c **** 
 314:.\u8glib_arm_v1.18.1\src/u8g_dev_ssd1351_128x128.c **** 	U8G_ESC_ADR(0),					/* instruction mode */
 315:.\u8glib_arm_v1.18.1\src/u8g_dev_ssd1351_128x128.c **** 	0xc1,
 316:.\u8glib_arm_v1.18.1\src/u8g_dev_ssd1351_128x128.c **** 	U8G_ESC_ADR(1),
 317:.\u8glib_arm_v1.18.1\src/u8g_dev_ssd1351_128x128.c **** 	0xc8, 0x80, 0xc8,				/* Set Contrast */
 318:.\u8glib_arm_v1.18.1\src/u8g_dev_ssd1351_128x128.c **** 
 319:.\u8glib_arm_v1.18.1\src/u8g_dev_ssd1351_128x128.c **** 	U8G_ESC_ADR(0),					/* instruction mode */
 320:.\u8glib_arm_v1.18.1\src/u8g_dev_ssd1351_128x128.c **** 	0xc7,
 321:.\u8glib_arm_v1.18.1\src/u8g_dev_ssd1351_128x128.c **** 	U8G_ESC_ADR(1),
 322:.\u8glib_arm_v1.18.1\src/u8g_dev_ssd1351_128x128.c **** 	0x0f,							/* Set Master Contrast */
 323:.\u8glib_arm_v1.18.1\src/u8g_dev_ssd1351_128x128.c **** 
 324:.\u8glib_arm_v1.18.1\src/u8g_dev_ssd1351_128x128.c **** 	U8G_ESC_ADR(0),					/* instruction mode */
 325:.\u8glib_arm_v1.18.1\src/u8g_dev_ssd1351_128x128.c **** 	0xb6,
 326:.\u8glib_arm_v1.18.1\src/u8g_dev_ssd1351_128x128.c **** 	U8G_ESC_ADR(1),
 327:.\u8glib_arm_v1.18.1\src/u8g_dev_ssd1351_128x128.c **** 	0x01,							/* Set Second Precharge Period */
 328:.\u8glib_arm_v1.18.1\src/u8g_dev_ssd1351_128x128.c **** 
 329:.\u8glib_arm_v1.18.1\src/u8g_dev_ssd1351_128x128.c **** 	U8G_ESC_ADR(0),					/* instruction mode */
 330:.\u8glib_arm_v1.18.1\src/u8g_dev_ssd1351_128x128.c **** 	0xa6,							/* Set Display Mode Reset */
 331:.\u8glib_arm_v1.18.1\src/u8g_dev_ssd1351_128x128.c **** 
 332:.\u8glib_arm_v1.18.1\src/u8g_dev_ssd1351_128x128.c **** 
 333:.\u8glib_arm_v1.18.1\src/u8g_dev_ssd1351_128x128.c **** 	U8G_ESC_ADR(0),					/* instruction mode */
 334:.\u8glib_arm_v1.18.1\src/u8g_dev_ssd1351_128x128.c **** 	0xb8,							/* Set CMD Grayscale Lookup */
 335:.\u8glib_arm_v1.18.1\src/u8g_dev_ssd1351_128x128.c **** 	U8G_ESC_ADR(1),
 336:.\u8glib_arm_v1.18.1\src/u8g_dev_ssd1351_128x128.c **** 	0x05,
 337:.\u8glib_arm_v1.18.1\src/u8g_dev_ssd1351_128x128.c **** 	0x06,
 338:.\u8glib_arm_v1.18.1\src/u8g_dev_ssd1351_128x128.c **** 	0x07,
 339:.\u8glib_arm_v1.18.1\src/u8g_dev_ssd1351_128x128.c **** 	0x08,
 340:.\u8glib_arm_v1.18.1\src/u8g_dev_ssd1351_128x128.c **** 	0x09,
 341:.\u8glib_arm_v1.18.1\src/u8g_dev_ssd1351_128x128.c **** 	0x0a,
 342:.\u8glib_arm_v1.18.1\src/u8g_dev_ssd1351_128x128.c **** 	0x0b,
 343:.\u8glib_arm_v1.18.1\src/u8g_dev_ssd1351_128x128.c **** 	0x0c,
 344:.\u8glib_arm_v1.18.1\src/u8g_dev_ssd1351_128x128.c **** 	0x0D,
 345:.\u8glib_arm_v1.18.1\src/u8g_dev_ssd1351_128x128.c **** 	0x0E,
 346:.\u8glib_arm_v1.18.1\src/u8g_dev_ssd1351_128x128.c **** 	0x0F,
 347:.\u8glib_arm_v1.18.1\src/u8g_dev_ssd1351_128x128.c **** 	0x10,
 348:.\u8glib_arm_v1.18.1\src/u8g_dev_ssd1351_128x128.c **** 	0x11,
 349:.\u8glib_arm_v1.18.1\src/u8g_dev_ssd1351_128x128.c **** 	0x12,
 350:.\u8glib_arm_v1.18.1\src/u8g_dev_ssd1351_128x128.c **** 	0x13,
 351:.\u8glib_arm_v1.18.1\src/u8g_dev_ssd1351_128x128.c **** 	0x14,
 352:.\u8glib_arm_v1.18.1\src/u8g_dev_ssd1351_128x128.c **** 	0x15,
 353:.\u8glib_arm_v1.18.1\src/u8g_dev_ssd1351_128x128.c **** 	0x16,
 354:.\u8glib_arm_v1.18.1\src/u8g_dev_ssd1351_128x128.c **** 	0x18,
 355:.\u8glib_arm_v1.18.1\src/u8g_dev_ssd1351_128x128.c **** 	0x1a,
 356:.\u8glib_arm_v1.18.1\src/u8g_dev_ssd1351_128x128.c **** 	0x1b,
 357:.\u8glib_arm_v1.18.1\src/u8g_dev_ssd1351_128x128.c **** 	0x1C,
 358:.\u8glib_arm_v1.18.1\src/u8g_dev_ssd1351_128x128.c **** 	0x1D,
 359:.\u8glib_arm_v1.18.1\src/u8g_dev_ssd1351_128x128.c **** 	0x1F,
 360:.\u8glib_arm_v1.18.1\src/u8g_dev_ssd1351_128x128.c **** 	0x21,
 361:.\u8glib_arm_v1.18.1\src/u8g_dev_ssd1351_128x128.c **** 	0x23,
 362:.\u8glib_arm_v1.18.1\src/u8g_dev_ssd1351_128x128.c **** 	0x25,
 363:.\u8glib_arm_v1.18.1\src/u8g_dev_ssd1351_128x128.c **** 	0x27,
ARM GAS  C:\Users\Shiguruy\AppData\Local\Temp\ccjEOE4H.s 			page 16


 364:.\u8glib_arm_v1.18.1\src/u8g_dev_ssd1351_128x128.c **** 	0x2A,
 365:.\u8glib_arm_v1.18.1\src/u8g_dev_ssd1351_128x128.c **** 	0x2D,
 366:.\u8glib_arm_v1.18.1\src/u8g_dev_ssd1351_128x128.c **** 	0x30,
 367:.\u8glib_arm_v1.18.1\src/u8g_dev_ssd1351_128x128.c **** 	0x33,
 368:.\u8glib_arm_v1.18.1\src/u8g_dev_ssd1351_128x128.c **** 	0x36,
 369:.\u8glib_arm_v1.18.1\src/u8g_dev_ssd1351_128x128.c **** 	0x39,
 370:.\u8glib_arm_v1.18.1\src/u8g_dev_ssd1351_128x128.c **** 	0x3C,
 371:.\u8glib_arm_v1.18.1\src/u8g_dev_ssd1351_128x128.c **** 	0x3F,
 372:.\u8glib_arm_v1.18.1\src/u8g_dev_ssd1351_128x128.c **** 	0x42,
 373:.\u8glib_arm_v1.18.1\src/u8g_dev_ssd1351_128x128.c **** 	0x45,
 374:.\u8glib_arm_v1.18.1\src/u8g_dev_ssd1351_128x128.c **** 	0x48,
 375:.\u8glib_arm_v1.18.1\src/u8g_dev_ssd1351_128x128.c **** 	0x4C,
 376:.\u8glib_arm_v1.18.1\src/u8g_dev_ssd1351_128x128.c **** 	0x50,
 377:.\u8glib_arm_v1.18.1\src/u8g_dev_ssd1351_128x128.c **** 	0x54,
 378:.\u8glib_arm_v1.18.1\src/u8g_dev_ssd1351_128x128.c **** 	0x58,
 379:.\u8glib_arm_v1.18.1\src/u8g_dev_ssd1351_128x128.c **** 	0x5C,
 380:.\u8glib_arm_v1.18.1\src/u8g_dev_ssd1351_128x128.c **** 	0x60,
 381:.\u8glib_arm_v1.18.1\src/u8g_dev_ssd1351_128x128.c **** 	0x64,
 382:.\u8glib_arm_v1.18.1\src/u8g_dev_ssd1351_128x128.c **** 	0x68,
 383:.\u8glib_arm_v1.18.1\src/u8g_dev_ssd1351_128x128.c **** 	0x6C,
 384:.\u8glib_arm_v1.18.1\src/u8g_dev_ssd1351_128x128.c **** 	0x70,
 385:.\u8glib_arm_v1.18.1\src/u8g_dev_ssd1351_128x128.c **** 	0x74,
 386:.\u8glib_arm_v1.18.1\src/u8g_dev_ssd1351_128x128.c **** 	0x78,
 387:.\u8glib_arm_v1.18.1\src/u8g_dev_ssd1351_128x128.c **** 	0x7D,
 388:.\u8glib_arm_v1.18.1\src/u8g_dev_ssd1351_128x128.c **** 	0x82,
 389:.\u8glib_arm_v1.18.1\src/u8g_dev_ssd1351_128x128.c **** 	0x87,
 390:.\u8glib_arm_v1.18.1\src/u8g_dev_ssd1351_128x128.c **** 	0x8C,
 391:.\u8glib_arm_v1.18.1\src/u8g_dev_ssd1351_128x128.c **** 	0x91,
 392:.\u8glib_arm_v1.18.1\src/u8g_dev_ssd1351_128x128.c **** 	0x96,
 393:.\u8glib_arm_v1.18.1\src/u8g_dev_ssd1351_128x128.c **** 	0x9B,
 394:.\u8glib_arm_v1.18.1\src/u8g_dev_ssd1351_128x128.c **** 	0xA0,
 395:.\u8glib_arm_v1.18.1\src/u8g_dev_ssd1351_128x128.c **** 	0xA5,
 396:.\u8glib_arm_v1.18.1\src/u8g_dev_ssd1351_128x128.c **** 	0xAA,
 397:.\u8glib_arm_v1.18.1\src/u8g_dev_ssd1351_128x128.c **** 	0xAF,
 398:.\u8glib_arm_v1.18.1\src/u8g_dev_ssd1351_128x128.c **** 	0xB4,
 399:.\u8glib_arm_v1.18.1\src/u8g_dev_ssd1351_128x128.c **** 
 400:.\u8glib_arm_v1.18.1\src/u8g_dev_ssd1351_128x128.c **** 	U8G_ESC_ADR(0),
 401:.\u8glib_arm_v1.18.1\src/u8g_dev_ssd1351_128x128.c **** 	0xaf,							/* Set Display On */
 402:.\u8glib_arm_v1.18.1\src/u8g_dev_ssd1351_128x128.c **** 	0x5c,
 403:.\u8glib_arm_v1.18.1\src/u8g_dev_ssd1351_128x128.c **** 	U8G_ESC_DLY(50),
 404:.\u8glib_arm_v1.18.1\src/u8g_dev_ssd1351_128x128.c **** 	U8G_ESC_CS(0),					/* disable chip */
 405:.\u8glib_arm_v1.18.1\src/u8g_dev_ssd1351_128x128.c **** 	U8G_ESC_ADR(1),
 406:.\u8glib_arm_v1.18.1\src/u8g_dev_ssd1351_128x128.c **** 	U8G_ESC_END						/* end of sequence */
 407:.\u8glib_arm_v1.18.1\src/u8g_dev_ssd1351_128x128.c **** };
 408:.\u8glib_arm_v1.18.1\src/u8g_dev_ssd1351_128x128.c **** 
 409:.\u8glib_arm_v1.18.1\src/u8g_dev_ssd1351_128x128.c **** #define u8g_dev_ssd1351_128x128_init_seq u8g_dev_ssd1351_128x128_init_seq
 410:.\u8glib_arm_v1.18.1\src/u8g_dev_ssd1351_128x128.c **** 
 411:.\u8glib_arm_v1.18.1\src/u8g_dev_ssd1351_128x128.c **** static const uint8_t u8g_dev_ssd1351_128x128_column_seq[] PROGMEM = {
 412:.\u8glib_arm_v1.18.1\src/u8g_dev_ssd1351_128x128.c **** 	U8G_ESC_CS(1),
 413:.\u8glib_arm_v1.18.1\src/u8g_dev_ssd1351_128x128.c **** 	U8G_ESC_ADR(0), 0x15,
 414:.\u8glib_arm_v1.18.1\src/u8g_dev_ssd1351_128x128.c **** 	U8G_ESC_ADR(1), 0x00, 0x7f,
 415:.\u8glib_arm_v1.18.1\src/u8g_dev_ssd1351_128x128.c **** 	U8G_ESC_ADR(0), 0x75,
 416:.\u8glib_arm_v1.18.1\src/u8g_dev_ssd1351_128x128.c **** 	U8G_ESC_ADR(1), 0x00, 0x7f,
 417:.\u8glib_arm_v1.18.1\src/u8g_dev_ssd1351_128x128.c **** 	U8G_ESC_ADR(0), 0x5c,
 418:.\u8glib_arm_v1.18.1\src/u8g_dev_ssd1351_128x128.c **** 	U8G_ESC_ADR(1),
 419:.\u8glib_arm_v1.18.1\src/u8g_dev_ssd1351_128x128.c **** 	U8G_ESC_CS(0),
 420:.\u8glib_arm_v1.18.1\src/u8g_dev_ssd1351_128x128.c **** 	U8G_ESC_END
ARM GAS  C:\Users\Shiguruy\AppData\Local\Temp\ccjEOE4H.s 			page 17


 421:.\u8glib_arm_v1.18.1\src/u8g_dev_ssd1351_128x128.c **** };
 422:.\u8glib_arm_v1.18.1\src/u8g_dev_ssd1351_128x128.c **** 
 423:.\u8glib_arm_v1.18.1\src/u8g_dev_ssd1351_128x128.c **** #define RGB332_STREAM_BYTES 8
 424:.\u8glib_arm_v1.18.1\src/u8g_dev_ssd1351_128x128.c **** static uint8_t u8g_ssd1351_stream_bytes[RGB332_STREAM_BYTES*3];
 425:.\u8glib_arm_v1.18.1\src/u8g_dev_ssd1351_128x128.c **** 
 426:.\u8glib_arm_v1.18.1\src/u8g_dev_ssd1351_128x128.c **** void u8g_ssd1351_to_stream(uint8_t *ptr)
 427:.\u8glib_arm_v1.18.1\src/u8g_dev_ssd1351_128x128.c **** {
 489              		.loc 1 427 0
 490              		.cfi_startproc
 491              		@ args = 0, pretend = 0, frame = 24
 492              		@ frame_needed = 1, uses_anonymous_args = 0
 493              		@ link register save eliminated.
 494 0000 80B4     		push	{r7}
 495              		.cfi_def_cfa_offset 4
 496              		.cfi_offset 7, -4
 497 0002 87B0     		sub	sp, sp, #28
 498              		.cfi_def_cfa_offset 32
 499 0004 00AF     		add	r7, sp, #0
 500              		.cfi_def_cfa_register 7
 501 0006 7860     		str	r0, [r7, #4]
 428:.\u8glib_arm_v1.18.1\src/u8g_dev_ssd1351_128x128.c ****   uint8_t cnt = RGB332_STREAM_BYTES;
 502              		.loc 1 428 0
 503 0008 0823     		movs	r3, #8
 504 000a FB75     		strb	r3, [r7, #23]
 429:.\u8glib_arm_v1.18.1\src/u8g_dev_ssd1351_128x128.c ****   uint8_t val;
 430:.\u8glib_arm_v1.18.1\src/u8g_dev_ssd1351_128x128.c ****   uint8_t *dest = u8g_ssd1351_stream_bytes;
 505              		.loc 1 430 0
 506 000c 184B     		ldr	r3, .L4
 507 000e 3B61     		str	r3, [r7, #16]
 431:.\u8glib_arm_v1.18.1\src/u8g_dev_ssd1351_128x128.c ****   for( cnt = 0; cnt < RGB332_STREAM_BYTES; cnt++ )
 508              		.loc 1 431 0
 509 0010 0023     		movs	r3, #0
 510 0012 FB75     		strb	r3, [r7, #23]
 511 0014 24E0     		b	.L2
 512              	.L3:
 432:.\u8glib_arm_v1.18.1\src/u8g_dev_ssd1351_128x128.c ****   {
 433:.\u8glib_arm_v1.18.1\src/u8g_dev_ssd1351_128x128.c ****       val = *ptr++;
 513              		.loc 1 433 0 discriminator 3
 514 0016 7B68     		ldr	r3, [r7, #4]
 515 0018 5A1C     		adds	r2, r3, #1
 516 001a 7A60     		str	r2, [r7, #4]
 517 001c 1B78     		ldrb	r3, [r3]
 518 001e FB73     		strb	r3, [r7, #15]
 434:.\u8glib_arm_v1.18.1\src/u8g_dev_ssd1351_128x128.c ****       *dest++ = ((val & 0xe0) >> 2);
 519              		.loc 1 434 0 discriminator 3
 520 0020 3B69     		ldr	r3, [r7, #16]
 521 0022 5A1C     		adds	r2, r3, #1
 522 0024 3A61     		str	r2, [r7, #16]
 523 0026 FA7B     		ldrb	r2, [r7, #15]	@ zero_extendqisi2
 524 0028 02F0E002 		and	r2, r2, #224
 525 002c 9210     		asrs	r2, r2, #2
 526 002e D2B2     		uxtb	r2, r2
 527 0030 1A70     		strb	r2, [r3]
 435:.\u8glib_arm_v1.18.1\src/u8g_dev_ssd1351_128x128.c ****       *dest++ = ((val & 0x1c) << 1);
 528              		.loc 1 435 0 discriminator 3
 529 0032 3B69     		ldr	r3, [r7, #16]
 530 0034 5A1C     		adds	r2, r3, #1
ARM GAS  C:\Users\Shiguruy\AppData\Local\Temp\ccjEOE4H.s 			page 18


 531 0036 3A61     		str	r2, [r7, #16]
 532 0038 FA7B     		ldrb	r2, [r7, #15]
 533 003a 02F01C02 		and	r2, r2, #28
 534 003e D2B2     		uxtb	r2, r2
 535 0040 5200     		lsls	r2, r2, #1
 536 0042 D2B2     		uxtb	r2, r2
 537 0044 1A70     		strb	r2, [r3]
 436:.\u8glib_arm_v1.18.1\src/u8g_dev_ssd1351_128x128.c ****       *dest++ = ((val & 0x03) << 4);
 538              		.loc 1 436 0 discriminator 3
 539 0046 3B69     		ldr	r3, [r7, #16]
 540 0048 5A1C     		adds	r2, r3, #1
 541 004a 3A61     		str	r2, [r7, #16]
 542 004c FA7B     		ldrb	r2, [r7, #15]
 543 004e 02F00302 		and	r2, r2, #3
 544 0052 D2B2     		uxtb	r2, r2
 545 0054 1201     		lsls	r2, r2, #4
 546 0056 D2B2     		uxtb	r2, r2
 547 0058 1A70     		strb	r2, [r3]
 431:.\u8glib_arm_v1.18.1\src/u8g_dev_ssd1351_128x128.c ****   {
 548              		.loc 1 431 0 discriminator 3
 549 005a FB7D     		ldrb	r3, [r7, #23]	@ zero_extendqisi2
 550 005c 0133     		adds	r3, r3, #1
 551 005e FB75     		strb	r3, [r7, #23]
 552              	.L2:
 431:.\u8glib_arm_v1.18.1\src/u8g_dev_ssd1351_128x128.c ****   {
 553              		.loc 1 431 0 is_stmt 0 discriminator 1
 554 0060 FB7D     		ldrb	r3, [r7, #23]	@ zero_extendqisi2
 555 0062 072B     		cmp	r3, #7
 556 0064 D7D9     		bls	.L3
 437:.\u8glib_arm_v1.18.1\src/u8g_dev_ssd1351_128x128.c ****   } 
 438:.\u8glib_arm_v1.18.1\src/u8g_dev_ssd1351_128x128.c **** }
 557              		.loc 1 438 0 is_stmt 1
 558 0066 1C37     		adds	r7, r7, #28
 559              		.cfi_def_cfa_offset 4
 560 0068 BD46     		mov	sp, r7
 561              		.cfi_def_cfa_register 13
 562              		@ sp needed
 563 006a 5DF8047B 		ldr	r7, [sp], #4
 564              		.cfi_restore 7
 565              		.cfi_def_cfa_offset 0
 566 006e 7047     		bx	lr
 567              	.L5:
 568              		.align	2
 569              	.L4:
 570 0070 00000000 		.word	u8g_ssd1351_stream_bytes
 571              		.cfi_endproc
 572              	.LFE0:
 573              		.size	u8g_ssd1351_to_stream, .-u8g_ssd1351_to_stream
 574              		.section	.text.u8g_dev_ssd1351_128x128_332_fn,"ax",%progbits
 575              		.align	2
 576              		.global	u8g_dev_ssd1351_128x128_332_fn
 577              		.thumb
 578              		.thumb_func
 579              		.type	u8g_dev_ssd1351_128x128_332_fn, %function
 580              	u8g_dev_ssd1351_128x128_332_fn:
 581              	.LFB1:
 439:.\u8glib_arm_v1.18.1\src/u8g_dev_ssd1351_128x128.c **** 
ARM GAS  C:\Users\Shiguruy\AppData\Local\Temp\ccjEOE4H.s 			page 19


 440:.\u8glib_arm_v1.18.1\src/u8g_dev_ssd1351_128x128.c **** 
 441:.\u8glib_arm_v1.18.1\src/u8g_dev_ssd1351_128x128.c **** #ifdef OBSOLETE
 442:.\u8glib_arm_v1.18.1\src/u8g_dev_ssd1351_128x128.c **** // Convert the internal RGB 332 to R
 443:.\u8glib_arm_v1.18.1\src/u8g_dev_ssd1351_128x128.c **** static uint8_t u8g_ssd1351_get_r(uint8_t colour)
 444:.\u8glib_arm_v1.18.1\src/u8g_dev_ssd1351_128x128.c **** {
 445:.\u8glib_arm_v1.18.1\src/u8g_dev_ssd1351_128x128.c **** 	//return ((colour & 0xe0) >> 5) * 9;
 446:.\u8glib_arm_v1.18.1\src/u8g_dev_ssd1351_128x128.c **** 	//return ((colour & 0xe0) >> 5) * 8;
 447:.\u8glib_arm_v1.18.1\src/u8g_dev_ssd1351_128x128.c **** 	return ((colour & 0xe0) >> 2) ;
 448:.\u8glib_arm_v1.18.1\src/u8g_dev_ssd1351_128x128.c **** }
 449:.\u8glib_arm_v1.18.1\src/u8g_dev_ssd1351_128x128.c **** 
 450:.\u8glib_arm_v1.18.1\src/u8g_dev_ssd1351_128x128.c **** // Convert the internal RGB 332 to G
 451:.\u8glib_arm_v1.18.1\src/u8g_dev_ssd1351_128x128.c **** static uint8_t u8g_ssd1351_get_g(uint8_t colour)
 452:.\u8glib_arm_v1.18.1\src/u8g_dev_ssd1351_128x128.c **** {
 453:.\u8glib_arm_v1.18.1\src/u8g_dev_ssd1351_128x128.c **** 	//return ((colour & 0x1c) >> 2) * 9;
 454:.\u8glib_arm_v1.18.1\src/u8g_dev_ssd1351_128x128.c **** 	//return ((colour & 0x1c) >> 2) * 8;
 455:.\u8glib_arm_v1.18.1\src/u8g_dev_ssd1351_128x128.c **** 	return ((colour & 0x1c) << 1);
 456:.\u8glib_arm_v1.18.1\src/u8g_dev_ssd1351_128x128.c **** }
 457:.\u8glib_arm_v1.18.1\src/u8g_dev_ssd1351_128x128.c **** 
 458:.\u8glib_arm_v1.18.1\src/u8g_dev_ssd1351_128x128.c **** // Convert the internal RGB 332 to B
 459:.\u8glib_arm_v1.18.1\src/u8g_dev_ssd1351_128x128.c **** static uint8_t u8g_ssd1351_get_b(uint8_t colour)
 460:.\u8glib_arm_v1.18.1\src/u8g_dev_ssd1351_128x128.c **** {
 461:.\u8glib_arm_v1.18.1\src/u8g_dev_ssd1351_128x128.c **** 	//return (colour & 0x03) * 21;
 462:.\u8glib_arm_v1.18.1\src/u8g_dev_ssd1351_128x128.c **** 	return (colour & 0x03) * 16;
 463:.\u8glib_arm_v1.18.1\src/u8g_dev_ssd1351_128x128.c **** }
 464:.\u8glib_arm_v1.18.1\src/u8g_dev_ssd1351_128x128.c **** #endif
 465:.\u8glib_arm_v1.18.1\src/u8g_dev_ssd1351_128x128.c **** 
 466:.\u8glib_arm_v1.18.1\src/u8g_dev_ssd1351_128x128.c **** 
 467:.\u8glib_arm_v1.18.1\src/u8g_dev_ssd1351_128x128.c **** uint8_t u8g_dev_ssd1351_128x128_332_fn(u8g_t *u8g, u8g_dev_t *dev, uint8_t msg, void *arg)
 468:.\u8glib_arm_v1.18.1\src/u8g_dev_ssd1351_128x128.c **** {
 582              		.loc 1 468 0
 583              		.cfi_startproc
 584              		@ args = 0, pretend = 0, frame = 32
 585              		@ frame_needed = 1, uses_anonymous_args = 0
 586 0000 80B5     		push	{r7, lr}
 587              		.cfi_def_cfa_offset 8
 588              		.cfi_offset 7, -8
 589              		.cfi_offset 14, -4
 590 0002 88B0     		sub	sp, sp, #32
 591              		.cfi_def_cfa_offset 40
 592 0004 00AF     		add	r7, sp, #0
 593              		.cfi_def_cfa_register 7
 594 0006 F860     		str	r0, [r7, #12]
 595 0008 B960     		str	r1, [r7, #8]
 596 000a 3B60     		str	r3, [r7]
 597 000c 1346     		mov	r3, r2
 598 000e FB71     		strb	r3, [r7, #7]
 469:.\u8glib_arm_v1.18.1\src/u8g_dev_ssd1351_128x128.c **** //	u8g_pb_t *pb = (u8g_pb_t *)(dev->dev_mem);
 470:.\u8glib_arm_v1.18.1\src/u8g_dev_ssd1351_128x128.c **** 
 471:.\u8glib_arm_v1.18.1\src/u8g_dev_ssd1351_128x128.c **** 	switch(msg)
 599              		.loc 1 471 0
 600 0010 FB79     		ldrb	r3, [r7, #7]	@ zero_extendqisi2
 601 0012 142B     		cmp	r3, #20
 602 0014 15D0     		beq	.L8
 603 0016 142B     		cmp	r3, #20
 604 0018 03DC     		bgt	.L9
 605 001a 0A2B     		cmp	r3, #10
 606 001c 06D0     		beq	.L10
ARM GAS  C:\Users\Shiguruy\AppData\Local\Temp\ccjEOE4H.s 			page 20


 607 001e 0B2B     		cmp	r3, #11
 472:.\u8glib_arm_v1.18.1\src/u8g_dev_ssd1351_128x128.c **** 	{
 473:.\u8glib_arm_v1.18.1\src/u8g_dev_ssd1351_128x128.c **** 	case U8G_DEV_MSG_INIT:
 474:.\u8glib_arm_v1.18.1\src/u8g_dev_ssd1351_128x128.c **** 		u8g_InitCom(u8g, dev, U8G_SPI_CLK_CYCLE_50NS);
 475:.\u8glib_arm_v1.18.1\src/u8g_dev_ssd1351_128x128.c **** 		u8g_WriteEscSeqP(u8g, dev, u8g_dev_ssd1351_128x128_init_seq);
 476:.\u8glib_arm_v1.18.1\src/u8g_dev_ssd1351_128x128.c **** 		break;
 477:.\u8glib_arm_v1.18.1\src/u8g_dev_ssd1351_128x128.c **** 
 478:.\u8glib_arm_v1.18.1\src/u8g_dev_ssd1351_128x128.c **** 	case U8G_DEV_MSG_STOP:
 479:.\u8glib_arm_v1.18.1\src/u8g_dev_ssd1351_128x128.c **** 		break;
 608              		.loc 1 479 0
 609 0020 54E0     		b	.L7
 610              	.L9:
 471:.\u8glib_arm_v1.18.1\src/u8g_dev_ssd1351_128x128.c **** 	{
 611              		.loc 1 471 0
 612 0022 152B     		cmp	r3, #21
 613 0024 13D0     		beq	.L12
 614 0026 482B     		cmp	r3, #72
 615 0028 4ED0     		beq	.L13
 616 002a 4FE0     		b	.L7
 617              	.L10:
 474:.\u8glib_arm_v1.18.1\src/u8g_dev_ssd1351_128x128.c **** 		u8g_WriteEscSeqP(u8g, dev, u8g_dev_ssd1351_128x128_init_seq);
 618              		.loc 1 474 0
 619 002c F868     		ldr	r0, [r7, #12]
 620 002e B968     		ldr	r1, [r7, #8]
 621 0030 0122     		movs	r2, #1
 622 0032 FFF7FEFF 		bl	u8g_InitCom
 475:.\u8glib_arm_v1.18.1\src/u8g_dev_ssd1351_128x128.c **** 		break;
 623              		.loc 1 475 0
 624 0036 F868     		ldr	r0, [r7, #12]
 625 0038 B968     		ldr	r1, [r7, #8]
 626 003a 2A4A     		ldr	r2, .L19
 627 003c FFF7FEFF 		bl	u8g_WriteEscSeqP
 476:.\u8glib_arm_v1.18.1\src/u8g_dev_ssd1351_128x128.c **** 
 628              		.loc 1 476 0
 629 0040 44E0     		b	.L7
 630              	.L8:
 480:.\u8glib_arm_v1.18.1\src/u8g_dev_ssd1351_128x128.c **** 
 481:.\u8glib_arm_v1.18.1\src/u8g_dev_ssd1351_128x128.c **** 	case U8G_DEV_MSG_PAGE_FIRST:
 482:.\u8glib_arm_v1.18.1\src/u8g_dev_ssd1351_128x128.c **** 		u8g_WriteEscSeqP(u8g, dev, u8g_dev_ssd1351_128x128_column_seq);
 631              		.loc 1 482 0
 632 0042 F868     		ldr	r0, [r7, #12]
 633 0044 B968     		ldr	r1, [r7, #8]
 634 0046 284A     		ldr	r2, .L19+4
 635 0048 FFF7FEFF 		bl	u8g_WriteEscSeqP
 483:.\u8glib_arm_v1.18.1\src/u8g_dev_ssd1351_128x128.c **** 		break;
 636              		.loc 1 483 0
 637 004c 3EE0     		b	.L7
 638              	.L12:
 639              	.LBB2:
 484:.\u8glib_arm_v1.18.1\src/u8g_dev_ssd1351_128x128.c **** 
 485:.\u8glib_arm_v1.18.1\src/u8g_dev_ssd1351_128x128.c **** 	case U8G_DEV_MSG_PAGE_NEXT:
 486:.\u8glib_arm_v1.18.1\src/u8g_dev_ssd1351_128x128.c **** 		{
 487:.\u8glib_arm_v1.18.1\src/u8g_dev_ssd1351_128x128.c **** 			u8g_uint_t x;
 488:.\u8glib_arm_v1.18.1\src/u8g_dev_ssd1351_128x128.c **** 			uint8_t page_height;
 489:.\u8glib_arm_v1.18.1\src/u8g_dev_ssd1351_128x128.c **** 			uint8_t i;
 490:.\u8glib_arm_v1.18.1\src/u8g_dev_ssd1351_128x128.c **** 			u8g_pb_t *pb = (u8g_pb_t *)(dev->dev_mem);
 640              		.loc 1 490 0
ARM GAS  C:\Users\Shiguruy\AppData\Local\Temp\ccjEOE4H.s 			page 21


 641 004e BB68     		ldr	r3, [r7, #8]
 642 0050 5B68     		ldr	r3, [r3, #4]
 643 0052 7B61     		str	r3, [r7, #20]
 491:.\u8glib_arm_v1.18.1\src/u8g_dev_ssd1351_128x128.c **** 			uint8_t *ptr = pb->buf;
 644              		.loc 1 491 0
 645 0054 7B69     		ldr	r3, [r7, #20]
 646 0056 9B68     		ldr	r3, [r3, #8]
 647 0058 BB61     		str	r3, [r7, #24]
 492:.\u8glib_arm_v1.18.1\src/u8g_dev_ssd1351_128x128.c **** 
 493:.\u8glib_arm_v1.18.1\src/u8g_dev_ssd1351_128x128.c **** 			u8g_SetChipSelect(u8g, dev, 1);
 648              		.loc 1 493 0
 649 005a F868     		ldr	r0, [r7, #12]
 650 005c B968     		ldr	r1, [r7, #8]
 651 005e 0122     		movs	r2, #1
 652 0060 FFF7FEFF 		bl	u8g_SetChipSelect
 494:.\u8glib_arm_v1.18.1\src/u8g_dev_ssd1351_128x128.c **** 
 495:.\u8glib_arm_v1.18.1\src/u8g_dev_ssd1351_128x128.c **** 			page_height = pb->p.page_y1;
 653              		.loc 1 495 0
 654 0064 7B69     		ldr	r3, [r7, #20]
 655 0066 DB78     		ldrb	r3, [r3, #3]
 656 0068 FB74     		strb	r3, [r7, #19]
 496:.\u8glib_arm_v1.18.1\src/u8g_dev_ssd1351_128x128.c **** 			page_height -= pb->p.page_y0;
 657              		.loc 1 496 0
 658 006a 7B69     		ldr	r3, [r7, #20]
 659 006c 9B78     		ldrb	r3, [r3, #2]	@ zero_extendqisi2
 660 006e FA7C     		ldrb	r2, [r7, #19]
 661 0070 D31A     		subs	r3, r2, r3
 662 0072 FB74     		strb	r3, [r7, #19]
 497:.\u8glib_arm_v1.18.1\src/u8g_dev_ssd1351_128x128.c **** 			page_height++;
 663              		.loc 1 497 0
 664 0074 FB7C     		ldrb	r3, [r7, #19]	@ zero_extendqisi2
 665 0076 0133     		adds	r3, r3, #1
 666 0078 FB74     		strb	r3, [r7, #19]
 498:.\u8glib_arm_v1.18.1\src/u8g_dev_ssd1351_128x128.c **** 			for( i = 0; i < page_height; i++ )
 667              		.loc 1 498 0
 668 007a 0023     		movs	r3, #0
 669 007c BB77     		strb	r3, [r7, #30]
 670 007e 19E0     		b	.L14
 671              	.L17:
 499:.\u8glib_arm_v1.18.1\src/u8g_dev_ssd1351_128x128.c **** 			{
 500:.\u8glib_arm_v1.18.1\src/u8g_dev_ssd1351_128x128.c **** 			  
 501:.\u8glib_arm_v1.18.1\src/u8g_dev_ssd1351_128x128.c **** 			  for (x = 0; x < pb->width; x+=RGB332_STREAM_BYTES)
 672              		.loc 1 501 0
 673 0080 0023     		movs	r3, #0
 674 0082 FB77     		strb	r3, [r7, #31]
 675 0084 0EE0     		b	.L15
 676              	.L16:
 502:.\u8glib_arm_v1.18.1\src/u8g_dev_ssd1351_128x128.c **** 			  {
 503:.\u8glib_arm_v1.18.1\src/u8g_dev_ssd1351_128x128.c **** 			    u8g_ssd1351_to_stream(ptr);
 677              		.loc 1 503 0 discriminator 3
 678 0086 B869     		ldr	r0, [r7, #24]
 679 0088 FFF7FEFF 		bl	u8g_ssd1351_to_stream
 504:.\u8glib_arm_v1.18.1\src/u8g_dev_ssd1351_128x128.c **** 			    u8g_WriteSequence(u8g, dev, RGB332_STREAM_BYTES*3, u8g_ssd1351_stream_bytes);
 680              		.loc 1 504 0 discriminator 3
 681 008c F868     		ldr	r0, [r7, #12]
 682 008e B968     		ldr	r1, [r7, #8]
 683 0090 1822     		movs	r2, #24
ARM GAS  C:\Users\Shiguruy\AppData\Local\Temp\ccjEOE4H.s 			page 22


 684 0092 164B     		ldr	r3, .L19+8
 685 0094 FFF7FEFF 		bl	u8g_WriteSequence
 505:.\u8glib_arm_v1.18.1\src/u8g_dev_ssd1351_128x128.c **** 			    ptr += RGB332_STREAM_BYTES;
 686              		.loc 1 505 0 discriminator 3
 687 0098 BB69     		ldr	r3, [r7, #24]
 688 009a 0833     		adds	r3, r3, #8
 689 009c BB61     		str	r3, [r7, #24]
 501:.\u8glib_arm_v1.18.1\src/u8g_dev_ssd1351_128x128.c **** 			  {
 690              		.loc 1 501 0 discriminator 3
 691 009e FB7F     		ldrb	r3, [r7, #31]
 692 00a0 0833     		adds	r3, r3, #8
 693 00a2 FB77     		strb	r3, [r7, #31]
 694              	.L15:
 501:.\u8glib_arm_v1.18.1\src/u8g_dev_ssd1351_128x128.c **** 			  {
 695              		.loc 1 501 0 is_stmt 0 discriminator 1
 696 00a4 7B69     		ldr	r3, [r7, #20]
 697 00a6 5B79     		ldrb	r3, [r3, #5]	@ zero_extendqisi2
 698 00a8 FA7F     		ldrb	r2, [r7, #31]	@ zero_extendqisi2
 699 00aa 9A42     		cmp	r2, r3
 700 00ac EBD3     		bcc	.L16
 498:.\u8glib_arm_v1.18.1\src/u8g_dev_ssd1351_128x128.c **** 			{
 701              		.loc 1 498 0 is_stmt 1 discriminator 2
 702 00ae BB7F     		ldrb	r3, [r7, #30]	@ zero_extendqisi2
 703 00b0 0133     		adds	r3, r3, #1
 704 00b2 BB77     		strb	r3, [r7, #30]
 705              	.L14:
 498:.\u8glib_arm_v1.18.1\src/u8g_dev_ssd1351_128x128.c **** 			{
 706              		.loc 1 498 0 is_stmt 0 discriminator 1
 707 00b4 BA7F     		ldrb	r2, [r7, #30]	@ zero_extendqisi2
 708 00b6 FB7C     		ldrb	r3, [r7, #19]	@ zero_extendqisi2
 709 00b8 9A42     		cmp	r2, r3
 710 00ba E1D3     		bcc	.L17
 506:.\u8glib_arm_v1.18.1\src/u8g_dev_ssd1351_128x128.c **** 			  }
 507:.\u8glib_arm_v1.18.1\src/u8g_dev_ssd1351_128x128.c **** 			}
 508:.\u8glib_arm_v1.18.1\src/u8g_dev_ssd1351_128x128.c **** 			u8g_SetChipSelect(u8g, dev, 0);
 711              		.loc 1 508 0 is_stmt 1
 712 00bc F868     		ldr	r0, [r7, #12]
 713 00be B968     		ldr	r1, [r7, #8]
 714 00c0 0022     		movs	r2, #0
 715 00c2 FFF7FEFF 		bl	u8g_SetChipSelect
 716              	.LBE2:
 509:.\u8glib_arm_v1.18.1\src/u8g_dev_ssd1351_128x128.c **** 		}
 510:.\u8glib_arm_v1.18.1\src/u8g_dev_ssd1351_128x128.c **** 
 511:.\u8glib_arm_v1.18.1\src/u8g_dev_ssd1351_128x128.c **** 		break;
 717              		.loc 1 511 0
 718 00c6 01E0     		b	.L7
 719              	.L13:
 512:.\u8glib_arm_v1.18.1\src/u8g_dev_ssd1351_128x128.c **** 	case U8G_DEV_MSG_GET_MODE:
 513:.\u8glib_arm_v1.18.1\src/u8g_dev_ssd1351_128x128.c **** 	  return U8G_MODE_R3G3B2;
 720              		.loc 1 513 0
 721 00c8 2823     		movs	r3, #40
 722 00ca 07E0     		b	.L18
 723              	.L7:
 514:.\u8glib_arm_v1.18.1\src/u8g_dev_ssd1351_128x128.c **** 	}
 515:.\u8glib_arm_v1.18.1\src/u8g_dev_ssd1351_128x128.c **** 
 516:.\u8glib_arm_v1.18.1\src/u8g_dev_ssd1351_128x128.c **** 	return u8g_dev_pb8h8_base_fn(u8g, dev, msg, arg);
 724              		.loc 1 516 0
ARM GAS  C:\Users\Shiguruy\AppData\Local\Temp\ccjEOE4H.s 			page 23


 725 00cc FB79     		ldrb	r3, [r7, #7]	@ zero_extendqisi2
 726 00ce F868     		ldr	r0, [r7, #12]
 727 00d0 B968     		ldr	r1, [r7, #8]
 728 00d2 1A46     		mov	r2, r3
 729 00d4 3B68     		ldr	r3, [r7]
 730 00d6 FFF7FEFF 		bl	u8g_dev_pb8h8_base_fn
 731 00da 0346     		mov	r3, r0
 732              	.L18:
 517:.\u8glib_arm_v1.18.1\src/u8g_dev_ssd1351_128x128.c **** }
 733              		.loc 1 517 0
 734 00dc 1846     		mov	r0, r3
 735 00de 2037     		adds	r7, r7, #32
 736              		.cfi_def_cfa_offset 8
 737 00e0 BD46     		mov	sp, r7
 738              		.cfi_def_cfa_register 13
 739              		@ sp needed
 740 00e2 80BD     		pop	{r7, pc}
 741              	.L20:
 742              		.align	2
 743              	.L19:
 744 00e4 00000000 		.word	u8g_dev_ssd1351_128x128_init_seq
 745 00e8 A8010000 		.word	u8g_dev_ssd1351_128x128_column_seq
 746 00ec 00000000 		.word	u8g_ssd1351_stream_bytes
 747              		.cfi_endproc
 748              	.LFE1:
 749              		.size	u8g_dev_ssd1351_128x128_332_fn, .-u8g_dev_ssd1351_128x128_332_fn
 750              		.section	.text.u8g_dev_ssd1351_128x128gh_332_fn,"ax",%progbits
 751              		.align	2
 752              		.global	u8g_dev_ssd1351_128x128gh_332_fn
 753              		.thumb
 754              		.thumb_func
 755              		.type	u8g_dev_ssd1351_128x128gh_332_fn, %function
 756              	u8g_dev_ssd1351_128x128gh_332_fn:
 757              	.LFB2:
 518:.\u8glib_arm_v1.18.1\src/u8g_dev_ssd1351_128x128.c **** 
 519:.\u8glib_arm_v1.18.1\src/u8g_dev_ssd1351_128x128.c **** uint8_t u8g_dev_ssd1351_128x128gh_332_fn(u8g_t *u8g, u8g_dev_t *dev, uint8_t msg, void *arg)
 520:.\u8glib_arm_v1.18.1\src/u8g_dev_ssd1351_128x128.c **** {
 758              		.loc 1 520 0
 759              		.cfi_startproc
 760              		@ args = 0, pretend = 0, frame = 32
 761              		@ frame_needed = 1, uses_anonymous_args = 0
 762 0000 80B5     		push	{r7, lr}
 763              		.cfi_def_cfa_offset 8
 764              		.cfi_offset 7, -8
 765              		.cfi_offset 14, -4
 766 0002 88B0     		sub	sp, sp, #32
 767              		.cfi_def_cfa_offset 40
 768 0004 00AF     		add	r7, sp, #0
 769              		.cfi_def_cfa_register 7
 770 0006 F860     		str	r0, [r7, #12]
 771 0008 B960     		str	r1, [r7, #8]
 772 000a 3B60     		str	r3, [r7]
 773 000c 1346     		mov	r3, r2
 774 000e FB71     		strb	r3, [r7, #7]
 521:.\u8glib_arm_v1.18.1\src/u8g_dev_ssd1351_128x128.c **** //	u8g_pb_t *pb = (u8g_pb_t *)(dev->dev_mem);
 522:.\u8glib_arm_v1.18.1\src/u8g_dev_ssd1351_128x128.c **** 
 523:.\u8glib_arm_v1.18.1\src/u8g_dev_ssd1351_128x128.c **** 	switch(msg)
ARM GAS  C:\Users\Shiguruy\AppData\Local\Temp\ccjEOE4H.s 			page 24


 775              		.loc 1 523 0
 776 0010 FB79     		ldrb	r3, [r7, #7]	@ zero_extendqisi2
 777 0012 142B     		cmp	r3, #20
 778 0014 15D0     		beq	.L23
 779 0016 142B     		cmp	r3, #20
 780 0018 03DC     		bgt	.L24
 781 001a 0A2B     		cmp	r3, #10
 782 001c 06D0     		beq	.L25
 783 001e 0B2B     		cmp	r3, #11
 524:.\u8glib_arm_v1.18.1\src/u8g_dev_ssd1351_128x128.c **** 	{
 525:.\u8glib_arm_v1.18.1\src/u8g_dev_ssd1351_128x128.c **** 	case U8G_DEV_MSG_INIT:
 526:.\u8glib_arm_v1.18.1\src/u8g_dev_ssd1351_128x128.c **** 		u8g_InitCom(u8g, dev, U8G_SPI_CLK_CYCLE_50NS);
 527:.\u8glib_arm_v1.18.1\src/u8g_dev_ssd1351_128x128.c **** 		u8g_WriteEscSeqP(u8g, dev, u8g_dev_ssd1351_128x128gh_init_seq);
 528:.\u8glib_arm_v1.18.1\src/u8g_dev_ssd1351_128x128.c **** 		break;
 529:.\u8glib_arm_v1.18.1\src/u8g_dev_ssd1351_128x128.c **** 
 530:.\u8glib_arm_v1.18.1\src/u8g_dev_ssd1351_128x128.c **** 	case U8G_DEV_MSG_STOP:
 531:.\u8glib_arm_v1.18.1\src/u8g_dev_ssd1351_128x128.c **** 		break;
 784              		.loc 1 531 0
 785 0020 54E0     		b	.L22
 786              	.L24:
 523:.\u8glib_arm_v1.18.1\src/u8g_dev_ssd1351_128x128.c **** 	{
 787              		.loc 1 523 0
 788 0022 152B     		cmp	r3, #21
 789 0024 13D0     		beq	.L27
 790 0026 482B     		cmp	r3, #72
 791 0028 4ED0     		beq	.L28
 792 002a 4FE0     		b	.L22
 793              	.L25:
 526:.\u8glib_arm_v1.18.1\src/u8g_dev_ssd1351_128x128.c **** 		u8g_WriteEscSeqP(u8g, dev, u8g_dev_ssd1351_128x128gh_init_seq);
 794              		.loc 1 526 0
 795 002c F868     		ldr	r0, [r7, #12]
 796 002e B968     		ldr	r1, [r7, #8]
 797 0030 0122     		movs	r2, #1
 798 0032 FFF7FEFF 		bl	u8g_InitCom
 527:.\u8glib_arm_v1.18.1\src/u8g_dev_ssd1351_128x128.c **** 		break;
 799              		.loc 1 527 0
 800 0036 F868     		ldr	r0, [r7, #12]
 801 0038 B968     		ldr	r1, [r7, #8]
 802 003a 2A4A     		ldr	r2, .L34
 803 003c FFF7FEFF 		bl	u8g_WriteEscSeqP
 528:.\u8glib_arm_v1.18.1\src/u8g_dev_ssd1351_128x128.c **** 
 804              		.loc 1 528 0
 805 0040 44E0     		b	.L22
 806              	.L23:
 532:.\u8glib_arm_v1.18.1\src/u8g_dev_ssd1351_128x128.c **** 
 533:.\u8glib_arm_v1.18.1\src/u8g_dev_ssd1351_128x128.c **** 	case U8G_DEV_MSG_PAGE_FIRST:
 534:.\u8glib_arm_v1.18.1\src/u8g_dev_ssd1351_128x128.c **** 		u8g_WriteEscSeqP(u8g, dev, u8g_dev_ssd1351_128x128_column_seq);
 807              		.loc 1 534 0
 808 0042 F868     		ldr	r0, [r7, #12]
 809 0044 B968     		ldr	r1, [r7, #8]
 810 0046 284A     		ldr	r2, .L34+4
 811 0048 FFF7FEFF 		bl	u8g_WriteEscSeqP
 535:.\u8glib_arm_v1.18.1\src/u8g_dev_ssd1351_128x128.c **** 		break;
 812              		.loc 1 535 0
 813 004c 3EE0     		b	.L22
 814              	.L27:
 815              	.LBB3:
ARM GAS  C:\Users\Shiguruy\AppData\Local\Temp\ccjEOE4H.s 			page 25


 536:.\u8glib_arm_v1.18.1\src/u8g_dev_ssd1351_128x128.c **** 
 537:.\u8glib_arm_v1.18.1\src/u8g_dev_ssd1351_128x128.c **** 	case U8G_DEV_MSG_PAGE_NEXT:
 538:.\u8glib_arm_v1.18.1\src/u8g_dev_ssd1351_128x128.c **** 		{
 539:.\u8glib_arm_v1.18.1\src/u8g_dev_ssd1351_128x128.c **** 			u8g_uint_t x;
 540:.\u8glib_arm_v1.18.1\src/u8g_dev_ssd1351_128x128.c **** 			uint8_t page_height;
 541:.\u8glib_arm_v1.18.1\src/u8g_dev_ssd1351_128x128.c **** 			uint8_t i;
 542:.\u8glib_arm_v1.18.1\src/u8g_dev_ssd1351_128x128.c **** 			u8g_pb_t *pb = (u8g_pb_t *)(dev->dev_mem);
 816              		.loc 1 542 0
 817 004e BB68     		ldr	r3, [r7, #8]
 818 0050 5B68     		ldr	r3, [r3, #4]
 819 0052 7B61     		str	r3, [r7, #20]
 543:.\u8glib_arm_v1.18.1\src/u8g_dev_ssd1351_128x128.c **** 			uint8_t *ptr = pb->buf;
 820              		.loc 1 543 0
 821 0054 7B69     		ldr	r3, [r7, #20]
 822 0056 9B68     		ldr	r3, [r3, #8]
 823 0058 BB61     		str	r3, [r7, #24]
 544:.\u8glib_arm_v1.18.1\src/u8g_dev_ssd1351_128x128.c **** 
 545:.\u8glib_arm_v1.18.1\src/u8g_dev_ssd1351_128x128.c **** 			u8g_SetChipSelect(u8g, dev, 1);
 824              		.loc 1 545 0
 825 005a F868     		ldr	r0, [r7, #12]
 826 005c B968     		ldr	r1, [r7, #8]
 827 005e 0122     		movs	r2, #1
 828 0060 FFF7FEFF 		bl	u8g_SetChipSelect
 546:.\u8glib_arm_v1.18.1\src/u8g_dev_ssd1351_128x128.c **** 
 547:.\u8glib_arm_v1.18.1\src/u8g_dev_ssd1351_128x128.c **** 			page_height = pb->p.page_y1;
 829              		.loc 1 547 0
 830 0064 7B69     		ldr	r3, [r7, #20]
 831 0066 DB78     		ldrb	r3, [r3, #3]
 832 0068 FB74     		strb	r3, [r7, #19]
 548:.\u8glib_arm_v1.18.1\src/u8g_dev_ssd1351_128x128.c **** 			page_height -= pb->p.page_y0;
 833              		.loc 1 548 0
 834 006a 7B69     		ldr	r3, [r7, #20]
 835 006c 9B78     		ldrb	r3, [r3, #2]	@ zero_extendqisi2
 836 006e FA7C     		ldrb	r2, [r7, #19]
 837 0070 D31A     		subs	r3, r2, r3
 838 0072 FB74     		strb	r3, [r7, #19]
 549:.\u8glib_arm_v1.18.1\src/u8g_dev_ssd1351_128x128.c **** 			page_height++;
 839              		.loc 1 549 0
 840 0074 FB7C     		ldrb	r3, [r7, #19]	@ zero_extendqisi2
 841 0076 0133     		adds	r3, r3, #1
 842 0078 FB74     		strb	r3, [r7, #19]
 550:.\u8glib_arm_v1.18.1\src/u8g_dev_ssd1351_128x128.c **** 			for( i = 0; i < page_height; i++ )
 843              		.loc 1 550 0
 844 007a 0023     		movs	r3, #0
 845 007c BB77     		strb	r3, [r7, #30]
 846 007e 19E0     		b	.L29
 847              	.L32:
 551:.\u8glib_arm_v1.18.1\src/u8g_dev_ssd1351_128x128.c **** 			{
 552:.\u8glib_arm_v1.18.1\src/u8g_dev_ssd1351_128x128.c **** 			  
 553:.\u8glib_arm_v1.18.1\src/u8g_dev_ssd1351_128x128.c **** 			  for (x = 0; x < pb->width; x+=RGB332_STREAM_BYTES)
 848              		.loc 1 553 0
 849 0080 0023     		movs	r3, #0
 850 0082 FB77     		strb	r3, [r7, #31]
 851 0084 0EE0     		b	.L30
 852              	.L31:
 554:.\u8glib_arm_v1.18.1\src/u8g_dev_ssd1351_128x128.c **** 			  {
 555:.\u8glib_arm_v1.18.1\src/u8g_dev_ssd1351_128x128.c **** 			    u8g_ssd1351_to_stream(ptr);
ARM GAS  C:\Users\Shiguruy\AppData\Local\Temp\ccjEOE4H.s 			page 26


 853              		.loc 1 555 0 discriminator 3
 854 0086 B869     		ldr	r0, [r7, #24]
 855 0088 FFF7FEFF 		bl	u8g_ssd1351_to_stream
 556:.\u8glib_arm_v1.18.1\src/u8g_dev_ssd1351_128x128.c **** 			    u8g_WriteSequence(u8g, dev, RGB332_STREAM_BYTES*3, u8g_ssd1351_stream_bytes);
 856              		.loc 1 556 0 discriminator 3
 857 008c F868     		ldr	r0, [r7, #12]
 858 008e B968     		ldr	r1, [r7, #8]
 859 0090 1822     		movs	r2, #24
 860 0092 164B     		ldr	r3, .L34+8
 861 0094 FFF7FEFF 		bl	u8g_WriteSequence
 557:.\u8glib_arm_v1.18.1\src/u8g_dev_ssd1351_128x128.c **** 			    ptr += RGB332_STREAM_BYTES;
 862              		.loc 1 557 0 discriminator 3
 863 0098 BB69     		ldr	r3, [r7, #24]
 864 009a 0833     		adds	r3, r3, #8
 865 009c BB61     		str	r3, [r7, #24]
 553:.\u8glib_arm_v1.18.1\src/u8g_dev_ssd1351_128x128.c **** 			  {
 866              		.loc 1 553 0 discriminator 3
 867 009e FB7F     		ldrb	r3, [r7, #31]
 868 00a0 0833     		adds	r3, r3, #8
 869 00a2 FB77     		strb	r3, [r7, #31]
 870              	.L30:
 553:.\u8glib_arm_v1.18.1\src/u8g_dev_ssd1351_128x128.c **** 			  {
 871              		.loc 1 553 0 is_stmt 0 discriminator 1
 872 00a4 7B69     		ldr	r3, [r7, #20]
 873 00a6 5B79     		ldrb	r3, [r3, #5]	@ zero_extendqisi2
 874 00a8 FA7F     		ldrb	r2, [r7, #31]	@ zero_extendqisi2
 875 00aa 9A42     		cmp	r2, r3
 876 00ac EBD3     		bcc	.L31
 550:.\u8glib_arm_v1.18.1\src/u8g_dev_ssd1351_128x128.c **** 			{
 877              		.loc 1 550 0 is_stmt 1 discriminator 2
 878 00ae BB7F     		ldrb	r3, [r7, #30]	@ zero_extendqisi2
 879 00b0 0133     		adds	r3, r3, #1
 880 00b2 BB77     		strb	r3, [r7, #30]
 881              	.L29:
 550:.\u8glib_arm_v1.18.1\src/u8g_dev_ssd1351_128x128.c **** 			{
 882              		.loc 1 550 0 is_stmt 0 discriminator 1
 883 00b4 BA7F     		ldrb	r2, [r7, #30]	@ zero_extendqisi2
 884 00b6 FB7C     		ldrb	r3, [r7, #19]	@ zero_extendqisi2
 885 00b8 9A42     		cmp	r2, r3
 886 00ba E1D3     		bcc	.L32
 558:.\u8glib_arm_v1.18.1\src/u8g_dev_ssd1351_128x128.c **** 			  }
 559:.\u8glib_arm_v1.18.1\src/u8g_dev_ssd1351_128x128.c **** 			}
 560:.\u8glib_arm_v1.18.1\src/u8g_dev_ssd1351_128x128.c **** 			u8g_SetChipSelect(u8g, dev, 0);
 887              		.loc 1 560 0 is_stmt 1
 888 00bc F868     		ldr	r0, [r7, #12]
 889 00be B968     		ldr	r1, [r7, #8]
 890 00c0 0022     		movs	r2, #0
 891 00c2 FFF7FEFF 		bl	u8g_SetChipSelect
 892              	.LBE3:
 561:.\u8glib_arm_v1.18.1\src/u8g_dev_ssd1351_128x128.c **** 		}
 562:.\u8glib_arm_v1.18.1\src/u8g_dev_ssd1351_128x128.c **** 
 563:.\u8glib_arm_v1.18.1\src/u8g_dev_ssd1351_128x128.c **** 		break;
 893              		.loc 1 563 0
 894 00c6 01E0     		b	.L22
 895              	.L28:
 564:.\u8glib_arm_v1.18.1\src/u8g_dev_ssd1351_128x128.c **** 	case U8G_DEV_MSG_GET_MODE:
 565:.\u8glib_arm_v1.18.1\src/u8g_dev_ssd1351_128x128.c **** 	  return U8G_MODE_R3G3B2;
ARM GAS  C:\Users\Shiguruy\AppData\Local\Temp\ccjEOE4H.s 			page 27


 896              		.loc 1 565 0
 897 00c8 2823     		movs	r3, #40
 898 00ca 07E0     		b	.L33
 899              	.L22:
 566:.\u8glib_arm_v1.18.1\src/u8g_dev_ssd1351_128x128.c **** 	}
 567:.\u8glib_arm_v1.18.1\src/u8g_dev_ssd1351_128x128.c **** 
 568:.\u8glib_arm_v1.18.1\src/u8g_dev_ssd1351_128x128.c **** 	return u8g_dev_pb8h8_base_fn(u8g, dev, msg, arg);
 900              		.loc 1 568 0
 901 00cc FB79     		ldrb	r3, [r7, #7]	@ zero_extendqisi2
 902 00ce F868     		ldr	r0, [r7, #12]
 903 00d0 B968     		ldr	r1, [r7, #8]
 904 00d2 1A46     		mov	r2, r3
 905 00d4 3B68     		ldr	r3, [r7]
 906 00d6 FFF7FEFF 		bl	u8g_dev_pb8h8_base_fn
 907 00da 0346     		mov	r3, r0
 908              	.L33:
 569:.\u8glib_arm_v1.18.1\src/u8g_dev_ssd1351_128x128.c **** }
 909              		.loc 1 569 0
 910 00dc 1846     		mov	r0, r3
 911 00de 2037     		adds	r7, r7, #32
 912              		.cfi_def_cfa_offset 8
 913 00e0 BD46     		mov	sp, r7
 914              		.cfi_def_cfa_register 13
 915              		@ sp needed
 916 00e2 80BD     		pop	{r7, pc}
 917              	.L35:
 918              		.align	2
 919              	.L34:
 920 00e4 D4000000 		.word	u8g_dev_ssd1351_128x128gh_init_seq
 921 00e8 A8010000 		.word	u8g_dev_ssd1351_128x128_column_seq
 922 00ec 00000000 		.word	u8g_ssd1351_stream_bytes
 923              		.cfi_endproc
 924              	.LFE2:
 925              		.size	u8g_dev_ssd1351_128x128gh_332_fn, .-u8g_dev_ssd1351_128x128gh_332_fn
 926              		.bss
 927              		.align	2
 928              	u8g_dev_ssd1351_128x128_r:
 929 0018 00000000 		.space	256
 929      00000000 
 929      00000000 
 929      00000000 
 929      00000000 
 930              		.align	2
 931              	u8g_dev_ssd1351_128x128_g:
 932 0118 00000000 		.space	256
 932      00000000 
 932      00000000 
 932      00000000 
 932      00000000 
 933              		.align	2
 934              	u8g_dev_ssd1351_128x128_b:
 935 0218 00000000 		.space	256
 935      00000000 
 935      00000000 
 935      00000000 
 935      00000000 
 936              		.section	.text.u8g_dev_ssd1351_128x128_idx_fn,"ax",%progbits
ARM GAS  C:\Users\Shiguruy\AppData\Local\Temp\ccjEOE4H.s 			page 28


 937              		.align	2
 938              		.global	u8g_dev_ssd1351_128x128_idx_fn
 939              		.thumb
 940              		.thumb_func
 941              		.type	u8g_dev_ssd1351_128x128_idx_fn, %function
 942              	u8g_dev_ssd1351_128x128_idx_fn:
 943              	.LFB3:
 570:.\u8glib_arm_v1.18.1\src/u8g_dev_ssd1351_128x128.c **** 
 571:.\u8glib_arm_v1.18.1\src/u8g_dev_ssd1351_128x128.c **** static uint8_t u8g_dev_ssd1351_128x128_r[256];
 572:.\u8glib_arm_v1.18.1\src/u8g_dev_ssd1351_128x128.c **** static uint8_t u8g_dev_ssd1351_128x128_g[256];
 573:.\u8glib_arm_v1.18.1\src/u8g_dev_ssd1351_128x128.c **** static uint8_t u8g_dev_ssd1351_128x128_b[256];
 574:.\u8glib_arm_v1.18.1\src/u8g_dev_ssd1351_128x128.c **** 
 575:.\u8glib_arm_v1.18.1\src/u8g_dev_ssd1351_128x128.c **** uint8_t u8g_dev_ssd1351_128x128_idx_fn(u8g_t *u8g, u8g_dev_t *dev, uint8_t msg, void *arg)
 576:.\u8glib_arm_v1.18.1\src/u8g_dev_ssd1351_128x128.c **** {
 944              		.loc 1 576 0
 945              		.cfi_startproc
 946              		@ args = 0, pretend = 0, frame = 32
 947              		@ frame_needed = 1, uses_anonymous_args = 0
 948 0000 80B5     		push	{r7, lr}
 949              		.cfi_def_cfa_offset 8
 950              		.cfi_offset 7, -8
 951              		.cfi_offset 14, -4
 952 0002 88B0     		sub	sp, sp, #32
 953              		.cfi_def_cfa_offset 40
 954 0004 00AF     		add	r7, sp, #0
 955              		.cfi_def_cfa_register 7
 956 0006 F860     		str	r0, [r7, #12]
 957 0008 B960     		str	r1, [r7, #8]
 958 000a 3B60     		str	r3, [r7]
 959 000c 1346     		mov	r3, r2
 960 000e FB71     		strb	r3, [r7, #7]
 577:.\u8glib_arm_v1.18.1\src/u8g_dev_ssd1351_128x128.c **** //	u8g_pb_t *pb = (u8g_pb_t *)(dev->dev_mem);
 578:.\u8glib_arm_v1.18.1\src/u8g_dev_ssd1351_128x128.c **** 
 579:.\u8glib_arm_v1.18.1\src/u8g_dev_ssd1351_128x128.c **** 	switch(msg)
 961              		.loc 1 579 0
 962 0010 FB79     		ldrb	r3, [r7, #7]	@ zero_extendqisi2
 963 0012 142B     		cmp	r3, #20
 964 0014 2DD0     		beq	.L38
 965 0016 142B     		cmp	r3, #20
 966 0018 03DC     		bgt	.L39
 967 001a 0A2B     		cmp	r3, #10
 968 001c 08D0     		beq	.L40
 969 001e 0B2B     		cmp	r3, #11
 580:.\u8glib_arm_v1.18.1\src/u8g_dev_ssd1351_128x128.c **** 	{
 581:.\u8glib_arm_v1.18.1\src/u8g_dev_ssd1351_128x128.c **** 	case U8G_DEV_MSG_INIT:
 582:.\u8glib_arm_v1.18.1\src/u8g_dev_ssd1351_128x128.c **** 		u8g_InitCom(u8g, dev, U8G_SPI_CLK_CYCLE_50NS);
 583:.\u8glib_arm_v1.18.1\src/u8g_dev_ssd1351_128x128.c **** 		u8g_WriteEscSeqP(u8g, dev, u8g_dev_ssd1351_128x128_init_seq);
 584:.\u8glib_arm_v1.18.1\src/u8g_dev_ssd1351_128x128.c **** 		break;
 585:.\u8glib_arm_v1.18.1\src/u8g_dev_ssd1351_128x128.c **** 
 586:.\u8glib_arm_v1.18.1\src/u8g_dev_ssd1351_128x128.c **** 	case U8G_DEV_MSG_STOP:
 587:.\u8glib_arm_v1.18.1\src/u8g_dev_ssd1351_128x128.c **** 		break;
 970              		.loc 1 587 0
 971 0020 73E0     		b	.L37
 972              	.L39:
 579:.\u8glib_arm_v1.18.1\src/u8g_dev_ssd1351_128x128.c **** 	{
 973              		.loc 1 579 0
 974 0022 3C2B     		cmp	r3, #60
ARM GAS  C:\Users\Shiguruy\AppData\Local\Temp\ccjEOE4H.s 			page 29


 975 0024 0FD0     		beq	.L42
 976 0026 482B     		cmp	r3, #72
 977 0028 6DD0     		beq	.L43
 978 002a 152B     		cmp	r3, #21
 979 002c 27D0     		beq	.L44
 980 002e 6CE0     		b	.L37
 981              	.L40:
 582:.\u8glib_arm_v1.18.1\src/u8g_dev_ssd1351_128x128.c **** 		u8g_WriteEscSeqP(u8g, dev, u8g_dev_ssd1351_128x128_init_seq);
 982              		.loc 1 582 0
 983 0030 F868     		ldr	r0, [r7, #12]
 984 0032 B968     		ldr	r1, [r7, #8]
 985 0034 0122     		movs	r2, #1
 986 0036 FFF7FEFF 		bl	u8g_InitCom
 583:.\u8glib_arm_v1.18.1\src/u8g_dev_ssd1351_128x128.c **** 		break;
 987              		.loc 1 583 0
 988 003a F868     		ldr	r0, [r7, #12]
 989 003c B968     		ldr	r1, [r7, #8]
 990 003e 394A     		ldr	r2, .L48
 991 0040 FFF7FEFF 		bl	u8g_WriteEscSeqP
 584:.\u8glib_arm_v1.18.1\src/u8g_dev_ssd1351_128x128.c **** 
 992              		.loc 1 584 0
 993 0044 61E0     		b	.L37
 994              	.L42:
 588:.\u8glib_arm_v1.18.1\src/u8g_dev_ssd1351_128x128.c **** 	
 589:.\u8glib_arm_v1.18.1\src/u8g_dev_ssd1351_128x128.c **** 	case U8G_DEV_MSG_SET_COLOR_ENTRY:
 590:.\u8glib_arm_v1.18.1\src/u8g_dev_ssd1351_128x128.c **** 		  u8g_dev_ssd1351_128x128_r[ ((u8g_dev_arg_irgb_t *)arg)->idx ] = ((u8g_dev_arg_irgb_t *)arg)->r;
 995              		.loc 1 590 0
 996 0046 3B68     		ldr	r3, [r7]
 997 0048 1B78     		ldrb	r3, [r3]	@ zero_extendqisi2
 998 004a 1A46     		mov	r2, r3
 999 004c 3B68     		ldr	r3, [r7]
 1000 004e 5978     		ldrb	r1, [r3, #1]	@ zero_extendqisi2
 1001 0050 354B     		ldr	r3, .L48+4
 1002 0052 9954     		strb	r1, [r3, r2]
 591:.\u8glib_arm_v1.18.1\src/u8g_dev_ssd1351_128x128.c **** 		  u8g_dev_ssd1351_128x128_g[ ((u8g_dev_arg_irgb_t *)arg)->idx ] = ((u8g_dev_arg_irgb_t *)arg)->g;
 1003              		.loc 1 591 0
 1004 0054 3B68     		ldr	r3, [r7]
 1005 0056 1B78     		ldrb	r3, [r3]	@ zero_extendqisi2
 1006 0058 1A46     		mov	r2, r3
 1007 005a 3B68     		ldr	r3, [r7]
 1008 005c 9978     		ldrb	r1, [r3, #2]	@ zero_extendqisi2
 1009 005e 334B     		ldr	r3, .L48+8
 1010 0060 9954     		strb	r1, [r3, r2]
 592:.\u8glib_arm_v1.18.1\src/u8g_dev_ssd1351_128x128.c **** 		  u8g_dev_ssd1351_128x128_b[ ((u8g_dev_arg_irgb_t *)arg)->idx ] = ((u8g_dev_arg_irgb_t *)arg)->b;
 1011              		.loc 1 592 0
 1012 0062 3B68     		ldr	r3, [r7]
 1013 0064 1B78     		ldrb	r3, [r3]	@ zero_extendqisi2
 1014 0066 1A46     		mov	r2, r3
 1015 0068 3B68     		ldr	r3, [r7]
 1016 006a D978     		ldrb	r1, [r3, #3]	@ zero_extendqisi2
 1017 006c 304B     		ldr	r3, .L48+12
 1018 006e 9954     		strb	r1, [r3, r2]
 593:.\u8glib_arm_v1.18.1\src/u8g_dev_ssd1351_128x128.c **** 		  break;
 1019              		.loc 1 593 0
 1020 0070 4BE0     		b	.L37
 1021              	.L38:
 594:.\u8glib_arm_v1.18.1\src/u8g_dev_ssd1351_128x128.c **** 	
ARM GAS  C:\Users\Shiguruy\AppData\Local\Temp\ccjEOE4H.s 			page 30


 595:.\u8glib_arm_v1.18.1\src/u8g_dev_ssd1351_128x128.c **** 	case U8G_DEV_MSG_PAGE_FIRST:
 596:.\u8glib_arm_v1.18.1\src/u8g_dev_ssd1351_128x128.c **** 		u8g_WriteEscSeqP(u8g, dev, u8g_dev_ssd1351_128x128_column_seq);
 1022              		.loc 1 596 0
 1023 0072 F868     		ldr	r0, [r7, #12]
 1024 0074 B968     		ldr	r1, [r7, #8]
 1025 0076 2F4A     		ldr	r2, .L48+16
 1026 0078 FFF7FEFF 		bl	u8g_WriteEscSeqP
 597:.\u8glib_arm_v1.18.1\src/u8g_dev_ssd1351_128x128.c **** 		break;
 1027              		.loc 1 597 0
 1028 007c 45E0     		b	.L37
 1029              	.L44:
 1030              	.LBB4:
 598:.\u8glib_arm_v1.18.1\src/u8g_dev_ssd1351_128x128.c **** 
 599:.\u8glib_arm_v1.18.1\src/u8g_dev_ssd1351_128x128.c **** 	case U8G_DEV_MSG_PAGE_NEXT:
 600:.\u8glib_arm_v1.18.1\src/u8g_dev_ssd1351_128x128.c **** 		{
 601:.\u8glib_arm_v1.18.1\src/u8g_dev_ssd1351_128x128.c **** 			int x;
 602:.\u8glib_arm_v1.18.1\src/u8g_dev_ssd1351_128x128.c **** 			u8g_pb_t *pb = (u8g_pb_t *)(dev->dev_mem);
 1031              		.loc 1 602 0
 1032 007e BB68     		ldr	r3, [r7, #8]
 1033 0080 5B68     		ldr	r3, [r3, #4]
 1034 0082 7B61     		str	r3, [r7, #20]
 603:.\u8glib_arm_v1.18.1\src/u8g_dev_ssd1351_128x128.c **** 			uint8_t *ptr = pb->buf;
 1035              		.loc 1 603 0
 1036 0084 7B69     		ldr	r3, [r7, #20]
 1037 0086 9B68     		ldr	r3, [r3, #8]
 1038 0088 BB61     		str	r3, [r7, #24]
 604:.\u8glib_arm_v1.18.1\src/u8g_dev_ssd1351_128x128.c **** 
 605:.\u8glib_arm_v1.18.1\src/u8g_dev_ssd1351_128x128.c **** 			u8g_SetChipSelect(u8g, dev, 1);
 1039              		.loc 1 605 0
 1040 008a F868     		ldr	r0, [r7, #12]
 1041 008c B968     		ldr	r1, [r7, #8]
 1042 008e 0122     		movs	r2, #1
 1043 0090 FFF7FEFF 		bl	u8g_SetChipSelect
 606:.\u8glib_arm_v1.18.1\src/u8g_dev_ssd1351_128x128.c **** 
 607:.\u8glib_arm_v1.18.1\src/u8g_dev_ssd1351_128x128.c **** 			for (x = 0; x < pb->width; x++)
 1044              		.loc 1 607 0
 1045 0094 0023     		movs	r3, #0
 1046 0096 FB61     		str	r3, [r7, #28]
 1047 0098 29E0     		b	.L45
 1048              	.L46:
 608:.\u8glib_arm_v1.18.1\src/u8g_dev_ssd1351_128x128.c **** 			{
 609:.\u8glib_arm_v1.18.1\src/u8g_dev_ssd1351_128x128.c **** 				u8g_WriteByte(u8g, dev, u8g_dev_ssd1351_128x128_r[(*ptr)>>2]);
 1049              		.loc 1 609 0 discriminator 3
 1050 009a BB69     		ldr	r3, [r7, #24]
 1051 009c 1B78     		ldrb	r3, [r3]	@ zero_extendqisi2
 1052 009e 9B08     		lsrs	r3, r3, #2
 1053 00a0 DBB2     		uxtb	r3, r3
 1054 00a2 1A46     		mov	r2, r3
 1055 00a4 204B     		ldr	r3, .L48+4
 1056 00a6 9B5C     		ldrb	r3, [r3, r2]	@ zero_extendqisi2
 1057 00a8 F868     		ldr	r0, [r7, #12]
 1058 00aa B968     		ldr	r1, [r7, #8]
 1059 00ac 1A46     		mov	r2, r3
 1060 00ae FFF7FEFF 		bl	u8g_WriteByte
 610:.\u8glib_arm_v1.18.1\src/u8g_dev_ssd1351_128x128.c **** 				u8g_WriteByte(u8g, dev, u8g_dev_ssd1351_128x128_g[(*ptr)>>2]);
 1061              		.loc 1 610 0 discriminator 3
 1062 00b2 BB69     		ldr	r3, [r7, #24]
ARM GAS  C:\Users\Shiguruy\AppData\Local\Temp\ccjEOE4H.s 			page 31


 1063 00b4 1B78     		ldrb	r3, [r3]	@ zero_extendqisi2
 1064 00b6 9B08     		lsrs	r3, r3, #2
 1065 00b8 DBB2     		uxtb	r3, r3
 1066 00ba 1A46     		mov	r2, r3
 1067 00bc 1B4B     		ldr	r3, .L48+8
 1068 00be 9B5C     		ldrb	r3, [r3, r2]	@ zero_extendqisi2
 1069 00c0 F868     		ldr	r0, [r7, #12]
 1070 00c2 B968     		ldr	r1, [r7, #8]
 1071 00c4 1A46     		mov	r2, r3
 1072 00c6 FFF7FEFF 		bl	u8g_WriteByte
 611:.\u8glib_arm_v1.18.1\src/u8g_dev_ssd1351_128x128.c **** 				u8g_WriteByte(u8g, dev, u8g_dev_ssd1351_128x128_b[(*ptr)>>2]);
 1073              		.loc 1 611 0 discriminator 3
 1074 00ca BB69     		ldr	r3, [r7, #24]
 1075 00cc 1B78     		ldrb	r3, [r3]	@ zero_extendqisi2
 1076 00ce 9B08     		lsrs	r3, r3, #2
 1077 00d0 DBB2     		uxtb	r3, r3
 1078 00d2 1A46     		mov	r2, r3
 1079 00d4 164B     		ldr	r3, .L48+12
 1080 00d6 9B5C     		ldrb	r3, [r3, r2]	@ zero_extendqisi2
 1081 00d8 F868     		ldr	r0, [r7, #12]
 1082 00da B968     		ldr	r1, [r7, #8]
 1083 00dc 1A46     		mov	r2, r3
 1084 00de FFF7FEFF 		bl	u8g_WriteByte
 612:.\u8glib_arm_v1.18.1\src/u8g_dev_ssd1351_128x128.c **** 
 613:.\u8glib_arm_v1.18.1\src/u8g_dev_ssd1351_128x128.c **** 				ptr++;
 1085              		.loc 1 613 0 discriminator 3
 1086 00e2 BB69     		ldr	r3, [r7, #24]
 1087 00e4 0133     		adds	r3, r3, #1
 1088 00e6 BB61     		str	r3, [r7, #24]
 607:.\u8glib_arm_v1.18.1\src/u8g_dev_ssd1351_128x128.c **** 			{
 1089              		.loc 1 607 0 discriminator 3
 1090 00e8 FB69     		ldr	r3, [r7, #28]
 1091 00ea 0133     		adds	r3, r3, #1
 1092 00ec FB61     		str	r3, [r7, #28]
 1093              	.L45:
 607:.\u8glib_arm_v1.18.1\src/u8g_dev_ssd1351_128x128.c **** 			{
 1094              		.loc 1 607 0 is_stmt 0 discriminator 1
 1095 00ee 7B69     		ldr	r3, [r7, #20]
 1096 00f0 5B79     		ldrb	r3, [r3, #5]	@ zero_extendqisi2
 1097 00f2 1A46     		mov	r2, r3
 1098 00f4 FB69     		ldr	r3, [r7, #28]
 1099 00f6 9A42     		cmp	r2, r3
 1100 00f8 CFDC     		bgt	.L46
 614:.\u8glib_arm_v1.18.1\src/u8g_dev_ssd1351_128x128.c **** 			}
 615:.\u8glib_arm_v1.18.1\src/u8g_dev_ssd1351_128x128.c **** 
 616:.\u8glib_arm_v1.18.1\src/u8g_dev_ssd1351_128x128.c **** 			u8g_SetChipSelect(u8g, dev, 0);
 1101              		.loc 1 616 0 is_stmt 1
 1102 00fa F868     		ldr	r0, [r7, #12]
 1103 00fc B968     		ldr	r1, [r7, #8]
 1104 00fe 0022     		movs	r2, #0
 1105 0100 FFF7FEFF 		bl	u8g_SetChipSelect
 1106              	.LBE4:
 617:.\u8glib_arm_v1.18.1\src/u8g_dev_ssd1351_128x128.c **** 		}
 618:.\u8glib_arm_v1.18.1\src/u8g_dev_ssd1351_128x128.c **** 
 619:.\u8glib_arm_v1.18.1\src/u8g_dev_ssd1351_128x128.c **** 		break;
 1107              		.loc 1 619 0
 1108 0104 01E0     		b	.L37
ARM GAS  C:\Users\Shiguruy\AppData\Local\Temp\ccjEOE4H.s 			page 32


 1109              	.L43:
 620:.\u8glib_arm_v1.18.1\src/u8g_dev_ssd1351_128x128.c **** 	case U8G_DEV_MSG_GET_MODE:
 621:.\u8glib_arm_v1.18.1\src/u8g_dev_ssd1351_128x128.c **** 	  return U8G_MODE_INDEX;
 1110              		.loc 1 621 0
 1111 0106 6823     		movs	r3, #104
 1112 0108 07E0     		b	.L47
 1113              	.L37:
 622:.\u8glib_arm_v1.18.1\src/u8g_dev_ssd1351_128x128.c **** 	}
 623:.\u8glib_arm_v1.18.1\src/u8g_dev_ssd1351_128x128.c **** 
 624:.\u8glib_arm_v1.18.1\src/u8g_dev_ssd1351_128x128.c **** 	return u8g_dev_pb8h8_base_fn(u8g, dev, msg, arg);
 1114              		.loc 1 624 0
 1115 010a FB79     		ldrb	r3, [r7, #7]	@ zero_extendqisi2
 1116 010c F868     		ldr	r0, [r7, #12]
 1117 010e B968     		ldr	r1, [r7, #8]
 1118 0110 1A46     		mov	r2, r3
 1119 0112 3B68     		ldr	r3, [r7]
 1120 0114 FFF7FEFF 		bl	u8g_dev_pb8h8_base_fn
 1121 0118 0346     		mov	r3, r0
 1122              	.L47:
 625:.\u8glib_arm_v1.18.1\src/u8g_dev_ssd1351_128x128.c **** }
 1123              		.loc 1 625 0
 1124 011a 1846     		mov	r0, r3
 1125 011c 2037     		adds	r7, r7, #32
 1126              		.cfi_def_cfa_offset 8
 1127 011e BD46     		mov	sp, r7
 1128              		.cfi_def_cfa_register 13
 1129              		@ sp needed
 1130 0120 80BD     		pop	{r7, pc}
 1131              	.L49:
 1132 0122 00BF     		.align	2
 1133              	.L48:
 1134 0124 00000000 		.word	u8g_dev_ssd1351_128x128_init_seq
 1135 0128 18000000 		.word	u8g_dev_ssd1351_128x128_r
 1136 012c 18010000 		.word	u8g_dev_ssd1351_128x128_g
 1137 0130 18020000 		.word	u8g_dev_ssd1351_128x128_b
 1138 0134 A8010000 		.word	u8g_dev_ssd1351_128x128_column_seq
 1139              		.cfi_endproc
 1140              	.LFE3:
 1141              		.size	u8g_dev_ssd1351_128x128_idx_fn, .-u8g_dev_ssd1351_128x128_idx_fn
 1142              		.section	.text.u8g_ssd1351_hicolor_to_stream,"ax",%progbits
 1143              		.align	2
 1144              		.global	u8g_ssd1351_hicolor_to_stream
 1145              		.thumb
 1146              		.thumb_func
 1147              		.type	u8g_ssd1351_hicolor_to_stream, %function
 1148              	u8g_ssd1351_hicolor_to_stream:
 1149              	.LFB4:
 626:.\u8glib_arm_v1.18.1\src/u8g_dev_ssd1351_128x128.c **** 
 627:.\u8glib_arm_v1.18.1\src/u8g_dev_ssd1351_128x128.c **** void u8g_ssd1351_hicolor_to_stream(uint8_t *ptr)
 628:.\u8glib_arm_v1.18.1\src/u8g_dev_ssd1351_128x128.c **** {
 1150              		.loc 1 628 0
 1151              		.cfi_startproc
 1152              		@ args = 0, pretend = 0, frame = 16
 1153              		@ frame_needed = 1, uses_anonymous_args = 0
 1154              		@ link register save eliminated.
 1155 0000 2DE9F003 		push	{r4, r5, r6, r7, r8, r9}
 1156              		.cfi_def_cfa_offset 24
ARM GAS  C:\Users\Shiguruy\AppData\Local\Temp\ccjEOE4H.s 			page 33


 1157              		.cfi_offset 4, -24
 1158              		.cfi_offset 5, -20
 1159              		.cfi_offset 6, -16
 1160              		.cfi_offset 7, -12
 1161              		.cfi_offset 8, -8
 1162              		.cfi_offset 9, -4
 1163 0004 84B0     		sub	sp, sp, #16
 1164              		.cfi_def_cfa_offset 40
 1165 0006 00AF     		add	r7, sp, #0
 1166              		.cfi_def_cfa_register 7
 1167 0008 7860     		str	r0, [r7, #4]
 629:.\u8glib_arm_v1.18.1\src/u8g_dev_ssd1351_128x128.c ****   register uint8_t cnt = RGB332_STREAM_BYTES;
 1168              		.loc 1 629 0
 1169 000a 0825     		movs	r5, #8
 630:.\u8glib_arm_v1.18.1\src/u8g_dev_ssd1351_128x128.c ****   register uint8_t low, high, r, g, b;
 631:.\u8glib_arm_v1.18.1\src/u8g_dev_ssd1351_128x128.c ****   uint8_t *dest = u8g_ssd1351_stream_bytes;
 1170              		.loc 1 631 0
 1171 000c 1F4B     		ldr	r3, .L53
 1172 000e FB60     		str	r3, [r7, #12]
 632:.\u8glib_arm_v1.18.1\src/u8g_dev_ssd1351_128x128.c ****   for( cnt = 0; cnt < RGB332_STREAM_BYTES; cnt++ )
 1173              		.loc 1 632 0
 1174 0010 0025     		movs	r5, #0
 1175 0012 34E0     		b	.L51
 1176              	.L52:
 633:.\u8glib_arm_v1.18.1\src/u8g_dev_ssd1351_128x128.c ****   {
 634:.\u8glib_arm_v1.18.1\src/u8g_dev_ssd1351_128x128.c ****     low = *ptr++;
 1177              		.loc 1 634 0 discriminator 3
 1178 0014 7B68     		ldr	r3, [r7, #4]
 1179 0016 5A1C     		adds	r2, r3, #1
 1180 0018 7A60     		str	r2, [r7, #4]
 1181 001a 93F80090 		ldrb	r9, [r3]	@ zero_extendqisi2
 635:.\u8glib_arm_v1.18.1\src/u8g_dev_ssd1351_128x128.c ****     high = *ptr++;
 1182              		.loc 1 635 0 discriminator 3
 1183 001e 7B68     		ldr	r3, [r7, #4]
 1184 0020 5A1C     		adds	r2, r3, #1
 1185 0022 7A60     		str	r2, [r7, #4]
 1186 0024 1C78     		ldrb	r4, [r3]	@ zero_extendqisi2
 636:.\u8glib_arm_v1.18.1\src/u8g_dev_ssd1351_128x128.c ****     
 637:.\u8glib_arm_v1.18.1\src/u8g_dev_ssd1351_128x128.c ****     r = high & ~7;
 1187              		.loc 1 637 0 discriminator 3
 1188 0026 24F00703 		bic	r3, r4, #7
 1189 002a 5FFA83F8 		uxtb	r8, r3
 638:.\u8glib_arm_v1.18.1\src/u8g_dev_ssd1351_128x128.c ****     r >>= 2;
 1190              		.loc 1 638 0 discriminator 3
 1191 002e 4FEA9803 		lsr	r3, r8, #2
 1192 0032 5FFA83F8 		uxtb	r8, r3
 639:.\u8glib_arm_v1.18.1\src/u8g_dev_ssd1351_128x128.c ****     b = low & 31;
 1193              		.loc 1 639 0 discriminator 3
 1194 0036 09F01F03 		and	r3, r9, #31
 1195 003a DEB2     		uxtb	r6, r3
 640:.\u8glib_arm_v1.18.1\src/u8g_dev_ssd1351_128x128.c ****     b <<= 1;
 1196              		.loc 1 640 0 discriminator 3
 1197 003c 7300     		lsls	r3, r6, #1
 1198 003e DEB2     		uxtb	r6, r3
 641:.\u8glib_arm_v1.18.1\src/u8g_dev_ssd1351_128x128.c ****     g = high & 7;
 1199              		.loc 1 641 0 discriminator 3
 1200 0040 04F00703 		and	r3, r4, #7
ARM GAS  C:\Users\Shiguruy\AppData\Local\Temp\ccjEOE4H.s 			page 34


 1201 0044 DCB2     		uxtb	r4, r3
 642:.\u8glib_arm_v1.18.1\src/u8g_dev_ssd1351_128x128.c ****     g <<= 3;
 1202              		.loc 1 642 0 discriminator 3
 1203 0046 E300     		lsls	r3, r4, #3
 1204 0048 DCB2     		uxtb	r4, r3
 643:.\u8glib_arm_v1.18.1\src/u8g_dev_ssd1351_128x128.c ****     g |= (low>>5)&7;
 1205              		.loc 1 643 0 discriminator 3
 1206 004a 4FEA5913 		lsr	r3, r9, #5
 1207 004e DBB2     		uxtb	r3, r3
 1208 0050 DAB2     		uxtb	r2, r3
 1209 0052 E3B2     		uxtb	r3, r4
 1210 0054 1343     		orrs	r3, r3, r2
 1211 0056 DBB2     		uxtb	r3, r3
 1212 0058 DCB2     		uxtb	r4, r3
 644:.\u8glib_arm_v1.18.1\src/u8g_dev_ssd1351_128x128.c ****     
 645:.\u8glib_arm_v1.18.1\src/u8g_dev_ssd1351_128x128.c ****     *dest++ = r;
 1213              		.loc 1 645 0 discriminator 3
 1214 005a FB68     		ldr	r3, [r7, #12]
 1215 005c 5A1C     		adds	r2, r3, #1
 1216 005e FA60     		str	r2, [r7, #12]
 1217 0060 4246     		mov	r2, r8
 1218 0062 1A70     		strb	r2, [r3]
 646:.\u8glib_arm_v1.18.1\src/u8g_dev_ssd1351_128x128.c ****     *dest++ = g;
 1219              		.loc 1 646 0 discriminator 3
 1220 0064 FB68     		ldr	r3, [r7, #12]
 1221 0066 5A1C     		adds	r2, r3, #1
 1222 0068 FA60     		str	r2, [r7, #12]
 1223 006a 2246     		mov	r2, r4
 1224 006c 1A70     		strb	r2, [r3]
 647:.\u8glib_arm_v1.18.1\src/u8g_dev_ssd1351_128x128.c ****     *dest++ = b;
 1225              		.loc 1 647 0 discriminator 3
 1226 006e FB68     		ldr	r3, [r7, #12]
 1227 0070 5A1C     		adds	r2, r3, #1
 1228 0072 FA60     		str	r2, [r7, #12]
 1229 0074 3246     		mov	r2, r6
 1230 0076 1A70     		strb	r2, [r3]
 632:.\u8glib_arm_v1.18.1\src/u8g_dev_ssd1351_128x128.c ****   {
 1231              		.loc 1 632 0 discriminator 3
 1232 0078 2B46     		mov	r3, r5
 1233 007a 0133     		adds	r3, r3, #1
 1234 007c DDB2     		uxtb	r5, r3
 1235              	.L51:
 632:.\u8glib_arm_v1.18.1\src/u8g_dev_ssd1351_128x128.c ****   {
 1236              		.loc 1 632 0 is_stmt 0 discriminator 1
 1237 007e 072D     		cmp	r5, #7
 1238 0080 C8D9     		bls	.L52
 648:.\u8glib_arm_v1.18.1\src/u8g_dev_ssd1351_128x128.c ****   } 
 649:.\u8glib_arm_v1.18.1\src/u8g_dev_ssd1351_128x128.c **** }
 1239              		.loc 1 649 0 is_stmt 1
 1240 0082 1037     		adds	r7, r7, #16
 1241              		.cfi_def_cfa_offset 24
 1242 0084 BD46     		mov	sp, r7
 1243              		.cfi_def_cfa_register 13
 1244              		@ sp needed
 1245 0086 BDE8F003 		pop	{r4, r5, r6, r7, r8, r9}
 1246              		.cfi_restore 9
 1247              		.cfi_restore 8
ARM GAS  C:\Users\Shiguruy\AppData\Local\Temp\ccjEOE4H.s 			page 35


 1248              		.cfi_restore 7
 1249              		.cfi_restore 6
 1250              		.cfi_restore 5
 1251              		.cfi_restore 4
 1252              		.cfi_def_cfa_offset 0
 1253 008a 7047     		bx	lr
 1254              	.L54:
 1255              		.align	2
 1256              	.L53:
 1257 008c 00000000 		.word	u8g_ssd1351_stream_bytes
 1258              		.cfi_endproc
 1259              	.LFE4:
 1260              		.size	u8g_ssd1351_hicolor_to_stream, .-u8g_ssd1351_hicolor_to_stream
 1261              		.section	.text.u8g_dev_ssd1351_128x128_hicolor_fn,"ax",%progbits
 1262              		.align	2
 1263              		.global	u8g_dev_ssd1351_128x128_hicolor_fn
 1264              		.thumb
 1265              		.thumb_func
 1266              		.type	u8g_dev_ssd1351_128x128_hicolor_fn, %function
 1267              	u8g_dev_ssd1351_128x128_hicolor_fn:
 1268              	.LFB5:
 650:.\u8glib_arm_v1.18.1\src/u8g_dev_ssd1351_128x128.c **** 
 651:.\u8glib_arm_v1.18.1\src/u8g_dev_ssd1351_128x128.c **** 
 652:.\u8glib_arm_v1.18.1\src/u8g_dev_ssd1351_128x128.c **** uint8_t u8g_dev_ssd1351_128x128_hicolor_fn(u8g_t *u8g, u8g_dev_t *dev, uint8_t msg, void *arg)
 653:.\u8glib_arm_v1.18.1\src/u8g_dev_ssd1351_128x128.c **** {
 1269              		.loc 1 653 0
 1270              		.cfi_startproc
 1271              		@ args = 0, pretend = 0, frame = 32
 1272              		@ frame_needed = 1, uses_anonymous_args = 0
 1273 0000 80B5     		push	{r7, lr}
 1274              		.cfi_def_cfa_offset 8
 1275              		.cfi_offset 7, -8
 1276              		.cfi_offset 14, -4
 1277 0002 88B0     		sub	sp, sp, #32
 1278              		.cfi_def_cfa_offset 40
 1279 0004 00AF     		add	r7, sp, #0
 1280              		.cfi_def_cfa_register 7
 1281 0006 F860     		str	r0, [r7, #12]
 1282 0008 B960     		str	r1, [r7, #8]
 1283 000a 3B60     		str	r3, [r7]
 1284 000c 1346     		mov	r3, r2
 1285 000e FB71     		strb	r3, [r7, #7]
 654:.\u8glib_arm_v1.18.1\src/u8g_dev_ssd1351_128x128.c ****   switch(msg)
 1286              		.loc 1 654 0
 1287 0010 FB79     		ldrb	r3, [r7, #7]	@ zero_extendqisi2
 1288 0012 142B     		cmp	r3, #20
 1289 0014 15D0     		beq	.L57
 1290 0016 142B     		cmp	r3, #20
 1291 0018 03DC     		bgt	.L58
 1292 001a 0A2B     		cmp	r3, #10
 1293 001c 06D0     		beq	.L59
 1294 001e 0B2B     		cmp	r3, #11
 655:.\u8glib_arm_v1.18.1\src/u8g_dev_ssd1351_128x128.c ****   {
 656:.\u8glib_arm_v1.18.1\src/u8g_dev_ssd1351_128x128.c ****     case U8G_DEV_MSG_INIT:
 657:.\u8glib_arm_v1.18.1\src/u8g_dev_ssd1351_128x128.c ****       u8g_InitCom(u8g, dev, U8G_SPI_CLK_CYCLE_50NS);
 658:.\u8glib_arm_v1.18.1\src/u8g_dev_ssd1351_128x128.c ****       u8g_WriteEscSeqP(u8g, dev, u8g_dev_ssd1351_128x128_init_seq);
 659:.\u8glib_arm_v1.18.1\src/u8g_dev_ssd1351_128x128.c ****       break;
ARM GAS  C:\Users\Shiguruy\AppData\Local\Temp\ccjEOE4H.s 			page 36


 660:.\u8glib_arm_v1.18.1\src/u8g_dev_ssd1351_128x128.c ****     case U8G_DEV_MSG_STOP:
 661:.\u8glib_arm_v1.18.1\src/u8g_dev_ssd1351_128x128.c ****       break;
 1295              		.loc 1 661 0
 1296 0020 54E0     		b	.L56
 1297              	.L58:
 654:.\u8glib_arm_v1.18.1\src/u8g_dev_ssd1351_128x128.c ****   switch(msg)
 1298              		.loc 1 654 0
 1299 0022 152B     		cmp	r3, #21
 1300 0024 13D0     		beq	.L61
 1301 0026 482B     		cmp	r3, #72
 1302 0028 4ED0     		beq	.L62
 1303 002a 4FE0     		b	.L56
 1304              	.L59:
 657:.\u8glib_arm_v1.18.1\src/u8g_dev_ssd1351_128x128.c ****       u8g_WriteEscSeqP(u8g, dev, u8g_dev_ssd1351_128x128_init_seq);
 1305              		.loc 1 657 0
 1306 002c F868     		ldr	r0, [r7, #12]
 1307 002e B968     		ldr	r1, [r7, #8]
 1308 0030 0122     		movs	r2, #1
 1309 0032 FFF7FEFF 		bl	u8g_InitCom
 658:.\u8glib_arm_v1.18.1\src/u8g_dev_ssd1351_128x128.c ****       break;
 1310              		.loc 1 658 0
 1311 0036 F868     		ldr	r0, [r7, #12]
 1312 0038 B968     		ldr	r1, [r7, #8]
 1313 003a 2A4A     		ldr	r2, .L68
 1314 003c FFF7FEFF 		bl	u8g_WriteEscSeqP
 659:.\u8glib_arm_v1.18.1\src/u8g_dev_ssd1351_128x128.c ****     case U8G_DEV_MSG_STOP:
 1315              		.loc 1 659 0
 1316 0040 44E0     		b	.L56
 1317              	.L57:
 662:.\u8glib_arm_v1.18.1\src/u8g_dev_ssd1351_128x128.c ****     case U8G_DEV_MSG_PAGE_FIRST:
 663:.\u8glib_arm_v1.18.1\src/u8g_dev_ssd1351_128x128.c ****       u8g_WriteEscSeqP(u8g, dev, u8g_dev_ssd1351_128x128_column_seq);
 1318              		.loc 1 663 0
 1319 0042 F868     		ldr	r0, [r7, #12]
 1320 0044 B968     		ldr	r1, [r7, #8]
 1321 0046 284A     		ldr	r2, .L68+4
 1322 0048 FFF7FEFF 		bl	u8g_WriteEscSeqP
 664:.\u8glib_arm_v1.18.1\src/u8g_dev_ssd1351_128x128.c ****       break;
 1323              		.loc 1 664 0
 1324 004c 3EE0     		b	.L56
 1325              	.L61:
 1326              	.LBB5:
 665:.\u8glib_arm_v1.18.1\src/u8g_dev_ssd1351_128x128.c ****     case U8G_DEV_MSG_PAGE_NEXT:
 666:.\u8glib_arm_v1.18.1\src/u8g_dev_ssd1351_128x128.c ****       {
 667:.\u8glib_arm_v1.18.1\src/u8g_dev_ssd1351_128x128.c ****         u8g_pb_t *pb = (u8g_pb_t *)(dev->dev_mem);
 1327              		.loc 1 667 0
 1328 004e BB68     		ldr	r3, [r7, #8]
 1329 0050 5B68     		ldr	r3, [r3, #4]
 1330 0052 7B61     		str	r3, [r7, #20]
 668:.\u8glib_arm_v1.18.1\src/u8g_dev_ssd1351_128x128.c ****         uint8_t i, j;
 669:.\u8glib_arm_v1.18.1\src/u8g_dev_ssd1351_128x128.c ****         uint8_t page_height;
 670:.\u8glib_arm_v1.18.1\src/u8g_dev_ssd1351_128x128.c **** 	uint8_t *ptr = pb->buf;
 1331              		.loc 1 670 0
 1332 0054 7B69     		ldr	r3, [r7, #20]
 1333 0056 9B68     		ldr	r3, [r3, #8]
 1334 0058 BB61     		str	r3, [r7, #24]
 671:.\u8glib_arm_v1.18.1\src/u8g_dev_ssd1351_128x128.c **** 
 672:.\u8glib_arm_v1.18.1\src/u8g_dev_ssd1351_128x128.c **** 	u8g_SetChipSelect(u8g, dev, 1);
ARM GAS  C:\Users\Shiguruy\AppData\Local\Temp\ccjEOE4H.s 			page 37


 1335              		.loc 1 672 0
 1336 005a F868     		ldr	r0, [r7, #12]
 1337 005c B968     		ldr	r1, [r7, #8]
 1338 005e 0122     		movs	r2, #1
 1339 0060 FFF7FEFF 		bl	u8g_SetChipSelect
 673:.\u8glib_arm_v1.18.1\src/u8g_dev_ssd1351_128x128.c **** 
 674:.\u8glib_arm_v1.18.1\src/u8g_dev_ssd1351_128x128.c ****         page_height = pb->p.page_y1;
 1340              		.loc 1 674 0
 1341 0064 7B69     		ldr	r3, [r7, #20]
 1342 0066 DB78     		ldrb	r3, [r3, #3]
 1343 0068 FB74     		strb	r3, [r7, #19]
 675:.\u8glib_arm_v1.18.1\src/u8g_dev_ssd1351_128x128.c ****         page_height -= pb->p.page_y0;
 1344              		.loc 1 675 0
 1345 006a 7B69     		ldr	r3, [r7, #20]
 1346 006c 9B78     		ldrb	r3, [r3, #2]	@ zero_extendqisi2
 1347 006e FA7C     		ldrb	r2, [r7, #19]
 1348 0070 D31A     		subs	r3, r2, r3
 1349 0072 FB74     		strb	r3, [r7, #19]
 676:.\u8glib_arm_v1.18.1\src/u8g_dev_ssd1351_128x128.c ****         page_height++;
 1350              		.loc 1 676 0
 1351 0074 FB7C     		ldrb	r3, [r7, #19]	@ zero_extendqisi2
 1352 0076 0133     		adds	r3, r3, #1
 1353 0078 FB74     		strb	r3, [r7, #19]
 677:.\u8glib_arm_v1.18.1\src/u8g_dev_ssd1351_128x128.c ****         for( j = 0; j < page_height; j++ )
 1354              		.loc 1 677 0
 1355 007a 0023     		movs	r3, #0
 1356 007c BB77     		strb	r3, [r7, #30]
 1357 007e 19E0     		b	.L63
 1358              	.L66:
 678:.\u8glib_arm_v1.18.1\src/u8g_dev_ssd1351_128x128.c ****         {
 679:.\u8glib_arm_v1.18.1\src/u8g_dev_ssd1351_128x128.c **** 	    for (i = 0; i < pb->width; i+=RGB332_STREAM_BYTES)
 1359              		.loc 1 679 0
 1360 0080 0023     		movs	r3, #0
 1361 0082 FB77     		strb	r3, [r7, #31]
 1362 0084 0EE0     		b	.L64
 1363              	.L65:
 680:.\u8glib_arm_v1.18.1\src/u8g_dev_ssd1351_128x128.c **** 	    {
 681:.\u8glib_arm_v1.18.1\src/u8g_dev_ssd1351_128x128.c **** 	      u8g_ssd1351_hicolor_to_stream(ptr);
 1364              		.loc 1 681 0 discriminator 3
 1365 0086 B869     		ldr	r0, [r7, #24]
 1366 0088 FFF7FEFF 		bl	u8g_ssd1351_hicolor_to_stream
 682:.\u8glib_arm_v1.18.1\src/u8g_dev_ssd1351_128x128.c **** 	      u8g_WriteSequence(u8g, dev, RGB332_STREAM_BYTES*3, u8g_ssd1351_stream_bytes);
 1367              		.loc 1 682 0 discriminator 3
 1368 008c F868     		ldr	r0, [r7, #12]
 1369 008e B968     		ldr	r1, [r7, #8]
 1370 0090 1822     		movs	r2, #24
 1371 0092 164B     		ldr	r3, .L68+8
 1372 0094 FFF7FEFF 		bl	u8g_WriteSequence
 683:.\u8glib_arm_v1.18.1\src/u8g_dev_ssd1351_128x128.c **** 	      ptr += RGB332_STREAM_BYTES*2;
 1373              		.loc 1 683 0 discriminator 3
 1374 0098 BB69     		ldr	r3, [r7, #24]
 1375 009a 1033     		adds	r3, r3, #16
 1376 009c BB61     		str	r3, [r7, #24]
 679:.\u8glib_arm_v1.18.1\src/u8g_dev_ssd1351_128x128.c **** 	    {
 1377              		.loc 1 679 0 discriminator 3
 1378 009e FB7F     		ldrb	r3, [r7, #31]
 1379 00a0 0833     		adds	r3, r3, #8
ARM GAS  C:\Users\Shiguruy\AppData\Local\Temp\ccjEOE4H.s 			page 38


 1380 00a2 FB77     		strb	r3, [r7, #31]
 1381              	.L64:
 679:.\u8glib_arm_v1.18.1\src/u8g_dev_ssd1351_128x128.c **** 	    {
 1382              		.loc 1 679 0 is_stmt 0 discriminator 1
 1383 00a4 7B69     		ldr	r3, [r7, #20]
 1384 00a6 5B79     		ldrb	r3, [r3, #5]	@ zero_extendqisi2
 1385 00a8 FA7F     		ldrb	r2, [r7, #31]	@ zero_extendqisi2
 1386 00aa 9A42     		cmp	r2, r3
 1387 00ac EBD3     		bcc	.L65
 677:.\u8glib_arm_v1.18.1\src/u8g_dev_ssd1351_128x128.c ****         {
 1388              		.loc 1 677 0 is_stmt 1 discriminator 2
 1389 00ae BB7F     		ldrb	r3, [r7, #30]	@ zero_extendqisi2
 1390 00b0 0133     		adds	r3, r3, #1
 1391 00b2 BB77     		strb	r3, [r7, #30]
 1392              	.L63:
 677:.\u8glib_arm_v1.18.1\src/u8g_dev_ssd1351_128x128.c ****         {
 1393              		.loc 1 677 0 is_stmt 0 discriminator 1
 1394 00b4 BA7F     		ldrb	r2, [r7, #30]	@ zero_extendqisi2
 1395 00b6 FB7C     		ldrb	r3, [r7, #19]	@ zero_extendqisi2
 1396 00b8 9A42     		cmp	r2, r3
 1397 00ba E1D3     		bcc	.L66
 684:.\u8glib_arm_v1.18.1\src/u8g_dev_ssd1351_128x128.c **** 	    }
 685:.\u8glib_arm_v1.18.1\src/u8g_dev_ssd1351_128x128.c **** 	  
 686:.\u8glib_arm_v1.18.1\src/u8g_dev_ssd1351_128x128.c ****         }
 687:.\u8glib_arm_v1.18.1\src/u8g_dev_ssd1351_128x128.c **** 
 688:.\u8glib_arm_v1.18.1\src/u8g_dev_ssd1351_128x128.c **** 	u8g_SetChipSelect(u8g, dev, 0);
 1398              		.loc 1 688 0 is_stmt 1
 1399 00bc F868     		ldr	r0, [r7, #12]
 1400 00be B968     		ldr	r1, [r7, #8]
 1401 00c0 0022     		movs	r2, #0
 1402 00c2 FFF7FEFF 		bl	u8g_SetChipSelect
 1403              	.LBE5:
 689:.\u8glib_arm_v1.18.1\src/u8g_dev_ssd1351_128x128.c **** 	
 690:.\u8glib_arm_v1.18.1\src/u8g_dev_ssd1351_128x128.c ****       }
 691:.\u8glib_arm_v1.18.1\src/u8g_dev_ssd1351_128x128.c ****       break;    /* continue to base fn */
 1404              		.loc 1 691 0
 1405 00c6 01E0     		b	.L56
 1406              	.L62:
 692:.\u8glib_arm_v1.18.1\src/u8g_dev_ssd1351_128x128.c ****     case U8G_DEV_MSG_GET_MODE:
 693:.\u8glib_arm_v1.18.1\src/u8g_dev_ssd1351_128x128.c ****      return U8G_MODE_HICOLOR;
 1407              		.loc 1 693 0
 1408 00c8 3023     		movs	r3, #48
 1409 00ca 07E0     		b	.L67
 1410              	.L56:
 694:.\u8glib_arm_v1.18.1\src/u8g_dev_ssd1351_128x128.c ****   }
 695:.\u8glib_arm_v1.18.1\src/u8g_dev_ssd1351_128x128.c ****   return u8g_dev_pbxh16_base_fn(u8g, dev, msg, arg);
 1411              		.loc 1 695 0
 1412 00cc FB79     		ldrb	r3, [r7, #7]	@ zero_extendqisi2
 1413 00ce F868     		ldr	r0, [r7, #12]
 1414 00d0 B968     		ldr	r1, [r7, #8]
 1415 00d2 1A46     		mov	r2, r3
 1416 00d4 3B68     		ldr	r3, [r7]
 1417 00d6 FFF7FEFF 		bl	u8g_dev_pbxh16_base_fn
 1418 00da 0346     		mov	r3, r0
 1419              	.L67:
 696:.\u8glib_arm_v1.18.1\src/u8g_dev_ssd1351_128x128.c **** }
 1420              		.loc 1 696 0
ARM GAS  C:\Users\Shiguruy\AppData\Local\Temp\ccjEOE4H.s 			page 39


 1421 00dc 1846     		mov	r0, r3
 1422 00de 2037     		adds	r7, r7, #32
 1423              		.cfi_def_cfa_offset 8
 1424 00e0 BD46     		mov	sp, r7
 1425              		.cfi_def_cfa_register 13
 1426              		@ sp needed
 1427 00e2 80BD     		pop	{r7, pc}
 1428              	.L69:
 1429              		.align	2
 1430              	.L68:
 1431 00e4 00000000 		.word	u8g_dev_ssd1351_128x128_init_seq
 1432 00e8 A8010000 		.word	u8g_dev_ssd1351_128x128_column_seq
 1433 00ec 00000000 		.word	u8g_ssd1351_stream_bytes
 1434              		.cfi_endproc
 1435              	.LFE5:
 1436              		.size	u8g_dev_ssd1351_128x128_hicolor_fn, .-u8g_dev_ssd1351_128x128_hicolor_fn
 1437              		.section	.text.u8g_dev_ssd1351_128x128gh_hicolor_fn,"ax",%progbits
 1438              		.align	2
 1439              		.global	u8g_dev_ssd1351_128x128gh_hicolor_fn
 1440              		.thumb
 1441              		.thumb_func
 1442              		.type	u8g_dev_ssd1351_128x128gh_hicolor_fn, %function
 1443              	u8g_dev_ssd1351_128x128gh_hicolor_fn:
 1444              	.LFB6:
 697:.\u8glib_arm_v1.18.1\src/u8g_dev_ssd1351_128x128.c **** 
 698:.\u8glib_arm_v1.18.1\src/u8g_dev_ssd1351_128x128.c **** uint8_t u8g_dev_ssd1351_128x128gh_hicolor_fn(u8g_t *u8g, u8g_dev_t *dev, uint8_t msg, void *arg)
 699:.\u8glib_arm_v1.18.1\src/u8g_dev_ssd1351_128x128.c **** {
 1445              		.loc 1 699 0
 1446              		.cfi_startproc
 1447              		@ args = 0, pretend = 0, frame = 32
 1448              		@ frame_needed = 1, uses_anonymous_args = 0
 1449 0000 80B5     		push	{r7, lr}
 1450              		.cfi_def_cfa_offset 8
 1451              		.cfi_offset 7, -8
 1452              		.cfi_offset 14, -4
 1453 0002 88B0     		sub	sp, sp, #32
 1454              		.cfi_def_cfa_offset 40
 1455 0004 00AF     		add	r7, sp, #0
 1456              		.cfi_def_cfa_register 7
 1457 0006 F860     		str	r0, [r7, #12]
 1458 0008 B960     		str	r1, [r7, #8]
 1459 000a 3B60     		str	r3, [r7]
 1460 000c 1346     		mov	r3, r2
 1461 000e FB71     		strb	r3, [r7, #7]
 700:.\u8glib_arm_v1.18.1\src/u8g_dev_ssd1351_128x128.c ****   switch(msg)
 1462              		.loc 1 700 0
 1463 0010 FB79     		ldrb	r3, [r7, #7]	@ zero_extendqisi2
 1464 0012 142B     		cmp	r3, #20
 1465 0014 15D0     		beq	.L72
 1466 0016 142B     		cmp	r3, #20
 1467 0018 03DC     		bgt	.L73
 1468 001a 0A2B     		cmp	r3, #10
 1469 001c 06D0     		beq	.L74
 1470 001e 0B2B     		cmp	r3, #11
 701:.\u8glib_arm_v1.18.1\src/u8g_dev_ssd1351_128x128.c ****   {
 702:.\u8glib_arm_v1.18.1\src/u8g_dev_ssd1351_128x128.c ****     case U8G_DEV_MSG_INIT:
 703:.\u8glib_arm_v1.18.1\src/u8g_dev_ssd1351_128x128.c ****       u8g_InitCom(u8g, dev, U8G_SPI_CLK_CYCLE_50NS);
ARM GAS  C:\Users\Shiguruy\AppData\Local\Temp\ccjEOE4H.s 			page 40


 704:.\u8glib_arm_v1.18.1\src/u8g_dev_ssd1351_128x128.c ****       u8g_WriteEscSeqP(u8g, dev, u8g_dev_ssd1351_128x128gh_init_seq);
 705:.\u8glib_arm_v1.18.1\src/u8g_dev_ssd1351_128x128.c ****       break;
 706:.\u8glib_arm_v1.18.1\src/u8g_dev_ssd1351_128x128.c ****     case U8G_DEV_MSG_STOP:
 707:.\u8glib_arm_v1.18.1\src/u8g_dev_ssd1351_128x128.c ****       break;
 1471              		.loc 1 707 0
 1472 0020 54E0     		b	.L71
 1473              	.L73:
 700:.\u8glib_arm_v1.18.1\src/u8g_dev_ssd1351_128x128.c ****   switch(msg)
 1474              		.loc 1 700 0
 1475 0022 152B     		cmp	r3, #21
 1476 0024 13D0     		beq	.L76
 1477 0026 482B     		cmp	r3, #72
 1478 0028 4ED0     		beq	.L77
 1479 002a 4FE0     		b	.L71
 1480              	.L74:
 703:.\u8glib_arm_v1.18.1\src/u8g_dev_ssd1351_128x128.c ****       u8g_WriteEscSeqP(u8g, dev, u8g_dev_ssd1351_128x128gh_init_seq);
 1481              		.loc 1 703 0
 1482 002c F868     		ldr	r0, [r7, #12]
 1483 002e B968     		ldr	r1, [r7, #8]
 1484 0030 0122     		movs	r2, #1
 1485 0032 FFF7FEFF 		bl	u8g_InitCom
 704:.\u8glib_arm_v1.18.1\src/u8g_dev_ssd1351_128x128.c ****       break;
 1486              		.loc 1 704 0
 1487 0036 F868     		ldr	r0, [r7, #12]
 1488 0038 B968     		ldr	r1, [r7, #8]
 1489 003a 2A4A     		ldr	r2, .L83
 1490 003c FFF7FEFF 		bl	u8g_WriteEscSeqP
 705:.\u8glib_arm_v1.18.1\src/u8g_dev_ssd1351_128x128.c ****     case U8G_DEV_MSG_STOP:
 1491              		.loc 1 705 0
 1492 0040 44E0     		b	.L71
 1493              	.L72:
 708:.\u8glib_arm_v1.18.1\src/u8g_dev_ssd1351_128x128.c ****     case U8G_DEV_MSG_PAGE_FIRST:
 709:.\u8glib_arm_v1.18.1\src/u8g_dev_ssd1351_128x128.c ****       u8g_WriteEscSeqP(u8g, dev, u8g_dev_ssd1351_128x128_column_seq);
 1494              		.loc 1 709 0
 1495 0042 F868     		ldr	r0, [r7, #12]
 1496 0044 B968     		ldr	r1, [r7, #8]
 1497 0046 284A     		ldr	r2, .L83+4
 1498 0048 FFF7FEFF 		bl	u8g_WriteEscSeqP
 710:.\u8glib_arm_v1.18.1\src/u8g_dev_ssd1351_128x128.c ****       break;
 1499              		.loc 1 710 0
 1500 004c 3EE0     		b	.L71
 1501              	.L76:
 1502              	.LBB6:
 711:.\u8glib_arm_v1.18.1\src/u8g_dev_ssd1351_128x128.c ****     case U8G_DEV_MSG_PAGE_NEXT:
 712:.\u8glib_arm_v1.18.1\src/u8g_dev_ssd1351_128x128.c ****       {
 713:.\u8glib_arm_v1.18.1\src/u8g_dev_ssd1351_128x128.c ****         u8g_pb_t *pb = (u8g_pb_t *)(dev->dev_mem);
 1503              		.loc 1 713 0
 1504 004e BB68     		ldr	r3, [r7, #8]
 1505 0050 5B68     		ldr	r3, [r3, #4]
 1506 0052 7B61     		str	r3, [r7, #20]
 714:.\u8glib_arm_v1.18.1\src/u8g_dev_ssd1351_128x128.c ****         uint8_t i, j;
 715:.\u8glib_arm_v1.18.1\src/u8g_dev_ssd1351_128x128.c ****         uint8_t page_height;
 716:.\u8glib_arm_v1.18.1\src/u8g_dev_ssd1351_128x128.c **** 	uint8_t *ptr = pb->buf;
 1507              		.loc 1 716 0
 1508 0054 7B69     		ldr	r3, [r7, #20]
 1509 0056 9B68     		ldr	r3, [r3, #8]
 1510 0058 BB61     		str	r3, [r7, #24]
ARM GAS  C:\Users\Shiguruy\AppData\Local\Temp\ccjEOE4H.s 			page 41


 717:.\u8glib_arm_v1.18.1\src/u8g_dev_ssd1351_128x128.c **** 
 718:.\u8glib_arm_v1.18.1\src/u8g_dev_ssd1351_128x128.c **** 	u8g_SetChipSelect(u8g, dev, 1);
 1511              		.loc 1 718 0
 1512 005a F868     		ldr	r0, [r7, #12]
 1513 005c B968     		ldr	r1, [r7, #8]
 1514 005e 0122     		movs	r2, #1
 1515 0060 FFF7FEFF 		bl	u8g_SetChipSelect
 719:.\u8glib_arm_v1.18.1\src/u8g_dev_ssd1351_128x128.c **** 
 720:.\u8glib_arm_v1.18.1\src/u8g_dev_ssd1351_128x128.c ****         page_height = pb->p.page_y1;
 1516              		.loc 1 720 0
 1517 0064 7B69     		ldr	r3, [r7, #20]
 1518 0066 DB78     		ldrb	r3, [r3, #3]
 1519 0068 FB74     		strb	r3, [r7, #19]
 721:.\u8glib_arm_v1.18.1\src/u8g_dev_ssd1351_128x128.c ****         page_height -= pb->p.page_y0;
 1520              		.loc 1 721 0
 1521 006a 7B69     		ldr	r3, [r7, #20]
 1522 006c 9B78     		ldrb	r3, [r3, #2]	@ zero_extendqisi2
 1523 006e FA7C     		ldrb	r2, [r7, #19]
 1524 0070 D31A     		subs	r3, r2, r3
 1525 0072 FB74     		strb	r3, [r7, #19]
 722:.\u8glib_arm_v1.18.1\src/u8g_dev_ssd1351_128x128.c ****         page_height++;
 1526              		.loc 1 722 0
 1527 0074 FB7C     		ldrb	r3, [r7, #19]	@ zero_extendqisi2
 1528 0076 0133     		adds	r3, r3, #1
 1529 0078 FB74     		strb	r3, [r7, #19]
 723:.\u8glib_arm_v1.18.1\src/u8g_dev_ssd1351_128x128.c ****         for( j = 0; j < page_height; j++ )
 1530              		.loc 1 723 0
 1531 007a 0023     		movs	r3, #0
 1532 007c BB77     		strb	r3, [r7, #30]
 1533 007e 19E0     		b	.L78
 1534              	.L81:
 724:.\u8glib_arm_v1.18.1\src/u8g_dev_ssd1351_128x128.c ****         {
 725:.\u8glib_arm_v1.18.1\src/u8g_dev_ssd1351_128x128.c **** 	    for (i = 0; i < pb->width; i+=RGB332_STREAM_BYTES)
 1535              		.loc 1 725 0
 1536 0080 0023     		movs	r3, #0
 1537 0082 FB77     		strb	r3, [r7, #31]
 1538 0084 0EE0     		b	.L79
 1539              	.L80:
 726:.\u8glib_arm_v1.18.1\src/u8g_dev_ssd1351_128x128.c **** 	    {
 727:.\u8glib_arm_v1.18.1\src/u8g_dev_ssd1351_128x128.c **** 	      u8g_ssd1351_hicolor_to_stream(ptr);
 1540              		.loc 1 727 0 discriminator 3
 1541 0086 B869     		ldr	r0, [r7, #24]
 1542 0088 FFF7FEFF 		bl	u8g_ssd1351_hicolor_to_stream
 728:.\u8glib_arm_v1.18.1\src/u8g_dev_ssd1351_128x128.c **** 	      u8g_WriteSequence(u8g, dev, RGB332_STREAM_BYTES*3, u8g_ssd1351_stream_bytes);
 1543              		.loc 1 728 0 discriminator 3
 1544 008c F868     		ldr	r0, [r7, #12]
 1545 008e B968     		ldr	r1, [r7, #8]
 1546 0090 1822     		movs	r2, #24
 1547 0092 164B     		ldr	r3, .L83+8
 1548 0094 FFF7FEFF 		bl	u8g_WriteSequence
 729:.\u8glib_arm_v1.18.1\src/u8g_dev_ssd1351_128x128.c **** 	      ptr += RGB332_STREAM_BYTES*2;
 1549              		.loc 1 729 0 discriminator 3
 1550 0098 BB69     		ldr	r3, [r7, #24]
 1551 009a 1033     		adds	r3, r3, #16
 1552 009c BB61     		str	r3, [r7, #24]
 725:.\u8glib_arm_v1.18.1\src/u8g_dev_ssd1351_128x128.c **** 	    {
 1553              		.loc 1 725 0 discriminator 3
ARM GAS  C:\Users\Shiguruy\AppData\Local\Temp\ccjEOE4H.s 			page 42


 1554 009e FB7F     		ldrb	r3, [r7, #31]
 1555 00a0 0833     		adds	r3, r3, #8
 1556 00a2 FB77     		strb	r3, [r7, #31]
 1557              	.L79:
 725:.\u8glib_arm_v1.18.1\src/u8g_dev_ssd1351_128x128.c **** 	    {
 1558              		.loc 1 725 0 is_stmt 0 discriminator 1
 1559 00a4 7B69     		ldr	r3, [r7, #20]
 1560 00a6 5B79     		ldrb	r3, [r3, #5]	@ zero_extendqisi2
 1561 00a8 FA7F     		ldrb	r2, [r7, #31]	@ zero_extendqisi2
 1562 00aa 9A42     		cmp	r2, r3
 1563 00ac EBD3     		bcc	.L80
 723:.\u8glib_arm_v1.18.1\src/u8g_dev_ssd1351_128x128.c ****         {
 1564              		.loc 1 723 0 is_stmt 1 discriminator 2
 1565 00ae BB7F     		ldrb	r3, [r7, #30]	@ zero_extendqisi2
 1566 00b0 0133     		adds	r3, r3, #1
 1567 00b2 BB77     		strb	r3, [r7, #30]
 1568              	.L78:
 723:.\u8glib_arm_v1.18.1\src/u8g_dev_ssd1351_128x128.c ****         {
 1569              		.loc 1 723 0 is_stmt 0 discriminator 1
 1570 00b4 BA7F     		ldrb	r2, [r7, #30]	@ zero_extendqisi2
 1571 00b6 FB7C     		ldrb	r3, [r7, #19]	@ zero_extendqisi2
 1572 00b8 9A42     		cmp	r2, r3
 1573 00ba E1D3     		bcc	.L81
 730:.\u8glib_arm_v1.18.1\src/u8g_dev_ssd1351_128x128.c **** 	    }
 731:.\u8glib_arm_v1.18.1\src/u8g_dev_ssd1351_128x128.c **** 	  
 732:.\u8glib_arm_v1.18.1\src/u8g_dev_ssd1351_128x128.c ****         }
 733:.\u8glib_arm_v1.18.1\src/u8g_dev_ssd1351_128x128.c **** 
 734:.\u8glib_arm_v1.18.1\src/u8g_dev_ssd1351_128x128.c **** 	u8g_SetChipSelect(u8g, dev, 0);
 1574              		.loc 1 734 0 is_stmt 1
 1575 00bc F868     		ldr	r0, [r7, #12]
 1576 00be B968     		ldr	r1, [r7, #8]
 1577 00c0 0022     		movs	r2, #0
 1578 00c2 FFF7FEFF 		bl	u8g_SetChipSelect
 1579              	.LBE6:
 735:.\u8glib_arm_v1.18.1\src/u8g_dev_ssd1351_128x128.c **** 	
 736:.\u8glib_arm_v1.18.1\src/u8g_dev_ssd1351_128x128.c ****       }
 737:.\u8glib_arm_v1.18.1\src/u8g_dev_ssd1351_128x128.c ****       break;    /* continue to base fn */
 1580              		.loc 1 737 0
 1581 00c6 01E0     		b	.L71
 1582              	.L77:
 738:.\u8glib_arm_v1.18.1\src/u8g_dev_ssd1351_128x128.c ****     case U8G_DEV_MSG_GET_MODE:
 739:.\u8glib_arm_v1.18.1\src/u8g_dev_ssd1351_128x128.c ****      return U8G_MODE_HICOLOR;
 1583              		.loc 1 739 0
 1584 00c8 3023     		movs	r3, #48
 1585 00ca 07E0     		b	.L82
 1586              	.L71:
 740:.\u8glib_arm_v1.18.1\src/u8g_dev_ssd1351_128x128.c ****   }
 741:.\u8glib_arm_v1.18.1\src/u8g_dev_ssd1351_128x128.c ****   return u8g_dev_pbxh16_base_fn(u8g, dev, msg, arg);
 1587              		.loc 1 741 0
 1588 00cc FB79     		ldrb	r3, [r7, #7]	@ zero_extendqisi2
 1589 00ce F868     		ldr	r0, [r7, #12]
 1590 00d0 B968     		ldr	r1, [r7, #8]
 1591 00d2 1A46     		mov	r2, r3
 1592 00d4 3B68     		ldr	r3, [r7]
 1593 00d6 FFF7FEFF 		bl	u8g_dev_pbxh16_base_fn
 1594 00da 0346     		mov	r3, r0
 1595              	.L82:
ARM GAS  C:\Users\Shiguruy\AppData\Local\Temp\ccjEOE4H.s 			page 43


 742:.\u8glib_arm_v1.18.1\src/u8g_dev_ssd1351_128x128.c **** }
 1596              		.loc 1 742 0
 1597 00dc 1846     		mov	r0, r3
 1598 00de 2037     		adds	r7, r7, #32
 1599              		.cfi_def_cfa_offset 8
 1600 00e0 BD46     		mov	sp, r7
 1601              		.cfi_def_cfa_register 13
 1602              		@ sp needed
 1603 00e2 80BD     		pop	{r7, pc}
 1604              	.L84:
 1605              		.align	2
 1606              	.L83:
 1607 00e4 D4000000 		.word	u8g_dev_ssd1351_128x128gh_init_seq
 1608 00e8 A8010000 		.word	u8g_dev_ssd1351_128x128_column_seq
 1609 00ec 00000000 		.word	u8g_ssd1351_stream_bytes
 1610              		.cfi_endproc
 1611              	.LFE6:
 1612              		.size	u8g_dev_ssd1351_128x128gh_hicolor_fn, .-u8g_dev_ssd1351_128x128gh_hicolor_fn
 1613              		.global	u8g_dev_ssd1351_128x128_byte_buf
 1614              		.bss
 1615              		.align	2
 1616              		.type	u8g_dev_ssd1351_128x128_byte_buf, %object
 1617              		.size	u8g_dev_ssd1351_128x128_byte_buf, 1024
 1618              	u8g_dev_ssd1351_128x128_byte_buf:
 1619 0318 00000000 		.space	1024
 1619      00000000 
 1619      00000000 
 1619      00000000 
 1619      00000000 
 1620              		.global	u8g_dev_ssd1351_128x128_byte_pb
 1621              		.data
 1622              		.align	2
 1623              		.type	u8g_dev_ssd1351_128x128_byte_pb, %object
 1624              		.size	u8g_dev_ssd1351_128x128_byte_pb, 12
 1625              	u8g_dev_ssd1351_128x128_byte_pb:
 1626 0000 08       		.byte	8
 1627 0001 80       		.byte	-128
 1628 0002 00       		.byte	0
 1629 0003 00       		.byte	0
 1630 0004 00       		.byte	0
 1631 0005 80       		.byte	-128
 1632 0006 0000     		.space	2
 1633 0008 00000000 		.word	u8g_dev_ssd1351_128x128_byte_buf
 1634              		.global	u8g_dev_ssd1351_128x128_332_sw_spi
 1635              		.align	2
 1636              		.type	u8g_dev_ssd1351_128x128_332_sw_spi, %object
 1637              		.size	u8g_dev_ssd1351_128x128_332_sw_spi, 12
 1638              	u8g_dev_ssd1351_128x128_332_sw_spi:
 1639 000c 00000000 		.word	u8g_dev_ssd1351_128x128_332_fn
 1640 0010 00000000 		.word	u8g_dev_ssd1351_128x128_byte_pb
 1641 0014 00000000 		.word	u8g_com_null_fn
 1642              		.global	u8g_dev_ssd1351_128x128_332_hw_spi
 1643              		.align	2
 1644              		.type	u8g_dev_ssd1351_128x128_332_hw_spi, %object
 1645              		.size	u8g_dev_ssd1351_128x128_332_hw_spi, 12
 1646              	u8g_dev_ssd1351_128x128_332_hw_spi:
 1647 0018 00000000 		.word	u8g_dev_ssd1351_128x128_332_fn
ARM GAS  C:\Users\Shiguruy\AppData\Local\Temp\ccjEOE4H.s 			page 44


 1648 001c 00000000 		.word	u8g_dev_ssd1351_128x128_byte_pb
 1649 0020 00000000 		.word	u8g_com_null_fn
 1650              		.global	u8g_dev_ssd1351_128x128gh_332_sw_spi
 1651              		.align	2
 1652              		.type	u8g_dev_ssd1351_128x128gh_332_sw_spi, %object
 1653              		.size	u8g_dev_ssd1351_128x128gh_332_sw_spi, 12
 1654              	u8g_dev_ssd1351_128x128gh_332_sw_spi:
 1655 0024 00000000 		.word	u8g_dev_ssd1351_128x128gh_332_fn
 1656 0028 00000000 		.word	u8g_dev_ssd1351_128x128_byte_pb
 1657 002c 00000000 		.word	u8g_com_null_fn
 1658              		.global	u8g_dev_ssd1351_128x128gh_332_hw_spi
 1659              		.align	2
 1660              		.type	u8g_dev_ssd1351_128x128gh_332_hw_spi, %object
 1661              		.size	u8g_dev_ssd1351_128x128gh_332_hw_spi, 12
 1662              	u8g_dev_ssd1351_128x128gh_332_hw_spi:
 1663 0030 00000000 		.word	u8g_dev_ssd1351_128x128gh_332_fn
 1664 0034 00000000 		.word	u8g_dev_ssd1351_128x128_byte_pb
 1665 0038 00000000 		.word	u8g_com_null_fn
 1666              		.global	u8g_dev_ssd1351_128x128_hicolor_byte_pb
 1667              		.align	2
 1668              		.type	u8g_dev_ssd1351_128x128_hicolor_byte_pb, %object
 1669              		.size	u8g_dev_ssd1351_128x128_hicolor_byte_pb, 12
 1670              	u8g_dev_ssd1351_128x128_hicolor_byte_pb:
 1671 003c 04       		.byte	4
 1672 003d 80       		.byte	-128
 1673 003e 00       		.byte	0
 1674 003f 00       		.byte	0
 1675 0040 00       		.byte	0
 1676 0041 80       		.byte	-128
 1677 0042 0000     		.space	2
 1678 0044 00000000 		.word	u8g_dev_ssd1351_128x128_byte_buf
 1679              		.global	u8g_dev_ssd1351_128x128_hicolor_sw_spi
 1680              		.align	2
 1681              		.type	u8g_dev_ssd1351_128x128_hicolor_sw_spi, %object
 1682              		.size	u8g_dev_ssd1351_128x128_hicolor_sw_spi, 12
 1683              	u8g_dev_ssd1351_128x128_hicolor_sw_spi:
 1684 0048 00000000 		.word	u8g_dev_ssd1351_128x128_hicolor_fn
 1685 004c 00000000 		.word	u8g_dev_ssd1351_128x128_hicolor_byte_pb
 1686 0050 00000000 		.word	u8g_com_null_fn
 1687              		.global	u8g_dev_ssd1351_128x128_hicolor_hw_spi
 1688              		.align	2
 1689              		.type	u8g_dev_ssd1351_128x128_hicolor_hw_spi, %object
 1690              		.size	u8g_dev_ssd1351_128x128_hicolor_hw_spi, 12
 1691              	u8g_dev_ssd1351_128x128_hicolor_hw_spi:
 1692 0054 00000000 		.word	u8g_dev_ssd1351_128x128_hicolor_fn
 1693 0058 00000000 		.word	u8g_dev_ssd1351_128x128_hicolor_byte_pb
 1694 005c 00000000 		.word	u8g_com_null_fn
 1695              		.global	u8g_dev_ssd1351_128x128gh_hicolor_sw_spi
 1696              		.align	2
 1697              		.type	u8g_dev_ssd1351_128x128gh_hicolor_sw_spi, %object
 1698              		.size	u8g_dev_ssd1351_128x128gh_hicolor_sw_spi, 12
 1699              	u8g_dev_ssd1351_128x128gh_hicolor_sw_spi:
 1700 0060 00000000 		.word	u8g_dev_ssd1351_128x128gh_hicolor_fn
 1701 0064 00000000 		.word	u8g_dev_ssd1351_128x128_hicolor_byte_pb
 1702 0068 00000000 		.word	u8g_com_null_fn
 1703              		.global	u8g_dev_ssd1351_128x128gh_hicolor_hw_spi
 1704              		.align	2
ARM GAS  C:\Users\Shiguruy\AppData\Local\Temp\ccjEOE4H.s 			page 45


 1705              		.type	u8g_dev_ssd1351_128x128gh_hicolor_hw_spi, %object
 1706              		.size	u8g_dev_ssd1351_128x128gh_hicolor_hw_spi, 12
 1707              	u8g_dev_ssd1351_128x128gh_hicolor_hw_spi:
 1708 006c 00000000 		.word	u8g_dev_ssd1351_128x128gh_hicolor_fn
 1709 0070 00000000 		.word	u8g_dev_ssd1351_128x128_hicolor_byte_pb
 1710 0074 00000000 		.word	u8g_com_null_fn
 1711              		.global	u8g_dev_ssd1351_128x128_4x_byte_buf
 1712              		.bss
 1713              		.align	2
 1714              		.type	u8g_dev_ssd1351_128x128_4x_byte_buf, %object
 1715              		.size	u8g_dev_ssd1351_128x128_4x_byte_buf, 4096
 1716              	u8g_dev_ssd1351_128x128_4x_byte_buf:
 1717 0718 00000000 		.space	4096
 1717      00000000 
 1717      00000000 
 1717      00000000 
 1717      00000000 
 1718              		.global	u8g_dev_ssd1351_128x128_4x_332_byte_pb
 1719              		.data
 1720              		.align	2
 1721              		.type	u8g_dev_ssd1351_128x128_4x_332_byte_pb, %object
 1722              		.size	u8g_dev_ssd1351_128x128_4x_332_byte_pb, 12
 1723              	u8g_dev_ssd1351_128x128_4x_332_byte_pb:
 1724 0078 20       		.byte	32
 1725 0079 80       		.byte	-128
 1726 007a 00       		.byte	0
 1727 007b 00       		.byte	0
 1728 007c 00       		.byte	0
 1729 007d 80       		.byte	-128
 1730 007e 0000     		.space	2
 1731 0080 00000000 		.word	u8g_dev_ssd1351_128x128_4x_byte_buf
 1732              		.global	u8g_dev_ssd1351_128x128_4x_332_sw_spi
 1733              		.align	2
 1734              		.type	u8g_dev_ssd1351_128x128_4x_332_sw_spi, %object
 1735              		.size	u8g_dev_ssd1351_128x128_4x_332_sw_spi, 12
 1736              	u8g_dev_ssd1351_128x128_4x_332_sw_spi:
 1737 0084 00000000 		.word	u8g_dev_ssd1351_128x128_332_fn
 1738 0088 00000000 		.word	u8g_dev_ssd1351_128x128_4x_332_byte_pb
 1739 008c 00000000 		.word	u8g_com_null_fn
 1740              		.global	u8g_dev_ssd1351_128x128_4x_332_hw_spi
 1741              		.align	2
 1742              		.type	u8g_dev_ssd1351_128x128_4x_332_hw_spi, %object
 1743              		.size	u8g_dev_ssd1351_128x128_4x_332_hw_spi, 12
 1744              	u8g_dev_ssd1351_128x128_4x_332_hw_spi:
 1745 0090 00000000 		.word	u8g_dev_ssd1351_128x128_332_fn
 1746 0094 00000000 		.word	u8g_dev_ssd1351_128x128_4x_332_byte_pb
 1747 0098 00000000 		.word	u8g_com_null_fn
 1748              		.global	u8g_dev_ssd1351_128x128gh_4x_332_sw_spi
 1749              		.align	2
 1750              		.type	u8g_dev_ssd1351_128x128gh_4x_332_sw_spi, %object
 1751              		.size	u8g_dev_ssd1351_128x128gh_4x_332_sw_spi, 12
 1752              	u8g_dev_ssd1351_128x128gh_4x_332_sw_spi:
 1753 009c 00000000 		.word	u8g_dev_ssd1351_128x128gh_332_fn
 1754 00a0 00000000 		.word	u8g_dev_ssd1351_128x128_4x_332_byte_pb
 1755 00a4 00000000 		.word	u8g_com_null_fn
 1756              		.global	u8g_dev_ssd1351_128x128gh_4x_332_hw_spi
 1757              		.align	2
ARM GAS  C:\Users\Shiguruy\AppData\Local\Temp\ccjEOE4H.s 			page 46


 1758              		.type	u8g_dev_ssd1351_128x128gh_4x_332_hw_spi, %object
 1759              		.size	u8g_dev_ssd1351_128x128gh_4x_332_hw_spi, 12
 1760              	u8g_dev_ssd1351_128x128gh_4x_332_hw_spi:
 1761 00a8 00000000 		.word	u8g_dev_ssd1351_128x128gh_332_fn
 1762 00ac 00000000 		.word	u8g_dev_ssd1351_128x128_4x_332_byte_pb
 1763 00b0 00000000 		.word	u8g_com_null_fn
 1764              		.global	u8g_dev_ssd1351_128x128_4x_hicolor_byte_pb
 1765              		.align	2
 1766              		.type	u8g_dev_ssd1351_128x128_4x_hicolor_byte_pb, %object
 1767              		.size	u8g_dev_ssd1351_128x128_4x_hicolor_byte_pb, 12
 1768              	u8g_dev_ssd1351_128x128_4x_hicolor_byte_pb:
 1769 00b4 10       		.byte	16
 1770 00b5 80       		.byte	-128
 1771 00b6 00       		.byte	0
 1772 00b7 00       		.byte	0
 1773 00b8 00       		.byte	0
 1774 00b9 80       		.byte	-128
 1775 00ba 0000     		.space	2
 1776 00bc 00000000 		.word	u8g_dev_ssd1351_128x128_4x_byte_buf
 1777              		.global	u8g_dev_ssd1351_128x128_4x_hicolor_sw_spi
 1778              		.align	2
 1779              		.type	u8g_dev_ssd1351_128x128_4x_hicolor_sw_spi, %object
 1780              		.size	u8g_dev_ssd1351_128x128_4x_hicolor_sw_spi, 12
 1781              	u8g_dev_ssd1351_128x128_4x_hicolor_sw_spi:
 1782 00c0 00000000 		.word	u8g_dev_ssd1351_128x128_hicolor_fn
 1783 00c4 00000000 		.word	u8g_dev_ssd1351_128x128_4x_hicolor_byte_pb
 1784 00c8 00000000 		.word	u8g_com_null_fn
 1785              		.global	u8g_dev_ssd1351_128x128_4x_hicolor_hw_spi
 1786              		.align	2
 1787              		.type	u8g_dev_ssd1351_128x128_4x_hicolor_hw_spi, %object
 1788              		.size	u8g_dev_ssd1351_128x128_4x_hicolor_hw_spi, 12
 1789              	u8g_dev_ssd1351_128x128_4x_hicolor_hw_spi:
 1790 00cc 00000000 		.word	u8g_dev_ssd1351_128x128_hicolor_fn
 1791 00d0 00000000 		.word	u8g_dev_ssd1351_128x128_4x_hicolor_byte_pb
 1792 00d4 00000000 		.word	u8g_com_null_fn
 1793              		.global	u8g_dev_ssd1351_128x128gh_4x_hicolor_sw_spi
 1794              		.align	2
 1795              		.type	u8g_dev_ssd1351_128x128gh_4x_hicolor_sw_spi, %object
 1796              		.size	u8g_dev_ssd1351_128x128gh_4x_hicolor_sw_spi, 12
 1797              	u8g_dev_ssd1351_128x128gh_4x_hicolor_sw_spi:
 1798 00d8 00000000 		.word	u8g_dev_ssd1351_128x128gh_hicolor_fn
 1799 00dc 00000000 		.word	u8g_dev_ssd1351_128x128_4x_hicolor_byte_pb
 1800 00e0 00000000 		.word	u8g_com_null_fn
 1801              		.global	u8g_dev_ssd1351_128x128gh_4x_hicolor_hw_spi
 1802              		.align	2
 1803              		.type	u8g_dev_ssd1351_128x128gh_4x_hicolor_hw_spi, %object
 1804              		.size	u8g_dev_ssd1351_128x128gh_4x_hicolor_hw_spi, 12
 1805              	u8g_dev_ssd1351_128x128gh_4x_hicolor_hw_spi:
 1806 00e4 00000000 		.word	u8g_dev_ssd1351_128x128gh_hicolor_fn
 1807 00e8 00000000 		.word	u8g_dev_ssd1351_128x128_4x_hicolor_byte_pb
 1808 00ec 00000000 		.word	u8g_com_null_fn
 1809              		.text
 1810              	.Letext0:
 1811              		.file 2 "c:\\program files (x86)\\cypress\\psoc creator\\3.3\\psoc creator\\import\\gnu\\arm\\4.9.
 1812              		.file 3 "c:\\program files (x86)\\cypress\\psoc creator\\3.3\\psoc creator\\import\\gnu\\arm\\4.9.
 1813              		.file 4 ".\\u8glib_arm_v1.18.1\\src\\u8g.h"