ARM GAS  C:\Users\KJA\AppData\Local\Temp\ccevgiJT.s 			page 1


   1              		.syntax unified
   2              		.cpu cortex-m3
   3              		.fpu softvfp
   4              		.eabi_attribute 20, 1
   5              		.eabi_attribute 21, 1
   6              		.eabi_attribute 23, 3
   7              		.eabi_attribute 24, 1
   8              		.eabi_attribute 25, 1
   9              		.eabi_attribute 26, 1
  10              		.eabi_attribute 30, 6
  11              		.eabi_attribute 34, 1
  12              		.eabi_attribute 18, 4
  13              		.thumb
  14              		.file	"u8g_font.c"
  15              		.text
  16              	.Ltext0:
  17              		.cfi_sections	.debug_frame
  18              		.section	.text.u8g_font_get_byte,"ax",%progbits
  19              		.align	2
  20              		.thumb
  21              		.thumb_func
  22              		.type	u8g_font_get_byte, %function
  23              	u8g_font_get_byte:
  24              	.LFB0:
  25              		.file 1 "u8glib_arm_v1.18.1\\src\\u8g_font.c"
   1:u8glib_arm_v1.18.1\src/u8g_font.c **** /*
   2:u8glib_arm_v1.18.1\src/u8g_font.c **** 
   3:u8glib_arm_v1.18.1\src/u8g_font.c ****   u8g_font.c
   4:u8glib_arm_v1.18.1\src/u8g_font.c ****   
   5:u8glib_arm_v1.18.1\src/u8g_font.c ****   U8G Font High Level Interface
   6:u8glib_arm_v1.18.1\src/u8g_font.c **** 
   7:u8glib_arm_v1.18.1\src/u8g_font.c ****   Universal 8bit Graphics Library
   8:u8glib_arm_v1.18.1\src/u8g_font.c ****   
   9:u8glib_arm_v1.18.1\src/u8g_font.c ****   Copyright (c) 2011, olikraus@gmail.com
  10:u8glib_arm_v1.18.1\src/u8g_font.c ****   All rights reserved.
  11:u8glib_arm_v1.18.1\src/u8g_font.c **** 
  12:u8glib_arm_v1.18.1\src/u8g_font.c ****   Redistribution and use in source and binary forms, with or without modification, 
  13:u8glib_arm_v1.18.1\src/u8g_font.c ****   are permitted provided that the following conditions are met:
  14:u8glib_arm_v1.18.1\src/u8g_font.c **** 
  15:u8glib_arm_v1.18.1\src/u8g_font.c ****   * Redistributions of source code must retain the above copyright notice, this list 
  16:u8glib_arm_v1.18.1\src/u8g_font.c ****     of conditions and the following disclaimer.
  17:u8glib_arm_v1.18.1\src/u8g_font.c ****     
  18:u8glib_arm_v1.18.1\src/u8g_font.c ****   * Redistributions in binary form must reproduce the above copyright notice, this 
  19:u8glib_arm_v1.18.1\src/u8g_font.c ****     list of conditions and the following disclaimer in the documentation and/or other 
  20:u8glib_arm_v1.18.1\src/u8g_font.c ****     materials provided with the distribution.
  21:u8glib_arm_v1.18.1\src/u8g_font.c **** 
  22:u8glib_arm_v1.18.1\src/u8g_font.c ****   THIS SOFTWARE IS PROVIDED BY THE COPYRIGHT HOLDERS AND 
  23:u8glib_arm_v1.18.1\src/u8g_font.c ****   CONTRIBUTORS "AS IS" AND ANY EXPRESS OR IMPLIED WARRANTIES, 
  24:u8glib_arm_v1.18.1\src/u8g_font.c ****   INCLUDING, BUT NOT LIMITED TO, THE IMPLIED WARRANTIES OF 
  25:u8glib_arm_v1.18.1\src/u8g_font.c ****   MERCHANTABILITY AND FITNESS FOR A PARTICULAR PURPOSE ARE 
  26:u8glib_arm_v1.18.1\src/u8g_font.c ****   DISCLAIMED. IN NO EVENT SHALL THE COPYRIGHT HOLDER OR 
  27:u8glib_arm_v1.18.1\src/u8g_font.c ****   CONTRIBUTORS BE LIABLE FOR ANY DIRECT, INDIRECT, INCIDENTAL, 
  28:u8glib_arm_v1.18.1\src/u8g_font.c ****   SPECIAL, EXEMPLARY, OR CONSEQUENTIAL DAMAGES (INCLUDING, BUT 
  29:u8glib_arm_v1.18.1\src/u8g_font.c ****   NOT LIMITED TO, PROCUREMENT OF SUBSTITUTE GOODS OR SERVICES; 
  30:u8glib_arm_v1.18.1\src/u8g_font.c ****   LOSS OF USE, DATA, OR PROFITS; OR BUSINESS INTERRUPTION) HOWEVER 
  31:u8glib_arm_v1.18.1\src/u8g_font.c ****   CAUSED AND ON ANY THEORY OF LIABILITY, WHETHER IN CONTRACT, 
  32:u8glib_arm_v1.18.1\src/u8g_font.c ****   STRICT LIABILITY, OR TORT (INCLUDING NEGLIGENCE OR OTHERWISE) 
ARM GAS  C:\Users\KJA\AppData\Local\Temp\ccevgiJT.s 			page 2


  33:u8glib_arm_v1.18.1\src/u8g_font.c ****   ARISING IN ANY WAY OUT OF THE USE OF THIS SOFTWARE, EVEN IF 
  34:u8glib_arm_v1.18.1\src/u8g_font.c ****   ADVISED OF THE POSSIBILITY OF SUCH DAMAGE.  
  35:u8glib_arm_v1.18.1\src/u8g_font.c ****   
  36:u8glib_arm_v1.18.1\src/u8g_font.c **** */
  37:u8glib_arm_v1.18.1\src/u8g_font.c **** 
  38:u8glib_arm_v1.18.1\src/u8g_font.c **** #include "u8g.h"
  39:u8glib_arm_v1.18.1\src/u8g_font.c **** 
  40:u8glib_arm_v1.18.1\src/u8g_font.c **** /* font api */
  41:u8glib_arm_v1.18.1\src/u8g_font.c **** 
  42:u8glib_arm_v1.18.1\src/u8g_font.c **** /* pointer to the start adress of the glyph, points to progmem area */
  43:u8glib_arm_v1.18.1\src/u8g_font.c **** typedef void * u8g_glyph_t;
  44:u8glib_arm_v1.18.1\src/u8g_font.c **** 
  45:u8glib_arm_v1.18.1\src/u8g_font.c **** /* size of the font data structure, there is no struct or class... */
  46:u8glib_arm_v1.18.1\src/u8g_font.c **** #define U8G_FONT_DATA_STRUCT_SIZE 17
  47:u8glib_arm_v1.18.1\src/u8g_font.c **** 
  48:u8glib_arm_v1.18.1\src/u8g_font.c **** /*
  49:u8glib_arm_v1.18.1\src/u8g_font.c ****   ... instead the fields of the font data structure are accessed directly by offset 
  50:u8glib_arm_v1.18.1\src/u8g_font.c ****   font information 
  51:u8glib_arm_v1.18.1\src/u8g_font.c ****   offset
  52:u8glib_arm_v1.18.1\src/u8g_font.c ****   0             font format
  53:u8glib_arm_v1.18.1\src/u8g_font.c ****   1             FONTBOUNDINGBOX width           unsigned
  54:u8glib_arm_v1.18.1\src/u8g_font.c ****   2             FONTBOUNDINGBOX height          unsigned
  55:u8glib_arm_v1.18.1\src/u8g_font.c ****   3             FONTBOUNDINGBOX x-offset         signed
  56:u8glib_arm_v1.18.1\src/u8g_font.c ****   4             FONTBOUNDINGBOX y-offset        signed
  57:u8glib_arm_v1.18.1\src/u8g_font.c ****   5             capital A height                                unsigned
  58:u8glib_arm_v1.18.1\src/u8g_font.c ****   6             start 'A'
  59:u8glib_arm_v1.18.1\src/u8g_font.c ****   8             start 'a'
  60:u8glib_arm_v1.18.1\src/u8g_font.c ****   10            encoding start
  61:u8glib_arm_v1.18.1\src/u8g_font.c ****   11            encoding end
  62:u8glib_arm_v1.18.1\src/u8g_font.c ****   12            descent 'g'                     negative: below baseline
  63:u8glib_arm_v1.18.1\src/u8g_font.c ****   13            font max ascent
  64:u8glib_arm_v1.18.1\src/u8g_font.c ****   14            font min decent             negative: below baseline 
  65:u8glib_arm_v1.18.1\src/u8g_font.c ****   15            font xascent
  66:u8glib_arm_v1.18.1\src/u8g_font.c ****   16            font xdecent             negative: below baseline 
  67:u8glib_arm_v1.18.1\src/u8g_font.c ****   
  68:u8glib_arm_v1.18.1\src/u8g_font.c **** */
  69:u8glib_arm_v1.18.1\src/u8g_font.c **** 
  70:u8glib_arm_v1.18.1\src/u8g_font.c **** /* use case: What is the width and the height of the minimal box into which string s fints? */
  71:u8glib_arm_v1.18.1\src/u8g_font.c **** void u8g_font_GetStrSize(const void *font, const char *s, u8g_uint_t *width, u8g_uint_t *height);
  72:u8glib_arm_v1.18.1\src/u8g_font.c **** void u8g_font_GetStrSizeP(const void *font, const char *s, u8g_uint_t *width, u8g_uint_t *height);
  73:u8glib_arm_v1.18.1\src/u8g_font.c **** 
  74:u8glib_arm_v1.18.1\src/u8g_font.c **** /* use case: lower left edge of a minimal box is known, what is the correct x, y position for the s
  75:u8glib_arm_v1.18.1\src/u8g_font.c **** void u8g_font_AdjustXYToDraw(const void *font, const char *s, u8g_uint_t *x, u8g_uint_t *y);
  76:u8glib_arm_v1.18.1\src/u8g_font.c **** void u8g_font_AdjustXYToDrawP(const void *font, const char *s, u8g_uint_t *x, u8g_uint_t *y);
  77:u8glib_arm_v1.18.1\src/u8g_font.c **** 
  78:u8glib_arm_v1.18.1\src/u8g_font.c **** /* use case: Baseline origin known, return minimal box */
  79:u8glib_arm_v1.18.1\src/u8g_font.c **** void u8g_font_GetStrMinBox(u8g_t *u8g, const void *font, const char *s, u8g_uint_t *x, u8g_uint_t *
  80:u8glib_arm_v1.18.1\src/u8g_font.c **** 
  81:u8glib_arm_v1.18.1\src/u8g_font.c **** /* procedures */
  82:u8glib_arm_v1.18.1\src/u8g_font.c **** 
  83:u8glib_arm_v1.18.1\src/u8g_font.c **** /*========================================================================*/
  84:u8glib_arm_v1.18.1\src/u8g_font.c **** /* low level byte and word access */
  85:u8glib_arm_v1.18.1\src/u8g_font.c **** 
  86:u8glib_arm_v1.18.1\src/u8g_font.c **** /* removed NOINLINE, because it leads to smaller code, might also be faster */
  87:u8glib_arm_v1.18.1\src/u8g_font.c **** //static uint8_t u8g_font_get_byte(const u8g_fntpgm_uint8_t *font, uint8_t offset) U8G_NOINLINE;
  88:u8glib_arm_v1.18.1\src/u8g_font.c **** static uint8_t u8g_font_get_byte(const u8g_fntpgm_uint8_t *font, uint8_t offset)
  89:u8glib_arm_v1.18.1\src/u8g_font.c **** {
ARM GAS  C:\Users\KJA\AppData\Local\Temp\ccevgiJT.s 			page 3


  26              		.loc 1 89 0
  27              		.cfi_startproc
  28              		@ args = 0, pretend = 0, frame = 8
  29              		@ frame_needed = 1, uses_anonymous_args = 0
  30              		@ link register save eliminated.
  31 0000 80B4     		push	{r7}
  32              		.cfi_def_cfa_offset 4
  33              		.cfi_offset 7, -4
  34 0002 83B0     		sub	sp, sp, #12
  35              		.cfi_def_cfa_offset 16
  36 0004 00AF     		add	r7, sp, #0
  37              		.cfi_def_cfa_register 7
  38 0006 7860     		str	r0, [r7, #4]
  39 0008 0B46     		mov	r3, r1
  40 000a FB70     		strb	r3, [r7, #3]
  90:u8glib_arm_v1.18.1\src/u8g_font.c ****   font += offset;
  41              		.loc 1 90 0
  42 000c FB78     		ldrb	r3, [r7, #3]	@ zero_extendqisi2
  43 000e 7A68     		ldr	r2, [r7, #4]
  44 0010 1344     		add	r3, r3, r2
  45 0012 7B60     		str	r3, [r7, #4]
  91:u8glib_arm_v1.18.1\src/u8g_font.c ****   return u8g_pgm_read( (u8g_pgm_uint8_t *)font );  
  46              		.loc 1 91 0
  47 0014 7B68     		ldr	r3, [r7, #4]
  48 0016 1B78     		ldrb	r3, [r3]	@ zero_extendqisi2
  92:u8glib_arm_v1.18.1\src/u8g_font.c **** }
  49              		.loc 1 92 0
  50 0018 1846     		mov	r0, r3
  51 001a 0C37     		adds	r7, r7, #12
  52              		.cfi_def_cfa_offset 4
  53 001c BD46     		mov	sp, r7
  54              		.cfi_def_cfa_register 13
  55              		@ sp needed
  56 001e 5DF8047B 		ldr	r7, [sp], #4
  57              		.cfi_restore 7
  58              		.cfi_def_cfa_offset 0
  59 0022 7047     		bx	lr
  60              		.cfi_endproc
  61              	.LFE0:
  62              		.size	u8g_font_get_byte, .-u8g_font_get_byte
  63              		.section	.text.u8g_font_get_word,"ax",%progbits
  64              		.align	2
  65              		.thumb
  66              		.thumb_func
  67              		.type	u8g_font_get_word, %function
  68              	u8g_font_get_word:
  69              	.LFB1:
  93:u8glib_arm_v1.18.1\src/u8g_font.c **** 
  94:u8glib_arm_v1.18.1\src/u8g_font.c **** static uint16_t u8g_font_get_word(const u8g_fntpgm_uint8_t *font, uint8_t offset) U8G_NOINLINE; 
  95:u8glib_arm_v1.18.1\src/u8g_font.c **** static uint16_t u8g_font_get_word(const u8g_fntpgm_uint8_t *font, uint8_t offset)
  96:u8glib_arm_v1.18.1\src/u8g_font.c **** {
  70              		.loc 1 96 0
  71              		.cfi_startproc
  72              		@ args = 0, pretend = 0, frame = 16
  73              		@ frame_needed = 1, uses_anonymous_args = 0
  74              		@ link register save eliminated.
  75 0000 80B4     		push	{r7}
ARM GAS  C:\Users\KJA\AppData\Local\Temp\ccevgiJT.s 			page 4


  76              		.cfi_def_cfa_offset 4
  77              		.cfi_offset 7, -4
  78 0002 85B0     		sub	sp, sp, #20
  79              		.cfi_def_cfa_offset 24
  80 0004 00AF     		add	r7, sp, #0
  81              		.cfi_def_cfa_register 7
  82 0006 7860     		str	r0, [r7, #4]
  83 0008 0B46     		mov	r3, r1
  84 000a FB70     		strb	r3, [r7, #3]
  97:u8glib_arm_v1.18.1\src/u8g_font.c ****     uint16_t pos;
  98:u8glib_arm_v1.18.1\src/u8g_font.c ****     font += offset;
  85              		.loc 1 98 0
  86 000c FB78     		ldrb	r3, [r7, #3]	@ zero_extendqisi2
  87 000e 7A68     		ldr	r2, [r7, #4]
  88 0010 1344     		add	r3, r3, r2
  89 0012 7B60     		str	r3, [r7, #4]
  99:u8glib_arm_v1.18.1\src/u8g_font.c ****     pos = u8g_pgm_read( (u8g_pgm_uint8_t *)font );
  90              		.loc 1 99 0
  91 0014 7B68     		ldr	r3, [r7, #4]
  92 0016 1B78     		ldrb	r3, [r3]	@ zero_extendqisi2
  93 0018 FB81     		strh	r3, [r7, #14]	@ movhi
 100:u8glib_arm_v1.18.1\src/u8g_font.c ****     font++;
  94              		.loc 1 100 0
  95 001a 7B68     		ldr	r3, [r7, #4]
  96 001c 0133     		adds	r3, r3, #1
  97 001e 7B60     		str	r3, [r7, #4]
 101:u8glib_arm_v1.18.1\src/u8g_font.c ****     pos <<= 8;
  98              		.loc 1 101 0
  99 0020 FB89     		ldrh	r3, [r7, #14]	@ movhi
 100 0022 1B02     		lsls	r3, r3, #8
 101 0024 FB81     		strh	r3, [r7, #14]	@ movhi
 102:u8glib_arm_v1.18.1\src/u8g_font.c ****     pos += u8g_pgm_read( (u8g_pgm_uint8_t *)font);
 102              		.loc 1 102 0
 103 0026 7B68     		ldr	r3, [r7, #4]
 104 0028 1B78     		ldrb	r3, [r3]	@ zero_extendqisi2
 105 002a 9AB2     		uxth	r2, r3
 106 002c FB89     		ldrh	r3, [r7, #14]	@ movhi
 107 002e 1344     		add	r3, r3, r2
 108 0030 FB81     		strh	r3, [r7, #14]	@ movhi
 103:u8glib_arm_v1.18.1\src/u8g_font.c ****     return pos;
 109              		.loc 1 103 0
 110 0032 FB89     		ldrh	r3, [r7, #14]
 104:u8glib_arm_v1.18.1\src/u8g_font.c **** }
 111              		.loc 1 104 0
 112 0034 1846     		mov	r0, r3
 113 0036 1437     		adds	r7, r7, #20
 114              		.cfi_def_cfa_offset 4
 115 0038 BD46     		mov	sp, r7
 116              		.cfi_def_cfa_register 13
 117              		@ sp needed
 118 003a 5DF8047B 		ldr	r7, [sp], #4
 119              		.cfi_restore 7
 120              		.cfi_def_cfa_offset 0
 121 003e 7047     		bx	lr
 122              		.cfi_endproc
 123              	.LFE1:
 124              		.size	u8g_font_get_word, .-u8g_font_get_word
ARM GAS  C:\Users\KJA\AppData\Local\Temp\ccevgiJT.s 			page 5


 125              		.section	.text.u8g_font_GetFormat,"ax",%progbits
 126              		.align	2
 127              		.thumb
 128              		.thumb_func
 129              		.type	u8g_font_GetFormat, %function
 130              	u8g_font_GetFormat:
 131              	.LFB2:
 105:u8glib_arm_v1.18.1\src/u8g_font.c **** 
 106:u8glib_arm_v1.18.1\src/u8g_font.c **** /*========================================================================*/
 107:u8glib_arm_v1.18.1\src/u8g_font.c **** /* direct access on the font */
 108:u8glib_arm_v1.18.1\src/u8g_font.c **** 
 109:u8glib_arm_v1.18.1\src/u8g_font.c **** static uint8_t u8g_font_GetFormat(const u8g_fntpgm_uint8_t *font) U8G_NOINLINE;
 110:u8glib_arm_v1.18.1\src/u8g_font.c **** static uint8_t u8g_font_GetFormat(const u8g_fntpgm_uint8_t *font)
 111:u8glib_arm_v1.18.1\src/u8g_font.c **** {
 132              		.loc 1 111 0
 133              		.cfi_startproc
 134              		@ args = 0, pretend = 0, frame = 8
 135              		@ frame_needed = 1, uses_anonymous_args = 0
 136 0000 80B5     		push	{r7, lr}
 137              		.cfi_def_cfa_offset 8
 138              		.cfi_offset 7, -8
 139              		.cfi_offset 14, -4
 140 0002 82B0     		sub	sp, sp, #8
 141              		.cfi_def_cfa_offset 16
 142 0004 00AF     		add	r7, sp, #0
 143              		.cfi_def_cfa_register 7
 144 0006 7860     		str	r0, [r7, #4]
 112:u8glib_arm_v1.18.1\src/u8g_font.c ****   return u8g_font_get_byte(font, 0);
 145              		.loc 1 112 0
 146 0008 7868     		ldr	r0, [r7, #4]
 147 000a 0021     		movs	r1, #0
 148 000c FFF7FEFF 		bl	u8g_font_get_byte
 149 0010 0346     		mov	r3, r0
 113:u8glib_arm_v1.18.1\src/u8g_font.c **** }
 150              		.loc 1 113 0
 151 0012 1846     		mov	r0, r3
 152 0014 0837     		adds	r7, r7, #8
 153              		.cfi_def_cfa_offset 8
 154 0016 BD46     		mov	sp, r7
 155              		.cfi_def_cfa_register 13
 156              		@ sp needed
 157 0018 80BD     		pop	{r7, pc}
 158              		.cfi_endproc
 159              	.LFE2:
 160              		.size	u8g_font_GetFormat, .-u8g_font_GetFormat
 161 001a 00BF     		.section	.text.u8g_font_GetFontGlyphStructureSize,"ax",%progbits
 162              		.align	2
 163              		.thumb
 164              		.thumb_func
 165              		.type	u8g_font_GetFontGlyphStructureSize, %function
 166              	u8g_font_GetFontGlyphStructureSize:
 167              	.LFB3:
 114:u8glib_arm_v1.18.1\src/u8g_font.c **** 
 115:u8glib_arm_v1.18.1\src/u8g_font.c **** static uint8_t u8g_font_GetFontGlyphStructureSize(const u8g_fntpgm_uint8_t *font) U8G_NOINLINE;
 116:u8glib_arm_v1.18.1\src/u8g_font.c **** static uint8_t u8g_font_GetFontGlyphStructureSize(const u8g_fntpgm_uint8_t *font)
 117:u8glib_arm_v1.18.1\src/u8g_font.c **** {
 168              		.loc 1 117 0
ARM GAS  C:\Users\KJA\AppData\Local\Temp\ccevgiJT.s 			page 6


 169              		.cfi_startproc
 170              		@ args = 0, pretend = 0, frame = 8
 171              		@ frame_needed = 1, uses_anonymous_args = 0
 172 0000 80B5     		push	{r7, lr}
 173              		.cfi_def_cfa_offset 8
 174              		.cfi_offset 7, -8
 175              		.cfi_offset 14, -4
 176 0002 82B0     		sub	sp, sp, #8
 177              		.cfi_def_cfa_offset 16
 178 0004 00AF     		add	r7, sp, #0
 179              		.cfi_def_cfa_register 7
 180 0006 7860     		str	r0, [r7, #4]
 118:u8glib_arm_v1.18.1\src/u8g_font.c ****   switch(u8g_font_GetFormat(font))
 181              		.loc 1 118 0
 182 0008 7868     		ldr	r0, [r7, #4]
 183 000a FFF7FEFF 		bl	u8g_font_GetFormat
 184 000e 0346     		mov	r3, r0
 185 0010 012B     		cmp	r3, #1
 186 0012 05D0     		beq	.L9
 187 0014 022B     		cmp	r3, #2
 188 0016 05D0     		beq	.L10
 189 0018 002B     		cmp	r3, #0
 190 001a 05D1     		bne	.L13
 119:u8glib_arm_v1.18.1\src/u8g_font.c ****   {
 120:u8glib_arm_v1.18.1\src/u8g_font.c ****     case 0: return 6;
 191              		.loc 1 120 0
 192 001c 0623     		movs	r3, #6
 193 001e 04E0     		b	.L12
 194              	.L9:
 121:u8glib_arm_v1.18.1\src/u8g_font.c ****     case 1: return 3;
 195              		.loc 1 121 0
 196 0020 0323     		movs	r3, #3
 197 0022 02E0     		b	.L12
 198              	.L10:
 122:u8glib_arm_v1.18.1\src/u8g_font.c ****     case 2: return 6;
 199              		.loc 1 122 0
 200 0024 0623     		movs	r3, #6
 201 0026 00E0     		b	.L12
 202              	.L13:
 123:u8glib_arm_v1.18.1\src/u8g_font.c ****   }
 124:u8glib_arm_v1.18.1\src/u8g_font.c ****   return 3;
 203              		.loc 1 124 0
 204 0028 0323     		movs	r3, #3
 205              	.L12:
 125:u8glib_arm_v1.18.1\src/u8g_font.c **** }
 206              		.loc 1 125 0
 207 002a 1846     		mov	r0, r3
 208 002c 0837     		adds	r7, r7, #8
 209              		.cfi_def_cfa_offset 8
 210 002e BD46     		mov	sp, r7
 211              		.cfi_def_cfa_register 13
 212              		@ sp needed
 213 0030 80BD     		pop	{r7, pc}
 214              		.cfi_endproc
 215              	.LFE3:
 216              		.size	u8g_font_GetFontGlyphStructureSize, .-u8g_font_GetFontGlyphStructureSize
 217 0032 00BF     		.section	.text.u8g_font_GetBBXWidth,"ax",%progbits
ARM GAS  C:\Users\KJA\AppData\Local\Temp\ccevgiJT.s 			page 7


 218              		.align	2
 219              		.thumb
 220              		.thumb_func
 221              		.type	u8g_font_GetBBXWidth, %function
 222              	u8g_font_GetBBXWidth:
 223              	.LFB4:
 126:u8glib_arm_v1.18.1\src/u8g_font.c **** 
 127:u8glib_arm_v1.18.1\src/u8g_font.c **** static uint8_t u8g_font_GetBBXWidth(const void *font)
 128:u8glib_arm_v1.18.1\src/u8g_font.c **** {
 224              		.loc 1 128 0
 225              		.cfi_startproc
 226              		@ args = 0, pretend = 0, frame = 8
 227              		@ frame_needed = 1, uses_anonymous_args = 0
 228 0000 80B5     		push	{r7, lr}
 229              		.cfi_def_cfa_offset 8
 230              		.cfi_offset 7, -8
 231              		.cfi_offset 14, -4
 232 0002 82B0     		sub	sp, sp, #8
 233              		.cfi_def_cfa_offset 16
 234 0004 00AF     		add	r7, sp, #0
 235              		.cfi_def_cfa_register 7
 236 0006 7860     		str	r0, [r7, #4]
 129:u8glib_arm_v1.18.1\src/u8g_font.c ****   return u8g_font_get_byte(font, 1);
 237              		.loc 1 129 0
 238 0008 7868     		ldr	r0, [r7, #4]
 239 000a 0121     		movs	r1, #1
 240 000c FFF7FEFF 		bl	u8g_font_get_byte
 241 0010 0346     		mov	r3, r0
 130:u8glib_arm_v1.18.1\src/u8g_font.c **** }
 242              		.loc 1 130 0
 243 0012 1846     		mov	r0, r3
 244 0014 0837     		adds	r7, r7, #8
 245              		.cfi_def_cfa_offset 8
 246 0016 BD46     		mov	sp, r7
 247              		.cfi_def_cfa_register 13
 248              		@ sp needed
 249 0018 80BD     		pop	{r7, pc}
 250              		.cfi_endproc
 251              	.LFE4:
 252              		.size	u8g_font_GetBBXWidth, .-u8g_font_GetBBXWidth
 253 001a 00BF     		.section	.text.u8g_font_GetBBXHeight,"ax",%progbits
 254              		.align	2
 255              		.thumb
 256              		.thumb_func
 257              		.type	u8g_font_GetBBXHeight, %function
 258              	u8g_font_GetBBXHeight:
 259              	.LFB5:
 131:u8glib_arm_v1.18.1\src/u8g_font.c **** 
 132:u8glib_arm_v1.18.1\src/u8g_font.c **** static uint8_t u8g_font_GetBBXHeight(const void *font)
 133:u8glib_arm_v1.18.1\src/u8g_font.c **** {
 260              		.loc 1 133 0
 261              		.cfi_startproc
 262              		@ args = 0, pretend = 0, frame = 8
 263              		@ frame_needed = 1, uses_anonymous_args = 0
 264 0000 80B5     		push	{r7, lr}
 265              		.cfi_def_cfa_offset 8
 266              		.cfi_offset 7, -8
ARM GAS  C:\Users\KJA\AppData\Local\Temp\ccevgiJT.s 			page 8


 267              		.cfi_offset 14, -4
 268 0002 82B0     		sub	sp, sp, #8
 269              		.cfi_def_cfa_offset 16
 270 0004 00AF     		add	r7, sp, #0
 271              		.cfi_def_cfa_register 7
 272 0006 7860     		str	r0, [r7, #4]
 134:u8glib_arm_v1.18.1\src/u8g_font.c ****   return u8g_font_get_byte(font, 2);
 273              		.loc 1 134 0
 274 0008 7868     		ldr	r0, [r7, #4]
 275 000a 0221     		movs	r1, #2
 276 000c FFF7FEFF 		bl	u8g_font_get_byte
 277 0010 0346     		mov	r3, r0
 135:u8glib_arm_v1.18.1\src/u8g_font.c **** }
 278              		.loc 1 135 0
 279 0012 1846     		mov	r0, r3
 280 0014 0837     		adds	r7, r7, #8
 281              		.cfi_def_cfa_offset 8
 282 0016 BD46     		mov	sp, r7
 283              		.cfi_def_cfa_register 13
 284              		@ sp needed
 285 0018 80BD     		pop	{r7, pc}
 286              		.cfi_endproc
 287              	.LFE5:
 288              		.size	u8g_font_GetBBXHeight, .-u8g_font_GetBBXHeight
 289 001a 00BF     		.section	.text.u8g_font_GetBBXOffX,"ax",%progbits
 290              		.align	2
 291              		.thumb
 292              		.thumb_func
 293              		.type	u8g_font_GetBBXOffX, %function
 294              	u8g_font_GetBBXOffX:
 295              	.LFB6:
 136:u8glib_arm_v1.18.1\src/u8g_font.c **** 
 137:u8glib_arm_v1.18.1\src/u8g_font.c **** static int8_t u8g_font_GetBBXOffX(const void *font)
 138:u8glib_arm_v1.18.1\src/u8g_font.c **** {
 296              		.loc 1 138 0
 297              		.cfi_startproc
 298              		@ args = 0, pretend = 0, frame = 8
 299              		@ frame_needed = 1, uses_anonymous_args = 0
 300 0000 80B5     		push	{r7, lr}
 301              		.cfi_def_cfa_offset 8
 302              		.cfi_offset 7, -8
 303              		.cfi_offset 14, -4
 304 0002 82B0     		sub	sp, sp, #8
 305              		.cfi_def_cfa_offset 16
 306 0004 00AF     		add	r7, sp, #0
 307              		.cfi_def_cfa_register 7
 308 0006 7860     		str	r0, [r7, #4]
 139:u8glib_arm_v1.18.1\src/u8g_font.c ****   return u8g_font_get_byte(font, 3);
 309              		.loc 1 139 0
 310 0008 7868     		ldr	r0, [r7, #4]
 311 000a 0321     		movs	r1, #3
 312 000c FFF7FEFF 		bl	u8g_font_get_byte
 313 0010 0346     		mov	r3, r0
 314 0012 DBB2     		uxtb	r3, r3
 315 0014 5BB2     		sxtb	r3, r3
 140:u8glib_arm_v1.18.1\src/u8g_font.c **** }
 316              		.loc 1 140 0
ARM GAS  C:\Users\KJA\AppData\Local\Temp\ccevgiJT.s 			page 9


 317 0016 1846     		mov	r0, r3
 318 0018 0837     		adds	r7, r7, #8
 319              		.cfi_def_cfa_offset 8
 320 001a BD46     		mov	sp, r7
 321              		.cfi_def_cfa_register 13
 322              		@ sp needed
 323 001c 80BD     		pop	{r7, pc}
 324              		.cfi_endproc
 325              	.LFE6:
 326              		.size	u8g_font_GetBBXOffX, .-u8g_font_GetBBXOffX
 327 001e 00BF     		.section	.text.u8g_font_GetBBXOffY,"ax",%progbits
 328              		.align	2
 329              		.thumb
 330              		.thumb_func
 331              		.type	u8g_font_GetBBXOffY, %function
 332              	u8g_font_GetBBXOffY:
 333              	.LFB7:
 141:u8glib_arm_v1.18.1\src/u8g_font.c **** 
 142:u8glib_arm_v1.18.1\src/u8g_font.c **** static int8_t u8g_font_GetBBXOffY(const void *font)
 143:u8glib_arm_v1.18.1\src/u8g_font.c **** {
 334              		.loc 1 143 0
 335              		.cfi_startproc
 336              		@ args = 0, pretend = 0, frame = 8
 337              		@ frame_needed = 1, uses_anonymous_args = 0
 338 0000 80B5     		push	{r7, lr}
 339              		.cfi_def_cfa_offset 8
 340              		.cfi_offset 7, -8
 341              		.cfi_offset 14, -4
 342 0002 82B0     		sub	sp, sp, #8
 343              		.cfi_def_cfa_offset 16
 344 0004 00AF     		add	r7, sp, #0
 345              		.cfi_def_cfa_register 7
 346 0006 7860     		str	r0, [r7, #4]
 144:u8glib_arm_v1.18.1\src/u8g_font.c ****   return u8g_font_get_byte(font, 4);
 347              		.loc 1 144 0
 348 0008 7868     		ldr	r0, [r7, #4]
 349 000a 0421     		movs	r1, #4
 350 000c FFF7FEFF 		bl	u8g_font_get_byte
 351 0010 0346     		mov	r3, r0
 352 0012 DBB2     		uxtb	r3, r3
 353 0014 5BB2     		sxtb	r3, r3
 145:u8glib_arm_v1.18.1\src/u8g_font.c **** }
 354              		.loc 1 145 0
 355 0016 1846     		mov	r0, r3
 356 0018 0837     		adds	r7, r7, #8
 357              		.cfi_def_cfa_offset 8
 358 001a BD46     		mov	sp, r7
 359              		.cfi_def_cfa_register 13
 360              		@ sp needed
 361 001c 80BD     		pop	{r7, pc}
 362              		.cfi_endproc
 363              	.LFE7:
 364              		.size	u8g_font_GetBBXOffY, .-u8g_font_GetBBXOffY
 365 001e 00BF     		.section	.text.u8g_font_GetCapitalAHeight,"ax",%progbits
 366              		.align	2
 367              		.global	u8g_font_GetCapitalAHeight
 368              		.thumb
ARM GAS  C:\Users\KJA\AppData\Local\Temp\ccevgiJT.s 			page 10


 369              		.thumb_func
 370              		.type	u8g_font_GetCapitalAHeight, %function
 371              	u8g_font_GetCapitalAHeight:
 372              	.LFB8:
 146:u8glib_arm_v1.18.1\src/u8g_font.c **** 
 147:u8glib_arm_v1.18.1\src/u8g_font.c **** uint8_t u8g_font_GetCapitalAHeight(const void *font)
 148:u8glib_arm_v1.18.1\src/u8g_font.c **** {
 373              		.loc 1 148 0
 374              		.cfi_startproc
 375              		@ args = 0, pretend = 0, frame = 8
 376              		@ frame_needed = 1, uses_anonymous_args = 0
 377 0000 80B5     		push	{r7, lr}
 378              		.cfi_def_cfa_offset 8
 379              		.cfi_offset 7, -8
 380              		.cfi_offset 14, -4
 381 0002 82B0     		sub	sp, sp, #8
 382              		.cfi_def_cfa_offset 16
 383 0004 00AF     		add	r7, sp, #0
 384              		.cfi_def_cfa_register 7
 385 0006 7860     		str	r0, [r7, #4]
 149:u8glib_arm_v1.18.1\src/u8g_font.c ****   return u8g_font_get_byte(font, 5);
 386              		.loc 1 149 0
 387 0008 7868     		ldr	r0, [r7, #4]
 388 000a 0521     		movs	r1, #5
 389 000c FFF7FEFF 		bl	u8g_font_get_byte
 390 0010 0346     		mov	r3, r0
 150:u8glib_arm_v1.18.1\src/u8g_font.c **** }
 391              		.loc 1 150 0
 392 0012 1846     		mov	r0, r3
 393 0014 0837     		adds	r7, r7, #8
 394              		.cfi_def_cfa_offset 8
 395 0016 BD46     		mov	sp, r7
 396              		.cfi_def_cfa_register 13
 397              		@ sp needed
 398 0018 80BD     		pop	{r7, pc}
 399              		.cfi_endproc
 400              	.LFE8:
 401              		.size	u8g_font_GetCapitalAHeight, .-u8g_font_GetCapitalAHeight
 402 001a 00BF     		.section	.text.u8g_font_GetEncoding65Pos,"ax",%progbits
 403              		.align	2
 404              		.global	u8g_font_GetEncoding65Pos
 405              		.thumb
 406              		.thumb_func
 407              		.type	u8g_font_GetEncoding65Pos, %function
 408              	u8g_font_GetEncoding65Pos:
 409              	.LFB9:
 151:u8glib_arm_v1.18.1\src/u8g_font.c **** 
 152:u8glib_arm_v1.18.1\src/u8g_font.c **** uint16_t u8g_font_GetEncoding65Pos(const void *font) U8G_NOINLINE;
 153:u8glib_arm_v1.18.1\src/u8g_font.c **** uint16_t u8g_font_GetEncoding65Pos(const void *font)
 154:u8glib_arm_v1.18.1\src/u8g_font.c **** {
 410              		.loc 1 154 0
 411              		.cfi_startproc
 412              		@ args = 0, pretend = 0, frame = 8
 413              		@ frame_needed = 1, uses_anonymous_args = 0
 414 0000 80B5     		push	{r7, lr}
 415              		.cfi_def_cfa_offset 8
 416              		.cfi_offset 7, -8
ARM GAS  C:\Users\KJA\AppData\Local\Temp\ccevgiJT.s 			page 11


 417              		.cfi_offset 14, -4
 418 0002 82B0     		sub	sp, sp, #8
 419              		.cfi_def_cfa_offset 16
 420 0004 00AF     		add	r7, sp, #0
 421              		.cfi_def_cfa_register 7
 422 0006 7860     		str	r0, [r7, #4]
 155:u8glib_arm_v1.18.1\src/u8g_font.c ****     return u8g_font_get_word(font, 6);
 423              		.loc 1 155 0
 424 0008 7868     		ldr	r0, [r7, #4]
 425 000a 0621     		movs	r1, #6
 426 000c FFF7FEFF 		bl	u8g_font_get_word
 427 0010 0346     		mov	r3, r0
 156:u8glib_arm_v1.18.1\src/u8g_font.c **** }
 428              		.loc 1 156 0
 429 0012 1846     		mov	r0, r3
 430 0014 0837     		adds	r7, r7, #8
 431              		.cfi_def_cfa_offset 8
 432 0016 BD46     		mov	sp, r7
 433              		.cfi_def_cfa_register 13
 434              		@ sp needed
 435 0018 80BD     		pop	{r7, pc}
 436              		.cfi_endproc
 437              	.LFE9:
 438              		.size	u8g_font_GetEncoding65Pos, .-u8g_font_GetEncoding65Pos
 439 001a 00BF     		.section	.text.u8g_font_GetEncoding97Pos,"ax",%progbits
 440              		.align	2
 441              		.global	u8g_font_GetEncoding97Pos
 442              		.thumb
 443              		.thumb_func
 444              		.type	u8g_font_GetEncoding97Pos, %function
 445              	u8g_font_GetEncoding97Pos:
 446              	.LFB10:
 157:u8glib_arm_v1.18.1\src/u8g_font.c **** 
 158:u8glib_arm_v1.18.1\src/u8g_font.c **** uint16_t u8g_font_GetEncoding97Pos(const void *font) U8G_NOINLINE;
 159:u8glib_arm_v1.18.1\src/u8g_font.c **** uint16_t u8g_font_GetEncoding97Pos(const void *font)
 160:u8glib_arm_v1.18.1\src/u8g_font.c **** {
 447              		.loc 1 160 0
 448              		.cfi_startproc
 449              		@ args = 0, pretend = 0, frame = 8
 450              		@ frame_needed = 1, uses_anonymous_args = 0
 451 0000 80B5     		push	{r7, lr}
 452              		.cfi_def_cfa_offset 8
 453              		.cfi_offset 7, -8
 454              		.cfi_offset 14, -4
 455 0002 82B0     		sub	sp, sp, #8
 456              		.cfi_def_cfa_offset 16
 457 0004 00AF     		add	r7, sp, #0
 458              		.cfi_def_cfa_register 7
 459 0006 7860     		str	r0, [r7, #4]
 161:u8glib_arm_v1.18.1\src/u8g_font.c ****     return u8g_font_get_word(font, 8);
 460              		.loc 1 161 0
 461 0008 7868     		ldr	r0, [r7, #4]
 462 000a 0821     		movs	r1, #8
 463 000c FFF7FEFF 		bl	u8g_font_get_word
 464 0010 0346     		mov	r3, r0
 162:u8glib_arm_v1.18.1\src/u8g_font.c **** }
 465              		.loc 1 162 0
ARM GAS  C:\Users\KJA\AppData\Local\Temp\ccevgiJT.s 			page 12


 466 0012 1846     		mov	r0, r3
 467 0014 0837     		adds	r7, r7, #8
 468              		.cfi_def_cfa_offset 8
 469 0016 BD46     		mov	sp, r7
 470              		.cfi_def_cfa_register 13
 471              		@ sp needed
 472 0018 80BD     		pop	{r7, pc}
 473              		.cfi_endproc
 474              	.LFE10:
 475              		.size	u8g_font_GetEncoding97Pos, .-u8g_font_GetEncoding97Pos
 476 001a 00BF     		.section	.text.u8g_font_GetFontStartEncoding,"ax",%progbits
 477              		.align	2
 478              		.global	u8g_font_GetFontStartEncoding
 479              		.thumb
 480              		.thumb_func
 481              		.type	u8g_font_GetFontStartEncoding, %function
 482              	u8g_font_GetFontStartEncoding:
 483              	.LFB11:
 163:u8glib_arm_v1.18.1\src/u8g_font.c **** 
 164:u8glib_arm_v1.18.1\src/u8g_font.c **** uint8_t u8g_font_GetFontStartEncoding(const void *font)
 165:u8glib_arm_v1.18.1\src/u8g_font.c **** {
 484              		.loc 1 165 0
 485              		.cfi_startproc
 486              		@ args = 0, pretend = 0, frame = 8
 487              		@ frame_needed = 1, uses_anonymous_args = 0
 488 0000 80B5     		push	{r7, lr}
 489              		.cfi_def_cfa_offset 8
 490              		.cfi_offset 7, -8
 491              		.cfi_offset 14, -4
 492 0002 82B0     		sub	sp, sp, #8
 493              		.cfi_def_cfa_offset 16
 494 0004 00AF     		add	r7, sp, #0
 495              		.cfi_def_cfa_register 7
 496 0006 7860     		str	r0, [r7, #4]
 166:u8glib_arm_v1.18.1\src/u8g_font.c ****   return u8g_font_get_byte(font, 10);
 497              		.loc 1 166 0
 498 0008 7868     		ldr	r0, [r7, #4]
 499 000a 0A21     		movs	r1, #10
 500 000c FFF7FEFF 		bl	u8g_font_get_byte
 501 0010 0346     		mov	r3, r0
 167:u8glib_arm_v1.18.1\src/u8g_font.c **** }
 502              		.loc 1 167 0
 503 0012 1846     		mov	r0, r3
 504 0014 0837     		adds	r7, r7, #8
 505              		.cfi_def_cfa_offset 8
 506 0016 BD46     		mov	sp, r7
 507              		.cfi_def_cfa_register 13
 508              		@ sp needed
 509 0018 80BD     		pop	{r7, pc}
 510              		.cfi_endproc
 511              	.LFE11:
 512              		.size	u8g_font_GetFontStartEncoding, .-u8g_font_GetFontStartEncoding
 513 001a 00BF     		.section	.text.u8g_font_GetFontEndEncoding,"ax",%progbits
 514              		.align	2
 515              		.global	u8g_font_GetFontEndEncoding
 516              		.thumb
 517              		.thumb_func
ARM GAS  C:\Users\KJA\AppData\Local\Temp\ccevgiJT.s 			page 13


 518              		.type	u8g_font_GetFontEndEncoding, %function
 519              	u8g_font_GetFontEndEncoding:
 520              	.LFB12:
 168:u8glib_arm_v1.18.1\src/u8g_font.c **** 
 169:u8glib_arm_v1.18.1\src/u8g_font.c **** uint8_t u8g_font_GetFontEndEncoding(const void *font)
 170:u8glib_arm_v1.18.1\src/u8g_font.c **** {
 521              		.loc 1 170 0
 522              		.cfi_startproc
 523              		@ args = 0, pretend = 0, frame = 8
 524              		@ frame_needed = 1, uses_anonymous_args = 0
 525 0000 80B5     		push	{r7, lr}
 526              		.cfi_def_cfa_offset 8
 527              		.cfi_offset 7, -8
 528              		.cfi_offset 14, -4
 529 0002 82B0     		sub	sp, sp, #8
 530              		.cfi_def_cfa_offset 16
 531 0004 00AF     		add	r7, sp, #0
 532              		.cfi_def_cfa_register 7
 533 0006 7860     		str	r0, [r7, #4]
 171:u8glib_arm_v1.18.1\src/u8g_font.c ****   return u8g_font_get_byte(font, 11);
 534              		.loc 1 171 0
 535 0008 7868     		ldr	r0, [r7, #4]
 536 000a 0B21     		movs	r1, #11
 537 000c FFF7FEFF 		bl	u8g_font_get_byte
 538 0010 0346     		mov	r3, r0
 172:u8glib_arm_v1.18.1\src/u8g_font.c **** }
 539              		.loc 1 172 0
 540 0012 1846     		mov	r0, r3
 541 0014 0837     		adds	r7, r7, #8
 542              		.cfi_def_cfa_offset 8
 543 0016 BD46     		mov	sp, r7
 544              		.cfi_def_cfa_register 13
 545              		@ sp needed
 546 0018 80BD     		pop	{r7, pc}
 547              		.cfi_endproc
 548              	.LFE12:
 549              		.size	u8g_font_GetFontEndEncoding, .-u8g_font_GetFontEndEncoding
 550 001a 00BF     		.section	.text.u8g_font_GetLowerGDescent,"ax",%progbits
 551              		.align	2
 552              		.global	u8g_font_GetLowerGDescent
 553              		.thumb
 554              		.thumb_func
 555              		.type	u8g_font_GetLowerGDescent, %function
 556              	u8g_font_GetLowerGDescent:
 557              	.LFB13:
 173:u8glib_arm_v1.18.1\src/u8g_font.c **** 
 174:u8glib_arm_v1.18.1\src/u8g_font.c **** int8_t u8g_font_GetLowerGDescent(const void *font)
 175:u8glib_arm_v1.18.1\src/u8g_font.c **** {
 558              		.loc 1 175 0
 559              		.cfi_startproc
 560              		@ args = 0, pretend = 0, frame = 8
 561              		@ frame_needed = 1, uses_anonymous_args = 0
 562 0000 80B5     		push	{r7, lr}
 563              		.cfi_def_cfa_offset 8
 564              		.cfi_offset 7, -8
 565              		.cfi_offset 14, -4
 566 0002 82B0     		sub	sp, sp, #8
ARM GAS  C:\Users\KJA\AppData\Local\Temp\ccevgiJT.s 			page 14


 567              		.cfi_def_cfa_offset 16
 568 0004 00AF     		add	r7, sp, #0
 569              		.cfi_def_cfa_register 7
 570 0006 7860     		str	r0, [r7, #4]
 176:u8glib_arm_v1.18.1\src/u8g_font.c ****   return u8g_font_get_byte(font, 12);
 571              		.loc 1 176 0
 572 0008 7868     		ldr	r0, [r7, #4]
 573 000a 0C21     		movs	r1, #12
 574 000c FFF7FEFF 		bl	u8g_font_get_byte
 575 0010 0346     		mov	r3, r0
 576 0012 DBB2     		uxtb	r3, r3
 577 0014 5BB2     		sxtb	r3, r3
 177:u8glib_arm_v1.18.1\src/u8g_font.c **** }
 578              		.loc 1 177 0
 579 0016 1846     		mov	r0, r3
 580 0018 0837     		adds	r7, r7, #8
 581              		.cfi_def_cfa_offset 8
 582 001a BD46     		mov	sp, r7
 583              		.cfi_def_cfa_register 13
 584              		@ sp needed
 585 001c 80BD     		pop	{r7, pc}
 586              		.cfi_endproc
 587              	.LFE13:
 588              		.size	u8g_font_GetLowerGDescent, .-u8g_font_GetLowerGDescent
 589 001e 00BF     		.section	.text.u8g_font_GetFontAscent,"ax",%progbits
 590              		.align	2
 591              		.global	u8g_font_GetFontAscent
 592              		.thumb
 593              		.thumb_func
 594              		.type	u8g_font_GetFontAscent, %function
 595              	u8g_font_GetFontAscent:
 596              	.LFB14:
 178:u8glib_arm_v1.18.1\src/u8g_font.c **** 
 179:u8glib_arm_v1.18.1\src/u8g_font.c **** int8_t u8g_font_GetFontAscent(const void *font)
 180:u8glib_arm_v1.18.1\src/u8g_font.c **** {
 597              		.loc 1 180 0
 598              		.cfi_startproc
 599              		@ args = 0, pretend = 0, frame = 8
 600              		@ frame_needed = 1, uses_anonymous_args = 0
 601 0000 80B5     		push	{r7, lr}
 602              		.cfi_def_cfa_offset 8
 603              		.cfi_offset 7, -8
 604              		.cfi_offset 14, -4
 605 0002 82B0     		sub	sp, sp, #8
 606              		.cfi_def_cfa_offset 16
 607 0004 00AF     		add	r7, sp, #0
 608              		.cfi_def_cfa_register 7
 609 0006 7860     		str	r0, [r7, #4]
 181:u8glib_arm_v1.18.1\src/u8g_font.c ****   return u8g_font_get_byte(font, 13);
 610              		.loc 1 181 0
 611 0008 7868     		ldr	r0, [r7, #4]
 612 000a 0D21     		movs	r1, #13
 613 000c FFF7FEFF 		bl	u8g_font_get_byte
 614 0010 0346     		mov	r3, r0
 615 0012 DBB2     		uxtb	r3, r3
 616 0014 5BB2     		sxtb	r3, r3
 182:u8glib_arm_v1.18.1\src/u8g_font.c **** }
ARM GAS  C:\Users\KJA\AppData\Local\Temp\ccevgiJT.s 			page 15


 617              		.loc 1 182 0
 618 0016 1846     		mov	r0, r3
 619 0018 0837     		adds	r7, r7, #8
 620              		.cfi_def_cfa_offset 8
 621 001a BD46     		mov	sp, r7
 622              		.cfi_def_cfa_register 13
 623              		@ sp needed
 624 001c 80BD     		pop	{r7, pc}
 625              		.cfi_endproc
 626              	.LFE14:
 627              		.size	u8g_font_GetFontAscent, .-u8g_font_GetFontAscent
 628 001e 00BF     		.section	.text.u8g_font_GetFontDescent,"ax",%progbits
 629              		.align	2
 630              		.global	u8g_font_GetFontDescent
 631              		.thumb
 632              		.thumb_func
 633              		.type	u8g_font_GetFontDescent, %function
 634              	u8g_font_GetFontDescent:
 635              	.LFB15:
 183:u8glib_arm_v1.18.1\src/u8g_font.c **** 
 184:u8glib_arm_v1.18.1\src/u8g_font.c **** int8_t u8g_font_GetFontDescent(const void *font)
 185:u8glib_arm_v1.18.1\src/u8g_font.c **** {
 636              		.loc 1 185 0
 637              		.cfi_startproc
 638              		@ args = 0, pretend = 0, frame = 8
 639              		@ frame_needed = 1, uses_anonymous_args = 0
 640 0000 80B5     		push	{r7, lr}
 641              		.cfi_def_cfa_offset 8
 642              		.cfi_offset 7, -8
 643              		.cfi_offset 14, -4
 644 0002 82B0     		sub	sp, sp, #8
 645              		.cfi_def_cfa_offset 16
 646 0004 00AF     		add	r7, sp, #0
 647              		.cfi_def_cfa_register 7
 648 0006 7860     		str	r0, [r7, #4]
 186:u8glib_arm_v1.18.1\src/u8g_font.c ****   return u8g_font_get_byte(font, 14);
 649              		.loc 1 186 0
 650 0008 7868     		ldr	r0, [r7, #4]
 651 000a 0E21     		movs	r1, #14
 652 000c FFF7FEFF 		bl	u8g_font_get_byte
 653 0010 0346     		mov	r3, r0
 654 0012 DBB2     		uxtb	r3, r3
 655 0014 5BB2     		sxtb	r3, r3
 187:u8glib_arm_v1.18.1\src/u8g_font.c **** }
 656              		.loc 1 187 0
 657 0016 1846     		mov	r0, r3
 658 0018 0837     		adds	r7, r7, #8
 659              		.cfi_def_cfa_offset 8
 660 001a BD46     		mov	sp, r7
 661              		.cfi_def_cfa_register 13
 662              		@ sp needed
 663 001c 80BD     		pop	{r7, pc}
 664              		.cfi_endproc
 665              	.LFE15:
 666              		.size	u8g_font_GetFontDescent, .-u8g_font_GetFontDescent
 667 001e 00BF     		.section	.text.u8g_font_GetFontXAscent,"ax",%progbits
 668              		.align	2
ARM GAS  C:\Users\KJA\AppData\Local\Temp\ccevgiJT.s 			page 16


 669              		.global	u8g_font_GetFontXAscent
 670              		.thumb
 671              		.thumb_func
 672              		.type	u8g_font_GetFontXAscent, %function
 673              	u8g_font_GetFontXAscent:
 674              	.LFB16:
 188:u8glib_arm_v1.18.1\src/u8g_font.c **** 
 189:u8glib_arm_v1.18.1\src/u8g_font.c **** int8_t u8g_font_GetFontXAscent(const void *font)
 190:u8glib_arm_v1.18.1\src/u8g_font.c **** {
 675              		.loc 1 190 0
 676              		.cfi_startproc
 677              		@ args = 0, pretend = 0, frame = 8
 678              		@ frame_needed = 1, uses_anonymous_args = 0
 679 0000 80B5     		push	{r7, lr}
 680              		.cfi_def_cfa_offset 8
 681              		.cfi_offset 7, -8
 682              		.cfi_offset 14, -4
 683 0002 82B0     		sub	sp, sp, #8
 684              		.cfi_def_cfa_offset 16
 685 0004 00AF     		add	r7, sp, #0
 686              		.cfi_def_cfa_register 7
 687 0006 7860     		str	r0, [r7, #4]
 191:u8glib_arm_v1.18.1\src/u8g_font.c ****   return u8g_font_get_byte(font, 15);
 688              		.loc 1 191 0
 689 0008 7868     		ldr	r0, [r7, #4]
 690 000a 0F21     		movs	r1, #15
 691 000c FFF7FEFF 		bl	u8g_font_get_byte
 692 0010 0346     		mov	r3, r0
 693 0012 DBB2     		uxtb	r3, r3
 694 0014 5BB2     		sxtb	r3, r3
 192:u8glib_arm_v1.18.1\src/u8g_font.c **** }
 695              		.loc 1 192 0
 696 0016 1846     		mov	r0, r3
 697 0018 0837     		adds	r7, r7, #8
 698              		.cfi_def_cfa_offset 8
 699 001a BD46     		mov	sp, r7
 700              		.cfi_def_cfa_register 13
 701              		@ sp needed
 702 001c 80BD     		pop	{r7, pc}
 703              		.cfi_endproc
 704              	.LFE16:
 705              		.size	u8g_font_GetFontXAscent, .-u8g_font_GetFontXAscent
 706 001e 00BF     		.section	.text.u8g_font_GetFontXDescent,"ax",%progbits
 707              		.align	2
 708              		.global	u8g_font_GetFontXDescent
 709              		.thumb
 710              		.thumb_func
 711              		.type	u8g_font_GetFontXDescent, %function
 712              	u8g_font_GetFontXDescent:
 713              	.LFB17:
 193:u8glib_arm_v1.18.1\src/u8g_font.c **** 
 194:u8glib_arm_v1.18.1\src/u8g_font.c **** int8_t u8g_font_GetFontXDescent(const void *font)
 195:u8glib_arm_v1.18.1\src/u8g_font.c **** {
 714              		.loc 1 195 0
 715              		.cfi_startproc
 716              		@ args = 0, pretend = 0, frame = 8
 717              		@ frame_needed = 1, uses_anonymous_args = 0
ARM GAS  C:\Users\KJA\AppData\Local\Temp\ccevgiJT.s 			page 17


 718 0000 80B5     		push	{r7, lr}
 719              		.cfi_def_cfa_offset 8
 720              		.cfi_offset 7, -8
 721              		.cfi_offset 14, -4
 722 0002 82B0     		sub	sp, sp, #8
 723              		.cfi_def_cfa_offset 16
 724 0004 00AF     		add	r7, sp, #0
 725              		.cfi_def_cfa_register 7
 726 0006 7860     		str	r0, [r7, #4]
 196:u8glib_arm_v1.18.1\src/u8g_font.c ****   return u8g_font_get_byte(font, 16);
 727              		.loc 1 196 0
 728 0008 7868     		ldr	r0, [r7, #4]
 729 000a 1021     		movs	r1, #16
 730 000c FFF7FEFF 		bl	u8g_font_get_byte
 731 0010 0346     		mov	r3, r0
 732 0012 DBB2     		uxtb	r3, r3
 733 0014 5BB2     		sxtb	r3, r3
 197:u8glib_arm_v1.18.1\src/u8g_font.c **** }
 734              		.loc 1 197 0
 735 0016 1846     		mov	r0, r3
 736 0018 0837     		adds	r7, r7, #8
 737              		.cfi_def_cfa_offset 8
 738 001a BD46     		mov	sp, r7
 739              		.cfi_def_cfa_register 13
 740              		@ sp needed
 741 001c 80BD     		pop	{r7, pc}
 742              		.cfi_endproc
 743              	.LFE17:
 744              		.size	u8g_font_GetFontXDescent, .-u8g_font_GetFontXDescent
 745 001e 00BF     		.section	.text.u8g_font_GetGlyphDataStart,"ax",%progbits
 746              		.align	2
 747              		.thumb
 748              		.thumb_func
 749              		.type	u8g_font_GetGlyphDataStart, %function
 750              	u8g_font_GetGlyphDataStart:
 751              	.LFB18:
 198:u8glib_arm_v1.18.1\src/u8g_font.c **** 
 199:u8glib_arm_v1.18.1\src/u8g_font.c **** 
 200:u8glib_arm_v1.18.1\src/u8g_font.c **** /* return the data start for a font and the glyph pointer */
 201:u8glib_arm_v1.18.1\src/u8g_font.c **** static uint8_t *u8g_font_GetGlyphDataStart(const void *font, u8g_glyph_t g)
 202:u8glib_arm_v1.18.1\src/u8g_font.c **** {
 752              		.loc 1 202 0
 753              		.cfi_startproc
 754              		@ args = 0, pretend = 0, frame = 8
 755              		@ frame_needed = 1, uses_anonymous_args = 0
 756 0000 80B5     		push	{r7, lr}
 757              		.cfi_def_cfa_offset 8
 758              		.cfi_offset 7, -8
 759              		.cfi_offset 14, -4
 760 0002 82B0     		sub	sp, sp, #8
 761              		.cfi_def_cfa_offset 16
 762 0004 00AF     		add	r7, sp, #0
 763              		.cfi_def_cfa_register 7
 764 0006 7860     		str	r0, [r7, #4]
 765 0008 3960     		str	r1, [r7]
 203:u8glib_arm_v1.18.1\src/u8g_font.c ****   return ((u8g_fntpgm_uint8_t *)g) + u8g_font_GetFontGlyphStructureSize(font);
 766              		.loc 1 203 0
ARM GAS  C:\Users\KJA\AppData\Local\Temp\ccevgiJT.s 			page 18


 767 000a 7868     		ldr	r0, [r7, #4]
 768 000c FFF7FEFF 		bl	u8g_font_GetFontGlyphStructureSize
 769 0010 0346     		mov	r3, r0
 770 0012 1A46     		mov	r2, r3
 771 0014 3B68     		ldr	r3, [r7]
 772 0016 1344     		add	r3, r3, r2
 204:u8glib_arm_v1.18.1\src/u8g_font.c **** }
 773              		.loc 1 204 0
 774 0018 1846     		mov	r0, r3
 775 001a 0837     		adds	r7, r7, #8
 776              		.cfi_def_cfa_offset 8
 777 001c BD46     		mov	sp, r7
 778              		.cfi_def_cfa_register 13
 779              		@ sp needed
 780 001e 80BD     		pop	{r7, pc}
 781              		.cfi_endproc
 782              	.LFE18:
 783              		.size	u8g_font_GetGlyphDataStart, .-u8g_font_GetGlyphDataStart
 784              		.section	.text.u8g_font_GetSize,"ax",%progbits
 785              		.align	2
 786              		.global	u8g_font_GetSize
 787              		.thumb
 788              		.thumb_func
 789              		.type	u8g_font_GetSize, %function
 790              	u8g_font_GetSize:
 791              	.LFB19:
 205:u8glib_arm_v1.18.1\src/u8g_font.c **** 
 206:u8glib_arm_v1.18.1\src/u8g_font.c **** /* calculate the overall length of the font, only used to create the picture for the google wiki */
 207:u8glib_arm_v1.18.1\src/u8g_font.c **** size_t u8g_font_GetSize(const void *font)
 208:u8glib_arm_v1.18.1\src/u8g_font.c **** {
 792              		.loc 1 208 0
 793              		.cfi_startproc
 794              		@ args = 0, pretend = 0, frame = 24
 795              		@ frame_needed = 1, uses_anonymous_args = 0
 796 0000 80B5     		push	{r7, lr}
 797              		.cfi_def_cfa_offset 8
 798              		.cfi_offset 7, -8
 799              		.cfi_offset 14, -4
 800 0002 86B0     		sub	sp, sp, #24
 801              		.cfi_def_cfa_offset 32
 802 0004 00AF     		add	r7, sp, #0
 803              		.cfi_def_cfa_register 7
 804 0006 7860     		str	r0, [r7, #4]
 209:u8glib_arm_v1.18.1\src/u8g_font.c ****   uint8_t *p = (uint8_t *)(font);
 805              		.loc 1 209 0
 806 0008 7B68     		ldr	r3, [r7, #4]
 807 000a 7B61     		str	r3, [r7, #20]
 210:u8glib_arm_v1.18.1\src/u8g_font.c ****   uint8_t font_format = u8g_font_GetFormat(font);
 808              		.loc 1 210 0
 809 000c 7868     		ldr	r0, [r7, #4]
 810 000e FFF7FEFF 		bl	u8g_font_GetFormat
 811 0012 0346     		mov	r3, r0
 812 0014 7B74     		strb	r3, [r7, #17]
 211:u8glib_arm_v1.18.1\src/u8g_font.c ****   uint8_t data_structure_size = u8g_font_GetFontGlyphStructureSize(font);
 813              		.loc 1 211 0
 814 0016 7868     		ldr	r0, [r7, #4]
 815 0018 FFF7FEFF 		bl	u8g_font_GetFontGlyphStructureSize
ARM GAS  C:\Users\KJA\AppData\Local\Temp\ccevgiJT.s 			page 19


 816 001c 0346     		mov	r3, r0
 817 001e 3B74     		strb	r3, [r7, #16]
 212:u8glib_arm_v1.18.1\src/u8g_font.c ****   uint8_t start, end;
 213:u8glib_arm_v1.18.1\src/u8g_font.c ****   uint8_t i;
 214:u8glib_arm_v1.18.1\src/u8g_font.c ****   uint8_t mask = 255;
 818              		.loc 1 214 0
 819 0020 FF23     		movs	r3, #255
 820 0022 BB74     		strb	r3, [r7, #18]
 215:u8glib_arm_v1.18.1\src/u8g_font.c ****   
 216:u8glib_arm_v1.18.1\src/u8g_font.c ****   start = u8g_font_GetFontStartEncoding(font);
 821              		.loc 1 216 0
 822 0024 7868     		ldr	r0, [r7, #4]
 823 0026 FFF7FEFF 		bl	u8g_font_GetFontStartEncoding
 824 002a 0346     		mov	r3, r0
 825 002c FB73     		strb	r3, [r7, #15]
 217:u8glib_arm_v1.18.1\src/u8g_font.c ****   end = u8g_font_GetFontEndEncoding(font);
 826              		.loc 1 217 0
 827 002e 7868     		ldr	r0, [r7, #4]
 828 0030 FFF7FEFF 		bl	u8g_font_GetFontEndEncoding
 829 0034 0346     		mov	r3, r0
 830 0036 BB73     		strb	r3, [r7, #14]
 218:u8glib_arm_v1.18.1\src/u8g_font.c **** 
 219:u8glib_arm_v1.18.1\src/u8g_font.c ****   if ( font_format == 1 )
 831              		.loc 1 219 0
 832 0038 7B7C     		ldrb	r3, [r7, #17]	@ zero_extendqisi2
 833 003a 012B     		cmp	r3, #1
 834 003c 01D1     		bne	.L45
 220:u8glib_arm_v1.18.1\src/u8g_font.c ****     mask = 15;
 835              		.loc 1 220 0
 836 003e 0F23     		movs	r3, #15
 837 0040 BB74     		strb	r3, [r7, #18]
 838              	.L45:
 221:u8glib_arm_v1.18.1\src/u8g_font.c **** 
 222:u8glib_arm_v1.18.1\src/u8g_font.c ****   p += U8G_FONT_DATA_STRUCT_SIZE;       /* skip font general information */  
 839              		.loc 1 222 0
 840 0042 7B69     		ldr	r3, [r7, #20]
 841 0044 1133     		adds	r3, r3, #17
 842 0046 7B61     		str	r3, [r7, #20]
 223:u8glib_arm_v1.18.1\src/u8g_font.c **** 
 224:u8glib_arm_v1.18.1\src/u8g_font.c ****   i = start;  
 843              		.loc 1 224 0
 844 0048 FB7B     		ldrb	r3, [r7, #15]
 845 004a FB74     		strb	r3, [r7, #19]
 846              	.L50:
 225:u8glib_arm_v1.18.1\src/u8g_font.c ****   for(;;)
 226:u8glib_arm_v1.18.1\src/u8g_font.c ****   {
 227:u8glib_arm_v1.18.1\src/u8g_font.c ****     if ( u8g_pgm_read((u8g_pgm_uint8_t *)(p)) == 255 )
 847              		.loc 1 227 0
 848 004c 7B69     		ldr	r3, [r7, #20]
 849 004e 1B78     		ldrb	r3, [r3]	@ zero_extendqisi2
 850 0050 FF2B     		cmp	r3, #255
 851 0052 03D1     		bne	.L46
 228:u8glib_arm_v1.18.1\src/u8g_font.c ****     {
 229:u8glib_arm_v1.18.1\src/u8g_font.c ****       p += 1;
 852              		.loc 1 229 0
 853 0054 7B69     		ldr	r3, [r7, #20]
 854 0056 0133     		adds	r3, r3, #1
ARM GAS  C:\Users\KJA\AppData\Local\Temp\ccevgiJT.s 			page 20


 855 0058 7B61     		str	r3, [r7, #20]
 856 005a 0DE0     		b	.L47
 857              	.L46:
 230:u8glib_arm_v1.18.1\src/u8g_font.c ****     }
 231:u8glib_arm_v1.18.1\src/u8g_font.c ****     else
 232:u8glib_arm_v1.18.1\src/u8g_font.c ****     {
 233:u8glib_arm_v1.18.1\src/u8g_font.c ****       p += u8g_pgm_read( ((u8g_pgm_uint8_t *)(p)) + 2 ) & mask;
 858              		.loc 1 233 0
 859 005c 7B69     		ldr	r3, [r7, #20]
 860 005e 0233     		adds	r3, r3, #2
 861 0060 1A78     		ldrb	r2, [r3]	@ zero_extendqisi2
 862 0062 BB7C     		ldrb	r3, [r7, #18]
 863 0064 1340     		ands	r3, r3, r2
 864 0066 DBB2     		uxtb	r3, r3
 865 0068 1A46     		mov	r2, r3
 866 006a 7B69     		ldr	r3, [r7, #20]
 867 006c 1344     		add	r3, r3, r2
 868 006e 7B61     		str	r3, [r7, #20]
 234:u8glib_arm_v1.18.1\src/u8g_font.c ****       p += data_structure_size;
 869              		.loc 1 234 0
 870 0070 3B7C     		ldrb	r3, [r7, #16]	@ zero_extendqisi2
 871 0072 7A69     		ldr	r2, [r7, #20]
 872 0074 1344     		add	r3, r3, r2
 873 0076 7B61     		str	r3, [r7, #20]
 874              	.L47:
 235:u8glib_arm_v1.18.1\src/u8g_font.c ****     }
 236:u8glib_arm_v1.18.1\src/u8g_font.c ****     if ( i == end )
 875              		.loc 1 236 0
 876 0078 FA7C     		ldrb	r2, [r7, #19]	@ zero_extendqisi2
 877 007a BB7B     		ldrb	r3, [r7, #14]	@ zero_extendqisi2
 878 007c 9A42     		cmp	r2, r3
 879 007e 00D1     		bne	.L48
 237:u8glib_arm_v1.18.1\src/u8g_font.c ****       break;
 880              		.loc 1 237 0
 881 0080 03E0     		b	.L52
 882              	.L48:
 238:u8glib_arm_v1.18.1\src/u8g_font.c ****     i++;
 883              		.loc 1 238 0
 884 0082 FB7C     		ldrb	r3, [r7, #19]	@ zero_extendqisi2
 885 0084 0133     		adds	r3, r3, #1
 886 0086 FB74     		strb	r3, [r7, #19]
 239:u8glib_arm_v1.18.1\src/u8g_font.c ****   }
 887              		.loc 1 239 0
 888 0088 E0E7     		b	.L50
 889              	.L52:
 240:u8glib_arm_v1.18.1\src/u8g_font.c ****     
 241:u8glib_arm_v1.18.1\src/u8g_font.c ****   return p - (uint8_t *)font;
 890              		.loc 1 241 0
 891 008a 7A69     		ldr	r2, [r7, #20]
 892 008c 7B68     		ldr	r3, [r7, #4]
 893 008e D31A     		subs	r3, r2, r3
 242:u8glib_arm_v1.18.1\src/u8g_font.c **** }
 894              		.loc 1 242 0
 895 0090 1846     		mov	r0, r3
 896 0092 1837     		adds	r7, r7, #24
 897              		.cfi_def_cfa_offset 8
 898 0094 BD46     		mov	sp, r7
ARM GAS  C:\Users\KJA\AppData\Local\Temp\ccevgiJT.s 			page 21


 899              		.cfi_def_cfa_register 13
 900              		@ sp needed
 901 0096 80BD     		pop	{r7, pc}
 902              		.cfi_endproc
 903              	.LFE19:
 904              		.size	u8g_font_GetSize, .-u8g_font_GetSize
 905              		.section	.text.u8g_GetFontBBXWidth,"ax",%progbits
 906              		.align	2
 907              		.global	u8g_GetFontBBXWidth
 908              		.thumb
 909              		.thumb_func
 910              		.type	u8g_GetFontBBXWidth, %function
 911              	u8g_GetFontBBXWidth:
 912              	.LFB20:
 243:u8glib_arm_v1.18.1\src/u8g_font.c **** 
 244:u8glib_arm_v1.18.1\src/u8g_font.c **** /*========================================================================*/
 245:u8glib_arm_v1.18.1\src/u8g_font.c **** /* u8g interface, font access */
 246:u8glib_arm_v1.18.1\src/u8g_font.c **** 
 247:u8glib_arm_v1.18.1\src/u8g_font.c **** uint8_t u8g_GetFontBBXWidth(u8g_t *u8g)
 248:u8glib_arm_v1.18.1\src/u8g_font.c **** {
 913              		.loc 1 248 0
 914              		.cfi_startproc
 915              		@ args = 0, pretend = 0, frame = 8
 916              		@ frame_needed = 1, uses_anonymous_args = 0
 917 0000 80B5     		push	{r7, lr}
 918              		.cfi_def_cfa_offset 8
 919              		.cfi_offset 7, -8
 920              		.cfi_offset 14, -4
 921 0002 82B0     		sub	sp, sp, #8
 922              		.cfi_def_cfa_offset 16
 923 0004 00AF     		add	r7, sp, #0
 924              		.cfi_def_cfa_register 7
 925 0006 7860     		str	r0, [r7, #4]
 249:u8glib_arm_v1.18.1\src/u8g_font.c ****   return u8g_font_GetBBXWidth(u8g->font);
 926              		.loc 1 249 0
 927 0008 7B68     		ldr	r3, [r7, #4]
 928 000a 9B68     		ldr	r3, [r3, #8]
 929 000c 1846     		mov	r0, r3
 930 000e FFF7FEFF 		bl	u8g_font_GetBBXWidth
 931 0012 0346     		mov	r3, r0
 250:u8glib_arm_v1.18.1\src/u8g_font.c **** }
 932              		.loc 1 250 0
 933 0014 1846     		mov	r0, r3
 934 0016 0837     		adds	r7, r7, #8
 935              		.cfi_def_cfa_offset 8
 936 0018 BD46     		mov	sp, r7
 937              		.cfi_def_cfa_register 13
 938              		@ sp needed
 939 001a 80BD     		pop	{r7, pc}
 940              		.cfi_endproc
 941              	.LFE20:
 942              		.size	u8g_GetFontBBXWidth, .-u8g_GetFontBBXWidth
 943              		.section	.text.u8g_GetFontBBXHeight,"ax",%progbits
 944              		.align	2
 945              		.global	u8g_GetFontBBXHeight
 946              		.thumb
 947              		.thumb_func
ARM GAS  C:\Users\KJA\AppData\Local\Temp\ccevgiJT.s 			page 22


 948              		.type	u8g_GetFontBBXHeight, %function
 949              	u8g_GetFontBBXHeight:
 950              	.LFB21:
 251:u8glib_arm_v1.18.1\src/u8g_font.c **** 
 252:u8glib_arm_v1.18.1\src/u8g_font.c **** uint8_t u8g_GetFontBBXHeight(u8g_t *u8g)
 253:u8glib_arm_v1.18.1\src/u8g_font.c **** {
 951              		.loc 1 253 0
 952              		.cfi_startproc
 953              		@ args = 0, pretend = 0, frame = 8
 954              		@ frame_needed = 1, uses_anonymous_args = 0
 955 0000 80B5     		push	{r7, lr}
 956              		.cfi_def_cfa_offset 8
 957              		.cfi_offset 7, -8
 958              		.cfi_offset 14, -4
 959 0002 82B0     		sub	sp, sp, #8
 960              		.cfi_def_cfa_offset 16
 961 0004 00AF     		add	r7, sp, #0
 962              		.cfi_def_cfa_register 7
 963 0006 7860     		str	r0, [r7, #4]
 254:u8glib_arm_v1.18.1\src/u8g_font.c ****   return u8g_font_GetBBXHeight(u8g->font);
 964              		.loc 1 254 0
 965 0008 7B68     		ldr	r3, [r7, #4]
 966 000a 9B68     		ldr	r3, [r3, #8]
 967 000c 1846     		mov	r0, r3
 968 000e FFF7FEFF 		bl	u8g_font_GetBBXHeight
 969 0012 0346     		mov	r3, r0
 255:u8glib_arm_v1.18.1\src/u8g_font.c **** }
 970              		.loc 1 255 0
 971 0014 1846     		mov	r0, r3
 972 0016 0837     		adds	r7, r7, #8
 973              		.cfi_def_cfa_offset 8
 974 0018 BD46     		mov	sp, r7
 975              		.cfi_def_cfa_register 13
 976              		@ sp needed
 977 001a 80BD     		pop	{r7, pc}
 978              		.cfi_endproc
 979              	.LFE21:
 980              		.size	u8g_GetFontBBXHeight, .-u8g_GetFontBBXHeight
 981              		.section	.text.u8g_GetFontBBXOffX,"ax",%progbits
 982              		.align	2
 983              		.global	u8g_GetFontBBXOffX
 984              		.thumb
 985              		.thumb_func
 986              		.type	u8g_GetFontBBXOffX, %function
 987              	u8g_GetFontBBXOffX:
 988              	.LFB22:
 256:u8glib_arm_v1.18.1\src/u8g_font.c **** 
 257:u8glib_arm_v1.18.1\src/u8g_font.c **** int8_t u8g_GetFontBBXOffX(u8g_t *u8g) U8G_NOINLINE;
 258:u8glib_arm_v1.18.1\src/u8g_font.c **** int8_t u8g_GetFontBBXOffX(u8g_t *u8g)
 259:u8glib_arm_v1.18.1\src/u8g_font.c **** {
 989              		.loc 1 259 0
 990              		.cfi_startproc
 991              		@ args = 0, pretend = 0, frame = 8
 992              		@ frame_needed = 1, uses_anonymous_args = 0
 993 0000 80B5     		push	{r7, lr}
 994              		.cfi_def_cfa_offset 8
 995              		.cfi_offset 7, -8
ARM GAS  C:\Users\KJA\AppData\Local\Temp\ccevgiJT.s 			page 23


 996              		.cfi_offset 14, -4
 997 0002 82B0     		sub	sp, sp, #8
 998              		.cfi_def_cfa_offset 16
 999 0004 00AF     		add	r7, sp, #0
 1000              		.cfi_def_cfa_register 7
 1001 0006 7860     		str	r0, [r7, #4]
 260:u8glib_arm_v1.18.1\src/u8g_font.c ****   return u8g_font_GetBBXOffX(u8g->font);
 1002              		.loc 1 260 0
 1003 0008 7B68     		ldr	r3, [r7, #4]
 1004 000a 9B68     		ldr	r3, [r3, #8]
 1005 000c 1846     		mov	r0, r3
 1006 000e FFF7FEFF 		bl	u8g_font_GetBBXOffX
 1007 0012 0346     		mov	r3, r0
 261:u8glib_arm_v1.18.1\src/u8g_font.c **** }
 1008              		.loc 1 261 0
 1009 0014 1846     		mov	r0, r3
 1010 0016 0837     		adds	r7, r7, #8
 1011              		.cfi_def_cfa_offset 8
 1012 0018 BD46     		mov	sp, r7
 1013              		.cfi_def_cfa_register 13
 1014              		@ sp needed
 1015 001a 80BD     		pop	{r7, pc}
 1016              		.cfi_endproc
 1017              	.LFE22:
 1018              		.size	u8g_GetFontBBXOffX, .-u8g_GetFontBBXOffX
 1019              		.section	.text.u8g_GetFontBBXOffY,"ax",%progbits
 1020              		.align	2
 1021              		.global	u8g_GetFontBBXOffY
 1022              		.thumb
 1023              		.thumb_func
 1024              		.type	u8g_GetFontBBXOffY, %function
 1025              	u8g_GetFontBBXOffY:
 1026              	.LFB23:
 262:u8glib_arm_v1.18.1\src/u8g_font.c **** 
 263:u8glib_arm_v1.18.1\src/u8g_font.c **** int8_t u8g_GetFontBBXOffY(u8g_t *u8g) U8G_NOINLINE;
 264:u8glib_arm_v1.18.1\src/u8g_font.c **** int8_t u8g_GetFontBBXOffY(u8g_t *u8g)
 265:u8glib_arm_v1.18.1\src/u8g_font.c **** {
 1027              		.loc 1 265 0
 1028              		.cfi_startproc
 1029              		@ args = 0, pretend = 0, frame = 8
 1030              		@ frame_needed = 1, uses_anonymous_args = 0
 1031 0000 80B5     		push	{r7, lr}
 1032              		.cfi_def_cfa_offset 8
 1033              		.cfi_offset 7, -8
 1034              		.cfi_offset 14, -4
 1035 0002 82B0     		sub	sp, sp, #8
 1036              		.cfi_def_cfa_offset 16
 1037 0004 00AF     		add	r7, sp, #0
 1038              		.cfi_def_cfa_register 7
 1039 0006 7860     		str	r0, [r7, #4]
 266:u8glib_arm_v1.18.1\src/u8g_font.c ****   return u8g_font_GetBBXOffY(u8g->font);
 1040              		.loc 1 266 0
 1041 0008 7B68     		ldr	r3, [r7, #4]
 1042 000a 9B68     		ldr	r3, [r3, #8]
 1043 000c 1846     		mov	r0, r3
 1044 000e FFF7FEFF 		bl	u8g_font_GetBBXOffY
 1045 0012 0346     		mov	r3, r0
ARM GAS  C:\Users\KJA\AppData\Local\Temp\ccevgiJT.s 			page 24


 267:u8glib_arm_v1.18.1\src/u8g_font.c **** }
 1046              		.loc 1 267 0
 1047 0014 1846     		mov	r0, r3
 1048 0016 0837     		adds	r7, r7, #8
 1049              		.cfi_def_cfa_offset 8
 1050 0018 BD46     		mov	sp, r7
 1051              		.cfi_def_cfa_register 13
 1052              		@ sp needed
 1053 001a 80BD     		pop	{r7, pc}
 1054              		.cfi_endproc
 1055              	.LFE23:
 1056              		.size	u8g_GetFontBBXOffY, .-u8g_GetFontBBXOffY
 1057              		.section	.text.u8g_GetFontCapitalAHeight,"ax",%progbits
 1058              		.align	2
 1059              		.global	u8g_GetFontCapitalAHeight
 1060              		.thumb
 1061              		.thumb_func
 1062              		.type	u8g_GetFontCapitalAHeight, %function
 1063              	u8g_GetFontCapitalAHeight:
 1064              	.LFB24:
 268:u8glib_arm_v1.18.1\src/u8g_font.c **** 
 269:u8glib_arm_v1.18.1\src/u8g_font.c **** uint8_t u8g_GetFontCapitalAHeight(u8g_t *u8g) U8G_NOINLINE; 
 270:u8glib_arm_v1.18.1\src/u8g_font.c **** uint8_t u8g_GetFontCapitalAHeight(u8g_t *u8g)
 271:u8glib_arm_v1.18.1\src/u8g_font.c **** {
 1065              		.loc 1 271 0
 1066              		.cfi_startproc
 1067              		@ args = 0, pretend = 0, frame = 8
 1068              		@ frame_needed = 1, uses_anonymous_args = 0
 1069 0000 80B5     		push	{r7, lr}
 1070              		.cfi_def_cfa_offset 8
 1071              		.cfi_offset 7, -8
 1072              		.cfi_offset 14, -4
 1073 0002 82B0     		sub	sp, sp, #8
 1074              		.cfi_def_cfa_offset 16
 1075 0004 00AF     		add	r7, sp, #0
 1076              		.cfi_def_cfa_register 7
 1077 0006 7860     		str	r0, [r7, #4]
 272:u8glib_arm_v1.18.1\src/u8g_font.c ****   return u8g_font_GetCapitalAHeight(u8g->font);
 1078              		.loc 1 272 0
 1079 0008 7B68     		ldr	r3, [r7, #4]
 1080 000a 9B68     		ldr	r3, [r3, #8]
 1081 000c 1846     		mov	r0, r3
 1082 000e FFF7FEFF 		bl	u8g_font_GetCapitalAHeight
 1083 0012 0346     		mov	r3, r0
 273:u8glib_arm_v1.18.1\src/u8g_font.c **** }
 1084              		.loc 1 273 0
 1085 0014 1846     		mov	r0, r3
 1086 0016 0837     		adds	r7, r7, #8
 1087              		.cfi_def_cfa_offset 8
 1088 0018 BD46     		mov	sp, r7
 1089              		.cfi_def_cfa_register 13
 1090              		@ sp needed
 1091 001a 80BD     		pop	{r7, pc}
 1092              		.cfi_endproc
 1093              	.LFE24:
 1094              		.size	u8g_GetFontCapitalAHeight, .-u8g_GetFontCapitalAHeight
 1095              		.section	.text.u8g_CopyGlyphDataToCache,"ax",%progbits
ARM GAS  C:\Users\KJA\AppData\Local\Temp\ccevgiJT.s 			page 25


 1096              		.align	2
 1097              		.thumb
 1098              		.thumb_func
 1099              		.type	u8g_CopyGlyphDataToCache, %function
 1100              	u8g_CopyGlyphDataToCache:
 1101              	.LFB25:
 274:u8glib_arm_v1.18.1\src/u8g_font.c **** 
 275:u8glib_arm_v1.18.1\src/u8g_font.c **** /*========================================================================*/
 276:u8glib_arm_v1.18.1\src/u8g_font.c **** /* glyph handling */
 277:u8glib_arm_v1.18.1\src/u8g_font.c **** 
 278:u8glib_arm_v1.18.1\src/u8g_font.c **** static void u8g_CopyGlyphDataToCache(u8g_t *u8g, u8g_glyph_t g)
 279:u8glib_arm_v1.18.1\src/u8g_font.c **** {
 1102              		.loc 1 279 0
 1103              		.cfi_startproc
 1104              		@ args = 0, pretend = 0, frame = 16
 1105              		@ frame_needed = 1, uses_anonymous_args = 0
 1106 0000 80B5     		push	{r7, lr}
 1107              		.cfi_def_cfa_offset 8
 1108              		.cfi_offset 7, -8
 1109              		.cfi_offset 14, -4
 1110 0002 84B0     		sub	sp, sp, #16
 1111              		.cfi_def_cfa_offset 24
 1112 0004 00AF     		add	r7, sp, #0
 1113              		.cfi_def_cfa_register 7
 1114 0006 7860     		str	r0, [r7, #4]
 1115 0008 3960     		str	r1, [r7]
 280:u8glib_arm_v1.18.1\src/u8g_font.c ****   uint8_t tmp;
 281:u8glib_arm_v1.18.1\src/u8g_font.c ****   switch( u8g_font_GetFormat(u8g->font) )
 1116              		.loc 1 281 0
 1117 000a 7B68     		ldr	r3, [r7, #4]
 1118 000c 9B68     		ldr	r3, [r3, #8]
 1119 000e 1846     		mov	r0, r3
 1120 0010 FFF7FEFF 		bl	u8g_font_GetFormat
 1121 0014 0346     		mov	r3, r0
 1122 0016 002B     		cmp	r3, #0
 1123 0018 01D0     		beq	.L65
 1124 001a 022B     		cmp	r3, #2
 1125 001c 1BD1     		bne	.L67
 1126              	.L65:
 282:u8glib_arm_v1.18.1\src/u8g_font.c ****   {
 283:u8glib_arm_v1.18.1\src/u8g_font.c ****     case 0:
 284:u8glib_arm_v1.18.1\src/u8g_font.c ****     case 2:
 285:u8glib_arm_v1.18.1\src/u8g_font.c ****   /*
 286:u8glib_arm_v1.18.1\src/u8g_font.c ****     format 0
 287:u8glib_arm_v1.18.1\src/u8g_font.c ****     glyph information 
 288:u8glib_arm_v1.18.1\src/u8g_font.c ****     offset
 289:u8glib_arm_v1.18.1\src/u8g_font.c ****     0             BBX width                                       unsigned
 290:u8glib_arm_v1.18.1\src/u8g_font.c ****     1             BBX height                                      unsigned
 291:u8glib_arm_v1.18.1\src/u8g_font.c ****     2             data size                                          unsigned    (BBX width + 7)/8 
 292:u8glib_arm_v1.18.1\src/u8g_font.c ****     3             DWIDTH                                          signed
 293:u8glib_arm_v1.18.1\src/u8g_font.c ****     4             BBX xoffset                                    signed
 294:u8glib_arm_v1.18.1\src/u8g_font.c ****     5             BBX yoffset                                    signed
 295:u8glib_arm_v1.18.1\src/u8g_font.c ****   byte 0 == 255 indicates empty glyph
 296:u8glib_arm_v1.18.1\src/u8g_font.c ****   */
 297:u8glib_arm_v1.18.1\src/u8g_font.c ****       u8g->glyph_width =  u8g_pgm_read( ((u8g_pgm_uint8_t *)g) + 0 );
 1127              		.loc 1 297 0
 1128 001e 3B68     		ldr	r3, [r7]
ARM GAS  C:\Users\KJA\AppData\Local\Temp\ccevgiJT.s 			page 26


 1129 0020 1A78     		ldrb	r2, [r3]	@ zero_extendqisi2
 1130 0022 7B68     		ldr	r3, [r7, #4]
 1131 0024 DA77     		strb	r2, [r3, #31]
 298:u8glib_arm_v1.18.1\src/u8g_font.c ****       u8g->glyph_height =  u8g_pgm_read( ((u8g_pgm_uint8_t *)g) + 1 );
 1132              		.loc 1 298 0
 1133 0026 3B68     		ldr	r3, [r7]
 1134 0028 5A78     		ldrb	r2, [r3, #1]	@ zero_extendqisi2
 1135 002a 7B68     		ldr	r3, [r7, #4]
 1136 002c 83F82020 		strb	r2, [r3, #32]
 299:u8glib_arm_v1.18.1\src/u8g_font.c ****       u8g->glyph_dx =  u8g_pgm_read( ((u8g_pgm_uint8_t *)g) + 3 );
 1137              		.loc 1 299 0
 1138 0030 3B68     		ldr	r3, [r7]
 1139 0032 0333     		adds	r3, r3, #3
 1140 0034 1B78     		ldrb	r3, [r3]	@ zero_extendqisi2
 1141 0036 DAB2     		uxtb	r2, r3
 1142 0038 7B68     		ldr	r3, [r7, #4]
 1143 003a 1A77     		strb	r2, [r3, #28]
 300:u8glib_arm_v1.18.1\src/u8g_font.c ****       u8g->glyph_x =  u8g_pgm_read( ((u8g_pgm_uint8_t *)g) + 4 );
 1144              		.loc 1 300 0
 1145 003c 3B68     		ldr	r3, [r7]
 1146 003e 0433     		adds	r3, r3, #4
 1147 0040 1B78     		ldrb	r3, [r3]	@ zero_extendqisi2
 1148 0042 DAB2     		uxtb	r2, r3
 1149 0044 7B68     		ldr	r3, [r7, #4]
 1150 0046 5A77     		strb	r2, [r3, #29]
 301:u8glib_arm_v1.18.1\src/u8g_font.c ****       u8g->glyph_y =  u8g_pgm_read( ((u8g_pgm_uint8_t *)g) + 5 );
 1151              		.loc 1 301 0
 1152 0048 3B68     		ldr	r3, [r7]
 1153 004a 0533     		adds	r3, r3, #5
 1154 004c 1B78     		ldrb	r3, [r3]	@ zero_extendqisi2
 1155 004e DAB2     		uxtb	r2, r3
 1156 0050 7B68     		ldr	r3, [r7, #4]
 1157 0052 9A77     		strb	r2, [r3, #30]
 302:u8glib_arm_v1.18.1\src/u8g_font.c ****       break;
 1158              		.loc 1 302 0
 1159 0054 30E0     		b	.L63
 1160              	.L67:
 303:u8glib_arm_v1.18.1\src/u8g_font.c ****     case 1:
 304:u8glib_arm_v1.18.1\src/u8g_font.c ****     default:
 305:u8glib_arm_v1.18.1\src/u8g_font.c ****       /*
 306:u8glib_arm_v1.18.1\src/u8g_font.c **** format 1
 307:u8glib_arm_v1.18.1\src/u8g_font.c ****   0             BBX xoffset                                    signed   --> upper 4 Bit
 308:u8glib_arm_v1.18.1\src/u8g_font.c ****   0             BBX yoffset                                    signed --> lower 4 Bit
 309:u8glib_arm_v1.18.1\src/u8g_font.c ****   1             BBX width                                       unsigned --> upper 4 Bit
 310:u8glib_arm_v1.18.1\src/u8g_font.c ****   1             BBX height                                      unsigned --> lower 4 Bit
 311:u8glib_arm_v1.18.1\src/u8g_font.c ****   2             data size                                           unsigned -(BBX width + 7)/8 * B
 312:u8glib_arm_v1.18.1\src/u8g_font.c ****   2             DWIDTH                                          signed --> upper  4 Bit
 313:u8glib_arm_v1.18.1\src/u8g_font.c ****   byte 0 == 255 indicates empty glyph
 314:u8glib_arm_v1.18.1\src/u8g_font.c ****       */
 315:u8glib_arm_v1.18.1\src/u8g_font.c ****     
 316:u8glib_arm_v1.18.1\src/u8g_font.c ****       tmp = u8g_pgm_read( ((u8g_pgm_uint8_t *)g) + 0 );
 1161              		.loc 1 316 0
 1162 0056 3B68     		ldr	r3, [r7]
 1163 0058 1B78     		ldrb	r3, [r3]
 1164 005a FB73     		strb	r3, [r7, #15]
 317:u8glib_arm_v1.18.1\src/u8g_font.c ****       u8g->glyph_y =  tmp & 15;
 1165              		.loc 1 317 0
ARM GAS  C:\Users\KJA\AppData\Local\Temp\ccevgiJT.s 			page 27


 1166 005c FB7B     		ldrb	r3, [r7, #15]	@ zero_extendqisi2
 1167 005e 03F00F03 		and	r3, r3, #15
 1168 0062 DAB2     		uxtb	r2, r3
 1169 0064 7B68     		ldr	r3, [r7, #4]
 1170 0066 9A77     		strb	r2, [r3, #30]
 318:u8glib_arm_v1.18.1\src/u8g_font.c ****       u8g->glyph_y-=2;
 1171              		.loc 1 318 0
 1172 0068 7B68     		ldr	r3, [r7, #4]
 1173 006a 9B7F     		ldrb	r3, [r3, #30]	@ zero_extendqisi2
 1174 006c DBB2     		uxtb	r3, r3
 1175 006e 023B     		subs	r3, r3, #2
 1176 0070 DBB2     		uxtb	r3, r3
 1177 0072 DAB2     		uxtb	r2, r3
 1178 0074 7B68     		ldr	r3, [r7, #4]
 1179 0076 9A77     		strb	r2, [r3, #30]
 319:u8glib_arm_v1.18.1\src/u8g_font.c ****       tmp >>= 4;
 1180              		.loc 1 319 0
 1181 0078 FB7B     		ldrb	r3, [r7, #15]	@ zero_extendqisi2
 1182 007a 1B09     		lsrs	r3, r3, #4
 1183 007c FB73     		strb	r3, [r7, #15]
 320:u8glib_arm_v1.18.1\src/u8g_font.c ****       u8g->glyph_x =  tmp;
 1184              		.loc 1 320 0
 1185 007e FA7B     		ldrb	r2, [r7, #15]	@ zero_extendqisi2
 1186 0080 7B68     		ldr	r3, [r7, #4]
 1187 0082 5A77     		strb	r2, [r3, #29]
 321:u8glib_arm_v1.18.1\src/u8g_font.c ****     
 322:u8glib_arm_v1.18.1\src/u8g_font.c ****       tmp = u8g_pgm_read( ((u8g_pgm_uint8_t *)g) + 1 );
 1188              		.loc 1 322 0
 1189 0084 3B68     		ldr	r3, [r7]
 1190 0086 5B78     		ldrb	r3, [r3, #1]
 1191 0088 FB73     		strb	r3, [r7, #15]
 323:u8glib_arm_v1.18.1\src/u8g_font.c ****       u8g->glyph_height =  tmp & 15;
 1192              		.loc 1 323 0
 1193 008a FB7B     		ldrb	r3, [r7, #15]
 1194 008c 03F00F03 		and	r3, r3, #15
 1195 0090 DAB2     		uxtb	r2, r3
 1196 0092 7B68     		ldr	r3, [r7, #4]
 1197 0094 83F82020 		strb	r2, [r3, #32]
 324:u8glib_arm_v1.18.1\src/u8g_font.c ****       tmp >>= 4;
 1198              		.loc 1 324 0
 1199 0098 FB7B     		ldrb	r3, [r7, #15]	@ zero_extendqisi2
 1200 009a 1B09     		lsrs	r3, r3, #4
 1201 009c FB73     		strb	r3, [r7, #15]
 325:u8glib_arm_v1.18.1\src/u8g_font.c ****       u8g->glyph_width =  tmp;
 1202              		.loc 1 325 0
 1203 009e 7B68     		ldr	r3, [r7, #4]
 1204 00a0 FA7B     		ldrb	r2, [r7, #15]
 1205 00a2 DA77     		strb	r2, [r3, #31]
 326:u8glib_arm_v1.18.1\src/u8g_font.c ****       
 327:u8glib_arm_v1.18.1\src/u8g_font.c ****       tmp = u8g_pgm_read( ((u8g_pgm_uint8_t *)g) + 2 );
 1206              		.loc 1 327 0
 1207 00a4 3B68     		ldr	r3, [r7]
 1208 00a6 9B78     		ldrb	r3, [r3, #2]
 1209 00a8 FB73     		strb	r3, [r7, #15]
 328:u8glib_arm_v1.18.1\src/u8g_font.c ****       tmp >>= 4;
 1210              		.loc 1 328 0
 1211 00aa FB7B     		ldrb	r3, [r7, #15]	@ zero_extendqisi2
ARM GAS  C:\Users\KJA\AppData\Local\Temp\ccevgiJT.s 			page 28


 1212 00ac 1B09     		lsrs	r3, r3, #4
 1213 00ae FB73     		strb	r3, [r7, #15]
 329:u8glib_arm_v1.18.1\src/u8g_font.c ****       u8g->glyph_dx = tmp;
 1214              		.loc 1 329 0
 1215 00b0 FA7B     		ldrb	r2, [r7, #15]	@ zero_extendqisi2
 1216 00b2 7B68     		ldr	r3, [r7, #4]
 1217 00b4 1A77     		strb	r2, [r3, #28]
 330:u8glib_arm_v1.18.1\src/u8g_font.c ****     
 331:u8glib_arm_v1.18.1\src/u8g_font.c ****       
 332:u8glib_arm_v1.18.1\src/u8g_font.c ****       break;
 1218              		.loc 1 332 0
 1219 00b6 00BF     		nop
 1220              	.L63:
 333:u8glib_arm_v1.18.1\src/u8g_font.c ****   }
 334:u8glib_arm_v1.18.1\src/u8g_font.c **** }
 1221              		.loc 1 334 0
 1222 00b8 1037     		adds	r7, r7, #16
 1223              		.cfi_def_cfa_offset 8
 1224 00ba BD46     		mov	sp, r7
 1225              		.cfi_def_cfa_register 13
 1226              		@ sp needed
 1227 00bc 80BD     		pop	{r7, pc}
 1228              		.cfi_endproc
 1229              	.LFE25:
 1230              		.size	u8g_CopyGlyphDataToCache, .-u8g_CopyGlyphDataToCache
 1231 00be 00BF     		.section	.text.u8g_FillEmptyGlyphCache,"ax",%progbits
 1232              		.align	2
 1233              		.thumb
 1234              		.thumb_func
 1235              		.type	u8g_FillEmptyGlyphCache, %function
 1236              	u8g_FillEmptyGlyphCache:
 1237              	.LFB26:
 335:u8glib_arm_v1.18.1\src/u8g_font.c **** 
 336:u8glib_arm_v1.18.1\src/u8g_font.c **** //void u8g_FillEmptyGlyphCache(u8g_t *u8g) U8G_NOINLINE;
 337:u8glib_arm_v1.18.1\src/u8g_font.c **** static void u8g_FillEmptyGlyphCache(u8g_t *u8g)
 338:u8glib_arm_v1.18.1\src/u8g_font.c **** {
 1238              		.loc 1 338 0
 1239              		.cfi_startproc
 1240              		@ args = 0, pretend = 0, frame = 8
 1241              		@ frame_needed = 1, uses_anonymous_args = 0
 1242              		@ link register save eliminated.
 1243 0000 80B4     		push	{r7}
 1244              		.cfi_def_cfa_offset 4
 1245              		.cfi_offset 7, -4
 1246 0002 83B0     		sub	sp, sp, #12
 1247              		.cfi_def_cfa_offset 16
 1248 0004 00AF     		add	r7, sp, #0
 1249              		.cfi_def_cfa_register 7
 1250 0006 7860     		str	r0, [r7, #4]
 339:u8glib_arm_v1.18.1\src/u8g_font.c ****   u8g->glyph_dx = 0;
 1251              		.loc 1 339 0
 1252 0008 7B68     		ldr	r3, [r7, #4]
 1253 000a 0022     		movs	r2, #0
 1254 000c 1A77     		strb	r2, [r3, #28]
 340:u8glib_arm_v1.18.1\src/u8g_font.c ****   u8g->glyph_width = 0;
 1255              		.loc 1 340 0
 1256 000e 7B68     		ldr	r3, [r7, #4]
ARM GAS  C:\Users\KJA\AppData\Local\Temp\ccevgiJT.s 			page 29


 1257 0010 0022     		movs	r2, #0
 1258 0012 DA77     		strb	r2, [r3, #31]
 341:u8glib_arm_v1.18.1\src/u8g_font.c ****   u8g->glyph_height = 0;
 1259              		.loc 1 341 0
 1260 0014 7B68     		ldr	r3, [r7, #4]
 1261 0016 0022     		movs	r2, #0
 1262 0018 83F82020 		strb	r2, [r3, #32]
 342:u8glib_arm_v1.18.1\src/u8g_font.c ****   u8g->glyph_x = 0;
 1263              		.loc 1 342 0
 1264 001c 7B68     		ldr	r3, [r7, #4]
 1265 001e 0022     		movs	r2, #0
 1266 0020 5A77     		strb	r2, [r3, #29]
 343:u8glib_arm_v1.18.1\src/u8g_font.c ****   u8g->glyph_y = 0;
 1267              		.loc 1 343 0
 1268 0022 7B68     		ldr	r3, [r7, #4]
 1269 0024 0022     		movs	r2, #0
 1270 0026 9A77     		strb	r2, [r3, #30]
 344:u8glib_arm_v1.18.1\src/u8g_font.c **** }
 1271              		.loc 1 344 0
 1272 0028 0C37     		adds	r7, r7, #12
 1273              		.cfi_def_cfa_offset 4
 1274 002a BD46     		mov	sp, r7
 1275              		.cfi_def_cfa_register 13
 1276              		@ sp needed
 1277 002c 5DF8047B 		ldr	r7, [sp], #4
 1278              		.cfi_restore 7
 1279              		.cfi_def_cfa_offset 0
 1280 0030 7047     		bx	lr
 1281              		.cfi_endproc
 1282              	.LFE26:
 1283              		.size	u8g_FillEmptyGlyphCache, .-u8g_FillEmptyGlyphCache
 1284 0032 00BF     		.section	.text.u8g_GetGlyph,"ax",%progbits
 1285              		.align	2
 1286              		.global	u8g_GetGlyph
 1287              		.thumb
 1288              		.thumb_func
 1289              		.type	u8g_GetGlyph, %function
 1290              	u8g_GetGlyph:
 1291              	.LFB27:
 345:u8glib_arm_v1.18.1\src/u8g_font.c **** 
 346:u8glib_arm_v1.18.1\src/u8g_font.c **** /*
 347:u8glib_arm_v1.18.1\src/u8g_font.c ****   Find (with some speed optimization) and return a pointer to the glyph data structure
 348:u8glib_arm_v1.18.1\src/u8g_font.c ****   Also uncompress (format 1) and copy the content of the data structure to the u8g structure
 349:u8glib_arm_v1.18.1\src/u8g_font.c **** */
 350:u8glib_arm_v1.18.1\src/u8g_font.c **** u8g_glyph_t u8g_GetGlyph(u8g_t *u8g, uint8_t requested_encoding)
 351:u8glib_arm_v1.18.1\src/u8g_font.c **** {
 1292              		.loc 1 351 0
 1293              		.cfi_startproc
 1294              		@ args = 0, pretend = 0, frame = 24
 1295              		@ frame_needed = 1, uses_anonymous_args = 0
 1296 0000 80B5     		push	{r7, lr}
 1297              		.cfi_def_cfa_offset 8
 1298              		.cfi_offset 7, -8
 1299              		.cfi_offset 14, -4
 1300 0002 86B0     		sub	sp, sp, #24
 1301              		.cfi_def_cfa_offset 32
 1302 0004 00AF     		add	r7, sp, #0
ARM GAS  C:\Users\KJA\AppData\Local\Temp\ccevgiJT.s 			page 30


 1303              		.cfi_def_cfa_register 7
 1304 0006 7860     		str	r0, [r7, #4]
 1305 0008 0B46     		mov	r3, r1
 1306 000a FB70     		strb	r3, [r7, #3]
 352:u8glib_arm_v1.18.1\src/u8g_font.c ****   uint8_t *p = (uint8_t *)(u8g->font);
 1307              		.loc 1 352 0
 1308 000c 7B68     		ldr	r3, [r7, #4]
 1309 000e 9B68     		ldr	r3, [r3, #8]
 1310 0010 7B61     		str	r3, [r7, #20]
 353:u8glib_arm_v1.18.1\src/u8g_font.c ****   uint8_t font_format = u8g_font_GetFormat(u8g->font);
 1311              		.loc 1 353 0
 1312 0012 7B68     		ldr	r3, [r7, #4]
 1313 0014 9B68     		ldr	r3, [r3, #8]
 1314 0016 1846     		mov	r0, r3
 1315 0018 FFF7FEFF 		bl	u8g_font_GetFormat
 1316 001c 0346     		mov	r3, r0
 1317 001e 3B74     		strb	r3, [r7, #16]
 354:u8glib_arm_v1.18.1\src/u8g_font.c ****   uint8_t data_structure_size = u8g_font_GetFontGlyphStructureSize(u8g->font);
 1318              		.loc 1 354 0
 1319 0020 7B68     		ldr	r3, [r7, #4]
 1320 0022 9B68     		ldr	r3, [r3, #8]
 1321 0024 1846     		mov	r0, r3
 1322 0026 FFF7FEFF 		bl	u8g_font_GetFontGlyphStructureSize
 1323 002a 0346     		mov	r3, r0
 1324 002c FB73     		strb	r3, [r7, #15]
 355:u8glib_arm_v1.18.1\src/u8g_font.c ****   uint8_t start, end;
 356:u8glib_arm_v1.18.1\src/u8g_font.c ****   uint16_t pos;
 357:u8glib_arm_v1.18.1\src/u8g_font.c ****   uint8_t i;
 358:u8glib_arm_v1.18.1\src/u8g_font.c ****   uint8_t mask = 255;
 1325              		.loc 1 358 0
 1326 002e FF23     		movs	r3, #255
 1327 0030 7B74     		strb	r3, [r7, #17]
 359:u8glib_arm_v1.18.1\src/u8g_font.c **** 
 360:u8glib_arm_v1.18.1\src/u8g_font.c ****   if ( font_format == 1 )
 1328              		.loc 1 360 0
 1329 0032 3B7C     		ldrb	r3, [r7, #16]	@ zero_extendqisi2
 1330 0034 012B     		cmp	r3, #1
 1331 0036 01D1     		bne	.L70
 361:u8glib_arm_v1.18.1\src/u8g_font.c ****     mask = 15;
 1332              		.loc 1 361 0
 1333 0038 0F23     		movs	r3, #15
 1334 003a 7B74     		strb	r3, [r7, #17]
 1335              	.L70:
 362:u8glib_arm_v1.18.1\src/u8g_font.c ****   
 363:u8glib_arm_v1.18.1\src/u8g_font.c ****   start = u8g_font_GetFontStartEncoding(u8g->font);
 1336              		.loc 1 363 0
 1337 003c 7B68     		ldr	r3, [r7, #4]
 1338 003e 9B68     		ldr	r3, [r3, #8]
 1339 0040 1846     		mov	r0, r3
 1340 0042 FFF7FEFF 		bl	u8g_font_GetFontStartEncoding
 1341 0046 0346     		mov	r3, r0
 1342 0048 FB74     		strb	r3, [r7, #19]
 364:u8glib_arm_v1.18.1\src/u8g_font.c ****   end = u8g_font_GetFontEndEncoding(u8g->font);
 1343              		.loc 1 364 0
 1344 004a 7B68     		ldr	r3, [r7, #4]
 1345 004c 9B68     		ldr	r3, [r3, #8]
 1346 004e 1846     		mov	r0, r3
ARM GAS  C:\Users\KJA\AppData\Local\Temp\ccevgiJT.s 			page 31


 1347 0050 FFF7FEFF 		bl	u8g_font_GetFontEndEncoding
 1348 0054 0346     		mov	r3, r0
 1349 0056 BB73     		strb	r3, [r7, #14]
 365:u8glib_arm_v1.18.1\src/u8g_font.c **** 
 366:u8glib_arm_v1.18.1\src/u8g_font.c ****   pos = u8g_font_GetEncoding97Pos(u8g->font);
 1350              		.loc 1 366 0
 1351 0058 7B68     		ldr	r3, [r7, #4]
 1352 005a 9B68     		ldr	r3, [r3, #8]
 1353 005c 1846     		mov	r0, r3
 1354 005e FFF7FEFF 		bl	u8g_font_GetEncoding97Pos
 1355 0062 0346     		mov	r3, r0
 1356 0064 BB81     		strh	r3, [r7, #12]	@ movhi
 367:u8glib_arm_v1.18.1\src/u8g_font.c ****   if ( requested_encoding >= 97 && pos > 0 )
 1357              		.loc 1 367 0
 1358 0066 FB78     		ldrb	r3, [r7, #3]	@ zero_extendqisi2
 1359 0068 602B     		cmp	r3, #96
 1360 006a 09D9     		bls	.L71
 1361              		.loc 1 367 0 is_stmt 0 discriminator 1
 1362 006c BB89     		ldrh	r3, [r7, #12]
 1363 006e 002B     		cmp	r3, #0
 1364 0070 06D0     		beq	.L71
 368:u8glib_arm_v1.18.1\src/u8g_font.c ****   {
 369:u8glib_arm_v1.18.1\src/u8g_font.c ****     p+= pos;
 1365              		.loc 1 369 0 is_stmt 1
 1366 0072 BB89     		ldrh	r3, [r7, #12]
 1367 0074 7A69     		ldr	r2, [r7, #20]
 1368 0076 1344     		add	r3, r3, r2
 1369 0078 7B61     		str	r3, [r7, #20]
 370:u8glib_arm_v1.18.1\src/u8g_font.c ****     start = 97;
 1370              		.loc 1 370 0
 1371 007a 6123     		movs	r3, #97
 1372 007c FB74     		strb	r3, [r7, #19]
 1373 007e 16E0     		b	.L72
 1374              	.L71:
 371:u8glib_arm_v1.18.1\src/u8g_font.c ****   }
 372:u8glib_arm_v1.18.1\src/u8g_font.c ****   else 
 373:u8glib_arm_v1.18.1\src/u8g_font.c ****   {
 374:u8glib_arm_v1.18.1\src/u8g_font.c ****     pos = u8g_font_GetEncoding65Pos(u8g->font);
 1375              		.loc 1 374 0
 1376 0080 7B68     		ldr	r3, [r7, #4]
 1377 0082 9B68     		ldr	r3, [r3, #8]
 1378 0084 1846     		mov	r0, r3
 1379 0086 FFF7FEFF 		bl	u8g_font_GetEncoding65Pos
 1380 008a 0346     		mov	r3, r0
 1381 008c BB81     		strh	r3, [r7, #12]	@ movhi
 375:u8glib_arm_v1.18.1\src/u8g_font.c ****     if ( requested_encoding >= 65 && pos > 0 )
 1382              		.loc 1 375 0
 1383 008e FB78     		ldrb	r3, [r7, #3]	@ zero_extendqisi2
 1384 0090 402B     		cmp	r3, #64
 1385 0092 09D9     		bls	.L73
 1386              		.loc 1 375 0 is_stmt 0 discriminator 1
 1387 0094 BB89     		ldrh	r3, [r7, #12]
 1388 0096 002B     		cmp	r3, #0
 1389 0098 06D0     		beq	.L73
 376:u8glib_arm_v1.18.1\src/u8g_font.c ****     {
 377:u8glib_arm_v1.18.1\src/u8g_font.c ****       p+= pos;
 1390              		.loc 1 377 0 is_stmt 1
ARM GAS  C:\Users\KJA\AppData\Local\Temp\ccevgiJT.s 			page 32


 1391 009a BB89     		ldrh	r3, [r7, #12]
 1392 009c 7A69     		ldr	r2, [r7, #20]
 1393 009e 1344     		add	r3, r3, r2
 1394 00a0 7B61     		str	r3, [r7, #20]
 378:u8glib_arm_v1.18.1\src/u8g_font.c ****       start = 65;
 1395              		.loc 1 378 0
 1396 00a2 4123     		movs	r3, #65
 1397 00a4 FB74     		strb	r3, [r7, #19]
 1398 00a6 02E0     		b	.L72
 1399              	.L73:
 379:u8glib_arm_v1.18.1\src/u8g_font.c ****     }
 380:u8glib_arm_v1.18.1\src/u8g_font.c ****     else
 381:u8glib_arm_v1.18.1\src/u8g_font.c ****       p += U8G_FONT_DATA_STRUCT_SIZE;       /* skip font general information */  
 1400              		.loc 1 381 0
 1401 00a8 7B69     		ldr	r3, [r7, #20]
 1402 00aa 1133     		adds	r3, r3, #17
 1403 00ac 7B61     		str	r3, [r7, #20]
 1404              	.L72:
 382:u8glib_arm_v1.18.1\src/u8g_font.c ****   }
 383:u8glib_arm_v1.18.1\src/u8g_font.c ****   
 384:u8glib_arm_v1.18.1\src/u8g_font.c ****   if ( requested_encoding > end )
 1405              		.loc 1 384 0
 1406 00ae FA78     		ldrb	r2, [r7, #3]	@ zero_extendqisi2
 1407 00b0 BB7B     		ldrb	r3, [r7, #14]	@ zero_extendqisi2
 1408 00b2 9A42     		cmp	r2, r3
 1409 00b4 04D9     		bls	.L74
 385:u8glib_arm_v1.18.1\src/u8g_font.c ****   {
 386:u8glib_arm_v1.18.1\src/u8g_font.c ****     u8g_FillEmptyGlyphCache(u8g);
 1410              		.loc 1 386 0
 1411 00b6 7868     		ldr	r0, [r7, #4]
 1412 00b8 FFF7FEFF 		bl	u8g_FillEmptyGlyphCache
 387:u8glib_arm_v1.18.1\src/u8g_font.c ****     return NULL;                      /* not found */
 1413              		.loc 1 387 0
 1414 00bc 0023     		movs	r3, #0
 1415 00be 32E0     		b	.L75
 1416              	.L74:
 388:u8glib_arm_v1.18.1\src/u8g_font.c ****   }
 389:u8glib_arm_v1.18.1\src/u8g_font.c ****   
 390:u8glib_arm_v1.18.1\src/u8g_font.c ****   i = start;
 1417              		.loc 1 390 0
 1418 00c0 FB7C     		ldrb	r3, [r7, #19]
 1419 00c2 BB74     		strb	r3, [r7, #18]
 391:u8glib_arm_v1.18.1\src/u8g_font.c ****   if ( i <= end )
 1420              		.loc 1 391 0
 1421 00c4 BA7C     		ldrb	r2, [r7, #18]	@ zero_extendqisi2
 1422 00c6 BB7B     		ldrb	r3, [r7, #14]	@ zero_extendqisi2
 1423 00c8 9A42     		cmp	r2, r3
 1424 00ca 28D8     		bhi	.L76
 1425              	.L81:
 392:u8glib_arm_v1.18.1\src/u8g_font.c ****   {
 393:u8glib_arm_v1.18.1\src/u8g_font.c ****     for(;;)
 394:u8glib_arm_v1.18.1\src/u8g_font.c ****     {
 395:u8glib_arm_v1.18.1\src/u8g_font.c ****       if ( u8g_pgm_read((u8g_pgm_uint8_t *)(p)) == 255 )
 1426              		.loc 1 395 0
 1427 00cc 7B69     		ldr	r3, [r7, #20]
 1428 00ce 1B78     		ldrb	r3, [r3]	@ zero_extendqisi2
 1429 00d0 FF2B     		cmp	r3, #255
ARM GAS  C:\Users\KJA\AppData\Local\Temp\ccevgiJT.s 			page 33


 1430 00d2 03D1     		bne	.L77
 396:u8glib_arm_v1.18.1\src/u8g_font.c ****       {
 397:u8glib_arm_v1.18.1\src/u8g_font.c ****         p += 1;
 1431              		.loc 1 397 0
 1432 00d4 7B69     		ldr	r3, [r7, #20]
 1433 00d6 0133     		adds	r3, r3, #1
 1434 00d8 7B61     		str	r3, [r7, #20]
 1435 00da 17E0     		b	.L78
 1436              	.L77:
 398:u8glib_arm_v1.18.1\src/u8g_font.c ****       }
 399:u8glib_arm_v1.18.1\src/u8g_font.c ****       else
 400:u8glib_arm_v1.18.1\src/u8g_font.c ****       {
 401:u8glib_arm_v1.18.1\src/u8g_font.c ****         if ( i == requested_encoding )
 1437              		.loc 1 401 0
 1438 00dc BA7C     		ldrb	r2, [r7, #18]	@ zero_extendqisi2
 1439 00de FB78     		ldrb	r3, [r7, #3]	@ zero_extendqisi2
 1440 00e0 9A42     		cmp	r2, r3
 1441 00e2 05D1     		bne	.L79
 402:u8glib_arm_v1.18.1\src/u8g_font.c ****         {
 403:u8glib_arm_v1.18.1\src/u8g_font.c ****           u8g_CopyGlyphDataToCache(u8g, p);
 1442              		.loc 1 403 0
 1443 00e4 7868     		ldr	r0, [r7, #4]
 1444 00e6 7969     		ldr	r1, [r7, #20]
 1445 00e8 FFF7FEFF 		bl	u8g_CopyGlyphDataToCache
 404:u8glib_arm_v1.18.1\src/u8g_font.c ****           return p;
 1446              		.loc 1 404 0
 1447 00ec 7B69     		ldr	r3, [r7, #20]
 1448 00ee 1AE0     		b	.L75
 1449              	.L79:
 405:u8glib_arm_v1.18.1\src/u8g_font.c ****         }
 406:u8glib_arm_v1.18.1\src/u8g_font.c ****         p += u8g_pgm_read( ((u8g_pgm_uint8_t *)(p)) + 2 ) & mask;
 1450              		.loc 1 406 0
 1451 00f0 7B69     		ldr	r3, [r7, #20]
 1452 00f2 0233     		adds	r3, r3, #2
 1453 00f4 1A78     		ldrb	r2, [r3]	@ zero_extendqisi2
 1454 00f6 7B7C     		ldrb	r3, [r7, #17]
 1455 00f8 1340     		ands	r3, r3, r2
 1456 00fa DBB2     		uxtb	r3, r3
 1457 00fc 1A46     		mov	r2, r3
 1458 00fe 7B69     		ldr	r3, [r7, #20]
 1459 0100 1344     		add	r3, r3, r2
 1460 0102 7B61     		str	r3, [r7, #20]
 407:u8glib_arm_v1.18.1\src/u8g_font.c ****         p += data_structure_size;
 1461              		.loc 1 407 0
 1462 0104 FB7B     		ldrb	r3, [r7, #15]	@ zero_extendqisi2
 1463 0106 7A69     		ldr	r2, [r7, #20]
 1464 0108 1344     		add	r3, r3, r2
 1465 010a 7B61     		str	r3, [r7, #20]
 1466              	.L78:
 408:u8glib_arm_v1.18.1\src/u8g_font.c ****       }
 409:u8glib_arm_v1.18.1\src/u8g_font.c ****       if ( i == end )
 1467              		.loc 1 409 0
 1468 010c BA7C     		ldrb	r2, [r7, #18]	@ zero_extendqisi2
 1469 010e BB7B     		ldrb	r3, [r7, #14]	@ zero_extendqisi2
 1470 0110 9A42     		cmp	r2, r3
 1471 0112 00D1     		bne	.L80
 410:u8glib_arm_v1.18.1\src/u8g_font.c ****         break;
ARM GAS  C:\Users\KJA\AppData\Local\Temp\ccevgiJT.s 			page 34


 1472              		.loc 1 410 0
 1473 0114 03E0     		b	.L76
 1474              	.L80:
 411:u8glib_arm_v1.18.1\src/u8g_font.c ****       i++;
 1475              		.loc 1 411 0
 1476 0116 BB7C     		ldrb	r3, [r7, #18]	@ zero_extendqisi2
 1477 0118 0133     		adds	r3, r3, #1
 1478 011a BB74     		strb	r3, [r7, #18]
 412:u8glib_arm_v1.18.1\src/u8g_font.c ****     }
 1479              		.loc 1 412 0
 1480 011c D6E7     		b	.L81
 1481              	.L76:
 413:u8glib_arm_v1.18.1\src/u8g_font.c ****   }
 414:u8glib_arm_v1.18.1\src/u8g_font.c ****   
 415:u8glib_arm_v1.18.1\src/u8g_font.c ****   u8g_FillEmptyGlyphCache(u8g);
 1482              		.loc 1 415 0
 1483 011e 7868     		ldr	r0, [r7, #4]
 1484 0120 FFF7FEFF 		bl	u8g_FillEmptyGlyphCache
 416:u8glib_arm_v1.18.1\src/u8g_font.c ****     
 417:u8glib_arm_v1.18.1\src/u8g_font.c ****   return NULL;
 1485              		.loc 1 417 0
 1486 0124 0023     		movs	r3, #0
 1487              	.L75:
 418:u8glib_arm_v1.18.1\src/u8g_font.c **** }
 1488              		.loc 1 418 0
 1489 0126 1846     		mov	r0, r3
 1490 0128 1837     		adds	r7, r7, #24
 1491              		.cfi_def_cfa_offset 8
 1492 012a BD46     		mov	sp, r7
 1493              		.cfi_def_cfa_register 13
 1494              		@ sp needed
 1495 012c 80BD     		pop	{r7, pc}
 1496              		.cfi_endproc
 1497              	.LFE27:
 1498              		.size	u8g_GetGlyph, .-u8g_GetGlyph
 1499 012e 00BF     		.section	.text.u8g_IsGlyph,"ax",%progbits
 1500              		.align	2
 1501              		.global	u8g_IsGlyph
 1502              		.thumb
 1503              		.thumb_func
 1504              		.type	u8g_IsGlyph, %function
 1505              	u8g_IsGlyph:
 1506              	.LFB28:
 419:u8glib_arm_v1.18.1\src/u8g_font.c **** 
 420:u8glib_arm_v1.18.1\src/u8g_font.c **** uint8_t u8g_IsGlyph(u8g_t *u8g, uint8_t requested_encoding)
 421:u8glib_arm_v1.18.1\src/u8g_font.c **** {
 1507              		.loc 1 421 0
 1508              		.cfi_startproc
 1509              		@ args = 0, pretend = 0, frame = 8
 1510              		@ frame_needed = 1, uses_anonymous_args = 0
 1511 0000 80B5     		push	{r7, lr}
 1512              		.cfi_def_cfa_offset 8
 1513              		.cfi_offset 7, -8
 1514              		.cfi_offset 14, -4
 1515 0002 82B0     		sub	sp, sp, #8
 1516              		.cfi_def_cfa_offset 16
 1517 0004 00AF     		add	r7, sp, #0
ARM GAS  C:\Users\KJA\AppData\Local\Temp\ccevgiJT.s 			page 35


 1518              		.cfi_def_cfa_register 7
 1519 0006 7860     		str	r0, [r7, #4]
 1520 0008 0B46     		mov	r3, r1
 1521 000a FB70     		strb	r3, [r7, #3]
 422:u8glib_arm_v1.18.1\src/u8g_font.c ****   if ( u8g_GetGlyph(u8g, requested_encoding) != NULL )
 1522              		.loc 1 422 0
 1523 000c FB78     		ldrb	r3, [r7, #3]	@ zero_extendqisi2
 1524 000e 7868     		ldr	r0, [r7, #4]
 1525 0010 1946     		mov	r1, r3
 1526 0012 FFF7FEFF 		bl	u8g_GetGlyph
 1527 0016 0346     		mov	r3, r0
 1528 0018 002B     		cmp	r3, #0
 1529 001a 01D0     		beq	.L83
 423:u8glib_arm_v1.18.1\src/u8g_font.c ****     return 1;
 1530              		.loc 1 423 0
 1531 001c 0123     		movs	r3, #1
 1532 001e 00E0     		b	.L84
 1533              	.L83:
 424:u8glib_arm_v1.18.1\src/u8g_font.c ****   return 0;
 1534              		.loc 1 424 0
 1535 0020 0023     		movs	r3, #0
 1536              	.L84:
 425:u8glib_arm_v1.18.1\src/u8g_font.c **** }
 1537              		.loc 1 425 0
 1538 0022 1846     		mov	r0, r3
 1539 0024 0837     		adds	r7, r7, #8
 1540              		.cfi_def_cfa_offset 8
 1541 0026 BD46     		mov	sp, r7
 1542              		.cfi_def_cfa_register 13
 1543              		@ sp needed
 1544 0028 80BD     		pop	{r7, pc}
 1545              		.cfi_endproc
 1546              	.LFE28:
 1547              		.size	u8g_IsGlyph, .-u8g_IsGlyph
 1548 002a 00BF     		.section	.text.u8g_GetGlyphDeltaX,"ax",%progbits
 1549              		.align	2
 1550              		.global	u8g_GetGlyphDeltaX
 1551              		.thumb
 1552              		.thumb_func
 1553              		.type	u8g_GetGlyphDeltaX, %function
 1554              	u8g_GetGlyphDeltaX:
 1555              	.LFB29:
 426:u8glib_arm_v1.18.1\src/u8g_font.c **** 
 427:u8glib_arm_v1.18.1\src/u8g_font.c **** int8_t u8g_GetGlyphDeltaX(u8g_t *u8g, uint8_t requested_encoding)
 428:u8glib_arm_v1.18.1\src/u8g_font.c **** {
 1556              		.loc 1 428 0
 1557              		.cfi_startproc
 1558              		@ args = 0, pretend = 0, frame = 8
 1559              		@ frame_needed = 1, uses_anonymous_args = 0
 1560 0000 80B5     		push	{r7, lr}
 1561              		.cfi_def_cfa_offset 8
 1562              		.cfi_offset 7, -8
 1563              		.cfi_offset 14, -4
 1564 0002 82B0     		sub	sp, sp, #8
 1565              		.cfi_def_cfa_offset 16
 1566 0004 00AF     		add	r7, sp, #0
 1567              		.cfi_def_cfa_register 7
ARM GAS  C:\Users\KJA\AppData\Local\Temp\ccevgiJT.s 			page 36


 1568 0006 7860     		str	r0, [r7, #4]
 1569 0008 0B46     		mov	r3, r1
 1570 000a FB70     		strb	r3, [r7, #3]
 429:u8glib_arm_v1.18.1\src/u8g_font.c ****   if ( u8g_GetGlyph(u8g, requested_encoding) == NULL )
 1571              		.loc 1 429 0
 1572 000c FB78     		ldrb	r3, [r7, #3]	@ zero_extendqisi2
 1573 000e 7868     		ldr	r0, [r7, #4]
 1574 0010 1946     		mov	r1, r3
 1575 0012 FFF7FEFF 		bl	u8g_GetGlyph
 1576 0016 0346     		mov	r3, r0
 1577 0018 002B     		cmp	r3, #0
 1578 001a 01D1     		bne	.L86
 430:u8glib_arm_v1.18.1\src/u8g_font.c ****     return 0;  /* should never happen, so return something */
 1579              		.loc 1 430 0
 1580 001c 0023     		movs	r3, #0
 1581 001e 01E0     		b	.L87
 1582              	.L86:
 431:u8glib_arm_v1.18.1\src/u8g_font.c ****   return u8g->glyph_dx;
 1583              		.loc 1 431 0
 1584 0020 7B68     		ldr	r3, [r7, #4]
 1585 0022 1B7F     		ldrb	r3, [r3, #28]	@ zero_extendqisi2
 1586              	.L87:
 1587 0024 5BB2     		sxtb	r3, r3
 432:u8glib_arm_v1.18.1\src/u8g_font.c **** }
 1588              		.loc 1 432 0
 1589 0026 1846     		mov	r0, r3
 1590 0028 0837     		adds	r7, r7, #8
 1591              		.cfi_def_cfa_offset 8
 1592 002a BD46     		mov	sp, r7
 1593              		.cfi_def_cfa_register 13
 1594              		@ sp needed
 1595 002c 80BD     		pop	{r7, pc}
 1596              		.cfi_endproc
 1597              	.LFE29:
 1598              		.size	u8g_GetGlyphDeltaX, .-u8g_GetGlyphDeltaX
 1599 002e 00BF     		.section	.text.u8g_draw_glyph,"ax",%progbits
 1600              		.align	2
 1601              		.global	u8g_draw_glyph
 1602              		.thumb
 1603              		.thumb_func
 1604              		.type	u8g_draw_glyph, %function
 1605              	u8g_draw_glyph:
 1606              	.LFB30:
 433:u8glib_arm_v1.18.1\src/u8g_font.c **** 
 434:u8glib_arm_v1.18.1\src/u8g_font.c **** 
 435:u8glib_arm_v1.18.1\src/u8g_font.c **** /*========================================================================*/
 436:u8glib_arm_v1.18.1\src/u8g_font.c **** /* glyph drawing procedures */
 437:u8glib_arm_v1.18.1\src/u8g_font.c **** 
 438:u8glib_arm_v1.18.1\src/u8g_font.c **** #ifdef OBSOLETE
 439:u8glib_arm_v1.18.1\src/u8g_font.c **** /*
 440:u8glib_arm_v1.18.1\src/u8g_font.c ****   Draw a glyph
 441:u8glib_arm_v1.18.1\src/u8g_font.c ****   x,y: left baseline position of the glyph
 442:u8glib_arm_v1.18.1\src/u8g_font.c **** */
 443:u8glib_arm_v1.18.1\src/u8g_font.c **** int8_t u8g_DrawGlyphDir(u8g_t *u8g, u8g_uint_t x, u8g_uint_t y, uint8_t dir, uint8_t encoding)
 444:u8glib_arm_v1.18.1\src/u8g_font.c **** {
 445:u8glib_arm_v1.18.1\src/u8g_font.c ****   u8g_glyph_t g;
 446:u8glib_arm_v1.18.1\src/u8g_font.c ****   uint8_t w, h, i, j;
ARM GAS  C:\Users\KJA\AppData\Local\Temp\ccevgiJT.s 			page 37


 447:u8glib_arm_v1.18.1\src/u8g_font.c ****   const u8g_pgm_uint8_t *data;
 448:u8glib_arm_v1.18.1\src/u8g_font.c ****   uint8_t bytes_per_line;
 449:u8glib_arm_v1.18.1\src/u8g_font.c ****   u8g_uint_t ix, iy;
 450:u8glib_arm_v1.18.1\src/u8g_font.c **** 
 451:u8glib_arm_v1.18.1\src/u8g_font.c ****   g = u8g_GetGlyph(u8g, encoding);
 452:u8glib_arm_v1.18.1\src/u8g_font.c ****   if ( g == NULL  )
 453:u8glib_arm_v1.18.1\src/u8g_font.c ****     return 0;
 454:u8glib_arm_v1.18.1\src/u8g_font.c ****   w = u8g->glyph_width;
 455:u8glib_arm_v1.18.1\src/u8g_font.c ****   h = u8g->glyph_height;
 456:u8glib_arm_v1.18.1\src/u8g_font.c **** 
 457:u8glib_arm_v1.18.1\src/u8g_font.c ****   bytes_per_line = w;
 458:u8glib_arm_v1.18.1\src/u8g_font.c ****   bytes_per_line += 7;
 459:u8glib_arm_v1.18.1\src/u8g_font.c ****   bytes_per_line /= 8;
 460:u8glib_arm_v1.18.1\src/u8g_font.c ****   
 461:u8glib_arm_v1.18.1\src/u8g_font.c ****   data = u8g_font_GetGlyphDataStart(u8g->font, g);
 462:u8glib_arm_v1.18.1\src/u8g_font.c **** 
 463:u8glib_arm_v1.18.1\src/u8g_font.c ****   switch(dir)
 464:u8glib_arm_v1.18.1\src/u8g_font.c ****   {
 465:u8glib_arm_v1.18.1\src/u8g_font.c ****     case 0:
 466:u8glib_arm_v1.18.1\src/u8g_font.c ****       x += u8g->glyph_x;
 467:u8glib_arm_v1.18.1\src/u8g_font.c ****       y -= u8g->glyph_y;
 468:u8glib_arm_v1.18.1\src/u8g_font.c ****       y--;
 469:u8glib_arm_v1.18.1\src/u8g_font.c ****       //u8g_DrawFrame(u8g, x, y-h+1, w, h);
 470:u8glib_arm_v1.18.1\src/u8g_font.c ****       if ( u8g_IsBBXIntersection(u8g, x, y-h+1, w, h) == 0 )
 471:u8glib_arm_v1.18.1\src/u8g_font.c ****         return u8g->glyph_dx;
 472:u8glib_arm_v1.18.1\src/u8g_font.c ****       
 473:u8glib_arm_v1.18.1\src/u8g_font.c ****       iy = y;
 474:u8glib_arm_v1.18.1\src/u8g_font.c ****       iy -= h;
 475:u8glib_arm_v1.18.1\src/u8g_font.c ****       iy++;
 476:u8glib_arm_v1.18.1\src/u8g_font.c ****       
 477:u8glib_arm_v1.18.1\src/u8g_font.c ****       for( j = 0; j < h; j++ )
 478:u8glib_arm_v1.18.1\src/u8g_font.c ****       {
 479:u8glib_arm_v1.18.1\src/u8g_font.c ****         ix = x;
 480:u8glib_arm_v1.18.1\src/u8g_font.c ****         for( i = 0; i < bytes_per_line; i++ )
 481:u8glib_arm_v1.18.1\src/u8g_font.c ****         {
 482:u8glib_arm_v1.18.1\src/u8g_font.c ****           u8g_Draw8Pixel(u8g, ix, iy, dir, u8g_pgm_read(data));
 483:u8glib_arm_v1.18.1\src/u8g_font.c ****           data++;
 484:u8glib_arm_v1.18.1\src/u8g_font.c ****           ix+=8;
 485:u8glib_arm_v1.18.1\src/u8g_font.c ****         }
 486:u8glib_arm_v1.18.1\src/u8g_font.c ****         iy++;
 487:u8glib_arm_v1.18.1\src/u8g_font.c ****       }
 488:u8glib_arm_v1.18.1\src/u8g_font.c ****       break;
 489:u8glib_arm_v1.18.1\src/u8g_font.c ****     case 1:
 490:u8glib_arm_v1.18.1\src/u8g_font.c ****       x += u8g->glyph_y;
 491:u8glib_arm_v1.18.1\src/u8g_font.c ****       x++;
 492:u8glib_arm_v1.18.1\src/u8g_font.c ****       y += u8g->glyph_x;
 493:u8glib_arm_v1.18.1\src/u8g_font.c ****       //printf("enc %d, dir %d, x %d, y %d, w %d, h %d\n", encoding, dir, x, y, w, h);
 494:u8glib_arm_v1.18.1\src/u8g_font.c ****       //u8g_DrawFrame(u8g, x, y, h, w);
 495:u8glib_arm_v1.18.1\src/u8g_font.c ****       if ( u8g_IsBBXIntersection(u8g, x, y, h, w) == 0 )
 496:u8glib_arm_v1.18.1\src/u8g_font.c ****         return u8g->glyph_dx;
 497:u8glib_arm_v1.18.1\src/u8g_font.c ****       
 498:u8glib_arm_v1.18.1\src/u8g_font.c ****       ix = x;
 499:u8glib_arm_v1.18.1\src/u8g_font.c ****       ix += h;
 500:u8glib_arm_v1.18.1\src/u8g_font.c ****       ix--;
 501:u8glib_arm_v1.18.1\src/u8g_font.c ****       for( j = 0; j < h; j++ )
 502:u8glib_arm_v1.18.1\src/u8g_font.c ****       {
 503:u8glib_arm_v1.18.1\src/u8g_font.c ****         iy = y;
ARM GAS  C:\Users\KJA\AppData\Local\Temp\ccevgiJT.s 			page 38


 504:u8glib_arm_v1.18.1\src/u8g_font.c ****         for( i = 0; i < bytes_per_line; i++ )
 505:u8glib_arm_v1.18.1\src/u8g_font.c ****         {
 506:u8glib_arm_v1.18.1\src/u8g_font.c ****           u8g_Draw8Pixel(u8g, ix, iy, dir, u8g_pgm_read(data));
 507:u8glib_arm_v1.18.1\src/u8g_font.c ****           data++;
 508:u8glib_arm_v1.18.1\src/u8g_font.c ****           iy+=8;
 509:u8glib_arm_v1.18.1\src/u8g_font.c ****         }
 510:u8glib_arm_v1.18.1\src/u8g_font.c ****         ix--;
 511:u8glib_arm_v1.18.1\src/u8g_font.c ****       }
 512:u8glib_arm_v1.18.1\src/u8g_font.c ****       break;
 513:u8glib_arm_v1.18.1\src/u8g_font.c ****     case 2:
 514:u8glib_arm_v1.18.1\src/u8g_font.c ****       x -= u8g->glyph_x;
 515:u8glib_arm_v1.18.1\src/u8g_font.c ****       y += u8g->glyph_y;
 516:u8glib_arm_v1.18.1\src/u8g_font.c ****       y++;
 517:u8glib_arm_v1.18.1\src/u8g_font.c ****       if ( u8g_IsBBXIntersection(u8g, x-w-1, y, w, h) == 0 )
 518:u8glib_arm_v1.18.1\src/u8g_font.c ****         return u8g->glyph_dx;
 519:u8glib_arm_v1.18.1\src/u8g_font.c ****       
 520:u8glib_arm_v1.18.1\src/u8g_font.c ****       iy = y;
 521:u8glib_arm_v1.18.1\src/u8g_font.c ****       iy += h;
 522:u8glib_arm_v1.18.1\src/u8g_font.c ****       iy--;
 523:u8glib_arm_v1.18.1\src/u8g_font.c ****       for( j = 0; j < h; j++ )
 524:u8glib_arm_v1.18.1\src/u8g_font.c ****       {
 525:u8glib_arm_v1.18.1\src/u8g_font.c ****         ix = x;
 526:u8glib_arm_v1.18.1\src/u8g_font.c ****         for( i = 0; i < bytes_per_line; i++ )
 527:u8glib_arm_v1.18.1\src/u8g_font.c ****         {
 528:u8glib_arm_v1.18.1\src/u8g_font.c ****           u8g_Draw8Pixel(u8g, ix, iy, dir, u8g_pgm_read(data));
 529:u8glib_arm_v1.18.1\src/u8g_font.c ****           data++;
 530:u8glib_arm_v1.18.1\src/u8g_font.c ****           ix-=8;
 531:u8glib_arm_v1.18.1\src/u8g_font.c ****         }
 532:u8glib_arm_v1.18.1\src/u8g_font.c ****         iy--;
 533:u8glib_arm_v1.18.1\src/u8g_font.c ****       }
 534:u8glib_arm_v1.18.1\src/u8g_font.c ****       break;
 535:u8glib_arm_v1.18.1\src/u8g_font.c ****     case 3:
 536:u8glib_arm_v1.18.1\src/u8g_font.c ****       x -= u8g->glyph_y;
 537:u8glib_arm_v1.18.1\src/u8g_font.c ****       x--;
 538:u8glib_arm_v1.18.1\src/u8g_font.c ****       y -= u8g->glyph_x;
 539:u8glib_arm_v1.18.1\src/u8g_font.c ****       
 540:u8glib_arm_v1.18.1\src/u8g_font.c ****       if ( u8g_IsBBXIntersection(u8g, x-h-1, y-w-1, h, w) == 0 )
 541:u8glib_arm_v1.18.1\src/u8g_font.c ****         return u8g->glyph_dx;
 542:u8glib_arm_v1.18.1\src/u8g_font.c ****       
 543:u8glib_arm_v1.18.1\src/u8g_font.c ****       ix = x;
 544:u8glib_arm_v1.18.1\src/u8g_font.c ****       ix -= h;
 545:u8glib_arm_v1.18.1\src/u8g_font.c ****       ix++;
 546:u8glib_arm_v1.18.1\src/u8g_font.c ****       
 547:u8glib_arm_v1.18.1\src/u8g_font.c ****       for( j = 0; j < h; j++ )
 548:u8glib_arm_v1.18.1\src/u8g_font.c ****       {
 549:u8glib_arm_v1.18.1\src/u8g_font.c ****         iy = y;
 550:u8glib_arm_v1.18.1\src/u8g_font.c ****         for( i = 0; i < bytes_per_line; i++ )
 551:u8glib_arm_v1.18.1\src/u8g_font.c ****         {
 552:u8glib_arm_v1.18.1\src/u8g_font.c ****           u8g_Draw8Pixel(u8g, ix, iy, dir, u8g_pgm_read(data));
 553:u8glib_arm_v1.18.1\src/u8g_font.c ****           data++;
 554:u8glib_arm_v1.18.1\src/u8g_font.c ****           iy-=8;
 555:u8glib_arm_v1.18.1\src/u8g_font.c ****         }
 556:u8glib_arm_v1.18.1\src/u8g_font.c ****         ix++;
 557:u8glib_arm_v1.18.1\src/u8g_font.c ****       }
 558:u8glib_arm_v1.18.1\src/u8g_font.c ****       break;    
 559:u8glib_arm_v1.18.1\src/u8g_font.c ****   }
 560:u8glib_arm_v1.18.1\src/u8g_font.c ****   return u8g->glyph_dx;
ARM GAS  C:\Users\KJA\AppData\Local\Temp\ccevgiJT.s 			page 39


 561:u8glib_arm_v1.18.1\src/u8g_font.c **** }
 562:u8glib_arm_v1.18.1\src/u8g_font.c **** #endif
 563:u8glib_arm_v1.18.1\src/u8g_font.c **** 
 564:u8glib_arm_v1.18.1\src/u8g_font.c **** int8_t u8g_draw_glyph(u8g_t *u8g, u8g_uint_t x, u8g_uint_t y, uint8_t encoding)
 565:u8glib_arm_v1.18.1\src/u8g_font.c **** {
 1607              		.loc 1 565 0
 1608              		.cfi_startproc
 1609              		@ args = 0, pretend = 0, frame = 24
 1610              		@ frame_needed = 1, uses_anonymous_args = 0
 1611 0000 90B5     		push	{r4, r7, lr}
 1612              		.cfi_def_cfa_offset 12
 1613              		.cfi_offset 4, -12
 1614              		.cfi_offset 7, -8
 1615              		.cfi_offset 14, -4
 1616 0002 89B0     		sub	sp, sp, #36
 1617              		.cfi_def_cfa_offset 48
 1618 0004 02AF     		add	r7, sp, #8
 1619              		.cfi_def_cfa 7, 40
 1620 0006 7860     		str	r0, [r7, #4]
 1621 0008 0846     		mov	r0, r1
 1622 000a 1146     		mov	r1, r2
 1623 000c 1A46     		mov	r2, r3
 1624 000e 0346     		mov	r3, r0
 1625 0010 FB70     		strb	r3, [r7, #3]
 1626 0012 0B46     		mov	r3, r1
 1627 0014 BB70     		strb	r3, [r7, #2]
 1628 0016 1346     		mov	r3, r2
 1629 0018 7B70     		strb	r3, [r7, #1]
 1630              	.LBB2:
 566:u8glib_arm_v1.18.1\src/u8g_font.c ****   const u8g_pgm_uint8_t *data;
 567:u8glib_arm_v1.18.1\src/u8g_font.c ****   uint8_t w, h;
 568:u8glib_arm_v1.18.1\src/u8g_font.c ****   uint8_t i, j;
 569:u8glib_arm_v1.18.1\src/u8g_font.c ****   u8g_uint_t ix, iy;
 570:u8glib_arm_v1.18.1\src/u8g_font.c **** 
 571:u8glib_arm_v1.18.1\src/u8g_font.c ****   {
 572:u8glib_arm_v1.18.1\src/u8g_font.c ****     u8g_glyph_t g = u8g_GetGlyph(u8g, encoding);
 1631              		.loc 1 572 0
 1632 001a 7B78     		ldrb	r3, [r7, #1]	@ zero_extendqisi2
 1633 001c 7868     		ldr	r0, [r7, #4]
 1634 001e 1946     		mov	r1, r3
 1635 0020 FFF7FEFF 		bl	u8g_GetGlyph
 1636 0024 F860     		str	r0, [r7, #12]
 573:u8glib_arm_v1.18.1\src/u8g_font.c ****     if ( g == NULL  )
 1637              		.loc 1 573 0
 1638 0026 FB68     		ldr	r3, [r7, #12]
 1639 0028 002B     		cmp	r3, #0
 1640 002a 01D1     		bne	.L89
 574:u8glib_arm_v1.18.1\src/u8g_font.c ****       return 0;
 1641              		.loc 1 574 0
 1642 002c 0023     		movs	r3, #0
 1643 002e 69E0     		b	.L90
 1644              	.L89:
 575:u8glib_arm_v1.18.1\src/u8g_font.c ****     data = u8g_font_GetGlyphDataStart(u8g->font, g);
 1645              		.loc 1 575 0
 1646 0030 7B68     		ldr	r3, [r7, #4]
 1647 0032 9B68     		ldr	r3, [r3, #8]
 1648 0034 1846     		mov	r0, r3
ARM GAS  C:\Users\KJA\AppData\Local\Temp\ccevgiJT.s 			page 40


 1649 0036 F968     		ldr	r1, [r7, #12]
 1650 0038 FFF7FEFF 		bl	u8g_font_GetGlyphDataStart
 1651 003c 7861     		str	r0, [r7, #20]
 1652              	.LBE2:
 576:u8glib_arm_v1.18.1\src/u8g_font.c ****   }
 577:u8glib_arm_v1.18.1\src/u8g_font.c ****   
 578:u8glib_arm_v1.18.1\src/u8g_font.c ****   w = u8g->glyph_width;
 1653              		.loc 1 578 0
 1654 003e 7B68     		ldr	r3, [r7, #4]
 1655 0040 DB7F     		ldrb	r3, [r3, #31]
 1656 0042 FB72     		strb	r3, [r7, #11]
 579:u8glib_arm_v1.18.1\src/u8g_font.c ****   h = u8g->glyph_height;
 1657              		.loc 1 579 0
 1658 0044 7B68     		ldr	r3, [r7, #4]
 1659 0046 93F82030 		ldrb	r3, [r3, #32]
 1660 004a BB72     		strb	r3, [r7, #10]
 580:u8glib_arm_v1.18.1\src/u8g_font.c ****   
 581:u8glib_arm_v1.18.1\src/u8g_font.c ****   x += u8g->glyph_x;
 1661              		.loc 1 581 0
 1662 004c 7B68     		ldr	r3, [r7, #4]
 1663 004e 5B7F     		ldrb	r3, [r3, #29]	@ zero_extendqisi2
 1664 0050 DAB2     		uxtb	r2, r3
 1665 0052 FB78     		ldrb	r3, [r7, #3]
 1666 0054 1344     		add	r3, r3, r2
 1667 0056 FB70     		strb	r3, [r7, #3]
 582:u8glib_arm_v1.18.1\src/u8g_font.c ****   y -= u8g->glyph_y;
 1668              		.loc 1 582 0
 1669 0058 7B68     		ldr	r3, [r7, #4]
 1670 005a 9B7F     		ldrb	r3, [r3, #30]	@ zero_extendqisi2
 1671 005c DBB2     		uxtb	r3, r3
 1672 005e BA78     		ldrb	r2, [r7, #2]
 1673 0060 D31A     		subs	r3, r2, r3
 1674 0062 BB70     		strb	r3, [r7, #2]
 583:u8glib_arm_v1.18.1\src/u8g_font.c ****   y--;
 1675              		.loc 1 583 0
 1676 0064 BB78     		ldrb	r3, [r7, #2]	@ zero_extendqisi2
 1677 0066 013B     		subs	r3, r3, #1
 1678 0068 BB70     		strb	r3, [r7, #2]
 584:u8glib_arm_v1.18.1\src/u8g_font.c ****   
 585:u8glib_arm_v1.18.1\src/u8g_font.c ****   if ( u8g_IsBBXIntersection(u8g, x, y-h+1, w, h) == 0 )
 1679              		.loc 1 585 0
 1680 006a BA78     		ldrb	r2, [r7, #2]
 1681 006c BB7A     		ldrb	r3, [r7, #10]
 1682 006e D31A     		subs	r3, r2, r3
 1683 0070 DBB2     		uxtb	r3, r3
 1684 0072 0133     		adds	r3, r3, #1
 1685 0074 DAB2     		uxtb	r2, r3
 1686 0076 F978     		ldrb	r1, [r7, #3]	@ zero_extendqisi2
 1687 0078 FC7A     		ldrb	r4, [r7, #11]	@ zero_extendqisi2
 1688 007a BB7A     		ldrb	r3, [r7, #10]	@ zero_extendqisi2
 1689 007c 0093     		str	r3, [sp]
 1690 007e 7868     		ldr	r0, [r7, #4]
 1691 0080 2346     		mov	r3, r4
 1692 0082 FFF7FEFF 		bl	u8g_IsBBXIntersection
 1693 0086 0346     		mov	r3, r0
 1694 0088 002B     		cmp	r3, #0
 1695 008a 02D1     		bne	.L91
ARM GAS  C:\Users\KJA\AppData\Local\Temp\ccevgiJT.s 			page 41


 586:u8glib_arm_v1.18.1\src/u8g_font.c ****     return u8g->glyph_dx;
 1696              		.loc 1 586 0
 1697 008c 7B68     		ldr	r3, [r7, #4]
 1698 008e 1B7F     		ldrb	r3, [r3, #28]	@ zero_extendqisi2
 1699 0090 38E0     		b	.L90
 1700              	.L91:
 587:u8glib_arm_v1.18.1\src/u8g_font.c **** 
 588:u8glib_arm_v1.18.1\src/u8g_font.c ****   /* now, w is reused as bytes per line */
 589:u8glib_arm_v1.18.1\src/u8g_font.c ****   w += 7;
 1701              		.loc 1 589 0
 1702 0092 FB7A     		ldrb	r3, [r7, #11]
 1703 0094 0733     		adds	r3, r3, #7
 1704 0096 FB72     		strb	r3, [r7, #11]
 590:u8glib_arm_v1.18.1\src/u8g_font.c ****   w /= 8;
 1705              		.loc 1 590 0
 1706 0098 FB7A     		ldrb	r3, [r7, #11]	@ zero_extendqisi2
 1707 009a DB08     		lsrs	r3, r3, #3
 1708 009c FB72     		strb	r3, [r7, #11]
 591:u8glib_arm_v1.18.1\src/u8g_font.c ****   
 592:u8glib_arm_v1.18.1\src/u8g_font.c ****   iy = y;
 1709              		.loc 1 592 0
 1710 009e BB78     		ldrb	r3, [r7, #2]
 1711 00a0 3B74     		strb	r3, [r7, #16]
 593:u8glib_arm_v1.18.1\src/u8g_font.c ****   iy -= h;
 1712              		.loc 1 593 0
 1713 00a2 3A7C     		ldrb	r2, [r7, #16]
 1714 00a4 BB7A     		ldrb	r3, [r7, #10]
 1715 00a6 D31A     		subs	r3, r2, r3
 1716 00a8 3B74     		strb	r3, [r7, #16]
 594:u8glib_arm_v1.18.1\src/u8g_font.c ****   iy++;
 1717              		.loc 1 594 0
 1718 00aa 3B7C     		ldrb	r3, [r7, #16]	@ zero_extendqisi2
 1719 00ac 0133     		adds	r3, r3, #1
 1720 00ae 3B74     		strb	r3, [r7, #16]
 595:u8glib_arm_v1.18.1\src/u8g_font.c **** 
 596:u8glib_arm_v1.18.1\src/u8g_font.c ****   for( j = 0; j < h; j++ )
 1721              		.loc 1 596 0
 1722 00b0 0023     		movs	r3, #0
 1723 00b2 BB74     		strb	r3, [r7, #18]
 1724 00b4 20E0     		b	.L92
 1725              	.L95:
 597:u8glib_arm_v1.18.1\src/u8g_font.c ****   {
 598:u8glib_arm_v1.18.1\src/u8g_font.c ****     ix = x;
 1726              		.loc 1 598 0
 1727 00b6 FB78     		ldrb	r3, [r7, #3]
 1728 00b8 7B74     		strb	r3, [r7, #17]
 599:u8glib_arm_v1.18.1\src/u8g_font.c ****     for( i = 0; i < w; i++ )
 1729              		.loc 1 599 0
 1730 00ba 0023     		movs	r3, #0
 1731 00bc FB74     		strb	r3, [r7, #19]
 1732 00be 11E0     		b	.L93
 1733              	.L94:
 600:u8glib_arm_v1.18.1\src/u8g_font.c ****     {
 601:u8glib_arm_v1.18.1\src/u8g_font.c ****       u8g_Draw8Pixel(u8g, ix, iy, 0, u8g_pgm_read(data));
 1734              		.loc 1 601 0 discriminator 3
 1735 00c0 7B69     		ldr	r3, [r7, #20]
 1736 00c2 1B78     		ldrb	r3, [r3]	@ zero_extendqisi2
ARM GAS  C:\Users\KJA\AppData\Local\Temp\ccevgiJT.s 			page 42


 1737 00c4 797C     		ldrb	r1, [r7, #17]	@ zero_extendqisi2
 1738 00c6 3A7C     		ldrb	r2, [r7, #16]	@ zero_extendqisi2
 1739 00c8 0093     		str	r3, [sp]
 1740 00ca 7868     		ldr	r0, [r7, #4]
 1741 00cc 0023     		movs	r3, #0
 1742 00ce FFF7FEFF 		bl	u8g_Draw8Pixel
 602:u8glib_arm_v1.18.1\src/u8g_font.c ****       data++;
 1743              		.loc 1 602 0 discriminator 3
 1744 00d2 7B69     		ldr	r3, [r7, #20]
 1745 00d4 0133     		adds	r3, r3, #1
 1746 00d6 7B61     		str	r3, [r7, #20]
 603:u8glib_arm_v1.18.1\src/u8g_font.c ****       ix+=8;
 1747              		.loc 1 603 0 discriminator 3
 1748 00d8 7B7C     		ldrb	r3, [r7, #17]
 1749 00da 0833     		adds	r3, r3, #8
 1750 00dc 7B74     		strb	r3, [r7, #17]
 599:u8glib_arm_v1.18.1\src/u8g_font.c ****     {
 1751              		.loc 1 599 0 discriminator 3
 1752 00de FB7C     		ldrb	r3, [r7, #19]	@ zero_extendqisi2
 1753 00e0 0133     		adds	r3, r3, #1
 1754 00e2 FB74     		strb	r3, [r7, #19]
 1755              	.L93:
 599:u8glib_arm_v1.18.1\src/u8g_font.c ****     {
 1756              		.loc 1 599 0 is_stmt 0 discriminator 1
 1757 00e4 FA7C     		ldrb	r2, [r7, #19]	@ zero_extendqisi2
 1758 00e6 FB7A     		ldrb	r3, [r7, #11]	@ zero_extendqisi2
 1759 00e8 9A42     		cmp	r2, r3
 1760 00ea E9D3     		bcc	.L94
 604:u8glib_arm_v1.18.1\src/u8g_font.c ****     }
 605:u8glib_arm_v1.18.1\src/u8g_font.c ****     iy++;
 1761              		.loc 1 605 0 is_stmt 1 discriminator 2
 1762 00ec 3B7C     		ldrb	r3, [r7, #16]	@ zero_extendqisi2
 1763 00ee 0133     		adds	r3, r3, #1
 1764 00f0 3B74     		strb	r3, [r7, #16]
 596:u8glib_arm_v1.18.1\src/u8g_font.c ****   {
 1765              		.loc 1 596 0 discriminator 2
 1766 00f2 BB7C     		ldrb	r3, [r7, #18]	@ zero_extendqisi2
 1767 00f4 0133     		adds	r3, r3, #1
 1768 00f6 BB74     		strb	r3, [r7, #18]
 1769              	.L92:
 596:u8glib_arm_v1.18.1\src/u8g_font.c ****   {
 1770              		.loc 1 596 0 is_stmt 0 discriminator 1
 1771 00f8 BA7C     		ldrb	r2, [r7, #18]	@ zero_extendqisi2
 1772 00fa BB7A     		ldrb	r3, [r7, #10]	@ zero_extendqisi2
 1773 00fc 9A42     		cmp	r2, r3
 1774 00fe DAD3     		bcc	.L95
 606:u8glib_arm_v1.18.1\src/u8g_font.c ****   }
 607:u8glib_arm_v1.18.1\src/u8g_font.c ****   return u8g->glyph_dx;
 1775              		.loc 1 607 0 is_stmt 1
 1776 0100 7B68     		ldr	r3, [r7, #4]
 1777 0102 1B7F     		ldrb	r3, [r3, #28]	@ zero_extendqisi2
 1778              	.L90:
 1779 0104 5BB2     		sxtb	r3, r3
 608:u8glib_arm_v1.18.1\src/u8g_font.c **** }
 1780              		.loc 1 608 0
 1781 0106 1846     		mov	r0, r3
 1782 0108 1C37     		adds	r7, r7, #28
ARM GAS  C:\Users\KJA\AppData\Local\Temp\ccevgiJT.s 			page 43


 1783              		.cfi_def_cfa_offset 12
 1784 010a BD46     		mov	sp, r7
 1785              		.cfi_def_cfa_register 13
 1786              		@ sp needed
 1787 010c 90BD     		pop	{r4, r7, pc}
 1788              		.cfi_endproc
 1789              	.LFE30:
 1790              		.size	u8g_draw_glyph, .-u8g_draw_glyph
 1791 010e 00BF     		.section	.text.u8g_DrawGlyph,"ax",%progbits
 1792              		.align	2
 1793              		.global	u8g_DrawGlyph
 1794              		.thumb
 1795              		.thumb_func
 1796              		.type	u8g_DrawGlyph, %function
 1797              	u8g_DrawGlyph:
 1798              	.LFB31:
 609:u8glib_arm_v1.18.1\src/u8g_font.c **** 
 610:u8glib_arm_v1.18.1\src/u8g_font.c **** int8_t u8g_DrawGlyph(u8g_t *u8g, u8g_uint_t x, u8g_uint_t y, uint8_t encoding)
 611:u8glib_arm_v1.18.1\src/u8g_font.c **** {
 1799              		.loc 1 611 0
 1800              		.cfi_startproc
 1801              		@ args = 0, pretend = 0, frame = 8
 1802              		@ frame_needed = 1, uses_anonymous_args = 0
 1803 0000 80B5     		push	{r7, lr}
 1804              		.cfi_def_cfa_offset 8
 1805              		.cfi_offset 7, -8
 1806              		.cfi_offset 14, -4
 1807 0002 82B0     		sub	sp, sp, #8
 1808              		.cfi_def_cfa_offset 16
 1809 0004 00AF     		add	r7, sp, #0
 1810              		.cfi_def_cfa_register 7
 1811 0006 7860     		str	r0, [r7, #4]
 1812 0008 0846     		mov	r0, r1
 1813 000a 1146     		mov	r1, r2
 1814 000c 1A46     		mov	r2, r3
 1815 000e 0346     		mov	r3, r0
 1816 0010 FB70     		strb	r3, [r7, #3]
 1817 0012 0B46     		mov	r3, r1
 1818 0014 BB70     		strb	r3, [r7, #2]
 1819 0016 1346     		mov	r3, r2
 1820 0018 7B70     		strb	r3, [r7, #1]
 612:u8glib_arm_v1.18.1\src/u8g_font.c ****   y += u8g->font_calc_vref(u8g);
 1821              		.loc 1 612 0
 1822 001a 7B68     		ldr	r3, [r7, #4]
 1823 001c 5B6A     		ldr	r3, [r3, #36]
 1824 001e 7868     		ldr	r0, [r7, #4]
 1825 0020 9847     		blx	r3
 1826 0022 0346     		mov	r3, r0
 1827 0024 1A46     		mov	r2, r3
 1828 0026 BB78     		ldrb	r3, [r7, #2]
 1829 0028 1344     		add	r3, r3, r2
 1830 002a BB70     		strb	r3, [r7, #2]
 613:u8glib_arm_v1.18.1\src/u8g_font.c ****   return u8g_draw_glyph(u8g, x, y, encoding);
 1831              		.loc 1 613 0
 1832 002c F978     		ldrb	r1, [r7, #3]	@ zero_extendqisi2
 1833 002e BA78     		ldrb	r2, [r7, #2]	@ zero_extendqisi2
 1834 0030 7B78     		ldrb	r3, [r7, #1]	@ zero_extendqisi2
ARM GAS  C:\Users\KJA\AppData\Local\Temp\ccevgiJT.s 			page 44


 1835 0032 7868     		ldr	r0, [r7, #4]
 1836 0034 FFF7FEFF 		bl	u8g_draw_glyph
 1837 0038 0346     		mov	r3, r0
 614:u8glib_arm_v1.18.1\src/u8g_font.c **** }
 1838              		.loc 1 614 0
 1839 003a 1846     		mov	r0, r3
 1840 003c 0837     		adds	r7, r7, #8
 1841              		.cfi_def_cfa_offset 8
 1842 003e BD46     		mov	sp, r7
 1843              		.cfi_def_cfa_register 13
 1844              		@ sp needed
 1845 0040 80BD     		pop	{r7, pc}
 1846              		.cfi_endproc
 1847              	.LFE31:
 1848              		.size	u8g_DrawGlyph, .-u8g_DrawGlyph
 1849 0042 00BF     		.section	.text.u8g_draw_glyph90,"ax",%progbits
 1850              		.align	2
 1851              		.global	u8g_draw_glyph90
 1852              		.thumb
 1853              		.thumb_func
 1854              		.type	u8g_draw_glyph90, %function
 1855              	u8g_draw_glyph90:
 1856              	.LFB32:
 615:u8glib_arm_v1.18.1\src/u8g_font.c **** 
 616:u8glib_arm_v1.18.1\src/u8g_font.c **** int8_t u8g_draw_glyph90(u8g_t *u8g, u8g_uint_t x, u8g_uint_t y, uint8_t encoding)
 617:u8glib_arm_v1.18.1\src/u8g_font.c **** {
 1857              		.loc 1 617 0
 1858              		.cfi_startproc
 1859              		@ args = 0, pretend = 0, frame = 24
 1860              		@ frame_needed = 1, uses_anonymous_args = 0
 1861 0000 90B5     		push	{r4, r7, lr}
 1862              		.cfi_def_cfa_offset 12
 1863              		.cfi_offset 4, -12
 1864              		.cfi_offset 7, -8
 1865              		.cfi_offset 14, -4
 1866 0002 89B0     		sub	sp, sp, #36
 1867              		.cfi_def_cfa_offset 48
 1868 0004 02AF     		add	r7, sp, #8
 1869              		.cfi_def_cfa 7, 40
 1870 0006 7860     		str	r0, [r7, #4]
 1871 0008 0846     		mov	r0, r1
 1872 000a 1146     		mov	r1, r2
 1873 000c 1A46     		mov	r2, r3
 1874 000e 0346     		mov	r3, r0
 1875 0010 FB70     		strb	r3, [r7, #3]
 1876 0012 0B46     		mov	r3, r1
 1877 0014 BB70     		strb	r3, [r7, #2]
 1878 0016 1346     		mov	r3, r2
 1879 0018 7B70     		strb	r3, [r7, #1]
 1880              	.LBB3:
 618:u8glib_arm_v1.18.1\src/u8g_font.c ****   const u8g_pgm_uint8_t *data;
 619:u8glib_arm_v1.18.1\src/u8g_font.c ****   uint8_t w, h;
 620:u8glib_arm_v1.18.1\src/u8g_font.c ****   uint8_t i, j;
 621:u8glib_arm_v1.18.1\src/u8g_font.c ****   u8g_uint_t ix, iy;
 622:u8glib_arm_v1.18.1\src/u8g_font.c **** 
 623:u8glib_arm_v1.18.1\src/u8g_font.c ****   {
 624:u8glib_arm_v1.18.1\src/u8g_font.c ****     u8g_glyph_t g = u8g_GetGlyph(u8g, encoding);
ARM GAS  C:\Users\KJA\AppData\Local\Temp\ccevgiJT.s 			page 45


 1881              		.loc 1 624 0
 1882 001a 7B78     		ldrb	r3, [r7, #1]	@ zero_extendqisi2
 1883 001c 7868     		ldr	r0, [r7, #4]
 1884 001e 1946     		mov	r1, r3
 1885 0020 FFF7FEFF 		bl	u8g_GetGlyph
 1886 0024 F860     		str	r0, [r7, #12]
 625:u8glib_arm_v1.18.1\src/u8g_font.c ****     if ( g == NULL  )
 1887              		.loc 1 625 0
 1888 0026 FB68     		ldr	r3, [r7, #12]
 1889 0028 002B     		cmp	r3, #0
 1890 002a 01D1     		bne	.L99
 626:u8glib_arm_v1.18.1\src/u8g_font.c ****       return 0;
 1891              		.loc 1 626 0
 1892 002c 0023     		movs	r3, #0
 1893 002e 64E0     		b	.L100
 1894              	.L99:
 627:u8glib_arm_v1.18.1\src/u8g_font.c ****     data = u8g_font_GetGlyphDataStart(u8g->font, g);
 1895              		.loc 1 627 0
 1896 0030 7B68     		ldr	r3, [r7, #4]
 1897 0032 9B68     		ldr	r3, [r3, #8]
 1898 0034 1846     		mov	r0, r3
 1899 0036 F968     		ldr	r1, [r7, #12]
 1900 0038 FFF7FEFF 		bl	u8g_font_GetGlyphDataStart
 1901 003c 7861     		str	r0, [r7, #20]
 1902              	.LBE3:
 628:u8glib_arm_v1.18.1\src/u8g_font.c ****   }
 629:u8glib_arm_v1.18.1\src/u8g_font.c ****   
 630:u8glib_arm_v1.18.1\src/u8g_font.c ****   w = u8g->glyph_width;
 1903              		.loc 1 630 0
 1904 003e 7B68     		ldr	r3, [r7, #4]
 1905 0040 DB7F     		ldrb	r3, [r3, #31]
 1906 0042 FB72     		strb	r3, [r7, #11]
 631:u8glib_arm_v1.18.1\src/u8g_font.c ****   h = u8g->glyph_height;
 1907              		.loc 1 631 0
 1908 0044 7B68     		ldr	r3, [r7, #4]
 1909 0046 93F82030 		ldrb	r3, [r3, #32]
 1910 004a BB72     		strb	r3, [r7, #10]
 632:u8glib_arm_v1.18.1\src/u8g_font.c ****   
 633:u8glib_arm_v1.18.1\src/u8g_font.c ****   x += u8g->glyph_y;
 1911              		.loc 1 633 0
 1912 004c 7B68     		ldr	r3, [r7, #4]
 1913 004e 9B7F     		ldrb	r3, [r3, #30]	@ zero_extendqisi2
 1914 0050 DAB2     		uxtb	r2, r3
 1915 0052 FB78     		ldrb	r3, [r7, #3]
 1916 0054 1344     		add	r3, r3, r2
 1917 0056 FB70     		strb	r3, [r7, #3]
 634:u8glib_arm_v1.18.1\src/u8g_font.c ****   x++;
 1918              		.loc 1 634 0
 1919 0058 FB78     		ldrb	r3, [r7, #3]	@ zero_extendqisi2
 1920 005a 0133     		adds	r3, r3, #1
 1921 005c FB70     		strb	r3, [r7, #3]
 635:u8glib_arm_v1.18.1\src/u8g_font.c ****   y += u8g->glyph_x;
 1922              		.loc 1 635 0
 1923 005e 7B68     		ldr	r3, [r7, #4]
 1924 0060 5B7F     		ldrb	r3, [r3, #29]	@ zero_extendqisi2
 1925 0062 DAB2     		uxtb	r2, r3
 1926 0064 BB78     		ldrb	r3, [r7, #2]
ARM GAS  C:\Users\KJA\AppData\Local\Temp\ccevgiJT.s 			page 46


 1927 0066 1344     		add	r3, r3, r2
 1928 0068 BB70     		strb	r3, [r7, #2]
 636:u8glib_arm_v1.18.1\src/u8g_font.c ****   
 637:u8glib_arm_v1.18.1\src/u8g_font.c ****   if ( u8g_IsBBXIntersection(u8g, x, y, h, w) == 0 )
 1929              		.loc 1 637 0
 1930 006a F978     		ldrb	r1, [r7, #3]	@ zero_extendqisi2
 1931 006c BA78     		ldrb	r2, [r7, #2]	@ zero_extendqisi2
 1932 006e BC7A     		ldrb	r4, [r7, #10]	@ zero_extendqisi2
 1933 0070 FB7A     		ldrb	r3, [r7, #11]	@ zero_extendqisi2
 1934 0072 0093     		str	r3, [sp]
 1935 0074 7868     		ldr	r0, [r7, #4]
 1936 0076 2346     		mov	r3, r4
 1937 0078 FFF7FEFF 		bl	u8g_IsBBXIntersection
 1938 007c 0346     		mov	r3, r0
 1939 007e 002B     		cmp	r3, #0
 1940 0080 02D1     		bne	.L101
 638:u8glib_arm_v1.18.1\src/u8g_font.c ****     return u8g->glyph_dx;
 1941              		.loc 1 638 0
 1942 0082 7B68     		ldr	r3, [r7, #4]
 1943 0084 1B7F     		ldrb	r3, [r3, #28]	@ zero_extendqisi2
 1944 0086 38E0     		b	.L100
 1945              	.L101:
 639:u8glib_arm_v1.18.1\src/u8g_font.c **** 
 640:u8glib_arm_v1.18.1\src/u8g_font.c ****   /* now, w is reused as bytes per line */
 641:u8glib_arm_v1.18.1\src/u8g_font.c ****   w += 7;
 1946              		.loc 1 641 0
 1947 0088 FB7A     		ldrb	r3, [r7, #11]
 1948 008a 0733     		adds	r3, r3, #7
 1949 008c FB72     		strb	r3, [r7, #11]
 642:u8glib_arm_v1.18.1\src/u8g_font.c ****   w /= 8;
 1950              		.loc 1 642 0
 1951 008e FB7A     		ldrb	r3, [r7, #11]	@ zero_extendqisi2
 1952 0090 DB08     		lsrs	r3, r3, #3
 1953 0092 FB72     		strb	r3, [r7, #11]
 643:u8glib_arm_v1.18.1\src/u8g_font.c ****   
 644:u8glib_arm_v1.18.1\src/u8g_font.c ****   ix = x;
 1954              		.loc 1 644 0
 1955 0094 FB78     		ldrb	r3, [r7, #3]
 1956 0096 7B74     		strb	r3, [r7, #17]
 645:u8glib_arm_v1.18.1\src/u8g_font.c ****   ix += h;
 1957              		.loc 1 645 0
 1958 0098 7A7C     		ldrb	r2, [r7, #17]
 1959 009a BB7A     		ldrb	r3, [r7, #10]
 1960 009c 1344     		add	r3, r3, r2
 1961 009e 7B74     		strb	r3, [r7, #17]
 646:u8glib_arm_v1.18.1\src/u8g_font.c ****   ix--;
 1962              		.loc 1 646 0
 1963 00a0 7B7C     		ldrb	r3, [r7, #17]	@ zero_extendqisi2
 1964 00a2 013B     		subs	r3, r3, #1
 1965 00a4 7B74     		strb	r3, [r7, #17]
 647:u8glib_arm_v1.18.1\src/u8g_font.c ****   for( j = 0; j < h; j++ )
 1966              		.loc 1 647 0
 1967 00a6 0023     		movs	r3, #0
 1968 00a8 BB74     		strb	r3, [r7, #18]
 1969 00aa 20E0     		b	.L102
 1970              	.L105:
 648:u8glib_arm_v1.18.1\src/u8g_font.c ****   {
ARM GAS  C:\Users\KJA\AppData\Local\Temp\ccevgiJT.s 			page 47


 649:u8glib_arm_v1.18.1\src/u8g_font.c ****     iy = y;
 1971              		.loc 1 649 0
 1972 00ac BB78     		ldrb	r3, [r7, #2]
 1973 00ae 3B74     		strb	r3, [r7, #16]
 650:u8glib_arm_v1.18.1\src/u8g_font.c ****     for( i = 0; i < w; i++ )
 1974              		.loc 1 650 0
 1975 00b0 0023     		movs	r3, #0
 1976 00b2 FB74     		strb	r3, [r7, #19]
 1977 00b4 11E0     		b	.L103
 1978              	.L104:
 651:u8glib_arm_v1.18.1\src/u8g_font.c ****     {
 652:u8glib_arm_v1.18.1\src/u8g_font.c ****       u8g_Draw8Pixel(u8g, ix, iy, 1, u8g_pgm_read(data));
 1979              		.loc 1 652 0 discriminator 3
 1980 00b6 7B69     		ldr	r3, [r7, #20]
 1981 00b8 1B78     		ldrb	r3, [r3]	@ zero_extendqisi2
 1982 00ba 797C     		ldrb	r1, [r7, #17]	@ zero_extendqisi2
 1983 00bc 3A7C     		ldrb	r2, [r7, #16]	@ zero_extendqisi2
 1984 00be 0093     		str	r3, [sp]
 1985 00c0 7868     		ldr	r0, [r7, #4]
 1986 00c2 0123     		movs	r3, #1
 1987 00c4 FFF7FEFF 		bl	u8g_Draw8Pixel
 653:u8glib_arm_v1.18.1\src/u8g_font.c ****       data++;
 1988              		.loc 1 653 0 discriminator 3
 1989 00c8 7B69     		ldr	r3, [r7, #20]
 1990 00ca 0133     		adds	r3, r3, #1
 1991 00cc 7B61     		str	r3, [r7, #20]
 654:u8glib_arm_v1.18.1\src/u8g_font.c ****       iy+=8;
 1992              		.loc 1 654 0 discriminator 3
 1993 00ce 3B7C     		ldrb	r3, [r7, #16]
 1994 00d0 0833     		adds	r3, r3, #8
 1995 00d2 3B74     		strb	r3, [r7, #16]
 650:u8glib_arm_v1.18.1\src/u8g_font.c ****     {
 1996              		.loc 1 650 0 discriminator 3
 1997 00d4 FB7C     		ldrb	r3, [r7, #19]	@ zero_extendqisi2
 1998 00d6 0133     		adds	r3, r3, #1
 1999 00d8 FB74     		strb	r3, [r7, #19]
 2000              	.L103:
 650:u8glib_arm_v1.18.1\src/u8g_font.c ****     {
 2001              		.loc 1 650 0 is_stmt 0 discriminator 1
 2002 00da FA7C     		ldrb	r2, [r7, #19]	@ zero_extendqisi2
 2003 00dc FB7A     		ldrb	r3, [r7, #11]	@ zero_extendqisi2
 2004 00de 9A42     		cmp	r2, r3
 2005 00e0 E9D3     		bcc	.L104
 655:u8glib_arm_v1.18.1\src/u8g_font.c ****     }
 656:u8glib_arm_v1.18.1\src/u8g_font.c ****     ix--;
 2006              		.loc 1 656 0 is_stmt 1 discriminator 2
 2007 00e2 7B7C     		ldrb	r3, [r7, #17]	@ zero_extendqisi2
 2008 00e4 013B     		subs	r3, r3, #1
 2009 00e6 7B74     		strb	r3, [r7, #17]
 647:u8glib_arm_v1.18.1\src/u8g_font.c ****   {
 2010              		.loc 1 647 0 discriminator 2
 2011 00e8 BB7C     		ldrb	r3, [r7, #18]	@ zero_extendqisi2
 2012 00ea 0133     		adds	r3, r3, #1
 2013 00ec BB74     		strb	r3, [r7, #18]
 2014              	.L102:
 647:u8glib_arm_v1.18.1\src/u8g_font.c ****   {
 2015              		.loc 1 647 0 is_stmt 0 discriminator 1
ARM GAS  C:\Users\KJA\AppData\Local\Temp\ccevgiJT.s 			page 48


 2016 00ee BA7C     		ldrb	r2, [r7, #18]	@ zero_extendqisi2
 2017 00f0 BB7A     		ldrb	r3, [r7, #10]	@ zero_extendqisi2
 2018 00f2 9A42     		cmp	r2, r3
 2019 00f4 DAD3     		bcc	.L105
 657:u8glib_arm_v1.18.1\src/u8g_font.c ****   }
 658:u8glib_arm_v1.18.1\src/u8g_font.c ****   return u8g->glyph_dx;
 2020              		.loc 1 658 0 is_stmt 1
 2021 00f6 7B68     		ldr	r3, [r7, #4]
 2022 00f8 1B7F     		ldrb	r3, [r3, #28]	@ zero_extendqisi2
 2023              	.L100:
 2024 00fa 5BB2     		sxtb	r3, r3
 659:u8glib_arm_v1.18.1\src/u8g_font.c **** }
 2025              		.loc 1 659 0
 2026 00fc 1846     		mov	r0, r3
 2027 00fe 1C37     		adds	r7, r7, #28
 2028              		.cfi_def_cfa_offset 12
 2029 0100 BD46     		mov	sp, r7
 2030              		.cfi_def_cfa_register 13
 2031              		@ sp needed
 2032 0102 90BD     		pop	{r4, r7, pc}
 2033              		.cfi_endproc
 2034              	.LFE32:
 2035              		.size	u8g_draw_glyph90, .-u8g_draw_glyph90
 2036              		.section	.text.u8g_DrawGlyph90,"ax",%progbits
 2037              		.align	2
 2038              		.global	u8g_DrawGlyph90
 2039              		.thumb
 2040              		.thumb_func
 2041              		.type	u8g_DrawGlyph90, %function
 2042              	u8g_DrawGlyph90:
 2043              	.LFB33:
 660:u8glib_arm_v1.18.1\src/u8g_font.c **** 
 661:u8glib_arm_v1.18.1\src/u8g_font.c **** int8_t u8g_DrawGlyph90(u8g_t *u8g, u8g_uint_t x, u8g_uint_t y, uint8_t encoding)
 662:u8glib_arm_v1.18.1\src/u8g_font.c **** {
 2044              		.loc 1 662 0
 2045              		.cfi_startproc
 2046              		@ args = 0, pretend = 0, frame = 8
 2047              		@ frame_needed = 1, uses_anonymous_args = 0
 2048 0000 80B5     		push	{r7, lr}
 2049              		.cfi_def_cfa_offset 8
 2050              		.cfi_offset 7, -8
 2051              		.cfi_offset 14, -4
 2052 0002 82B0     		sub	sp, sp, #8
 2053              		.cfi_def_cfa_offset 16
 2054 0004 00AF     		add	r7, sp, #0
 2055              		.cfi_def_cfa_register 7
 2056 0006 7860     		str	r0, [r7, #4]
 2057 0008 0846     		mov	r0, r1
 2058 000a 1146     		mov	r1, r2
 2059 000c 1A46     		mov	r2, r3
 2060 000e 0346     		mov	r3, r0
 2061 0010 FB70     		strb	r3, [r7, #3]
 2062 0012 0B46     		mov	r3, r1
 2063 0014 BB70     		strb	r3, [r7, #2]
 2064 0016 1346     		mov	r3, r2
 2065 0018 7B70     		strb	r3, [r7, #1]
 663:u8glib_arm_v1.18.1\src/u8g_font.c ****   x -= u8g->font_calc_vref(u8g);
ARM GAS  C:\Users\KJA\AppData\Local\Temp\ccevgiJT.s 			page 49


 2066              		.loc 1 663 0
 2067 001a 7B68     		ldr	r3, [r7, #4]
 2068 001c 5B6A     		ldr	r3, [r3, #36]
 2069 001e 7868     		ldr	r0, [r7, #4]
 2070 0020 9847     		blx	r3
 2071 0022 0346     		mov	r3, r0
 2072 0024 1A46     		mov	r2, r3
 2073 0026 FB78     		ldrb	r3, [r7, #3]
 2074 0028 9B1A     		subs	r3, r3, r2
 2075 002a FB70     		strb	r3, [r7, #3]
 664:u8glib_arm_v1.18.1\src/u8g_font.c ****   return u8g_draw_glyph90(u8g, x, y, encoding);
 2076              		.loc 1 664 0
 2077 002c F978     		ldrb	r1, [r7, #3]	@ zero_extendqisi2
 2078 002e BA78     		ldrb	r2, [r7, #2]	@ zero_extendqisi2
 2079 0030 7B78     		ldrb	r3, [r7, #1]	@ zero_extendqisi2
 2080 0032 7868     		ldr	r0, [r7, #4]
 2081 0034 FFF7FEFF 		bl	u8g_draw_glyph90
 2082 0038 0346     		mov	r3, r0
 665:u8glib_arm_v1.18.1\src/u8g_font.c **** }
 2083              		.loc 1 665 0
 2084 003a 1846     		mov	r0, r3
 2085 003c 0837     		adds	r7, r7, #8
 2086              		.cfi_def_cfa_offset 8
 2087 003e BD46     		mov	sp, r7
 2088              		.cfi_def_cfa_register 13
 2089              		@ sp needed
 2090 0040 80BD     		pop	{r7, pc}
 2091              		.cfi_endproc
 2092              	.LFE33:
 2093              		.size	u8g_DrawGlyph90, .-u8g_DrawGlyph90
 2094 0042 00BF     		.section	.text.u8g_draw_glyph180,"ax",%progbits
 2095              		.align	2
 2096              		.global	u8g_draw_glyph180
 2097              		.thumb
 2098              		.thumb_func
 2099              		.type	u8g_draw_glyph180, %function
 2100              	u8g_draw_glyph180:
 2101              	.LFB34:
 666:u8glib_arm_v1.18.1\src/u8g_font.c **** 
 667:u8glib_arm_v1.18.1\src/u8g_font.c **** 
 668:u8glib_arm_v1.18.1\src/u8g_font.c **** int8_t u8g_draw_glyph180(u8g_t *u8g, u8g_uint_t x, u8g_uint_t y, uint8_t encoding)
 669:u8glib_arm_v1.18.1\src/u8g_font.c **** {
 2102              		.loc 1 669 0
 2103              		.cfi_startproc
 2104              		@ args = 0, pretend = 0, frame = 24
 2105              		@ frame_needed = 1, uses_anonymous_args = 0
 2106 0000 90B5     		push	{r4, r7, lr}
 2107              		.cfi_def_cfa_offset 12
 2108              		.cfi_offset 4, -12
 2109              		.cfi_offset 7, -8
 2110              		.cfi_offset 14, -4
 2111 0002 89B0     		sub	sp, sp, #36
 2112              		.cfi_def_cfa_offset 48
 2113 0004 02AF     		add	r7, sp, #8
 2114              		.cfi_def_cfa 7, 40
 2115 0006 7860     		str	r0, [r7, #4]
 2116 0008 0846     		mov	r0, r1
ARM GAS  C:\Users\KJA\AppData\Local\Temp\ccevgiJT.s 			page 50


 2117 000a 1146     		mov	r1, r2
 2118 000c 1A46     		mov	r2, r3
 2119 000e 0346     		mov	r3, r0
 2120 0010 FB70     		strb	r3, [r7, #3]
 2121 0012 0B46     		mov	r3, r1
 2122 0014 BB70     		strb	r3, [r7, #2]
 2123 0016 1346     		mov	r3, r2
 2124 0018 7B70     		strb	r3, [r7, #1]
 2125              	.LBB4:
 670:u8glib_arm_v1.18.1\src/u8g_font.c ****   const u8g_pgm_uint8_t *data;
 671:u8glib_arm_v1.18.1\src/u8g_font.c ****   uint8_t w, h;
 672:u8glib_arm_v1.18.1\src/u8g_font.c ****   uint8_t i, j;
 673:u8glib_arm_v1.18.1\src/u8g_font.c ****   u8g_uint_t ix, iy;
 674:u8glib_arm_v1.18.1\src/u8g_font.c **** 
 675:u8glib_arm_v1.18.1\src/u8g_font.c ****   {
 676:u8glib_arm_v1.18.1\src/u8g_font.c ****     u8g_glyph_t g = u8g_GetGlyph(u8g, encoding);
 2126              		.loc 1 676 0
 2127 001a 7B78     		ldrb	r3, [r7, #1]	@ zero_extendqisi2
 2128 001c 7868     		ldr	r0, [r7, #4]
 2129 001e 1946     		mov	r1, r3
 2130 0020 FFF7FEFF 		bl	u8g_GetGlyph
 2131 0024 F860     		str	r0, [r7, #12]
 677:u8glib_arm_v1.18.1\src/u8g_font.c ****     if ( g == NULL  )
 2132              		.loc 1 677 0
 2133 0026 FB68     		ldr	r3, [r7, #12]
 2134 0028 002B     		cmp	r3, #0
 2135 002a 01D1     		bne	.L109
 678:u8glib_arm_v1.18.1\src/u8g_font.c ****       return 0;
 2136              		.loc 1 678 0
 2137 002c 0023     		movs	r3, #0
 2138 002e 69E0     		b	.L110
 2139              	.L109:
 679:u8glib_arm_v1.18.1\src/u8g_font.c ****     data = u8g_font_GetGlyphDataStart(u8g->font, g);
 2140              		.loc 1 679 0
 2141 0030 7B68     		ldr	r3, [r7, #4]
 2142 0032 9B68     		ldr	r3, [r3, #8]
 2143 0034 1846     		mov	r0, r3
 2144 0036 F968     		ldr	r1, [r7, #12]
 2145 0038 FFF7FEFF 		bl	u8g_font_GetGlyphDataStart
 2146 003c 7861     		str	r0, [r7, #20]
 2147              	.LBE4:
 680:u8glib_arm_v1.18.1\src/u8g_font.c ****   }
 681:u8glib_arm_v1.18.1\src/u8g_font.c ****   
 682:u8glib_arm_v1.18.1\src/u8g_font.c ****   w = u8g->glyph_width;
 2148              		.loc 1 682 0
 2149 003e 7B68     		ldr	r3, [r7, #4]
 2150 0040 DB7F     		ldrb	r3, [r3, #31]
 2151 0042 FB72     		strb	r3, [r7, #11]
 683:u8glib_arm_v1.18.1\src/u8g_font.c ****   h = u8g->glyph_height;
 2152              		.loc 1 683 0
 2153 0044 7B68     		ldr	r3, [r7, #4]
 2154 0046 93F82030 		ldrb	r3, [r3, #32]
 2155 004a BB72     		strb	r3, [r7, #10]
 684:u8glib_arm_v1.18.1\src/u8g_font.c ****   
 685:u8glib_arm_v1.18.1\src/u8g_font.c ****   x -= u8g->glyph_x;
 2156              		.loc 1 685 0
 2157 004c 7B68     		ldr	r3, [r7, #4]
ARM GAS  C:\Users\KJA\AppData\Local\Temp\ccevgiJT.s 			page 51


 2158 004e 5B7F     		ldrb	r3, [r3, #29]	@ zero_extendqisi2
 2159 0050 DBB2     		uxtb	r3, r3
 2160 0052 FA78     		ldrb	r2, [r7, #3]
 2161 0054 D31A     		subs	r3, r2, r3
 2162 0056 FB70     		strb	r3, [r7, #3]
 686:u8glib_arm_v1.18.1\src/u8g_font.c ****   y += u8g->glyph_y;
 2163              		.loc 1 686 0
 2164 0058 7B68     		ldr	r3, [r7, #4]
 2165 005a 9B7F     		ldrb	r3, [r3, #30]	@ zero_extendqisi2
 2166 005c DAB2     		uxtb	r2, r3
 2167 005e BB78     		ldrb	r3, [r7, #2]
 2168 0060 1344     		add	r3, r3, r2
 2169 0062 BB70     		strb	r3, [r7, #2]
 687:u8glib_arm_v1.18.1\src/u8g_font.c ****   y++;
 2170              		.loc 1 687 0
 2171 0064 BB78     		ldrb	r3, [r7, #2]	@ zero_extendqisi2
 2172 0066 0133     		adds	r3, r3, #1
 2173 0068 BB70     		strb	r3, [r7, #2]
 688:u8glib_arm_v1.18.1\src/u8g_font.c ****   
 689:u8glib_arm_v1.18.1\src/u8g_font.c ****   if ( u8g_IsBBXIntersection(u8g, x-(w-1), y, w, h) == 0 )
 2174              		.loc 1 689 0
 2175 006a FA78     		ldrb	r2, [r7, #3]
 2176 006c FB7A     		ldrb	r3, [r7, #11]
 2177 006e D31A     		subs	r3, r2, r3
 2178 0070 DBB2     		uxtb	r3, r3
 2179 0072 0133     		adds	r3, r3, #1
 2180 0074 D9B2     		uxtb	r1, r3
 2181 0076 BA78     		ldrb	r2, [r7, #2]	@ zero_extendqisi2
 2182 0078 FC7A     		ldrb	r4, [r7, #11]	@ zero_extendqisi2
 2183 007a BB7A     		ldrb	r3, [r7, #10]	@ zero_extendqisi2
 2184 007c 0093     		str	r3, [sp]
 2185 007e 7868     		ldr	r0, [r7, #4]
 2186 0080 2346     		mov	r3, r4
 2187 0082 FFF7FEFF 		bl	u8g_IsBBXIntersection
 2188 0086 0346     		mov	r3, r0
 2189 0088 002B     		cmp	r3, #0
 2190 008a 02D1     		bne	.L111
 690:u8glib_arm_v1.18.1\src/u8g_font.c ****     return u8g->glyph_dx;
 2191              		.loc 1 690 0
 2192 008c 7B68     		ldr	r3, [r7, #4]
 2193 008e 1B7F     		ldrb	r3, [r3, #28]	@ zero_extendqisi2
 2194 0090 38E0     		b	.L110
 2195              	.L111:
 691:u8glib_arm_v1.18.1\src/u8g_font.c **** 
 692:u8glib_arm_v1.18.1\src/u8g_font.c ****   /* now, w is reused as bytes per line */
 693:u8glib_arm_v1.18.1\src/u8g_font.c ****   w += 7;
 2196              		.loc 1 693 0
 2197 0092 FB7A     		ldrb	r3, [r7, #11]
 2198 0094 0733     		adds	r3, r3, #7
 2199 0096 FB72     		strb	r3, [r7, #11]
 694:u8glib_arm_v1.18.1\src/u8g_font.c ****   w /= 8;
 2200              		.loc 1 694 0
 2201 0098 FB7A     		ldrb	r3, [r7, #11]	@ zero_extendqisi2
 2202 009a DB08     		lsrs	r3, r3, #3
 2203 009c FB72     		strb	r3, [r7, #11]
 695:u8glib_arm_v1.18.1\src/u8g_font.c ****   
 696:u8glib_arm_v1.18.1\src/u8g_font.c ****   iy = y;
ARM GAS  C:\Users\KJA\AppData\Local\Temp\ccevgiJT.s 			page 52


 2204              		.loc 1 696 0
 2205 009e BB78     		ldrb	r3, [r7, #2]
 2206 00a0 3B74     		strb	r3, [r7, #16]
 697:u8glib_arm_v1.18.1\src/u8g_font.c ****   iy += h;
 2207              		.loc 1 697 0
 2208 00a2 3A7C     		ldrb	r2, [r7, #16]
 2209 00a4 BB7A     		ldrb	r3, [r7, #10]
 2210 00a6 1344     		add	r3, r3, r2
 2211 00a8 3B74     		strb	r3, [r7, #16]
 698:u8glib_arm_v1.18.1\src/u8g_font.c ****   iy--;
 2212              		.loc 1 698 0
 2213 00aa 3B7C     		ldrb	r3, [r7, #16]	@ zero_extendqisi2
 2214 00ac 013B     		subs	r3, r3, #1
 2215 00ae 3B74     		strb	r3, [r7, #16]
 699:u8glib_arm_v1.18.1\src/u8g_font.c ****   for( j = 0; j < h; j++ )
 2216              		.loc 1 699 0
 2217 00b0 0023     		movs	r3, #0
 2218 00b2 BB74     		strb	r3, [r7, #18]
 2219 00b4 20E0     		b	.L112
 2220              	.L115:
 700:u8glib_arm_v1.18.1\src/u8g_font.c ****   {
 701:u8glib_arm_v1.18.1\src/u8g_font.c ****     ix = x;
 2221              		.loc 1 701 0
 2222 00b6 FB78     		ldrb	r3, [r7, #3]
 2223 00b8 7B74     		strb	r3, [r7, #17]
 702:u8glib_arm_v1.18.1\src/u8g_font.c ****     for( i = 0; i < w; i++ )
 2224              		.loc 1 702 0
 2225 00ba 0023     		movs	r3, #0
 2226 00bc FB74     		strb	r3, [r7, #19]
 2227 00be 11E0     		b	.L113
 2228              	.L114:
 703:u8glib_arm_v1.18.1\src/u8g_font.c ****     {
 704:u8glib_arm_v1.18.1\src/u8g_font.c ****       u8g_Draw8Pixel(u8g, ix, iy, 2, u8g_pgm_read(data));
 2229              		.loc 1 704 0 discriminator 3
 2230 00c0 7B69     		ldr	r3, [r7, #20]
 2231 00c2 1B78     		ldrb	r3, [r3]	@ zero_extendqisi2
 2232 00c4 797C     		ldrb	r1, [r7, #17]	@ zero_extendqisi2
 2233 00c6 3A7C     		ldrb	r2, [r7, #16]	@ zero_extendqisi2
 2234 00c8 0093     		str	r3, [sp]
 2235 00ca 7868     		ldr	r0, [r7, #4]
 2236 00cc 0223     		movs	r3, #2
 2237 00ce FFF7FEFF 		bl	u8g_Draw8Pixel
 705:u8glib_arm_v1.18.1\src/u8g_font.c ****       data++;
 2238              		.loc 1 705 0 discriminator 3
 2239 00d2 7B69     		ldr	r3, [r7, #20]
 2240 00d4 0133     		adds	r3, r3, #1
 2241 00d6 7B61     		str	r3, [r7, #20]
 706:u8glib_arm_v1.18.1\src/u8g_font.c ****       ix-=8;
 2242              		.loc 1 706 0 discriminator 3
 2243 00d8 7B7C     		ldrb	r3, [r7, #17]
 2244 00da 083B     		subs	r3, r3, #8
 2245 00dc 7B74     		strb	r3, [r7, #17]
 702:u8glib_arm_v1.18.1\src/u8g_font.c ****     {
 2246              		.loc 1 702 0 discriminator 3
 2247 00de FB7C     		ldrb	r3, [r7, #19]	@ zero_extendqisi2
 2248 00e0 0133     		adds	r3, r3, #1
 2249 00e2 FB74     		strb	r3, [r7, #19]
ARM GAS  C:\Users\KJA\AppData\Local\Temp\ccevgiJT.s 			page 53


 2250              	.L113:
 702:u8glib_arm_v1.18.1\src/u8g_font.c ****     {
 2251              		.loc 1 702 0 is_stmt 0 discriminator 1
 2252 00e4 FA7C     		ldrb	r2, [r7, #19]	@ zero_extendqisi2
 2253 00e6 FB7A     		ldrb	r3, [r7, #11]	@ zero_extendqisi2
 2254 00e8 9A42     		cmp	r2, r3
 2255 00ea E9D3     		bcc	.L114
 707:u8glib_arm_v1.18.1\src/u8g_font.c ****     }
 708:u8glib_arm_v1.18.1\src/u8g_font.c ****     iy--;
 2256              		.loc 1 708 0 is_stmt 1 discriminator 2
 2257 00ec 3B7C     		ldrb	r3, [r7, #16]	@ zero_extendqisi2
 2258 00ee 013B     		subs	r3, r3, #1
 2259 00f0 3B74     		strb	r3, [r7, #16]
 699:u8glib_arm_v1.18.1\src/u8g_font.c ****   {
 2260              		.loc 1 699 0 discriminator 2
 2261 00f2 BB7C     		ldrb	r3, [r7, #18]	@ zero_extendqisi2
 2262 00f4 0133     		adds	r3, r3, #1
 2263 00f6 BB74     		strb	r3, [r7, #18]
 2264              	.L112:
 699:u8glib_arm_v1.18.1\src/u8g_font.c ****   {
 2265              		.loc 1 699 0 is_stmt 0 discriminator 1
 2266 00f8 BA7C     		ldrb	r2, [r7, #18]	@ zero_extendqisi2
 2267 00fa BB7A     		ldrb	r3, [r7, #10]	@ zero_extendqisi2
 2268 00fc 9A42     		cmp	r2, r3
 2269 00fe DAD3     		bcc	.L115
 709:u8glib_arm_v1.18.1\src/u8g_font.c ****   }
 710:u8glib_arm_v1.18.1\src/u8g_font.c ****   return u8g->glyph_dx;
 2270              		.loc 1 710 0 is_stmt 1
 2271 0100 7B68     		ldr	r3, [r7, #4]
 2272 0102 1B7F     		ldrb	r3, [r3, #28]	@ zero_extendqisi2
 2273              	.L110:
 2274 0104 5BB2     		sxtb	r3, r3
 711:u8glib_arm_v1.18.1\src/u8g_font.c **** }
 2275              		.loc 1 711 0
 2276 0106 1846     		mov	r0, r3
 2277 0108 1C37     		adds	r7, r7, #28
 2278              		.cfi_def_cfa_offset 12
 2279 010a BD46     		mov	sp, r7
 2280              		.cfi_def_cfa_register 13
 2281              		@ sp needed
 2282 010c 90BD     		pop	{r4, r7, pc}
 2283              		.cfi_endproc
 2284              	.LFE34:
 2285              		.size	u8g_draw_glyph180, .-u8g_draw_glyph180
 2286 010e 00BF     		.section	.text.u8g_DrawGlyph180,"ax",%progbits
 2287              		.align	2
 2288              		.global	u8g_DrawGlyph180
 2289              		.thumb
 2290              		.thumb_func
 2291              		.type	u8g_DrawGlyph180, %function
 2292              	u8g_DrawGlyph180:
 2293              	.LFB35:
 712:u8glib_arm_v1.18.1\src/u8g_font.c **** 
 713:u8glib_arm_v1.18.1\src/u8g_font.c **** int8_t u8g_DrawGlyph180(u8g_t *u8g, u8g_uint_t x, u8g_uint_t y, uint8_t encoding)
 714:u8glib_arm_v1.18.1\src/u8g_font.c **** {
 2294              		.loc 1 714 0
 2295              		.cfi_startproc
ARM GAS  C:\Users\KJA\AppData\Local\Temp\ccevgiJT.s 			page 54


 2296              		@ args = 0, pretend = 0, frame = 8
 2297              		@ frame_needed = 1, uses_anonymous_args = 0
 2298 0000 80B5     		push	{r7, lr}
 2299              		.cfi_def_cfa_offset 8
 2300              		.cfi_offset 7, -8
 2301              		.cfi_offset 14, -4
 2302 0002 82B0     		sub	sp, sp, #8
 2303              		.cfi_def_cfa_offset 16
 2304 0004 00AF     		add	r7, sp, #0
 2305              		.cfi_def_cfa_register 7
 2306 0006 7860     		str	r0, [r7, #4]
 2307 0008 0846     		mov	r0, r1
 2308 000a 1146     		mov	r1, r2
 2309 000c 1A46     		mov	r2, r3
 2310 000e 0346     		mov	r3, r0
 2311 0010 FB70     		strb	r3, [r7, #3]
 2312 0012 0B46     		mov	r3, r1
 2313 0014 BB70     		strb	r3, [r7, #2]
 2314 0016 1346     		mov	r3, r2
 2315 0018 7B70     		strb	r3, [r7, #1]
 715:u8glib_arm_v1.18.1\src/u8g_font.c ****   y -= u8g->font_calc_vref(u8g);
 2316              		.loc 1 715 0
 2317 001a 7B68     		ldr	r3, [r7, #4]
 2318 001c 5B6A     		ldr	r3, [r3, #36]
 2319 001e 7868     		ldr	r0, [r7, #4]
 2320 0020 9847     		blx	r3
 2321 0022 0346     		mov	r3, r0
 2322 0024 1A46     		mov	r2, r3
 2323 0026 BB78     		ldrb	r3, [r7, #2]
 2324 0028 9B1A     		subs	r3, r3, r2
 2325 002a BB70     		strb	r3, [r7, #2]
 716:u8glib_arm_v1.18.1\src/u8g_font.c ****   return u8g_draw_glyph180(u8g, x, y, encoding);
 2326              		.loc 1 716 0
 2327 002c F978     		ldrb	r1, [r7, #3]	@ zero_extendqisi2
 2328 002e BA78     		ldrb	r2, [r7, #2]	@ zero_extendqisi2
 2329 0030 7B78     		ldrb	r3, [r7, #1]	@ zero_extendqisi2
 2330 0032 7868     		ldr	r0, [r7, #4]
 2331 0034 FFF7FEFF 		bl	u8g_draw_glyph180
 2332 0038 0346     		mov	r3, r0
 717:u8glib_arm_v1.18.1\src/u8g_font.c **** }
 2333              		.loc 1 717 0
 2334 003a 1846     		mov	r0, r3
 2335 003c 0837     		adds	r7, r7, #8
 2336              		.cfi_def_cfa_offset 8
 2337 003e BD46     		mov	sp, r7
 2338              		.cfi_def_cfa_register 13
 2339              		@ sp needed
 2340 0040 80BD     		pop	{r7, pc}
 2341              		.cfi_endproc
 2342              	.LFE35:
 2343              		.size	u8g_DrawGlyph180, .-u8g_DrawGlyph180
 2344 0042 00BF     		.section	.text.u8g_draw_glyph270,"ax",%progbits
 2345              		.align	2
 2346              		.global	u8g_draw_glyph270
 2347              		.thumb
 2348              		.thumb_func
 2349              		.type	u8g_draw_glyph270, %function
ARM GAS  C:\Users\KJA\AppData\Local\Temp\ccevgiJT.s 			page 55


 2350              	u8g_draw_glyph270:
 2351              	.LFB36:
 718:u8glib_arm_v1.18.1\src/u8g_font.c **** 
 719:u8glib_arm_v1.18.1\src/u8g_font.c **** 
 720:u8glib_arm_v1.18.1\src/u8g_font.c **** int8_t u8g_draw_glyph270(u8g_t *u8g, u8g_uint_t x, u8g_uint_t y, uint8_t encoding)
 721:u8glib_arm_v1.18.1\src/u8g_font.c **** {
 2352              		.loc 1 721 0
 2353              		.cfi_startproc
 2354              		@ args = 0, pretend = 0, frame = 24
 2355              		@ frame_needed = 1, uses_anonymous_args = 0
 2356 0000 90B5     		push	{r4, r7, lr}
 2357              		.cfi_def_cfa_offset 12
 2358              		.cfi_offset 4, -12
 2359              		.cfi_offset 7, -8
 2360              		.cfi_offset 14, -4
 2361 0002 89B0     		sub	sp, sp, #36
 2362              		.cfi_def_cfa_offset 48
 2363 0004 02AF     		add	r7, sp, #8
 2364              		.cfi_def_cfa 7, 40
 2365 0006 7860     		str	r0, [r7, #4]
 2366 0008 0846     		mov	r0, r1
 2367 000a 1146     		mov	r1, r2
 2368 000c 1A46     		mov	r2, r3
 2369 000e 0346     		mov	r3, r0
 2370 0010 FB70     		strb	r3, [r7, #3]
 2371 0012 0B46     		mov	r3, r1
 2372 0014 BB70     		strb	r3, [r7, #2]
 2373 0016 1346     		mov	r3, r2
 2374 0018 7B70     		strb	r3, [r7, #1]
 2375              	.LBB5:
 722:u8glib_arm_v1.18.1\src/u8g_font.c ****   const u8g_pgm_uint8_t *data;
 723:u8glib_arm_v1.18.1\src/u8g_font.c ****   uint8_t w, h;
 724:u8glib_arm_v1.18.1\src/u8g_font.c ****   uint8_t i, j;
 725:u8glib_arm_v1.18.1\src/u8g_font.c ****   u8g_uint_t ix, iy;
 726:u8glib_arm_v1.18.1\src/u8g_font.c **** 
 727:u8glib_arm_v1.18.1\src/u8g_font.c ****   {
 728:u8glib_arm_v1.18.1\src/u8g_font.c ****     u8g_glyph_t g = u8g_GetGlyph(u8g, encoding);
 2376              		.loc 1 728 0
 2377 001a 7B78     		ldrb	r3, [r7, #1]	@ zero_extendqisi2
 2378 001c 7868     		ldr	r0, [r7, #4]
 2379 001e 1946     		mov	r1, r3
 2380 0020 FFF7FEFF 		bl	u8g_GetGlyph
 2381 0024 F860     		str	r0, [r7, #12]
 729:u8glib_arm_v1.18.1\src/u8g_font.c ****     if ( g == NULL  )
 2382              		.loc 1 729 0
 2383 0026 FB68     		ldr	r3, [r7, #12]
 2384 0028 002B     		cmp	r3, #0
 2385 002a 01D1     		bne	.L119
 730:u8glib_arm_v1.18.1\src/u8g_font.c ****       return 0;
 2386              		.loc 1 730 0
 2387 002c 0023     		movs	r3, #0
 2388 002e 6EE0     		b	.L120
 2389              	.L119:
 731:u8glib_arm_v1.18.1\src/u8g_font.c ****     data = u8g_font_GetGlyphDataStart(u8g->font, g);
 2390              		.loc 1 731 0
 2391 0030 7B68     		ldr	r3, [r7, #4]
 2392 0032 9B68     		ldr	r3, [r3, #8]
ARM GAS  C:\Users\KJA\AppData\Local\Temp\ccevgiJT.s 			page 56


 2393 0034 1846     		mov	r0, r3
 2394 0036 F968     		ldr	r1, [r7, #12]
 2395 0038 FFF7FEFF 		bl	u8g_font_GetGlyphDataStart
 2396 003c 7861     		str	r0, [r7, #20]
 2397              	.LBE5:
 732:u8glib_arm_v1.18.1\src/u8g_font.c ****   }
 733:u8glib_arm_v1.18.1\src/u8g_font.c ****   
 734:u8glib_arm_v1.18.1\src/u8g_font.c ****   w = u8g->glyph_width;
 2398              		.loc 1 734 0
 2399 003e 7B68     		ldr	r3, [r7, #4]
 2400 0040 DB7F     		ldrb	r3, [r3, #31]
 2401 0042 FB72     		strb	r3, [r7, #11]
 735:u8glib_arm_v1.18.1\src/u8g_font.c ****   h = u8g->glyph_height;
 2402              		.loc 1 735 0
 2403 0044 7B68     		ldr	r3, [r7, #4]
 2404 0046 93F82030 		ldrb	r3, [r3, #32]
 2405 004a BB72     		strb	r3, [r7, #10]
 736:u8glib_arm_v1.18.1\src/u8g_font.c ****   
 737:u8glib_arm_v1.18.1\src/u8g_font.c ****   x -= u8g->glyph_y;
 2406              		.loc 1 737 0
 2407 004c 7B68     		ldr	r3, [r7, #4]
 2408 004e 9B7F     		ldrb	r3, [r3, #30]	@ zero_extendqisi2
 2409 0050 DBB2     		uxtb	r3, r3
 2410 0052 FA78     		ldrb	r2, [r7, #3]
 2411 0054 D31A     		subs	r3, r2, r3
 2412 0056 FB70     		strb	r3, [r7, #3]
 738:u8glib_arm_v1.18.1\src/u8g_font.c ****   x--;
 2413              		.loc 1 738 0
 2414 0058 FB78     		ldrb	r3, [r7, #3]	@ zero_extendqisi2
 2415 005a 013B     		subs	r3, r3, #1
 2416 005c FB70     		strb	r3, [r7, #3]
 739:u8glib_arm_v1.18.1\src/u8g_font.c ****   y -= u8g->glyph_x;
 2417              		.loc 1 739 0
 2418 005e 7B68     		ldr	r3, [r7, #4]
 2419 0060 5B7F     		ldrb	r3, [r3, #29]	@ zero_extendqisi2
 2420 0062 DBB2     		uxtb	r3, r3
 2421 0064 BA78     		ldrb	r2, [r7, #2]
 2422 0066 D31A     		subs	r3, r2, r3
 2423 0068 BB70     		strb	r3, [r7, #2]
 740:u8glib_arm_v1.18.1\src/u8g_font.c ****   
 741:u8glib_arm_v1.18.1\src/u8g_font.c ****   if ( u8g_IsBBXIntersection(u8g, x-(h-1), y-(w-1), h, w) == 0 )
 2424              		.loc 1 741 0
 2425 006a FA78     		ldrb	r2, [r7, #3]
 2426 006c BB7A     		ldrb	r3, [r7, #10]
 2427 006e D31A     		subs	r3, r2, r3
 2428 0070 DBB2     		uxtb	r3, r3
 2429 0072 0133     		adds	r3, r3, #1
 2430 0074 D9B2     		uxtb	r1, r3
 2431 0076 BA78     		ldrb	r2, [r7, #2]
 2432 0078 FB7A     		ldrb	r3, [r7, #11]
 2433 007a D31A     		subs	r3, r2, r3
 2434 007c DBB2     		uxtb	r3, r3
 2435 007e 0133     		adds	r3, r3, #1
 2436 0080 DAB2     		uxtb	r2, r3
 2437 0082 BC7A     		ldrb	r4, [r7, #10]	@ zero_extendqisi2
 2438 0084 FB7A     		ldrb	r3, [r7, #11]	@ zero_extendqisi2
 2439 0086 0093     		str	r3, [sp]
ARM GAS  C:\Users\KJA\AppData\Local\Temp\ccevgiJT.s 			page 57


 2440 0088 7868     		ldr	r0, [r7, #4]
 2441 008a 2346     		mov	r3, r4
 2442 008c FFF7FEFF 		bl	u8g_IsBBXIntersection
 2443 0090 0346     		mov	r3, r0
 2444 0092 002B     		cmp	r3, #0
 2445 0094 02D1     		bne	.L121
 742:u8glib_arm_v1.18.1\src/u8g_font.c ****     return u8g->glyph_dx;
 2446              		.loc 1 742 0
 2447 0096 7B68     		ldr	r3, [r7, #4]
 2448 0098 1B7F     		ldrb	r3, [r3, #28]	@ zero_extendqisi2
 2449 009a 38E0     		b	.L120
 2450              	.L121:
 743:u8glib_arm_v1.18.1\src/u8g_font.c ****   
 744:u8glib_arm_v1.18.1\src/u8g_font.c **** 
 745:u8glib_arm_v1.18.1\src/u8g_font.c ****   /* now, w is reused as bytes per line */
 746:u8glib_arm_v1.18.1\src/u8g_font.c ****   w += 7;
 2451              		.loc 1 746 0
 2452 009c FB7A     		ldrb	r3, [r7, #11]
 2453 009e 0733     		adds	r3, r3, #7
 2454 00a0 FB72     		strb	r3, [r7, #11]
 747:u8glib_arm_v1.18.1\src/u8g_font.c ****   w /= 8;  
 2455              		.loc 1 747 0
 2456 00a2 FB7A     		ldrb	r3, [r7, #11]	@ zero_extendqisi2
 2457 00a4 DB08     		lsrs	r3, r3, #3
 2458 00a6 FB72     		strb	r3, [r7, #11]
 748:u8glib_arm_v1.18.1\src/u8g_font.c ****       
 749:u8glib_arm_v1.18.1\src/u8g_font.c ****   ix = x;
 2459              		.loc 1 749 0
 2460 00a8 FB78     		ldrb	r3, [r7, #3]
 2461 00aa 7B74     		strb	r3, [r7, #17]
 750:u8glib_arm_v1.18.1\src/u8g_font.c ****   ix -= h;
 2462              		.loc 1 750 0
 2463 00ac 7A7C     		ldrb	r2, [r7, #17]
 2464 00ae BB7A     		ldrb	r3, [r7, #10]
 2465 00b0 D31A     		subs	r3, r2, r3
 2466 00b2 7B74     		strb	r3, [r7, #17]
 751:u8glib_arm_v1.18.1\src/u8g_font.c ****   ix++;
 2467              		.loc 1 751 0
 2468 00b4 7B7C     		ldrb	r3, [r7, #17]	@ zero_extendqisi2
 2469 00b6 0133     		adds	r3, r3, #1
 2470 00b8 7B74     		strb	r3, [r7, #17]
 752:u8glib_arm_v1.18.1\src/u8g_font.c ****   
 753:u8glib_arm_v1.18.1\src/u8g_font.c ****   for( j = 0; j < h; j++ )
 2471              		.loc 1 753 0
 2472 00ba 0023     		movs	r3, #0
 2473 00bc BB74     		strb	r3, [r7, #18]
 2474 00be 20E0     		b	.L122
 2475              	.L125:
 754:u8glib_arm_v1.18.1\src/u8g_font.c ****   {
 755:u8glib_arm_v1.18.1\src/u8g_font.c ****     iy = y;
 2476              		.loc 1 755 0
 2477 00c0 BB78     		ldrb	r3, [r7, #2]
 2478 00c2 3B74     		strb	r3, [r7, #16]
 756:u8glib_arm_v1.18.1\src/u8g_font.c ****     for( i = 0; i < w; i++ )
 2479              		.loc 1 756 0
 2480 00c4 0023     		movs	r3, #0
 2481 00c6 FB74     		strb	r3, [r7, #19]
ARM GAS  C:\Users\KJA\AppData\Local\Temp\ccevgiJT.s 			page 58


 2482 00c8 11E0     		b	.L123
 2483              	.L124:
 757:u8glib_arm_v1.18.1\src/u8g_font.c ****     {
 758:u8glib_arm_v1.18.1\src/u8g_font.c ****       u8g_Draw8Pixel(u8g, ix, iy, 3, u8g_pgm_read(data));
 2484              		.loc 1 758 0 discriminator 3
 2485 00ca 7B69     		ldr	r3, [r7, #20]
 2486 00cc 1B78     		ldrb	r3, [r3]	@ zero_extendqisi2
 2487 00ce 797C     		ldrb	r1, [r7, #17]	@ zero_extendqisi2
 2488 00d0 3A7C     		ldrb	r2, [r7, #16]	@ zero_extendqisi2
 2489 00d2 0093     		str	r3, [sp]
 2490 00d4 7868     		ldr	r0, [r7, #4]
 2491 00d6 0323     		movs	r3, #3
 2492 00d8 FFF7FEFF 		bl	u8g_Draw8Pixel
 759:u8glib_arm_v1.18.1\src/u8g_font.c ****       data++;
 2493              		.loc 1 759 0 discriminator 3
 2494 00dc 7B69     		ldr	r3, [r7, #20]
 2495 00de 0133     		adds	r3, r3, #1
 2496 00e0 7B61     		str	r3, [r7, #20]
 760:u8glib_arm_v1.18.1\src/u8g_font.c ****       iy-=8;
 2497              		.loc 1 760 0 discriminator 3
 2498 00e2 3B7C     		ldrb	r3, [r7, #16]
 2499 00e4 083B     		subs	r3, r3, #8
 2500 00e6 3B74     		strb	r3, [r7, #16]
 756:u8glib_arm_v1.18.1\src/u8g_font.c ****     {
 2501              		.loc 1 756 0 discriminator 3
 2502 00e8 FB7C     		ldrb	r3, [r7, #19]	@ zero_extendqisi2
 2503 00ea 0133     		adds	r3, r3, #1
 2504 00ec FB74     		strb	r3, [r7, #19]
 2505              	.L123:
 756:u8glib_arm_v1.18.1\src/u8g_font.c ****     {
 2506              		.loc 1 756 0 is_stmt 0 discriminator 1
 2507 00ee FA7C     		ldrb	r2, [r7, #19]	@ zero_extendqisi2
 2508 00f0 FB7A     		ldrb	r3, [r7, #11]	@ zero_extendqisi2
 2509 00f2 9A42     		cmp	r2, r3
 2510 00f4 E9D3     		bcc	.L124
 761:u8glib_arm_v1.18.1\src/u8g_font.c ****     }
 762:u8glib_arm_v1.18.1\src/u8g_font.c ****     ix++;
 2511              		.loc 1 762 0 is_stmt 1 discriminator 2
 2512 00f6 7B7C     		ldrb	r3, [r7, #17]	@ zero_extendqisi2
 2513 00f8 0133     		adds	r3, r3, #1
 2514 00fa 7B74     		strb	r3, [r7, #17]
 753:u8glib_arm_v1.18.1\src/u8g_font.c ****   {
 2515              		.loc 1 753 0 discriminator 2
 2516 00fc BB7C     		ldrb	r3, [r7, #18]	@ zero_extendqisi2
 2517 00fe 0133     		adds	r3, r3, #1
 2518 0100 BB74     		strb	r3, [r7, #18]
 2519              	.L122:
 753:u8glib_arm_v1.18.1\src/u8g_font.c ****   {
 2520              		.loc 1 753 0 is_stmt 0 discriminator 1
 2521 0102 BA7C     		ldrb	r2, [r7, #18]	@ zero_extendqisi2
 2522 0104 BB7A     		ldrb	r3, [r7, #10]	@ zero_extendqisi2
 2523 0106 9A42     		cmp	r2, r3
 2524 0108 DAD3     		bcc	.L125
 763:u8glib_arm_v1.18.1\src/u8g_font.c ****   }
 764:u8glib_arm_v1.18.1\src/u8g_font.c ****   return u8g->glyph_dx;
 2525              		.loc 1 764 0 is_stmt 1
 2526 010a 7B68     		ldr	r3, [r7, #4]
ARM GAS  C:\Users\KJA\AppData\Local\Temp\ccevgiJT.s 			page 59


 2527 010c 1B7F     		ldrb	r3, [r3, #28]	@ zero_extendqisi2
 2528              	.L120:
 2529 010e 5BB2     		sxtb	r3, r3
 765:u8glib_arm_v1.18.1\src/u8g_font.c **** }
 2530              		.loc 1 765 0
 2531 0110 1846     		mov	r0, r3
 2532 0112 1C37     		adds	r7, r7, #28
 2533              		.cfi_def_cfa_offset 12
 2534 0114 BD46     		mov	sp, r7
 2535              		.cfi_def_cfa_register 13
 2536              		@ sp needed
 2537 0116 90BD     		pop	{r4, r7, pc}
 2538              		.cfi_endproc
 2539              	.LFE36:
 2540              		.size	u8g_draw_glyph270, .-u8g_draw_glyph270
 2541              		.section	.text.u8g_DrawGlyph270,"ax",%progbits
 2542              		.align	2
 2543              		.global	u8g_DrawGlyph270
 2544              		.thumb
 2545              		.thumb_func
 2546              		.type	u8g_DrawGlyph270, %function
 2547              	u8g_DrawGlyph270:
 2548              	.LFB37:
 766:u8glib_arm_v1.18.1\src/u8g_font.c **** 
 767:u8glib_arm_v1.18.1\src/u8g_font.c **** int8_t u8g_DrawGlyph270(u8g_t *u8g, u8g_uint_t x, u8g_uint_t y, uint8_t encoding)
 768:u8glib_arm_v1.18.1\src/u8g_font.c **** {
 2549              		.loc 1 768 0
 2550              		.cfi_startproc
 2551              		@ args = 0, pretend = 0, frame = 8
 2552              		@ frame_needed = 1, uses_anonymous_args = 0
 2553 0000 80B5     		push	{r7, lr}
 2554              		.cfi_def_cfa_offset 8
 2555              		.cfi_offset 7, -8
 2556              		.cfi_offset 14, -4
 2557 0002 82B0     		sub	sp, sp, #8
 2558              		.cfi_def_cfa_offset 16
 2559 0004 00AF     		add	r7, sp, #0
 2560              		.cfi_def_cfa_register 7
 2561 0006 7860     		str	r0, [r7, #4]
 2562 0008 0846     		mov	r0, r1
 2563 000a 1146     		mov	r1, r2
 2564 000c 1A46     		mov	r2, r3
 2565 000e 0346     		mov	r3, r0
 2566 0010 FB70     		strb	r3, [r7, #3]
 2567 0012 0B46     		mov	r3, r1
 2568 0014 BB70     		strb	r3, [r7, #2]
 2569 0016 1346     		mov	r3, r2
 2570 0018 7B70     		strb	r3, [r7, #1]
 769:u8glib_arm_v1.18.1\src/u8g_font.c ****   x += u8g->font_calc_vref(u8g);
 2571              		.loc 1 769 0
 2572 001a 7B68     		ldr	r3, [r7, #4]
 2573 001c 5B6A     		ldr	r3, [r3, #36]
 2574 001e 7868     		ldr	r0, [r7, #4]
 2575 0020 9847     		blx	r3
 2576 0022 0346     		mov	r3, r0
 2577 0024 1A46     		mov	r2, r3
 2578 0026 FB78     		ldrb	r3, [r7, #3]
ARM GAS  C:\Users\KJA\AppData\Local\Temp\ccevgiJT.s 			page 60


 2579 0028 1344     		add	r3, r3, r2
 2580 002a FB70     		strb	r3, [r7, #3]
 770:u8glib_arm_v1.18.1\src/u8g_font.c ****   return u8g_draw_glyph270(u8g, x, y, encoding);
 2581              		.loc 1 770 0
 2582 002c F978     		ldrb	r1, [r7, #3]	@ zero_extendqisi2
 2583 002e BA78     		ldrb	r2, [r7, #2]	@ zero_extendqisi2
 2584 0030 7B78     		ldrb	r3, [r7, #1]	@ zero_extendqisi2
 2585 0032 7868     		ldr	r0, [r7, #4]
 2586 0034 FFF7FEFF 		bl	u8g_draw_glyph270
 2587 0038 0346     		mov	r3, r0
 771:u8glib_arm_v1.18.1\src/u8g_font.c **** }
 2588              		.loc 1 771 0
 2589 003a 1846     		mov	r0, r3
 2590 003c 0837     		adds	r7, r7, #8
 2591              		.cfi_def_cfa_offset 8
 2592 003e BD46     		mov	sp, r7
 2593              		.cfi_def_cfa_register 13
 2594              		@ sp needed
 2595 0040 80BD     		pop	{r7, pc}
 2596              		.cfi_endproc
 2597              	.LFE37:
 2598              		.size	u8g_DrawGlyph270, .-u8g_DrawGlyph270
 2599 0042 00BF     		.section	.text.u8g_DrawStr,"ax",%progbits
 2600              		.align	2
 2601              		.global	u8g_DrawStr
 2602              		.thumb
 2603              		.thumb_func
 2604              		.type	u8g_DrawStr, %function
 2605              	u8g_DrawStr:
 2606              	.LFB38:
 772:u8glib_arm_v1.18.1\src/u8g_font.c **** 
 773:u8glib_arm_v1.18.1\src/u8g_font.c **** 
 774:u8glib_arm_v1.18.1\src/u8g_font.c **** 
 775:u8glib_arm_v1.18.1\src/u8g_font.c **** #ifdef OBSOLETE
 776:u8glib_arm_v1.18.1\src/u8g_font.c **** /*
 777:u8glib_arm_v1.18.1\src/u8g_font.c ****   Draw a glyph
 778:u8glib_arm_v1.18.1\src/u8g_font.c ****   x,y: lower left corner of the font bounding box
 779:u8glib_arm_v1.18.1\src/u8g_font.c **** */
 780:u8glib_arm_v1.18.1\src/u8g_font.c **** int8_t u8g_DrawGlyphFontBBX(u8g_t *u8g, u8g_uint_t x, u8g_uint_t y, uint8_t dir, uint8_t encoding)
 781:u8glib_arm_v1.18.1\src/u8g_font.c **** {
 782:u8glib_arm_v1.18.1\src/u8g_font.c ****   /* TODO: apply "dir" */
 783:u8glib_arm_v1.18.1\src/u8g_font.c ****   x -= u8g_GetFontBBXOffX(u8g);
 784:u8glib_arm_v1.18.1\src/u8g_font.c ****   y += u8g_GetFontBBXOffY(u8g);
 785:u8glib_arm_v1.18.1\src/u8g_font.c ****   return u8g_DrawGlyphDir(u8g, x, y, dir, encoding);
 786:u8glib_arm_v1.18.1\src/u8g_font.c **** }
 787:u8glib_arm_v1.18.1\src/u8g_font.c **** #endif
 788:u8glib_arm_v1.18.1\src/u8g_font.c **** 
 789:u8glib_arm_v1.18.1\src/u8g_font.c **** /*========================================================================*/
 790:u8glib_arm_v1.18.1\src/u8g_font.c **** /* string drawing procedures */
 791:u8glib_arm_v1.18.1\src/u8g_font.c **** 
 792:u8glib_arm_v1.18.1\src/u8g_font.c **** 
 793:u8glib_arm_v1.18.1\src/u8g_font.c **** u8g_uint_t u8g_DrawStr(u8g_t *u8g, u8g_uint_t x, u8g_uint_t y, const char *s)
 794:u8glib_arm_v1.18.1\src/u8g_font.c **** {
 2607              		.loc 1 794 0
 2608              		.cfi_startproc
 2609              		@ args = 0, pretend = 0, frame = 24
 2610              		@ frame_needed = 1, uses_anonymous_args = 0
ARM GAS  C:\Users\KJA\AppData\Local\Temp\ccevgiJT.s 			page 61


 2611 0000 80B5     		push	{r7, lr}
 2612              		.cfi_def_cfa_offset 8
 2613              		.cfi_offset 7, -8
 2614              		.cfi_offset 14, -4
 2615 0002 86B0     		sub	sp, sp, #24
 2616              		.cfi_def_cfa_offset 32
 2617 0004 00AF     		add	r7, sp, #0
 2618              		.cfi_def_cfa_register 7
 2619 0006 F860     		str	r0, [r7, #12]
 2620 0008 7B60     		str	r3, [r7, #4]
 2621 000a 0B46     		mov	r3, r1
 2622 000c FB72     		strb	r3, [r7, #11]
 2623 000e 1346     		mov	r3, r2
 2624 0010 BB72     		strb	r3, [r7, #10]
 795:u8glib_arm_v1.18.1\src/u8g_font.c ****   u8g_uint_t t = 0;
 2625              		.loc 1 795 0
 2626 0012 0023     		movs	r3, #0
 2627 0014 FB75     		strb	r3, [r7, #23]
 796:u8glib_arm_v1.18.1\src/u8g_font.c ****   int8_t d;
 797:u8glib_arm_v1.18.1\src/u8g_font.c ****   
 798:u8glib_arm_v1.18.1\src/u8g_font.c ****   //u8g_uint_t u8g_GetStrWidth(u8g, s);
 799:u8glib_arm_v1.18.1\src/u8g_font.c ****   //u8g_font_GetFontAscent(u8g->font)-u8g_font_GetFontDescent(u8g->font);
 800:u8glib_arm_v1.18.1\src/u8g_font.c ****   
 801:u8glib_arm_v1.18.1\src/u8g_font.c ****   y += u8g->font_calc_vref(u8g);
 2628              		.loc 1 801 0
 2629 0016 FB68     		ldr	r3, [r7, #12]
 2630 0018 5B6A     		ldr	r3, [r3, #36]
 2631 001a F868     		ldr	r0, [r7, #12]
 2632 001c 9847     		blx	r3
 2633 001e 0346     		mov	r3, r0
 2634 0020 1A46     		mov	r2, r3
 2635 0022 BB7A     		ldrb	r3, [r7, #10]
 2636 0024 1344     		add	r3, r3, r2
 2637 0026 BB72     		strb	r3, [r7, #10]
 802:u8glib_arm_v1.18.1\src/u8g_font.c ****   
 803:u8glib_arm_v1.18.1\src/u8g_font.c ****   while( *s != '\0' )
 2638              		.loc 1 803 0
 2639 0028 13E0     		b	.L129
 2640              	.L130:
 804:u8glib_arm_v1.18.1\src/u8g_font.c ****   {
 805:u8glib_arm_v1.18.1\src/u8g_font.c ****     d = u8g_draw_glyph(u8g, x, y, *s);
 2641              		.loc 1 805 0
 2642 002a 7B68     		ldr	r3, [r7, #4]
 2643 002c 1B78     		ldrb	r3, [r3]	@ zero_extendqisi2
 2644 002e F97A     		ldrb	r1, [r7, #11]	@ zero_extendqisi2
 2645 0030 BA7A     		ldrb	r2, [r7, #10]	@ zero_extendqisi2
 2646 0032 F868     		ldr	r0, [r7, #12]
 2647 0034 FFF7FEFF 		bl	u8g_draw_glyph
 2648 0038 0346     		mov	r3, r0
 2649 003a BB75     		strb	r3, [r7, #22]
 806:u8glib_arm_v1.18.1\src/u8g_font.c ****     x += d;
 2650              		.loc 1 806 0
 2651 003c BA7D     		ldrb	r2, [r7, #22]	@ zero_extendqisi2
 2652 003e FB7A     		ldrb	r3, [r7, #11]
 2653 0040 1344     		add	r3, r3, r2
 2654 0042 FB72     		strb	r3, [r7, #11]
 807:u8glib_arm_v1.18.1\src/u8g_font.c ****     t += d;
ARM GAS  C:\Users\KJA\AppData\Local\Temp\ccevgiJT.s 			page 62


 2655              		.loc 1 807 0
 2656 0044 BA7D     		ldrb	r2, [r7, #22]	@ zero_extendqisi2
 2657 0046 FB7D     		ldrb	r3, [r7, #23]
 2658 0048 1344     		add	r3, r3, r2
 2659 004a FB75     		strb	r3, [r7, #23]
 808:u8glib_arm_v1.18.1\src/u8g_font.c ****     s++;
 2660              		.loc 1 808 0
 2661 004c 7B68     		ldr	r3, [r7, #4]
 2662 004e 0133     		adds	r3, r3, #1
 2663 0050 7B60     		str	r3, [r7, #4]
 2664              	.L129:
 803:u8glib_arm_v1.18.1\src/u8g_font.c ****   {
 2665              		.loc 1 803 0
 2666 0052 7B68     		ldr	r3, [r7, #4]
 2667 0054 1B78     		ldrb	r3, [r3]	@ zero_extendqisi2
 2668 0056 002B     		cmp	r3, #0
 2669 0058 E7D1     		bne	.L130
 809:u8glib_arm_v1.18.1\src/u8g_font.c ****   }
 810:u8glib_arm_v1.18.1\src/u8g_font.c ****   return t;
 2670              		.loc 1 810 0
 2671 005a FB7D     		ldrb	r3, [r7, #23]	@ zero_extendqisi2
 811:u8glib_arm_v1.18.1\src/u8g_font.c **** }
 2672              		.loc 1 811 0
 2673 005c 1846     		mov	r0, r3
 2674 005e 1837     		adds	r7, r7, #24
 2675              		.cfi_def_cfa_offset 8
 2676 0060 BD46     		mov	sp, r7
 2677              		.cfi_def_cfa_register 13
 2678              		@ sp needed
 2679 0062 80BD     		pop	{r7, pc}
 2680              		.cfi_endproc
 2681              	.LFE38:
 2682              		.size	u8g_DrawStr, .-u8g_DrawStr
 2683              		.section	.text.u8g_DrawStr90,"ax",%progbits
 2684              		.align	2
 2685              		.global	u8g_DrawStr90
 2686              		.thumb
 2687              		.thumb_func
 2688              		.type	u8g_DrawStr90, %function
 2689              	u8g_DrawStr90:
 2690              	.LFB39:
 812:u8glib_arm_v1.18.1\src/u8g_font.c **** 
 813:u8glib_arm_v1.18.1\src/u8g_font.c **** u8g_uint_t u8g_DrawStr90(u8g_t *u8g, u8g_uint_t x, u8g_uint_t y, const char *s)
 814:u8glib_arm_v1.18.1\src/u8g_font.c **** {
 2691              		.loc 1 814 0
 2692              		.cfi_startproc
 2693              		@ args = 0, pretend = 0, frame = 24
 2694              		@ frame_needed = 1, uses_anonymous_args = 0
 2695 0000 80B5     		push	{r7, lr}
 2696              		.cfi_def_cfa_offset 8
 2697              		.cfi_offset 7, -8
 2698              		.cfi_offset 14, -4
 2699 0002 86B0     		sub	sp, sp, #24
 2700              		.cfi_def_cfa_offset 32
 2701 0004 00AF     		add	r7, sp, #0
 2702              		.cfi_def_cfa_register 7
 2703 0006 F860     		str	r0, [r7, #12]
ARM GAS  C:\Users\KJA\AppData\Local\Temp\ccevgiJT.s 			page 63


 2704 0008 7B60     		str	r3, [r7, #4]
 2705 000a 0B46     		mov	r3, r1
 2706 000c FB72     		strb	r3, [r7, #11]
 2707 000e 1346     		mov	r3, r2
 2708 0010 BB72     		strb	r3, [r7, #10]
 815:u8glib_arm_v1.18.1\src/u8g_font.c ****   u8g_uint_t t = 0;
 2709              		.loc 1 815 0
 2710 0012 0023     		movs	r3, #0
 2711 0014 FB75     		strb	r3, [r7, #23]
 816:u8glib_arm_v1.18.1\src/u8g_font.c ****   int8_t d;
 817:u8glib_arm_v1.18.1\src/u8g_font.c ****     
 818:u8glib_arm_v1.18.1\src/u8g_font.c ****   x -= u8g->font_calc_vref(u8g);
 2712              		.loc 1 818 0
 2713 0016 FB68     		ldr	r3, [r7, #12]
 2714 0018 5B6A     		ldr	r3, [r3, #36]
 2715 001a F868     		ldr	r0, [r7, #12]
 2716 001c 9847     		blx	r3
 2717 001e 0346     		mov	r3, r0
 2718 0020 1A46     		mov	r2, r3
 2719 0022 FB7A     		ldrb	r3, [r7, #11]
 2720 0024 9B1A     		subs	r3, r3, r2
 2721 0026 FB72     		strb	r3, [r7, #11]
 819:u8glib_arm_v1.18.1\src/u8g_font.c **** 
 820:u8glib_arm_v1.18.1\src/u8g_font.c ****   while( *s != '\0' )
 2722              		.loc 1 820 0
 2723 0028 13E0     		b	.L133
 2724              	.L134:
 821:u8glib_arm_v1.18.1\src/u8g_font.c ****   {
 822:u8glib_arm_v1.18.1\src/u8g_font.c ****     d = u8g_draw_glyph90(u8g, x, y, *s);
 2725              		.loc 1 822 0
 2726 002a 7B68     		ldr	r3, [r7, #4]
 2727 002c 1B78     		ldrb	r3, [r3]	@ zero_extendqisi2
 2728 002e F97A     		ldrb	r1, [r7, #11]	@ zero_extendqisi2
 2729 0030 BA7A     		ldrb	r2, [r7, #10]	@ zero_extendqisi2
 2730 0032 F868     		ldr	r0, [r7, #12]
 2731 0034 FFF7FEFF 		bl	u8g_draw_glyph90
 2732 0038 0346     		mov	r3, r0
 2733 003a BB75     		strb	r3, [r7, #22]
 823:u8glib_arm_v1.18.1\src/u8g_font.c ****     y += d;
 2734              		.loc 1 823 0
 2735 003c BA7D     		ldrb	r2, [r7, #22]	@ zero_extendqisi2
 2736 003e BB7A     		ldrb	r3, [r7, #10]
 2737 0040 1344     		add	r3, r3, r2
 2738 0042 BB72     		strb	r3, [r7, #10]
 824:u8glib_arm_v1.18.1\src/u8g_font.c ****     t += d;
 2739              		.loc 1 824 0
 2740 0044 BA7D     		ldrb	r2, [r7, #22]	@ zero_extendqisi2
 2741 0046 FB7D     		ldrb	r3, [r7, #23]
 2742 0048 1344     		add	r3, r3, r2
 2743 004a FB75     		strb	r3, [r7, #23]
 825:u8glib_arm_v1.18.1\src/u8g_font.c ****     s++;
 2744              		.loc 1 825 0
 2745 004c 7B68     		ldr	r3, [r7, #4]
 2746 004e 0133     		adds	r3, r3, #1
 2747 0050 7B60     		str	r3, [r7, #4]
 2748              	.L133:
 820:u8glib_arm_v1.18.1\src/u8g_font.c ****   {
ARM GAS  C:\Users\KJA\AppData\Local\Temp\ccevgiJT.s 			page 64


 2749              		.loc 1 820 0
 2750 0052 7B68     		ldr	r3, [r7, #4]
 2751 0054 1B78     		ldrb	r3, [r3]	@ zero_extendqisi2
 2752 0056 002B     		cmp	r3, #0
 2753 0058 E7D1     		bne	.L134
 826:u8glib_arm_v1.18.1\src/u8g_font.c ****   }
 827:u8glib_arm_v1.18.1\src/u8g_font.c ****   return t;
 2754              		.loc 1 827 0
 2755 005a FB7D     		ldrb	r3, [r7, #23]	@ zero_extendqisi2
 828:u8glib_arm_v1.18.1\src/u8g_font.c **** }
 2756              		.loc 1 828 0
 2757 005c 1846     		mov	r0, r3
 2758 005e 1837     		adds	r7, r7, #24
 2759              		.cfi_def_cfa_offset 8
 2760 0060 BD46     		mov	sp, r7
 2761              		.cfi_def_cfa_register 13
 2762              		@ sp needed
 2763 0062 80BD     		pop	{r7, pc}
 2764              		.cfi_endproc
 2765              	.LFE39:
 2766              		.size	u8g_DrawStr90, .-u8g_DrawStr90
 2767              		.section	.text.u8g_DrawStr180,"ax",%progbits
 2768              		.align	2
 2769              		.global	u8g_DrawStr180
 2770              		.thumb
 2771              		.thumb_func
 2772              		.type	u8g_DrawStr180, %function
 2773              	u8g_DrawStr180:
 2774              	.LFB40:
 829:u8glib_arm_v1.18.1\src/u8g_font.c **** 
 830:u8glib_arm_v1.18.1\src/u8g_font.c **** u8g_uint_t u8g_DrawStr180(u8g_t *u8g, u8g_uint_t x, u8g_uint_t y, const char *s)
 831:u8glib_arm_v1.18.1\src/u8g_font.c **** {
 2775              		.loc 1 831 0
 2776              		.cfi_startproc
 2777              		@ args = 0, pretend = 0, frame = 24
 2778              		@ frame_needed = 1, uses_anonymous_args = 0
 2779 0000 80B5     		push	{r7, lr}
 2780              		.cfi_def_cfa_offset 8
 2781              		.cfi_offset 7, -8
 2782              		.cfi_offset 14, -4
 2783 0002 86B0     		sub	sp, sp, #24
 2784              		.cfi_def_cfa_offset 32
 2785 0004 00AF     		add	r7, sp, #0
 2786              		.cfi_def_cfa_register 7
 2787 0006 F860     		str	r0, [r7, #12]
 2788 0008 7B60     		str	r3, [r7, #4]
 2789 000a 0B46     		mov	r3, r1
 2790 000c FB72     		strb	r3, [r7, #11]
 2791 000e 1346     		mov	r3, r2
 2792 0010 BB72     		strb	r3, [r7, #10]
 832:u8glib_arm_v1.18.1\src/u8g_font.c ****   u8g_uint_t t = 0;
 2793              		.loc 1 832 0
 2794 0012 0023     		movs	r3, #0
 2795 0014 FB75     		strb	r3, [r7, #23]
 833:u8glib_arm_v1.18.1\src/u8g_font.c ****   int8_t d;
 834:u8glib_arm_v1.18.1\src/u8g_font.c **** 
 835:u8glib_arm_v1.18.1\src/u8g_font.c ****   y -= u8g->font_calc_vref(u8g);
ARM GAS  C:\Users\KJA\AppData\Local\Temp\ccevgiJT.s 			page 65


 2796              		.loc 1 835 0
 2797 0016 FB68     		ldr	r3, [r7, #12]
 2798 0018 5B6A     		ldr	r3, [r3, #36]
 2799 001a F868     		ldr	r0, [r7, #12]
 2800 001c 9847     		blx	r3
 2801 001e 0346     		mov	r3, r0
 2802 0020 1A46     		mov	r2, r3
 2803 0022 BB7A     		ldrb	r3, [r7, #10]
 2804 0024 9B1A     		subs	r3, r3, r2
 2805 0026 BB72     		strb	r3, [r7, #10]
 836:u8glib_arm_v1.18.1\src/u8g_font.c ****   
 837:u8glib_arm_v1.18.1\src/u8g_font.c ****   while( *s != '\0' )
 2806              		.loc 1 837 0
 2807 0028 13E0     		b	.L137
 2808              	.L138:
 838:u8glib_arm_v1.18.1\src/u8g_font.c ****   {
 839:u8glib_arm_v1.18.1\src/u8g_font.c ****     d = u8g_draw_glyph180(u8g, x, y, *s);
 2809              		.loc 1 839 0
 2810 002a 7B68     		ldr	r3, [r7, #4]
 2811 002c 1B78     		ldrb	r3, [r3]	@ zero_extendqisi2
 2812 002e F97A     		ldrb	r1, [r7, #11]	@ zero_extendqisi2
 2813 0030 BA7A     		ldrb	r2, [r7, #10]	@ zero_extendqisi2
 2814 0032 F868     		ldr	r0, [r7, #12]
 2815 0034 FFF7FEFF 		bl	u8g_draw_glyph180
 2816 0038 0346     		mov	r3, r0
 2817 003a BB75     		strb	r3, [r7, #22]
 840:u8glib_arm_v1.18.1\src/u8g_font.c ****     x -= d;
 2818              		.loc 1 840 0
 2819 003c BB7D     		ldrb	r3, [r7, #22]	@ zero_extendqisi2
 2820 003e FA7A     		ldrb	r2, [r7, #11]
 2821 0040 D31A     		subs	r3, r2, r3
 2822 0042 FB72     		strb	r3, [r7, #11]
 841:u8glib_arm_v1.18.1\src/u8g_font.c ****     t += d;
 2823              		.loc 1 841 0
 2824 0044 BA7D     		ldrb	r2, [r7, #22]	@ zero_extendqisi2
 2825 0046 FB7D     		ldrb	r3, [r7, #23]
 2826 0048 1344     		add	r3, r3, r2
 2827 004a FB75     		strb	r3, [r7, #23]
 842:u8glib_arm_v1.18.1\src/u8g_font.c ****     s++;
 2828              		.loc 1 842 0
 2829 004c 7B68     		ldr	r3, [r7, #4]
 2830 004e 0133     		adds	r3, r3, #1
 2831 0050 7B60     		str	r3, [r7, #4]
 2832              	.L137:
 837:u8glib_arm_v1.18.1\src/u8g_font.c ****   {
 2833              		.loc 1 837 0
 2834 0052 7B68     		ldr	r3, [r7, #4]
 2835 0054 1B78     		ldrb	r3, [r3]	@ zero_extendqisi2
 2836 0056 002B     		cmp	r3, #0
 2837 0058 E7D1     		bne	.L138
 843:u8glib_arm_v1.18.1\src/u8g_font.c ****   }
 844:u8glib_arm_v1.18.1\src/u8g_font.c ****   return t;
 2838              		.loc 1 844 0
 2839 005a FB7D     		ldrb	r3, [r7, #23]	@ zero_extendqisi2
 845:u8glib_arm_v1.18.1\src/u8g_font.c **** }
 2840              		.loc 1 845 0
 2841 005c 1846     		mov	r0, r3
ARM GAS  C:\Users\KJA\AppData\Local\Temp\ccevgiJT.s 			page 66


 2842 005e 1837     		adds	r7, r7, #24
 2843              		.cfi_def_cfa_offset 8
 2844 0060 BD46     		mov	sp, r7
 2845              		.cfi_def_cfa_register 13
 2846              		@ sp needed
 2847 0062 80BD     		pop	{r7, pc}
 2848              		.cfi_endproc
 2849              	.LFE40:
 2850              		.size	u8g_DrawStr180, .-u8g_DrawStr180
 2851              		.section	.text.u8g_DrawStr270,"ax",%progbits
 2852              		.align	2
 2853              		.global	u8g_DrawStr270
 2854              		.thumb
 2855              		.thumb_func
 2856              		.type	u8g_DrawStr270, %function
 2857              	u8g_DrawStr270:
 2858              	.LFB41:
 846:u8glib_arm_v1.18.1\src/u8g_font.c **** 
 847:u8glib_arm_v1.18.1\src/u8g_font.c **** u8g_uint_t u8g_DrawStr270(u8g_t *u8g, u8g_uint_t x, u8g_uint_t y, const char *s)
 848:u8glib_arm_v1.18.1\src/u8g_font.c **** {
 2859              		.loc 1 848 0
 2860              		.cfi_startproc
 2861              		@ args = 0, pretend = 0, frame = 24
 2862              		@ frame_needed = 1, uses_anonymous_args = 0
 2863 0000 80B5     		push	{r7, lr}
 2864              		.cfi_def_cfa_offset 8
 2865              		.cfi_offset 7, -8
 2866              		.cfi_offset 14, -4
 2867 0002 86B0     		sub	sp, sp, #24
 2868              		.cfi_def_cfa_offset 32
 2869 0004 00AF     		add	r7, sp, #0
 2870              		.cfi_def_cfa_register 7
 2871 0006 F860     		str	r0, [r7, #12]
 2872 0008 7B60     		str	r3, [r7, #4]
 2873 000a 0B46     		mov	r3, r1
 2874 000c FB72     		strb	r3, [r7, #11]
 2875 000e 1346     		mov	r3, r2
 2876 0010 BB72     		strb	r3, [r7, #10]
 849:u8glib_arm_v1.18.1\src/u8g_font.c ****   u8g_uint_t t = 0;
 2877              		.loc 1 849 0
 2878 0012 0023     		movs	r3, #0
 2879 0014 FB75     		strb	r3, [r7, #23]
 850:u8glib_arm_v1.18.1\src/u8g_font.c ****   int8_t d;
 851:u8glib_arm_v1.18.1\src/u8g_font.c **** 
 852:u8glib_arm_v1.18.1\src/u8g_font.c ****   x += u8g->font_calc_vref(u8g);
 2880              		.loc 1 852 0
 2881 0016 FB68     		ldr	r3, [r7, #12]
 2882 0018 5B6A     		ldr	r3, [r3, #36]
 2883 001a F868     		ldr	r0, [r7, #12]
 2884 001c 9847     		blx	r3
 2885 001e 0346     		mov	r3, r0
 2886 0020 1A46     		mov	r2, r3
 2887 0022 FB7A     		ldrb	r3, [r7, #11]
 2888 0024 1344     		add	r3, r3, r2
 2889 0026 FB72     		strb	r3, [r7, #11]
 853:u8glib_arm_v1.18.1\src/u8g_font.c **** 
 854:u8glib_arm_v1.18.1\src/u8g_font.c ****   while( *s != '\0' )
ARM GAS  C:\Users\KJA\AppData\Local\Temp\ccevgiJT.s 			page 67


 2890              		.loc 1 854 0
 2891 0028 13E0     		b	.L141
 2892              	.L142:
 855:u8glib_arm_v1.18.1\src/u8g_font.c ****   {
 856:u8glib_arm_v1.18.1\src/u8g_font.c ****     d = u8g_draw_glyph270(u8g, x, y, *s);
 2893              		.loc 1 856 0
 2894 002a 7B68     		ldr	r3, [r7, #4]
 2895 002c 1B78     		ldrb	r3, [r3]	@ zero_extendqisi2
 2896 002e F97A     		ldrb	r1, [r7, #11]	@ zero_extendqisi2
 2897 0030 BA7A     		ldrb	r2, [r7, #10]	@ zero_extendqisi2
 2898 0032 F868     		ldr	r0, [r7, #12]
 2899 0034 FFF7FEFF 		bl	u8g_draw_glyph270
 2900 0038 0346     		mov	r3, r0
 2901 003a BB75     		strb	r3, [r7, #22]
 857:u8glib_arm_v1.18.1\src/u8g_font.c ****     y -= d;
 2902              		.loc 1 857 0
 2903 003c BB7D     		ldrb	r3, [r7, #22]	@ zero_extendqisi2
 2904 003e BA7A     		ldrb	r2, [r7, #10]
 2905 0040 D31A     		subs	r3, r2, r3
 2906 0042 BB72     		strb	r3, [r7, #10]
 858:u8glib_arm_v1.18.1\src/u8g_font.c ****     t += d;
 2907              		.loc 1 858 0
 2908 0044 BA7D     		ldrb	r2, [r7, #22]	@ zero_extendqisi2
 2909 0046 FB7D     		ldrb	r3, [r7, #23]
 2910 0048 1344     		add	r3, r3, r2
 2911 004a FB75     		strb	r3, [r7, #23]
 859:u8glib_arm_v1.18.1\src/u8g_font.c ****     s++;
 2912              		.loc 1 859 0
 2913 004c 7B68     		ldr	r3, [r7, #4]
 2914 004e 0133     		adds	r3, r3, #1
 2915 0050 7B60     		str	r3, [r7, #4]
 2916              	.L141:
 854:u8glib_arm_v1.18.1\src/u8g_font.c ****   {
 2917              		.loc 1 854 0
 2918 0052 7B68     		ldr	r3, [r7, #4]
 2919 0054 1B78     		ldrb	r3, [r3]	@ zero_extendqisi2
 2920 0056 002B     		cmp	r3, #0
 2921 0058 E7D1     		bne	.L142
 860:u8glib_arm_v1.18.1\src/u8g_font.c ****   }
 861:u8glib_arm_v1.18.1\src/u8g_font.c ****   return t;
 2922              		.loc 1 861 0
 2923 005a FB7D     		ldrb	r3, [r7, #23]	@ zero_extendqisi2
 862:u8glib_arm_v1.18.1\src/u8g_font.c **** }
 2924              		.loc 1 862 0
 2925 005c 1846     		mov	r0, r3
 2926 005e 1837     		adds	r7, r7, #24
 2927              		.cfi_def_cfa_offset 8
 2928 0060 BD46     		mov	sp, r7
 2929              		.cfi_def_cfa_register 13
 2930              		@ sp needed
 2931 0062 80BD     		pop	{r7, pc}
 2932              		.cfi_endproc
 2933              	.LFE41:
 2934              		.size	u8g_DrawStr270, .-u8g_DrawStr270
 2935              		.section	.text.u8g_DrawStrDir,"ax",%progbits
 2936              		.align	2
 2937              		.global	u8g_DrawStrDir
ARM GAS  C:\Users\KJA\AppData\Local\Temp\ccevgiJT.s 			page 68


 2938              		.thumb
 2939              		.thumb_func
 2940              		.type	u8g_DrawStrDir, %function
 2941              	u8g_DrawStrDir:
 2942              	.LFB42:
 863:u8glib_arm_v1.18.1\src/u8g_font.c **** 
 864:u8glib_arm_v1.18.1\src/u8g_font.c **** u8g_uint_t u8g_DrawStrDir(u8g_t *u8g, u8g_uint_t x, u8g_uint_t y, uint8_t dir, const char *s)
 865:u8glib_arm_v1.18.1\src/u8g_font.c **** {
 2943              		.loc 1 865 0
 2944              		.cfi_startproc
 2945              		@ args = 4, pretend = 0, frame = 8
 2946              		@ frame_needed = 1, uses_anonymous_args = 0
 2947 0000 80B5     		push	{r7, lr}
 2948              		.cfi_def_cfa_offset 8
 2949              		.cfi_offset 7, -8
 2950              		.cfi_offset 14, -4
 2951 0002 82B0     		sub	sp, sp, #8
 2952              		.cfi_def_cfa_offset 16
 2953 0004 00AF     		add	r7, sp, #0
 2954              		.cfi_def_cfa_register 7
 2955 0006 7860     		str	r0, [r7, #4]
 2956 0008 0846     		mov	r0, r1
 2957 000a 1146     		mov	r1, r2
 2958 000c 1A46     		mov	r2, r3
 2959 000e 0346     		mov	r3, r0
 2960 0010 FB70     		strb	r3, [r7, #3]
 2961 0012 0B46     		mov	r3, r1
 2962 0014 BB70     		strb	r3, [r7, #2]
 2963 0016 1346     		mov	r3, r2
 2964 0018 7B70     		strb	r3, [r7, #1]
 866:u8glib_arm_v1.18.1\src/u8g_font.c ****   switch(dir)
 2965              		.loc 1 866 0
 2966 001a 7B78     		ldrb	r3, [r7, #1]	@ zero_extendqisi2
 2967 001c 032B     		cmp	r3, #3
 2968 001e 33D8     		bhi	.L145
 2969 0020 01A2     		adr	r2, .L147
 2970 0022 52F823F0 		ldr	pc, [r2, r3, lsl #2]
 2971 0026 00BF     		.p2align 2
 2972              	.L147:
 2973 0028 39000000 		.word	.L146+1
 2974 002c 4D000000 		.word	.L148+1
 2975 0030 61000000 		.word	.L149+1
 2976 0034 75000000 		.word	.L150+1
 2977              		.p2align 1
 2978              	.L146:
 867:u8glib_arm_v1.18.1\src/u8g_font.c ****   {
 868:u8glib_arm_v1.18.1\src/u8g_font.c ****     case 0:
 869:u8glib_arm_v1.18.1\src/u8g_font.c ****       return u8g_DrawStr(u8g, x, y, s);
 2979              		.loc 1 869 0
 2980 0038 FA78     		ldrb	r2, [r7, #3]	@ zero_extendqisi2
 2981 003a BB78     		ldrb	r3, [r7, #2]	@ zero_extendqisi2
 2982 003c 7868     		ldr	r0, [r7, #4]
 2983 003e 1146     		mov	r1, r2
 2984 0040 1A46     		mov	r2, r3
 2985 0042 3B69     		ldr	r3, [r7, #16]
 2986 0044 FFF7FEFF 		bl	u8g_DrawStr
 2987 0048 0346     		mov	r3, r0
ARM GAS  C:\Users\KJA\AppData\Local\Temp\ccevgiJT.s 			page 69


 2988 004a 1EE0     		b	.L151
 2989              	.L148:
 870:u8glib_arm_v1.18.1\src/u8g_font.c ****     case 1:
 871:u8glib_arm_v1.18.1\src/u8g_font.c ****       return u8g_DrawStr90(u8g, x, y, s);
 2990              		.loc 1 871 0
 2991 004c FA78     		ldrb	r2, [r7, #3]	@ zero_extendqisi2
 2992 004e BB78     		ldrb	r3, [r7, #2]	@ zero_extendqisi2
 2993 0050 7868     		ldr	r0, [r7, #4]
 2994 0052 1146     		mov	r1, r2
 2995 0054 1A46     		mov	r2, r3
 2996 0056 3B69     		ldr	r3, [r7, #16]
 2997 0058 FFF7FEFF 		bl	u8g_DrawStr90
 2998 005c 0346     		mov	r3, r0
 2999 005e 14E0     		b	.L151
 3000              	.L149:
 872:u8glib_arm_v1.18.1\src/u8g_font.c ****     case 2:
 873:u8glib_arm_v1.18.1\src/u8g_font.c ****       return u8g_DrawStr180(u8g, x, y, s);
 3001              		.loc 1 873 0
 3002 0060 FA78     		ldrb	r2, [r7, #3]	@ zero_extendqisi2
 3003 0062 BB78     		ldrb	r3, [r7, #2]	@ zero_extendqisi2
 3004 0064 7868     		ldr	r0, [r7, #4]
 3005 0066 1146     		mov	r1, r2
 3006 0068 1A46     		mov	r2, r3
 3007 006a 3B69     		ldr	r3, [r7, #16]
 3008 006c FFF7FEFF 		bl	u8g_DrawStr180
 3009 0070 0346     		mov	r3, r0
 3010 0072 0AE0     		b	.L151
 3011              	.L150:
 874:u8glib_arm_v1.18.1\src/u8g_font.c ****     case 3:
 875:u8glib_arm_v1.18.1\src/u8g_font.c ****       return u8g_DrawStr270(u8g, x, y, s);
 3012              		.loc 1 875 0
 3013 0074 FA78     		ldrb	r2, [r7, #3]	@ zero_extendqisi2
 3014 0076 BB78     		ldrb	r3, [r7, #2]	@ zero_extendqisi2
 3015 0078 7868     		ldr	r0, [r7, #4]
 3016 007a 1146     		mov	r1, r2
 3017 007c 1A46     		mov	r2, r3
 3018 007e 3B69     		ldr	r3, [r7, #16]
 3019 0080 FFF7FEFF 		bl	u8g_DrawStr270
 3020 0084 0346     		mov	r3, r0
 3021 0086 00E0     		b	.L151
 3022              	.L145:
 876:u8glib_arm_v1.18.1\src/u8g_font.c ****   }
 877:u8glib_arm_v1.18.1\src/u8g_font.c ****   return 0;
 3023              		.loc 1 877 0
 3024 0088 0023     		movs	r3, #0
 3025              	.L151:
 878:u8glib_arm_v1.18.1\src/u8g_font.c **** }
 3026              		.loc 1 878 0
 3027 008a 1846     		mov	r0, r3
 3028 008c 0837     		adds	r7, r7, #8
 3029              		.cfi_def_cfa_offset 8
 3030 008e BD46     		mov	sp, r7
 3031              		.cfi_def_cfa_register 13
 3032              		@ sp needed
 3033 0090 80BD     		pop	{r7, pc}
 3034              		.cfi_endproc
 3035              	.LFE42:
ARM GAS  C:\Users\KJA\AppData\Local\Temp\ccevgiJT.s 			page 70


 3036              		.size	u8g_DrawStrDir, .-u8g_DrawStrDir
 3037 0092 00BF     		.section	.text.u8g_DrawStrP,"ax",%progbits
 3038              		.align	2
 3039              		.global	u8g_DrawStrP
 3040              		.thumb
 3041              		.thumb_func
 3042              		.type	u8g_DrawStrP, %function
 3043              	u8g_DrawStrP:
 3044              	.LFB43:
 879:u8glib_arm_v1.18.1\src/u8g_font.c **** 
 880:u8glib_arm_v1.18.1\src/u8g_font.c **** u8g_uint_t u8g_DrawStrP(u8g_t *u8g, u8g_uint_t x, u8g_uint_t y, const u8g_pgm_uint8_t *s)
 881:u8glib_arm_v1.18.1\src/u8g_font.c **** {
 3045              		.loc 1 881 0
 3046              		.cfi_startproc
 3047              		@ args = 0, pretend = 0, frame = 24
 3048              		@ frame_needed = 1, uses_anonymous_args = 0
 3049 0000 80B5     		push	{r7, lr}
 3050              		.cfi_def_cfa_offset 8
 3051              		.cfi_offset 7, -8
 3052              		.cfi_offset 14, -4
 3053 0002 86B0     		sub	sp, sp, #24
 3054              		.cfi_def_cfa_offset 32
 3055 0004 00AF     		add	r7, sp, #0
 3056              		.cfi_def_cfa_register 7
 3057 0006 F860     		str	r0, [r7, #12]
 3058 0008 7B60     		str	r3, [r7, #4]
 3059 000a 0B46     		mov	r3, r1
 3060 000c FB72     		strb	r3, [r7, #11]
 3061 000e 1346     		mov	r3, r2
 3062 0010 BB72     		strb	r3, [r7, #10]
 882:u8glib_arm_v1.18.1\src/u8g_font.c ****   u8g_uint_t t = 0;
 3063              		.loc 1 882 0
 3064 0012 0023     		movs	r3, #0
 3065 0014 FB75     		strb	r3, [r7, #23]
 883:u8glib_arm_v1.18.1\src/u8g_font.c ****   int8_t d;
 884:u8glib_arm_v1.18.1\src/u8g_font.c ****   uint8_t c;
 885:u8glib_arm_v1.18.1\src/u8g_font.c ****   
 886:u8glib_arm_v1.18.1\src/u8g_font.c ****   y += u8g->font_calc_vref(u8g);
 3066              		.loc 1 886 0
 3067 0016 FB68     		ldr	r3, [r7, #12]
 3068 0018 5B6A     		ldr	r3, [r3, #36]
 3069 001a F868     		ldr	r0, [r7, #12]
 3070 001c 9847     		blx	r3
 3071 001e 0346     		mov	r3, r0
 3072 0020 1A46     		mov	r2, r3
 3073 0022 BB7A     		ldrb	r3, [r7, #10]
 3074 0024 1344     		add	r3, r3, r2
 3075 0026 BB72     		strb	r3, [r7, #10]
 3076              	.L155:
 887:u8glib_arm_v1.18.1\src/u8g_font.c ****   
 888:u8glib_arm_v1.18.1\src/u8g_font.c ****   for(;;)
 889:u8glib_arm_v1.18.1\src/u8g_font.c ****   {
 890:u8glib_arm_v1.18.1\src/u8g_font.c ****     c = u8g_pgm_read(s);
 3077              		.loc 1 890 0
 3078 0028 7B68     		ldr	r3, [r7, #4]
 3079 002a 1B78     		ldrb	r3, [r3]
 3080 002c BB75     		strb	r3, [r7, #22]
ARM GAS  C:\Users\KJA\AppData\Local\Temp\ccevgiJT.s 			page 71


 891:u8glib_arm_v1.18.1\src/u8g_font.c ****     if ( c == '\0' )
 3081              		.loc 1 891 0
 3082 002e BB7D     		ldrb	r3, [r7, #22]	@ zero_extendqisi2
 3083 0030 002B     		cmp	r3, #0
 3084 0032 00D1     		bne	.L153
 892:u8glib_arm_v1.18.1\src/u8g_font.c ****       break;
 3085              		.loc 1 892 0
 3086 0034 13E0     		b	.L157
 3087              	.L153:
 893:u8glib_arm_v1.18.1\src/u8g_font.c ****     d = u8g_draw_glyph(u8g, x, y, c);
 3088              		.loc 1 893 0
 3089 0036 F97A     		ldrb	r1, [r7, #11]	@ zero_extendqisi2
 3090 0038 BA7A     		ldrb	r2, [r7, #10]	@ zero_extendqisi2
 3091 003a BB7D     		ldrb	r3, [r7, #22]	@ zero_extendqisi2
 3092 003c F868     		ldr	r0, [r7, #12]
 3093 003e FFF7FEFF 		bl	u8g_draw_glyph
 3094 0042 0346     		mov	r3, r0
 3095 0044 7B75     		strb	r3, [r7, #21]
 894:u8glib_arm_v1.18.1\src/u8g_font.c ****     x += d;
 3096              		.loc 1 894 0
 3097 0046 7A7D     		ldrb	r2, [r7, #21]	@ zero_extendqisi2
 3098 0048 FB7A     		ldrb	r3, [r7, #11]
 3099 004a 1344     		add	r3, r3, r2
 3100 004c FB72     		strb	r3, [r7, #11]
 895:u8glib_arm_v1.18.1\src/u8g_font.c ****     t += d;
 3101              		.loc 1 895 0
 3102 004e 7A7D     		ldrb	r2, [r7, #21]	@ zero_extendqisi2
 3103 0050 FB7D     		ldrb	r3, [r7, #23]
 3104 0052 1344     		add	r3, r3, r2
 3105 0054 FB75     		strb	r3, [r7, #23]
 896:u8glib_arm_v1.18.1\src/u8g_font.c ****     s++;
 3106              		.loc 1 896 0
 3107 0056 7B68     		ldr	r3, [r7, #4]
 3108 0058 0133     		adds	r3, r3, #1
 3109 005a 7B60     		str	r3, [r7, #4]
 897:u8glib_arm_v1.18.1\src/u8g_font.c ****   }
 3110              		.loc 1 897 0
 3111 005c E4E7     		b	.L155
 3112              	.L157:
 898:u8glib_arm_v1.18.1\src/u8g_font.c ****   return t;
 3113              		.loc 1 898 0
 3114 005e FB7D     		ldrb	r3, [r7, #23]	@ zero_extendqisi2
 899:u8glib_arm_v1.18.1\src/u8g_font.c **** }
 3115              		.loc 1 899 0
 3116 0060 1846     		mov	r0, r3
 3117 0062 1837     		adds	r7, r7, #24
 3118              		.cfi_def_cfa_offset 8
 3119 0064 BD46     		mov	sp, r7
 3120              		.cfi_def_cfa_register 13
 3121              		@ sp needed
 3122 0066 80BD     		pop	{r7, pc}
 3123              		.cfi_endproc
 3124              	.LFE43:
 3125              		.size	u8g_DrawStrP, .-u8g_DrawStrP
 3126              		.section	.text.u8g_DrawStr90P,"ax",%progbits
 3127              		.align	2
 3128              		.global	u8g_DrawStr90P
ARM GAS  C:\Users\KJA\AppData\Local\Temp\ccevgiJT.s 			page 72


 3129              		.thumb
 3130              		.thumb_func
 3131              		.type	u8g_DrawStr90P, %function
 3132              	u8g_DrawStr90P:
 3133              	.LFB44:
 900:u8glib_arm_v1.18.1\src/u8g_font.c **** 
 901:u8glib_arm_v1.18.1\src/u8g_font.c **** u8g_uint_t u8g_DrawStr90P(u8g_t *u8g, u8g_uint_t x, u8g_uint_t y, const u8g_pgm_uint8_t *s)
 902:u8glib_arm_v1.18.1\src/u8g_font.c **** {
 3134              		.loc 1 902 0
 3135              		.cfi_startproc
 3136              		@ args = 0, pretend = 0, frame = 24
 3137              		@ frame_needed = 1, uses_anonymous_args = 0
 3138 0000 80B5     		push	{r7, lr}
 3139              		.cfi_def_cfa_offset 8
 3140              		.cfi_offset 7, -8
 3141              		.cfi_offset 14, -4
 3142 0002 86B0     		sub	sp, sp, #24
 3143              		.cfi_def_cfa_offset 32
 3144 0004 00AF     		add	r7, sp, #0
 3145              		.cfi_def_cfa_register 7
 3146 0006 F860     		str	r0, [r7, #12]
 3147 0008 7B60     		str	r3, [r7, #4]
 3148 000a 0B46     		mov	r3, r1
 3149 000c FB72     		strb	r3, [r7, #11]
 3150 000e 1346     		mov	r3, r2
 3151 0010 BB72     		strb	r3, [r7, #10]
 903:u8glib_arm_v1.18.1\src/u8g_font.c ****   u8g_uint_t t = 0;
 3152              		.loc 1 903 0
 3153 0012 0023     		movs	r3, #0
 3154 0014 FB75     		strb	r3, [r7, #23]
 904:u8glib_arm_v1.18.1\src/u8g_font.c ****   int8_t d;
 905:u8glib_arm_v1.18.1\src/u8g_font.c ****   uint8_t c;
 906:u8glib_arm_v1.18.1\src/u8g_font.c ****   
 907:u8glib_arm_v1.18.1\src/u8g_font.c ****   x -= u8g->font_calc_vref(u8g);
 3155              		.loc 1 907 0
 3156 0016 FB68     		ldr	r3, [r7, #12]
 3157 0018 5B6A     		ldr	r3, [r3, #36]
 3158 001a F868     		ldr	r0, [r7, #12]
 3159 001c 9847     		blx	r3
 3160 001e 0346     		mov	r3, r0
 3161 0020 1A46     		mov	r2, r3
 3162 0022 FB7A     		ldrb	r3, [r7, #11]
 3163 0024 9B1A     		subs	r3, r3, r2
 3164 0026 FB72     		strb	r3, [r7, #11]
 3165              	.L161:
 908:u8glib_arm_v1.18.1\src/u8g_font.c **** 
 909:u8glib_arm_v1.18.1\src/u8g_font.c ****   for(;;)
 910:u8glib_arm_v1.18.1\src/u8g_font.c ****   {
 911:u8glib_arm_v1.18.1\src/u8g_font.c ****     c = u8g_pgm_read(s);
 3166              		.loc 1 911 0
 3167 0028 7B68     		ldr	r3, [r7, #4]
 3168 002a 1B78     		ldrb	r3, [r3]
 3169 002c BB75     		strb	r3, [r7, #22]
 912:u8glib_arm_v1.18.1\src/u8g_font.c ****     if ( c == '\0' )
 3170              		.loc 1 912 0
 3171 002e BB7D     		ldrb	r3, [r7, #22]	@ zero_extendqisi2
 3172 0030 002B     		cmp	r3, #0
ARM GAS  C:\Users\KJA\AppData\Local\Temp\ccevgiJT.s 			page 73


 3173 0032 00D1     		bne	.L159
 913:u8glib_arm_v1.18.1\src/u8g_font.c ****       break;
 3174              		.loc 1 913 0
 3175 0034 13E0     		b	.L163
 3176              	.L159:
 914:u8glib_arm_v1.18.1\src/u8g_font.c ****     d = u8g_DrawGlyph90(u8g, x, y, c);
 3177              		.loc 1 914 0
 3178 0036 F97A     		ldrb	r1, [r7, #11]	@ zero_extendqisi2
 3179 0038 BA7A     		ldrb	r2, [r7, #10]	@ zero_extendqisi2
 3180 003a BB7D     		ldrb	r3, [r7, #22]	@ zero_extendqisi2
 3181 003c F868     		ldr	r0, [r7, #12]
 3182 003e FFF7FEFF 		bl	u8g_DrawGlyph90
 3183 0042 0346     		mov	r3, r0
 3184 0044 7B75     		strb	r3, [r7, #21]
 915:u8glib_arm_v1.18.1\src/u8g_font.c ****     y += d;
 3185              		.loc 1 915 0
 3186 0046 7A7D     		ldrb	r2, [r7, #21]	@ zero_extendqisi2
 3187 0048 BB7A     		ldrb	r3, [r7, #10]
 3188 004a 1344     		add	r3, r3, r2
 3189 004c BB72     		strb	r3, [r7, #10]
 916:u8glib_arm_v1.18.1\src/u8g_font.c ****     t += d;
 3190              		.loc 1 916 0
 3191 004e 7A7D     		ldrb	r2, [r7, #21]	@ zero_extendqisi2
 3192 0050 FB7D     		ldrb	r3, [r7, #23]
 3193 0052 1344     		add	r3, r3, r2
 3194 0054 FB75     		strb	r3, [r7, #23]
 917:u8glib_arm_v1.18.1\src/u8g_font.c ****     s++;
 3195              		.loc 1 917 0
 3196 0056 7B68     		ldr	r3, [r7, #4]
 3197 0058 0133     		adds	r3, r3, #1
 3198 005a 7B60     		str	r3, [r7, #4]
 918:u8glib_arm_v1.18.1\src/u8g_font.c ****   }
 3199              		.loc 1 918 0
 3200 005c E4E7     		b	.L161
 3201              	.L163:
 919:u8glib_arm_v1.18.1\src/u8g_font.c ****   return t;
 3202              		.loc 1 919 0
 3203 005e FB7D     		ldrb	r3, [r7, #23]	@ zero_extendqisi2
 920:u8glib_arm_v1.18.1\src/u8g_font.c **** }
 3204              		.loc 1 920 0
 3205 0060 1846     		mov	r0, r3
 3206 0062 1837     		adds	r7, r7, #24
 3207              		.cfi_def_cfa_offset 8
 3208 0064 BD46     		mov	sp, r7
 3209              		.cfi_def_cfa_register 13
 3210              		@ sp needed
 3211 0066 80BD     		pop	{r7, pc}
 3212              		.cfi_endproc
 3213              	.LFE44:
 3214              		.size	u8g_DrawStr90P, .-u8g_DrawStr90P
 3215              		.section	.text.u8g_DrawStr180P,"ax",%progbits
 3216              		.align	2
 3217              		.global	u8g_DrawStr180P
 3218              		.thumb
 3219              		.thumb_func
 3220              		.type	u8g_DrawStr180P, %function
 3221              	u8g_DrawStr180P:
ARM GAS  C:\Users\KJA\AppData\Local\Temp\ccevgiJT.s 			page 74


 3222              	.LFB45:
 921:u8glib_arm_v1.18.1\src/u8g_font.c **** 
 922:u8glib_arm_v1.18.1\src/u8g_font.c **** u8g_uint_t u8g_DrawStr180P(u8g_t *u8g, u8g_uint_t x, u8g_uint_t y, const u8g_pgm_uint8_t *s)
 923:u8glib_arm_v1.18.1\src/u8g_font.c **** {
 3223              		.loc 1 923 0
 3224              		.cfi_startproc
 3225              		@ args = 0, pretend = 0, frame = 24
 3226              		@ frame_needed = 1, uses_anonymous_args = 0
 3227 0000 80B5     		push	{r7, lr}
 3228              		.cfi_def_cfa_offset 8
 3229              		.cfi_offset 7, -8
 3230              		.cfi_offset 14, -4
 3231 0002 86B0     		sub	sp, sp, #24
 3232              		.cfi_def_cfa_offset 32
 3233 0004 00AF     		add	r7, sp, #0
 3234              		.cfi_def_cfa_register 7
 3235 0006 F860     		str	r0, [r7, #12]
 3236 0008 7B60     		str	r3, [r7, #4]
 3237 000a 0B46     		mov	r3, r1
 3238 000c FB72     		strb	r3, [r7, #11]
 3239 000e 1346     		mov	r3, r2
 3240 0010 BB72     		strb	r3, [r7, #10]
 924:u8glib_arm_v1.18.1\src/u8g_font.c ****   u8g_uint_t t = 0;
 3241              		.loc 1 924 0
 3242 0012 0023     		movs	r3, #0
 3243 0014 FB75     		strb	r3, [r7, #23]
 925:u8glib_arm_v1.18.1\src/u8g_font.c ****   int8_t d;
 926:u8glib_arm_v1.18.1\src/u8g_font.c ****   uint8_t c;
 927:u8glib_arm_v1.18.1\src/u8g_font.c **** 
 928:u8glib_arm_v1.18.1\src/u8g_font.c ****   y -= u8g->font_calc_vref(u8g);
 3244              		.loc 1 928 0
 3245 0016 FB68     		ldr	r3, [r7, #12]
 3246 0018 5B6A     		ldr	r3, [r3, #36]
 3247 001a F868     		ldr	r0, [r7, #12]
 3248 001c 9847     		blx	r3
 3249 001e 0346     		mov	r3, r0
 3250 0020 1A46     		mov	r2, r3
 3251 0022 BB7A     		ldrb	r3, [r7, #10]
 3252 0024 9B1A     		subs	r3, r3, r2
 3253 0026 BB72     		strb	r3, [r7, #10]
 3254              	.L167:
 929:u8glib_arm_v1.18.1\src/u8g_font.c ****   
 930:u8glib_arm_v1.18.1\src/u8g_font.c ****   for(;;)
 931:u8glib_arm_v1.18.1\src/u8g_font.c ****   {
 932:u8glib_arm_v1.18.1\src/u8g_font.c ****     c = u8g_pgm_read(s);
 3255              		.loc 1 932 0
 3256 0028 7B68     		ldr	r3, [r7, #4]
 3257 002a 1B78     		ldrb	r3, [r3]
 3258 002c BB75     		strb	r3, [r7, #22]
 933:u8glib_arm_v1.18.1\src/u8g_font.c ****     if ( c == '\0' )
 3259              		.loc 1 933 0
 3260 002e BB7D     		ldrb	r3, [r7, #22]	@ zero_extendqisi2
 3261 0030 002B     		cmp	r3, #0
 3262 0032 00D1     		bne	.L165
 934:u8glib_arm_v1.18.1\src/u8g_font.c ****       break;
 3263              		.loc 1 934 0
 3264 0034 13E0     		b	.L169
ARM GAS  C:\Users\KJA\AppData\Local\Temp\ccevgiJT.s 			page 75


 3265              	.L165:
 935:u8glib_arm_v1.18.1\src/u8g_font.c ****     d = u8g_DrawGlyph180(u8g, x, y, c);
 3266              		.loc 1 935 0
 3267 0036 F97A     		ldrb	r1, [r7, #11]	@ zero_extendqisi2
 3268 0038 BA7A     		ldrb	r2, [r7, #10]	@ zero_extendqisi2
 3269 003a BB7D     		ldrb	r3, [r7, #22]	@ zero_extendqisi2
 3270 003c F868     		ldr	r0, [r7, #12]
 3271 003e FFF7FEFF 		bl	u8g_DrawGlyph180
 3272 0042 0346     		mov	r3, r0
 3273 0044 7B75     		strb	r3, [r7, #21]
 936:u8glib_arm_v1.18.1\src/u8g_font.c ****     x -= d;
 3274              		.loc 1 936 0
 3275 0046 7B7D     		ldrb	r3, [r7, #21]	@ zero_extendqisi2
 3276 0048 FA7A     		ldrb	r2, [r7, #11]
 3277 004a D31A     		subs	r3, r2, r3
 3278 004c FB72     		strb	r3, [r7, #11]
 937:u8glib_arm_v1.18.1\src/u8g_font.c ****     t += d;
 3279              		.loc 1 937 0
 3280 004e 7A7D     		ldrb	r2, [r7, #21]	@ zero_extendqisi2
 3281 0050 FB7D     		ldrb	r3, [r7, #23]
 3282 0052 1344     		add	r3, r3, r2
 3283 0054 FB75     		strb	r3, [r7, #23]
 938:u8glib_arm_v1.18.1\src/u8g_font.c ****     s++;
 3284              		.loc 1 938 0
 3285 0056 7B68     		ldr	r3, [r7, #4]
 3286 0058 0133     		adds	r3, r3, #1
 3287 005a 7B60     		str	r3, [r7, #4]
 939:u8glib_arm_v1.18.1\src/u8g_font.c ****   }
 3288              		.loc 1 939 0
 3289 005c E4E7     		b	.L167
 3290              	.L169:
 940:u8glib_arm_v1.18.1\src/u8g_font.c ****   return t;
 3291              		.loc 1 940 0
 3292 005e FB7D     		ldrb	r3, [r7, #23]	@ zero_extendqisi2
 941:u8glib_arm_v1.18.1\src/u8g_font.c **** }
 3293              		.loc 1 941 0
 3294 0060 1846     		mov	r0, r3
 3295 0062 1837     		adds	r7, r7, #24
 3296              		.cfi_def_cfa_offset 8
 3297 0064 BD46     		mov	sp, r7
 3298              		.cfi_def_cfa_register 13
 3299              		@ sp needed
 3300 0066 80BD     		pop	{r7, pc}
 3301              		.cfi_endproc
 3302              	.LFE45:
 3303              		.size	u8g_DrawStr180P, .-u8g_DrawStr180P
 3304              		.section	.text.u8g_DrawStr270P,"ax",%progbits
 3305              		.align	2
 3306              		.global	u8g_DrawStr270P
 3307              		.thumb
 3308              		.thumb_func
 3309              		.type	u8g_DrawStr270P, %function
 3310              	u8g_DrawStr270P:
 3311              	.LFB46:
 942:u8glib_arm_v1.18.1\src/u8g_font.c **** 
 943:u8glib_arm_v1.18.1\src/u8g_font.c **** u8g_uint_t u8g_DrawStr270P(u8g_t *u8g, u8g_uint_t x, u8g_uint_t y, const u8g_pgm_uint8_t *s)
 944:u8glib_arm_v1.18.1\src/u8g_font.c **** {
ARM GAS  C:\Users\KJA\AppData\Local\Temp\ccevgiJT.s 			page 76


 3312              		.loc 1 944 0
 3313              		.cfi_startproc
 3314              		@ args = 0, pretend = 0, frame = 24
 3315              		@ frame_needed = 1, uses_anonymous_args = 0
 3316 0000 80B5     		push	{r7, lr}
 3317              		.cfi_def_cfa_offset 8
 3318              		.cfi_offset 7, -8
 3319              		.cfi_offset 14, -4
 3320 0002 86B0     		sub	sp, sp, #24
 3321              		.cfi_def_cfa_offset 32
 3322 0004 00AF     		add	r7, sp, #0
 3323              		.cfi_def_cfa_register 7
 3324 0006 F860     		str	r0, [r7, #12]
 3325 0008 7B60     		str	r3, [r7, #4]
 3326 000a 0B46     		mov	r3, r1
 3327 000c FB72     		strb	r3, [r7, #11]
 3328 000e 1346     		mov	r3, r2
 3329 0010 BB72     		strb	r3, [r7, #10]
 945:u8glib_arm_v1.18.1\src/u8g_font.c ****   u8g_uint_t t = 0;
 3330              		.loc 1 945 0
 3331 0012 0023     		movs	r3, #0
 3332 0014 FB75     		strb	r3, [r7, #23]
 946:u8glib_arm_v1.18.1\src/u8g_font.c ****   int8_t d;
 947:u8glib_arm_v1.18.1\src/u8g_font.c ****   uint8_t c;
 948:u8glib_arm_v1.18.1\src/u8g_font.c **** 
 949:u8glib_arm_v1.18.1\src/u8g_font.c ****   x += u8g->font_calc_vref(u8g);
 3333              		.loc 1 949 0
 3334 0016 FB68     		ldr	r3, [r7, #12]
 3335 0018 5B6A     		ldr	r3, [r3, #36]
 3336 001a F868     		ldr	r0, [r7, #12]
 3337 001c 9847     		blx	r3
 3338 001e 0346     		mov	r3, r0
 3339 0020 1A46     		mov	r2, r3
 3340 0022 FB7A     		ldrb	r3, [r7, #11]
 3341 0024 1344     		add	r3, r3, r2
 3342 0026 FB72     		strb	r3, [r7, #11]
 3343              	.L173:
 950:u8glib_arm_v1.18.1\src/u8g_font.c **** 
 951:u8glib_arm_v1.18.1\src/u8g_font.c ****   for(;;)
 952:u8glib_arm_v1.18.1\src/u8g_font.c ****   {
 953:u8glib_arm_v1.18.1\src/u8g_font.c ****     c = u8g_pgm_read(s);
 3344              		.loc 1 953 0
 3345 0028 7B68     		ldr	r3, [r7, #4]
 3346 002a 1B78     		ldrb	r3, [r3]
 3347 002c BB75     		strb	r3, [r7, #22]
 954:u8glib_arm_v1.18.1\src/u8g_font.c ****     if ( c == '\0' )
 3348              		.loc 1 954 0
 3349 002e BB7D     		ldrb	r3, [r7, #22]	@ zero_extendqisi2
 3350 0030 002B     		cmp	r3, #0
 3351 0032 00D1     		bne	.L171
 955:u8glib_arm_v1.18.1\src/u8g_font.c ****       break;
 3352              		.loc 1 955 0
 3353 0034 13E0     		b	.L175
 3354              	.L171:
 956:u8glib_arm_v1.18.1\src/u8g_font.c ****     d = u8g_DrawGlyph270(u8g, x, y, c);
 3355              		.loc 1 956 0
 3356 0036 F97A     		ldrb	r1, [r7, #11]	@ zero_extendqisi2
ARM GAS  C:\Users\KJA\AppData\Local\Temp\ccevgiJT.s 			page 77


 3357 0038 BA7A     		ldrb	r2, [r7, #10]	@ zero_extendqisi2
 3358 003a BB7D     		ldrb	r3, [r7, #22]	@ zero_extendqisi2
 3359 003c F868     		ldr	r0, [r7, #12]
 3360 003e FFF7FEFF 		bl	u8g_DrawGlyph270
 3361 0042 0346     		mov	r3, r0
 3362 0044 7B75     		strb	r3, [r7, #21]
 957:u8glib_arm_v1.18.1\src/u8g_font.c ****     y -= d;
 3363              		.loc 1 957 0
 3364 0046 7B7D     		ldrb	r3, [r7, #21]	@ zero_extendqisi2
 3365 0048 BA7A     		ldrb	r2, [r7, #10]
 3366 004a D31A     		subs	r3, r2, r3
 3367 004c BB72     		strb	r3, [r7, #10]
 958:u8glib_arm_v1.18.1\src/u8g_font.c ****     t += d;
 3368              		.loc 1 958 0
 3369 004e 7A7D     		ldrb	r2, [r7, #21]	@ zero_extendqisi2
 3370 0050 FB7D     		ldrb	r3, [r7, #23]
 3371 0052 1344     		add	r3, r3, r2
 3372 0054 FB75     		strb	r3, [r7, #23]
 959:u8glib_arm_v1.18.1\src/u8g_font.c ****     s++;
 3373              		.loc 1 959 0
 3374 0056 7B68     		ldr	r3, [r7, #4]
 3375 0058 0133     		adds	r3, r3, #1
 3376 005a 7B60     		str	r3, [r7, #4]
 960:u8glib_arm_v1.18.1\src/u8g_font.c ****   }
 3377              		.loc 1 960 0
 3378 005c E4E7     		b	.L173
 3379              	.L175:
 961:u8glib_arm_v1.18.1\src/u8g_font.c ****   return t;
 3380              		.loc 1 961 0
 3381 005e FB7D     		ldrb	r3, [r7, #23]	@ zero_extendqisi2
 962:u8glib_arm_v1.18.1\src/u8g_font.c **** }
 3382              		.loc 1 962 0
 3383 0060 1846     		mov	r0, r3
 3384 0062 1837     		adds	r7, r7, #24
 3385              		.cfi_def_cfa_offset 8
 3386 0064 BD46     		mov	sp, r7
 3387              		.cfi_def_cfa_register 13
 3388              		@ sp needed
 3389 0066 80BD     		pop	{r7, pc}
 3390              		.cfi_endproc
 3391              	.LFE46:
 3392              		.size	u8g_DrawStr270P, .-u8g_DrawStr270P
 3393              		.section	.text.u8g_DrawStrFontBBX,"ax",%progbits
 3394              		.align	2
 3395              		.global	u8g_DrawStrFontBBX
 3396              		.thumb
 3397              		.thumb_func
 3398              		.type	u8g_DrawStrFontBBX, %function
 3399              	u8g_DrawStrFontBBX:
 3400              	.LFB47:
 963:u8glib_arm_v1.18.1\src/u8g_font.c **** 
 964:u8glib_arm_v1.18.1\src/u8g_font.c **** u8g_uint_t u8g_DrawStrFontBBX(u8g_t *u8g, u8g_uint_t x, u8g_uint_t y, uint8_t dir, const char *s)
 965:u8glib_arm_v1.18.1\src/u8g_font.c **** {
 3401              		.loc 1 965 0
 3402              		.cfi_startproc
 3403              		@ args = 4, pretend = 0, frame = 8
 3404              		@ frame_needed = 1, uses_anonymous_args = 0
ARM GAS  C:\Users\KJA\AppData\Local\Temp\ccevgiJT.s 			page 78


 3405 0000 90B5     		push	{r4, r7, lr}
 3406              		.cfi_def_cfa_offset 12
 3407              		.cfi_offset 4, -12
 3408              		.cfi_offset 7, -8
 3409              		.cfi_offset 14, -4
 3410 0002 85B0     		sub	sp, sp, #20
 3411              		.cfi_def_cfa_offset 32
 3412 0004 02AF     		add	r7, sp, #8
 3413              		.cfi_def_cfa 7, 24
 3414 0006 7860     		str	r0, [r7, #4]
 3415 0008 0846     		mov	r0, r1
 3416 000a 1146     		mov	r1, r2
 3417 000c 1A46     		mov	r2, r3
 3418 000e 0346     		mov	r3, r0
 3419 0010 FB70     		strb	r3, [r7, #3]
 3420 0012 0B46     		mov	r3, r1
 3421 0014 BB70     		strb	r3, [r7, #2]
 3422 0016 1346     		mov	r3, r2
 3423 0018 7B70     		strb	r3, [r7, #1]
 966:u8glib_arm_v1.18.1\src/u8g_font.c ****   x -= u8g_GetFontBBXOffX(u8g);
 3424              		.loc 1 966 0
 3425 001a 7868     		ldr	r0, [r7, #4]
 3426 001c FFF7FEFF 		bl	u8g_GetFontBBXOffX
 3427 0020 0346     		mov	r3, r0
 3428 0022 DBB2     		uxtb	r3, r3
 3429 0024 FA78     		ldrb	r2, [r7, #3]
 3430 0026 D31A     		subs	r3, r2, r3
 3431 0028 FB70     		strb	r3, [r7, #3]
 967:u8glib_arm_v1.18.1\src/u8g_font.c ****   y += u8g_GetFontBBXOffY(u8g);
 3432              		.loc 1 967 0
 3433 002a 7868     		ldr	r0, [r7, #4]
 3434 002c FFF7FEFF 		bl	u8g_GetFontBBXOffY
 3435 0030 0346     		mov	r3, r0
 3436 0032 DAB2     		uxtb	r2, r3
 3437 0034 BB78     		ldrb	r3, [r7, #2]
 3438 0036 1344     		add	r3, r3, r2
 3439 0038 BB70     		strb	r3, [r7, #2]
 968:u8glib_arm_v1.18.1\src/u8g_font.c ****   return u8g_DrawStrDir(u8g, x, y, dir, s);
 3440              		.loc 1 968 0
 3441 003a F978     		ldrb	r1, [r7, #3]	@ zero_extendqisi2
 3442 003c BA78     		ldrb	r2, [r7, #2]	@ zero_extendqisi2
 3443 003e 7C78     		ldrb	r4, [r7, #1]	@ zero_extendqisi2
 3444 0040 BB69     		ldr	r3, [r7, #24]
 3445 0042 0093     		str	r3, [sp]
 3446 0044 7868     		ldr	r0, [r7, #4]
 3447 0046 2346     		mov	r3, r4
 3448 0048 FFF7FEFF 		bl	u8g_DrawStrDir
 3449 004c 0346     		mov	r3, r0
 969:u8glib_arm_v1.18.1\src/u8g_font.c **** }
 3450              		.loc 1 969 0
 3451 004e 1846     		mov	r0, r3
 3452 0050 0C37     		adds	r7, r7, #12
 3453              		.cfi_def_cfa_offset 12
 3454 0052 BD46     		mov	sp, r7
 3455              		.cfi_def_cfa_register 13
 3456              		@ sp needed
 3457 0054 90BD     		pop	{r4, r7, pc}
ARM GAS  C:\Users\KJA\AppData\Local\Temp\ccevgiJT.s 			page 79


 3458              		.cfi_endproc
 3459              	.LFE47:
 3460              		.size	u8g_DrawStrFontBBX, .-u8g_DrawStrFontBBX
 3461 0056 00BF     		.section	.text.u8g_DrawGlyphFontBBX,"ax",%progbits
 3462              		.align	2
 3463              		.global	u8g_DrawGlyphFontBBX
 3464              		.thumb
 3465              		.thumb_func
 3466              		.type	u8g_DrawGlyphFontBBX, %function
 3467              	u8g_DrawGlyphFontBBX:
 3468              	.LFB48:
 970:u8glib_arm_v1.18.1\src/u8g_font.c **** 
 971:u8glib_arm_v1.18.1\src/u8g_font.c **** /* still used by picgen.c, dir argument is ignored */
 972:u8glib_arm_v1.18.1\src/u8g_font.c **** int8_t u8g_DrawGlyphFontBBX(u8g_t *u8g, u8g_uint_t x, u8g_uint_t y, uint8_t dir, uint8_t encoding)
 973:u8glib_arm_v1.18.1\src/u8g_font.c **** {
 3469              		.loc 1 973 0
 3470              		.cfi_startproc
 3471              		@ args = 4, pretend = 0, frame = 8
 3472              		@ frame_needed = 1, uses_anonymous_args = 0
 3473 0000 80B5     		push	{r7, lr}
 3474              		.cfi_def_cfa_offset 8
 3475              		.cfi_offset 7, -8
 3476              		.cfi_offset 14, -4
 3477 0002 82B0     		sub	sp, sp, #8
 3478              		.cfi_def_cfa_offset 16
 3479 0004 00AF     		add	r7, sp, #0
 3480              		.cfi_def_cfa_register 7
 3481 0006 7860     		str	r0, [r7, #4]
 3482 0008 0846     		mov	r0, r1
 3483 000a 1146     		mov	r1, r2
 3484 000c 1A46     		mov	r2, r3
 3485 000e 0346     		mov	r3, r0
 3486 0010 FB70     		strb	r3, [r7, #3]
 3487 0012 0B46     		mov	r3, r1
 3488 0014 BB70     		strb	r3, [r7, #2]
 3489 0016 1346     		mov	r3, r2
 3490 0018 7B70     		strb	r3, [r7, #1]
 974:u8glib_arm_v1.18.1\src/u8g_font.c ****   x -= u8g_GetFontBBXOffX(u8g);
 3491              		.loc 1 974 0
 3492 001a 7868     		ldr	r0, [r7, #4]
 3493 001c FFF7FEFF 		bl	u8g_GetFontBBXOffX
 3494 0020 0346     		mov	r3, r0
 3495 0022 DBB2     		uxtb	r3, r3
 3496 0024 FA78     		ldrb	r2, [r7, #3]
 3497 0026 D31A     		subs	r3, r2, r3
 3498 0028 FB70     		strb	r3, [r7, #3]
 975:u8glib_arm_v1.18.1\src/u8g_font.c ****   y += u8g_GetFontBBXOffY(u8g);
 3499              		.loc 1 975 0
 3500 002a 7868     		ldr	r0, [r7, #4]
 3501 002c FFF7FEFF 		bl	u8g_GetFontBBXOffY
 3502 0030 0346     		mov	r3, r0
 3503 0032 DAB2     		uxtb	r2, r3
 3504 0034 BB78     		ldrb	r3, [r7, #2]
 3505 0036 1344     		add	r3, r3, r2
 3506 0038 BB70     		strb	r3, [r7, #2]
 976:u8glib_arm_v1.18.1\src/u8g_font.c ****   u8g_draw_glyph(u8g, x, y, encoding);
 3507              		.loc 1 976 0
ARM GAS  C:\Users\KJA\AppData\Local\Temp\ccevgiJT.s 			page 80


 3508 003a F978     		ldrb	r1, [r7, #3]	@ zero_extendqisi2
 3509 003c BA78     		ldrb	r2, [r7, #2]	@ zero_extendqisi2
 3510 003e 3B7C     		ldrb	r3, [r7, #16]	@ zero_extendqisi2
 3511 0040 7868     		ldr	r0, [r7, #4]
 3512 0042 FFF7FEFF 		bl	u8g_draw_glyph
 977:u8glib_arm_v1.18.1\src/u8g_font.c ****   return 0;
 3513              		.loc 1 977 0
 3514 0046 0023     		movs	r3, #0
 3515 0048 5BB2     		sxtb	r3, r3
 978:u8glib_arm_v1.18.1\src/u8g_font.c **** }
 3516              		.loc 1 978 0
 3517 004a 1846     		mov	r0, r3
 3518 004c 0837     		adds	r7, r7, #8
 3519              		.cfi_def_cfa_offset 8
 3520 004e BD46     		mov	sp, r7
 3521              		.cfi_def_cfa_register 13
 3522              		@ sp needed
 3523 0050 80BD     		pop	{r7, pc}
 3524              		.cfi_endproc
 3525              	.LFE48:
 3526              		.size	u8g_DrawGlyphFontBBX, .-u8g_DrawGlyphFontBBX
 3527 0052 00BF     		.section	.text.u8g_UpdateRefHeight,"ax",%progbits
 3528              		.align	2
 3529              		.global	u8g_UpdateRefHeight
 3530              		.thumb
 3531              		.thumb_func
 3532              		.type	u8g_UpdateRefHeight, %function
 3533              	u8g_UpdateRefHeight:
 3534              	.LFB49:
 979:u8glib_arm_v1.18.1\src/u8g_font.c **** 
 980:u8glib_arm_v1.18.1\src/u8g_font.c **** 
 981:u8glib_arm_v1.18.1\src/u8g_font.c **** /*========================================================================*/
 982:u8glib_arm_v1.18.1\src/u8g_font.c **** /* set ascent/descent for reference point calculation */
 983:u8glib_arm_v1.18.1\src/u8g_font.c **** 
 984:u8glib_arm_v1.18.1\src/u8g_font.c **** void u8g_UpdateRefHeight(u8g_t *u8g)
 985:u8glib_arm_v1.18.1\src/u8g_font.c **** {
 3535              		.loc 1 985 0
 3536              		.cfi_startproc
 3537              		@ args = 0, pretend = 0, frame = 16
 3538              		@ frame_needed = 1, uses_anonymous_args = 0
 3539 0000 80B5     		push	{r7, lr}
 3540              		.cfi_def_cfa_offset 8
 3541              		.cfi_offset 7, -8
 3542              		.cfi_offset 14, -4
 3543 0002 84B0     		sub	sp, sp, #16
 3544              		.cfi_def_cfa_offset 24
 3545 0004 00AF     		add	r7, sp, #0
 3546              		.cfi_def_cfa_register 7
 3547 0006 7860     		str	r0, [r7, #4]
 986:u8glib_arm_v1.18.1\src/u8g_font.c ****   uint16_t ls;
 987:u8glib_arm_v1.18.1\src/u8g_font.c ****   if ( u8g->font == NULL )
 3548              		.loc 1 987 0
 3549 0008 7B68     		ldr	r3, [r7, #4]
 3550 000a 9B68     		ldr	r3, [r3, #8]
 3551 000c 002B     		cmp	r3, #0
 3552 000e 00D1     		bne	.L181
 988:u8glib_arm_v1.18.1\src/u8g_font.c ****     return;
ARM GAS  C:\Users\KJA\AppData\Local\Temp\ccevgiJT.s 			page 81


 3553              		.loc 1 988 0
 3554 0010 6CE0     		b	.L180
 3555              	.L181:
 989:u8glib_arm_v1.18.1\src/u8g_font.c ****   if ( u8g->font_height_mode == U8G_FONT_HEIGHT_MODE_TEXT )
 3556              		.loc 1 989 0
 3557 0012 7B68     		ldr	r3, [r7, #4]
 3558 0014 93F82830 		ldrb	r3, [r3, #40]	@ zero_extendqisi2
 3559 0018 002B     		cmp	r3, #0
 3560 001a 14D1     		bne	.L183
 990:u8glib_arm_v1.18.1\src/u8g_font.c ****   {
 991:u8glib_arm_v1.18.1\src/u8g_font.c ****     u8g->font_ref_ascent = u8g_font_GetCapitalAHeight(u8g->font);
 3561              		.loc 1 991 0
 3562 001c 7B68     		ldr	r3, [r7, #4]
 3563 001e 9B68     		ldr	r3, [r3, #8]
 3564 0020 1846     		mov	r0, r3
 3565 0022 FFF7FEFF 		bl	u8g_font_GetCapitalAHeight
 3566 0026 0346     		mov	r3, r0
 3567 0028 DAB2     		uxtb	r2, r3
 3568 002a 7B68     		ldr	r3, [r7, #4]
 3569 002c 83F82920 		strb	r2, [r3, #41]
 992:u8glib_arm_v1.18.1\src/u8g_font.c ****     u8g->font_ref_descent = u8g_font_GetLowerGDescent(u8g->font);
 3570              		.loc 1 992 0
 3571 0030 7B68     		ldr	r3, [r7, #4]
 3572 0032 9B68     		ldr	r3, [r3, #8]
 3573 0034 1846     		mov	r0, r3
 3574 0036 FFF7FEFF 		bl	u8g_font_GetLowerGDescent
 3575 003a 0346     		mov	r3, r0
 3576 003c 1A46     		mov	r2, r3
 3577 003e 7B68     		ldr	r3, [r7, #4]
 3578 0040 83F82A20 		strb	r2, [r3, #42]
 3579 0044 2DE0     		b	.L184
 3580              	.L183:
 993:u8glib_arm_v1.18.1\src/u8g_font.c ****   }
 994:u8glib_arm_v1.18.1\src/u8g_font.c ****   else if ( u8g->font_height_mode == U8G_FONT_HEIGHT_MODE_XTEXT )
 3581              		.loc 1 994 0
 3582 0046 7B68     		ldr	r3, [r7, #4]
 3583 0048 93F82830 		ldrb	r3, [r3, #40]	@ zero_extendqisi2
 3584 004c 012B     		cmp	r3, #1
 3585 004e 14D1     		bne	.L185
 995:u8glib_arm_v1.18.1\src/u8g_font.c ****   {
 996:u8glib_arm_v1.18.1\src/u8g_font.c ****     u8g->font_ref_ascent = u8g_font_GetFontXAscent(u8g->font);
 3586              		.loc 1 996 0
 3587 0050 7B68     		ldr	r3, [r7, #4]
 3588 0052 9B68     		ldr	r3, [r3, #8]
 3589 0054 1846     		mov	r0, r3
 3590 0056 FFF7FEFF 		bl	u8g_font_GetFontXAscent
 3591 005a 0346     		mov	r3, r0
 3592 005c 1A46     		mov	r2, r3
 3593 005e 7B68     		ldr	r3, [r7, #4]
 3594 0060 83F82920 		strb	r2, [r3, #41]
 997:u8glib_arm_v1.18.1\src/u8g_font.c ****     u8g->font_ref_descent = u8g_font_GetFontXDescent(u8g->font);
 3595              		.loc 1 997 0
 3596 0064 7B68     		ldr	r3, [r7, #4]
 3597 0066 9B68     		ldr	r3, [r3, #8]
 3598 0068 1846     		mov	r0, r3
 3599 006a FFF7FEFF 		bl	u8g_font_GetFontXDescent
 3600 006e 0346     		mov	r3, r0
ARM GAS  C:\Users\KJA\AppData\Local\Temp\ccevgiJT.s 			page 82


 3601 0070 1A46     		mov	r2, r3
 3602 0072 7B68     		ldr	r3, [r7, #4]
 3603 0074 83F82A20 		strb	r2, [r3, #42]
 3604 0078 13E0     		b	.L184
 3605              	.L185:
 998:u8glib_arm_v1.18.1\src/u8g_font.c ****   }
 999:u8glib_arm_v1.18.1\src/u8g_font.c ****   else
1000:u8glib_arm_v1.18.1\src/u8g_font.c ****   {
1001:u8glib_arm_v1.18.1\src/u8g_font.c ****     u8g->font_ref_ascent = u8g_font_GetFontAscent(u8g->font);
 3606              		.loc 1 1001 0
 3607 007a 7B68     		ldr	r3, [r7, #4]
 3608 007c 9B68     		ldr	r3, [r3, #8]
 3609 007e 1846     		mov	r0, r3
 3610 0080 FFF7FEFF 		bl	u8g_font_GetFontAscent
 3611 0084 0346     		mov	r3, r0
 3612 0086 1A46     		mov	r2, r3
 3613 0088 7B68     		ldr	r3, [r7, #4]
 3614 008a 83F82920 		strb	r2, [r3, #41]
1002:u8glib_arm_v1.18.1\src/u8g_font.c ****     u8g->font_ref_descent = u8g_font_GetFontDescent(u8g->font);
 3615              		.loc 1 1002 0
 3616 008e 7B68     		ldr	r3, [r7, #4]
 3617 0090 9B68     		ldr	r3, [r3, #8]
 3618 0092 1846     		mov	r0, r3
 3619 0094 FFF7FEFF 		bl	u8g_font_GetFontDescent
 3620 0098 0346     		mov	r3, r0
 3621 009a 1A46     		mov	r2, r3
 3622 009c 7B68     		ldr	r3, [r7, #4]
 3623 009e 83F82A20 		strb	r2, [r3, #42]
 3624              	.L184:
1003:u8glib_arm_v1.18.1\src/u8g_font.c ****   }
1004:u8glib_arm_v1.18.1\src/u8g_font.c ****   
1005:u8glib_arm_v1.18.1\src/u8g_font.c ****   ls = u8g->font_ref_ascent - u8g->font_ref_descent;
 3625              		.loc 1 1005 0
 3626 00a2 7B68     		ldr	r3, [r7, #4]
 3627 00a4 93F82930 		ldrb	r3, [r3, #41]	@ zero_extendqisi2
 3628 00a8 5BB2     		sxtb	r3, r3
 3629 00aa 9AB2     		uxth	r2, r3
 3630 00ac 7B68     		ldr	r3, [r7, #4]
 3631 00ae 93F82A30 		ldrb	r3, [r3, #42]	@ zero_extendqisi2
 3632 00b2 5BB2     		sxtb	r3, r3
 3633 00b4 9BB2     		uxth	r3, r3
 3634 00b6 D31A     		subs	r3, r2, r3
 3635 00b8 9BB2     		uxth	r3, r3
 3636 00ba FB81     		strh	r3, [r7, #14]	@ movhi
1006:u8glib_arm_v1.18.1\src/u8g_font.c ****   if ( u8g->font_line_spacing_factor != 64 )
 3637              		.loc 1 1006 0
 3638 00bc 7B68     		ldr	r3, [r7, #4]
 3639 00be 93F82B30 		ldrb	r3, [r3, #43]	@ zero_extendqisi2
 3640 00c2 402B     		cmp	r3, #64
 3641 00c4 0DD0     		beq	.L186
1007:u8glib_arm_v1.18.1\src/u8g_font.c ****   {
1008:u8glib_arm_v1.18.1\src/u8g_font.c ****     ls &= 255;
 3642              		.loc 1 1008 0
 3643 00c6 FB89     		ldrh	r3, [r7, #14]	@ movhi
 3644 00c8 DBB2     		uxtb	r3, r3
 3645 00ca FB81     		strh	r3, [r7, #14]	@ movhi
1009:u8glib_arm_v1.18.1\src/u8g_font.c ****     ls *= u8g->font_line_spacing_factor;
ARM GAS  C:\Users\KJA\AppData\Local\Temp\ccevgiJT.s 			page 83


 3646              		.loc 1 1009 0
 3647 00cc 7B68     		ldr	r3, [r7, #4]
 3648 00ce 93F82B30 		ldrb	r3, [r3, #43]	@ zero_extendqisi2
 3649 00d2 9BB2     		uxth	r3, r3
 3650 00d4 FA89     		ldrh	r2, [r7, #14]	@ movhi
 3651 00d6 02FB03F3 		mul	r3, r2, r3
 3652 00da FB81     		strh	r3, [r7, #14]	@ movhi
1010:u8glib_arm_v1.18.1\src/u8g_font.c ****     ls >>= 6;
 3653              		.loc 1 1010 0
 3654 00dc FB89     		ldrh	r3, [r7, #14]
 3655 00de 9B09     		lsrs	r3, r3, #6
 3656 00e0 FB81     		strh	r3, [r7, #14]	@ movhi
 3657              	.L186:
1011:u8glib_arm_v1.18.1\src/u8g_font.c ****   }
1012:u8glib_arm_v1.18.1\src/u8g_font.c ****   u8g->line_spacing = ls;
 3658              		.loc 1 1012 0
 3659 00e2 FB89     		ldrh	r3, [r7, #14]	@ movhi
 3660 00e4 DAB2     		uxtb	r2, r3
 3661 00e6 7B68     		ldr	r3, [r7, #4]
 3662 00e8 83F82C20 		strb	r2, [r3, #44]
 3663              	.L180:
1013:u8glib_arm_v1.18.1\src/u8g_font.c **** }
 3664              		.loc 1 1013 0
 3665 00ec 1037     		adds	r7, r7, #16
 3666              		.cfi_def_cfa_offset 8
 3667 00ee BD46     		mov	sp, r7
 3668              		.cfi_def_cfa_register 13
 3669              		@ sp needed
 3670 00f0 80BD     		pop	{r7, pc}
 3671              		.cfi_endproc
 3672              	.LFE49:
 3673              		.size	u8g_UpdateRefHeight, .-u8g_UpdateRefHeight
 3674 00f2 00BF     		.section	.text.u8g_SetFontRefHeightText,"ax",%progbits
 3675              		.align	2
 3676              		.global	u8g_SetFontRefHeightText
 3677              		.thumb
 3678              		.thumb_func
 3679              		.type	u8g_SetFontRefHeightText, %function
 3680              	u8g_SetFontRefHeightText:
 3681              	.LFB50:
1014:u8glib_arm_v1.18.1\src/u8g_font.c **** 
1015:u8glib_arm_v1.18.1\src/u8g_font.c **** void u8g_SetFontRefHeightText(u8g_t *u8g)
1016:u8glib_arm_v1.18.1\src/u8g_font.c **** {
 3682              		.loc 1 1016 0
 3683              		.cfi_startproc
 3684              		@ args = 0, pretend = 0, frame = 8
 3685              		@ frame_needed = 1, uses_anonymous_args = 0
 3686 0000 80B5     		push	{r7, lr}
 3687              		.cfi_def_cfa_offset 8
 3688              		.cfi_offset 7, -8
 3689              		.cfi_offset 14, -4
 3690 0002 82B0     		sub	sp, sp, #8
 3691              		.cfi_def_cfa_offset 16
 3692 0004 00AF     		add	r7, sp, #0
 3693              		.cfi_def_cfa_register 7
 3694 0006 7860     		str	r0, [r7, #4]
1017:u8glib_arm_v1.18.1\src/u8g_font.c ****   u8g->font_height_mode = U8G_FONT_HEIGHT_MODE_TEXT;
ARM GAS  C:\Users\KJA\AppData\Local\Temp\ccevgiJT.s 			page 84


 3695              		.loc 1 1017 0
 3696 0008 7B68     		ldr	r3, [r7, #4]
 3697 000a 0022     		movs	r2, #0
 3698 000c 83F82820 		strb	r2, [r3, #40]
1018:u8glib_arm_v1.18.1\src/u8g_font.c ****   u8g_UpdateRefHeight(u8g);
 3699              		.loc 1 1018 0
 3700 0010 7868     		ldr	r0, [r7, #4]
 3701 0012 FFF7FEFF 		bl	u8g_UpdateRefHeight
1019:u8glib_arm_v1.18.1\src/u8g_font.c **** }
 3702              		.loc 1 1019 0
 3703 0016 0837     		adds	r7, r7, #8
 3704              		.cfi_def_cfa_offset 8
 3705 0018 BD46     		mov	sp, r7
 3706              		.cfi_def_cfa_register 13
 3707              		@ sp needed
 3708 001a 80BD     		pop	{r7, pc}
 3709              		.cfi_endproc
 3710              	.LFE50:
 3711              		.size	u8g_SetFontRefHeightText, .-u8g_SetFontRefHeightText
 3712              		.section	.text.u8g_SetFontRefHeightExtendedText,"ax",%progbits
 3713              		.align	2
 3714              		.global	u8g_SetFontRefHeightExtendedText
 3715              		.thumb
 3716              		.thumb_func
 3717              		.type	u8g_SetFontRefHeightExtendedText, %function
 3718              	u8g_SetFontRefHeightExtendedText:
 3719              	.LFB51:
1020:u8glib_arm_v1.18.1\src/u8g_font.c **** 
1021:u8glib_arm_v1.18.1\src/u8g_font.c **** void u8g_SetFontRefHeightExtendedText(u8g_t *u8g)
1022:u8glib_arm_v1.18.1\src/u8g_font.c **** {
 3720              		.loc 1 1022 0
 3721              		.cfi_startproc
 3722              		@ args = 0, pretend = 0, frame = 8
 3723              		@ frame_needed = 1, uses_anonymous_args = 0
 3724 0000 80B5     		push	{r7, lr}
 3725              		.cfi_def_cfa_offset 8
 3726              		.cfi_offset 7, -8
 3727              		.cfi_offset 14, -4
 3728 0002 82B0     		sub	sp, sp, #8
 3729              		.cfi_def_cfa_offset 16
 3730 0004 00AF     		add	r7, sp, #0
 3731              		.cfi_def_cfa_register 7
 3732 0006 7860     		str	r0, [r7, #4]
1023:u8glib_arm_v1.18.1\src/u8g_font.c ****   u8g->font_height_mode = U8G_FONT_HEIGHT_MODE_XTEXT;
 3733              		.loc 1 1023 0
 3734 0008 7B68     		ldr	r3, [r7, #4]
 3735 000a 0122     		movs	r2, #1
 3736 000c 83F82820 		strb	r2, [r3, #40]
1024:u8glib_arm_v1.18.1\src/u8g_font.c ****   u8g_UpdateRefHeight(u8g);
 3737              		.loc 1 1024 0
 3738 0010 7868     		ldr	r0, [r7, #4]
 3739 0012 FFF7FEFF 		bl	u8g_UpdateRefHeight
1025:u8glib_arm_v1.18.1\src/u8g_font.c **** }
 3740              		.loc 1 1025 0
 3741 0016 0837     		adds	r7, r7, #8
 3742              		.cfi_def_cfa_offset 8
 3743 0018 BD46     		mov	sp, r7
ARM GAS  C:\Users\KJA\AppData\Local\Temp\ccevgiJT.s 			page 85


 3744              		.cfi_def_cfa_register 13
 3745              		@ sp needed
 3746 001a 80BD     		pop	{r7, pc}
 3747              		.cfi_endproc
 3748              	.LFE51:
 3749              		.size	u8g_SetFontRefHeightExtendedText, .-u8g_SetFontRefHeightExtendedText
 3750              		.section	.text.u8g_SetFontRefHeightAll,"ax",%progbits
 3751              		.align	2
 3752              		.global	u8g_SetFontRefHeightAll
 3753              		.thumb
 3754              		.thumb_func
 3755              		.type	u8g_SetFontRefHeightAll, %function
 3756              	u8g_SetFontRefHeightAll:
 3757              	.LFB52:
1026:u8glib_arm_v1.18.1\src/u8g_font.c **** 
1027:u8glib_arm_v1.18.1\src/u8g_font.c **** 
1028:u8glib_arm_v1.18.1\src/u8g_font.c **** void u8g_SetFontRefHeightAll(u8g_t *u8g)
1029:u8glib_arm_v1.18.1\src/u8g_font.c **** {
 3758              		.loc 1 1029 0
 3759              		.cfi_startproc
 3760              		@ args = 0, pretend = 0, frame = 8
 3761              		@ frame_needed = 1, uses_anonymous_args = 0
 3762 0000 80B5     		push	{r7, lr}
 3763              		.cfi_def_cfa_offset 8
 3764              		.cfi_offset 7, -8
 3765              		.cfi_offset 14, -4
 3766 0002 82B0     		sub	sp, sp, #8
 3767              		.cfi_def_cfa_offset 16
 3768 0004 00AF     		add	r7, sp, #0
 3769              		.cfi_def_cfa_register 7
 3770 0006 7860     		str	r0, [r7, #4]
1030:u8glib_arm_v1.18.1\src/u8g_font.c ****   u8g->font_height_mode = U8G_FONT_HEIGHT_MODE_ALL;
 3771              		.loc 1 1030 0
 3772 0008 7B68     		ldr	r3, [r7, #4]
 3773 000a 0222     		movs	r2, #2
 3774 000c 83F82820 		strb	r2, [r3, #40]
1031:u8glib_arm_v1.18.1\src/u8g_font.c ****   u8g_UpdateRefHeight(u8g);
 3775              		.loc 1 1031 0
 3776 0010 7868     		ldr	r0, [r7, #4]
 3777 0012 FFF7FEFF 		bl	u8g_UpdateRefHeight
1032:u8glib_arm_v1.18.1\src/u8g_font.c **** }
 3778              		.loc 1 1032 0
 3779 0016 0837     		adds	r7, r7, #8
 3780              		.cfi_def_cfa_offset 8
 3781 0018 BD46     		mov	sp, r7
 3782              		.cfi_def_cfa_register 13
 3783              		@ sp needed
 3784 001a 80BD     		pop	{r7, pc}
 3785              		.cfi_endproc
 3786              	.LFE52:
 3787              		.size	u8g_SetFontRefHeightAll, .-u8g_SetFontRefHeightAll
 3788              		.section	.text.u8g_SetFontLineSpacingFactor,"ax",%progbits
 3789              		.align	2
 3790              		.global	u8g_SetFontLineSpacingFactor
 3791              		.thumb
 3792              		.thumb_func
 3793              		.type	u8g_SetFontLineSpacingFactor, %function
ARM GAS  C:\Users\KJA\AppData\Local\Temp\ccevgiJT.s 			page 86


 3794              	u8g_SetFontLineSpacingFactor:
 3795              	.LFB53:
1033:u8glib_arm_v1.18.1\src/u8g_font.c **** 
1034:u8glib_arm_v1.18.1\src/u8g_font.c **** /* factor = 64: linespaceing == ascent and descent */
1035:u8glib_arm_v1.18.1\src/u8g_font.c **** void u8g_SetFontLineSpacingFactor(u8g_t *u8g, uint8_t  factor)
1036:u8glib_arm_v1.18.1\src/u8g_font.c **** {
 3796              		.loc 1 1036 0
 3797              		.cfi_startproc
 3798              		@ args = 0, pretend = 0, frame = 8
 3799              		@ frame_needed = 1, uses_anonymous_args = 0
 3800 0000 80B5     		push	{r7, lr}
 3801              		.cfi_def_cfa_offset 8
 3802              		.cfi_offset 7, -8
 3803              		.cfi_offset 14, -4
 3804 0002 82B0     		sub	sp, sp, #8
 3805              		.cfi_def_cfa_offset 16
 3806 0004 00AF     		add	r7, sp, #0
 3807              		.cfi_def_cfa_register 7
 3808 0006 7860     		str	r0, [r7, #4]
 3809 0008 0B46     		mov	r3, r1
 3810 000a FB70     		strb	r3, [r7, #3]
1037:u8glib_arm_v1.18.1\src/u8g_font.c ****   u8g->font_line_spacing_factor = factor;
 3811              		.loc 1 1037 0
 3812 000c 7B68     		ldr	r3, [r7, #4]
 3813 000e FA78     		ldrb	r2, [r7, #3]
 3814 0010 83F82B20 		strb	r2, [r3, #43]
1038:u8glib_arm_v1.18.1\src/u8g_font.c ****   u8g_UpdateRefHeight(u8g);
 3815              		.loc 1 1038 0
 3816 0014 7868     		ldr	r0, [r7, #4]
 3817 0016 FFF7FEFF 		bl	u8g_UpdateRefHeight
1039:u8glib_arm_v1.18.1\src/u8g_font.c **** }
 3818              		.loc 1 1039 0
 3819 001a 0837     		adds	r7, r7, #8
 3820              		.cfi_def_cfa_offset 8
 3821 001c BD46     		mov	sp, r7
 3822              		.cfi_def_cfa_register 13
 3823              		@ sp needed
 3824 001e 80BD     		pop	{r7, pc}
 3825              		.cfi_endproc
 3826              	.LFE53:
 3827              		.size	u8g_SetFontLineSpacingFactor, .-u8g_SetFontLineSpacingFactor
 3828              		.section	.text.u8g_font_calc_vref_font,"ax",%progbits
 3829              		.align	2
 3830              		.global	u8g_font_calc_vref_font
 3831              		.thumb
 3832              		.thumb_func
 3833              		.type	u8g_font_calc_vref_font, %function
 3834              	u8g_font_calc_vref_font:
 3835              	.LFB54:
1040:u8glib_arm_v1.18.1\src/u8g_font.c **** 
1041:u8glib_arm_v1.18.1\src/u8g_font.c **** 
1042:u8glib_arm_v1.18.1\src/u8g_font.c **** 
1043:u8glib_arm_v1.18.1\src/u8g_font.c **** /*========================================================================*/
1044:u8glib_arm_v1.18.1\src/u8g_font.c **** /* callback procedures to correct the y position */
1045:u8glib_arm_v1.18.1\src/u8g_font.c **** 
1046:u8glib_arm_v1.18.1\src/u8g_font.c **** u8g_uint_t u8g_font_calc_vref_font(u8g_t *u8g)
1047:u8glib_arm_v1.18.1\src/u8g_font.c **** {
ARM GAS  C:\Users\KJA\AppData\Local\Temp\ccevgiJT.s 			page 87


 3836              		.loc 1 1047 0
 3837              		.cfi_startproc
 3838              		@ args = 0, pretend = 0, frame = 8
 3839              		@ frame_needed = 1, uses_anonymous_args = 0
 3840              		@ link register save eliminated.
 3841 0000 80B4     		push	{r7}
 3842              		.cfi_def_cfa_offset 4
 3843              		.cfi_offset 7, -4
 3844 0002 83B0     		sub	sp, sp, #12
 3845              		.cfi_def_cfa_offset 16
 3846 0004 00AF     		add	r7, sp, #0
 3847              		.cfi_def_cfa_register 7
 3848 0006 7860     		str	r0, [r7, #4]
1048:u8glib_arm_v1.18.1\src/u8g_font.c ****   return 0;
 3849              		.loc 1 1048 0
 3850 0008 0023     		movs	r3, #0
1049:u8glib_arm_v1.18.1\src/u8g_font.c **** }
 3851              		.loc 1 1049 0
 3852 000a 1846     		mov	r0, r3
 3853 000c 0C37     		adds	r7, r7, #12
 3854              		.cfi_def_cfa_offset 4
 3855 000e BD46     		mov	sp, r7
 3856              		.cfi_def_cfa_register 13
 3857              		@ sp needed
 3858 0010 5DF8047B 		ldr	r7, [sp], #4
 3859              		.cfi_restore 7
 3860              		.cfi_def_cfa_offset 0
 3861 0014 7047     		bx	lr
 3862              		.cfi_endproc
 3863              	.LFE54:
 3864              		.size	u8g_font_calc_vref_font, .-u8g_font_calc_vref_font
 3865 0016 00BF     		.section	.text.u8g_SetFontPosBaseline,"ax",%progbits
 3866              		.align	2
 3867              		.global	u8g_SetFontPosBaseline
 3868              		.thumb
 3869              		.thumb_func
 3870              		.type	u8g_SetFontPosBaseline, %function
 3871              	u8g_SetFontPosBaseline:
 3872              	.LFB55:
1050:u8glib_arm_v1.18.1\src/u8g_font.c **** 
1051:u8glib_arm_v1.18.1\src/u8g_font.c **** void u8g_SetFontPosBaseline(u8g_t *u8g)
1052:u8glib_arm_v1.18.1\src/u8g_font.c **** {
 3873              		.loc 1 1052 0
 3874              		.cfi_startproc
 3875              		@ args = 0, pretend = 0, frame = 8
 3876              		@ frame_needed = 1, uses_anonymous_args = 0
 3877              		@ link register save eliminated.
 3878 0000 80B4     		push	{r7}
 3879              		.cfi_def_cfa_offset 4
 3880              		.cfi_offset 7, -4
 3881 0002 83B0     		sub	sp, sp, #12
 3882              		.cfi_def_cfa_offset 16
 3883 0004 00AF     		add	r7, sp, #0
 3884              		.cfi_def_cfa_register 7
 3885 0006 7860     		str	r0, [r7, #4]
1053:u8glib_arm_v1.18.1\src/u8g_font.c ****   u8g->font_calc_vref = u8g_font_calc_vref_font;
 3886              		.loc 1 1053 0
ARM GAS  C:\Users\KJA\AppData\Local\Temp\ccevgiJT.s 			page 88


 3887 0008 7B68     		ldr	r3, [r7, #4]
 3888 000a 034A     		ldr	r2, .L194
 3889 000c 5A62     		str	r2, [r3, #36]
1054:u8glib_arm_v1.18.1\src/u8g_font.c **** }
 3890              		.loc 1 1054 0
 3891 000e 0C37     		adds	r7, r7, #12
 3892              		.cfi_def_cfa_offset 4
 3893 0010 BD46     		mov	sp, r7
 3894              		.cfi_def_cfa_register 13
 3895              		@ sp needed
 3896 0012 5DF8047B 		ldr	r7, [sp], #4
 3897              		.cfi_restore 7
 3898              		.cfi_def_cfa_offset 0
 3899 0016 7047     		bx	lr
 3900              	.L195:
 3901              		.align	2
 3902              	.L194:
 3903 0018 00000000 		.word	u8g_font_calc_vref_font
 3904              		.cfi_endproc
 3905              	.LFE55:
 3906              		.size	u8g_SetFontPosBaseline, .-u8g_SetFontPosBaseline
 3907              		.section	.text.u8g_font_calc_vref_bottom,"ax",%progbits
 3908              		.align	2
 3909              		.global	u8g_font_calc_vref_bottom
 3910              		.thumb
 3911              		.thumb_func
 3912              		.type	u8g_font_calc_vref_bottom, %function
 3913              	u8g_font_calc_vref_bottom:
 3914              	.LFB56:
1055:u8glib_arm_v1.18.1\src/u8g_font.c **** 
1056:u8glib_arm_v1.18.1\src/u8g_font.c **** 
1057:u8glib_arm_v1.18.1\src/u8g_font.c **** u8g_uint_t u8g_font_calc_vref_bottom(u8g_t *u8g)
1058:u8glib_arm_v1.18.1\src/u8g_font.c **** {
 3915              		.loc 1 1058 0
 3916              		.cfi_startproc
 3917              		@ args = 0, pretend = 0, frame = 8
 3918              		@ frame_needed = 1, uses_anonymous_args = 0
 3919              		@ link register save eliminated.
 3920 0000 80B4     		push	{r7}
 3921              		.cfi_def_cfa_offset 4
 3922              		.cfi_offset 7, -4
 3923 0002 83B0     		sub	sp, sp, #12
 3924              		.cfi_def_cfa_offset 16
 3925 0004 00AF     		add	r7, sp, #0
 3926              		.cfi_def_cfa_register 7
 3927 0006 7860     		str	r0, [r7, #4]
1059:u8glib_arm_v1.18.1\src/u8g_font.c ****   /* y += (u8g_uint_t)(u8g_int_t)(u8g->font_ref_descent); */
1060:u8glib_arm_v1.18.1\src/u8g_font.c ****   return (u8g_uint_t)(u8g_int_t)(u8g->font_ref_descent);
 3928              		.loc 1 1060 0
 3929 0008 7B68     		ldr	r3, [r7, #4]
 3930 000a 93F82A30 		ldrb	r3, [r3, #42]	@ zero_extendqisi2
 3931 000e DBB2     		uxtb	r3, r3
1061:u8glib_arm_v1.18.1\src/u8g_font.c **** }
 3932              		.loc 1 1061 0
 3933 0010 1846     		mov	r0, r3
 3934 0012 0C37     		adds	r7, r7, #12
 3935              		.cfi_def_cfa_offset 4
ARM GAS  C:\Users\KJA\AppData\Local\Temp\ccevgiJT.s 			page 89


 3936 0014 BD46     		mov	sp, r7
 3937              		.cfi_def_cfa_register 13
 3938              		@ sp needed
 3939 0016 5DF8047B 		ldr	r7, [sp], #4
 3940              		.cfi_restore 7
 3941              		.cfi_def_cfa_offset 0
 3942 001a 7047     		bx	lr
 3943              		.cfi_endproc
 3944              	.LFE56:
 3945              		.size	u8g_font_calc_vref_bottom, .-u8g_font_calc_vref_bottom
 3946              		.section	.text.u8g_SetFontPosBottom,"ax",%progbits
 3947              		.align	2
 3948              		.global	u8g_SetFontPosBottom
 3949              		.thumb
 3950              		.thumb_func
 3951              		.type	u8g_SetFontPosBottom, %function
 3952              	u8g_SetFontPosBottom:
 3953              	.LFB57:
1062:u8glib_arm_v1.18.1\src/u8g_font.c **** 
1063:u8glib_arm_v1.18.1\src/u8g_font.c **** void u8g_SetFontPosBottom(u8g_t *u8g)
1064:u8glib_arm_v1.18.1\src/u8g_font.c **** {
 3954              		.loc 1 1064 0
 3955              		.cfi_startproc
 3956              		@ args = 0, pretend = 0, frame = 8
 3957              		@ frame_needed = 1, uses_anonymous_args = 0
 3958              		@ link register save eliminated.
 3959 0000 80B4     		push	{r7}
 3960              		.cfi_def_cfa_offset 4
 3961              		.cfi_offset 7, -4
 3962 0002 83B0     		sub	sp, sp, #12
 3963              		.cfi_def_cfa_offset 16
 3964 0004 00AF     		add	r7, sp, #0
 3965              		.cfi_def_cfa_register 7
 3966 0006 7860     		str	r0, [r7, #4]
1065:u8glib_arm_v1.18.1\src/u8g_font.c ****   u8g->font_calc_vref = u8g_font_calc_vref_bottom;
 3967              		.loc 1 1065 0
 3968 0008 7B68     		ldr	r3, [r7, #4]
 3969 000a 034A     		ldr	r2, .L199
 3970 000c 5A62     		str	r2, [r3, #36]
1066:u8glib_arm_v1.18.1\src/u8g_font.c **** }
 3971              		.loc 1 1066 0
 3972 000e 0C37     		adds	r7, r7, #12
 3973              		.cfi_def_cfa_offset 4
 3974 0010 BD46     		mov	sp, r7
 3975              		.cfi_def_cfa_register 13
 3976              		@ sp needed
 3977 0012 5DF8047B 		ldr	r7, [sp], #4
 3978              		.cfi_restore 7
 3979              		.cfi_def_cfa_offset 0
 3980 0016 7047     		bx	lr
 3981              	.L200:
 3982              		.align	2
 3983              	.L199:
 3984 0018 00000000 		.word	u8g_font_calc_vref_bottom
 3985              		.cfi_endproc
 3986              	.LFE57:
 3987              		.size	u8g_SetFontPosBottom, .-u8g_SetFontPosBottom
ARM GAS  C:\Users\KJA\AppData\Local\Temp\ccevgiJT.s 			page 90


 3988              		.section	.text.u8g_font_calc_vref_top,"ax",%progbits
 3989              		.align	2
 3990              		.global	u8g_font_calc_vref_top
 3991              		.thumb
 3992              		.thumb_func
 3993              		.type	u8g_font_calc_vref_top, %function
 3994              	u8g_font_calc_vref_top:
 3995              	.LFB58:
1067:u8glib_arm_v1.18.1\src/u8g_font.c **** 
1068:u8glib_arm_v1.18.1\src/u8g_font.c **** u8g_uint_t u8g_font_calc_vref_top(u8g_t *u8g)
1069:u8glib_arm_v1.18.1\src/u8g_font.c **** {
 3996              		.loc 1 1069 0
 3997              		.cfi_startproc
 3998              		@ args = 0, pretend = 0, frame = 16
 3999              		@ frame_needed = 1, uses_anonymous_args = 0
 4000              		@ link register save eliminated.
 4001 0000 80B4     		push	{r7}
 4002              		.cfi_def_cfa_offset 4
 4003              		.cfi_offset 7, -4
 4004 0002 85B0     		sub	sp, sp, #20
 4005              		.cfi_def_cfa_offset 24
 4006 0004 00AF     		add	r7, sp, #0
 4007              		.cfi_def_cfa_register 7
 4008 0006 7860     		str	r0, [r7, #4]
1070:u8glib_arm_v1.18.1\src/u8g_font.c ****   u8g_uint_t tmp;
1071:u8glib_arm_v1.18.1\src/u8g_font.c ****   /* reference pos is one pixel above the upper edge of the reference glyph */
1072:u8glib_arm_v1.18.1\src/u8g_font.c **** 
1073:u8glib_arm_v1.18.1\src/u8g_font.c ****   /*
1074:u8glib_arm_v1.18.1\src/u8g_font.c ****   y += (u8g_uint_t)(u8g_int_t)(u8g->font_ref_ascent);
1075:u8glib_arm_v1.18.1\src/u8g_font.c ****   y++;
1076:u8glib_arm_v1.18.1\src/u8g_font.c ****   */
1077:u8glib_arm_v1.18.1\src/u8g_font.c ****   tmp = (u8g_uint_t)(u8g_int_t)(u8g->font_ref_ascent);
 4009              		.loc 1 1077 0
 4010 0008 7B68     		ldr	r3, [r7, #4]
 4011 000a 93F82930 		ldrb	r3, [r3, #41]	@ zero_extendqisi2
 4012 000e FB73     		strb	r3, [r7, #15]
1078:u8glib_arm_v1.18.1\src/u8g_font.c ****   tmp++;
 4013              		.loc 1 1078 0
 4014 0010 FB7B     		ldrb	r3, [r7, #15]	@ zero_extendqisi2
 4015 0012 0133     		adds	r3, r3, #1
 4016 0014 FB73     		strb	r3, [r7, #15]
1079:u8glib_arm_v1.18.1\src/u8g_font.c ****   return tmp;
 4017              		.loc 1 1079 0
 4018 0016 FB7B     		ldrb	r3, [r7, #15]	@ zero_extendqisi2
1080:u8glib_arm_v1.18.1\src/u8g_font.c **** }
 4019              		.loc 1 1080 0
 4020 0018 1846     		mov	r0, r3
 4021 001a 1437     		adds	r7, r7, #20
 4022              		.cfi_def_cfa_offset 4
 4023 001c BD46     		mov	sp, r7
 4024              		.cfi_def_cfa_register 13
 4025              		@ sp needed
 4026 001e 5DF8047B 		ldr	r7, [sp], #4
 4027              		.cfi_restore 7
 4028              		.cfi_def_cfa_offset 0
 4029 0022 7047     		bx	lr
 4030              		.cfi_endproc
ARM GAS  C:\Users\KJA\AppData\Local\Temp\ccevgiJT.s 			page 91


 4031              	.LFE58:
 4032              		.size	u8g_font_calc_vref_top, .-u8g_font_calc_vref_top
 4033              		.section	.text.u8g_SetFontPosTop,"ax",%progbits
 4034              		.align	2
 4035              		.global	u8g_SetFontPosTop
 4036              		.thumb
 4037              		.thumb_func
 4038              		.type	u8g_SetFontPosTop, %function
 4039              	u8g_SetFontPosTop:
 4040              	.LFB59:
1081:u8glib_arm_v1.18.1\src/u8g_font.c **** 
1082:u8glib_arm_v1.18.1\src/u8g_font.c **** void u8g_SetFontPosTop(u8g_t *u8g)
1083:u8glib_arm_v1.18.1\src/u8g_font.c **** {
 4041              		.loc 1 1083 0
 4042              		.cfi_startproc
 4043              		@ args = 0, pretend = 0, frame = 8
 4044              		@ frame_needed = 1, uses_anonymous_args = 0
 4045              		@ link register save eliminated.
 4046 0000 80B4     		push	{r7}
 4047              		.cfi_def_cfa_offset 4
 4048              		.cfi_offset 7, -4
 4049 0002 83B0     		sub	sp, sp, #12
 4050              		.cfi_def_cfa_offset 16
 4051 0004 00AF     		add	r7, sp, #0
 4052              		.cfi_def_cfa_register 7
 4053 0006 7860     		str	r0, [r7, #4]
1084:u8glib_arm_v1.18.1\src/u8g_font.c ****   u8g->font_calc_vref = u8g_font_calc_vref_top;
 4054              		.loc 1 1084 0
 4055 0008 7B68     		ldr	r3, [r7, #4]
 4056 000a 034A     		ldr	r2, .L204
 4057 000c 5A62     		str	r2, [r3, #36]
1085:u8glib_arm_v1.18.1\src/u8g_font.c **** }
 4058              		.loc 1 1085 0
 4059 000e 0C37     		adds	r7, r7, #12
 4060              		.cfi_def_cfa_offset 4
 4061 0010 BD46     		mov	sp, r7
 4062              		.cfi_def_cfa_register 13
 4063              		@ sp needed
 4064 0012 5DF8047B 		ldr	r7, [sp], #4
 4065              		.cfi_restore 7
 4066              		.cfi_def_cfa_offset 0
 4067 0016 7047     		bx	lr
 4068              	.L205:
 4069              		.align	2
 4070              	.L204:
 4071 0018 00000000 		.word	u8g_font_calc_vref_top
 4072              		.cfi_endproc
 4073              	.LFE59:
 4074              		.size	u8g_SetFontPosTop, .-u8g_SetFontPosTop
 4075              		.section	.text.u8g_font_calc_vref_center,"ax",%progbits
 4076              		.align	2
 4077              		.global	u8g_font_calc_vref_center
 4078              		.thumb
 4079              		.thumb_func
 4080              		.type	u8g_font_calc_vref_center, %function
 4081              	u8g_font_calc_vref_center:
 4082              	.LFB60:
ARM GAS  C:\Users\KJA\AppData\Local\Temp\ccevgiJT.s 			page 92


1086:u8glib_arm_v1.18.1\src/u8g_font.c **** 
1087:u8glib_arm_v1.18.1\src/u8g_font.c **** u8g_uint_t u8g_font_calc_vref_center(u8g_t *u8g)
1088:u8glib_arm_v1.18.1\src/u8g_font.c **** {
 4083              		.loc 1 1088 0
 4084              		.cfi_startproc
 4085              		@ args = 0, pretend = 0, frame = 16
 4086              		@ frame_needed = 1, uses_anonymous_args = 0
 4087              		@ link register save eliminated.
 4088 0000 80B4     		push	{r7}
 4089              		.cfi_def_cfa_offset 4
 4090              		.cfi_offset 7, -4
 4091 0002 85B0     		sub	sp, sp, #20
 4092              		.cfi_def_cfa_offset 24
 4093 0004 00AF     		add	r7, sp, #0
 4094              		.cfi_def_cfa_register 7
 4095 0006 7860     		str	r0, [r7, #4]
1089:u8glib_arm_v1.18.1\src/u8g_font.c ****   int8_t tmp;
1090:u8glib_arm_v1.18.1\src/u8g_font.c ****   tmp = u8g->font_ref_ascent;
 4096              		.loc 1 1090 0
 4097 0008 7B68     		ldr	r3, [r7, #4]
 4098 000a 93F82930 		ldrb	r3, [r3, #41]
 4099 000e FB73     		strb	r3, [r7, #15]
1091:u8glib_arm_v1.18.1\src/u8g_font.c ****   tmp -= u8g->font_ref_descent;
 4100              		.loc 1 1091 0
 4101 0010 FA7B     		ldrb	r2, [r7, #15]	@ zero_extendqisi2
 4102 0012 7B68     		ldr	r3, [r7, #4]
 4103 0014 93F82A30 		ldrb	r3, [r3, #42]	@ zero_extendqisi2
 4104 0018 DBB2     		uxtb	r3, r3
 4105 001a D31A     		subs	r3, r2, r3
 4106 001c DBB2     		uxtb	r3, r3
 4107 001e FB73     		strb	r3, [r7, #15]
1092:u8glib_arm_v1.18.1\src/u8g_font.c ****   tmp /= 2;
 4108              		.loc 1 1092 0
 4109 0020 97F90F30 		ldrsb	r3, [r7, #15]
 4110 0024 DA0F     		lsrs	r2, r3, #31
 4111 0026 1344     		add	r3, r3, r2
 4112 0028 5B10     		asrs	r3, r3, #1
 4113 002a FB73     		strb	r3, [r7, #15]
1093:u8glib_arm_v1.18.1\src/u8g_font.c ****   tmp += u8g->font_ref_descent;  
 4114              		.loc 1 1093 0
 4115 002c 7B68     		ldr	r3, [r7, #4]
 4116 002e 93F82A30 		ldrb	r3, [r3, #42]	@ zero_extendqisi2
 4117 0032 DAB2     		uxtb	r2, r3
 4118 0034 FB7B     		ldrb	r3, [r7, #15]	@ zero_extendqisi2
 4119 0036 1344     		add	r3, r3, r2
 4120 0038 DBB2     		uxtb	r3, r3
 4121 003a FB73     		strb	r3, [r7, #15]
1094:u8glib_arm_v1.18.1\src/u8g_font.c ****   /* y += (u8g_uint_t)(u8g_int_t)(tmp); */
1095:u8glib_arm_v1.18.1\src/u8g_font.c ****   return tmp;
 4122              		.loc 1 1095 0
 4123 003c FB7B     		ldrb	r3, [r7, #15]	@ zero_extendqisi2
1096:u8glib_arm_v1.18.1\src/u8g_font.c **** }
 4124              		.loc 1 1096 0
 4125 003e 1846     		mov	r0, r3
 4126 0040 1437     		adds	r7, r7, #20
 4127              		.cfi_def_cfa_offset 4
 4128 0042 BD46     		mov	sp, r7
ARM GAS  C:\Users\KJA\AppData\Local\Temp\ccevgiJT.s 			page 93


 4129              		.cfi_def_cfa_register 13
 4130              		@ sp needed
 4131 0044 5DF8047B 		ldr	r7, [sp], #4
 4132              		.cfi_restore 7
 4133              		.cfi_def_cfa_offset 0
 4134 0048 7047     		bx	lr
 4135              		.cfi_endproc
 4136              	.LFE60:
 4137              		.size	u8g_font_calc_vref_center, .-u8g_font_calc_vref_center
 4138 004a 00BF     		.section	.text.u8g_SetFontPosCenter,"ax",%progbits
 4139              		.align	2
 4140              		.global	u8g_SetFontPosCenter
 4141              		.thumb
 4142              		.thumb_func
 4143              		.type	u8g_SetFontPosCenter, %function
 4144              	u8g_SetFontPosCenter:
 4145              	.LFB61:
1097:u8glib_arm_v1.18.1\src/u8g_font.c **** 
1098:u8glib_arm_v1.18.1\src/u8g_font.c **** void u8g_SetFontPosCenter(u8g_t *u8g)
1099:u8glib_arm_v1.18.1\src/u8g_font.c **** {
 4146              		.loc 1 1099 0
 4147              		.cfi_startproc
 4148              		@ args = 0, pretend = 0, frame = 8
 4149              		@ frame_needed = 1, uses_anonymous_args = 0
 4150              		@ link register save eliminated.
 4151 0000 80B4     		push	{r7}
 4152              		.cfi_def_cfa_offset 4
 4153              		.cfi_offset 7, -4
 4154 0002 83B0     		sub	sp, sp, #12
 4155              		.cfi_def_cfa_offset 16
 4156 0004 00AF     		add	r7, sp, #0
 4157              		.cfi_def_cfa_register 7
 4158 0006 7860     		str	r0, [r7, #4]
1100:u8glib_arm_v1.18.1\src/u8g_font.c ****   u8g->font_calc_vref = u8g_font_calc_vref_center;
 4159              		.loc 1 1100 0
 4160 0008 7B68     		ldr	r3, [r7, #4]
 4161 000a 034A     		ldr	r2, .L209
 4162 000c 5A62     		str	r2, [r3, #36]
1101:u8glib_arm_v1.18.1\src/u8g_font.c **** }
 4163              		.loc 1 1101 0
 4164 000e 0C37     		adds	r7, r7, #12
 4165              		.cfi_def_cfa_offset 4
 4166 0010 BD46     		mov	sp, r7
 4167              		.cfi_def_cfa_register 13
 4168              		@ sp needed
 4169 0012 5DF8047B 		ldr	r7, [sp], #4
 4170              		.cfi_restore 7
 4171              		.cfi_def_cfa_offset 0
 4172 0016 7047     		bx	lr
 4173              	.L210:
 4174              		.align	2
 4175              	.L209:
 4176 0018 00000000 		.word	u8g_font_calc_vref_center
 4177              		.cfi_endproc
 4178              	.LFE61:
 4179              		.size	u8g_SetFontPosCenter, .-u8g_SetFontPosCenter
 4180              		.section	.text.u8g_font_get_char,"ax",%progbits
ARM GAS  C:\Users\KJA\AppData\Local\Temp\ccevgiJT.s 			page 94


 4181              		.align	2
 4182              		.global	u8g_font_get_char
 4183              		.thumb
 4184              		.thumb_func
 4185              		.type	u8g_font_get_char, %function
 4186              	u8g_font_get_char:
 4187              	.LFB62:
1102:u8glib_arm_v1.18.1\src/u8g_font.c **** 
1103:u8glib_arm_v1.18.1\src/u8g_font.c **** /*========================================================================*/
1104:u8glib_arm_v1.18.1\src/u8g_font.c **** /* string pixel width calculation */
1105:u8glib_arm_v1.18.1\src/u8g_font.c **** 
1106:u8glib_arm_v1.18.1\src/u8g_font.c **** char u8g_font_get_char(const void *s)
1107:u8glib_arm_v1.18.1\src/u8g_font.c **** {
 4188              		.loc 1 1107 0
 4189              		.cfi_startproc
 4190              		@ args = 0, pretend = 0, frame = 8
 4191              		@ frame_needed = 1, uses_anonymous_args = 0
 4192              		@ link register save eliminated.
 4193 0000 80B4     		push	{r7}
 4194              		.cfi_def_cfa_offset 4
 4195              		.cfi_offset 7, -4
 4196 0002 83B0     		sub	sp, sp, #12
 4197              		.cfi_def_cfa_offset 16
 4198 0004 00AF     		add	r7, sp, #0
 4199              		.cfi_def_cfa_register 7
 4200 0006 7860     		str	r0, [r7, #4]
1108:u8glib_arm_v1.18.1\src/u8g_font.c ****   return *(const char *)(s);
 4201              		.loc 1 1108 0
 4202 0008 7B68     		ldr	r3, [r7, #4]
 4203 000a 1B78     		ldrb	r3, [r3]	@ zero_extendqisi2
1109:u8glib_arm_v1.18.1\src/u8g_font.c **** }
 4204              		.loc 1 1109 0
 4205 000c 1846     		mov	r0, r3
 4206 000e 0C37     		adds	r7, r7, #12
 4207              		.cfi_def_cfa_offset 4
 4208 0010 BD46     		mov	sp, r7
 4209              		.cfi_def_cfa_register 13
 4210              		@ sp needed
 4211 0012 5DF8047B 		ldr	r7, [sp], #4
 4212              		.cfi_restore 7
