ARM GAS  C:\Users\Shiguruy\AppData\Local\Temp\ccUsbYC3.s 			page 1


   1              		.syntax unified
   2              		.cpu cortex-m3
   3              		.fpu softvfp
   4              		.eabi_attribute 20, 1
   5              		.eabi_attribute 21, 1
   6              		.eabi_attribute 23, 3
   7              		.eabi_attribute 24, 1
   8              		.eabi_attribute 25, 1
   9              		.eabi_attribute 26, 1
  10              		.eabi_attribute 30, 6
  11              		.eabi_attribute 34, 1
  12              		.eabi_attribute 18, 4
  13              		.thumb
  14              		.file	"u8g_dev_null.c"
  15              		.text
  16              	.Ltext0:
  17              		.cfi_sections	.debug_frame
  18              		.section	.text.u8g_dev_null,"ax",%progbits
  19              		.align	2
  20              		.global	u8g_dev_null
  21              		.thumb
  22              		.thumb_func
  23              		.type	u8g_dev_null, %function
  24              	u8g_dev_null:
  25              	.LFB0:
  26              		.file 1 ".\\u8glib_arm_v1.18.1\\src\\u8g_dev_null.c"
   1:.\u8glib_arm_v1.18.1\src/u8g_dev_null.c **** /*
   2:.\u8glib_arm_v1.18.1\src/u8g_dev_null.c **** 
   3:.\u8glib_arm_v1.18.1\src/u8g_dev_null.c ****   u8g_dev_null.c
   4:.\u8glib_arm_v1.18.1\src/u8g_dev_null.c **** 
   5:.\u8glib_arm_v1.18.1\src/u8g_dev_null.c ****   Universal 8bit Graphics Library
   6:.\u8glib_arm_v1.18.1\src/u8g_dev_null.c ****   
   7:.\u8glib_arm_v1.18.1\src/u8g_dev_null.c ****   Copyright (c) 2011, olikraus@gmail.com
   8:.\u8glib_arm_v1.18.1\src/u8g_dev_null.c ****   All rights reserved.
   9:.\u8glib_arm_v1.18.1\src/u8g_dev_null.c **** 
  10:.\u8glib_arm_v1.18.1\src/u8g_dev_null.c ****   Redistribution and use in source and binary forms, with or without modification, 
  11:.\u8glib_arm_v1.18.1\src/u8g_dev_null.c ****   are permitted provided that the following conditions are met:
  12:.\u8glib_arm_v1.18.1\src/u8g_dev_null.c **** 
  13:.\u8glib_arm_v1.18.1\src/u8g_dev_null.c ****   * Redistributions of source code must retain the above copyright notice, this list 
  14:.\u8glib_arm_v1.18.1\src/u8g_dev_null.c ****     of conditions and the following disclaimer.
  15:.\u8glib_arm_v1.18.1\src/u8g_dev_null.c ****     
  16:.\u8glib_arm_v1.18.1\src/u8g_dev_null.c ****   * Redistributions in binary form must reproduce the above copyright notice, this 
  17:.\u8glib_arm_v1.18.1\src/u8g_dev_null.c ****     list of conditions and the following disclaimer in the documentation and/or other 
  18:.\u8glib_arm_v1.18.1\src/u8g_dev_null.c ****     materials provided with the distribution.
  19:.\u8glib_arm_v1.18.1\src/u8g_dev_null.c **** 
  20:.\u8glib_arm_v1.18.1\src/u8g_dev_null.c ****   THIS SOFTWARE IS PROVIDED BY THE COPYRIGHT HOLDERS AND 
  21:.\u8glib_arm_v1.18.1\src/u8g_dev_null.c ****   CONTRIBUTORS "AS IS" AND ANY EXPRESS OR IMPLIED WARRANTIES, 
  22:.\u8glib_arm_v1.18.1\src/u8g_dev_null.c ****   INCLUDING, BUT NOT LIMITED TO, THE IMPLIED WARRANTIES OF 
  23:.\u8glib_arm_v1.18.1\src/u8g_dev_null.c ****   MERCHANTABILITY AND FITNESS FOR A PARTICULAR PURPOSE ARE 
  24:.\u8glib_arm_v1.18.1\src/u8g_dev_null.c ****   DISCLAIMED. IN NO EVENT SHALL THE COPYRIGHT HOLDER OR 
  25:.\u8glib_arm_v1.18.1\src/u8g_dev_null.c ****   CONTRIBUTORS BE LIABLE FOR ANY DIRECT, INDIRECT, INCIDENTAL, 
  26:.\u8glib_arm_v1.18.1\src/u8g_dev_null.c ****   SPECIAL, EXEMPLARY, OR CONSEQUENTIAL DAMAGES (INCLUDING, BUT 
  27:.\u8glib_arm_v1.18.1\src/u8g_dev_null.c ****   NOT LIMITED TO, PROCUREMENT OF SUBSTITUTE GOODS OR SERVICES; 
  28:.\u8glib_arm_v1.18.1\src/u8g_dev_null.c ****   LOSS OF USE, DATA, OR PROFITS; OR BUSINESS INTERRUPTION) HOWEVER 
  29:.\u8glib_arm_v1.18.1\src/u8g_dev_null.c ****   CAUSED AND ON ANY THEORY OF LIABILITY, WHETHER IN CONTRACT, 
  30:.\u8glib_arm_v1.18.1\src/u8g_dev_null.c ****   STRICT LIABILITY, OR TORT (INCLUDING NEGLIGENCE OR OTHERWISE) 
  31:.\u8glib_arm_v1.18.1\src/u8g_dev_null.c ****   ARISING IN ANY WAY OUT OF THE USE OF THIS SOFTWARE, EVEN IF 
ARM GAS  C:\Users\Shiguruy\AppData\Local\Temp\ccUsbYC3.s 			page 2


  32:.\u8glib_arm_v1.18.1\src/u8g_dev_null.c ****   ADVISED OF THE POSSIBILITY OF SUCH DAMAGE.  
  33:.\u8glib_arm_v1.18.1\src/u8g_dev_null.c ****   
  34:.\u8glib_arm_v1.18.1\src/u8g_dev_null.c ****   
  35:.\u8glib_arm_v1.18.1\src/u8g_dev_null.c **** */
  36:.\u8glib_arm_v1.18.1\src/u8g_dev_null.c **** 
  37:.\u8glib_arm_v1.18.1\src/u8g_dev_null.c **** #include "u8g.h"
  38:.\u8glib_arm_v1.18.1\src/u8g_dev_null.c **** 
  39:.\u8glib_arm_v1.18.1\src/u8g_dev_null.c **** uint8_t u8g_dev_null(u8g_t *u8g, u8g_dev_t *dev, uint8_t msg, void *arg)
  40:.\u8glib_arm_v1.18.1\src/u8g_dev_null.c **** {
  27              		.loc 1 40 0
  28              		.cfi_startproc
  29              		@ args = 0, pretend = 0, frame = 16
  30              		@ frame_needed = 1, uses_anonymous_args = 0
  31              		@ link register save eliminated.
  32 0000 80B4     		push	{r7}
  33              		.cfi_def_cfa_offset 4
  34              		.cfi_offset 7, -4
  35 0002 85B0     		sub	sp, sp, #20
  36              		.cfi_def_cfa_offset 24
  37 0004 00AF     		add	r7, sp, #0
  38              		.cfi_def_cfa_register 7
  39 0006 F860     		str	r0, [r7, #12]
  40 0008 B960     		str	r1, [r7, #8]
  41 000a 3B60     		str	r3, [r7]
  42 000c 1346     		mov	r3, r2
  43 000e FB71     		strb	r3, [r7, #7]
  41:.\u8glib_arm_v1.18.1\src/u8g_dev_null.c ****   switch(msg)
  44              		.loc 1 41 0
  45 0010 FB79     		ldrb	r3, [r7, #7]	@ zero_extendqisi2
  46 0012 0A3B     		subs	r3, r3, #10
  47 0014 332B     		cmp	r3, #51
  48 0016 6BD8     		bhi	.L2
  49 0018 01A2     		adr	r2, .L4
  50 001a 52F823F0 		ldr	pc, [r2, r3, lsl #2]
  51 001e 00BF     		.p2align 2
  52              	.L4:
  53 0020 F1000000 		.word	.L2+1
  54 0024 F1000000 		.word	.L2+1
  55 0028 F1000000 		.word	.L2+1
  56 002c F1000000 		.word	.L2+1
  57 0030 F1000000 		.word	.L2+1
  58 0034 F1000000 		.word	.L2+1
  59 0038 F1000000 		.word	.L2+1
  60 003c F1000000 		.word	.L2+1
  61 0040 F1000000 		.word	.L2+1
  62 0044 F1000000 		.word	.L2+1
  63 0048 F1000000 		.word	.L2+1
  64 004c F1000000 		.word	.L2+1
  65 0050 F1000000 		.word	.L2+1
  66 0054 F1000000 		.word	.L2+1
  67 0058 F1000000 		.word	.L2+1
  68 005c F1000000 		.word	.L2+1
  69 0060 F1000000 		.word	.L2+1
  70 0064 F1000000 		.word	.L2+1
  71 0068 F1000000 		.word	.L2+1
  72 006c F1000000 		.word	.L2+1
  73 0070 F1000000 		.word	.L2+1
ARM GAS  C:\Users\Shiguruy\AppData\Local\Temp\ccUsbYC3.s 			page 3


  74 0074 F1000000 		.word	.L2+1
  75 0078 F1000000 		.word	.L2+1
  76 007c F1000000 		.word	.L2+1
  77 0080 F1000000 		.word	.L2+1
  78 0084 F1000000 		.word	.L2+1
  79 0088 F1000000 		.word	.L2+1
  80 008c F1000000 		.word	.L2+1
  81 0090 F1000000 		.word	.L2+1
  82 0094 F1000000 		.word	.L2+1
  83 0098 F1000000 		.word	.L2+1
  84 009c F1000000 		.word	.L2+1
  85 00a0 F1000000 		.word	.L2+1
  86 00a4 F1000000 		.word	.L2+1
  87 00a8 F1000000 		.word	.L2+1
  88 00ac F1000000 		.word	.L2+1
  89 00b0 F1000000 		.word	.L2+1
  90 00b4 F1000000 		.word	.L2+1
  91 00b8 F1000000 		.word	.L2+1
  92 00bc F1000000 		.word	.L2+1
  93 00c0 F1000000 		.word	.L2+1
  94 00c4 F1000000 		.word	.L2+1
  95 00c8 F1000000 		.word	.L2+1
  96 00cc F1000000 		.word	.L2+1
  97 00d0 F1000000 		.word	.L2+1
  98 00d4 F1000000 		.word	.L2+1
  99 00d8 F1000000 		.word	.L2+1
 100 00dc F1000000 		.word	.L2+1
 101 00e0 F1000000 		.word	.L2+1
 102 00e4 F1000000 		.word	.L2+1
 103 00e8 F1000000 		.word	.L2+1
 104 00ec F1000000 		.word	.L2+1
 105              		.p2align 1
 106              	.L2:
  42:.\u8glib_arm_v1.18.1\src/u8g_dev_null.c ****   {
  43:.\u8glib_arm_v1.18.1\src/u8g_dev_null.c ****     case U8G_DEV_MSG_SET_8PIXEL:                /* most often used command */
  44:.\u8glib_arm_v1.18.1\src/u8g_dev_null.c ****       break;
  45:.\u8glib_arm_v1.18.1\src/u8g_dev_null.c ****     case U8G_DEV_MSG_SET_PIXEL:
  46:.\u8glib_arm_v1.18.1\src/u8g_dev_null.c ****       break;
  47:.\u8glib_arm_v1.18.1\src/u8g_dev_null.c ****     case U8G_DEV_MSG_INIT:
  48:.\u8glib_arm_v1.18.1\src/u8g_dev_null.c ****       break;
  49:.\u8glib_arm_v1.18.1\src/u8g_dev_null.c ****     case U8G_DEV_MSG_STOP:
  50:.\u8glib_arm_v1.18.1\src/u8g_dev_null.c ****       break;
  51:.\u8glib_arm_v1.18.1\src/u8g_dev_null.c ****     case U8G_DEV_MSG_PAGE_FIRST:
  52:.\u8glib_arm_v1.18.1\src/u8g_dev_null.c ****       break;
  53:.\u8glib_arm_v1.18.1\src/u8g_dev_null.c ****     case U8G_DEV_MSG_PAGE_NEXT:
  54:.\u8glib_arm_v1.18.1\src/u8g_dev_null.c ****       break;
  55:.\u8glib_arm_v1.18.1\src/u8g_dev_null.c **** #ifdef U8G_DEV_MSG_IS_BBX_INTERSECTION
  56:.\u8glib_arm_v1.18.1\src/u8g_dev_null.c ****     case U8G_DEV_MSG_IS_BBX_INTERSECTION:
  57:.\u8glib_arm_v1.18.1\src/u8g_dev_null.c ****       return 1;
  58:.\u8glib_arm_v1.18.1\src/u8g_dev_null.c **** #endif
  59:.\u8glib_arm_v1.18.1\src/u8g_dev_null.c ****     case U8G_DEV_MSG_GET_PAGE_BOX:
  60:.\u8glib_arm_v1.18.1\src/u8g_dev_null.c ****       break;
  61:.\u8glib_arm_v1.18.1\src/u8g_dev_null.c ****     case U8G_DEV_MSG_SET_COLOR_ENTRY:
  62:.\u8glib_arm_v1.18.1\src/u8g_dev_null.c ****       break;
  63:.\u8glib_arm_v1.18.1\src/u8g_dev_null.c ****     case U8G_DEV_MSG_SET_XY_CB:
  64:.\u8glib_arm_v1.18.1\src/u8g_dev_null.c ****       break;
  65:.\u8glib_arm_v1.18.1\src/u8g_dev_null.c ****   }
ARM GAS  C:\Users\Shiguruy\AppData\Local\Temp\ccUsbYC3.s 			page 4


  66:.\u8glib_arm_v1.18.1\src/u8g_dev_null.c ****   return 1;
 107              		.loc 1 66 0
 108 00f0 0123     		movs	r3, #1
  67:.\u8glib_arm_v1.18.1\src/u8g_dev_null.c **** }
 109              		.loc 1 67 0
 110 00f2 1846     		mov	r0, r3
 111 00f4 1437     		adds	r7, r7, #20
 112              		.cfi_def_cfa_offset 4
 113 00f6 BD46     		mov	sp, r7
 114              		.cfi_def_cfa_register 13
 115              		@ sp needed
 116 00f8 5DF8047B 		ldr	r7, [sp], #4
 117              		.cfi_restore 7
 118              		.cfi_def_cfa_offset 0
 119 00fc 7047     		bx	lr
 120              		.cfi_endproc
 121              	.LFE0:
 122              		.size	u8g_dev_null, .-u8g_dev_null
 123 00fe 00BF     		.text
 124              	.Letext0:
 125              		.file 2 "c:\\program files (x86)\\cypress\\psoc creator\\3.3\\psoc creator\\import\\gnu\\arm\\4.9.
 126              		.file 3 "c:\\program files (x86)\\cypress\\psoc creator\\3.3\\psoc creator\\import\\gnu\\arm\\4.9.
 127              		.file 4 ".\\u8glib_arm_v1.18.1\\src\\u8g.h"