ARM GAS  C:\Users\Shiguruy\AppData\Local\Temp\cc5sI5vp.s 			page 1


   1              		.syntax unified
   2              		.cpu cortex-m3
   3              		.fpu softvfp
   4              		.eabi_attribute 20, 1
   5              		.eabi_attribute 21, 1
   6              		.eabi_attribute 23, 3
   7              		.eabi_attribute 24, 1
   8              		.eabi_attribute 25, 1
   9              		.eabi_attribute 26, 1
  10              		.eabi_attribute 30, 6
  11              		.eabi_attribute 34, 1
  12              		.eabi_attribute 18, 4
  13              		.thumb
  14              		.file	"u8g_dev_flipdisc_2x7.c"
  15              		.text
  16              	.Ltext0:
  17              		.cfi_sections	.debug_frame
  18              		.comm	u8g_write_flip_disc_matrix,4,4
  19              		.section	.text.u8g_SetFlipDiscCallback,"ax",%progbits
  20              		.align	2
  21              		.global	u8g_SetFlipDiscCallback
  22              		.thumb
  23              		.thumb_func
  24              		.type	u8g_SetFlipDiscCallback, %function
  25              	u8g_SetFlipDiscCallback:
  26              	.LFB0:
  27              		.file 1 ".\\u8glib_arm_v1.18.1\\src\\u8g_dev_flipdisc_2x7.c"
   1:.\u8glib_arm_v1.18.1\src/u8g_dev_flipdisc_2x7.c **** /*
   2:.\u8glib_arm_v1.18.1\src/u8g_dev_flipdisc_2x7.c **** 
   3:.\u8glib_arm_v1.18.1\src/u8g_dev_flipdisc_2x7.c ****   u8g_dev_flipdisc.c
   4:.\u8glib_arm_v1.18.1\src/u8g_dev_flipdisc_2x7.c ****   
   5:.\u8glib_arm_v1.18.1\src/u8g_dev_flipdisc_2x7.c ****   1-Bit (BW) Driver for flip disc matrix
   6:.\u8glib_arm_v1.18.1\src/u8g_dev_flipdisc_2x7.c ****   2x 7 pixel height
   7:.\u8glib_arm_v1.18.1\src/u8g_dev_flipdisc_2x7.c **** 
   8:.\u8glib_arm_v1.18.1\src/u8g_dev_flipdisc_2x7.c ****   Universal 8bit Graphics Library
   9:.\u8glib_arm_v1.18.1\src/u8g_dev_flipdisc_2x7.c ****   
  10:.\u8glib_arm_v1.18.1\src/u8g_dev_flipdisc_2x7.c ****   Copyright (c) 2011, olikraus@gmail.com
  11:.\u8glib_arm_v1.18.1\src/u8g_dev_flipdisc_2x7.c ****   All rights reserved.
  12:.\u8glib_arm_v1.18.1\src/u8g_dev_flipdisc_2x7.c **** 
  13:.\u8glib_arm_v1.18.1\src/u8g_dev_flipdisc_2x7.c ****   Redistribution and use in source and binary forms, with or without modification, 
  14:.\u8glib_arm_v1.18.1\src/u8g_dev_flipdisc_2x7.c ****   are permitted provided that the following conditions are met:
  15:.\u8glib_arm_v1.18.1\src/u8g_dev_flipdisc_2x7.c **** 
  16:.\u8glib_arm_v1.18.1\src/u8g_dev_flipdisc_2x7.c ****   * Redistributions of source code must retain the above copyright notice, this list 
  17:.\u8glib_arm_v1.18.1\src/u8g_dev_flipdisc_2x7.c ****     of conditions and the following disclaimer.
  18:.\u8glib_arm_v1.18.1\src/u8g_dev_flipdisc_2x7.c ****     
  19:.\u8glib_arm_v1.18.1\src/u8g_dev_flipdisc_2x7.c ****   * Redistributions in binary form must reproduce the above copyright notice, this 
  20:.\u8glib_arm_v1.18.1\src/u8g_dev_flipdisc_2x7.c ****     list of conditions and the following disclaimer in the documentation and/or other 
  21:.\u8glib_arm_v1.18.1\src/u8g_dev_flipdisc_2x7.c ****     materials provided with the distribution.
  22:.\u8glib_arm_v1.18.1\src/u8g_dev_flipdisc_2x7.c **** 
  23:.\u8glib_arm_v1.18.1\src/u8g_dev_flipdisc_2x7.c ****   THIS SOFTWARE IS PROVIDED BY THE COPYRIGHT HOLDERS AND 
  24:.\u8glib_arm_v1.18.1\src/u8g_dev_flipdisc_2x7.c ****   CONTRIBUTORS "AS IS" AND ANY EXPRESS OR IMPLIED WARRANTIES, 
  25:.\u8glib_arm_v1.18.1\src/u8g_dev_flipdisc_2x7.c ****   INCLUDING, BUT NOT LIMITED TO, THE IMPLIED WARRANTIES OF 
  26:.\u8glib_arm_v1.18.1\src/u8g_dev_flipdisc_2x7.c ****   MERCHANTABILITY AND FITNESS FOR A PARTICULAR PURPOSE ARE 
  27:.\u8glib_arm_v1.18.1\src/u8g_dev_flipdisc_2x7.c ****   DISCLAIMED. IN NO EVENT SHALL THE COPYRIGHT HOLDER OR 
  28:.\u8glib_arm_v1.18.1\src/u8g_dev_flipdisc_2x7.c ****   CONTRIBUTORS BE LIABLE FOR ANY DIRECT, INDIRECT, INCIDENTAL, 
  29:.\u8glib_arm_v1.18.1\src/u8g_dev_flipdisc_2x7.c ****   SPECIAL, EXEMPLARY, OR CONSEQUENTIAL DAMAGES (INCLUDING, BUT 
  30:.\u8glib_arm_v1.18.1\src/u8g_dev_flipdisc_2x7.c ****   NOT LIMITED TO, PROCUREMENT OF SUBSTITUTE GOODS OR SERVICES; 
ARM GAS  C:\Users\Shiguruy\AppData\Local\Temp\cc5sI5vp.s 			page 2


  31:.\u8glib_arm_v1.18.1\src/u8g_dev_flipdisc_2x7.c ****   LOSS OF USE, DATA, OR PROFITS; OR BUSINESS INTERRUPTION) HOWEVER 
  32:.\u8glib_arm_v1.18.1\src/u8g_dev_flipdisc_2x7.c ****   CAUSED AND ON ANY THEORY OF LIABILITY, WHETHER IN CONTRACT, 
  33:.\u8glib_arm_v1.18.1\src/u8g_dev_flipdisc_2x7.c ****   STRICT LIABILITY, OR TORT (INCLUDING NEGLIGENCE OR OTHERWISE) 
  34:.\u8glib_arm_v1.18.1\src/u8g_dev_flipdisc_2x7.c ****   ARISING IN ANY WAY OUT OF THE USE OF THIS SOFTWARE, EVEN IF 
  35:.\u8glib_arm_v1.18.1\src/u8g_dev_flipdisc_2x7.c ****   ADVISED OF THE POSSIBILITY OF SUCH DAMAGE.  
  36:.\u8glib_arm_v1.18.1\src/u8g_dev_flipdisc_2x7.c ****   
  37:.\u8glib_arm_v1.18.1\src/u8g_dev_flipdisc_2x7.c **** */
  38:.\u8glib_arm_v1.18.1\src/u8g_dev_flipdisc_2x7.c **** 
  39:.\u8glib_arm_v1.18.1\src/u8g_dev_flipdisc_2x7.c **** #include "u8g.h"
  40:.\u8glib_arm_v1.18.1\src/u8g_dev_flipdisc_2x7.c **** 
  41:.\u8glib_arm_v1.18.1\src/u8g_dev_flipdisc_2x7.c **** #define WIDTH 28
  42:.\u8glib_arm_v1.18.1\src/u8g_dev_flipdisc_2x7.c **** #define HEIGHT 14
  43:.\u8glib_arm_v1.18.1\src/u8g_dev_flipdisc_2x7.c **** #define PAGE_HEIGHT 14
  44:.\u8glib_arm_v1.18.1\src/u8g_dev_flipdisc_2x7.c **** 
  45:.\u8glib_arm_v1.18.1\src/u8g_dev_flipdisc_2x7.c **** /*
  46:.\u8glib_arm_v1.18.1\src/u8g_dev_flipdisc_2x7.c ****   Write data to the flip disc matrix.
  47:.\u8glib_arm_v1.18.1\src/u8g_dev_flipdisc_2x7.c ****   This procedure must be implemented by the user.
  48:.\u8glib_arm_v1.18.1\src/u8g_dev_flipdisc_2x7.c ****   Arguments:
  49:.\u8glib_arm_v1.18.1\src/u8g_dev_flipdisc_2x7.c ****     id:	Id for the matrix. Currently always 0.
  50:.\u8glib_arm_v1.18.1\src/u8g_dev_flipdisc_2x7.c ****     page: 	A page has a height of 14 pixel. For a matrix with HEIGHT == 14 this will be always 0
  51:.\u8glib_arm_v1.18.1\src/u8g_dev_flipdisc_2x7.c ****     width: 	The width of the flip disc matrix. Always equal to WIDTH
  52:.\u8glib_arm_v1.18.1\src/u8g_dev_flipdisc_2x7.c ****     row1: 	first data line (7 pixel per byte)
  53:.\u8glib_arm_v1.18.1\src/u8g_dev_flipdisc_2x7.c ****     row2: 	first data line (7 pixel per byte)
  54:.\u8glib_arm_v1.18.1\src/u8g_dev_flipdisc_2x7.c **** */
  55:.\u8glib_arm_v1.18.1\src/u8g_dev_flipdisc_2x7.c **** void writeFlipDiscMatrix(uint8_t id, uint8_t page, uint8_t width, uint8_t *row1, uint8_t *row2);
  56:.\u8glib_arm_v1.18.1\src/u8g_dev_flipdisc_2x7.c **** 
  57:.\u8glib_arm_v1.18.1\src/u8g_dev_flipdisc_2x7.c **** 
  58:.\u8glib_arm_v1.18.1\src/u8g_dev_flipdisc_2x7.c **** 
  59:.\u8glib_arm_v1.18.1\src/u8g_dev_flipdisc_2x7.c **** void (*u8g_write_flip_disc_matrix)(uint8_t id, uint8_t page, uint8_t width, uint8_t *row1, uint8_t 
  60:.\u8glib_arm_v1.18.1\src/u8g_dev_flipdisc_2x7.c **** 
  61:.\u8glib_arm_v1.18.1\src/u8g_dev_flipdisc_2x7.c **** void u8g_SetFlipDiscCallback(u8g_t *u8g, void (*cb)(uint8_t id, uint8_t page, uint8_t width, uint8_
  62:.\u8glib_arm_v1.18.1\src/u8g_dev_flipdisc_2x7.c **** {
  28              		.loc 1 62 0
  29              		.cfi_startproc
  30              		@ args = 0, pretend = 0, frame = 8
  31              		@ frame_needed = 1, uses_anonymous_args = 0
  32              		@ link register save eliminated.
  33 0000 80B4     		push	{r7}
  34              		.cfi_def_cfa_offset 4
  35              		.cfi_offset 7, -4
  36 0002 83B0     		sub	sp, sp, #12
  37              		.cfi_def_cfa_offset 16
  38 0004 00AF     		add	r7, sp, #0
  39              		.cfi_def_cfa_register 7
  40 0006 7860     		str	r0, [r7, #4]
  41 0008 3960     		str	r1, [r7]
  63:.\u8glib_arm_v1.18.1\src/u8g_dev_flipdisc_2x7.c ****   u8g_write_flip_disc_matrix = cb;
  42              		.loc 1 63 0
  43 000a 044A     		ldr	r2, .L2
  44 000c 3B68     		ldr	r3, [r7]
  45 000e 1360     		str	r3, [r2]
  64:.\u8glib_arm_v1.18.1\src/u8g_dev_flipdisc_2x7.c **** }
  46              		.loc 1 64 0
  47 0010 0C37     		adds	r7, r7, #12
  48              		.cfi_def_cfa_offset 4
  49 0012 BD46     		mov	sp, r7
  50              		.cfi_def_cfa_register 13
ARM GAS  C:\Users\Shiguruy\AppData\Local\Temp\cc5sI5vp.s 			page 3


  51              		@ sp needed
  52 0014 5DF8047B 		ldr	r7, [sp], #4
  53              		.cfi_restore 7
  54              		.cfi_def_cfa_offset 0
  55 0018 7047     		bx	lr
  56              	.L3:
  57 001a 00BF     		.align	2
  58              	.L2:
  59 001c 00000000 		.word	u8g_write_flip_disc_matrix
  60              		.cfi_endproc
  61              	.LFE0:
  62              		.size	u8g_SetFlipDiscCallback, .-u8g_SetFlipDiscCallback
  63              		.section	.text.u8g_dev_flipdisc_2x7_bw_fn,"ax",%progbits
  64              		.align	2
  65              		.global	u8g_dev_flipdisc_2x7_bw_fn
  66              		.thumb
  67              		.thumb_func
  68              		.type	u8g_dev_flipdisc_2x7_bw_fn, %function
  69              	u8g_dev_flipdisc_2x7_bw_fn:
  70              	.LFB1:
  65:.\u8glib_arm_v1.18.1\src/u8g_dev_flipdisc_2x7.c **** 
  66:.\u8glib_arm_v1.18.1\src/u8g_dev_flipdisc_2x7.c **** uint8_t u8g_dev_flipdisc_2x7_bw_fn(u8g_t *u8g, u8g_dev_t *dev, uint8_t msg, void *arg)
  67:.\u8glib_arm_v1.18.1\src/u8g_dev_flipdisc_2x7.c **** {
  71              		.loc 1 67 0
  72              		.cfi_startproc
  73              		@ args = 0, pretend = 0, frame = 24
  74              		@ frame_needed = 1, uses_anonymous_args = 0
  75 0000 B0B5     		push	{r4, r5, r7, lr}
  76              		.cfi_def_cfa_offset 16
  77              		.cfi_offset 4, -16
  78              		.cfi_offset 5, -12
  79              		.cfi_offset 7, -8
  80              		.cfi_offset 14, -4
  81 0002 88B0     		sub	sp, sp, #32
  82              		.cfi_def_cfa_offset 48
  83 0004 02AF     		add	r7, sp, #8
  84              		.cfi_def_cfa 7, 40
  85 0006 F860     		str	r0, [r7, #12]
  86 0008 B960     		str	r1, [r7, #8]
  87 000a 3B60     		str	r3, [r7]
  88 000c 1346     		mov	r3, r2
  89 000e FB71     		strb	r3, [r7, #7]
  68:.\u8glib_arm_v1.18.1\src/u8g_dev_flipdisc_2x7.c ****   switch(msg)
  90              		.loc 1 68 0
  91 0010 FB79     		ldrb	r3, [r7, #7]	@ zero_extendqisi2
  92 0012 0A3B     		subs	r3, r3, #10
  93 0014 0B2B     		cmp	r3, #11
  94 0016 30D8     		bhi	.L5
  95 0018 01A2     		adr	r2, .L7
  96 001a 52F823F0 		ldr	pc, [r2, r3, lsl #2]
  97 001e 00BF     		.p2align 2
  98              	.L7:
  99 0020 7B000000 		.word	.L5+1
 100 0024 7B000000 		.word	.L5+1
 101 0028 7B000000 		.word	.L5+1
 102 002c 7B000000 		.word	.L5+1
 103 0030 7B000000 		.word	.L5+1
ARM GAS  C:\Users\Shiguruy\AppData\Local\Temp\cc5sI5vp.s 			page 4


 104 0034 77000000 		.word	.L9+1
 105 0038 7B000000 		.word	.L5+1
 106 003c 7B000000 		.word	.L5+1
 107 0040 7B000000 		.word	.L5+1
 108 0044 7B000000 		.word	.L5+1
 109 0048 7B000000 		.word	.L5+1
 110 004c 51000000 		.word	.L10+1
 111              		.p2align 1
 112              	.L10:
 113              	.LBB2:
  69:.\u8glib_arm_v1.18.1\src/u8g_dev_flipdisc_2x7.c ****   {
  70:.\u8glib_arm_v1.18.1\src/u8g_dev_flipdisc_2x7.c ****     case U8G_DEV_MSG_INIT:
  71:.\u8glib_arm_v1.18.1\src/u8g_dev_flipdisc_2x7.c ****       break;
  72:.\u8glib_arm_v1.18.1\src/u8g_dev_flipdisc_2x7.c ****     case U8G_DEV_MSG_STOP:
  73:.\u8glib_arm_v1.18.1\src/u8g_dev_flipdisc_2x7.c ****       break;
  74:.\u8glib_arm_v1.18.1\src/u8g_dev_flipdisc_2x7.c ****     case U8G_DEV_MSG_PAGE_NEXT:
  75:.\u8glib_arm_v1.18.1\src/u8g_dev_flipdisc_2x7.c ****       {
  76:.\u8glib_arm_v1.18.1\src/u8g_dev_flipdisc_2x7.c ****         u8g_pb_t *pb = (u8g_pb_t *)(dev->dev_mem);
 114              		.loc 1 76 0
 115 0050 BB68     		ldr	r3, [r7, #8]
 116 0052 5B68     		ldr	r3, [r3, #4]
 117 0054 7B61     		str	r3, [r7, #20]
  77:.\u8glib_arm_v1.18.1\src/u8g_dev_flipdisc_2x7.c ****         
  78:.\u8glib_arm_v1.18.1\src/u8g_dev_flipdisc_2x7.c **** 	/* current page: pb->p.page */
  79:.\u8glib_arm_v1.18.1\src/u8g_dev_flipdisc_2x7.c **** 	/* ptr to the buffer: pb->buf */
  80:.\u8glib_arm_v1.18.1\src/u8g_dev_flipdisc_2x7.c **** 	
  81:.\u8glib_arm_v1.18.1\src/u8g_dev_flipdisc_2x7.c **** 	(*u8g_write_flip_disc_matrix)(0, pb->p.page, WIDTH, pb->buf, (uint8_t *)(pb->buf)+WIDTH);
 118              		.loc 1 81 0
 119 0056 0F4B     		ldr	r3, .L12
 120 0058 1C68     		ldr	r4, [r3]
 121 005a 7B69     		ldr	r3, [r7, #20]
 122 005c 1A79     		ldrb	r2, [r3, #4]	@ zero_extendqisi2
 123 005e 7B69     		ldr	r3, [r7, #20]
 124 0060 9D68     		ldr	r5, [r3, #8]
 125 0062 7B69     		ldr	r3, [r7, #20]
 126 0064 9B68     		ldr	r3, [r3, #8]
 127 0066 1C33     		adds	r3, r3, #28
 128 0068 0093     		str	r3, [sp]
 129 006a 0020     		movs	r0, #0
 130 006c 1146     		mov	r1, r2
 131 006e 1C22     		movs	r2, #28
 132 0070 2B46     		mov	r3, r5
 133 0072 A047     		blx	r4
 134              	.LBE2:
  82:.\u8glib_arm_v1.18.1\src/u8g_dev_flipdisc_2x7.c ****       }
  83:.\u8glib_arm_v1.18.1\src/u8g_dev_flipdisc_2x7.c ****       break;
 135              		.loc 1 83 0
 136 0074 01E0     		b	.L5
 137              	.L9:
  84:.\u8glib_arm_v1.18.1\src/u8g_dev_flipdisc_2x7.c ****     case U8G_DEV_MSG_CONTRAST:
  85:.\u8glib_arm_v1.18.1\src/u8g_dev_flipdisc_2x7.c ****       return 1;
 138              		.loc 1 85 0
 139 0076 0123     		movs	r3, #1
 140 0078 07E0     		b	.L11
 141              	.L5:
  86:.\u8glib_arm_v1.18.1\src/u8g_dev_flipdisc_2x7.c ****   }
  87:.\u8glib_arm_v1.18.1\src/u8g_dev_flipdisc_2x7.c ****   return u8g_dev_pb14v1_base_fn(u8g, dev, msg, arg);
ARM GAS  C:\Users\Shiguruy\AppData\Local\Temp\cc5sI5vp.s 			page 5


 142              		.loc 1 87 0
 143 007a FB79     		ldrb	r3, [r7, #7]	@ zero_extendqisi2
 144 007c F868     		ldr	r0, [r7, #12]
 145 007e B968     		ldr	r1, [r7, #8]
 146 0080 1A46     		mov	r2, r3
 147 0082 3B68     		ldr	r3, [r7]
 148 0084 FFF7FEFF 		bl	u8g_dev_pb14v1_base_fn
 149 0088 0346     		mov	r3, r0
 150              	.L11:
  88:.\u8glib_arm_v1.18.1\src/u8g_dev_flipdisc_2x7.c **** }
 151              		.loc 1 88 0
 152 008a 1846     		mov	r0, r3
 153 008c 1837     		adds	r7, r7, #24
 154              		.cfi_def_cfa_offset 16
 155 008e BD46     		mov	sp, r7
 156              		.cfi_def_cfa_register 13
 157              		@ sp needed
 158 0090 B0BD     		pop	{r4, r5, r7, pc}
 159              	.L13:
 160 0092 00BF     		.align	2
 161              	.L12:
 162 0094 00000000 		.word	u8g_write_flip_disc_matrix
 163              		.cfi_endproc
 164              	.LFE1:
 165              		.size	u8g_dev_flipdisc_2x7_bw_fn, .-u8g_dev_flipdisc_2x7_bw_fn
 166              		.global	u8g_dev_flipdisc_2x7_bw_buf
 167              		.bss
 168              		.align	2
 169              		.type	u8g_dev_flipdisc_2x7_bw_buf, %object
 170              		.size	u8g_dev_flipdisc_2x7_bw_buf, 56
 171              	u8g_dev_flipdisc_2x7_bw_buf:
 172 0000 00000000 		.space	56
 172      00000000 
 172      00000000 
 172      00000000 
 172      00000000 
 173              		.global	u8g_dev_flipdisc_2x7_bw_pb
 174              		.data
 175              		.align	2
 176              		.type	u8g_dev_flipdisc_2x7_bw_pb, %object
 177              		.size	u8g_dev_flipdisc_2x7_bw_pb, 12
 178              	u8g_dev_flipdisc_2x7_bw_pb:
 179 0000 10       		.byte	16
 180 0001 0E       		.byte	14
 181 0002 00       		.byte	0
 182 0003 00       		.byte	0
 183 0004 00       		.byte	0
 184 0005 1C       		.byte	28
 185 0006 0000     		.space	2
 186 0008 00000000 		.word	u8g_dev_flipdisc_2x7_bw_buf
 187              		.global	u8g_dev_flipdisc_2x7
 188              		.align	2
 189              		.type	u8g_dev_flipdisc_2x7, %object
 190              		.size	u8g_dev_flipdisc_2x7, 12
 191              	u8g_dev_flipdisc_2x7:
 192 000c 00000000 		.word	u8g_dev_flipdisc_2x7_bw_fn
 193 0010 00000000 		.word	u8g_dev_flipdisc_2x7_bw_pb
ARM GAS  C:\Users\Shiguruy\AppData\Local\Temp\cc5sI5vp.s 			page 6


 194 0014 00000000 		.word	u8g_com_null_fn
 195              		.text
 196              	.Letext0:
 197              		.file 2 "c:\\program files (x86)\\cypress\\psoc creator\\3.3\\psoc creator\\import\\gnu\\arm\\4.9.
 198              		.file 3 "c:\\program files (x86)\\cypress\\psoc creator\\3.3\\psoc creator\\import\\gnu\\arm\\4.9.
 199              		.file 4 ".\\u8glib_arm_v1.18.1\\src\\u8g.h"