ARM GAS  C:\Users\KJA\AppData\Local\Temp\ccmudFrT.s 			page 1


   1              		.syntax unified
   2              		.cpu cortex-m3
   3              		.fpu softvfp
   4              		.eabi_attribute 20, 1
   5              		.eabi_attribute 21, 1
   6              		.eabi_attribute 23, 3
   7              		.eabi_attribute 24, 1
   8              		.eabi_attribute 25, 1
   9              		.eabi_attribute 26, 1
  10              		.eabi_attribute 30, 6
  11              		.eabi_attribute 34, 1
  12              		.eabi_attribute 18, 4
  13              		.thumb
  14              		.file	"u8g_polygon.c"
  15              		.text
  16              	.Ltext0:
  17              		.cfi_sections	.debug_frame
  18              		.section	.text.pge_Next,"ax",%progbits
  19              		.align	2
  20              		.thumb
  21              		.thumb_func
  22              		.type	pge_Next, %function
  23              	pge_Next:
  24              	.LFB0:
  25              		.file 1 "u8glib_arm_v1.18.1\\src\\u8g_polygon.c"
   1:u8glib_arm_v1.18.1\src/u8g_polygon.c **** /*
   2:u8glib_arm_v1.18.1\src/u8g_polygon.c **** 
   3:u8glib_arm_v1.18.1\src/u8g_polygon.c ****   u8g_polygon.c
   4:u8glib_arm_v1.18.1\src/u8g_polygon.c **** 
   5:u8glib_arm_v1.18.1\src/u8g_polygon.c ****   Implementation of a polygon draw algorithm for "convex" polygons. 
   6:u8glib_arm_v1.18.1\src/u8g_polygon.c ****  
   7:u8glib_arm_v1.18.1\src/u8g_polygon.c ****   Universal 8bit Graphics Library
   8:u8glib_arm_v1.18.1\src/u8g_polygon.c ****   
   9:u8glib_arm_v1.18.1\src/u8g_polygon.c ****   Copyright (c) 2013, olikraus@gmail.com
  10:u8glib_arm_v1.18.1\src/u8g_polygon.c ****   All rights reserved.
  11:u8glib_arm_v1.18.1\src/u8g_polygon.c **** 
  12:u8glib_arm_v1.18.1\src/u8g_polygon.c ****   Redistribution and use in source and binary forms, with or without modification, 
  13:u8glib_arm_v1.18.1\src/u8g_polygon.c ****   are permitted provided that the following conditions are met:
  14:u8glib_arm_v1.18.1\src/u8g_polygon.c **** 
  15:u8glib_arm_v1.18.1\src/u8g_polygon.c ****   * Redistributions of source code must retain the above copyright notice, this list 
  16:u8glib_arm_v1.18.1\src/u8g_polygon.c ****     of conditions and the following disclaimer.
  17:u8glib_arm_v1.18.1\src/u8g_polygon.c ****     
  18:u8glib_arm_v1.18.1\src/u8g_polygon.c ****   * Redistributions in binary form must reproduce the above copyright notice, this 
  19:u8glib_arm_v1.18.1\src/u8g_polygon.c ****     list of conditions and the following disclaimer in the documentation and/or other 
  20:u8glib_arm_v1.18.1\src/u8g_polygon.c ****     materials provided with the distribution.
  21:u8glib_arm_v1.18.1\src/u8g_polygon.c **** 
  22:u8glib_arm_v1.18.1\src/u8g_polygon.c ****   THIS SOFTWARE IS PROVIDED BY THE COPYRIGHT HOLDERS AND 
  23:u8glib_arm_v1.18.1\src/u8g_polygon.c ****   CONTRIBUTORS "AS IS" AND ANY EXPRESS OR IMPLIED WARRANTIES, 
  24:u8glib_arm_v1.18.1\src/u8g_polygon.c ****   INCLUDING, BUT NOT LIMITED TO, THE IMPLIED WARRANTIES OF 
  25:u8glib_arm_v1.18.1\src/u8g_polygon.c ****   MERCHANTABILITY AND FITNESS FOR A PARTICULAR PURPOSE ARE 
  26:u8glib_arm_v1.18.1\src/u8g_polygon.c ****   DISCLAIMED. IN NO EVENT SHALL THE COPYRIGHT HOLDER OR 
  27:u8glib_arm_v1.18.1\src/u8g_polygon.c ****   CONTRIBUTORS BE LIABLE FOR ANY DIRECT, INDIRECT, INCIDENTAL, 
  28:u8glib_arm_v1.18.1\src/u8g_polygon.c ****   SPECIAL, EXEMPLARY, OR CONSEQUENTIAL DAMAGES (INCLUDING, BUT 
  29:u8glib_arm_v1.18.1\src/u8g_polygon.c ****   NOT LIMITED TO, PROCUREMENT OF SUBSTITUTE GOODS OR SERVICES; 
  30:u8glib_arm_v1.18.1\src/u8g_polygon.c ****   LOSS OF USE, DATA, OR PROFITS; OR BUSINESS INTERRUPTION) HOWEVER 
  31:u8glib_arm_v1.18.1\src/u8g_polygon.c ****   CAUSED AND ON ANY THEORY OF LIABILITY, WHETHER IN CONTRACT, 
  32:u8glib_arm_v1.18.1\src/u8g_polygon.c ****   STRICT LIABILITY, OR TORT (INCLUDING NEGLIGENCE OR OTHERWISE) 
ARM GAS  C:\Users\KJA\AppData\Local\Temp\ccmudFrT.s 			page 2


  33:u8glib_arm_v1.18.1\src/u8g_polygon.c ****   ARISING IN ANY WAY OUT OF THE USE OF THIS SOFTWARE, EVEN IF 
  34:u8glib_arm_v1.18.1\src/u8g_polygon.c ****   ADVISED OF THE POSSIBILITY OF SUCH DAMAGE.  
  35:u8glib_arm_v1.18.1\src/u8g_polygon.c ****  
  36:u8glib_arm_v1.18.1\src/u8g_polygon.c ****   See also:
  37:u8glib_arm_v1.18.1\src/u8g_polygon.c ****   http://www.angelfire.com/linux/myp/ConvexPolRas/ConvexPolRas.html
  38:u8glib_arm_v1.18.1\src/u8g_polygon.c ****   Computer Graphics, Principles and Practice, Foley, van Dam, Feiner, Hughes (pp 92)
  39:u8glib_arm_v1.18.1\src/u8g_polygon.c ****   Michael Abrash's Graphics Programming Black Book, Special Edition (Chapter 38 and 39)
  40:u8glib_arm_v1.18.1\src/u8g_polygon.c **** 
  41:u8glib_arm_v1.18.1\src/u8g_polygon.c ****   Optimized for embedded systems
  42:u8glib_arm_v1.18.1\src/u8g_polygon.c ****   - static memory usage only
  43:u8glib_arm_v1.18.1\src/u8g_polygon.c ****   - consistent data types
  44:u8glib_arm_v1.18.1\src/u8g_polygon.c ****   - low flash ROM consumption
  45:u8glib_arm_v1.18.1\src/u8g_polygon.c ****   
  46:u8glib_arm_v1.18.1\src/u8g_polygon.c **** */
  47:u8glib_arm_v1.18.1\src/u8g_polygon.c **** 
  48:u8glib_arm_v1.18.1\src/u8g_polygon.c **** 
  49:u8glib_arm_v1.18.1\src/u8g_polygon.c **** #include "u8g.h"
  50:u8glib_arm_v1.18.1\src/u8g_polygon.c **** 
  51:u8glib_arm_v1.18.1\src/u8g_polygon.c **** 
  52:u8glib_arm_v1.18.1\src/u8g_polygon.c **** 
  53:u8glib_arm_v1.18.1\src/u8g_polygon.c **** 
  54:u8glib_arm_v1.18.1\src/u8g_polygon.c **** /*===========================================*/
  55:u8glib_arm_v1.18.1\src/u8g_polygon.c **** /* procedures, which should not be inlined (save as much flash ROM as possible */
  56:u8glib_arm_v1.18.1\src/u8g_polygon.c **** 
  57:u8glib_arm_v1.18.1\src/u8g_polygon.c **** static uint8_t pge_Next(struct pg_edge_struct *pge) PG_NOINLINE;
  58:u8glib_arm_v1.18.1\src/u8g_polygon.c **** static uint8_t pg_inc(pg_struct *pg, uint8_t i) PG_NOINLINE;
  59:u8glib_arm_v1.18.1\src/u8g_polygon.c **** static uint8_t pg_dec(pg_struct *pg, uint8_t i) PG_NOINLINE;
  60:u8glib_arm_v1.18.1\src/u8g_polygon.c **** static void pg_expand_min_y(pg_struct *pg, pg_word_t min_y, uint8_t pge_idx) PG_NOINLINE;
  61:u8glib_arm_v1.18.1\src/u8g_polygon.c **** static void pg_line_init(pg_struct * const pg, uint8_t pge_index) PG_NOINLINE;
  62:u8glib_arm_v1.18.1\src/u8g_polygon.c **** 
  63:u8glib_arm_v1.18.1\src/u8g_polygon.c **** /*===========================================*/
  64:u8glib_arm_v1.18.1\src/u8g_polygon.c **** /* line draw algorithm */
  65:u8glib_arm_v1.18.1\src/u8g_polygon.c **** 
  66:u8glib_arm_v1.18.1\src/u8g_polygon.c **** static uint8_t pge_Next(struct pg_edge_struct *pge)
  67:u8glib_arm_v1.18.1\src/u8g_polygon.c **** {
  26              		.loc 1 67 0
  27              		.cfi_startproc
  28              		@ args = 0, pretend = 0, frame = 8
  29              		@ frame_needed = 1, uses_anonymous_args = 0
  30              		@ link register save eliminated.
  31 0000 80B4     		push	{r7}
  32              		.cfi_def_cfa_offset 4
  33              		.cfi_offset 7, -4
  34 0002 83B0     		sub	sp, sp, #12
  35              		.cfi_def_cfa_offset 16
  36 0004 00AF     		add	r7, sp, #0
  37              		.cfi_def_cfa_register 7
  38 0006 7860     		str	r0, [r7, #4]
  68:u8glib_arm_v1.18.1\src/u8g_polygon.c ****   if ( pge->current_y >= pge->max_y )
  39              		.loc 1 68 0
  40 0008 7B68     		ldr	r3, [r7, #4]
  41 000a 1A89     		ldrh	r2, [r3, #8]
  42 000c 7B68     		ldr	r3, [r7, #4]
  43 000e 5B89     		ldrh	r3, [r3, #10]
  44 0010 12B2     		sxth	r2, r2
  45 0012 1BB2     		sxth	r3, r3
  46 0014 9A42     		cmp	r2, r3
ARM GAS  C:\Users\KJA\AppData\Local\Temp\ccmudFrT.s 			page 3


  47 0016 01DB     		blt	.L2
  69:u8glib_arm_v1.18.1\src/u8g_polygon.c ****     return 0;
  48              		.loc 1 69 0
  49 0018 0023     		movs	r3, #0
  50 001a 3AE0     		b	.L3
  51              	.L2:
  70:u8glib_arm_v1.18.1\src/u8g_polygon.c ****   
  71:u8glib_arm_v1.18.1\src/u8g_polygon.c ****   pge->current_x += pge->current_x_offset;
  52              		.loc 1 71 0
  53 001c 7B68     		ldr	r3, [r7, #4]
  54 001e 9B89     		ldrh	r3, [r3, #12]
  55 0020 9AB2     		uxth	r2, r3
  56 0022 7B68     		ldr	r3, [r7, #4]
  57 0024 9B88     		ldrh	r3, [r3, #4]
  58 0026 9BB2     		uxth	r3, r3
  59 0028 1344     		add	r3, r3, r2
  60 002a 9BB2     		uxth	r3, r3
  61 002c 9AB2     		uxth	r2, r3
  62 002e 7B68     		ldr	r3, [r7, #4]
  63 0030 9A81     		strh	r2, [r3, #12]	@ movhi
  72:u8glib_arm_v1.18.1\src/u8g_polygon.c ****   pge->error += pge->error_offset;
  64              		.loc 1 72 0
  65 0032 7B68     		ldr	r3, [r7, #4]
  66 0034 DB89     		ldrh	r3, [r3, #14]
  67 0036 9AB2     		uxth	r2, r3
  68 0038 7B68     		ldr	r3, [r7, #4]
  69 003a DB88     		ldrh	r3, [r3, #6]
  70 003c 9BB2     		uxth	r3, r3
  71 003e 1344     		add	r3, r3, r2
  72 0040 9BB2     		uxth	r3, r3
  73 0042 9AB2     		uxth	r2, r3
  74 0044 7B68     		ldr	r3, [r7, #4]
  75 0046 DA81     		strh	r2, [r3, #14]	@ movhi
  73:u8glib_arm_v1.18.1\src/u8g_polygon.c ****   if ( pge->error > 0 )
  76              		.loc 1 73 0
  77 0048 7B68     		ldr	r3, [r7, #4]
  78 004a DB89     		ldrh	r3, [r3, #14]
  79 004c 1BB2     		sxth	r3, r3
  80 004e 002B     		cmp	r3, #0
  81 0050 15DD     		ble	.L4
  74:u8glib_arm_v1.18.1\src/u8g_polygon.c ****   {
  75:u8glib_arm_v1.18.1\src/u8g_polygon.c ****     pge->current_x += pge->x_direction;
  82              		.loc 1 75 0
  83 0052 7B68     		ldr	r3, [r7, #4]
  84 0054 9B89     		ldrh	r3, [r3, #12]
  85 0056 9AB2     		uxth	r2, r3
  86 0058 7B68     		ldr	r3, [r7, #4]
  87 005a 1B88     		ldrh	r3, [r3]
  88 005c 9BB2     		uxth	r3, r3
  89 005e 1344     		add	r3, r3, r2
  90 0060 9BB2     		uxth	r3, r3
  91 0062 9AB2     		uxth	r2, r3
  92 0064 7B68     		ldr	r3, [r7, #4]
  93 0066 9A81     		strh	r2, [r3, #12]	@ movhi
  76:u8glib_arm_v1.18.1\src/u8g_polygon.c ****     pge->error -= pge->height;
  94              		.loc 1 76 0
  95 0068 7B68     		ldr	r3, [r7, #4]
ARM GAS  C:\Users\KJA\AppData\Local\Temp\ccmudFrT.s 			page 4


  96 006a DB89     		ldrh	r3, [r3, #14]
  97 006c 9AB2     		uxth	r2, r3
  98 006e 7B68     		ldr	r3, [r7, #4]
  99 0070 5B88     		ldrh	r3, [r3, #2]
 100 0072 9BB2     		uxth	r3, r3
 101 0074 D31A     		subs	r3, r2, r3
 102 0076 9BB2     		uxth	r3, r3
 103 0078 9AB2     		uxth	r2, r3
 104 007a 7B68     		ldr	r3, [r7, #4]
 105 007c DA81     		strh	r2, [r3, #14]	@ movhi
 106              	.L4:
  77:u8glib_arm_v1.18.1\src/u8g_polygon.c ****   }  
  78:u8glib_arm_v1.18.1\src/u8g_polygon.c ****   
  79:u8glib_arm_v1.18.1\src/u8g_polygon.c ****   pge->current_y++;
 107              		.loc 1 79 0
 108 007e 7B68     		ldr	r3, [r7, #4]
 109 0080 1B89     		ldrh	r3, [r3, #8]
 110 0082 9BB2     		uxth	r3, r3
 111 0084 9BB2     		uxth	r3, r3
 112 0086 0133     		adds	r3, r3, #1
 113 0088 9BB2     		uxth	r3, r3
 114 008a 9AB2     		uxth	r2, r3
 115 008c 7B68     		ldr	r3, [r7, #4]
 116 008e 1A81     		strh	r2, [r3, #8]	@ movhi
  80:u8glib_arm_v1.18.1\src/u8g_polygon.c ****   return 1;
 117              		.loc 1 80 0
 118 0090 0123     		movs	r3, #1
 119              	.L3:
  81:u8glib_arm_v1.18.1\src/u8g_polygon.c **** }
 120              		.loc 1 81 0
 121 0092 1846     		mov	r0, r3
 122 0094 0C37     		adds	r7, r7, #12
 123              		.cfi_def_cfa_offset 4
 124 0096 BD46     		mov	sp, r7
 125              		.cfi_def_cfa_register 13
 126              		@ sp needed
 127 0098 5DF8047B 		ldr	r7, [sp], #4
 128              		.cfi_restore 7
 129              		.cfi_def_cfa_offset 0
 130 009c 7047     		bx	lr
 131              		.cfi_endproc
 132              	.LFE0:
 133              		.size	pge_Next, .-pge_Next
 134 009e 00BF     		.section	.text.pge_Init,"ax",%progbits
 135              		.align	2
 136              		.thumb
 137              		.thumb_func
 138              		.type	pge_Init, %function
 139              	pge_Init:
 140              	.LFB1:
  82:u8glib_arm_v1.18.1\src/u8g_polygon.c **** 
  83:u8glib_arm_v1.18.1\src/u8g_polygon.c **** /* assumes y2 > y1 */
  84:u8glib_arm_v1.18.1\src/u8g_polygon.c **** static void pge_Init(struct pg_edge_struct *pge, pg_word_t x1, pg_word_t y1, pg_word_t x2, pg_word_
  85:u8glib_arm_v1.18.1\src/u8g_polygon.c **** {
 141              		.loc 1 85 0
 142              		.cfi_startproc
 143              		@ args = 4, pretend = 0, frame = 24
ARM GAS  C:\Users\KJA\AppData\Local\Temp\ccmudFrT.s 			page 5


 144              		@ frame_needed = 1, uses_anonymous_args = 0
 145              		@ link register save eliminated.
 146 0000 80B4     		push	{r7}
 147              		.cfi_def_cfa_offset 4
 148              		.cfi_offset 7, -4
 149 0002 87B0     		sub	sp, sp, #28
 150              		.cfi_def_cfa_offset 32
 151 0004 00AF     		add	r7, sp, #0
 152              		.cfi_def_cfa_register 7
 153 0006 F860     		str	r0, [r7, #12]
 154 0008 0846     		mov	r0, r1
 155 000a 1146     		mov	r1, r2
 156 000c 1A46     		mov	r2, r3
 157 000e 0346     		mov	r3, r0	@ movhi
 158 0010 7B81     		strh	r3, [r7, #10]	@ movhi
 159 0012 0B46     		mov	r3, r1	@ movhi
 160 0014 3B81     		strh	r3, [r7, #8]	@ movhi
 161 0016 1346     		mov	r3, r2	@ movhi
 162 0018 FB80     		strh	r3, [r7, #6]	@ movhi
  86:u8glib_arm_v1.18.1\src/u8g_polygon.c ****   pg_word_t dx = x2 - x1;
 163              		.loc 1 86 0
 164 001a FA88     		ldrh	r2, [r7, #6]
 165 001c 7B89     		ldrh	r3, [r7, #10]
 166 001e D31A     		subs	r3, r2, r3
 167 0020 9BB2     		uxth	r3, r3
 168 0022 BB82     		strh	r3, [r7, #20]	@ movhi
  87:u8glib_arm_v1.18.1\src/u8g_polygon.c ****   pg_word_t width;
  88:u8glib_arm_v1.18.1\src/u8g_polygon.c **** 
  89:u8glib_arm_v1.18.1\src/u8g_polygon.c ****   pge->height = y2 - y1;
 169              		.loc 1 89 0
 170 0024 3A8C     		ldrh	r2, [r7, #32]
 171 0026 3B89     		ldrh	r3, [r7, #8]
 172 0028 D31A     		subs	r3, r2, r3
 173 002a 9BB2     		uxth	r3, r3
 174 002c 9AB2     		uxth	r2, r3
 175 002e FB68     		ldr	r3, [r7, #12]
 176 0030 5A80     		strh	r2, [r3, #2]	@ movhi
  90:u8glib_arm_v1.18.1\src/u8g_polygon.c ****   pge->max_y = y2;
 177              		.loc 1 90 0
 178 0032 FB68     		ldr	r3, [r7, #12]
 179 0034 3A8C     		ldrh	r2, [r7, #32]	@ movhi
 180 0036 5A81     		strh	r2, [r3, #10]	@ movhi
  91:u8glib_arm_v1.18.1\src/u8g_polygon.c ****   pge->current_y = y1;
 181              		.loc 1 91 0
 182 0038 FB68     		ldr	r3, [r7, #12]
 183 003a 3A89     		ldrh	r2, [r7, #8]	@ movhi
 184 003c 1A81     		strh	r2, [r3, #8]	@ movhi
  92:u8glib_arm_v1.18.1\src/u8g_polygon.c ****   pge->current_x = x1;
 185              		.loc 1 92 0
 186 003e FB68     		ldr	r3, [r7, #12]
 187 0040 7A89     		ldrh	r2, [r7, #10]	@ movhi
 188 0042 9A81     		strh	r2, [r3, #12]	@ movhi
  93:u8glib_arm_v1.18.1\src/u8g_polygon.c **** 
  94:u8glib_arm_v1.18.1\src/u8g_polygon.c ****   if ( dx >= 0 )
 189              		.loc 1 94 0
 190 0044 B7F91430 		ldrsh	r3, [r7, #20]
 191 0048 002B     		cmp	r3, #0
ARM GAS  C:\Users\KJA\AppData\Local\Temp\ccmudFrT.s 			page 6


 192 004a 08DB     		blt	.L6
  95:u8glib_arm_v1.18.1\src/u8g_polygon.c ****   {
  96:u8glib_arm_v1.18.1\src/u8g_polygon.c ****     pge->x_direction = 1;
 193              		.loc 1 96 0
 194 004c FB68     		ldr	r3, [r7, #12]
 195 004e 0122     		movs	r2, #1
 196 0050 1A80     		strh	r2, [r3]	@ movhi
  97:u8glib_arm_v1.18.1\src/u8g_polygon.c ****     width = dx;
 197              		.loc 1 97 0
 198 0052 BB8A     		ldrh	r3, [r7, #20]	@ movhi
 199 0054 FB82     		strh	r3, [r7, #22]	@ movhi
  98:u8glib_arm_v1.18.1\src/u8g_polygon.c ****     pge->error = 0;
 200              		.loc 1 98 0
 201 0056 FB68     		ldr	r3, [r7, #12]
 202 0058 0022     		movs	r2, #0
 203 005a DA81     		strh	r2, [r3, #14]	@ movhi
 204 005c 10E0     		b	.L7
 205              	.L6:
  99:u8glib_arm_v1.18.1\src/u8g_polygon.c ****   }
 100:u8glib_arm_v1.18.1\src/u8g_polygon.c ****   else
 101:u8glib_arm_v1.18.1\src/u8g_polygon.c ****   {
 102:u8glib_arm_v1.18.1\src/u8g_polygon.c ****     pge->x_direction = -1;
 206              		.loc 1 102 0
 207 005e FB68     		ldr	r3, [r7, #12]
 208 0060 4FF6FF72 		movw	r2, #65535
 209 0064 1A80     		strh	r2, [r3]	@ movhi
 103:u8glib_arm_v1.18.1\src/u8g_polygon.c ****     width = -dx;
 210              		.loc 1 103 0
 211 0066 BB8A     		ldrh	r3, [r7, #20]
 212 0068 5B42     		negs	r3, r3
 213 006a 9BB2     		uxth	r3, r3
 214 006c FB82     		strh	r3, [r7, #22]	@ movhi
 104:u8glib_arm_v1.18.1\src/u8g_polygon.c ****     pge->error = 1 - pge->height;
 215              		.loc 1 104 0
 216 006e FB68     		ldr	r3, [r7, #12]
 217 0070 5B88     		ldrh	r3, [r3, #2]
 218 0072 9BB2     		uxth	r3, r3
 219 0074 C3F10103 		rsb	r3, r3, #1
 220 0078 9BB2     		uxth	r3, r3
 221 007a 9AB2     		uxth	r2, r3
 222 007c FB68     		ldr	r3, [r7, #12]
 223 007e DA81     		strh	r2, [r3, #14]	@ movhi
 224              	.L7:
 105:u8glib_arm_v1.18.1\src/u8g_polygon.c ****   }
 106:u8glib_arm_v1.18.1\src/u8g_polygon.c ****   
 107:u8glib_arm_v1.18.1\src/u8g_polygon.c ****   pge->current_x_offset = dx / pge->height;
 225              		.loc 1 107 0
 226 0080 B7F91420 		ldrsh	r2, [r7, #20]
 227 0084 FB68     		ldr	r3, [r7, #12]
 228 0086 5B88     		ldrh	r3, [r3, #2]
 229 0088 1BB2     		sxth	r3, r3
 230 008a 92FBF3F3 		sdiv	r3, r2, r3
 231 008e 9AB2     		uxth	r2, r3
 232 0090 FB68     		ldr	r3, [r7, #12]
 233 0092 9A80     		strh	r2, [r3, #4]	@ movhi
 108:u8glib_arm_v1.18.1\src/u8g_polygon.c ****   pge->error_offset = width % pge->height;
 234              		.loc 1 108 0
ARM GAS  C:\Users\KJA\AppData\Local\Temp\ccmudFrT.s 			page 7


 235 0094 B7F91630 		ldrsh	r3, [r7, #22]
 236 0098 FA68     		ldr	r2, [r7, #12]
 237 009a 5288     		ldrh	r2, [r2, #2]
 238 009c 12B2     		sxth	r2, r2
 239 009e 93FBF2F1 		sdiv	r1, r3, r2
 240 00a2 02FB01F2 		mul	r2, r2, r1
 241 00a6 9B1A     		subs	r3, r3, r2
 242 00a8 9AB2     		uxth	r2, r3
 243 00aa FB68     		ldr	r3, [r7, #12]
 244 00ac DA80     		strh	r2, [r3, #6]	@ movhi
 109:u8glib_arm_v1.18.1\src/u8g_polygon.c **** }
 245              		.loc 1 109 0
 246 00ae 1C37     		adds	r7, r7, #28
 247              		.cfi_def_cfa_offset 4
 248 00b0 BD46     		mov	sp, r7
 249              		.cfi_def_cfa_register 13
 250              		@ sp needed
 251 00b2 5DF8047B 		ldr	r7, [sp], #4
 252              		.cfi_restore 7
 253              		.cfi_def_cfa_offset 0
 254 00b6 7047     		bx	lr
 255              		.cfi_endproc
 256              	.LFE1:
 257              		.size	pge_Init, .-pge_Init
 258              		.section	.text.pg_inc,"ax",%progbits
 259              		.align	2
 260              		.thumb
 261              		.thumb_func
 262              		.type	pg_inc, %function
 263              	pg_inc:
 264              	.LFB2:
 110:u8glib_arm_v1.18.1\src/u8g_polygon.c **** 
 111:u8glib_arm_v1.18.1\src/u8g_polygon.c **** /*===========================================*/
 112:u8glib_arm_v1.18.1\src/u8g_polygon.c **** /* convex polygon algorithm */
 113:u8glib_arm_v1.18.1\src/u8g_polygon.c **** 
 114:u8glib_arm_v1.18.1\src/u8g_polygon.c **** static uint8_t pg_inc(pg_struct *pg, uint8_t i)
 115:u8glib_arm_v1.18.1\src/u8g_polygon.c **** {
 265              		.loc 1 115 0
 266              		.cfi_startproc
 267              		@ args = 0, pretend = 0, frame = 8
 268              		@ frame_needed = 1, uses_anonymous_args = 0
 269              		@ link register save eliminated.
 270 0000 80B4     		push	{r7}
 271              		.cfi_def_cfa_offset 4
 272              		.cfi_offset 7, -4
 273 0002 83B0     		sub	sp, sp, #12
 274              		.cfi_def_cfa_offset 16
 275 0004 00AF     		add	r7, sp, #0
 276              		.cfi_def_cfa_register 7
 277 0006 7860     		str	r0, [r7, #4]
 278 0008 0B46     		mov	r3, r1
 279 000a FB70     		strb	r3, [r7, #3]
 116:u8glib_arm_v1.18.1\src/u8g_polygon.c ****     i++;
 280              		.loc 1 116 0
 281 000c FB78     		ldrb	r3, [r7, #3]	@ zero_extendqisi2
 282 000e 0133     		adds	r3, r3, #1
 283 0010 FB70     		strb	r3, [r7, #3]
ARM GAS  C:\Users\KJA\AppData\Local\Temp\ccmudFrT.s 			page 8


 117:u8glib_arm_v1.18.1\src/u8g_polygon.c ****     if ( i >= pg->cnt )
 284              		.loc 1 117 0
 285 0012 7B68     		ldr	r3, [r7, #4]
 286 0014 1B7E     		ldrb	r3, [r3, #24]	@ zero_extendqisi2
 287 0016 FA78     		ldrb	r2, [r7, #3]	@ zero_extendqisi2
 288 0018 9A42     		cmp	r2, r3
 289 001a 01D3     		bcc	.L9
 118:u8glib_arm_v1.18.1\src/u8g_polygon.c ****       i = 0;
 290              		.loc 1 118 0
 291 001c 0023     		movs	r3, #0
 292 001e FB70     		strb	r3, [r7, #3]
 293              	.L9:
 119:u8glib_arm_v1.18.1\src/u8g_polygon.c ****     return i;
 294              		.loc 1 119 0
 295 0020 FB78     		ldrb	r3, [r7, #3]	@ zero_extendqisi2
 120:u8glib_arm_v1.18.1\src/u8g_polygon.c **** }
 296              		.loc 1 120 0
 297 0022 1846     		mov	r0, r3
 298 0024 0C37     		adds	r7, r7, #12
 299              		.cfi_def_cfa_offset 4
 300 0026 BD46     		mov	sp, r7
 301              		.cfi_def_cfa_register 13
 302              		@ sp needed
 303 0028 5DF8047B 		ldr	r7, [sp], #4
 304              		.cfi_restore 7
 305              		.cfi_def_cfa_offset 0
 306 002c 7047     		bx	lr
 307              		.cfi_endproc
 308              	.LFE2:
 309              		.size	pg_inc, .-pg_inc
 310 002e 00BF     		.section	.text.pg_dec,"ax",%progbits
 311              		.align	2
 312              		.thumb
 313              		.thumb_func
 314              		.type	pg_dec, %function
 315              	pg_dec:
 316              	.LFB3:
 121:u8glib_arm_v1.18.1\src/u8g_polygon.c **** 
 122:u8glib_arm_v1.18.1\src/u8g_polygon.c **** static uint8_t pg_dec(pg_struct *pg, uint8_t i)
 123:u8glib_arm_v1.18.1\src/u8g_polygon.c **** {
 317              		.loc 1 123 0
 318              		.cfi_startproc
 319              		@ args = 0, pretend = 0, frame = 8
 320              		@ frame_needed = 1, uses_anonymous_args = 0
 321              		@ link register save eliminated.
 322 0000 80B4     		push	{r7}
 323              		.cfi_def_cfa_offset 4
 324              		.cfi_offset 7, -4
 325 0002 83B0     		sub	sp, sp, #12
 326              		.cfi_def_cfa_offset 16
 327 0004 00AF     		add	r7, sp, #0
 328              		.cfi_def_cfa_register 7
 329 0006 7860     		str	r0, [r7, #4]
 330 0008 0B46     		mov	r3, r1
 331 000a FB70     		strb	r3, [r7, #3]
 124:u8glib_arm_v1.18.1\src/u8g_polygon.c ****     i--;
 332              		.loc 1 124 0
ARM GAS  C:\Users\KJA\AppData\Local\Temp\ccmudFrT.s 			page 9


 333 000c FB78     		ldrb	r3, [r7, #3]	@ zero_extendqisi2
 334 000e 013B     		subs	r3, r3, #1
 335 0010 FB70     		strb	r3, [r7, #3]
 125:u8glib_arm_v1.18.1\src/u8g_polygon.c ****     if ( i >= pg->cnt )
 336              		.loc 1 125 0
 337 0012 7B68     		ldr	r3, [r7, #4]
 338 0014 1B7E     		ldrb	r3, [r3, #24]	@ zero_extendqisi2
 339 0016 FA78     		ldrb	r2, [r7, #3]	@ zero_extendqisi2
 340 0018 9A42     		cmp	r2, r3
 341 001a 03D3     		bcc	.L12
 126:u8glib_arm_v1.18.1\src/u8g_polygon.c ****       i = pg->cnt-1;
 342              		.loc 1 126 0
 343 001c 7B68     		ldr	r3, [r7, #4]
 344 001e 1B7E     		ldrb	r3, [r3, #24]	@ zero_extendqisi2
 345 0020 013B     		subs	r3, r3, #1
 346 0022 FB70     		strb	r3, [r7, #3]
 347              	.L12:
 127:u8glib_arm_v1.18.1\src/u8g_polygon.c ****     return i;
 348              		.loc 1 127 0
 349 0024 FB78     		ldrb	r3, [r7, #3]	@ zero_extendqisi2
 128:u8glib_arm_v1.18.1\src/u8g_polygon.c **** }
 350              		.loc 1 128 0
 351 0026 1846     		mov	r0, r3
 352 0028 0C37     		adds	r7, r7, #12
 353              		.cfi_def_cfa_offset 4
 354 002a BD46     		mov	sp, r7
 355              		.cfi_def_cfa_register 13
 356              		@ sp needed
 357 002c 5DF8047B 		ldr	r7, [sp], #4
 358              		.cfi_restore 7
 359              		.cfi_def_cfa_offset 0
 360 0030 7047     		bx	lr
 361              		.cfi_endproc
 362              	.LFE3:
 363              		.size	pg_dec, .-pg_dec
 364 0032 00BF     		.section	.text.pg_expand_min_y,"ax",%progbits
 365              		.align	2
 366              		.thumb
 367              		.thumb_func
 368              		.type	pg_expand_min_y, %function
 369              	pg_expand_min_y:
 370              	.LFB4:
 129:u8glib_arm_v1.18.1\src/u8g_polygon.c **** 
 130:u8glib_arm_v1.18.1\src/u8g_polygon.c **** static void pg_expand_min_y(pg_struct *pg, pg_word_t min_y, uint8_t pge_idx)
 131:u8glib_arm_v1.18.1\src/u8g_polygon.c **** {
 371              		.loc 1 131 0
 372              		.cfi_startproc
 373              		@ args = 0, pretend = 0, frame = 16
 374              		@ frame_needed = 1, uses_anonymous_args = 0
 375 0000 80B5     		push	{r7, lr}
 376              		.cfi_def_cfa_offset 8
 377              		.cfi_offset 7, -8
 378              		.cfi_offset 14, -4
 379 0002 84B0     		sub	sp, sp, #16
 380              		.cfi_def_cfa_offset 24
 381 0004 00AF     		add	r7, sp, #0
 382              		.cfi_def_cfa_register 7
ARM GAS  C:\Users\KJA\AppData\Local\Temp\ccmudFrT.s 			page 10


 383 0006 7860     		str	r0, [r7, #4]
 384 0008 0B46     		mov	r3, r1
 385 000a 7B80     		strh	r3, [r7, #2]	@ movhi
 386 000c 1346     		mov	r3, r2
 387 000e 7B70     		strb	r3, [r7, #1]
 132:u8glib_arm_v1.18.1\src/u8g_polygon.c ****   uint8_t i = pg->pge[pge_idx].curr_idx;
 388              		.loc 1 132 0
 389 0010 7A78     		ldrb	r2, [r7, #1]	@ zero_extendqisi2
 390 0012 7968     		ldr	r1, [r7, #4]
 391 0014 1346     		mov	r3, r2
 392 0016 5B00     		lsls	r3, r3, #1
 393 0018 1344     		add	r3, r3, r2
 394 001a DB00     		lsls	r3, r3, #3
 395 001c 0B44     		add	r3, r3, r1
 396 001e 2833     		adds	r3, r3, #40
 397 0020 1B7A     		ldrb	r3, [r3, #8]
 398 0022 FB73     		strb	r3, [r7, #15]
 399              	.L17:
 133:u8glib_arm_v1.18.1\src/u8g_polygon.c ****   for(;;)
 134:u8glib_arm_v1.18.1\src/u8g_polygon.c ****   {
 135:u8glib_arm_v1.18.1\src/u8g_polygon.c ****     i = pg->pge[pge_idx].next_idx_fn(pg, i);
 400              		.loc 1 135 0
 401 0024 7A78     		ldrb	r2, [r7, #1]	@ zero_extendqisi2
 402 0026 7968     		ldr	r1, [r7, #4]
 403 0028 1346     		mov	r3, r2
 404 002a 5B00     		lsls	r3, r3, #1
 405 002c 1344     		add	r3, r3, r2
 406 002e DB00     		lsls	r3, r3, #3
 407 0030 0B44     		add	r3, r3, r1
 408 0032 2833     		adds	r3, r3, #40
 409 0034 5B68     		ldr	r3, [r3, #4]
 410 0036 FA7B     		ldrb	r2, [r7, #15]	@ zero_extendqisi2
 411 0038 7868     		ldr	r0, [r7, #4]
 412 003a 1146     		mov	r1, r2
 413 003c 9847     		blx	r3
 414 003e 0346     		mov	r3, r0
 415 0040 FB73     		strb	r3, [r7, #15]
 136:u8glib_arm_v1.18.1\src/u8g_polygon.c ****     if ( pg->list[i].y != min_y )
 416              		.loc 1 136 0
 417 0042 FB7B     		ldrb	r3, [r7, #15]	@ zero_extendqisi2
 418 0044 7A68     		ldr	r2, [r7, #4]
 419 0046 9B00     		lsls	r3, r3, #2
 420 0048 1344     		add	r3, r3, r2
 421 004a 5B88     		ldrh	r3, [r3, #2]
 422 004c B7F90220 		ldrsh	r2, [r7, #2]
 423 0050 1BB2     		sxth	r3, r3
 424 0052 9A42     		cmp	r2, r3
 425 0054 00D0     		beq	.L15
 137:u8glib_arm_v1.18.1\src/u8g_polygon.c ****       break;	
 426              		.loc 1 137 0
 427 0056 0AE0     		b	.L18
 428              	.L15:
 138:u8glib_arm_v1.18.1\src/u8g_polygon.c ****     pg->pge[pge_idx].curr_idx = i;
 429              		.loc 1 138 0
 430 0058 7A78     		ldrb	r2, [r7, #1]	@ zero_extendqisi2
 431 005a 7968     		ldr	r1, [r7, #4]
 432 005c 1346     		mov	r3, r2
ARM GAS  C:\Users\KJA\AppData\Local\Temp\ccmudFrT.s 			page 11


 433 005e 5B00     		lsls	r3, r3, #1
 434 0060 1344     		add	r3, r3, r2
 435 0062 DB00     		lsls	r3, r3, #3
 436 0064 0B44     		add	r3, r3, r1
 437 0066 2833     		adds	r3, r3, #40
 438 0068 FA7B     		ldrb	r2, [r7, #15]
 439 006a 1A72     		strb	r2, [r3, #8]
 139:u8glib_arm_v1.18.1\src/u8g_polygon.c ****   }
 440              		.loc 1 139 0
 441 006c DAE7     		b	.L17
 442              	.L18:
 140:u8glib_arm_v1.18.1\src/u8g_polygon.c **** }
 443              		.loc 1 140 0
 444 006e 1037     		adds	r7, r7, #16
 445              		.cfi_def_cfa_offset 8
 446 0070 BD46     		mov	sp, r7
 447              		.cfi_def_cfa_register 13
 448              		@ sp needed
 449 0072 80BD     		pop	{r7, pc}
 450              		.cfi_endproc
 451              	.LFE4:
 452              		.size	pg_expand_min_y, .-pg_expand_min_y
 453              		.section	.text.pg_prepare,"ax",%progbits
 454              		.align	2
 455              		.thumb
 456              		.thumb_func
 457              		.type	pg_prepare, %function
 458              	pg_prepare:
 459              	.LFB5:
 141:u8glib_arm_v1.18.1\src/u8g_polygon.c **** 
 142:u8glib_arm_v1.18.1\src/u8g_polygon.c **** static uint8_t pg_prepare(pg_struct *pg)
 143:u8glib_arm_v1.18.1\src/u8g_polygon.c **** {
 460              		.loc 1 143 0
 461              		.cfi_startproc
 462              		@ args = 0, pretend = 0, frame = 16
 463              		@ frame_needed = 1, uses_anonymous_args = 0
 464 0000 80B5     		push	{r7, lr}
 465              		.cfi_def_cfa_offset 8
 466              		.cfi_offset 7, -8
 467              		.cfi_offset 14, -4
 468 0002 84B0     		sub	sp, sp, #16
 469              		.cfi_def_cfa_offset 24
 470 0004 00AF     		add	r7, sp, #0
 471              		.cfi_def_cfa_register 7
 472 0006 7860     		str	r0, [r7, #4]
 144:u8glib_arm_v1.18.1\src/u8g_polygon.c ****   pg_word_t max_y;
 145:u8glib_arm_v1.18.1\src/u8g_polygon.c ****   pg_word_t min_y;
 146:u8glib_arm_v1.18.1\src/u8g_polygon.c ****   uint8_t i;
 147:u8glib_arm_v1.18.1\src/u8g_polygon.c **** 
 148:u8glib_arm_v1.18.1\src/u8g_polygon.c ****   /* setup the next index procedures */
 149:u8glib_arm_v1.18.1\src/u8g_polygon.c ****   pg->pge[PG_RIGHT].next_idx_fn = pg_inc;
 473              		.loc 1 149 0
 474 0008 7B68     		ldr	r3, [r7, #4]
 475 000a 484A     		ldr	r2, .L28
 476 000c 5A64     		str	r2, [r3, #68]
 150:u8glib_arm_v1.18.1\src/u8g_polygon.c ****   pg->pge[PG_LEFT].next_idx_fn = pg_dec;
 477              		.loc 1 150 0
ARM GAS  C:\Users\KJA\AppData\Local\Temp\ccmudFrT.s 			page 12


 478 000e 7B68     		ldr	r3, [r7, #4]
 479 0010 474A     		ldr	r2, .L28+4
 480 0012 DA62     		str	r2, [r3, #44]
 151:u8glib_arm_v1.18.1\src/u8g_polygon.c ****   
 152:u8glib_arm_v1.18.1\src/u8g_polygon.c ****   /* search for highest and lowest point */
 153:u8glib_arm_v1.18.1\src/u8g_polygon.c ****   max_y = pg->list[0].y;
 481              		.loc 1 153 0
 482 0014 7B68     		ldr	r3, [r7, #4]
 483 0016 5B88     		ldrh	r3, [r3, #2]	@ movhi
 484 0018 FB81     		strh	r3, [r7, #14]	@ movhi
 154:u8glib_arm_v1.18.1\src/u8g_polygon.c ****   min_y = pg->list[0].y;
 485              		.loc 1 154 0
 486 001a 7B68     		ldr	r3, [r7, #4]
 487 001c 5B88     		ldrh	r3, [r3, #2]	@ movhi
 488 001e BB81     		strh	r3, [r7, #12]	@ movhi
 155:u8glib_arm_v1.18.1\src/u8g_polygon.c ****   pg->pge[PG_LEFT].curr_idx = 0;
 489              		.loc 1 155 0
 490 0020 7B68     		ldr	r3, [r7, #4]
 491 0022 0022     		movs	r2, #0
 492 0024 83F83020 		strb	r2, [r3, #48]
 156:u8glib_arm_v1.18.1\src/u8g_polygon.c ****   for( i = 1; i < pg->cnt; i++ )
 493              		.loc 1 156 0
 494 0028 0123     		movs	r3, #1
 495 002a FB72     		strb	r3, [r7, #11]
 496 002c 26E0     		b	.L20
 497              	.L23:
 157:u8glib_arm_v1.18.1\src/u8g_polygon.c ****   {
 158:u8glib_arm_v1.18.1\src/u8g_polygon.c ****     if ( max_y < pg->list[i].y )
 498              		.loc 1 158 0
 499 002e FB7A     		ldrb	r3, [r7, #11]	@ zero_extendqisi2
 500 0030 7A68     		ldr	r2, [r7, #4]
 501 0032 9B00     		lsls	r3, r3, #2
 502 0034 1344     		add	r3, r3, r2
 503 0036 5B88     		ldrh	r3, [r3, #2]
 504 0038 B7F90E20 		ldrsh	r2, [r7, #14]
 505 003c 1BB2     		sxth	r3, r3
 506 003e 9A42     		cmp	r2, r3
 507 0040 05DA     		bge	.L21
 159:u8glib_arm_v1.18.1\src/u8g_polygon.c ****     {
 160:u8glib_arm_v1.18.1\src/u8g_polygon.c ****       max_y = pg->list[i].y;
 508              		.loc 1 160 0
 509 0042 FB7A     		ldrb	r3, [r7, #11]	@ zero_extendqisi2
 510 0044 7A68     		ldr	r2, [r7, #4]
 511 0046 9B00     		lsls	r3, r3, #2
 512 0048 1344     		add	r3, r3, r2
 513 004a 5B88     		ldrh	r3, [r3, #2]	@ movhi
 514 004c FB81     		strh	r3, [r7, #14]	@ movhi
 515              	.L21:
 161:u8glib_arm_v1.18.1\src/u8g_polygon.c ****     }
 162:u8glib_arm_v1.18.1\src/u8g_polygon.c ****     if ( min_y > pg->list[i].y )
 516              		.loc 1 162 0
 517 004e FB7A     		ldrb	r3, [r7, #11]	@ zero_extendqisi2
 518 0050 7A68     		ldr	r2, [r7, #4]
 519 0052 9B00     		lsls	r3, r3, #2
 520 0054 1344     		add	r3, r3, r2
 521 0056 5B88     		ldrh	r3, [r3, #2]
 522 0058 B7F90C20 		ldrsh	r2, [r7, #12]
ARM GAS  C:\Users\KJA\AppData\Local\Temp\ccmudFrT.s 			page 13


 523 005c 1BB2     		sxth	r3, r3
 524 005e 9A42     		cmp	r2, r3
 525 0060 09DD     		ble	.L22
 163:u8glib_arm_v1.18.1\src/u8g_polygon.c ****     {
 164:u8glib_arm_v1.18.1\src/u8g_polygon.c ****       pg->pge[PG_LEFT].curr_idx = i;
 526              		.loc 1 164 0
 527 0062 7B68     		ldr	r3, [r7, #4]
 528 0064 FA7A     		ldrb	r2, [r7, #11]
 529 0066 83F83020 		strb	r2, [r3, #48]
 165:u8glib_arm_v1.18.1\src/u8g_polygon.c ****       min_y = pg->list[i].y;
 530              		.loc 1 165 0
 531 006a FB7A     		ldrb	r3, [r7, #11]	@ zero_extendqisi2
 532 006c 7A68     		ldr	r2, [r7, #4]
 533 006e 9B00     		lsls	r3, r3, #2
 534 0070 1344     		add	r3, r3, r2
 535 0072 5B88     		ldrh	r3, [r3, #2]	@ movhi
 536 0074 BB81     		strh	r3, [r7, #12]	@ movhi
 537              	.L22:
 156:u8glib_arm_v1.18.1\src/u8g_polygon.c ****   {
 538              		.loc 1 156 0 discriminator 2
 539 0076 FB7A     		ldrb	r3, [r7, #11]	@ zero_extendqisi2
 540 0078 0133     		adds	r3, r3, #1
 541 007a FB72     		strb	r3, [r7, #11]
 542              	.L20:
 156:u8glib_arm_v1.18.1\src/u8g_polygon.c ****   {
 543              		.loc 1 156 0 is_stmt 0 discriminator 1
 544 007c 7B68     		ldr	r3, [r7, #4]
 545 007e 1B7E     		ldrb	r3, [r3, #24]	@ zero_extendqisi2
 546 0080 FA7A     		ldrb	r2, [r7, #11]	@ zero_extendqisi2
 547 0082 9A42     		cmp	r2, r3
 548 0084 D3D3     		bcc	.L23
 166:u8glib_arm_v1.18.1\src/u8g_polygon.c ****     }
 167:u8glib_arm_v1.18.1\src/u8g_polygon.c ****   }
 168:u8glib_arm_v1.18.1\src/u8g_polygon.c **** 
 169:u8glib_arm_v1.18.1\src/u8g_polygon.c ****   /* calculate total number of scan lines */
 170:u8glib_arm_v1.18.1\src/u8g_polygon.c ****   pg->total_scan_line_cnt = max_y;
 549              		.loc 1 170 0 is_stmt 1
 550 0086 7B68     		ldr	r3, [r7, #4]
 551 0088 FA89     		ldrh	r2, [r7, #14]	@ movhi
 552 008a 5A83     		strh	r2, [r3, #26]	@ movhi
 171:u8glib_arm_v1.18.1\src/u8g_polygon.c ****   pg->total_scan_line_cnt -= min_y;
 553              		.loc 1 171 0
 554 008c 7B68     		ldr	r3, [r7, #4]
 555 008e 5B8B     		ldrh	r3, [r3, #26]
 556 0090 9AB2     		uxth	r2, r3
 557 0092 BB89     		ldrh	r3, [r7, #12]
 558 0094 D31A     		subs	r3, r2, r3
 559 0096 9BB2     		uxth	r3, r3
 560 0098 9AB2     		uxth	r2, r3
 561 009a 7B68     		ldr	r3, [r7, #4]
 562 009c 5A83     		strh	r2, [r3, #26]	@ movhi
 172:u8glib_arm_v1.18.1\src/u8g_polygon.c ****   
 173:u8glib_arm_v1.18.1\src/u8g_polygon.c ****   /* exit if polygon height is zero */
 174:u8glib_arm_v1.18.1\src/u8g_polygon.c ****   if ( pg->total_scan_line_cnt == 0 )
 563              		.loc 1 174 0
 564 009e 7B68     		ldr	r3, [r7, #4]
 565 00a0 5B8B     		ldrh	r3, [r3, #26]
ARM GAS  C:\Users\KJA\AppData\Local\Temp\ccmudFrT.s 			page 14


 566 00a2 002B     		cmp	r3, #0
 567 00a4 01D1     		bne	.L24
 175:u8glib_arm_v1.18.1\src/u8g_polygon.c ****     return 0;
 568              		.loc 1 175 0
 569 00a6 0023     		movs	r3, #0
 570 00a8 3CE0     		b	.L25
 571              	.L24:
 176:u8glib_arm_v1.18.1\src/u8g_polygon.c ****   
 177:u8glib_arm_v1.18.1\src/u8g_polygon.c ****   /* if the minimum y side is flat, try to find the lowest and highest x points */
 178:u8glib_arm_v1.18.1\src/u8g_polygon.c ****   pg->pge[PG_RIGHT].curr_idx = pg->pge[PG_LEFT].curr_idx;  
 572              		.loc 1 178 0
 573 00aa 7B68     		ldr	r3, [r7, #4]
 574 00ac 93F83020 		ldrb	r2, [r3, #48]	@ zero_extendqisi2
 575 00b0 7B68     		ldr	r3, [r7, #4]
 576 00b2 83F84820 		strb	r2, [r3, #72]
 179:u8glib_arm_v1.18.1\src/u8g_polygon.c ****   pg_expand_min_y(pg, min_y, PG_RIGHT);
 577              		.loc 1 179 0
 578 00b6 B7F90C30 		ldrsh	r3, [r7, #12]
 579 00ba 7868     		ldr	r0, [r7, #4]
 580 00bc 1946     		mov	r1, r3
 581 00be 0122     		movs	r2, #1
 582 00c0 FFF7FEFF 		bl	pg_expand_min_y
 180:u8glib_arm_v1.18.1\src/u8g_polygon.c ****   pg_expand_min_y(pg, min_y, PG_LEFT);
 583              		.loc 1 180 0
 584 00c4 B7F90C30 		ldrsh	r3, [r7, #12]
 585 00c8 7868     		ldr	r0, [r7, #4]
 586 00ca 1946     		mov	r1, r3
 587 00cc 0022     		movs	r2, #0
 588 00ce FFF7FEFF 		bl	pg_expand_min_y
 181:u8glib_arm_v1.18.1\src/u8g_polygon.c ****   
 182:u8glib_arm_v1.18.1\src/u8g_polygon.c ****   /* check if the min side is really flat (depends on the x values) */
 183:u8glib_arm_v1.18.1\src/u8g_polygon.c ****   pg->is_min_y_not_flat = 1;
 589              		.loc 1 183 0
 590 00d2 7B68     		ldr	r3, [r7, #4]
 591 00d4 0122     		movs	r2, #1
 592 00d6 5A76     		strb	r2, [r3, #25]
 184:u8glib_arm_v1.18.1\src/u8g_polygon.c ****   if ( pg->list[pg->pge[PG_LEFT].curr_idx].x != pg->list[pg->pge[PG_RIGHT].curr_idx].x )
 593              		.loc 1 184 0
 594 00d8 7B68     		ldr	r3, [r7, #4]
 595 00da 93F83030 		ldrb	r3, [r3, #48]	@ zero_extendqisi2
 596 00de 1A46     		mov	r2, r3
 597 00e0 7B68     		ldr	r3, [r7, #4]
 598 00e2 33F82220 		ldrh	r2, [r3, r2, lsl #2]
 599 00e6 7B68     		ldr	r3, [r7, #4]
 600 00e8 93F84830 		ldrb	r3, [r3, #72]	@ zero_extendqisi2
 601 00ec 1946     		mov	r1, r3
 602 00ee 7B68     		ldr	r3, [r7, #4]
 603 00f0 33F82130 		ldrh	r3, [r3, r1, lsl #2]
 604 00f4 12B2     		sxth	r2, r2
 605 00f6 1BB2     		sxth	r3, r3
 606 00f8 9A42     		cmp	r2, r3
 607 00fa 03D0     		beq	.L26
 185:u8glib_arm_v1.18.1\src/u8g_polygon.c ****   {
 186:u8glib_arm_v1.18.1\src/u8g_polygon.c ****     pg->is_min_y_not_flat = 0;
 608              		.loc 1 186 0
 609 00fc 7B68     		ldr	r3, [r7, #4]
 610 00fe 0022     		movs	r2, #0
ARM GAS  C:\Users\KJA\AppData\Local\Temp\ccmudFrT.s 			page 15


 611 0100 5A76     		strb	r2, [r3, #25]
 612 0102 0EE0     		b	.L27
 613              	.L26:
 187:u8glib_arm_v1.18.1\src/u8g_polygon.c ****   }
 188:u8glib_arm_v1.18.1\src/u8g_polygon.c ****   else
 189:u8glib_arm_v1.18.1\src/u8g_polygon.c ****   {
 190:u8glib_arm_v1.18.1\src/u8g_polygon.c ****     pg->total_scan_line_cnt--;
 614              		.loc 1 190 0
 615 0104 7B68     		ldr	r3, [r7, #4]
 616 0106 5B8B     		ldrh	r3, [r3, #26]
 617 0108 9BB2     		uxth	r3, r3
 618 010a 9BB2     		uxth	r3, r3
 619 010c 013B     		subs	r3, r3, #1
 620 010e 9BB2     		uxth	r3, r3
 621 0110 9AB2     		uxth	r2, r3
 622 0112 7B68     		ldr	r3, [r7, #4]
 623 0114 5A83     		strh	r2, [r3, #26]	@ movhi
 191:u8glib_arm_v1.18.1\src/u8g_polygon.c ****     if ( pg->total_scan_line_cnt == 0 )
 624              		.loc 1 191 0
 625 0116 7B68     		ldr	r3, [r7, #4]
 626 0118 5B8B     		ldrh	r3, [r3, #26]
 627 011a 002B     		cmp	r3, #0
 628 011c 01D1     		bne	.L27
 192:u8glib_arm_v1.18.1\src/u8g_polygon.c ****       return 0;
 629              		.loc 1 192 0
 630 011e 0023     		movs	r3, #0
 631 0120 00E0     		b	.L25
 632              	.L27:
 193:u8glib_arm_v1.18.1\src/u8g_polygon.c ****   }
 194:u8glib_arm_v1.18.1\src/u8g_polygon.c **** 
 195:u8glib_arm_v1.18.1\src/u8g_polygon.c ****   return 1;
 633              		.loc 1 195 0
 634 0122 0123     		movs	r3, #1
 635              	.L25:
 196:u8glib_arm_v1.18.1\src/u8g_polygon.c **** }
 636              		.loc 1 196 0
 637 0124 1846     		mov	r0, r3
 638 0126 1037     		adds	r7, r7, #16
 639              		.cfi_def_cfa_offset 8
 640 0128 BD46     		mov	sp, r7
 641              		.cfi_def_cfa_register 13
 642              		@ sp needed
 643 012a 80BD     		pop	{r7, pc}
 644              	.L29:
 645              		.align	2
 646              	.L28:
 647 012c 00000000 		.word	pg_inc
 648 0130 00000000 		.word	pg_dec
 649              		.cfi_endproc
 650              	.LFE5:
 651              		.size	pg_prepare, .-pg_prepare
 652              		.section	.text.pg_hline,"ax",%progbits
 653              		.align	2
 654              		.thumb
 655              		.thumb_func
 656              		.type	pg_hline, %function
 657              	pg_hline:
ARM GAS  C:\Users\KJA\AppData\Local\Temp\ccmudFrT.s 			page 16


 658              	.LFB6:
 197:u8glib_arm_v1.18.1\src/u8g_polygon.c **** 
 198:u8glib_arm_v1.18.1\src/u8g_polygon.c **** static void pg_hline(pg_struct *pg, u8g_t *u8g)
 199:u8glib_arm_v1.18.1\src/u8g_polygon.c **** {
 659              		.loc 1 199 0
 660              		.cfi_startproc
 661              		@ args = 0, pretend = 0, frame = 16
 662              		@ frame_needed = 1, uses_anonymous_args = 0
 663 0000 90B5     		push	{r4, r7, lr}
 664              		.cfi_def_cfa_offset 12
 665              		.cfi_offset 4, -12
 666              		.cfi_offset 7, -8
 667              		.cfi_offset 14, -4
 668 0002 85B0     		sub	sp, sp, #20
 669              		.cfi_def_cfa_offset 32
 670 0004 00AF     		add	r7, sp, #0
 671              		.cfi_def_cfa_register 7
 672 0006 7860     		str	r0, [r7, #4]
 673 0008 3960     		str	r1, [r7]
 200:u8glib_arm_v1.18.1\src/u8g_polygon.c ****   pg_word_t x1, x2, y;
 201:u8glib_arm_v1.18.1\src/u8g_polygon.c ****   x1 = pg->pge[PG_LEFT].current_x;
 674              		.loc 1 201 0
 675 000a 7B68     		ldr	r3, [r7, #4]
 676 000c 1B8D     		ldrh	r3, [r3, #40]	@ movhi
 677 000e FB81     		strh	r3, [r7, #14]	@ movhi
 202:u8glib_arm_v1.18.1\src/u8g_polygon.c ****   x2 = pg->pge[PG_RIGHT].current_x;
 678              		.loc 1 202 0
 679 0010 7B68     		ldr	r3, [r7, #4]
 680 0012 B3F84030 		ldrh	r3, [r3, #64]	@ movhi
 681 0016 BB81     		strh	r3, [r7, #12]	@ movhi
 203:u8glib_arm_v1.18.1\src/u8g_polygon.c ****   y = pg->pge[PG_RIGHT].current_y;
 682              		.loc 1 203 0
 683 0018 7B68     		ldr	r3, [r7, #4]
 684 001a 9B8F     		ldrh	r3, [r3, #60]	@ movhi
 685 001c 7B81     		strh	r3, [r7, #10]	@ movhi
 204:u8glib_arm_v1.18.1\src/u8g_polygon.c ****   
 205:u8glib_arm_v1.18.1\src/u8g_polygon.c ****   if ( y < 0 )
 686              		.loc 1 205 0
 687 001e B7F90A30 		ldrsh	r3, [r7, #10]
 688 0022 002B     		cmp	r3, #0
 689 0024 00DA     		bge	.L31
 206:u8glib_arm_v1.18.1\src/u8g_polygon.c ****     return;
 690              		.loc 1 206 0
 691 0026 5FE0     		b	.L30
 692              	.L31:
 207:u8glib_arm_v1.18.1\src/u8g_polygon.c ****   if ( y >= u8g_GetHeight(u8g) )
 693              		.loc 1 207 0
 694 0028 B7F90A30 		ldrsh	r3, [r7, #10]
 695 002c 3A68     		ldr	r2, [r7]
 696 002e 5278     		ldrb	r2, [r2, #1]	@ zero_extendqisi2
 697 0030 9342     		cmp	r3, r2
 698 0032 00DB     		blt	.L33
 208:u8glib_arm_v1.18.1\src/u8g_polygon.c ****     return;
 699              		.loc 1 208 0 discriminator 2
 700 0034 58E0     		b	.L30
 701              	.L33:
 209:u8glib_arm_v1.18.1\src/u8g_polygon.c ****   if ( x1 < x2 )
ARM GAS  C:\Users\KJA\AppData\Local\Temp\ccmudFrT.s 			page 17


 702              		.loc 1 209 0
 703 0036 B7F90E20 		ldrsh	r2, [r7, #14]
 704 003a B7F90C30 		ldrsh	r3, [r7, #12]
 705 003e 9A42     		cmp	r2, r3
 706 0040 29DA     		bge	.L34
 210:u8glib_arm_v1.18.1\src/u8g_polygon.c ****   {
 211:u8glib_arm_v1.18.1\src/u8g_polygon.c ****     if ( x2 < 0 )
 707              		.loc 1 211 0
 708 0042 B7F90C30 		ldrsh	r3, [r7, #12]
 709 0046 002B     		cmp	r3, #0
 710 0048 00DA     		bge	.L35
 212:u8glib_arm_v1.18.1\src/u8g_polygon.c ****       return;
 711              		.loc 1 212 0 discriminator 3
 712 004a 4DE0     		b	.L30
 713              	.L35:
 213:u8glib_arm_v1.18.1\src/u8g_polygon.c ****     if ( x1 >= u8g_GetWidth(u8g) )
 714              		.loc 1 213 0
 715 004c B7F90E30 		ldrsh	r3, [r7, #14]
 716 0050 3A68     		ldr	r2, [r7]
 717 0052 1278     		ldrb	r2, [r2]	@ zero_extendqisi2
 718 0054 9342     		cmp	r3, r2
 719 0056 00DB     		blt	.L36
 214:u8glib_arm_v1.18.1\src/u8g_polygon.c ****       return;
 720              		.loc 1 214 0 discriminator 4
 721 0058 46E0     		b	.L30
 722              	.L36:
 215:u8glib_arm_v1.18.1\src/u8g_polygon.c ****     if ( x1 < 0 )
 723              		.loc 1 215 0
 724 005a B7F90E30 		ldrsh	r3, [r7, #14]
 725 005e 002B     		cmp	r3, #0
 726 0060 01DA     		bge	.L37
 216:u8glib_arm_v1.18.1\src/u8g_polygon.c ****       x1 = 0;
 727              		.loc 1 216 0
 728 0062 0023     		movs	r3, #0
 729 0064 FB81     		strh	r3, [r7, #14]	@ movhi
 730              	.L37:
 217:u8glib_arm_v1.18.1\src/u8g_polygon.c ****     if ( x2 >= u8g_GetWidth(u8g) )
 731              		.loc 1 217 0
 732 0066 B7F90C30 		ldrsh	r3, [r7, #12]
 733 006a 3A68     		ldr	r2, [r7]
 734 006c 1278     		ldrb	r2, [r2]	@ zero_extendqisi2
 735 006e 9342     		cmp	r3, r2
 736 0070 02DB     		blt	.L38
 218:u8glib_arm_v1.18.1\src/u8g_polygon.c ****       x2 = u8g_GetWidth(u8g);
 737              		.loc 1 218 0
 738 0072 3B68     		ldr	r3, [r7]
 739 0074 1B78     		ldrb	r3, [r3]	@ zero_extendqisi2
 740 0076 BB81     		strh	r3, [r7, #12]	@ movhi
 741              	.L38:
 219:u8glib_arm_v1.18.1\src/u8g_polygon.c ****     u8g_DrawHLine(u8g, x1, y, x2 - x1);
 742              		.loc 1 219 0
 743 0078 FB89     		ldrh	r3, [r7, #14]	@ movhi
 744 007a D9B2     		uxtb	r1, r3
 745 007c 7B89     		ldrh	r3, [r7, #10]	@ movhi
 746 007e DCB2     		uxtb	r4, r3
 747 0080 BB89     		ldrh	r3, [r7, #12]	@ movhi
 748 0082 DAB2     		uxtb	r2, r3
ARM GAS  C:\Users\KJA\AppData\Local\Temp\ccmudFrT.s 			page 18


 749 0084 FB89     		ldrh	r3, [r7, #14]	@ movhi
 750 0086 DBB2     		uxtb	r3, r3
 751 0088 D31A     		subs	r3, r2, r3
 752 008a DBB2     		uxtb	r3, r3
 753 008c 3868     		ldr	r0, [r7]
 754 008e 2246     		mov	r2, r4
 755 0090 FFF7FEFF 		bl	u8g_DrawHLine
 756 0094 28E0     		b	.L30
 757              	.L34:
 220:u8glib_arm_v1.18.1\src/u8g_polygon.c ****   }
 221:u8glib_arm_v1.18.1\src/u8g_polygon.c ****   else
 222:u8glib_arm_v1.18.1\src/u8g_polygon.c ****   {
 223:u8glib_arm_v1.18.1\src/u8g_polygon.c ****     if ( x1 < 0 )
 758              		.loc 1 223 0
 759 0096 B7F90E30 		ldrsh	r3, [r7, #14]
 760 009a 002B     		cmp	r3, #0
 761 009c 00DA     		bge	.L39
 224:u8glib_arm_v1.18.1\src/u8g_polygon.c ****       return;
 762              		.loc 1 224 0 discriminator 5
 763 009e 23E0     		b	.L30
 764              	.L39:
 225:u8glib_arm_v1.18.1\src/u8g_polygon.c ****     if ( x2 >= u8g_GetWidth(u8g) )
 765              		.loc 1 225 0
 766 00a0 B7F90C30 		ldrsh	r3, [r7, #12]
 767 00a4 3A68     		ldr	r2, [r7]
 768 00a6 1278     		ldrb	r2, [r2]	@ zero_extendqisi2
 769 00a8 9342     		cmp	r3, r2
 770 00aa 00DB     		blt	.L40
 226:u8glib_arm_v1.18.1\src/u8g_polygon.c ****       return;
 771              		.loc 1 226 0 discriminator 6
 772 00ac 1CE0     		b	.L30
 773              	.L40:
 227:u8glib_arm_v1.18.1\src/u8g_polygon.c ****     if ( x2 < 0 )
 774              		.loc 1 227 0
 775 00ae B7F90C30 		ldrsh	r3, [r7, #12]
 776 00b2 002B     		cmp	r3, #0
 777 00b4 01DA     		bge	.L41
 228:u8glib_arm_v1.18.1\src/u8g_polygon.c ****       x1 = 0;
 778              		.loc 1 228 0
 779 00b6 0023     		movs	r3, #0
 780 00b8 FB81     		strh	r3, [r7, #14]	@ movhi
 781              	.L41:
 229:u8glib_arm_v1.18.1\src/u8g_polygon.c ****     if ( x1 >= u8g_GetWidth(u8g) )
 782              		.loc 1 229 0
 783 00ba B7F90E30 		ldrsh	r3, [r7, #14]
 784 00be 3A68     		ldr	r2, [r7]
 785 00c0 1278     		ldrb	r2, [r2]	@ zero_extendqisi2
 786 00c2 9342     		cmp	r3, r2
 787 00c4 02DB     		blt	.L42
 230:u8glib_arm_v1.18.1\src/u8g_polygon.c ****       x1 = u8g_GetWidth(u8g);
 788              		.loc 1 230 0
 789 00c6 3B68     		ldr	r3, [r7]
 790 00c8 1B78     		ldrb	r3, [r3]	@ zero_extendqisi2
 791 00ca FB81     		strh	r3, [r7, #14]	@ movhi
 792              	.L42:
 231:u8glib_arm_v1.18.1\src/u8g_polygon.c ****     u8g_DrawHLine(u8g, x2, y, x1 - x2);
 793              		.loc 1 231 0
ARM GAS  C:\Users\KJA\AppData\Local\Temp\ccmudFrT.s 			page 19


 794 00cc BB89     		ldrh	r3, [r7, #12]	@ movhi
 795 00ce D9B2     		uxtb	r1, r3
 796 00d0 7B89     		ldrh	r3, [r7, #10]	@ movhi
 797 00d2 DCB2     		uxtb	r4, r3
 798 00d4 FB89     		ldrh	r3, [r7, #14]	@ movhi
 799 00d6 DAB2     		uxtb	r2, r3
 800 00d8 BB89     		ldrh	r3, [r7, #12]	@ movhi
 801 00da DBB2     		uxtb	r3, r3
 802 00dc D31A     		subs	r3, r2, r3
 803 00de DBB2     		uxtb	r3, r3
 804 00e0 3868     		ldr	r0, [r7]
 805 00e2 2246     		mov	r2, r4
 806 00e4 FFF7FEFF 		bl	u8g_DrawHLine
 807              	.L30:
 232:u8glib_arm_v1.18.1\src/u8g_polygon.c ****   }
 233:u8glib_arm_v1.18.1\src/u8g_polygon.c **** }
 808              		.loc 1 233 0
 809 00e8 1437     		adds	r7, r7, #20
 810              		.cfi_def_cfa_offset 12
 811 00ea BD46     		mov	sp, r7
 812              		.cfi_def_cfa_register 13
 813              		@ sp needed
 814 00ec 90BD     		pop	{r4, r7, pc}
 815              		.cfi_endproc
 816              	.LFE6:
 817              		.size	pg_hline, .-pg_hline
 818 00ee 00BF     		.section	.text.pg_line_init,"ax",%progbits
 819              		.align	2
 820              		.thumb
 821              		.thumb_func
 822              		.type	pg_line_init, %function
 823              	pg_line_init:
 824              	.LFB7:
 234:u8glib_arm_v1.18.1\src/u8g_polygon.c **** 
 235:u8glib_arm_v1.18.1\src/u8g_polygon.c **** static void pg_line_init(pg_struct * pg, uint8_t pge_index)
 236:u8glib_arm_v1.18.1\src/u8g_polygon.c **** {
 825              		.loc 1 236 0
 826              		.cfi_startproc
 827              		@ args = 0, pretend = 0, frame = 24
 828              		@ frame_needed = 1, uses_anonymous_args = 0
 829 0000 90B5     		push	{r4, r7, lr}
 830              		.cfi_def_cfa_offset 12
 831              		.cfi_offset 4, -12
 832              		.cfi_offset 7, -8
 833              		.cfi_offset 14, -4
 834 0002 89B0     		sub	sp, sp, #36
 835              		.cfi_def_cfa_offset 48
 836 0004 02AF     		add	r7, sp, #8
 837              		.cfi_def_cfa 7, 40
 838 0006 7860     		str	r0, [r7, #4]
 839 0008 0B46     		mov	r3, r1
 840 000a FB70     		strb	r3, [r7, #3]
 237:u8glib_arm_v1.18.1\src/u8g_polygon.c ****   struct pg_edge_struct  *pge = pg->pge+pge_index;
 841              		.loc 1 237 0
 842 000c FB78     		ldrb	r3, [r7, #3]	@ zero_extendqisi2
 843 000e 5A1C     		adds	r2, r3, #1
 844 0010 1346     		mov	r3, r2
ARM GAS  C:\Users\KJA\AppData\Local\Temp\ccmudFrT.s 			page 20


 845 0012 5B00     		lsls	r3, r3, #1
 846 0014 1344     		add	r3, r3, r2
 847 0016 DB00     		lsls	r3, r3, #3
 848 0018 7A68     		ldr	r2, [r7, #4]
 849 001a 1344     		add	r3, r3, r2
 850 001c 0433     		adds	r3, r3, #4
 851 001e 7B61     		str	r3, [r7, #20]
 238:u8glib_arm_v1.18.1\src/u8g_polygon.c ****   uint8_t idx;  
 239:u8glib_arm_v1.18.1\src/u8g_polygon.c ****   pg_word_t x1;
 240:u8glib_arm_v1.18.1\src/u8g_polygon.c ****   pg_word_t y1;
 241:u8glib_arm_v1.18.1\src/u8g_polygon.c ****   pg_word_t x2;
 242:u8glib_arm_v1.18.1\src/u8g_polygon.c ****   pg_word_t y2;
 243:u8glib_arm_v1.18.1\src/u8g_polygon.c **** 
 244:u8glib_arm_v1.18.1\src/u8g_polygon.c ****   idx = pge->curr_idx;  
 852              		.loc 1 244 0
 853 0020 7B69     		ldr	r3, [r7, #20]
 854 0022 1B7D     		ldrb	r3, [r3, #20]
 855 0024 FB74     		strb	r3, [r7, #19]
 245:u8glib_arm_v1.18.1\src/u8g_polygon.c ****   y1 = pg->list[idx].y;
 856              		.loc 1 245 0
 857 0026 FB7C     		ldrb	r3, [r7, #19]	@ zero_extendqisi2
 858 0028 7A68     		ldr	r2, [r7, #4]
 859 002a 9B00     		lsls	r3, r3, #2
 860 002c 1344     		add	r3, r3, r2
 861 002e 5B88     		ldrh	r3, [r3, #2]	@ movhi
 862 0030 3B82     		strh	r3, [r7, #16]	@ movhi
 246:u8glib_arm_v1.18.1\src/u8g_polygon.c ****   x1 = pg->list[idx].x;
 863              		.loc 1 246 0
 864 0032 FA7C     		ldrb	r2, [r7, #19]	@ zero_extendqisi2
 865 0034 7B68     		ldr	r3, [r7, #4]
 866 0036 33F82230 		ldrh	r3, [r3, r2, lsl #2]	@ movhi
 867 003a FB81     		strh	r3, [r7, #14]	@ movhi
 247:u8glib_arm_v1.18.1\src/u8g_polygon.c ****   idx = pge->next_idx_fn(pg, idx);
 868              		.loc 1 247 0
 869 003c 7B69     		ldr	r3, [r7, #20]
 870 003e 1B69     		ldr	r3, [r3, #16]
 871 0040 FA7C     		ldrb	r2, [r7, #19]	@ zero_extendqisi2
 872 0042 7868     		ldr	r0, [r7, #4]
 873 0044 1146     		mov	r1, r2
 874 0046 9847     		blx	r3
 875 0048 0346     		mov	r3, r0
 876 004a FB74     		strb	r3, [r7, #19]
 248:u8glib_arm_v1.18.1\src/u8g_polygon.c ****   y2 = pg->list[idx].y;
 877              		.loc 1 248 0
 878 004c FB7C     		ldrb	r3, [r7, #19]	@ zero_extendqisi2
 879 004e 7A68     		ldr	r2, [r7, #4]
 880 0050 9B00     		lsls	r3, r3, #2
 881 0052 1344     		add	r3, r3, r2
 882 0054 5B88     		ldrh	r3, [r3, #2]	@ movhi
 883 0056 BB81     		strh	r3, [r7, #12]	@ movhi
 249:u8glib_arm_v1.18.1\src/u8g_polygon.c ****   x2 = pg->list[idx].x; 
 884              		.loc 1 249 0
 885 0058 FA7C     		ldrb	r2, [r7, #19]	@ zero_extendqisi2
 886 005a 7B68     		ldr	r3, [r7, #4]
 887 005c 33F82230 		ldrh	r3, [r3, r2, lsl #2]	@ movhi
 888 0060 7B81     		strh	r3, [r7, #10]	@ movhi
 250:u8glib_arm_v1.18.1\src/u8g_polygon.c ****   pge->curr_idx = idx;
ARM GAS  C:\Users\KJA\AppData\Local\Temp\ccmudFrT.s 			page 21


 889              		.loc 1 250 0
 890 0062 7B69     		ldr	r3, [r7, #20]
 891 0064 FA7C     		ldrb	r2, [r7, #19]
 892 0066 1A75     		strb	r2, [r3, #20]
 251:u8glib_arm_v1.18.1\src/u8g_polygon.c ****   
 252:u8glib_arm_v1.18.1\src/u8g_polygon.c ****   pge_Init(pge, x1, y1, x2, y2);
 893              		.loc 1 252 0
 894 0068 B7F90E10 		ldrsh	r1, [r7, #14]
 895 006c B7F91020 		ldrsh	r2, [r7, #16]
 896 0070 B7F90A40 		ldrsh	r4, [r7, #10]
 897 0074 B7F90C30 		ldrsh	r3, [r7, #12]
 898 0078 0093     		str	r3, [sp]
 899 007a 7869     		ldr	r0, [r7, #20]
 900 007c 2346     		mov	r3, r4
 901 007e FFF7FEFF 		bl	pge_Init
 253:u8glib_arm_v1.18.1\src/u8g_polygon.c **** }
 902              		.loc 1 253 0
 903 0082 1C37     		adds	r7, r7, #28
 904              		.cfi_def_cfa_offset 12
 905 0084 BD46     		mov	sp, r7
 906              		.cfi_def_cfa_register 13
 907              		@ sp needed
 908 0086 90BD     		pop	{r4, r7, pc}
 909              		.cfi_endproc
 910              	.LFE7:
 911              		.size	pg_line_init, .-pg_line_init
 912              		.section	.text.pg_exec,"ax",%progbits
 913              		.align	2
 914              		.thumb
 915              		.thumb_func
 916              		.type	pg_exec, %function
 917              	pg_exec:
 918              	.LFB8:
 254:u8glib_arm_v1.18.1\src/u8g_polygon.c **** 
 255:u8glib_arm_v1.18.1\src/u8g_polygon.c **** static void pg_exec(pg_struct *pg, u8g_t *u8g)
 256:u8glib_arm_v1.18.1\src/u8g_polygon.c **** {
 919              		.loc 1 256 0
 920              		.cfi_startproc
 921              		@ args = 0, pretend = 0, frame = 16
 922              		@ frame_needed = 1, uses_anonymous_args = 0
 923 0000 80B5     		push	{r7, lr}
 924              		.cfi_def_cfa_offset 8
 925              		.cfi_offset 7, -8
 926              		.cfi_offset 14, -4
 927 0002 84B0     		sub	sp, sp, #16
 928              		.cfi_def_cfa_offset 24
 929 0004 00AF     		add	r7, sp, #0
 930              		.cfi_def_cfa_register 7
 931 0006 7860     		str	r0, [r7, #4]
 932 0008 3960     		str	r1, [r7]
 257:u8glib_arm_v1.18.1\src/u8g_polygon.c ****   pg_word_t i = pg->total_scan_line_cnt;
 933              		.loc 1 257 0
 934 000a 7B68     		ldr	r3, [r7, #4]
 935 000c 5B8B     		ldrh	r3, [r3, #26]	@ movhi
 936 000e FB81     		strh	r3, [r7, #14]	@ movhi
 258:u8glib_arm_v1.18.1\src/u8g_polygon.c **** 
 259:u8glib_arm_v1.18.1\src/u8g_polygon.c ****   /* first line is skipped if the min y line is not flat */
ARM GAS  C:\Users\KJA\AppData\Local\Temp\ccmudFrT.s 			page 22


 260:u8glib_arm_v1.18.1\src/u8g_polygon.c ****   pg_line_init(pg, PG_LEFT);		
 937              		.loc 1 260 0
 938 0010 7868     		ldr	r0, [r7, #4]
 939 0012 0021     		movs	r1, #0
 940 0014 FFF7FEFF 		bl	pg_line_init
 261:u8glib_arm_v1.18.1\src/u8g_polygon.c ****   pg_line_init(pg, PG_RIGHT);
 941              		.loc 1 261 0
 942 0018 7868     		ldr	r0, [r7, #4]
 943 001a 0121     		movs	r1, #1
 944 001c FFF7FEFF 		bl	pg_line_init
 262:u8glib_arm_v1.18.1\src/u8g_polygon.c ****   
 263:u8glib_arm_v1.18.1\src/u8g_polygon.c ****   if ( pg->is_min_y_not_flat != 0 )
 945              		.loc 1 263 0
 946 0020 7B68     		ldr	r3, [r7, #4]
 947 0022 5B7E     		ldrb	r3, [r3, #25]	@ zero_extendqisi2
 948 0024 002B     		cmp	r3, #0
 949 0026 09D0     		beq	.L45
 264:u8glib_arm_v1.18.1\src/u8g_polygon.c ****   {
 265:u8glib_arm_v1.18.1\src/u8g_polygon.c ****     pge_Next(&(pg->pge[PG_LEFT])); 
 950              		.loc 1 265 0
 951 0028 7B68     		ldr	r3, [r7, #4]
 952 002a 1C33     		adds	r3, r3, #28
 953 002c 1846     		mov	r0, r3
 954 002e FFF7FEFF 		bl	pge_Next
 266:u8glib_arm_v1.18.1\src/u8g_polygon.c ****     pge_Next(&(pg->pge[PG_RIGHT]));
 955              		.loc 1 266 0
 956 0032 7B68     		ldr	r3, [r7, #4]
 957 0034 3433     		adds	r3, r3, #52
 958 0036 1846     		mov	r0, r3
 959 0038 FFF7FEFF 		bl	pge_Next
 960              	.L45:
 267:u8glib_arm_v1.18.1\src/u8g_polygon.c ****   }
 268:u8glib_arm_v1.18.1\src/u8g_polygon.c **** 
 269:u8glib_arm_v1.18.1\src/u8g_polygon.c ****   do
 270:u8glib_arm_v1.18.1\src/u8g_polygon.c ****   {
 271:u8glib_arm_v1.18.1\src/u8g_polygon.c ****     pg_hline(pg, u8g);
 961              		.loc 1 271 0
 962 003c 7868     		ldr	r0, [r7, #4]
 963 003e 3968     		ldr	r1, [r7]
 964 0040 FFF7FEFF 		bl	pg_hline
 272:u8glib_arm_v1.18.1\src/u8g_polygon.c ****     while ( pge_Next(&(pg->pge[PG_LEFT])) == 0 )
 965              		.loc 1 272 0
 966 0044 03E0     		b	.L46
 967              	.L47:
 273:u8glib_arm_v1.18.1\src/u8g_polygon.c ****     {
 274:u8glib_arm_v1.18.1\src/u8g_polygon.c ****       pg_line_init(pg, PG_LEFT);
 968              		.loc 1 274 0
 969 0046 7868     		ldr	r0, [r7, #4]
 970 0048 0021     		movs	r1, #0
 971 004a FFF7FEFF 		bl	pg_line_init
 972              	.L46:
 272:u8glib_arm_v1.18.1\src/u8g_polygon.c ****     while ( pge_Next(&(pg->pge[PG_LEFT])) == 0 )
 973              		.loc 1 272 0
 974 004e 7B68     		ldr	r3, [r7, #4]
 975 0050 1C33     		adds	r3, r3, #28
 976 0052 1846     		mov	r0, r3
 977 0054 FFF7FEFF 		bl	pge_Next
ARM GAS  C:\Users\KJA\AppData\Local\Temp\ccmudFrT.s 			page 23


 978 0058 0346     		mov	r3, r0
 979 005a 002B     		cmp	r3, #0
 980 005c F3D0     		beq	.L47
 275:u8glib_arm_v1.18.1\src/u8g_polygon.c ****     }
 276:u8glib_arm_v1.18.1\src/u8g_polygon.c ****     while ( pge_Next(&(pg->pge[PG_RIGHT])) == 0 )
 981              		.loc 1 276 0
 982 005e 03E0     		b	.L48
 983              	.L49:
 277:u8glib_arm_v1.18.1\src/u8g_polygon.c ****     {
 278:u8glib_arm_v1.18.1\src/u8g_polygon.c ****       pg_line_init(pg, PG_RIGHT);
 984              		.loc 1 278 0
 985 0060 7868     		ldr	r0, [r7, #4]
 986 0062 0121     		movs	r1, #1
 987 0064 FFF7FEFF 		bl	pg_line_init
 988              	.L48:
 276:u8glib_arm_v1.18.1\src/u8g_polygon.c ****     {
 989              		.loc 1 276 0
 990 0068 7B68     		ldr	r3, [r7, #4]
 991 006a 3433     		adds	r3, r3, #52
 992 006c 1846     		mov	r0, r3
 993 006e FFF7FEFF 		bl	pge_Next
 994 0072 0346     		mov	r3, r0
 995 0074 002B     		cmp	r3, #0
 996 0076 F3D0     		beq	.L49
 279:u8glib_arm_v1.18.1\src/u8g_polygon.c ****     }
 280:u8glib_arm_v1.18.1\src/u8g_polygon.c ****     i--;
 997              		.loc 1 280 0
 998 0078 FB89     		ldrh	r3, [r7, #14]
 999 007a 9BB2     		uxth	r3, r3
 1000 007c 013B     		subs	r3, r3, #1
 1001 007e 9BB2     		uxth	r3, r3
 1002 0080 FB81     		strh	r3, [r7, #14]	@ movhi
 281:u8glib_arm_v1.18.1\src/u8g_polygon.c ****   } while( i > 0 );
 1003              		.loc 1 281 0
 1004 0082 B7F90E30 		ldrsh	r3, [r7, #14]
 1005 0086 002B     		cmp	r3, #0
 1006 0088 D8DC     		bgt	.L45
 282:u8glib_arm_v1.18.1\src/u8g_polygon.c **** }
 1007              		.loc 1 282 0
 1008 008a 1037     		adds	r7, r7, #16
 1009              		.cfi_def_cfa_offset 8
 1010 008c BD46     		mov	sp, r7
 1011              		.cfi_def_cfa_register 13
 1012              		@ sp needed
 1013 008e 80BD     		pop	{r7, pc}
 1014              		.cfi_endproc
 1015              	.LFE8:
 1016              		.size	pg_exec, .-pg_exec
 1017              		.section	.text.pg_ClearPolygonXY,"ax",%progbits
 1018              		.align	2
 1019              		.global	pg_ClearPolygonXY
 1020              		.thumb
 1021              		.thumb_func
 1022              		.type	pg_ClearPolygonXY, %function
 1023              	pg_ClearPolygonXY:
 1024              	.LFB9:
 283:u8glib_arm_v1.18.1\src/u8g_polygon.c **** 
ARM GAS  C:\Users\KJA\AppData\Local\Temp\ccmudFrT.s 			page 24


 284:u8glib_arm_v1.18.1\src/u8g_polygon.c **** /*===========================================*/
 285:u8glib_arm_v1.18.1\src/u8g_polygon.c **** /* API procedures */
 286:u8glib_arm_v1.18.1\src/u8g_polygon.c **** 
 287:u8glib_arm_v1.18.1\src/u8g_polygon.c **** void pg_ClearPolygonXY(pg_struct *pg)
 288:u8glib_arm_v1.18.1\src/u8g_polygon.c **** {
 1025              		.loc 1 288 0
 1026              		.cfi_startproc
 1027              		@ args = 0, pretend = 0, frame = 8
 1028              		@ frame_needed = 1, uses_anonymous_args = 0
 1029              		@ link register save eliminated.
 1030 0000 80B4     		push	{r7}
 1031              		.cfi_def_cfa_offset 4
 1032              		.cfi_offset 7, -4
 1033 0002 83B0     		sub	sp, sp, #12
 1034              		.cfi_def_cfa_offset 16
 1035 0004 00AF     		add	r7, sp, #0
 1036              		.cfi_def_cfa_register 7
 1037 0006 7860     		str	r0, [r7, #4]
 289:u8glib_arm_v1.18.1\src/u8g_polygon.c ****   pg->cnt = 0;
 1038              		.loc 1 289 0
 1039 0008 7B68     		ldr	r3, [r7, #4]
 1040 000a 0022     		movs	r2, #0
 1041 000c 1A76     		strb	r2, [r3, #24]
 290:u8glib_arm_v1.18.1\src/u8g_polygon.c **** }
 1042              		.loc 1 290 0
 1043 000e 0C37     		adds	r7, r7, #12
 1044              		.cfi_def_cfa_offset 4
 1045 0010 BD46     		mov	sp, r7
 1046              		.cfi_def_cfa_register 13
 1047              		@ sp needed
 1048 0012 5DF8047B 		ldr	r7, [sp], #4
 1049              		.cfi_restore 7
 1050              		.cfi_def_cfa_offset 0
 1051 0016 7047     		bx	lr
 1052              		.cfi_endproc
 1053              	.LFE9:
 1054              		.size	pg_ClearPolygonXY, .-pg_ClearPolygonXY
 1055              		.section	.text.pg_AddPolygonXY,"ax",%progbits
 1056              		.align	2
 1057              		.global	pg_AddPolygonXY
 1058              		.thumb
 1059              		.thumb_func
 1060              		.type	pg_AddPolygonXY, %function
 1061              	pg_AddPolygonXY:
 1062              	.LFB10:
 291:u8glib_arm_v1.18.1\src/u8g_polygon.c **** 
 292:u8glib_arm_v1.18.1\src/u8g_polygon.c **** void pg_AddPolygonXY(pg_struct *pg, u8g_t *u8g, int16_t x, int16_t y)
 293:u8glib_arm_v1.18.1\src/u8g_polygon.c **** {
 1063              		.loc 1 293 0
 1064              		.cfi_startproc
 1065              		@ args = 0, pretend = 0, frame = 16
 1066              		@ frame_needed = 1, uses_anonymous_args = 0
 1067              		@ link register save eliminated.
 1068 0000 80B4     		push	{r7}
 1069              		.cfi_def_cfa_offset 4
 1070              		.cfi_offset 7, -4
 1071 0002 85B0     		sub	sp, sp, #20
ARM GAS  C:\Users\KJA\AppData\Local\Temp\ccmudFrT.s 			page 25


 1072              		.cfi_def_cfa_offset 24
 1073 0004 00AF     		add	r7, sp, #0
 1074              		.cfi_def_cfa_register 7
 1075 0006 F860     		str	r0, [r7, #12]
 1076 0008 B960     		str	r1, [r7, #8]
 1077 000a 1146     		mov	r1, r2
 1078 000c 1A46     		mov	r2, r3
 1079 000e 0B46     		mov	r3, r1	@ movhi
 1080 0010 FB80     		strh	r3, [r7, #6]	@ movhi
 1081 0012 1346     		mov	r3, r2	@ movhi
 1082 0014 BB80     		strh	r3, [r7, #4]	@ movhi
 294:u8glib_arm_v1.18.1\src/u8g_polygon.c ****   if ( pg->cnt < PG_MAX_POINTS )
 1083              		.loc 1 294 0
 1084 0016 FB68     		ldr	r3, [r7, #12]
 1085 0018 1B7E     		ldrb	r3, [r3, #24]	@ zero_extendqisi2
 1086 001a 052B     		cmp	r3, #5
 1087 001c 13D8     		bhi	.L51
 295:u8glib_arm_v1.18.1\src/u8g_polygon.c ****   {
 296:u8glib_arm_v1.18.1\src/u8g_polygon.c ****     pg->list[pg->cnt].x = x;
 1088              		.loc 1 296 0
 1089 001e FB68     		ldr	r3, [r7, #12]
 1090 0020 1B7E     		ldrb	r3, [r3, #24]	@ zero_extendqisi2
 1091 0022 1946     		mov	r1, r3
 1092 0024 FB68     		ldr	r3, [r7, #12]
 1093 0026 FA88     		ldrh	r2, [r7, #6]	@ movhi
 1094 0028 23F82120 		strh	r2, [r3, r1, lsl #2]	@ movhi
 297:u8glib_arm_v1.18.1\src/u8g_polygon.c ****     pg->list[pg->cnt].y = y;
 1095              		.loc 1 297 0
 1096 002c FB68     		ldr	r3, [r7, #12]
 1097 002e 1B7E     		ldrb	r3, [r3, #24]	@ zero_extendqisi2
 1098 0030 FA68     		ldr	r2, [r7, #12]
 1099 0032 9B00     		lsls	r3, r3, #2
 1100 0034 1344     		add	r3, r3, r2
 1101 0036 BA88     		ldrh	r2, [r7, #4]	@ movhi
 1102 0038 5A80     		strh	r2, [r3, #2]	@ movhi
 298:u8glib_arm_v1.18.1\src/u8g_polygon.c ****     pg->cnt++;
 1103              		.loc 1 298 0
 1104 003a FB68     		ldr	r3, [r7, #12]
 1105 003c 1B7E     		ldrb	r3, [r3, #24]	@ zero_extendqisi2
 1106 003e 0133     		adds	r3, r3, #1
 1107 0040 DAB2     		uxtb	r2, r3
 1108 0042 FB68     		ldr	r3, [r7, #12]
 1109 0044 1A76     		strb	r2, [r3, #24]
 1110              	.L51:
 299:u8glib_arm_v1.18.1\src/u8g_polygon.c ****   }
 300:u8glib_arm_v1.18.1\src/u8g_polygon.c **** }
 1111              		.loc 1 300 0
 1112 0046 1437     		adds	r7, r7, #20
 1113              		.cfi_def_cfa_offset 4
 1114 0048 BD46     		mov	sp, r7
 1115              		.cfi_def_cfa_register 13
 1116              		@ sp needed
 1117 004a 5DF8047B 		ldr	r7, [sp], #4
 1118              		.cfi_restore 7
 1119              		.cfi_def_cfa_offset 0
 1120 004e 7047     		bx	lr
 1121              		.cfi_endproc
ARM GAS  C:\Users\KJA\AppData\Local\Temp\ccmudFrT.s 			page 26


 1122              	.LFE10:
 1123              		.size	pg_AddPolygonXY, .-pg_AddPolygonXY
 1124              		.section	.text.pg_DrawPolygon,"ax",%progbits
 1125              		.align	2
 1126              		.global	pg_DrawPolygon
 1127              		.thumb
 1128              		.thumb_func
 1129              		.type	pg_DrawPolygon, %function
 1130              	pg_DrawPolygon:
 1131              	.LFB11:
 301:u8glib_arm_v1.18.1\src/u8g_polygon.c **** 
 302:u8glib_arm_v1.18.1\src/u8g_polygon.c **** void pg_DrawPolygon(pg_struct *pg, u8g_t *u8g)
 303:u8glib_arm_v1.18.1\src/u8g_polygon.c **** {
 1132              		.loc 1 303 0
 1133              		.cfi_startproc
 1134              		@ args = 0, pretend = 0, frame = 8
 1135              		@ frame_needed = 1, uses_anonymous_args = 0
 1136 0000 80B5     		push	{r7, lr}
 1137              		.cfi_def_cfa_offset 8
 1138              		.cfi_offset 7, -8
 1139              		.cfi_offset 14, -4
 1140 0002 82B0     		sub	sp, sp, #8
 1141              		.cfi_def_cfa_offset 16
 1142 0004 00AF     		add	r7, sp, #0
 1143              		.cfi_def_cfa_register 7
 1144 0006 7860     		str	r0, [r7, #4]
 1145 0008 3960     		str	r1, [r7]
 304:u8glib_arm_v1.18.1\src/u8g_polygon.c ****   if ( pg_prepare(pg) == 0 )
 1146              		.loc 1 304 0
 1147 000a 7868     		ldr	r0, [r7, #4]
 1148 000c FFF7FEFF 		bl	pg_prepare
 1149 0010 0346     		mov	r3, r0
 1150 0012 002B     		cmp	r3, #0
 1151 0014 00D1     		bne	.L54
 305:u8glib_arm_v1.18.1\src/u8g_polygon.c ****     return;
 1152              		.loc 1 305 0
 1153 0016 03E0     		b	.L53
 1154              	.L54:
 306:u8glib_arm_v1.18.1\src/u8g_polygon.c ****   pg_exec(pg, u8g);
 1155              		.loc 1 306 0
 1156 0018 7868     		ldr	r0, [r7, #4]
 1157 001a 3968     		ldr	r1, [r7]
 1158 001c FFF7FEFF 		bl	pg_exec
 1159              	.L53:
 307:u8glib_arm_v1.18.1\src/u8g_polygon.c **** }
 1160              		.loc 1 307 0
 1161 0020 0837     		adds	r7, r7, #8
 1162              		.cfi_def_cfa_offset 8
 1163 0022 BD46     		mov	sp, r7
 1164              		.cfi_def_cfa_register 13
 1165              		@ sp needed
 1166 0024 80BD     		pop	{r7, pc}
 1167              		.cfi_endproc
 1168              	.LFE11:
 1169              		.size	pg_DrawPolygon, .-pg_DrawPolygon
 1170              		.comm	u8g_pg,76,4
 1171              		.section	.text.u8g_ClearPolygonXY,"ax",%progbits
ARM GAS  C:\Users\KJA\AppData\Local\Temp\ccmudFrT.s 			page 27


 1172              		.align	2
 1173              		.global	u8g_ClearPolygonXY
 1174              		.thumb
 1175              		.thumb_func
 1176              		.type	u8g_ClearPolygonXY, %function
 1177              	u8g_ClearPolygonXY:
 1178              	.LFB12:
 308:u8glib_arm_v1.18.1\src/u8g_polygon.c **** 
 309:u8glib_arm_v1.18.1\src/u8g_polygon.c **** pg_struct u8g_pg;
 310:u8glib_arm_v1.18.1\src/u8g_polygon.c **** 
 311:u8glib_arm_v1.18.1\src/u8g_polygon.c **** void u8g_ClearPolygonXY(void)
 312:u8glib_arm_v1.18.1\src/u8g_polygon.c **** {
 1179              		.loc 1 312 0
 1180              		.cfi_startproc
 1181              		@ args = 0, pretend = 0, frame = 0
 1182              		@ frame_needed = 1, uses_anonymous_args = 0
 1183 0000 80B5     		push	{r7, lr}
 1184              		.cfi_def_cfa_offset 8
 1185              		.cfi_offset 7, -8
 1186              		.cfi_offset 14, -4
 1187 0002 00AF     		add	r7, sp, #0
 1188              		.cfi_def_cfa_register 7
 313:u8glib_arm_v1.18.1\src/u8g_polygon.c ****   pg_ClearPolygonXY(&u8g_pg);
 1189              		.loc 1 313 0
 1190 0004 0148     		ldr	r0, .L57
 1191 0006 FFF7FEFF 		bl	pg_ClearPolygonXY
 314:u8glib_arm_v1.18.1\src/u8g_polygon.c **** }
 1192              		.loc 1 314 0
 1193 000a 80BD     		pop	{r7, pc}
 1194              	.L58:
 1195              		.align	2
 1196              	.L57:
 1197 000c 00000000 		.word	u8g_pg
 1198              		.cfi_endproc
 1199              	.LFE12:
 1200              		.size	u8g_ClearPolygonXY, .-u8g_ClearPolygonXY
 1201              		.section	.text.u8g_AddPolygonXY,"ax",%progbits
 1202              		.align	2
 1203              		.global	u8g_AddPolygonXY
 1204              		.thumb
 1205              		.thumb_func
 1206              		.type	u8g_AddPolygonXY, %function
 1207              	u8g_AddPolygonXY:
 1208              	.LFB13:
 315:u8glib_arm_v1.18.1\src/u8g_polygon.c **** 
 316:u8glib_arm_v1.18.1\src/u8g_polygon.c **** void u8g_AddPolygonXY(u8g_t *u8g, int16_t x, int16_t y)
 317:u8glib_arm_v1.18.1\src/u8g_polygon.c **** {
 1209              		.loc 1 317 0
 1210              		.cfi_startproc
 1211              		@ args = 0, pretend = 0, frame = 8
 1212              		@ frame_needed = 1, uses_anonymous_args = 0
 1213 0000 80B5     		push	{r7, lr}
 1214              		.cfi_def_cfa_offset 8
 1215              		.cfi_offset 7, -8
 1216              		.cfi_offset 14, -4
 1217 0002 82B0     		sub	sp, sp, #8
 1218              		.cfi_def_cfa_offset 16
ARM GAS  C:\Users\KJA\AppData\Local\Temp\ccmudFrT.s 			page 28


 1219 0004 00AF     		add	r7, sp, #0
 1220              		.cfi_def_cfa_register 7
 1221 0006 7860     		str	r0, [r7, #4]
 1222 0008 0B46     		mov	r3, r1
 1223 000a 7B80     		strh	r3, [r7, #2]	@ movhi
 1224 000c 1346     		mov	r3, r2	@ movhi
 1225 000e 3B80     		strh	r3, [r7]	@ movhi
 318:u8glib_arm_v1.18.1\src/u8g_polygon.c ****   pg_AddPolygonXY(&u8g_pg, u8g, x, y);
 1226              		.loc 1 318 0
 1227 0010 B7F90220 		ldrsh	r2, [r7, #2]
 1228 0014 B7F90030 		ldrsh	r3, [r7]
 1229 0018 0348     		ldr	r0, .L60
 1230 001a 7968     		ldr	r1, [r7, #4]
 1231 001c FFF7FEFF 		bl	pg_AddPolygonXY
 319:u8glib_arm_v1.18.1\src/u8g_polygon.c **** }
 1232              		.loc 1 319 0
 1233 0020 0837     		adds	r7, r7, #8
 1234              		.cfi_def_cfa_offset 8
 1235 0022 BD46     		mov	sp, r7
 1236              		.cfi_def_cfa_register 13
 1237              		@ sp needed
 1238 0024 80BD     		pop	{r7, pc}
 1239              	.L61:
 1240 0026 00BF     		.align	2
 1241              	.L60:
 1242 0028 00000000 		.word	u8g_pg
 1243              		.cfi_endproc
 1244              	.LFE13:
 1245              		.size	u8g_AddPolygonXY, .-u8g_AddPolygonXY
 1246              		.section	.text.u8g_DrawPolygon,"ax",%progbits
 1247              		.align	2
 1248              		.global	u8g_DrawPolygon
 1249              		.thumb
 1250              		.thumb_func
 1251              		.type	u8g_DrawPolygon, %function
 1252              	u8g_DrawPolygon:
 1253              	.LFB14:
 320:u8glib_arm_v1.18.1\src/u8g_polygon.c **** 
 321:u8glib_arm_v1.18.1\src/u8g_polygon.c **** void u8g_DrawPolygon(u8g_t *u8g)
 322:u8glib_arm_v1.18.1\src/u8g_polygon.c **** {
 1254              		.loc 1 322 0
 1255              		.cfi_startproc
 1256              		@ args = 0, pretend = 0, frame = 8
 1257              		@ frame_needed = 1, uses_anonymous_args = 0
 1258 0000 80B5     		push	{r7, lr}
 1259              		.cfi_def_cfa_offset 8
 1260              		.cfi_offset 7, -8
 1261              		.cfi_offset 14, -4
 1262 0002 82B0     		sub	sp, sp, #8
 1263              		.cfi_def_cfa_offset 16
 1264 0004 00AF     		add	r7, sp, #0
 1265              		.cfi_def_cfa_register 7
 1266 0006 7860     		str	r0, [r7, #4]
 323:u8glib_arm_v1.18.1\src/u8g_polygon.c ****   pg_DrawPolygon(&u8g_pg, u8g);
 1267              		.loc 1 323 0
 1268 0008 0348     		ldr	r0, .L63
 1269 000a 7968     		ldr	r1, [r7, #4]
ARM GAS  C:\Users\KJA\AppData\Local\Temp\ccmudFrT.s 			page 29


 1270 000c FFF7FEFF 		bl	pg_DrawPolygon
 324:u8glib_arm_v1.18.1\src/u8g_polygon.c **** }
 1271              		.loc 1 324 0
 1272 0010 0837     		adds	r7, r7, #8
 1273              		.cfi_def_cfa_offset 8
 1274 0012 BD46     		mov	sp, r7
 1275              		.cfi_def_cfa_register 13
 1276              		@ sp needed
 1277 0014 80BD     		pop	{r7, pc}
 1278              	.L64:
 1279 0016 00BF     		.align	2
 1280              	.L63:
 1281 0018 00000000 		.word	u8g_pg
 1282              		.cfi_endproc
 1283              	.LFE14:
 1284              		.size	u8g_DrawPolygon, .-u8g_DrawPolygon
 1285              		.section	.text.u8g_DrawTriangle,"ax",%progbits
 1286              		.align	2
 1287              		.global	u8g_DrawTriangle
 1288              		.thumb
 1289              		.thumb_func
 1290              		.type	u8g_DrawTriangle, %function
 1291              	u8g_DrawTriangle:
 1292              	.LFB15:
 325:u8glib_arm_v1.18.1\src/u8g_polygon.c **** 
 326:u8glib_arm_v1.18.1\src/u8g_polygon.c **** void u8g_DrawTriangle(u8g_t *u8g, int16_t x0, int16_t y0, int16_t x1, int16_t y1, int16_t x2, int16
 327:u8glib_arm_v1.18.1\src/u8g_polygon.c **** {
 1293              		.loc 1 327 0
 1294              		.cfi_startproc
 1295              		@ args = 12, pretend = 0, frame = 16
 1296              		@ frame_needed = 1, uses_anonymous_args = 0
 1297 0000 80B5     		push	{r7, lr}
 1298              		.cfi_def_cfa_offset 8
 1299              		.cfi_offset 7, -8
 1300              		.cfi_offset 14, -4
 1301 0002 84B0     		sub	sp, sp, #16
 1302              		.cfi_def_cfa_offset 24
 1303 0004 00AF     		add	r7, sp, #0
 1304              		.cfi_def_cfa_register 7
 1305 0006 F860     		str	r0, [r7, #12]
 1306 0008 0846     		mov	r0, r1
 1307 000a 1146     		mov	r1, r2
 1308 000c 1A46     		mov	r2, r3
 1309 000e 0346     		mov	r3, r0	@ movhi
 1310 0010 7B81     		strh	r3, [r7, #10]	@ movhi
 1311 0012 0B46     		mov	r3, r1	@ movhi
 1312 0014 3B81     		strh	r3, [r7, #8]	@ movhi
 1313 0016 1346     		mov	r3, r2	@ movhi
 1314 0018 FB80     		strh	r3, [r7, #6]	@ movhi
 328:u8glib_arm_v1.18.1\src/u8g_polygon.c ****   u8g_ClearPolygonXY();
 1315              		.loc 1 328 0
 1316 001a FFF7FEFF 		bl	u8g_ClearPolygonXY
 329:u8glib_arm_v1.18.1\src/u8g_polygon.c ****   u8g_AddPolygonXY(u8g, x0, y0);
 1317              		.loc 1 329 0
 1318 001e B7F90A20 		ldrsh	r2, [r7, #10]
 1319 0022 B7F90830 		ldrsh	r3, [r7, #8]
 1320 0026 F868     		ldr	r0, [r7, #12]
ARM GAS  C:\Users\KJA\AppData\Local\Temp\ccmudFrT.s 			page 30


 1321 0028 1146     		mov	r1, r2
 1322 002a 1A46     		mov	r2, r3
 1323 002c FFF7FEFF 		bl	u8g_AddPolygonXY
 330:u8glib_arm_v1.18.1\src/u8g_polygon.c ****   u8g_AddPolygonXY(u8g, x1, y1);
 1324              		.loc 1 330 0
 1325 0030 B7F90620 		ldrsh	r2, [r7, #6]
 1326 0034 B7F91830 		ldrsh	r3, [r7, #24]
 1327 0038 F868     		ldr	r0, [r7, #12]
 1328 003a 1146     		mov	r1, r2
 1329 003c 1A46     		mov	r2, r3
 1330 003e FFF7FEFF 		bl	u8g_AddPolygonXY
 331:u8glib_arm_v1.18.1\src/u8g_polygon.c ****   u8g_AddPolygonXY(u8g, x2, y2);
 1331              		.loc 1 331 0
 1332 0042 B7F91C20 		ldrsh	r2, [r7, #28]
 1333 0046 B7F92030 		ldrsh	r3, [r7, #32]
 1334 004a F868     		ldr	r0, [r7, #12]
 1335 004c 1146     		mov	r1, r2
 1336 004e 1A46     		mov	r2, r3
 1337 0050 FFF7FEFF 		bl	u8g_AddPolygonXY
 332:u8glib_arm_v1.18.1\src/u8g_polygon.c ****   u8g_DrawPolygon(u8g);
 1338              		.loc 1 332 0
 1339 0054 F868     		ldr	r0, [r7, #12]
 1340 0056 FFF7FEFF 		bl	u8g_DrawPolygon
 333:u8glib_arm_v1.18.1\src/u8g_polygon.c **** }
 1341              		.loc 1 333 0
 1342 005a 1037     		adds	r7, r7, #16
 1343              		.cfi_def_cfa_offset 8
 1344 005c BD46     		mov	sp, r7
 1345              		.cfi_def_cfa_register 13
 1346              		@ sp needed
 1347 005e 80BD     		pop	{r7, pc}
 1348              		.cfi_endproc
 1349              	.LFE15:
 1350              		.size	u8g_DrawTriangle, .-u8g_DrawTriangle
 1351              		.text
 1352              	.Letext0:
 1353              		.file 2 "c:\\program files (x86)\\cypress\\psoc creator\\4.0\\psoc creator\\import\\gnu\\arm\\4.9.
 1354              		.file 3 "c:\\program files (x86)\\cypress\\psoc creator\\4.0\\psoc creator\\import\\gnu\\arm\\4.9.
 1355              		.file 4 "u8glib_arm_v1.18.1\\src\\u8g.h"