ARM GAS  C:\Users\Shiguruy\AppData\Local\Temp\cc9YyIHW.s 			page 1


   1              		.syntax unified
   2              		.cpu cortex-m3
   3              		.fpu softvfp
   4              		.eabi_attribute 20, 1
   5              		.eabi_attribute 21, 1
   6              		.eabi_attribute 23, 3
   7              		.eabi_attribute 24, 1
   8              		.eabi_attribute 25, 1
   9              		.eabi_attribute 26, 1
  10              		.eabi_attribute 30, 6
  11              		.eabi_attribute 34, 1
  12              		.eabi_attribute 18, 4
  13              		.thumb
  14              		.file	"u8g_dev_uc1701_mini12864.c"
  15              		.text
  16              	.Ltext0:
  17              		.cfi_sections	.debug_frame
  18              		.section	.rodata
  19              		.align	2
  20              		.type	u8g_dev_uc1701_mini12864_init_seq, %object
  21              		.size	u8g_dev_uc1701_mini12864_init_seq, 35
  22              	u8g_dev_uc1701_mini12864_init_seq:
  23 0000 FF       		.byte	-1
  24 0001 D0       		.byte	-48
  25 0002 FF       		.byte	-1
  26 0003 E0       		.byte	-32
  27 0004 FF       		.byte	-1
  28 0005 C1       		.byte	-63
  29 0006 FF       		.byte	-1
  30 0007 D1       		.byte	-47
  31 0008 E2       		.byte	-30
  32 0009 40       		.byte	64
  33 000a A0       		.byte	-96
  34 000b C8       		.byte	-56
  35 000c A6       		.byte	-90
  36 000d A2       		.byte	-94
  37 000e 2F       		.byte	47
  38 000f F8       		.byte	-8
  39 0010 00       		.byte	0
  40 0011 23       		.byte	35
  41 0012 81       		.byte	-127
  42 0013 27       		.byte	39
  43 0014 AC       		.byte	-84
  44 0015 00       		.byte	0
  45 0016 AF       		.byte	-81
  46 0017 FF       		.byte	-1
  47 0018 64       		.byte	100
  48 0019 A5       		.byte	-91
  49 001a FF       		.byte	-1
  50 001b 64       		.byte	100
  51 001c FF       		.byte	-1
  52 001d 64       		.byte	100
  53 001e A4       		.byte	-92
  54 001f FF       		.byte	-1
  55 0020 D0       		.byte	-48
  56 0021 FF       		.byte	-1
  57 0022 FE       		.byte	-2
ARM GAS  C:\Users\Shiguruy\AppData\Local\Temp\cc9YyIHW.s 			page 2


  58 0023 00       		.align	2
  59              		.type	u8g_dev_uc1701_mini12864_data_start, %object
  60              		.size	u8g_dev_uc1701_mini12864_data_start, 8
  61              	u8g_dev_uc1701_mini12864_data_start:
  62 0024 FF       		.byte	-1
  63 0025 E0       		.byte	-32
  64 0026 FF       		.byte	-1
  65 0027 D1       		.byte	-47
  66 0028 10       		.byte	16
  67 0029 00       		.byte	0
  68 002a FF       		.byte	-1
  69 002b FE       		.byte	-2
  70              		.section	.text.u8g_dev_uc1701_mini12864_fn,"ax",%progbits
  71              		.align	2
  72              		.global	u8g_dev_uc1701_mini12864_fn
  73              		.thumb
  74              		.thumb_func
  75              		.type	u8g_dev_uc1701_mini12864_fn, %function
  76              	u8g_dev_uc1701_mini12864_fn:
  77              	.LFB0:
  78              		.file 1 ".\\u8glib_arm_v1.18.1\\src\\u8g_dev_uc1701_mini12864.c"
   1:.\u8glib_arm_v1.18.1\src/u8g_dev_uc1701_mini12864.c **** /*
   2:.\u8glib_arm_v1.18.1\src/u8g_dev_uc1701_mini12864.c **** 
   3:.\u8glib_arm_v1.18.1\src/u8g_dev_uc1701_mini12864.c ****   u8g_dev_uc1701_mini12864.c (dealextreme)
   4:.\u8glib_arm_v1.18.1\src/u8g_dev_uc1701_mini12864.c **** 
   5:.\u8glib_arm_v1.18.1\src/u8g_dev_uc1701_mini12864.c ****   Universal 8bit Graphics Library
   6:.\u8glib_arm_v1.18.1\src/u8g_dev_uc1701_mini12864.c ****   
   7:.\u8glib_arm_v1.18.1\src/u8g_dev_uc1701_mini12864.c ****   Copyright (c) 2011, olikraus@gmail.com
   8:.\u8glib_arm_v1.18.1\src/u8g_dev_uc1701_mini12864.c ****   All rights reserved.
   9:.\u8glib_arm_v1.18.1\src/u8g_dev_uc1701_mini12864.c **** 
  10:.\u8glib_arm_v1.18.1\src/u8g_dev_uc1701_mini12864.c ****   Redistribution and use in source and binary forms, with or without modification, 
  11:.\u8glib_arm_v1.18.1\src/u8g_dev_uc1701_mini12864.c ****   are permitted provided that the following conditions are met:
  12:.\u8glib_arm_v1.18.1\src/u8g_dev_uc1701_mini12864.c **** 
  13:.\u8glib_arm_v1.18.1\src/u8g_dev_uc1701_mini12864.c ****   * Redistributions of source code must retain the above copyright notice, this list 
  14:.\u8glib_arm_v1.18.1\src/u8g_dev_uc1701_mini12864.c ****     of conditions and the following disclaimer.
  15:.\u8glib_arm_v1.18.1\src/u8g_dev_uc1701_mini12864.c ****     
  16:.\u8glib_arm_v1.18.1\src/u8g_dev_uc1701_mini12864.c ****   * Redistributions in binary form must reproduce the above copyright notice, this 
  17:.\u8glib_arm_v1.18.1\src/u8g_dev_uc1701_mini12864.c ****     list of conditions and the following disclaimer in the documentation and/or other 
  18:.\u8glib_arm_v1.18.1\src/u8g_dev_uc1701_mini12864.c ****     materials provided with the distribution.
  19:.\u8glib_arm_v1.18.1\src/u8g_dev_uc1701_mini12864.c **** 
  20:.\u8glib_arm_v1.18.1\src/u8g_dev_uc1701_mini12864.c ****   THIS SOFTWARE IS PROVIDED BY THE COPYRIGHT HOLDERS AND 
  21:.\u8glib_arm_v1.18.1\src/u8g_dev_uc1701_mini12864.c ****   CONTRIBUTORS "AS IS" AND ANY EXPRESS OR IMPLIED WARRANTIES, 
  22:.\u8glib_arm_v1.18.1\src/u8g_dev_uc1701_mini12864.c ****   INCLUDING, BUT NOT LIMITED TO, THE IMPLIED WARRANTIES OF 
  23:.\u8glib_arm_v1.18.1\src/u8g_dev_uc1701_mini12864.c ****   MERCHANTABILITY AND FITNESS FOR A PARTICULAR PURPOSE ARE 
  24:.\u8glib_arm_v1.18.1\src/u8g_dev_uc1701_mini12864.c ****   DISCLAIMED. IN NO EVENT SHALL THE COPYRIGHT HOLDER OR 
  25:.\u8glib_arm_v1.18.1\src/u8g_dev_uc1701_mini12864.c ****   CONTRIBUTORS BE LIABLE FOR ANY DIRECT, INDIRECT, INCIDENTAL, 
  26:.\u8glib_arm_v1.18.1\src/u8g_dev_uc1701_mini12864.c ****   SPECIAL, EXEMPLARY, OR CONSEQUENTIAL DAMAGES (INCLUDING, BUT 
  27:.\u8glib_arm_v1.18.1\src/u8g_dev_uc1701_mini12864.c ****   NOT LIMITED TO, PROCUREMENT OF SUBSTITUTE GOODS OR SERVICES; 
  28:.\u8glib_arm_v1.18.1\src/u8g_dev_uc1701_mini12864.c ****   LOSS OF USE, DATA, OR PROFITS; OR BUSINESS INTERRUPTION) HOWEVER 
  29:.\u8glib_arm_v1.18.1\src/u8g_dev_uc1701_mini12864.c ****   CAUSED AND ON ANY THEORY OF LIABILITY, WHETHER IN CONTRACT, 
  30:.\u8glib_arm_v1.18.1\src/u8g_dev_uc1701_mini12864.c ****   STRICT LIABILITY, OR TORT (INCLUDING NEGLIGENCE OR OTHERWISE) 
  31:.\u8glib_arm_v1.18.1\src/u8g_dev_uc1701_mini12864.c ****   ARISING IN ANY WAY OUT OF THE USE OF THIS SOFTWARE, EVEN IF 
  32:.\u8glib_arm_v1.18.1\src/u8g_dev_uc1701_mini12864.c ****   ADVISED OF THE POSSIBILITY OF SUCH DAMAGE.  
  33:.\u8glib_arm_v1.18.1\src/u8g_dev_uc1701_mini12864.c ****   
  34:.\u8glib_arm_v1.18.1\src/u8g_dev_uc1701_mini12864.c ****   
  35:.\u8glib_arm_v1.18.1\src/u8g_dev_uc1701_mini12864.c **** */
  36:.\u8glib_arm_v1.18.1\src/u8g_dev_uc1701_mini12864.c **** 
ARM GAS  C:\Users\Shiguruy\AppData\Local\Temp\cc9YyIHW.s 			page 3


  37:.\u8glib_arm_v1.18.1\src/u8g_dev_uc1701_mini12864.c **** #include "u8g.h"
  38:.\u8glib_arm_v1.18.1\src/u8g_dev_uc1701_mini12864.c **** 
  39:.\u8glib_arm_v1.18.1\src/u8g_dev_uc1701_mini12864.c **** #define WIDTH 128
  40:.\u8glib_arm_v1.18.1\src/u8g_dev_uc1701_mini12864.c **** #define HEIGHT 64
  41:.\u8glib_arm_v1.18.1\src/u8g_dev_uc1701_mini12864.c **** #define PAGE_HEIGHT 8
  42:.\u8glib_arm_v1.18.1\src/u8g_dev_uc1701_mini12864.c **** 
  43:.\u8glib_arm_v1.18.1\src/u8g_dev_uc1701_mini12864.c **** static const uint8_t u8g_dev_uc1701_mini12864_init_seq[] PROGMEM = {
  44:.\u8glib_arm_v1.18.1\src/u8g_dev_uc1701_mini12864.c ****   U8G_ESC_CS(0),             /* disable chip */
  45:.\u8glib_arm_v1.18.1\src/u8g_dev_uc1701_mini12864.c ****   U8G_ESC_ADR(0),           /* instruction mode */
  46:.\u8glib_arm_v1.18.1\src/u8g_dev_uc1701_mini12864.c ****   U8G_ESC_RST(1),           /* do reset low pulse with (1*16)+2 milliseconds */
  47:.\u8glib_arm_v1.18.1\src/u8g_dev_uc1701_mini12864.c ****   U8G_ESC_CS(1),             /* enable chip */
  48:.\u8glib_arm_v1.18.1\src/u8g_dev_uc1701_mini12864.c **** 
  49:.\u8glib_arm_v1.18.1\src/u8g_dev_uc1701_mini12864.c ****   0x0e2,            /* soft reset */
  50:.\u8glib_arm_v1.18.1\src/u8g_dev_uc1701_mini12864.c ****   0x040,		/* set display start line to 0 */
  51:.\u8glib_arm_v1.18.1\src/u8g_dev_uc1701_mini12864.c ****   0x0a0,		/* ADC set to reverse */
  52:.\u8glib_arm_v1.18.1\src/u8g_dev_uc1701_mini12864.c ****   0x0c8,		/* common output mode */
  53:.\u8glib_arm_v1.18.1\src/u8g_dev_uc1701_mini12864.c ****   0x0a6,		/* display normal, bit val 0: LCD pixel off. */
  54:.\u8glib_arm_v1.18.1\src/u8g_dev_uc1701_mini12864.c ****   0x0a2,		/* LCD bias 1/9 */
  55:.\u8glib_arm_v1.18.1\src/u8g_dev_uc1701_mini12864.c ****   0x02f,		/* all power  control circuits on */
  56:.\u8glib_arm_v1.18.1\src/u8g_dev_uc1701_mini12864.c ****   0x0f8,		/* set booster ratio to */
  57:.\u8glib_arm_v1.18.1\src/u8g_dev_uc1701_mini12864.c ****   0x000,		/* 4x */
  58:.\u8glib_arm_v1.18.1\src/u8g_dev_uc1701_mini12864.c ****   0x023,		/* set V0 voltage resistor ratio to large */
  59:.\u8glib_arm_v1.18.1\src/u8g_dev_uc1701_mini12864.c ****   0x081,		/* set contrast */
  60:.\u8glib_arm_v1.18.1\src/u8g_dev_uc1701_mini12864.c ****   0x027,		/* contrast value */
  61:.\u8glib_arm_v1.18.1\src/u8g_dev_uc1701_mini12864.c ****   0x0ac,		/* indicator */
  62:.\u8glib_arm_v1.18.1\src/u8g_dev_uc1701_mini12864.c ****   0x000,		/* disable */
  63:.\u8glib_arm_v1.18.1\src/u8g_dev_uc1701_mini12864.c ****   0x0af,		/* display on */
  64:.\u8glib_arm_v1.18.1\src/u8g_dev_uc1701_mini12864.c **** 
  65:.\u8glib_arm_v1.18.1\src/u8g_dev_uc1701_mini12864.c ****   U8G_ESC_DLY(100),       /* delay 100 ms */
  66:.\u8glib_arm_v1.18.1\src/u8g_dev_uc1701_mini12864.c ****   0x0a5,		                /* display all points, ST7565 */
  67:.\u8glib_arm_v1.18.1\src/u8g_dev_uc1701_mini12864.c ****   U8G_ESC_DLY(100),       /* delay 100 ms */
  68:.\u8glib_arm_v1.18.1\src/u8g_dev_uc1701_mini12864.c ****   U8G_ESC_DLY(100),       /* delay 100 ms */
  69:.\u8glib_arm_v1.18.1\src/u8g_dev_uc1701_mini12864.c ****   0x0a4,		                /* normal display */
  70:.\u8glib_arm_v1.18.1\src/u8g_dev_uc1701_mini12864.c ****   U8G_ESC_CS(0),             /* disable chip */
  71:.\u8glib_arm_v1.18.1\src/u8g_dev_uc1701_mini12864.c ****   U8G_ESC_END                /* end of sequence */
  72:.\u8glib_arm_v1.18.1\src/u8g_dev_uc1701_mini12864.c **** };
  73:.\u8glib_arm_v1.18.1\src/u8g_dev_uc1701_mini12864.c **** 
  74:.\u8glib_arm_v1.18.1\src/u8g_dev_uc1701_mini12864.c **** static const uint8_t u8g_dev_uc1701_mini12864_data_start[] PROGMEM = {
  75:.\u8glib_arm_v1.18.1\src/u8g_dev_uc1701_mini12864.c ****   U8G_ESC_ADR(0),           /* instruction mode */
  76:.\u8glib_arm_v1.18.1\src/u8g_dev_uc1701_mini12864.c ****   U8G_ESC_CS(1),             /* enable chip */
  77:.\u8glib_arm_v1.18.1\src/u8g_dev_uc1701_mini12864.c ****   0x010,		/* set upper 4 bit of the col adr to 0 */
  78:.\u8glib_arm_v1.18.1\src/u8g_dev_uc1701_mini12864.c ****   0x000,		/* set lower 4 bit of the col adr to 4  */
  79:.\u8glib_arm_v1.18.1\src/u8g_dev_uc1701_mini12864.c ****   U8G_ESC_END                /* end of sequence */
  80:.\u8glib_arm_v1.18.1\src/u8g_dev_uc1701_mini12864.c **** };
  81:.\u8glib_arm_v1.18.1\src/u8g_dev_uc1701_mini12864.c **** 
  82:.\u8glib_arm_v1.18.1\src/u8g_dev_uc1701_mini12864.c **** uint8_t u8g_dev_uc1701_mini12864_fn(u8g_t *u8g, u8g_dev_t *dev, uint8_t msg, void *arg)
  83:.\u8glib_arm_v1.18.1\src/u8g_dev_uc1701_mini12864.c **** {
  79              		.loc 1 83 0
  80              		.cfi_startproc
  81              		@ args = 0, pretend = 0, frame = 24
  82              		@ frame_needed = 1, uses_anonymous_args = 0
  83 0000 80B5     		push	{r7, lr}
  84              		.cfi_def_cfa_offset 8
  85              		.cfi_offset 7, -8
  86              		.cfi_offset 14, -4
  87 0002 86B0     		sub	sp, sp, #24
  88              		.cfi_def_cfa_offset 32
ARM GAS  C:\Users\Shiguruy\AppData\Local\Temp\cc9YyIHW.s 			page 4


  89 0004 00AF     		add	r7, sp, #0
  90              		.cfi_def_cfa_register 7
  91 0006 F860     		str	r0, [r7, #12]
  92 0008 B960     		str	r1, [r7, #8]
  93 000a 3B60     		str	r3, [r7]
  94 000c 1346     		mov	r3, r2
  95 000e FB71     		strb	r3, [r7, #7]
  84:.\u8glib_arm_v1.18.1\src/u8g_dev_uc1701_mini12864.c ****   switch(msg)
  96              		.loc 1 84 0
  97 0010 FB79     		ldrb	r3, [r7, #7]	@ zero_extendqisi2
  98 0012 0A3B     		subs	r3, r3, #10
  99 0014 0B2B     		cmp	r3, #11
 100 0016 6CD8     		bhi	.L2
 101 0018 01A2     		adr	r2, .L4
 102 001a 52F823F0 		ldr	pc, [r2, r3, lsl #2]
 103 001e 00BF     		.p2align 2
 104              	.L4:
 105 0020 51000000 		.word	.L3+1
 106 0024 F3000000 		.word	.L2+1
 107 0028 F3000000 		.word	.L2+1
 108 002c F3000000 		.word	.L2+1
 109 0030 F3000000 		.word	.L2+1
 110 0034 B5000000 		.word	.L6+1
 111 0038 F3000000 		.word	.L2+1
 112 003c F3000000 		.word	.L2+1
 113 0040 F3000000 		.word	.L2+1
 114 0044 F3000000 		.word	.L2+1
 115 0048 F3000000 		.word	.L2+1
 116 004c 67000000 		.word	.L7+1
 117              		.p2align 1
 118              	.L3:
  85:.\u8glib_arm_v1.18.1\src/u8g_dev_uc1701_mini12864.c ****   {
  86:.\u8glib_arm_v1.18.1\src/u8g_dev_uc1701_mini12864.c ****     case U8G_DEV_MSG_INIT:
  87:.\u8glib_arm_v1.18.1\src/u8g_dev_uc1701_mini12864.c ****       u8g_InitCom(u8g, dev, U8G_SPI_CLK_CYCLE_300NS);
 119              		.loc 1 87 0
 120 0050 F868     		ldr	r0, [r7, #12]
 121 0052 B968     		ldr	r1, [r7, #8]
 122 0054 0222     		movs	r2, #2
 123 0056 FFF7FEFF 		bl	u8g_InitCom
  88:.\u8glib_arm_v1.18.1\src/u8g_dev_uc1701_mini12864.c ****       u8g_WriteEscSeqP(u8g, dev, u8g_dev_uc1701_mini12864_init_seq);
 124              		.loc 1 88 0
 125 005a F868     		ldr	r0, [r7, #12]
 126 005c B968     		ldr	r1, [r7, #8]
 127 005e 2B4A     		ldr	r2, .L10
 128 0060 FFF7FEFF 		bl	u8g_WriteEscSeqP
  89:.\u8glib_arm_v1.18.1\src/u8g_dev_uc1701_mini12864.c ****       break;
 129              		.loc 1 89 0
 130 0064 45E0     		b	.L2
 131              	.L7:
 132              	.LBB2:
  90:.\u8glib_arm_v1.18.1\src/u8g_dev_uc1701_mini12864.c ****     case U8G_DEV_MSG_STOP:
  91:.\u8glib_arm_v1.18.1\src/u8g_dev_uc1701_mini12864.c ****       break;
  92:.\u8glib_arm_v1.18.1\src/u8g_dev_uc1701_mini12864.c ****     case U8G_DEV_MSG_PAGE_NEXT:
  93:.\u8glib_arm_v1.18.1\src/u8g_dev_uc1701_mini12864.c ****       {
  94:.\u8glib_arm_v1.18.1\src/u8g_dev_uc1701_mini12864.c ****         u8g_pb_t *pb = (u8g_pb_t *)(dev->dev_mem);
 133              		.loc 1 94 0
 134 0066 BB68     		ldr	r3, [r7, #8]
ARM GAS  C:\Users\Shiguruy\AppData\Local\Temp\cc9YyIHW.s 			page 5


 135 0068 5B68     		ldr	r3, [r3, #4]
 136 006a 7B61     		str	r3, [r7, #20]
  95:.\u8glib_arm_v1.18.1\src/u8g_dev_uc1701_mini12864.c ****         u8g_WriteEscSeqP(u8g, dev, u8g_dev_uc1701_mini12864_data_start);    
 137              		.loc 1 95 0
 138 006c F868     		ldr	r0, [r7, #12]
 139 006e B968     		ldr	r1, [r7, #8]
 140 0070 274A     		ldr	r2, .L10+4
 141 0072 FFF7FEFF 		bl	u8g_WriteEscSeqP
  96:.\u8glib_arm_v1.18.1\src/u8g_dev_uc1701_mini12864.c ****         u8g_WriteByte(u8g, dev, 0x0b0 | pb->p.page); /* select current page */
 142              		.loc 1 96 0
 143 0076 7B69     		ldr	r3, [r7, #20]
 144 0078 1B79     		ldrb	r3, [r3, #4]	@ zero_extendqisi2
 145 007a 63F04F03 		orn	r3, r3, #79
 146 007e DBB2     		uxtb	r3, r3
 147 0080 F868     		ldr	r0, [r7, #12]
 148 0082 B968     		ldr	r1, [r7, #8]
 149 0084 1A46     		mov	r2, r3
 150 0086 FFF7FEFF 		bl	u8g_WriteByte
  97:.\u8glib_arm_v1.18.1\src/u8g_dev_uc1701_mini12864.c ****         u8g_SetAddress(u8g, dev, 1);           /* data mode */
 151              		.loc 1 97 0
 152 008a F868     		ldr	r0, [r7, #12]
 153 008c B968     		ldr	r1, [r7, #8]
 154 008e 0122     		movs	r2, #1
 155 0090 FFF7FEFF 		bl	u8g_SetAddress
  98:.\u8glib_arm_v1.18.1\src/u8g_dev_uc1701_mini12864.c ****         if ( u8g_pb_WriteBuffer(pb, u8g, dev) == 0 )
 156              		.loc 1 98 0
 157 0094 7869     		ldr	r0, [r7, #20]
 158 0096 F968     		ldr	r1, [r7, #12]
 159 0098 BA68     		ldr	r2, [r7, #8]
 160 009a FFF7FEFF 		bl	u8g_pb_WriteBuffer
 161 009e 0346     		mov	r3, r0
 162 00a0 002B     		cmp	r3, #0
 163 00a2 01D1     		bne	.L8
  99:.\u8glib_arm_v1.18.1\src/u8g_dev_uc1701_mini12864.c ****           return 0;
 164              		.loc 1 99 0
 165 00a4 0023     		movs	r3, #0
 166 00a6 2CE0     		b	.L9
 167              	.L8:
 100:.\u8glib_arm_v1.18.1\src/u8g_dev_uc1701_mini12864.c ****         u8g_SetChipSelect(u8g, dev, 0);
 168              		.loc 1 100 0
 169 00a8 F868     		ldr	r0, [r7, #12]
 170 00aa B968     		ldr	r1, [r7, #8]
 171 00ac 0022     		movs	r2, #0
 172 00ae FFF7FEFF 		bl	u8g_SetChipSelect
 173              	.LBE2:
 101:.\u8glib_arm_v1.18.1\src/u8g_dev_uc1701_mini12864.c ****       }
 102:.\u8glib_arm_v1.18.1\src/u8g_dev_uc1701_mini12864.c ****       break;
 174              		.loc 1 102 0
 175 00b2 1EE0     		b	.L2
 176              	.L6:
 103:.\u8glib_arm_v1.18.1\src/u8g_dev_uc1701_mini12864.c ****     case U8G_DEV_MSG_CONTRAST:
 104:.\u8glib_arm_v1.18.1\src/u8g_dev_uc1701_mini12864.c ****       u8g_SetChipSelect(u8g, dev, 1);
 177              		.loc 1 104 0
 178 00b4 F868     		ldr	r0, [r7, #12]
 179 00b6 B968     		ldr	r1, [r7, #8]
 180 00b8 0122     		movs	r2, #1
 181 00ba FFF7FEFF 		bl	u8g_SetChipSelect
ARM GAS  C:\Users\Shiguruy\AppData\Local\Temp\cc9YyIHW.s 			page 6


 105:.\u8glib_arm_v1.18.1\src/u8g_dev_uc1701_mini12864.c ****       u8g_SetAddress(u8g, dev, 0);          /* instruction mode */
 182              		.loc 1 105 0
 183 00be F868     		ldr	r0, [r7, #12]
 184 00c0 B968     		ldr	r1, [r7, #8]
 185 00c2 0022     		movs	r2, #0
 186 00c4 FFF7FEFF 		bl	u8g_SetAddress
 106:.\u8glib_arm_v1.18.1\src/u8g_dev_uc1701_mini12864.c ****       u8g_WriteByte(u8g, dev, 0x081);
 187              		.loc 1 106 0
 188 00c8 F868     		ldr	r0, [r7, #12]
 189 00ca B968     		ldr	r1, [r7, #8]
 190 00cc 8122     		movs	r2, #129
 191 00ce FFF7FEFF 		bl	u8g_WriteByte
 107:.\u8glib_arm_v1.18.1\src/u8g_dev_uc1701_mini12864.c ****       u8g_WriteByte(u8g, dev, (*(uint8_t *)arg) >> 2);
 192              		.loc 1 107 0
 193 00d2 3B68     		ldr	r3, [r7]
 194 00d4 1B78     		ldrb	r3, [r3]	@ zero_extendqisi2
 195 00d6 9B08     		lsrs	r3, r3, #2
 196 00d8 DBB2     		uxtb	r3, r3
 197 00da F868     		ldr	r0, [r7, #12]
 198 00dc B968     		ldr	r1, [r7, #8]
 199 00de 1A46     		mov	r2, r3
 200 00e0 FFF7FEFF 		bl	u8g_WriteByte
 108:.\u8glib_arm_v1.18.1\src/u8g_dev_uc1701_mini12864.c ****       u8g_SetChipSelect(u8g, dev, 0);      
 201              		.loc 1 108 0
 202 00e4 F868     		ldr	r0, [r7, #12]
 203 00e6 B968     		ldr	r1, [r7, #8]
 204 00e8 0022     		movs	r2, #0
 205 00ea FFF7FEFF 		bl	u8g_SetChipSelect
 109:.\u8glib_arm_v1.18.1\src/u8g_dev_uc1701_mini12864.c ****       return 1;
 206              		.loc 1 109 0
 207 00ee 0123     		movs	r3, #1
 208 00f0 07E0     		b	.L9
 209              	.L2:
 110:.\u8glib_arm_v1.18.1\src/u8g_dev_uc1701_mini12864.c ****   }
 111:.\u8glib_arm_v1.18.1\src/u8g_dev_uc1701_mini12864.c ****   return u8g_dev_pb8v1_base_fn(u8g, dev, msg, arg);
 210              		.loc 1 111 0
 211 00f2 FB79     		ldrb	r3, [r7, #7]	@ zero_extendqisi2
 212 00f4 F868     		ldr	r0, [r7, #12]
 213 00f6 B968     		ldr	r1, [r7, #8]
 214 00f8 1A46     		mov	r2, r3
 215 00fa 3B68     		ldr	r3, [r7]
 216 00fc FFF7FEFF 		bl	u8g_dev_pb8v1_base_fn
 217 0100 0346     		mov	r3, r0
 218              	.L9:
 112:.\u8glib_arm_v1.18.1\src/u8g_dev_uc1701_mini12864.c **** }
 219              		.loc 1 112 0
 220 0102 1846     		mov	r0, r3
 221 0104 1837     		adds	r7, r7, #24
 222              		.cfi_def_cfa_offset 8
 223 0106 BD46     		mov	sp, r7
 224              		.cfi_def_cfa_register 13
 225              		@ sp needed
 226 0108 80BD     		pop	{r7, pc}
 227              	.L11:
 228 010a 00BF     		.align	2
 229              	.L10:
 230 010c 00000000 		.word	u8g_dev_uc1701_mini12864_init_seq
ARM GAS  C:\Users\Shiguruy\AppData\Local\Temp\cc9YyIHW.s 			page 7


 231 0110 24000000 		.word	u8g_dev_uc1701_mini12864_data_start
 232              		.cfi_endproc
 233              	.LFE0:
 234              		.size	u8g_dev_uc1701_mini12864_fn, .-u8g_dev_uc1701_mini12864_fn
 235              		.section	.text.u8g_dev_uc1701_mini12864_2x_fn,"ax",%progbits
 236              		.align	2
 237              		.global	u8g_dev_uc1701_mini12864_2x_fn
 238              		.thumb
 239              		.thumb_func
 240              		.type	u8g_dev_uc1701_mini12864_2x_fn, %function
 241              	u8g_dev_uc1701_mini12864_2x_fn:
 242              	.LFB1:
 113:.\u8glib_arm_v1.18.1\src/u8g_dev_uc1701_mini12864.c **** 
 114:.\u8glib_arm_v1.18.1\src/u8g_dev_uc1701_mini12864.c **** uint8_t u8g_dev_uc1701_mini12864_2x_fn(u8g_t *u8g, u8g_dev_t *dev, uint8_t msg, void *arg)
 115:.\u8glib_arm_v1.18.1\src/u8g_dev_uc1701_mini12864.c **** {
 243              		.loc 1 115 0
 244              		.cfi_startproc
 245              		@ args = 0, pretend = 0, frame = 24
 246              		@ frame_needed = 1, uses_anonymous_args = 0
 247 0000 90B5     		push	{r4, r7, lr}
 248              		.cfi_def_cfa_offset 12
 249              		.cfi_offset 4, -12
 250              		.cfi_offset 7, -8
 251              		.cfi_offset 14, -4
 252 0002 87B0     		sub	sp, sp, #28
 253              		.cfi_def_cfa_offset 40
 254 0004 00AF     		add	r7, sp, #0
 255              		.cfi_def_cfa_register 7
 256 0006 F860     		str	r0, [r7, #12]
 257 0008 B960     		str	r1, [r7, #8]
 258 000a 3B60     		str	r3, [r7]
 259 000c 1346     		mov	r3, r2
 260 000e FB71     		strb	r3, [r7, #7]
 116:.\u8glib_arm_v1.18.1\src/u8g_dev_uc1701_mini12864.c ****   switch(msg)
 261              		.loc 1 116 0
 262 0010 FB79     		ldrb	r3, [r7, #7]	@ zero_extendqisi2
 263 0012 0A3B     		subs	r3, r3, #10
 264 0014 0B2B     		cmp	r3, #11
 265 0016 00F29980 		bhi	.L13
 266 001a 01A2     		adr	r2, .L15
 267 001c 52F823F0 		ldr	pc, [r2, r3, lsl #2]
 268              		.p2align 2
 269              	.L15:
 270 0020 51000000 		.word	.L14+1
 271 0024 4D010000 		.word	.L13+1
 272 0028 4D010000 		.word	.L13+1
 273 002c 4D010000 		.word	.L13+1
 274 0030 4D010000 		.word	.L13+1
 275 0034 0F010000 		.word	.L17+1
 276 0038 4D010000 		.word	.L13+1
 277 003c 4D010000 		.word	.L13+1
 278 0040 4D010000 		.word	.L13+1
 279 0044 4D010000 		.word	.L13+1
 280 0048 4D010000 		.word	.L13+1
 281 004c 67000000 		.word	.L18+1
 282              		.p2align 1
 283              	.L14:
ARM GAS  C:\Users\Shiguruy\AppData\Local\Temp\cc9YyIHW.s 			page 8


 117:.\u8glib_arm_v1.18.1\src/u8g_dev_uc1701_mini12864.c ****   {
 118:.\u8glib_arm_v1.18.1\src/u8g_dev_uc1701_mini12864.c ****     case U8G_DEV_MSG_INIT:
 119:.\u8glib_arm_v1.18.1\src/u8g_dev_uc1701_mini12864.c ****       u8g_InitCom(u8g, dev, U8G_SPI_CLK_CYCLE_300NS);
 284              		.loc 1 119 0
 285 0050 F868     		ldr	r0, [r7, #12]
 286 0052 B968     		ldr	r1, [r7, #8]
 287 0054 0222     		movs	r2, #2
 288 0056 FFF7FEFF 		bl	u8g_InitCom
 120:.\u8glib_arm_v1.18.1\src/u8g_dev_uc1701_mini12864.c ****       u8g_WriteEscSeqP(u8g, dev, u8g_dev_uc1701_mini12864_init_seq);
 289              		.loc 1 120 0
 290 005a F868     		ldr	r0, [r7, #12]
 291 005c B968     		ldr	r1, [r7, #8]
 292 005e 414A     		ldr	r2, .L20
 293 0060 FFF7FEFF 		bl	u8g_WriteEscSeqP
 121:.\u8glib_arm_v1.18.1\src/u8g_dev_uc1701_mini12864.c ****       break;
 294              		.loc 1 121 0
 295 0064 72E0     		b	.L13
 296              	.L18:
 297              	.LBB3:
 122:.\u8glib_arm_v1.18.1\src/u8g_dev_uc1701_mini12864.c ****     case U8G_DEV_MSG_STOP:
 123:.\u8glib_arm_v1.18.1\src/u8g_dev_uc1701_mini12864.c ****       break;
 124:.\u8glib_arm_v1.18.1\src/u8g_dev_uc1701_mini12864.c ****     case U8G_DEV_MSG_PAGE_NEXT:
 125:.\u8glib_arm_v1.18.1\src/u8g_dev_uc1701_mini12864.c ****       {
 126:.\u8glib_arm_v1.18.1\src/u8g_dev_uc1701_mini12864.c ****         u8g_pb_t *pb = (u8g_pb_t *)(dev->dev_mem);
 298              		.loc 1 126 0
 299 0066 BB68     		ldr	r3, [r7, #8]
 300 0068 5B68     		ldr	r3, [r3, #4]
 301 006a 7B61     		str	r3, [r7, #20]
 127:.\u8glib_arm_v1.18.1\src/u8g_dev_uc1701_mini12864.c **** 	
 128:.\u8glib_arm_v1.18.1\src/u8g_dev_uc1701_mini12864.c ****         u8g_WriteEscSeqP(u8g, dev, u8g_dev_uc1701_mini12864_data_start);    
 302              		.loc 1 128 0
 303 006c F868     		ldr	r0, [r7, #12]
 304 006e B968     		ldr	r1, [r7, #8]
 305 0070 3D4A     		ldr	r2, .L20+4
 306 0072 FFF7FEFF 		bl	u8g_WriteEscSeqP
 129:.\u8glib_arm_v1.18.1\src/u8g_dev_uc1701_mini12864.c ****         u8g_WriteByte(u8g, dev, 0x0b0 | (2*pb->p.page)); /* select current page */
 307              		.loc 1 129 0
 308 0076 7B69     		ldr	r3, [r7, #20]
 309 0078 1B79     		ldrb	r3, [r3, #4]	@ zero_extendqisi2
 310 007a 5B00     		lsls	r3, r3, #1
 311 007c DBB2     		uxtb	r3, r3
 312 007e DBB2     		uxtb	r3, r3
 313 0080 63F04F03 		orn	r3, r3, #79
 314 0084 DBB2     		uxtb	r3, r3
 315 0086 DBB2     		uxtb	r3, r3
 316 0088 F868     		ldr	r0, [r7, #12]
 317 008a B968     		ldr	r1, [r7, #8]
 318 008c 1A46     		mov	r2, r3
 319 008e FFF7FEFF 		bl	u8g_WriteByte
 130:.\u8glib_arm_v1.18.1\src/u8g_dev_uc1701_mini12864.c ****         u8g_SetAddress(u8g, dev, 1);           /* data mode */
 320              		.loc 1 130 0
 321 0092 F868     		ldr	r0, [r7, #12]
 322 0094 B968     		ldr	r1, [r7, #8]
 323 0096 0122     		movs	r2, #1
 324 0098 FFF7FEFF 		bl	u8g_SetAddress
 131:.\u8glib_arm_v1.18.1\src/u8g_dev_uc1701_mini12864.c **** 	u8g_WriteSequence(u8g, dev, pb->width, pb->buf); 
 325              		.loc 1 131 0
ARM GAS  C:\Users\Shiguruy\AppData\Local\Temp\cc9YyIHW.s 			page 9


 326 009c 7B69     		ldr	r3, [r7, #20]
 327 009e 5A79     		ldrb	r2, [r3, #5]	@ zero_extendqisi2
 328 00a0 7B69     		ldr	r3, [r7, #20]
 329 00a2 9B68     		ldr	r3, [r3, #8]
 330 00a4 F868     		ldr	r0, [r7, #12]
 331 00a6 B968     		ldr	r1, [r7, #8]
 332 00a8 FFF7FEFF 		bl	u8g_WriteSequence
 132:.\u8glib_arm_v1.18.1\src/u8g_dev_uc1701_mini12864.c ****         u8g_SetChipSelect(u8g, dev, 0);
 333              		.loc 1 132 0
 334 00ac F868     		ldr	r0, [r7, #12]
 335 00ae B968     		ldr	r1, [r7, #8]
 336 00b0 0022     		movs	r2, #0
 337 00b2 FFF7FEFF 		bl	u8g_SetChipSelect
 133:.\u8glib_arm_v1.18.1\src/u8g_dev_uc1701_mini12864.c **** 	
 134:.\u8glib_arm_v1.18.1\src/u8g_dev_uc1701_mini12864.c ****         u8g_WriteEscSeqP(u8g, dev, u8g_dev_uc1701_mini12864_data_start);    
 338              		.loc 1 134 0
 339 00b6 F868     		ldr	r0, [r7, #12]
 340 00b8 B968     		ldr	r1, [r7, #8]
 341 00ba 2B4A     		ldr	r2, .L20+4
 342 00bc FFF7FEFF 		bl	u8g_WriteEscSeqP
 135:.\u8glib_arm_v1.18.1\src/u8g_dev_uc1701_mini12864.c ****         u8g_WriteByte(u8g, dev, 0x0b0 | (2*pb->p.page+1)); /* select current page */
 343              		.loc 1 135 0
 344 00c0 7B69     		ldr	r3, [r7, #20]
 345 00c2 1B79     		ldrb	r3, [r3, #4]	@ zero_extendqisi2
 346 00c4 5B00     		lsls	r3, r3, #1
 347 00c6 DBB2     		uxtb	r3, r3
 348 00c8 0133     		adds	r3, r3, #1
 349 00ca DBB2     		uxtb	r3, r3
 350 00cc DBB2     		uxtb	r3, r3
 351 00ce 63F04F03 		orn	r3, r3, #79
 352 00d2 DBB2     		uxtb	r3, r3
 353 00d4 DBB2     		uxtb	r3, r3
 354 00d6 F868     		ldr	r0, [r7, #12]
 355 00d8 B968     		ldr	r1, [r7, #8]
 356 00da 1A46     		mov	r2, r3
 357 00dc FFF7FEFF 		bl	u8g_WriteByte
 136:.\u8glib_arm_v1.18.1\src/u8g_dev_uc1701_mini12864.c ****         u8g_SetAddress(u8g, dev, 1);           /* data mode */
 358              		.loc 1 136 0
 359 00e0 F868     		ldr	r0, [r7, #12]
 360 00e2 B968     		ldr	r1, [r7, #8]
 361 00e4 0122     		movs	r2, #1
 362 00e6 FFF7FEFF 		bl	u8g_SetAddress
 137:.\u8glib_arm_v1.18.1\src/u8g_dev_uc1701_mini12864.c **** 	u8g_WriteSequence(u8g, dev, pb->width, (uint8_t *)(pb->buf)+pb->width); 
 363              		.loc 1 137 0
 364 00ea 7B69     		ldr	r3, [r7, #20]
 365 00ec 5C79     		ldrb	r4, [r3, #5]	@ zero_extendqisi2
 366 00ee 7B69     		ldr	r3, [r7, #20]
 367 00f0 9B68     		ldr	r3, [r3, #8]
 368 00f2 7A69     		ldr	r2, [r7, #20]
 369 00f4 5279     		ldrb	r2, [r2, #5]	@ zero_extendqisi2
 370 00f6 1344     		add	r3, r3, r2
 371 00f8 F868     		ldr	r0, [r7, #12]
 372 00fa B968     		ldr	r1, [r7, #8]
 373 00fc 2246     		mov	r2, r4
 374 00fe FFF7FEFF 		bl	u8g_WriteSequence
 138:.\u8glib_arm_v1.18.1\src/u8g_dev_uc1701_mini12864.c ****         u8g_SetChipSelect(u8g, dev, 0);
 375              		.loc 1 138 0
ARM GAS  C:\Users\Shiguruy\AppData\Local\Temp\cc9YyIHW.s 			page 10


 376 0102 F868     		ldr	r0, [r7, #12]
 377 0104 B968     		ldr	r1, [r7, #8]
 378 0106 0022     		movs	r2, #0
 379 0108 FFF7FEFF 		bl	u8g_SetChipSelect
 380              	.LBE3:
 139:.\u8glib_arm_v1.18.1\src/u8g_dev_uc1701_mini12864.c ****       }
 140:.\u8glib_arm_v1.18.1\src/u8g_dev_uc1701_mini12864.c ****       break;
 381              		.loc 1 140 0
 382 010c 1EE0     		b	.L13
 383              	.L17:
 141:.\u8glib_arm_v1.18.1\src/u8g_dev_uc1701_mini12864.c ****     case U8G_DEV_MSG_CONTRAST:
 142:.\u8glib_arm_v1.18.1\src/u8g_dev_uc1701_mini12864.c ****       u8g_SetChipSelect(u8g, dev, 1);
 384              		.loc 1 142 0
 385 010e F868     		ldr	r0, [r7, #12]
 386 0110 B968     		ldr	r1, [r7, #8]
 387 0112 0122     		movs	r2, #1
 388 0114 FFF7FEFF 		bl	u8g_SetChipSelect
 143:.\u8glib_arm_v1.18.1\src/u8g_dev_uc1701_mini12864.c ****       u8g_SetAddress(u8g, dev, 0);          /* instruction mode */
 389              		.loc 1 143 0
 390 0118 F868     		ldr	r0, [r7, #12]
 391 011a B968     		ldr	r1, [r7, #8]
 392 011c 0022     		movs	r2, #0
 393 011e FFF7FEFF 		bl	u8g_SetAddress
 144:.\u8glib_arm_v1.18.1\src/u8g_dev_uc1701_mini12864.c ****       u8g_WriteByte(u8g, dev, 0x081);
 394              		.loc 1 144 0
 395 0122 F868     		ldr	r0, [r7, #12]
 396 0124 B968     		ldr	r1, [r7, #8]
 397 0126 8122     		movs	r2, #129
 398 0128 FFF7FEFF 		bl	u8g_WriteByte
 145:.\u8glib_arm_v1.18.1\src/u8g_dev_uc1701_mini12864.c ****       u8g_WriteByte(u8g, dev, (*(uint8_t *)arg) >> 2);
 399              		.loc 1 145 0
 400 012c 3B68     		ldr	r3, [r7]
 401 012e 1B78     		ldrb	r3, [r3]	@ zero_extendqisi2
 402 0130 9B08     		lsrs	r3, r3, #2
 403 0132 DBB2     		uxtb	r3, r3
 404 0134 F868     		ldr	r0, [r7, #12]
 405 0136 B968     		ldr	r1, [r7, #8]
 406 0138 1A46     		mov	r2, r3
 407 013a FFF7FEFF 		bl	u8g_WriteByte
 146:.\u8glib_arm_v1.18.1\src/u8g_dev_uc1701_mini12864.c ****       u8g_SetChipSelect(u8g, dev, 0);      
 408              		.loc 1 146 0
 409 013e F868     		ldr	r0, [r7, #12]
 410 0140 B968     		ldr	r1, [r7, #8]
 411 0142 0022     		movs	r2, #0
 412 0144 FFF7FEFF 		bl	u8g_SetChipSelect
 147:.\u8glib_arm_v1.18.1\src/u8g_dev_uc1701_mini12864.c ****       return 1;
 413              		.loc 1 147 0
 414 0148 0123     		movs	r3, #1
 415 014a 07E0     		b	.L19
 416              	.L13:
 148:.\u8glib_arm_v1.18.1\src/u8g_dev_uc1701_mini12864.c ****   }
 149:.\u8glib_arm_v1.18.1\src/u8g_dev_uc1701_mini12864.c ****   return u8g_dev_pb16v1_base_fn(u8g, dev, msg, arg);
 417              		.loc 1 149 0
 418 014c FB79     		ldrb	r3, [r7, #7]	@ zero_extendqisi2
 419 014e F868     		ldr	r0, [r7, #12]
 420 0150 B968     		ldr	r1, [r7, #8]
 421 0152 1A46     		mov	r2, r3
ARM GAS  C:\Users\Shiguruy\AppData\Local\Temp\cc9YyIHW.s 			page 11


 422 0154 3B68     		ldr	r3, [r7]
 423 0156 FFF7FEFF 		bl	u8g_dev_pb16v1_base_fn
 424 015a 0346     		mov	r3, r0
 425              	.L19:
 150:.\u8glib_arm_v1.18.1\src/u8g_dev_uc1701_mini12864.c **** }
 426              		.loc 1 150 0
 427 015c 1846     		mov	r0, r3
 428 015e 1C37     		adds	r7, r7, #28
 429              		.cfi_def_cfa_offset 12
 430 0160 BD46     		mov	sp, r7
 431              		.cfi_def_cfa_register 13
 432              		@ sp needed
 433 0162 90BD     		pop	{r4, r7, pc}
 434              	.L21:
 435              		.align	2
 436              	.L20:
 437 0164 00000000 		.word	u8g_dev_uc1701_mini12864_init_seq
 438 0168 24000000 		.word	u8g_dev_uc1701_mini12864_data_start
 439              		.cfi_endproc
 440              	.LFE1:
 441              		.size	u8g_dev_uc1701_mini12864_2x_fn, .-u8g_dev_uc1701_mini12864_2x_fn
 442              		.global	u8g_dev_uc1701_mini12864_sw_spi_buf
 443              		.bss
 444              		.align	2
 445              		.type	u8g_dev_uc1701_mini12864_sw_spi_buf, %object
 446              		.size	u8g_dev_uc1701_mini12864_sw_spi_buf, 128
 447              	u8g_dev_uc1701_mini12864_sw_spi_buf:
 448 0000 00000000 		.space	128
 448      00000000 
 448      00000000 
 448      00000000 
 448      00000000 
 449              		.global	u8g_dev_uc1701_mini12864_sw_spi_pb
 450              		.data
 451              		.align	2
 452              		.type	u8g_dev_uc1701_mini12864_sw_spi_pb, %object
 453              		.size	u8g_dev_uc1701_mini12864_sw_spi_pb, 12
 454              	u8g_dev_uc1701_mini12864_sw_spi_pb:
 455 0000 08       		.byte	8
 456 0001 40       		.byte	64
 457 0002 00       		.byte	0
 458 0003 00       		.byte	0
 459 0004 00       		.byte	0
 460 0005 80       		.byte	-128
 461 0006 0000     		.space	2
 462 0008 00000000 		.word	u8g_dev_uc1701_mini12864_sw_spi_buf
 463              		.global	u8g_dev_uc1701_mini12864_sw_spi
 464              		.align	2
 465              		.type	u8g_dev_uc1701_mini12864_sw_spi, %object
 466              		.size	u8g_dev_uc1701_mini12864_sw_spi, 12
 467              	u8g_dev_uc1701_mini12864_sw_spi:
 468 000c 00000000 		.word	u8g_dev_uc1701_mini12864_fn
 469 0010 00000000 		.word	u8g_dev_uc1701_mini12864_sw_spi_pb
 470 0014 00000000 		.word	u8g_com_null_fn
 471              		.global	u8g_dev_uc1701_mini12864_hw_spi_buf
 472              		.bss
 473              		.align	2
ARM GAS  C:\Users\Shiguruy\AppData\Local\Temp\cc9YyIHW.s 			page 12


 474              		.type	u8g_dev_uc1701_mini12864_hw_spi_buf, %object
 475              		.size	u8g_dev_uc1701_mini12864_hw_spi_buf, 128
 476              	u8g_dev_uc1701_mini12864_hw_spi_buf:
 477 0080 00000000 		.space	128
 477      00000000 
 477      00000000 
 477      00000000 
 477      00000000 
 478              		.global	u8g_dev_uc1701_mini12864_hw_spi_pb
 479              		.data
 480              		.align	2
 481              		.type	u8g_dev_uc1701_mini12864_hw_spi_pb, %object
 482              		.size	u8g_dev_uc1701_mini12864_hw_spi_pb, 12
 483              	u8g_dev_uc1701_mini12864_hw_spi_pb:
 484 0018 08       		.byte	8
 485 0019 40       		.byte	64
 486 001a 00       		.byte	0
 487 001b 00       		.byte	0
 488 001c 00       		.byte	0
 489 001d 80       		.byte	-128
 490 001e 0000     		.space	2
 491 0020 00000000 		.word	u8g_dev_uc1701_mini12864_hw_spi_buf
 492              		.global	u8g_dev_uc1701_mini12864_hw_spi
 493              		.align	2
 494              		.type	u8g_dev_uc1701_mini12864_hw_spi, %object
 495              		.size	u8g_dev_uc1701_mini12864_hw_spi, 12
 496              	u8g_dev_uc1701_mini12864_hw_spi:
 497 0024 00000000 		.word	u8g_dev_uc1701_mini12864_fn
 498 0028 00000000 		.word	u8g_dev_uc1701_mini12864_hw_spi_pb
 499 002c 00000000 		.word	u8g_com_null_fn
 500              		.global	u8g_dev_uc1701_mini12864_2x_buf
 501              		.bss
 502              		.align	2
 503              		.type	u8g_dev_uc1701_mini12864_2x_buf, %object
 504              		.size	u8g_dev_uc1701_mini12864_2x_buf, 256
 505              	u8g_dev_uc1701_mini12864_2x_buf:
 506 0100 00000000 		.space	256
 506      00000000 
 506      00000000 
 506      00000000 
 506      00000000 
 507              		.global	u8g_dev_uc1701_mini12864_2x_pb
 508              		.data
 509              		.align	2
 510              		.type	u8g_dev_uc1701_mini12864_2x_pb, %object
 511              		.size	u8g_dev_uc1701_mini12864_2x_pb, 12
 512              	u8g_dev_uc1701_mini12864_2x_pb:
 513 0030 10       		.byte	16
 514 0031 40       		.byte	64
 515 0032 00       		.byte	0
 516 0033 00       		.byte	0
 517 0034 00       		.byte	0
 518 0035 80       		.byte	-128
 519 0036 0000     		.space	2
 520 0038 00000000 		.word	u8g_dev_uc1701_mini12864_2x_buf
 521              		.global	u8g_dev_uc1701_mini12864_2x_sw_spi
 522              		.align	2
ARM GAS  C:\Users\Shiguruy\AppData\Local\Temp\cc9YyIHW.s 			page 13


 523              		.type	u8g_dev_uc1701_mini12864_2x_sw_spi, %object
 524              		.size	u8g_dev_uc1701_mini12864_2x_sw_spi, 12
 525              	u8g_dev_uc1701_mini12864_2x_sw_spi:
 526 003c 00000000 		.word	u8g_dev_uc1701_mini12864_2x_fn
 527 0040 00000000 		.word	u8g_dev_uc1701_mini12864_2x_pb
 528 0044 00000000 		.word	u8g_com_null_fn
 529              		.global	u8g_dev_uc1701_mini12864_2x_hw_spi
 530              		.align	2
 531              		.type	u8g_dev_uc1701_mini12864_2x_hw_spi, %object
 532              		.size	u8g_dev_uc1701_mini12864_2x_hw_spi, 12
 533              	u8g_dev_uc1701_mini12864_2x_hw_spi:
 534 0048 00000000 		.word	u8g_dev_uc1701_mini12864_2x_fn
 535 004c 00000000 		.word	u8g_dev_uc1701_mini12864_2x_pb
 536 0050 00000000 		.word	u8g_com_null_fn
 537              		.text
 538              	.Letext0:
 539              		.file 2 "c:\\program files (x86)\\cypress\\psoc creator\\3.3\\psoc creator\\import\\gnu\\arm\\4.9.
 540              		.file 3 "c:\\program files (x86)\\cypress\\psoc creator\\3.3\\psoc creator\\import\\gnu\\arm\\4.9.
 541              		.file 4 ".\\u8glib_arm_v1.18.1\\src\\u8g.h"