ARM GAS  C:\Users\KJA\AppData\Local\Temp\ccpFk6WD.s 			page 1


   1              		.syntax unified
   2              		.cpu cortex-m3
   3              		.fpu softvfp
   4              		.eabi_attribute 20, 1
   5              		.eabi_attribute 21, 1
   6              		.eabi_attribute 23, 3
   7              		.eabi_attribute 24, 1
   8              		.eabi_attribute 25, 1
   9              		.eabi_attribute 26, 1
  10              		.eabi_attribute 30, 6
  11              		.eabi_attribute 34, 1
  12              		.eabi_attribute 18, 4
  13              		.thumb
  14              		.file	"u8g_bitmap.c"
  15              		.text
  16              	.Ltext0:
  17              		.cfi_sections	.debug_frame
  18              		.section	.text.u8g_DrawHBitmap,"ax",%progbits
  19              		.align	2
  20              		.global	u8g_DrawHBitmap
  21              		.thumb
  22              		.thumb_func
  23              		.type	u8g_DrawHBitmap, %function
  24              	u8g_DrawHBitmap:
  25              	.LFB0:
  26              		.file 1 "u8glib_arm_v1.18.1\\src\\u8g_bitmap.c"
   1:u8glib_arm_v1.18.1\src/u8g_bitmap.c **** /*
   2:u8glib_arm_v1.18.1\src/u8g_bitmap.c **** 
   3:u8glib_arm_v1.18.1\src/u8g_bitmap.c ****   u8g_bitmap.c
   4:u8glib_arm_v1.18.1\src/u8g_bitmap.c **** 
   5:u8glib_arm_v1.18.1\src/u8g_bitmap.c ****   Universal 8bit Graphics Library
   6:u8glib_arm_v1.18.1\src/u8g_bitmap.c ****   
   7:u8glib_arm_v1.18.1\src/u8g_bitmap.c ****   Copyright (c) 2011, olikraus@gmail.com
   8:u8glib_arm_v1.18.1\src/u8g_bitmap.c ****   All rights reserved.
   9:u8glib_arm_v1.18.1\src/u8g_bitmap.c **** 
  10:u8glib_arm_v1.18.1\src/u8g_bitmap.c ****   Redistribution and use in source and binary forms, with or without modification, 
  11:u8glib_arm_v1.18.1\src/u8g_bitmap.c ****   are permitted provided that the following conditions are met:
  12:u8glib_arm_v1.18.1\src/u8g_bitmap.c **** 
  13:u8glib_arm_v1.18.1\src/u8g_bitmap.c ****   * Redistributions of source code must retain the above copyright notice, this list 
  14:u8glib_arm_v1.18.1\src/u8g_bitmap.c ****     of conditions and the following disclaimer.
  15:u8glib_arm_v1.18.1\src/u8g_bitmap.c ****     
  16:u8glib_arm_v1.18.1\src/u8g_bitmap.c ****   * Redistributions in binary form must reproduce the above copyright notice, this 
  17:u8glib_arm_v1.18.1\src/u8g_bitmap.c ****     list of conditions and the following disclaimer in the documentation and/or other 
  18:u8glib_arm_v1.18.1\src/u8g_bitmap.c ****     materials provided with the distribution.
  19:u8glib_arm_v1.18.1\src/u8g_bitmap.c **** 
  20:u8glib_arm_v1.18.1\src/u8g_bitmap.c ****   THIS SOFTWARE IS PROVIDED BY THE COPYRIGHT HOLDERS AND 
  21:u8glib_arm_v1.18.1\src/u8g_bitmap.c ****   CONTRIBUTORS "AS IS" AND ANY EXPRESS OR IMPLIED WARRANTIES, 
  22:u8glib_arm_v1.18.1\src/u8g_bitmap.c ****   INCLUDING, BUT NOT LIMITED TO, THE IMPLIED WARRANTIES OF 
  23:u8glib_arm_v1.18.1\src/u8g_bitmap.c ****   MERCHANTABILITY AND FITNESS FOR A PARTICULAR PURPOSE ARE 
  24:u8glib_arm_v1.18.1\src/u8g_bitmap.c ****   DISCLAIMED. IN NO EVENT SHALL THE COPYRIGHT HOLDER OR 
  25:u8glib_arm_v1.18.1\src/u8g_bitmap.c ****   CONTRIBUTORS BE LIABLE FOR ANY DIRECT, INDIRECT, INCIDENTAL, 
  26:u8glib_arm_v1.18.1\src/u8g_bitmap.c ****   SPECIAL, EXEMPLARY, OR CONSEQUENTIAL DAMAGES (INCLUDING, BUT 
  27:u8glib_arm_v1.18.1\src/u8g_bitmap.c ****   NOT LIMITED TO, PROCUREMENT OF SUBSTITUTE GOODS OR SERVICES; 
  28:u8glib_arm_v1.18.1\src/u8g_bitmap.c ****   LOSS OF USE, DATA, OR PROFITS; OR BUSINESS INTERRUPTION) HOWEVER 
  29:u8glib_arm_v1.18.1\src/u8g_bitmap.c ****   CAUSED AND ON ANY THEORY OF LIABILITY, WHETHER IN CONTRACT, 
  30:u8glib_arm_v1.18.1\src/u8g_bitmap.c ****   STRICT LIABILITY, OR TORT (INCLUDING NEGLIGENCE OR OTHERWISE) 
  31:u8glib_arm_v1.18.1\src/u8g_bitmap.c ****   ARISING IN ANY WAY OUT OF THE USE OF THIS SOFTWARE, EVEN IF 
ARM GAS  C:\Users\KJA\AppData\Local\Temp\ccpFk6WD.s 			page 2


  32:u8glib_arm_v1.18.1\src/u8g_bitmap.c ****   ADVISED OF THE POSSIBILITY OF SUCH DAMAGE.  
  33:u8glib_arm_v1.18.1\src/u8g_bitmap.c ****   
  34:u8glib_arm_v1.18.1\src/u8g_bitmap.c **** 
  35:u8glib_arm_v1.18.1\src/u8g_bitmap.c **** */
  36:u8glib_arm_v1.18.1\src/u8g_bitmap.c **** 
  37:u8glib_arm_v1.18.1\src/u8g_bitmap.c **** #include "u8g.h"
  38:u8glib_arm_v1.18.1\src/u8g_bitmap.c **** 
  39:u8glib_arm_v1.18.1\src/u8g_bitmap.c **** void u8g_DrawHBitmap(u8g_t *u8g, u8g_uint_t x, u8g_uint_t y, u8g_uint_t cnt, const uint8_t *bitmap)
  40:u8glib_arm_v1.18.1\src/u8g_bitmap.c **** {
  27              		.loc 1 40 0
  28              		.cfi_startproc
  29              		@ args = 4, pretend = 0, frame = 8
  30              		@ frame_needed = 1, uses_anonymous_args = 0
  31 0000 80B5     		push	{r7, lr}
  32              		.cfi_def_cfa_offset 8
  33              		.cfi_offset 7, -8
  34              		.cfi_offset 14, -4
  35 0002 84B0     		sub	sp, sp, #16
  36              		.cfi_def_cfa_offset 24
  37 0004 02AF     		add	r7, sp, #8
  38              		.cfi_def_cfa 7, 16
  39 0006 7860     		str	r0, [r7, #4]
  40 0008 0846     		mov	r0, r1
  41 000a 1146     		mov	r1, r2
  42 000c 1A46     		mov	r2, r3
  43 000e 0346     		mov	r3, r0
  44 0010 FB70     		strb	r3, [r7, #3]
  45 0012 0B46     		mov	r3, r1
  46 0014 BB70     		strb	r3, [r7, #2]
  47 0016 1346     		mov	r3, r2
  48 0018 7B70     		strb	r3, [r7, #1]
  41:u8glib_arm_v1.18.1\src/u8g_bitmap.c ****   while( cnt > 0 )
  49              		.loc 1 41 0
  50 001a 11E0     		b	.L2
  51              	.L3:
  42:u8glib_arm_v1.18.1\src/u8g_bitmap.c ****   {
  43:u8glib_arm_v1.18.1\src/u8g_bitmap.c ****     u8g_Draw8Pixel(u8g, x, y, 0, *bitmap);
  52              		.loc 1 43 0
  53 001c 3B69     		ldr	r3, [r7, #16]
  54 001e 1B78     		ldrb	r3, [r3]	@ zero_extendqisi2
  55 0020 F978     		ldrb	r1, [r7, #3]	@ zero_extendqisi2
  56 0022 BA78     		ldrb	r2, [r7, #2]	@ zero_extendqisi2
  57 0024 0093     		str	r3, [sp]
  58 0026 7868     		ldr	r0, [r7, #4]
  59 0028 0023     		movs	r3, #0
  60 002a FFF7FEFF 		bl	u8g_Draw8Pixel
  44:u8glib_arm_v1.18.1\src/u8g_bitmap.c ****     bitmap++;
  61              		.loc 1 44 0
  62 002e 3B69     		ldr	r3, [r7, #16]
  63 0030 0133     		adds	r3, r3, #1
  64 0032 3B61     		str	r3, [r7, #16]
  45:u8glib_arm_v1.18.1\src/u8g_bitmap.c ****     cnt--;
  65              		.loc 1 45 0
  66 0034 7B78     		ldrb	r3, [r7, #1]	@ zero_extendqisi2
  67 0036 013B     		subs	r3, r3, #1
  68 0038 7B70     		strb	r3, [r7, #1]
  46:u8glib_arm_v1.18.1\src/u8g_bitmap.c ****     x+=8;
ARM GAS  C:\Users\KJA\AppData\Local\Temp\ccpFk6WD.s 			page 3


  69              		.loc 1 46 0
  70 003a FB78     		ldrb	r3, [r7, #3]
  71 003c 0833     		adds	r3, r3, #8
  72 003e FB70     		strb	r3, [r7, #3]
  73              	.L2:
  41:u8glib_arm_v1.18.1\src/u8g_bitmap.c ****   {
  74              		.loc 1 41 0
  75 0040 7B78     		ldrb	r3, [r7, #1]	@ zero_extendqisi2
  76 0042 002B     		cmp	r3, #0
  77 0044 EAD1     		bne	.L3
  47:u8glib_arm_v1.18.1\src/u8g_bitmap.c ****   }
  48:u8glib_arm_v1.18.1\src/u8g_bitmap.c **** }
  78              		.loc 1 48 0
  79 0046 0837     		adds	r7, r7, #8
  80              		.cfi_def_cfa_offset 8
  81 0048 BD46     		mov	sp, r7
  82              		.cfi_def_cfa_register 13
  83              		@ sp needed
  84 004a 80BD     		pop	{r7, pc}
  85              		.cfi_endproc
  86              	.LFE0:
  87              		.size	u8g_DrawHBitmap, .-u8g_DrawHBitmap
  88              		.section	.text.u8g_DrawBitmap,"ax",%progbits
  89              		.align	2
  90              		.global	u8g_DrawBitmap
  91              		.thumb
  92              		.thumb_func
  93              		.type	u8g_DrawBitmap, %function
  94              	u8g_DrawBitmap:
  95              	.LFB1:
  49:u8glib_arm_v1.18.1\src/u8g_bitmap.c **** 
  50:u8glib_arm_v1.18.1\src/u8g_bitmap.c **** void u8g_DrawBitmap(u8g_t *u8g, u8g_uint_t x, u8g_uint_t y, u8g_uint_t cnt, u8g_uint_t h, const uin
  51:u8glib_arm_v1.18.1\src/u8g_bitmap.c **** {
  96              		.loc 1 51 0
  97              		.cfi_startproc
  98              		@ args = 8, pretend = 0, frame = 8
  99              		@ frame_needed = 1, uses_anonymous_args = 0
 100 0000 90B5     		push	{r4, r7, lr}
 101              		.cfi_def_cfa_offset 12
 102              		.cfi_offset 4, -12
 103              		.cfi_offset 7, -8
 104              		.cfi_offset 14, -4
 105 0002 85B0     		sub	sp, sp, #20
 106              		.cfi_def_cfa_offset 32
 107 0004 02AF     		add	r7, sp, #8
 108              		.cfi_def_cfa 7, 24
 109 0006 7860     		str	r0, [r7, #4]
 110 0008 0846     		mov	r0, r1
 111 000a 1146     		mov	r1, r2
 112 000c 1A46     		mov	r2, r3
 113 000e 0346     		mov	r3, r0
 114 0010 FB70     		strb	r3, [r7, #3]
 115 0012 0B46     		mov	r3, r1
 116 0014 BB70     		strb	r3, [r7, #2]
 117 0016 1346     		mov	r3, r2
 118 0018 7B70     		strb	r3, [r7, #1]
  52:u8glib_arm_v1.18.1\src/u8g_bitmap.c ****   if ( u8g_IsBBXIntersection(u8g, x, y, cnt*8, h) == 0 )
ARM GAS  C:\Users\KJA\AppData\Local\Temp\ccpFk6WD.s 			page 4


 119              		.loc 1 52 0
 120 001a 7B78     		ldrb	r3, [r7, #1]
 121 001c DB00     		lsls	r3, r3, #3
 122 001e DCB2     		uxtb	r4, r3
 123 0020 F978     		ldrb	r1, [r7, #3]	@ zero_extendqisi2
 124 0022 BA78     		ldrb	r2, [r7, #2]	@ zero_extendqisi2
 125 0024 3B7E     		ldrb	r3, [r7, #24]	@ zero_extendqisi2
 126 0026 0093     		str	r3, [sp]
 127 0028 7868     		ldr	r0, [r7, #4]
 128 002a 2346     		mov	r3, r4
 129 002c FFF7FEFF 		bl	u8g_IsBBXIntersection
 130 0030 0346     		mov	r3, r0
 131 0032 002B     		cmp	r3, #0
 132 0034 00D1     		bne	.L5
  53:u8glib_arm_v1.18.1\src/u8g_bitmap.c ****     return;
 133              		.loc 1 53 0
 134 0036 16E0     		b	.L4
 135              	.L5:
  54:u8glib_arm_v1.18.1\src/u8g_bitmap.c ****   while( h > 0 )
 136              		.loc 1 54 0
 137 0038 12E0     		b	.L7
 138              	.L8:
  55:u8glib_arm_v1.18.1\src/u8g_bitmap.c ****   {
  56:u8glib_arm_v1.18.1\src/u8g_bitmap.c ****     u8g_DrawHBitmap(u8g, x, y, cnt, bitmap);
 139              		.loc 1 56 0
 140 003a F978     		ldrb	r1, [r7, #3]	@ zero_extendqisi2
 141 003c BA78     		ldrb	r2, [r7, #2]	@ zero_extendqisi2
 142 003e 7C78     		ldrb	r4, [r7, #1]	@ zero_extendqisi2
 143 0040 FB69     		ldr	r3, [r7, #28]
 144 0042 0093     		str	r3, [sp]
 145 0044 7868     		ldr	r0, [r7, #4]
 146 0046 2346     		mov	r3, r4
 147 0048 FFF7FEFF 		bl	u8g_DrawHBitmap
  57:u8glib_arm_v1.18.1\src/u8g_bitmap.c ****     bitmap += cnt;
 148              		.loc 1 57 0
 149 004c 7B78     		ldrb	r3, [r7, #1]	@ zero_extendqisi2
 150 004e FA69     		ldr	r2, [r7, #28]
 151 0050 1344     		add	r3, r3, r2
 152 0052 FB61     		str	r3, [r7, #28]
  58:u8glib_arm_v1.18.1\src/u8g_bitmap.c ****     y++;
 153              		.loc 1 58 0
 154 0054 BB78     		ldrb	r3, [r7, #2]	@ zero_extendqisi2
 155 0056 0133     		adds	r3, r3, #1
 156 0058 BB70     		strb	r3, [r7, #2]
  59:u8glib_arm_v1.18.1\src/u8g_bitmap.c ****     h--;
 157              		.loc 1 59 0
 158 005a 3B7E     		ldrb	r3, [r7, #24]	@ zero_extendqisi2
 159 005c 013B     		subs	r3, r3, #1
 160 005e 3B76     		strb	r3, [r7, #24]
 161              	.L7:
  54:u8glib_arm_v1.18.1\src/u8g_bitmap.c ****   {
 162              		.loc 1 54 0
 163 0060 3B7E     		ldrb	r3, [r7, #24]	@ zero_extendqisi2
 164 0062 002B     		cmp	r3, #0
 165 0064 E9D1     		bne	.L8
 166              	.L4:
  60:u8glib_arm_v1.18.1\src/u8g_bitmap.c ****   }
ARM GAS  C:\Users\KJA\AppData\Local\Temp\ccpFk6WD.s 			page 5


  61:u8glib_arm_v1.18.1\src/u8g_bitmap.c **** }
 167              		.loc 1 61 0
 168 0066 0C37     		adds	r7, r7, #12
 169              		.cfi_def_cfa_offset 12
 170 0068 BD46     		mov	sp, r7
 171              		.cfi_def_cfa_register 13
 172              		@ sp needed
 173 006a 90BD     		pop	{r4, r7, pc}
 174              		.cfi_endproc
 175              	.LFE1:
 176              		.size	u8g_DrawBitmap, .-u8g_DrawBitmap
 177              		.section	.text.u8g_DrawHBitmapP,"ax",%progbits
 178              		.align	2
 179              		.global	u8g_DrawHBitmapP
 180              		.thumb
 181              		.thumb_func
 182              		.type	u8g_DrawHBitmapP, %function
 183              	u8g_DrawHBitmapP:
 184              	.LFB2:
  62:u8glib_arm_v1.18.1\src/u8g_bitmap.c **** 
  63:u8glib_arm_v1.18.1\src/u8g_bitmap.c **** 
  64:u8glib_arm_v1.18.1\src/u8g_bitmap.c **** void u8g_DrawHBitmapP(u8g_t *u8g, u8g_uint_t x, u8g_uint_t y, u8g_uint_t cnt, const u8g_pgm_uint8_t
  65:u8glib_arm_v1.18.1\src/u8g_bitmap.c **** {
 185              		.loc 1 65 0
 186              		.cfi_startproc
 187              		@ args = 4, pretend = 0, frame = 8
 188              		@ frame_needed = 1, uses_anonymous_args = 0
 189 0000 80B5     		push	{r7, lr}
 190              		.cfi_def_cfa_offset 8
 191              		.cfi_offset 7, -8
 192              		.cfi_offset 14, -4
 193 0002 84B0     		sub	sp, sp, #16
 194              		.cfi_def_cfa_offset 24
 195 0004 02AF     		add	r7, sp, #8
 196              		.cfi_def_cfa 7, 16
 197 0006 7860     		str	r0, [r7, #4]
 198 0008 0846     		mov	r0, r1
 199 000a 1146     		mov	r1, r2
 200 000c 1A46     		mov	r2, r3
 201 000e 0346     		mov	r3, r0
 202 0010 FB70     		strb	r3, [r7, #3]
 203 0012 0B46     		mov	r3, r1
 204 0014 BB70     		strb	r3, [r7, #2]
 205 0016 1346     		mov	r3, r2
 206 0018 7B70     		strb	r3, [r7, #1]
  66:u8glib_arm_v1.18.1\src/u8g_bitmap.c ****   while( cnt > 0 )
 207              		.loc 1 66 0
 208 001a 11E0     		b	.L10
 209              	.L11:
  67:u8glib_arm_v1.18.1\src/u8g_bitmap.c ****   {
  68:u8glib_arm_v1.18.1\src/u8g_bitmap.c ****     u8g_Draw8Pixel(u8g, x, y, 0, u8g_pgm_read(bitmap));
 210              		.loc 1 68 0
 211 001c 3B69     		ldr	r3, [r7, #16]
 212 001e 1B78     		ldrb	r3, [r3]	@ zero_extendqisi2
 213 0020 F978     		ldrb	r1, [r7, #3]	@ zero_extendqisi2
 214 0022 BA78     		ldrb	r2, [r7, #2]	@ zero_extendqisi2
 215 0024 0093     		str	r3, [sp]
ARM GAS  C:\Users\KJA\AppData\Local\Temp\ccpFk6WD.s 			page 6


 216 0026 7868     		ldr	r0, [r7, #4]
 217 0028 0023     		movs	r3, #0
 218 002a FFF7FEFF 		bl	u8g_Draw8Pixel
  69:u8glib_arm_v1.18.1\src/u8g_bitmap.c ****     bitmap++;
 219              		.loc 1 69 0
 220 002e 3B69     		ldr	r3, [r7, #16]
 221 0030 0133     		adds	r3, r3, #1
 222 0032 3B61     		str	r3, [r7, #16]
  70:u8glib_arm_v1.18.1\src/u8g_bitmap.c ****     cnt--;
 223              		.loc 1 70 0
 224 0034 7B78     		ldrb	r3, [r7, #1]	@ zero_extendqisi2
 225 0036 013B     		subs	r3, r3, #1
 226 0038 7B70     		strb	r3, [r7, #1]
  71:u8glib_arm_v1.18.1\src/u8g_bitmap.c ****     x+=8;
 227              		.loc 1 71 0
 228 003a FB78     		ldrb	r3, [r7, #3]
 229 003c 0833     		adds	r3, r3, #8
 230 003e FB70     		strb	r3, [r7, #3]
 231              	.L10:
  66:u8glib_arm_v1.18.1\src/u8g_bitmap.c ****   {
 232              		.loc 1 66 0
 233 0040 7B78     		ldrb	r3, [r7, #1]	@ zero_extendqisi2
 234 0042 002B     		cmp	r3, #0
 235 0044 EAD1     		bne	.L11
  72:u8glib_arm_v1.18.1\src/u8g_bitmap.c ****   }
  73:u8glib_arm_v1.18.1\src/u8g_bitmap.c **** }
 236              		.loc 1 73 0
 237 0046 0837     		adds	r7, r7, #8
 238              		.cfi_def_cfa_offset 8
 239 0048 BD46     		mov	sp, r7
 240              		.cfi_def_cfa_register 13
 241              		@ sp needed
 242 004a 80BD     		pop	{r7, pc}
 243              		.cfi_endproc
 244              	.LFE2:
 245              		.size	u8g_DrawHBitmapP, .-u8g_DrawHBitmapP
 246              		.section	.text.u8g_DrawBitmapP,"ax",%progbits
 247              		.align	2
 248              		.global	u8g_DrawBitmapP
 249              		.thumb
 250              		.thumb_func
 251              		.type	u8g_DrawBitmapP, %function
 252              	u8g_DrawBitmapP:
 253              	.LFB3:
  74:u8glib_arm_v1.18.1\src/u8g_bitmap.c **** 
  75:u8glib_arm_v1.18.1\src/u8g_bitmap.c **** void u8g_DrawBitmapP(u8g_t *u8g, u8g_uint_t x, u8g_uint_t y, u8g_uint_t cnt, u8g_uint_t h, const u8
  76:u8glib_arm_v1.18.1\src/u8g_bitmap.c **** {
 254              		.loc 1 76 0
 255              		.cfi_startproc
 256              		@ args = 8, pretend = 0, frame = 8
 257              		@ frame_needed = 1, uses_anonymous_args = 0
 258 0000 90B5     		push	{r4, r7, lr}
 259              		.cfi_def_cfa_offset 12
 260              		.cfi_offset 4, -12
 261              		.cfi_offset 7, -8
 262              		.cfi_offset 14, -4
 263 0002 85B0     		sub	sp, sp, #20
ARM GAS  C:\Users\KJA\AppData\Local\Temp\ccpFk6WD.s 			page 7


 264              		.cfi_def_cfa_offset 32
 265 0004 02AF     		add	r7, sp, #8
 266              		.cfi_def_cfa 7, 24
 267 0006 7860     		str	r0, [r7, #4]
 268 0008 0846     		mov	r0, r1
 269 000a 1146     		mov	r1, r2
 270 000c 1A46     		mov	r2, r3
 271 000e 0346     		mov	r3, r0
 272 0010 FB70     		strb	r3, [r7, #3]
 273 0012 0B46     		mov	r3, r1
 274 0014 BB70     		strb	r3, [r7, #2]
 275 0016 1346     		mov	r3, r2
 276 0018 7B70     		strb	r3, [r7, #1]
  77:u8glib_arm_v1.18.1\src/u8g_bitmap.c ****   if ( u8g_IsBBXIntersection(u8g, x, y, cnt*8, h) == 0 )
 277              		.loc 1 77 0
 278 001a 7B78     		ldrb	r3, [r7, #1]
 279 001c DB00     		lsls	r3, r3, #3
 280 001e DCB2     		uxtb	r4, r3
 281 0020 F978     		ldrb	r1, [r7, #3]	@ zero_extendqisi2
 282 0022 BA78     		ldrb	r2, [r7, #2]	@ zero_extendqisi2
 283 0024 3B7E     		ldrb	r3, [r7, #24]	@ zero_extendqisi2
 284 0026 0093     		str	r3, [sp]
 285 0028 7868     		ldr	r0, [r7, #4]
 286 002a 2346     		mov	r3, r4
 287 002c FFF7FEFF 		bl	u8g_IsBBXIntersection
 288 0030 0346     		mov	r3, r0
 289 0032 002B     		cmp	r3, #0
 290 0034 00D1     		bne	.L13
  78:u8glib_arm_v1.18.1\src/u8g_bitmap.c ****     return;
 291              		.loc 1 78 0
 292 0036 16E0     		b	.L12
 293              	.L13:
  79:u8glib_arm_v1.18.1\src/u8g_bitmap.c ****   while( h > 0 )
 294              		.loc 1 79 0
 295 0038 12E0     		b	.L15
 296              	.L16:
  80:u8glib_arm_v1.18.1\src/u8g_bitmap.c ****   {
  81:u8glib_arm_v1.18.1\src/u8g_bitmap.c ****     u8g_DrawHBitmapP(u8g, x, y, cnt, bitmap);
 297              		.loc 1 81 0
 298 003a F978     		ldrb	r1, [r7, #3]	@ zero_extendqisi2
 299 003c BA78     		ldrb	r2, [r7, #2]	@ zero_extendqisi2
 300 003e 7C78     		ldrb	r4, [r7, #1]	@ zero_extendqisi2
 301 0040 FB69     		ldr	r3, [r7, #28]
 302 0042 0093     		str	r3, [sp]
 303 0044 7868     		ldr	r0, [r7, #4]
 304 0046 2346     		mov	r3, r4
 305 0048 FFF7FEFF 		bl	u8g_DrawHBitmapP
  82:u8glib_arm_v1.18.1\src/u8g_bitmap.c ****     bitmap += cnt;
 306              		.loc 1 82 0
 307 004c 7B78     		ldrb	r3, [r7, #1]	@ zero_extendqisi2
 308 004e FA69     		ldr	r2, [r7, #28]
 309 0050 1344     		add	r3, r3, r2
 310 0052 FB61     		str	r3, [r7, #28]
  83:u8glib_arm_v1.18.1\src/u8g_bitmap.c ****     y++;
 311              		.loc 1 83 0
 312 0054 BB78     		ldrb	r3, [r7, #2]	@ zero_extendqisi2
 313 0056 0133     		adds	r3, r3, #1
ARM GAS  C:\Users\KJA\AppData\Local\Temp\ccpFk6WD.s 			page 8


 314 0058 BB70     		strb	r3, [r7, #2]
  84:u8glib_arm_v1.18.1\src/u8g_bitmap.c ****     h--;
 315              		.loc 1 84 0
 316 005a 3B7E     		ldrb	r3, [r7, #24]	@ zero_extendqisi2
 317 005c 013B     		subs	r3, r3, #1
 318 005e 3B76     		strb	r3, [r7, #24]
 319              	.L15:
  79:u8glib_arm_v1.18.1\src/u8g_bitmap.c ****   {
 320              		.loc 1 79 0
 321 0060 3B7E     		ldrb	r3, [r7, #24]	@ zero_extendqisi2
 322 0062 002B     		cmp	r3, #0
 323 0064 E9D1     		bne	.L16
 324              	.L12:
  85:u8glib_arm_v1.18.1\src/u8g_bitmap.c ****   }
  86:u8glib_arm_v1.18.1\src/u8g_bitmap.c **** }
 325              		.loc 1 86 0
 326 0066 0C37     		adds	r7, r7, #12
 327              		.cfi_def_cfa_offset 12
 328 0068 BD46     		mov	sp, r7
 329              		.cfi_def_cfa_register 13
 330              		@ sp needed
 331 006a 90BD     		pop	{r4, r7, pc}
 332              		.cfi_endproc
 333              	.LFE3:
 334              		.size	u8g_DrawBitmapP, .-u8g_DrawBitmapP
 335              		.section	.text.u8g_DrawHXBM,"ax",%progbits
 336              		.align	2
 337              		.thumb
 338              		.thumb_func
 339              		.type	u8g_DrawHXBM, %function
 340              	u8g_DrawHXBM:
 341              	.LFB4:
  87:u8glib_arm_v1.18.1\src/u8g_bitmap.c **** 
  88:u8glib_arm_v1.18.1\src/u8g_bitmap.c **** /*=========================================================================*/
  89:u8glib_arm_v1.18.1\src/u8g_bitmap.c **** 
  90:u8glib_arm_v1.18.1\src/u8g_bitmap.c **** static void u8g_DrawHXBM(u8g_t *u8g, u8g_uint_t x, u8g_uint_t y, u8g_uint_t w, const uint8_t *bitma
  91:u8glib_arm_v1.18.1\src/u8g_bitmap.c **** {
 342              		.loc 1 91 0
 343              		.cfi_startproc
 344              		@ args = 4, pretend = 0, frame = 16
 345              		@ frame_needed = 1, uses_anonymous_args = 0
 346 0000 80B5     		push	{r7, lr}
 347              		.cfi_def_cfa_offset 8
 348              		.cfi_offset 7, -8
 349              		.cfi_offset 14, -4
 350 0002 86B0     		sub	sp, sp, #24
 351              		.cfi_def_cfa_offset 32
 352 0004 02AF     		add	r7, sp, #8
 353              		.cfi_def_cfa 7, 24
 354 0006 7860     		str	r0, [r7, #4]
 355 0008 0846     		mov	r0, r1
 356 000a 1146     		mov	r1, r2
 357 000c 1A46     		mov	r2, r3
 358 000e 0346     		mov	r3, r0
 359 0010 FB70     		strb	r3, [r7, #3]
 360 0012 0B46     		mov	r3, r1
 361 0014 BB70     		strb	r3, [r7, #2]
ARM GAS  C:\Users\KJA\AppData\Local\Temp\ccpFk6WD.s 			page 9


 362 0016 1346     		mov	r3, r2
 363 0018 7B70     		strb	r3, [r7, #1]
  92:u8glib_arm_v1.18.1\src/u8g_bitmap.c ****   uint8_t d;
  93:u8glib_arm_v1.18.1\src/u8g_bitmap.c ****   x+=7;
 364              		.loc 1 93 0
 365 001a FB78     		ldrb	r3, [r7, #3]
 366 001c 0733     		adds	r3, r3, #7
 367 001e FB70     		strb	r3, [r7, #3]
  94:u8glib_arm_v1.18.1\src/u8g_bitmap.c ****   while( w >= 8 )
 368              		.loc 1 94 0
 369 0020 11E0     		b	.L18
 370              	.L19:
  95:u8glib_arm_v1.18.1\src/u8g_bitmap.c ****   {
  96:u8glib_arm_v1.18.1\src/u8g_bitmap.c ****     u8g_Draw8Pixel(u8g, x, y, 2, *bitmap);
 371              		.loc 1 96 0
 372 0022 BB69     		ldr	r3, [r7, #24]
 373 0024 1B78     		ldrb	r3, [r3]	@ zero_extendqisi2
 374 0026 F978     		ldrb	r1, [r7, #3]	@ zero_extendqisi2
 375 0028 BA78     		ldrb	r2, [r7, #2]	@ zero_extendqisi2
 376 002a 0093     		str	r3, [sp]
 377 002c 7868     		ldr	r0, [r7, #4]
 378 002e 0223     		movs	r3, #2
 379 0030 FFF7FEFF 		bl	u8g_Draw8Pixel
  97:u8glib_arm_v1.18.1\src/u8g_bitmap.c ****     bitmap++;
 380              		.loc 1 97 0
 381 0034 BB69     		ldr	r3, [r7, #24]
 382 0036 0133     		adds	r3, r3, #1
 383 0038 BB61     		str	r3, [r7, #24]
  98:u8glib_arm_v1.18.1\src/u8g_bitmap.c ****     w-= 8;
 384              		.loc 1 98 0
 385 003a 7B78     		ldrb	r3, [r7, #1]
 386 003c 083B     		subs	r3, r3, #8
 387 003e 7B70     		strb	r3, [r7, #1]
  99:u8glib_arm_v1.18.1\src/u8g_bitmap.c ****     x+=8;
 388              		.loc 1 99 0
 389 0040 FB78     		ldrb	r3, [r7, #3]
 390 0042 0833     		adds	r3, r3, #8
 391 0044 FB70     		strb	r3, [r7, #3]
 392              	.L18:
  94:u8glib_arm_v1.18.1\src/u8g_bitmap.c ****   {
 393              		.loc 1 94 0
 394 0046 7B78     		ldrb	r3, [r7, #1]	@ zero_extendqisi2
 395 0048 072B     		cmp	r3, #7
 396 004a EAD8     		bhi	.L19
 100:u8glib_arm_v1.18.1\src/u8g_bitmap.c ****   }
 101:u8glib_arm_v1.18.1\src/u8g_bitmap.c ****   if ( w > 0 )
 397              		.loc 1 101 0
 398 004c 7B78     		ldrb	r3, [r7, #1]	@ zero_extendqisi2
 399 004e 002B     		cmp	r3, #0
 400 0050 1DD0     		beq	.L17
 102:u8glib_arm_v1.18.1\src/u8g_bitmap.c ****   {
 103:u8glib_arm_v1.18.1\src/u8g_bitmap.c ****     d = *bitmap;
 401              		.loc 1 103 0
 402 0052 BB69     		ldr	r3, [r7, #24]
 403 0054 1B78     		ldrb	r3, [r3]
 404 0056 FB73     		strb	r3, [r7, #15]
 104:u8glib_arm_v1.18.1\src/u8g_bitmap.c ****     x -= 7;
ARM GAS  C:\Users\KJA\AppData\Local\Temp\ccpFk6WD.s 			page 10


 405              		.loc 1 104 0
 406 0058 FB78     		ldrb	r3, [r7, #3]
 407 005a 073B     		subs	r3, r3, #7
 408 005c FB70     		strb	r3, [r7, #3]
 409              	.L22:
 105:u8glib_arm_v1.18.1\src/u8g_bitmap.c ****     do
 106:u8glib_arm_v1.18.1\src/u8g_bitmap.c ****     {
 107:u8glib_arm_v1.18.1\src/u8g_bitmap.c ****       if ( d & 1 )
 410              		.loc 1 107 0
 411 005e FB7B     		ldrb	r3, [r7, #15]	@ zero_extendqisi2
 412 0060 03F00103 		and	r3, r3, #1
 413 0064 002B     		cmp	r3, #0
 414 0066 06D0     		beq	.L21
 108:u8glib_arm_v1.18.1\src/u8g_bitmap.c ****         u8g_DrawPixel(u8g, x, y);
 415              		.loc 1 108 0
 416 0068 FA78     		ldrb	r2, [r7, #3]	@ zero_extendqisi2
 417 006a BB78     		ldrb	r3, [r7, #2]	@ zero_extendqisi2
 418 006c 7868     		ldr	r0, [r7, #4]
 419 006e 1146     		mov	r1, r2
 420 0070 1A46     		mov	r2, r3
 421 0072 FFF7FEFF 		bl	u8g_DrawPixel
 422              	.L21:
 109:u8glib_arm_v1.18.1\src/u8g_bitmap.c ****       x++;
 423              		.loc 1 109 0
 424 0076 FB78     		ldrb	r3, [r7, #3]	@ zero_extendqisi2
 425 0078 0133     		adds	r3, r3, #1
 426 007a FB70     		strb	r3, [r7, #3]
 110:u8glib_arm_v1.18.1\src/u8g_bitmap.c ****       w--;
 427              		.loc 1 110 0
 428 007c 7B78     		ldrb	r3, [r7, #1]	@ zero_extendqisi2
 429 007e 013B     		subs	r3, r3, #1
 430 0080 7B70     		strb	r3, [r7, #1]
 111:u8glib_arm_v1.18.1\src/u8g_bitmap.c ****       d >>= 1;      
 431              		.loc 1 111 0
 432 0082 FB7B     		ldrb	r3, [r7, #15]	@ zero_extendqisi2
 433 0084 5B08     		lsrs	r3, r3, #1
 434 0086 FB73     		strb	r3, [r7, #15]
 112:u8glib_arm_v1.18.1\src/u8g_bitmap.c ****     } while ( w > 0 );
 435              		.loc 1 112 0
 436 0088 7B78     		ldrb	r3, [r7, #1]	@ zero_extendqisi2
 437 008a 002B     		cmp	r3, #0
 438 008c E7D1     		bne	.L22
 439              	.L17:
 113:u8glib_arm_v1.18.1\src/u8g_bitmap.c ****   }
 114:u8glib_arm_v1.18.1\src/u8g_bitmap.c **** }
 440              		.loc 1 114 0
 441 008e 1037     		adds	r7, r7, #16
 442              		.cfi_def_cfa_offset 8
 443 0090 BD46     		mov	sp, r7
 444              		.cfi_def_cfa_register 13
 445              		@ sp needed
 446 0092 80BD     		pop	{r7, pc}
 447              		.cfi_endproc
 448              	.LFE4:
 449              		.size	u8g_DrawHXBM, .-u8g_DrawHXBM
 450              		.section	.text.u8g_DrawXBM,"ax",%progbits
 451              		.align	2
ARM GAS  C:\Users\KJA\AppData\Local\Temp\ccpFk6WD.s 			page 11


 452              		.global	u8g_DrawXBM
 453              		.thumb
 454              		.thumb_func
 455              		.type	u8g_DrawXBM, %function
 456              	u8g_DrawXBM:
 457              	.LFB5:
 115:u8glib_arm_v1.18.1\src/u8g_bitmap.c **** 
 116:u8glib_arm_v1.18.1\src/u8g_bitmap.c **** void u8g_DrawXBM(u8g_t *u8g, u8g_uint_t x, u8g_uint_t y, u8g_uint_t w, u8g_uint_t h, const uint8_t 
 117:u8glib_arm_v1.18.1\src/u8g_bitmap.c **** {
 458              		.loc 1 117 0
 459              		.cfi_startproc
 460              		@ args = 8, pretend = 0, frame = 16
 461              		@ frame_needed = 1, uses_anonymous_args = 0
 462 0000 90B5     		push	{r4, r7, lr}
 463              		.cfi_def_cfa_offset 12
 464              		.cfi_offset 4, -12
 465              		.cfi_offset 7, -8
 466              		.cfi_offset 14, -4
 467 0002 87B0     		sub	sp, sp, #28
 468              		.cfi_def_cfa_offset 40
 469 0004 02AF     		add	r7, sp, #8
 470              		.cfi_def_cfa 7, 32
 471 0006 7860     		str	r0, [r7, #4]
 472 0008 0846     		mov	r0, r1
 473 000a 1146     		mov	r1, r2
 474 000c 1A46     		mov	r2, r3
 475 000e 0346     		mov	r3, r0
 476 0010 FB70     		strb	r3, [r7, #3]
 477 0012 0B46     		mov	r3, r1
 478 0014 BB70     		strb	r3, [r7, #2]
 479 0016 1346     		mov	r3, r2
 480 0018 7B70     		strb	r3, [r7, #1]
 118:u8glib_arm_v1.18.1\src/u8g_bitmap.c ****   u8g_uint_t b;
 119:u8glib_arm_v1.18.1\src/u8g_bitmap.c ****   b = w;
 481              		.loc 1 119 0
 482 001a 7B78     		ldrb	r3, [r7, #1]
 483 001c FB73     		strb	r3, [r7, #15]
 120:u8glib_arm_v1.18.1\src/u8g_bitmap.c ****   b += 7;
 484              		.loc 1 120 0
 485 001e FB7B     		ldrb	r3, [r7, #15]
 486 0020 0733     		adds	r3, r3, #7
 487 0022 FB73     		strb	r3, [r7, #15]
 121:u8glib_arm_v1.18.1\src/u8g_bitmap.c ****   b >>= 3;
 488              		.loc 1 121 0
 489 0024 FB7B     		ldrb	r3, [r7, #15]	@ zero_extendqisi2
 490 0026 DB08     		lsrs	r3, r3, #3
 491 0028 FB73     		strb	r3, [r7, #15]
 122:u8glib_arm_v1.18.1\src/u8g_bitmap.c ****   
 123:u8glib_arm_v1.18.1\src/u8g_bitmap.c ****   if ( u8g_IsBBXIntersection(u8g, x, y, w, h) == 0 )
 492              		.loc 1 123 0
 493 002a F978     		ldrb	r1, [r7, #3]	@ zero_extendqisi2
 494 002c BA78     		ldrb	r2, [r7, #2]	@ zero_extendqisi2
 495 002e 7C78     		ldrb	r4, [r7, #1]	@ zero_extendqisi2
 496 0030 97F82030 		ldrb	r3, [r7, #32]	@ zero_extendqisi2
 497 0034 0093     		str	r3, [sp]
 498 0036 7868     		ldr	r0, [r7, #4]
 499 0038 2346     		mov	r3, r4
ARM GAS  C:\Users\KJA\AppData\Local\Temp\ccpFk6WD.s 			page 12


 500 003a FFF7FEFF 		bl	u8g_IsBBXIntersection
 501 003e 0346     		mov	r3, r0
 502 0040 002B     		cmp	r3, #0
 503 0042 00D1     		bne	.L24
 124:u8glib_arm_v1.18.1\src/u8g_bitmap.c ****     return;
 504              		.loc 1 124 0
 505 0044 19E0     		b	.L23
 506              	.L24:
 125:u8glib_arm_v1.18.1\src/u8g_bitmap.c ****   
 126:u8glib_arm_v1.18.1\src/u8g_bitmap.c ****   while( h > 0 )
 507              		.loc 1 126 0
 508 0046 14E0     		b	.L26
 509              	.L27:
 127:u8glib_arm_v1.18.1\src/u8g_bitmap.c ****   {
 128:u8glib_arm_v1.18.1\src/u8g_bitmap.c ****     u8g_DrawHXBM(u8g, x, y, w, bitmap);
 510              		.loc 1 128 0
 511 0048 F978     		ldrb	r1, [r7, #3]	@ zero_extendqisi2
 512 004a BA78     		ldrb	r2, [r7, #2]	@ zero_extendqisi2
 513 004c 7C78     		ldrb	r4, [r7, #1]	@ zero_extendqisi2
 514 004e 7B6A     		ldr	r3, [r7, #36]
 515 0050 0093     		str	r3, [sp]
 516 0052 7868     		ldr	r0, [r7, #4]
 517 0054 2346     		mov	r3, r4
 518 0056 FFF7FEFF 		bl	u8g_DrawHXBM
 129:u8glib_arm_v1.18.1\src/u8g_bitmap.c ****     bitmap += b;
 519              		.loc 1 129 0
 520 005a FB7B     		ldrb	r3, [r7, #15]	@ zero_extendqisi2
 521 005c 7A6A     		ldr	r2, [r7, #36]
 522 005e 1344     		add	r3, r3, r2
 523 0060 7B62     		str	r3, [r7, #36]
 130:u8glib_arm_v1.18.1\src/u8g_bitmap.c ****     y++;
 524              		.loc 1 130 0
 525 0062 BB78     		ldrb	r3, [r7, #2]	@ zero_extendqisi2
 526 0064 0133     		adds	r3, r3, #1
 527 0066 BB70     		strb	r3, [r7, #2]
 131:u8glib_arm_v1.18.1\src/u8g_bitmap.c ****     h--;
 528              		.loc 1 131 0
 529 0068 97F82030 		ldrb	r3, [r7, #32]	@ zero_extendqisi2
 530 006c 013B     		subs	r3, r3, #1
 531 006e 87F82030 		strb	r3, [r7, #32]
 532              	.L26:
 126:u8glib_arm_v1.18.1\src/u8g_bitmap.c ****   {
 533              		.loc 1 126 0
 534 0072 97F82030 		ldrb	r3, [r7, #32]	@ zero_extendqisi2
 535 0076 002B     		cmp	r3, #0
 536 0078 E6D1     		bne	.L27
 537              	.L23:
 132:u8glib_arm_v1.18.1\src/u8g_bitmap.c ****   }
 133:u8glib_arm_v1.18.1\src/u8g_bitmap.c **** }
 538              		.loc 1 133 0
 539 007a 1437     		adds	r7, r7, #20
 540              		.cfi_def_cfa_offset 12
 541 007c BD46     		mov	sp, r7
 542              		.cfi_def_cfa_register 13
 543              		@ sp needed
 544 007e 90BD     		pop	{r4, r7, pc}
 545              		.cfi_endproc
ARM GAS  C:\Users\KJA\AppData\Local\Temp\ccpFk6WD.s 			page 13


 546              	.LFE5:
 547              		.size	u8g_DrawXBM, .-u8g_DrawXBM
 548              		.section	.text.u8g_DrawHXBMP,"ax",%progbits
 549              		.align	2
 550              		.thumb
 551              		.thumb_func
 552              		.type	u8g_DrawHXBMP, %function
 553              	u8g_DrawHXBMP:
 554              	.LFB6:
 134:u8glib_arm_v1.18.1\src/u8g_bitmap.c **** 
 135:u8glib_arm_v1.18.1\src/u8g_bitmap.c **** static void u8g_DrawHXBMP(u8g_t *u8g, u8g_uint_t x, u8g_uint_t y, u8g_uint_t w, const u8g_pgm_uint8
 136:u8glib_arm_v1.18.1\src/u8g_bitmap.c **** {
 555              		.loc 1 136 0
 556              		.cfi_startproc
 557              		@ args = 4, pretend = 0, frame = 16
 558              		@ frame_needed = 1, uses_anonymous_args = 0
 559 0000 80B5     		push	{r7, lr}
 560              		.cfi_def_cfa_offset 8
 561              		.cfi_offset 7, -8
 562              		.cfi_offset 14, -4
 563 0002 86B0     		sub	sp, sp, #24
 564              		.cfi_def_cfa_offset 32
 565 0004 02AF     		add	r7, sp, #8
 566              		.cfi_def_cfa 7, 24
 567 0006 7860     		str	r0, [r7, #4]
 568 0008 0846     		mov	r0, r1
 569 000a 1146     		mov	r1, r2
 570 000c 1A46     		mov	r2, r3
 571 000e 0346     		mov	r3, r0
 572 0010 FB70     		strb	r3, [r7, #3]
 573 0012 0B46     		mov	r3, r1
 574 0014 BB70     		strb	r3, [r7, #2]
 575 0016 1346     		mov	r3, r2
 576 0018 7B70     		strb	r3, [r7, #1]
 137:u8glib_arm_v1.18.1\src/u8g_bitmap.c ****   uint8_t d;
 138:u8glib_arm_v1.18.1\src/u8g_bitmap.c ****   x+=7;
 577              		.loc 1 138 0
 578 001a FB78     		ldrb	r3, [r7, #3]
 579 001c 0733     		adds	r3, r3, #7
 580 001e FB70     		strb	r3, [r7, #3]
 139:u8glib_arm_v1.18.1\src/u8g_bitmap.c ****   while( w >= 8 )
 581              		.loc 1 139 0
 582 0020 11E0     		b	.L29
 583              	.L30:
 140:u8glib_arm_v1.18.1\src/u8g_bitmap.c ****   {
 141:u8glib_arm_v1.18.1\src/u8g_bitmap.c ****     u8g_Draw8Pixel(u8g, x, y, 2, u8g_pgm_read(bitmap));
 584              		.loc 1 141 0
 585 0022 BB69     		ldr	r3, [r7, #24]
 586 0024 1B78     		ldrb	r3, [r3]	@ zero_extendqisi2
 587 0026 F978     		ldrb	r1, [r7, #3]	@ zero_extendqisi2
 588 0028 BA78     		ldrb	r2, [r7, #2]	@ zero_extendqisi2
 589 002a 0093     		str	r3, [sp]
 590 002c 7868     		ldr	r0, [r7, #4]
 591 002e 0223     		movs	r3, #2
 592 0030 FFF7FEFF 		bl	u8g_Draw8Pixel
 142:u8glib_arm_v1.18.1\src/u8g_bitmap.c ****     bitmap++;
 593              		.loc 1 142 0
ARM GAS  C:\Users\KJA\AppData\Local\Temp\ccpFk6WD.s 			page 14


 594 0034 BB69     		ldr	r3, [r7, #24]
 595 0036 0133     		adds	r3, r3, #1
 596 0038 BB61     		str	r3, [r7, #24]
 143:u8glib_arm_v1.18.1\src/u8g_bitmap.c ****     w-= 8;
 597              		.loc 1 143 0
 598 003a 7B78     		ldrb	r3, [r7, #1]
 599 003c 083B     		subs	r3, r3, #8
 600 003e 7B70     		strb	r3, [r7, #1]
 144:u8glib_arm_v1.18.1\src/u8g_bitmap.c ****     x+=8;
 601              		.loc 1 144 0
 602 0040 FB78     		ldrb	r3, [r7, #3]
 603 0042 0833     		adds	r3, r3, #8
 604 0044 FB70     		strb	r3, [r7, #3]
 605              	.L29:
 139:u8glib_arm_v1.18.1\src/u8g_bitmap.c ****   {
 606              		.loc 1 139 0
 607 0046 7B78     		ldrb	r3, [r7, #1]	@ zero_extendqisi2
 608 0048 072B     		cmp	r3, #7
 609 004a EAD8     		bhi	.L30
 145:u8glib_arm_v1.18.1\src/u8g_bitmap.c ****   }
 146:u8glib_arm_v1.18.1\src/u8g_bitmap.c ****   if ( w > 0 )
 610              		.loc 1 146 0
 611 004c 7B78     		ldrb	r3, [r7, #1]	@ zero_extendqisi2
 612 004e 002B     		cmp	r3, #0
 613 0050 1DD0     		beq	.L28
 147:u8glib_arm_v1.18.1\src/u8g_bitmap.c ****   {
 148:u8glib_arm_v1.18.1\src/u8g_bitmap.c ****     d = u8g_pgm_read(bitmap);
 614              		.loc 1 148 0
 615 0052 BB69     		ldr	r3, [r7, #24]
 616 0054 1B78     		ldrb	r3, [r3]
 617 0056 FB73     		strb	r3, [r7, #15]
 149:u8glib_arm_v1.18.1\src/u8g_bitmap.c ****     x -= 7;
 618              		.loc 1 149 0
 619 0058 FB78     		ldrb	r3, [r7, #3]
 620 005a 073B     		subs	r3, r3, #7
 621 005c FB70     		strb	r3, [r7, #3]
 622              	.L33:
 150:u8glib_arm_v1.18.1\src/u8g_bitmap.c ****     do
 151:u8glib_arm_v1.18.1\src/u8g_bitmap.c ****     {
 152:u8glib_arm_v1.18.1\src/u8g_bitmap.c ****       if ( d & 1 )
 623              		.loc 1 152 0
 624 005e FB7B     		ldrb	r3, [r7, #15]	@ zero_extendqisi2
 625 0060 03F00103 		and	r3, r3, #1
 626 0064 002B     		cmp	r3, #0
 627 0066 06D0     		beq	.L32
 153:u8glib_arm_v1.18.1\src/u8g_bitmap.c ****         u8g_DrawPixel(u8g, x, y);
 628              		.loc 1 153 0
 629 0068 FA78     		ldrb	r2, [r7, #3]	@ zero_extendqisi2
 630 006a BB78     		ldrb	r3, [r7, #2]	@ zero_extendqisi2
 631 006c 7868     		ldr	r0, [r7, #4]
 632 006e 1146     		mov	r1, r2
 633 0070 1A46     		mov	r2, r3
 634 0072 FFF7FEFF 		bl	u8g_DrawPixel
 635              	.L32:
 154:u8glib_arm_v1.18.1\src/u8g_bitmap.c ****       x++;
 636              		.loc 1 154 0
 637 0076 FB78     		ldrb	r3, [r7, #3]	@ zero_extendqisi2
ARM GAS  C:\Users\KJA\AppData\Local\Temp\ccpFk6WD.s 			page 15


 638 0078 0133     		adds	r3, r3, #1
 639 007a FB70     		strb	r3, [r7, #3]
 155:u8glib_arm_v1.18.1\src/u8g_bitmap.c ****       w--;
 640              		.loc 1 155 0
 641 007c 7B78     		ldrb	r3, [r7, #1]	@ zero_extendqisi2
 642 007e 013B     		subs	r3, r3, #1
 643 0080 7B70     		strb	r3, [r7, #1]
 156:u8glib_arm_v1.18.1\src/u8g_bitmap.c ****       d >>= 1;      
 644              		.loc 1 156 0
 645 0082 FB7B     		ldrb	r3, [r7, #15]	@ zero_extendqisi2
 646 0084 5B08     		lsrs	r3, r3, #1
 647 0086 FB73     		strb	r3, [r7, #15]
 157:u8glib_arm_v1.18.1\src/u8g_bitmap.c ****     } while ( w > 0 );
 648              		.loc 1 157 0
 649 0088 7B78     		ldrb	r3, [r7, #1]	@ zero_extendqisi2
 650 008a 002B     		cmp	r3, #0
 651 008c E7D1     		bne	.L33
 652              	.L28:
 158:u8glib_arm_v1.18.1\src/u8g_bitmap.c ****   }
 159:u8glib_arm_v1.18.1\src/u8g_bitmap.c **** }
 653              		.loc 1 159 0
 654 008e 1037     		adds	r7, r7, #16
 655              		.cfi_def_cfa_offset 8
 656 0090 BD46     		mov	sp, r7
 657              		.cfi_def_cfa_register 13
 658              		@ sp needed
 659 0092 80BD     		pop	{r7, pc}
 660              		.cfi_endproc
 661              	.LFE6:
 662              		.size	u8g_DrawHXBMP, .-u8g_DrawHXBMP
 663              		.section	.text.u8g_DrawXBMP,"ax",%progbits
 664              		.align	2
 665              		.global	u8g_DrawXBMP
 666              		.thumb
 667              		.thumb_func
 668              		.type	u8g_DrawXBMP, %function
 669              	u8g_DrawXBMP:
 670              	.LFB7:
 160:u8glib_arm_v1.18.1\src/u8g_bitmap.c **** 
 161:u8glib_arm_v1.18.1\src/u8g_bitmap.c **** void u8g_DrawXBMP(u8g_t *u8g, u8g_uint_t x, u8g_uint_t y, u8g_uint_t w, u8g_uint_t h, const u8g_pgm
 162:u8glib_arm_v1.18.1\src/u8g_bitmap.c **** {
 671              		.loc 1 162 0
 672              		.cfi_startproc
 673              		@ args = 8, pretend = 0, frame = 16
 674              		@ frame_needed = 1, uses_anonymous_args = 0
 675 0000 90B5     		push	{r4, r7, lr}
 676              		.cfi_def_cfa_offset 12
 677              		.cfi_offset 4, -12
 678              		.cfi_offset 7, -8
 679              		.cfi_offset 14, -4
 680 0002 87B0     		sub	sp, sp, #28
 681              		.cfi_def_cfa_offset 40
 682 0004 02AF     		add	r7, sp, #8
 683              		.cfi_def_cfa 7, 32
 684 0006 7860     		str	r0, [r7, #4]
 685 0008 0846     		mov	r0, r1
 686 000a 1146     		mov	r1, r2
ARM GAS  C:\Users\KJA\AppData\Local\Temp\ccpFk6WD.s 			page 16


 687 000c 1A46     		mov	r2, r3
 688 000e 0346     		mov	r3, r0
 689 0010 FB70     		strb	r3, [r7, #3]
 690 0012 0B46     		mov	r3, r1
 691 0014 BB70     		strb	r3, [r7, #2]
 692 0016 1346     		mov	r3, r2
 693 0018 7B70     		strb	r3, [r7, #1]
 163:u8glib_arm_v1.18.1\src/u8g_bitmap.c ****   u8g_uint_t b;
 164:u8glib_arm_v1.18.1\src/u8g_bitmap.c ****   b = w;
 694              		.loc 1 164 0
 695 001a 7B78     		ldrb	r3, [r7, #1]
 696 001c FB73     		strb	r3, [r7, #15]
 165:u8glib_arm_v1.18.1\src/u8g_bitmap.c ****   b += 7;
 697              		.loc 1 165 0
 698 001e FB7B     		ldrb	r3, [r7, #15]
 699 0020 0733     		adds	r3, r3, #7
 700 0022 FB73     		strb	r3, [r7, #15]
 166:u8glib_arm_v1.18.1\src/u8g_bitmap.c ****   b >>= 3;
 701              		.loc 1 166 0
 702 0024 FB7B     		ldrb	r3, [r7, #15]	@ zero_extendqisi2
 703 0026 DB08     		lsrs	r3, r3, #3
 704 0028 FB73     		strb	r3, [r7, #15]
 167:u8glib_arm_v1.18.1\src/u8g_bitmap.c ****   
 168:u8glib_arm_v1.18.1\src/u8g_bitmap.c ****   if ( u8g_IsBBXIntersection(u8g, x, y, w, h) == 0 )
 705              		.loc 1 168 0
 706 002a F978     		ldrb	r1, [r7, #3]	@ zero_extendqisi2
 707 002c BA78     		ldrb	r2, [r7, #2]	@ zero_extendqisi2
 708 002e 7C78     		ldrb	r4, [r7, #1]	@ zero_extendqisi2
 709 0030 97F82030 		ldrb	r3, [r7, #32]	@ zero_extendqisi2
 710 0034 0093     		str	r3, [sp]
 711 0036 7868     		ldr	r0, [r7, #4]
 712 0038 2346     		mov	r3, r4
 713 003a FFF7FEFF 		bl	u8g_IsBBXIntersection
 714 003e 0346     		mov	r3, r0
 715 0040 002B     		cmp	r3, #0
 716 0042 00D1     		bne	.L35
 169:u8glib_arm_v1.18.1\src/u8g_bitmap.c ****     return;
 717              		.loc 1 169 0
 718 0044 19E0     		b	.L34
 719              	.L35:
 170:u8glib_arm_v1.18.1\src/u8g_bitmap.c ****   while( h > 0 )
 720              		.loc 1 170 0
 721 0046 14E0     		b	.L37
 722              	.L38:
 171:u8glib_arm_v1.18.1\src/u8g_bitmap.c ****   {
 172:u8glib_arm_v1.18.1\src/u8g_bitmap.c ****     u8g_DrawHXBMP(u8g, x, y, w, bitmap);
 723              		.loc 1 172 0
 724 0048 F978     		ldrb	r1, [r7, #3]	@ zero_extendqisi2
 725 004a BA78     		ldrb	r2, [r7, #2]	@ zero_extendqisi2
 726 004c 7C78     		ldrb	r4, [r7, #1]	@ zero_extendqisi2
 727 004e 7B6A     		ldr	r3, [r7, #36]
 728 0050 0093     		str	r3, [sp]
 729 0052 7868     		ldr	r0, [r7, #4]
 730 0054 2346     		mov	r3, r4
 731 0056 FFF7FEFF 		bl	u8g_DrawHXBMP
 173:u8glib_arm_v1.18.1\src/u8g_bitmap.c ****     bitmap += b;
 732              		.loc 1 173 0
ARM GAS  C:\Users\KJA\AppData\Local\Temp\ccpFk6WD.s 			page 17


 733 005a FB7B     		ldrb	r3, [r7, #15]	@ zero_extendqisi2
 734 005c 7A6A     		ldr	r2, [r7, #36]
 735 005e 1344     		add	r3, r3, r2
 736 0060 7B62     		str	r3, [r7, #36]
 174:u8glib_arm_v1.18.1\src/u8g_bitmap.c ****     y++;
 737              		.loc 1 174 0
 738 0062 BB78     		ldrb	r3, [r7, #2]	@ zero_extendqisi2
 739 0064 0133     		adds	r3, r3, #1
 740 0066 BB70     		strb	r3, [r7, #2]
 175:u8glib_arm_v1.18.1\src/u8g_bitmap.c ****     h--;
 741              		.loc 1 175 0
 742 0068 97F82030 		ldrb	r3, [r7, #32]	@ zero_extendqisi2
 743 006c 013B     		subs	r3, r3, #1
 744 006e 87F82030 		strb	r3, [r7, #32]
 745              	.L37:
 170:u8glib_arm_v1.18.1\src/u8g_bitmap.c ****   {
 746              		.loc 1 170 0
 747 0072 97F82030 		ldrb	r3, [r7, #32]	@ zero_extendqisi2
 748 0076 002B     		cmp	r3, #0
 749 0078 E6D1     		bne	.L38
 750              	.L34:
 176:u8glib_arm_v1.18.1\src/u8g_bitmap.c ****   }
 177:u8glib_arm_v1.18.1\src/u8g_bitmap.c **** }
 751              		.loc 1 177 0
 752 007a 1437     		adds	r7, r7, #20
 753              		.cfi_def_cfa_offset 12
 754 007c BD46     		mov	sp, r7
 755              		.cfi_def_cfa_register 13
 756              		@ sp needed
 757 007e 90BD     		pop	{r4, r7, pc}
 758              		.cfi_endproc
 759              	.LFE7:
 760              		.size	u8g_DrawXBMP, .-u8g_DrawXBMP
 761              		.text
 762              	.Letext0:
 763              		.file 2 "c:\\program files (x86)\\cypress\\psoc creator\\4.0\\psoc creator\\import\\gnu\\arm\\4.9.
 764              		.file 3 "c:\\program files (x86)\\cypress\\psoc creator\\4.0\\psoc creator\\import\\gnu\\arm\\4.9.
 765              		.file 4 "u8glib_arm_v1.18.1\\src\\u8g.h"