ARM GAS  C:\Users\Shiguruy\AppData\Local\Temp\ccbiG4Yr.s 			page 1


   1              		.syntax unified
   2              		.cpu cortex-m3
   3              		.fpu softvfp
   4              		.eabi_attribute 20, 1
   5              		.eabi_attribute 21, 1
   6              		.eabi_attribute 23, 3
   7              		.eabi_attribute 24, 1
   8              		.eabi_attribute 25, 1
   9              		.eabi_attribute 26, 1
  10              		.eabi_attribute 30, 6
  11              		.eabi_attribute 34, 1
  12              		.eabi_attribute 18, 4
  13              		.thumb
  14              		.file	"u8g_dev_ssd1327_96x96_gr.c"
  15              		.text
  16              	.Ltext0:
  17              		.cfi_sections	.debug_frame
  18              		.section	.rodata
  19              		.align	2
  20              		.type	u8g_dev_ssd1327_2bit_96x96_init_seq, %object
  21              		.size	u8g_dev_ssd1327_2bit_96x96_init_seq, 94
  22              	u8g_dev_ssd1327_2bit_96x96_init_seq:
  23 0000 FF       		.byte	-1
  24 0001 0A       		.byte	10
  25 0002 FF       		.byte	-1
  26 0003 D0       		.byte	-48
  27 0004 FF       		.byte	-1
  28 0005 E0       		.byte	-32
  29 0006 FF       		.byte	-1
  30 0007 C1       		.byte	-63
  31 0008 FF       		.byte	-1
  32 0009 D1       		.byte	-47
  33 000a FD       		.byte	-3
  34 000b 12       		.byte	18
  35 000c AE       		.byte	-82
  36 000d A8       		.byte	-88
  37 000e 5F       		.byte	95
  38 000f A1       		.byte	-95
  39 0010 00       		.byte	0
  40 0011 A2       		.byte	-94
  41 0012 60       		.byte	96
  42 0013 A0       		.byte	-96
  43 0014 46       		.byte	70
  44 0015 AB       		.byte	-85
  45 0016 01       		.byte	1
  46 0017 81       		.byte	-127
  47 0018 53       		.byte	83
  48 0019 B1       		.byte	-79
  49 001a 51       		.byte	81
  50 001b B3       		.byte	-77
  51 001c 01       		.byte	1
  52 001d B9       		.byte	-71
  53 001e BC       		.byte	-68
  54 001f 08       		.byte	8
  55 0020 BE       		.byte	-66
  56 0021 07       		.byte	7
  57 0022 B6       		.byte	-74
ARM GAS  C:\Users\Shiguruy\AppData\Local\Temp\ccbiG4Yr.s 			page 2


  58 0023 01       		.byte	1
  59 0024 D5       		.byte	-43
  60 0025 62       		.byte	98
  61 0026 A5       		.byte	-91
  62 0027 AF       		.byte	-81
  63 0028 FF       		.byte	-1
  64 0029 64       		.byte	100
  65 002a A4       		.byte	-92
  66 002b FF       		.byte	-1
  67 002c 64       		.byte	100
  68 002d A5       		.byte	-91
  69 002e AF       		.byte	-81
  70 002f FF       		.byte	-1
  71 0030 64       		.byte	100
  72 0031 A4       		.byte	-92
  73 0032 15       		.byte	21
  74 0033 08       		.byte	8
  75 0034 37       		.byte	55
  76 0035 75       		.byte	117
  77 0036 08       		.byte	8
  78 0037 5F       		.byte	95
  79 0038 FF       		.byte	-1
  80 0039 E1       		.byte	-31
  81 003a 0F       		.byte	15
  82 003b 0F       		.byte	15
  83 003c 00       		.byte	0
  84 003d 00       		.byte	0
  85 003e 0F       		.byte	15
  86 003f 0F       		.byte	15
  87 0040 00       		.byte	0
  88 0041 00       		.byte	0
  89 0042 0F       		.byte	15
  90 0043 0F       		.byte	15
  91 0044 00       		.byte	0
  92 0045 00       		.byte	0
  93 0046 0F       		.byte	15
  94 0047 0F       		.byte	15
  95 0048 00       		.byte	0
  96 0049 00       		.byte	0
  97 004a 0F       		.byte	15
  98 004b 0F       		.byte	15
  99 004c 00       		.byte	0
 100 004d 00       		.byte	0
 101 004e 0F       		.byte	15
 102 004f 0F       		.byte	15
 103 0050 00       		.byte	0
 104 0051 00       		.byte	0
 105 0052 0F       		.byte	15
 106 0053 0F       		.byte	15
 107 0054 00       		.byte	0
 108 0055 00       		.byte	0
 109 0056 0F       		.byte	15
 110 0057 0F       		.byte	15
 111 0058 00       		.byte	0
 112 0059 00       		.byte	0
 113 005a FF       		.byte	-1
 114 005b D0       		.byte	-48
ARM GAS  C:\Users\Shiguruy\AppData\Local\Temp\ccbiG4Yr.s 			page 3


 115 005c FF       		.byte	-1
 116 005d FE       		.byte	-2
 117 005e 0000     		.align	2
 118              		.type	u8g_dev_ssd1327_2bit_96x96_prepare_page_seq, %object
 119              		.size	u8g_dev_ssd1327_2bit_96x96_prepare_page_seq, 10
 120              	u8g_dev_ssd1327_2bit_96x96_prepare_page_seq:
 121 0060 FF       		.byte	-1
 122 0061 E0       		.byte	-32
 123 0062 FF       		.byte	-1
 124 0063 D1       		.byte	-47
 125 0064 15       		.byte	21
 126 0065 08       		.byte	8
 127 0066 37       		.byte	55
 128 0067 75       		.byte	117
 129 0068 FF       		.byte	-1
 130 0069 FE       		.byte	-2
 131 006a 0000     		.section	.text.u8g_dev_ssd1327_2bit_prepare_page,"ax",%progbits
 132              		.align	2
 133              		.thumb
 134              		.thumb_func
 135              		.type	u8g_dev_ssd1327_2bit_prepare_page, %function
 136              	u8g_dev_ssd1327_2bit_prepare_page:
 137              	.LFB0:
 138              		.file 1 ".\\u8glib_arm_v1.18.1\\src\\u8g_dev_ssd1327_96x96_gr.c"
   1:.\u8glib_arm_v1.18.1\src/u8g_dev_ssd1327_96x96_gr.c **** /*
   2:.\u8glib_arm_v1.18.1\src/u8g_dev_ssd1327_96x96_gr.c **** 
   3:.\u8glib_arm_v1.18.1\src/u8g_dev_ssd1327_96x96_gr.c ****   u8g_dev_ssd1327_96x96_gr.c
   4:.\u8glib_arm_v1.18.1\src/u8g_dev_ssd1327_96x96_gr.c ****   
   5:.\u8glib_arm_v1.18.1\src/u8g_dev_ssd1327_96x96_gr.c ****   2-Bit (graylevel) Driver for SSD1327 Controller (OLED Display)
   6:.\u8glib_arm_v1.18.1\src/u8g_dev_ssd1327_96x96_gr.c ****   Tested with Seedstudio 96x96 Oled (LY120)
   7:.\u8glib_arm_v1.18.1\src/u8g_dev_ssd1327_96x96_gr.c ****   http://www.seeedstudio.com/wiki/index.php?title=Twig_-_OLED_96x96
   8:.\u8glib_arm_v1.18.1\src/u8g_dev_ssd1327_96x96_gr.c **** 
   9:.\u8glib_arm_v1.18.1\src/u8g_dev_ssd1327_96x96_gr.c ****   Universal 8bit Graphics Library
  10:.\u8glib_arm_v1.18.1\src/u8g_dev_ssd1327_96x96_gr.c ****   
  11:.\u8glib_arm_v1.18.1\src/u8g_dev_ssd1327_96x96_gr.c ****   Copyright (c) 2012, olikraus@gmail.com
  12:.\u8glib_arm_v1.18.1\src/u8g_dev_ssd1327_96x96_gr.c ****   All rights reserved.
  13:.\u8glib_arm_v1.18.1\src/u8g_dev_ssd1327_96x96_gr.c **** 
  14:.\u8glib_arm_v1.18.1\src/u8g_dev_ssd1327_96x96_gr.c ****   Redistribution and use in source and binary forms, with or without modification, 
  15:.\u8glib_arm_v1.18.1\src/u8g_dev_ssd1327_96x96_gr.c ****   are permitted provided that the following conditions are met:
  16:.\u8glib_arm_v1.18.1\src/u8g_dev_ssd1327_96x96_gr.c **** 
  17:.\u8glib_arm_v1.18.1\src/u8g_dev_ssd1327_96x96_gr.c ****   * Redistributions of source code must retain the above copyright notice, this list 
  18:.\u8glib_arm_v1.18.1\src/u8g_dev_ssd1327_96x96_gr.c ****     of conditions and the following disclaimer.
  19:.\u8glib_arm_v1.18.1\src/u8g_dev_ssd1327_96x96_gr.c ****     
  20:.\u8glib_arm_v1.18.1\src/u8g_dev_ssd1327_96x96_gr.c ****   * Redistributions in binary form must reproduce the above copyright notice, this 
  21:.\u8glib_arm_v1.18.1\src/u8g_dev_ssd1327_96x96_gr.c ****     list of conditions and the following disclaimer in the documentation and/or other 
  22:.\u8glib_arm_v1.18.1\src/u8g_dev_ssd1327_96x96_gr.c ****     materials provided with the distribution.
  23:.\u8glib_arm_v1.18.1\src/u8g_dev_ssd1327_96x96_gr.c **** 
  24:.\u8glib_arm_v1.18.1\src/u8g_dev_ssd1327_96x96_gr.c ****   THIS SOFTWARE IS PROVIDED BY THE COPYRIGHT HOLDERS AND 
  25:.\u8glib_arm_v1.18.1\src/u8g_dev_ssd1327_96x96_gr.c ****   CONTRIBUTORS "AS IS" AND ANY EXPRESS OR IMPLIED WARRANTIES, 
  26:.\u8glib_arm_v1.18.1\src/u8g_dev_ssd1327_96x96_gr.c ****   INCLUDING, BUT NOT LIMITED TO, THE IMPLIED WARRANTIES OF 
  27:.\u8glib_arm_v1.18.1\src/u8g_dev_ssd1327_96x96_gr.c ****   MERCHANTABILITY AND FITNESS FOR A PARTICULAR PURPOSE ARE 
  28:.\u8glib_arm_v1.18.1\src/u8g_dev_ssd1327_96x96_gr.c ****   DISCLAIMED. IN NO EVENT SHALL THE COPYRIGHT HOLDER OR 
  29:.\u8glib_arm_v1.18.1\src/u8g_dev_ssd1327_96x96_gr.c ****   CONTRIBUTORS BE LIABLE FOR ANY DIRECT, INDIRECT, INCIDENTAL, 
  30:.\u8glib_arm_v1.18.1\src/u8g_dev_ssd1327_96x96_gr.c ****   SPECIAL, EXEMPLARY, OR CONSEQUENTIAL DAMAGES (INCLUDING, BUT 
  31:.\u8glib_arm_v1.18.1\src/u8g_dev_ssd1327_96x96_gr.c ****   NOT LIMITED TO, PROCUREMENT OF SUBSTITUTE GOODS OR SERVICES; 
  32:.\u8glib_arm_v1.18.1\src/u8g_dev_ssd1327_96x96_gr.c ****   LOSS OF USE, DATA, OR PROFITS; OR BUSINESS INTERRUPTION) HOWEVER 
  33:.\u8glib_arm_v1.18.1\src/u8g_dev_ssd1327_96x96_gr.c ****   CAUSED AND ON ANY THEORY OF LIABILITY, WHETHER IN CONTRACT, 
ARM GAS  C:\Users\Shiguruy\AppData\Local\Temp\ccbiG4Yr.s 			page 4


  34:.\u8glib_arm_v1.18.1\src/u8g_dev_ssd1327_96x96_gr.c ****   STRICT LIABILITY, OR TORT (INCLUDING NEGLIGENCE OR OTHERWISE) 
  35:.\u8glib_arm_v1.18.1\src/u8g_dev_ssd1327_96x96_gr.c ****   ARISING IN ANY WAY OUT OF THE USE OF THIS SOFTWARE, EVEN IF 
  36:.\u8glib_arm_v1.18.1\src/u8g_dev_ssd1327_96x96_gr.c ****   ADVISED OF THE POSSIBILITY OF SUCH DAMAGE.  
  37:.\u8glib_arm_v1.18.1\src/u8g_dev_ssd1327_96x96_gr.c ****   
  38:.\u8glib_arm_v1.18.1\src/u8g_dev_ssd1327_96x96_gr.c ****   SSD130x       Monochrom OLED Controller
  39:.\u8glib_arm_v1.18.1\src/u8g_dev_ssd1327_96x96_gr.c ****   SSD131x       Character OLED Controller
  40:.\u8glib_arm_v1.18.1\src/u8g_dev_ssd1327_96x96_gr.c ****   SSD132x       Graylevel OLED Controller
  41:.\u8glib_arm_v1.18.1\src/u8g_dev_ssd1327_96x96_gr.c ****   SSD1331       Color OLED Controller       
  42:.\u8glib_arm_v1.18.1\src/u8g_dev_ssd1327_96x96_gr.c **** 
  43:.\u8glib_arm_v1.18.1\src/u8g_dev_ssd1327_96x96_gr.c **** */
  44:.\u8glib_arm_v1.18.1\src/u8g_dev_ssd1327_96x96_gr.c **** 
  45:.\u8glib_arm_v1.18.1\src/u8g_dev_ssd1327_96x96_gr.c **** #include "u8g.h"
  46:.\u8glib_arm_v1.18.1\src/u8g_dev_ssd1327_96x96_gr.c **** 
  47:.\u8glib_arm_v1.18.1\src/u8g_dev_ssd1327_96x96_gr.c **** #define WIDTH 96
  48:.\u8glib_arm_v1.18.1\src/u8g_dev_ssd1327_96x96_gr.c **** #define HEIGHT 96
  49:.\u8glib_arm_v1.18.1\src/u8g_dev_ssd1327_96x96_gr.c **** #define XOFFSET 8
  50:.\u8glib_arm_v1.18.1\src/u8g_dev_ssd1327_96x96_gr.c **** 
  51:.\u8glib_arm_v1.18.1\src/u8g_dev_ssd1327_96x96_gr.c **** /*  
  52:.\u8glib_arm_v1.18.1\src/u8g_dev_ssd1327_96x96_gr.c ****   http://www.seeedstudio.com/wiki/index.php?title=Twig_-_OLED_96x96
  53:.\u8glib_arm_v1.18.1\src/u8g_dev_ssd1327_96x96_gr.c **** */
  54:.\u8glib_arm_v1.18.1\src/u8g_dev_ssd1327_96x96_gr.c **** static const uint8_t u8g_dev_ssd1327_2bit_96x96_init_seq[] PROGMEM = {
  55:.\u8glib_arm_v1.18.1\src/u8g_dev_ssd1327_96x96_gr.c ****   U8G_ESC_DLY(10),              /* delay 10 ms */
  56:.\u8glib_arm_v1.18.1\src/u8g_dev_ssd1327_96x96_gr.c ****   U8G_ESC_CS(0),                 /* disable chip */
  57:.\u8glib_arm_v1.18.1\src/u8g_dev_ssd1327_96x96_gr.c ****   U8G_ESC_ADR(0),               /* instruction mode */
  58:.\u8glib_arm_v1.18.1\src/u8g_dev_ssd1327_96x96_gr.c ****   U8G_ESC_RST(1),               /* do reset low pulse with (1*16)+2 milliseconds */
  59:.\u8glib_arm_v1.18.1\src/u8g_dev_ssd1327_96x96_gr.c ****   U8G_ESC_CS(1),                /* enable chip */
  60:.\u8glib_arm_v1.18.1\src/u8g_dev_ssd1327_96x96_gr.c ****   0x0fd, 0x012,			/* unlock display, usually not required because the display is unlocked after res
  61:.\u8glib_arm_v1.18.1\src/u8g_dev_ssd1327_96x96_gr.c ****   0x0ae,             			/* display off, sleep mode */
  62:.\u8glib_arm_v1.18.1\src/u8g_dev_ssd1327_96x96_gr.c ****   0x0a8, 0x05f,			/* multiplex ratio: 0x05f * 1/64 duty */
  63:.\u8glib_arm_v1.18.1\src/u8g_dev_ssd1327_96x96_gr.c ****   0x0a1, 0x000,            		/* display start line */
  64:.\u8glib_arm_v1.18.1\src/u8g_dev_ssd1327_96x96_gr.c ****   0x0a2, 0x060,           		/* display offset, shift mapping ram counter */
  65:.\u8glib_arm_v1.18.1\src/u8g_dev_ssd1327_96x96_gr.c ****   //0x0a2, 0x04c,           		/* NHD: display offset, shift mapping ram counter */
  66:.\u8glib_arm_v1.18.1\src/u8g_dev_ssd1327_96x96_gr.c ****   0x0a0, 0x046,  			/* remap configuration, vertical address increment, enable nibble remap (upper 
  67:.\u8glib_arm_v1.18.1\src/u8g_dev_ssd1327_96x96_gr.c ****   //0x0a0, 0x056,  			/* NHD: remap configuration, vertical address increment, enable nibble remap 
  68:.\u8glib_arm_v1.18.1\src/u8g_dev_ssd1327_96x96_gr.c ****   0x0ab, 0x001,			/* Enable internal VDD regulator (RESET) */
  69:.\u8glib_arm_v1.18.1\src/u8g_dev_ssd1327_96x96_gr.c ****   0x081, 0x053,          		/* contrast, brightness, 0..128, Newhaven: 0x040, LY120 0x053, 0x070 see
  70:.\u8glib_arm_v1.18.1\src/u8g_dev_ssd1327_96x96_gr.c ****   0x0b1, 0x051,          		/* phase length */
  71:.\u8glib_arm_v1.18.1\src/u8g_dev_ssd1327_96x96_gr.c ****   0x0b3, 0x001,           		/* set display clock divide ratio/oscillator frequency */
  72:.\u8glib_arm_v1.18.1\src/u8g_dev_ssd1327_96x96_gr.c ****   0x0b9,					/* use linear lookup table */
  73:.\u8glib_arm_v1.18.1\src/u8g_dev_ssd1327_96x96_gr.c **** #if 0
  74:.\u8glib_arm_v1.18.1\src/u8g_dev_ssd1327_96x96_gr.c ****   0x0b8,                                /* set gray scale table */
  75:.\u8glib_arm_v1.18.1\src/u8g_dev_ssd1327_96x96_gr.c ****       //0x01, 0x011, 0x022, 0x032, 0x043, 0x054, 0x065, 0x076,
  76:.\u8glib_arm_v1.18.1\src/u8g_dev_ssd1327_96x96_gr.c ****       0x01, 0x011, 0x022, 0x032, 0x043, 0x054, 0x077, 0x077,            // 4L mode uses 0, 2, 4, 7
  77:.\u8glib_arm_v1.18.1\src/u8g_dev_ssd1327_96x96_gr.c **** #endif  
  78:.\u8glib_arm_v1.18.1\src/u8g_dev_ssd1327_96x96_gr.c ****   0x0bc, 0x008,                    	/* pre-charge voltage level */
  79:.\u8glib_arm_v1.18.1\src/u8g_dev_ssd1327_96x96_gr.c ****   0x0be, 0x007,                     	/* VCOMH voltage */
  80:.\u8glib_arm_v1.18.1\src/u8g_dev_ssd1327_96x96_gr.c ****   0x0b6, 0x001,			/* second precharge */
  81:.\u8glib_arm_v1.18.1\src/u8g_dev_ssd1327_96x96_gr.c ****   0x0d5, 0x062,			/* enable second precharge, internal vsl (bit0 = 0) */
  82:.\u8glib_arm_v1.18.1\src/u8g_dev_ssd1327_96x96_gr.c ****   
  83:.\u8glib_arm_v1.18.1\src/u8g_dev_ssd1327_96x96_gr.c **** #if 0
  84:.\u8glib_arm_v1.18.1\src/u8g_dev_ssd1327_96x96_gr.c ****   // the following commands are not used by the SeeedGrayOLED sequence */
  85:.\u8glib_arm_v1.18.1\src/u8g_dev_ssd1327_96x96_gr.c ****   0x0ad, 0x002,                     /* master configuration: disable embedded DC-DC, enable interna
  86:.\u8glib_arm_v1.18.1\src/u8g_dev_ssd1327_96x96_gr.c ****   0x086,                                /* full current range (0x084, 0x085, 0x086) */
  87:.\u8glib_arm_v1.18.1\src/u8g_dev_ssd1327_96x96_gr.c ****   0x0b2, 0x051,                    /* frame frequency (row period) */
  88:.\u8glib_arm_v1.18.1\src/u8g_dev_ssd1327_96x96_gr.c ****   0x0b4, 0x002,                    /* set pre-charge compensation level (not documented in the SDD1
  89:.\u8glib_arm_v1.18.1\src/u8g_dev_ssd1327_96x96_gr.c ****   0x0b0, 0x028,                    /* enable pre-charge compensation (not documented in the SDD1325
  90:.\u8glib_arm_v1.18.1\src/u8g_dev_ssd1327_96x96_gr.c ****   0x0bf, 0x002|0x00d,           /* VSL voltage level (not documented in the SDD1325 datasheet, but 
ARM GAS  C:\Users\Shiguruy\AppData\Local\Temp\ccbiG4Yr.s 			page 5


  91:.\u8glib_arm_v1.18.1\src/u8g_dev_ssd1327_96x96_gr.c **** #endif 
  92:.\u8glib_arm_v1.18.1\src/u8g_dev_ssd1327_96x96_gr.c **** 
  93:.\u8glib_arm_v1.18.1\src/u8g_dev_ssd1327_96x96_gr.c ****   0x0a5,                                 /* all pixel on */
  94:.\u8glib_arm_v1.18.1\src/u8g_dev_ssd1327_96x96_gr.c ****   //0x02e,					/* no scroll (according to SeeedGrayOLED sequence) */
  95:.\u8glib_arm_v1.18.1\src/u8g_dev_ssd1327_96x96_gr.c ****   0x0af,                                  /* display on */
  96:.\u8glib_arm_v1.18.1\src/u8g_dev_ssd1327_96x96_gr.c ****   U8G_ESC_DLY(100),             /* delay 100 ms */
  97:.\u8glib_arm_v1.18.1\src/u8g_dev_ssd1327_96x96_gr.c ****   0x0a4,                                 /* normal display mode */
  98:.\u8glib_arm_v1.18.1\src/u8g_dev_ssd1327_96x96_gr.c ****   U8G_ESC_DLY(100),             /* delay 100 ms */
  99:.\u8glib_arm_v1.18.1\src/u8g_dev_ssd1327_96x96_gr.c ****   0x0a5,                                 /* all pixel on */
 100:.\u8glib_arm_v1.18.1\src/u8g_dev_ssd1327_96x96_gr.c ****   0x0af,                                  /* display on */
 101:.\u8glib_arm_v1.18.1\src/u8g_dev_ssd1327_96x96_gr.c ****   U8G_ESC_DLY(100),             /* delay 100 ms */
 102:.\u8glib_arm_v1.18.1\src/u8g_dev_ssd1327_96x96_gr.c ****   0x0a4,                                 /* normal display mode */
 103:.\u8glib_arm_v1.18.1\src/u8g_dev_ssd1327_96x96_gr.c ****   
 104:.\u8glib_arm_v1.18.1\src/u8g_dev_ssd1327_96x96_gr.c ****   0x015,       /* column address... */
 105:.\u8glib_arm_v1.18.1\src/u8g_dev_ssd1327_96x96_gr.c ****   0x008,       /* start at column 8, special for the LY120 ??? */
 106:.\u8glib_arm_v1.18.1\src/u8g_dev_ssd1327_96x96_gr.c ****   0x037,       /* end at column 55, note: there are two pixel in one column */
 107:.\u8glib_arm_v1.18.1\src/u8g_dev_ssd1327_96x96_gr.c ****   
 108:.\u8glib_arm_v1.18.1\src/u8g_dev_ssd1327_96x96_gr.c ****   0x075,       /* row address... */
 109:.\u8glib_arm_v1.18.1\src/u8g_dev_ssd1327_96x96_gr.c ****   0x008,       
 110:.\u8glib_arm_v1.18.1\src/u8g_dev_ssd1327_96x96_gr.c ****   0x05f,       
 111:.\u8glib_arm_v1.18.1\src/u8g_dev_ssd1327_96x96_gr.c ****   
 112:.\u8glib_arm_v1.18.1\src/u8g_dev_ssd1327_96x96_gr.c ****   U8G_ESC_ADR(1),               /* data mode */
 113:.\u8glib_arm_v1.18.1\src/u8g_dev_ssd1327_96x96_gr.c ****   0x000f, 0x000f, 0x0000, 0x0000, 0x000f,0x000f,0x0000,0x0000,
 114:.\u8glib_arm_v1.18.1\src/u8g_dev_ssd1327_96x96_gr.c ****   0x000f, 0x000f, 0x0000, 0x0000, 0x000f,0x000f,0x0000,0x0000,
 115:.\u8glib_arm_v1.18.1\src/u8g_dev_ssd1327_96x96_gr.c ****   0x000f, 0x000f, 0x0000, 0x0000, 0x000f,0x000f,0x0000,0x0000,
 116:.\u8glib_arm_v1.18.1\src/u8g_dev_ssd1327_96x96_gr.c ****   0x000f, 0x000f, 0x0000, 0x0000, 0x000f,0x000f,0x0000,0x0000,
 117:.\u8glib_arm_v1.18.1\src/u8g_dev_ssd1327_96x96_gr.c ****   
 118:.\u8glib_arm_v1.18.1\src/u8g_dev_ssd1327_96x96_gr.c ****   U8G_ESC_CS(0),             /* disable chip */
 119:.\u8glib_arm_v1.18.1\src/u8g_dev_ssd1327_96x96_gr.c ****   U8G_ESC_END                /* end of sequence */
 120:.\u8glib_arm_v1.18.1\src/u8g_dev_ssd1327_96x96_gr.c **** };
 121:.\u8glib_arm_v1.18.1\src/u8g_dev_ssd1327_96x96_gr.c **** 
 122:.\u8glib_arm_v1.18.1\src/u8g_dev_ssd1327_96x96_gr.c **** static const uint8_t u8g_dev_ssd1327_2bit_96x96_prepare_page_seq[] PROGMEM = {
 123:.\u8glib_arm_v1.18.1\src/u8g_dev_ssd1327_96x96_gr.c ****   U8G_ESC_ADR(0),               /* instruction mode */
 124:.\u8glib_arm_v1.18.1\src/u8g_dev_ssd1327_96x96_gr.c ****   U8G_ESC_CS(1),                /* enable chip */
 125:.\u8glib_arm_v1.18.1\src/u8g_dev_ssd1327_96x96_gr.c ****   0x015,       /* column address... */
 126:.\u8glib_arm_v1.18.1\src/u8g_dev_ssd1327_96x96_gr.c ****   XOFFSET,       /* start at column 8, special for the LY120 ??? */
 127:.\u8glib_arm_v1.18.1\src/u8g_dev_ssd1327_96x96_gr.c ****   0x037,       /* end at column 55, note: there are two pixel in one column */
 128:.\u8glib_arm_v1.18.1\src/u8g_dev_ssd1327_96x96_gr.c ****   0x075,       /* row address... */
 129:.\u8glib_arm_v1.18.1\src/u8g_dev_ssd1327_96x96_gr.c ****   U8G_ESC_END                /* end of sequence */
 130:.\u8glib_arm_v1.18.1\src/u8g_dev_ssd1327_96x96_gr.c **** };
 131:.\u8glib_arm_v1.18.1\src/u8g_dev_ssd1327_96x96_gr.c **** 
 132:.\u8glib_arm_v1.18.1\src/u8g_dev_ssd1327_96x96_gr.c **** 
 133:.\u8glib_arm_v1.18.1\src/u8g_dev_ssd1327_96x96_gr.c **** static void u8g_dev_ssd1327_2bit_prepare_page(u8g_t *u8g, u8g_dev_t *dev)
 134:.\u8glib_arm_v1.18.1\src/u8g_dev_ssd1327_96x96_gr.c **** {
 139              		.loc 1 134 0
 140              		.cfi_startproc
 141              		@ args = 0, pretend = 0, frame = 16
 142              		@ frame_needed = 1, uses_anonymous_args = 0
 143 0000 80B5     		push	{r7, lr}
 144              		.cfi_def_cfa_offset 8
 145              		.cfi_offset 7, -8
 146              		.cfi_offset 14, -4
 147 0002 84B0     		sub	sp, sp, #16
 148              		.cfi_def_cfa_offset 24
 149 0004 00AF     		add	r7, sp, #0
 150              		.cfi_def_cfa_register 7
 151 0006 7860     		str	r0, [r7, #4]
ARM GAS  C:\Users\Shiguruy\AppData\Local\Temp\ccbiG4Yr.s 			page 6


 152 0008 3960     		str	r1, [r7]
 135:.\u8glib_arm_v1.18.1\src/u8g_dev_ssd1327_96x96_gr.c ****   uint8_t page = ((u8g_pb_t *)(dev->dev_mem))->p.page;
 153              		.loc 1 135 0
 154 000a 3B68     		ldr	r3, [r7]
 155 000c 5B68     		ldr	r3, [r3, #4]
 156 000e 1B79     		ldrb	r3, [r3, #4]
 157 0010 FB73     		strb	r3, [r7, #15]
 136:.\u8glib_arm_v1.18.1\src/u8g_dev_ssd1327_96x96_gr.c ****   
 137:.\u8glib_arm_v1.18.1\src/u8g_dev_ssd1327_96x96_gr.c ****   u8g_WriteEscSeqP(u8g, dev, u8g_dev_ssd1327_2bit_96x96_prepare_page_seq);
 158              		.loc 1 137 0
 159 0012 7868     		ldr	r0, [r7, #4]
 160 0014 3968     		ldr	r1, [r7]
 161 0016 0E4A     		ldr	r2, .L2
 162 0018 FFF7FEFF 		bl	u8g_WriteEscSeqP
 138:.\u8glib_arm_v1.18.1\src/u8g_dev_ssd1327_96x96_gr.c ****   
 139:.\u8glib_arm_v1.18.1\src/u8g_dev_ssd1327_96x96_gr.c ****   page <<= 2;
 163              		.loc 1 139 0
 164 001c FB7B     		ldrb	r3, [r7, #15]
 165 001e 9B00     		lsls	r3, r3, #2
 166 0020 FB73     		strb	r3, [r7, #15]
 140:.\u8glib_arm_v1.18.1\src/u8g_dev_ssd1327_96x96_gr.c ****   u8g_WriteByte(u8g, dev, page);       /* start at the selected page */
 167              		.loc 1 140 0
 168 0022 FB7B     		ldrb	r3, [r7, #15]	@ zero_extendqisi2
 169 0024 7868     		ldr	r0, [r7, #4]
 170 0026 3968     		ldr	r1, [r7]
 171 0028 1A46     		mov	r2, r3
 172 002a FFF7FEFF 		bl	u8g_WriteByte
 141:.\u8glib_arm_v1.18.1\src/u8g_dev_ssd1327_96x96_gr.c ****   page += 3;
 173              		.loc 1 141 0
 174 002e FB7B     		ldrb	r3, [r7, #15]
 175 0030 0333     		adds	r3, r3, #3
 176 0032 FB73     		strb	r3, [r7, #15]
 142:.\u8glib_arm_v1.18.1\src/u8g_dev_ssd1327_96x96_gr.c ****   u8g_WriteByte(u8g, dev, page);       /* end within the selected page */  
 177              		.loc 1 142 0
 178 0034 FB7B     		ldrb	r3, [r7, #15]	@ zero_extendqisi2
 179 0036 7868     		ldr	r0, [r7, #4]
 180 0038 3968     		ldr	r1, [r7]
 181 003a 1A46     		mov	r2, r3
 182 003c FFF7FEFF 		bl	u8g_WriteByte
 143:.\u8glib_arm_v1.18.1\src/u8g_dev_ssd1327_96x96_gr.c ****   
 144:.\u8glib_arm_v1.18.1\src/u8g_dev_ssd1327_96x96_gr.c ****   u8g_SetAddress(u8g, dev, 1);          /* data mode */
 183              		.loc 1 144 0
 184 0040 7868     		ldr	r0, [r7, #4]
 185 0042 3968     		ldr	r1, [r7]
 186 0044 0122     		movs	r2, #1
 187 0046 FFF7FEFF 		bl	u8g_SetAddress
 145:.\u8glib_arm_v1.18.1\src/u8g_dev_ssd1327_96x96_gr.c **** }
 188              		.loc 1 145 0
 189 004a 1037     		adds	r7, r7, #16
 190              		.cfi_def_cfa_offset 8
 191 004c BD46     		mov	sp, r7
 192              		.cfi_def_cfa_register 13
 193              		@ sp needed
 194 004e 80BD     		pop	{r7, pc}
 195              	.L3:
 196              		.align	2
 197              	.L2:
ARM GAS  C:\Users\Shiguruy\AppData\Local\Temp\ccbiG4Yr.s 			page 7


 198 0050 60000000 		.word	u8g_dev_ssd1327_2bit_96x96_prepare_page_seq
 199              		.cfi_endproc
 200              	.LFE0:
 201              		.size	u8g_dev_ssd1327_2bit_prepare_page, .-u8g_dev_ssd1327_2bit_prepare_page
 202              		.section	.text.u8g_dev_ssd1327_2bit_2x_prepare_page,"ax",%progbits
 203              		.align	2
 204              		.thumb
 205              		.thumb_func
 206              		.type	u8g_dev_ssd1327_2bit_2x_prepare_page, %function
 207              	u8g_dev_ssd1327_2bit_2x_prepare_page:
 208              	.LFB1:
 146:.\u8glib_arm_v1.18.1\src/u8g_dev_ssd1327_96x96_gr.c **** 
 147:.\u8glib_arm_v1.18.1\src/u8g_dev_ssd1327_96x96_gr.c **** static void u8g_dev_ssd1327_2bit_2x_prepare_page(u8g_t *u8g, u8g_dev_t *dev, uint8_t is_odd)
 148:.\u8glib_arm_v1.18.1\src/u8g_dev_ssd1327_96x96_gr.c **** {
 209              		.loc 1 148 0
 210              		.cfi_startproc
 211              		@ args = 0, pretend = 0, frame = 24
 212              		@ frame_needed = 1, uses_anonymous_args = 0
 213 0000 80B5     		push	{r7, lr}
 214              		.cfi_def_cfa_offset 8
 215              		.cfi_offset 7, -8
 216              		.cfi_offset 14, -4
 217 0002 86B0     		sub	sp, sp, #24
 218              		.cfi_def_cfa_offset 32
 219 0004 00AF     		add	r7, sp, #0
 220              		.cfi_def_cfa_register 7
 221 0006 F860     		str	r0, [r7, #12]
 222 0008 B960     		str	r1, [r7, #8]
 223 000a 1346     		mov	r3, r2
 224 000c FB71     		strb	r3, [r7, #7]
 149:.\u8glib_arm_v1.18.1\src/u8g_dev_ssd1327_96x96_gr.c ****   uint8_t page = ((u8g_pb_t *)(dev->dev_mem))->p.page;
 225              		.loc 1 149 0
 226 000e BB68     		ldr	r3, [r7, #8]
 227 0010 5B68     		ldr	r3, [r3, #4]
 228 0012 1B79     		ldrb	r3, [r3, #4]
 229 0014 FB75     		strb	r3, [r7, #23]
 150:.\u8glib_arm_v1.18.1\src/u8g_dev_ssd1327_96x96_gr.c ****   
 151:.\u8glib_arm_v1.18.1\src/u8g_dev_ssd1327_96x96_gr.c ****   u8g_WriteEscSeqP(u8g, dev, u8g_dev_ssd1327_2bit_96x96_prepare_page_seq);
 230              		.loc 1 151 0
 231 0016 F868     		ldr	r0, [r7, #12]
 232 0018 B968     		ldr	r1, [r7, #8]
 233 001a 124A     		ldr	r2, .L5
 234 001c FFF7FEFF 		bl	u8g_WriteEscSeqP
 152:.\u8glib_arm_v1.18.1\src/u8g_dev_ssd1327_96x96_gr.c ****   
 153:.\u8glib_arm_v1.18.1\src/u8g_dev_ssd1327_96x96_gr.c ****   page <<= 1;
 235              		.loc 1 153 0
 236 0020 FB7D     		ldrb	r3, [r7, #23]
 237 0022 5B00     		lsls	r3, r3, #1
 238 0024 FB75     		strb	r3, [r7, #23]
 154:.\u8glib_arm_v1.18.1\src/u8g_dev_ssd1327_96x96_gr.c ****   page += is_odd;
 239              		.loc 1 154 0
 240 0026 FA7D     		ldrb	r2, [r7, #23]
 241 0028 FB79     		ldrb	r3, [r7, #7]
 242 002a 1344     		add	r3, r3, r2
 243 002c FB75     		strb	r3, [r7, #23]
 155:.\u8glib_arm_v1.18.1\src/u8g_dev_ssd1327_96x96_gr.c ****   
 156:.\u8glib_arm_v1.18.1\src/u8g_dev_ssd1327_96x96_gr.c ****   page <<= 2;
ARM GAS  C:\Users\Shiguruy\AppData\Local\Temp\ccbiG4Yr.s 			page 8


 244              		.loc 1 156 0
 245 002e FB7D     		ldrb	r3, [r7, #23]
 246 0030 9B00     		lsls	r3, r3, #2
 247 0032 FB75     		strb	r3, [r7, #23]
 157:.\u8glib_arm_v1.18.1\src/u8g_dev_ssd1327_96x96_gr.c ****   u8g_WriteByte(u8g, dev, page);       /* start at the selected page */
 248              		.loc 1 157 0
 249 0034 FB7D     		ldrb	r3, [r7, #23]	@ zero_extendqisi2
 250 0036 F868     		ldr	r0, [r7, #12]
 251 0038 B968     		ldr	r1, [r7, #8]
 252 003a 1A46     		mov	r2, r3
 253 003c FFF7FEFF 		bl	u8g_WriteByte
 158:.\u8glib_arm_v1.18.1\src/u8g_dev_ssd1327_96x96_gr.c ****   page += 3;
 254              		.loc 1 158 0
 255 0040 FB7D     		ldrb	r3, [r7, #23]
 256 0042 0333     		adds	r3, r3, #3
 257 0044 FB75     		strb	r3, [r7, #23]
 159:.\u8glib_arm_v1.18.1\src/u8g_dev_ssd1327_96x96_gr.c ****   u8g_WriteByte(u8g, dev, page);       /* end within the selected page */  
 258              		.loc 1 159 0
 259 0046 FB7D     		ldrb	r3, [r7, #23]	@ zero_extendqisi2
 260 0048 F868     		ldr	r0, [r7, #12]
 261 004a B968     		ldr	r1, [r7, #8]
 262 004c 1A46     		mov	r2, r3
 263 004e FFF7FEFF 		bl	u8g_WriteByte
 160:.\u8glib_arm_v1.18.1\src/u8g_dev_ssd1327_96x96_gr.c ****   
 161:.\u8glib_arm_v1.18.1\src/u8g_dev_ssd1327_96x96_gr.c ****   u8g_SetAddress(u8g, dev, 1);          /* data mode */
 264              		.loc 1 161 0
 265 0052 F868     		ldr	r0, [r7, #12]
 266 0054 B968     		ldr	r1, [r7, #8]
 267 0056 0122     		movs	r2, #1
 268 0058 FFF7FEFF 		bl	u8g_SetAddress
 162:.\u8glib_arm_v1.18.1\src/u8g_dev_ssd1327_96x96_gr.c **** }
 269              		.loc 1 162 0
 270 005c 1837     		adds	r7, r7, #24
 271              		.cfi_def_cfa_offset 8
 272 005e BD46     		mov	sp, r7
 273              		.cfi_def_cfa_register 13
 274              		@ sp needed
 275 0060 80BD     		pop	{r7, pc}
 276              	.L6:
 277 0062 00BF     		.align	2
 278              	.L5:
 279 0064 60000000 		.word	u8g_dev_ssd1327_2bit_96x96_prepare_page_seq
 280              		.cfi_endproc
 281              	.LFE1:
 282              		.size	u8g_dev_ssd1327_2bit_2x_prepare_page, .-u8g_dev_ssd1327_2bit_2x_prepare_page
 283              		.section	.text.u8g_dev_ssd1327_2bit_write_4_pixel,"ax",%progbits
 284              		.align	2
 285              		.thumb
 286              		.thumb_func
 287              		.type	u8g_dev_ssd1327_2bit_write_4_pixel, %function
 288              	u8g_dev_ssd1327_2bit_write_4_pixel:
 289              	.LFB2:
 163:.\u8glib_arm_v1.18.1\src/u8g_dev_ssd1327_96x96_gr.c **** 
 164:.\u8glib_arm_v1.18.1\src/u8g_dev_ssd1327_96x96_gr.c **** /* assumes row autoincrement and activated nibble remap */
 165:.\u8glib_arm_v1.18.1\src/u8g_dev_ssd1327_96x96_gr.c **** static  void u8g_dev_ssd1327_2bit_write_4_pixel(u8g_t *u8g, u8g_dev_t *dev, uint8_t left, uint8_t r
 166:.\u8glib_arm_v1.18.1\src/u8g_dev_ssd1327_96x96_gr.c **** {
 290              		.loc 1 166 0
ARM GAS  C:\Users\Shiguruy\AppData\Local\Temp\ccbiG4Yr.s 			page 9


 291              		.cfi_startproc
 292              		@ args = 0, pretend = 0, frame = 24
 293              		@ frame_needed = 1, uses_anonymous_args = 0
 294 0000 80B5     		push	{r7, lr}
 295              		.cfi_def_cfa_offset 8
 296              		.cfi_offset 7, -8
 297              		.cfi_offset 14, -4
 298 0002 86B0     		sub	sp, sp, #24
 299              		.cfi_def_cfa_offset 32
 300 0004 00AF     		add	r7, sp, #0
 301              		.cfi_def_cfa_register 7
 302 0006 F860     		str	r0, [r7, #12]
 303 0008 B960     		str	r1, [r7, #8]
 304 000a 1146     		mov	r1, r2
 305 000c 1A46     		mov	r2, r3
 306 000e 0B46     		mov	r3, r1
 307 0010 FB71     		strb	r3, [r7, #7]
 308 0012 1346     		mov	r3, r2
 309 0014 BB71     		strb	r3, [r7, #6]
 167:.\u8glib_arm_v1.18.1\src/u8g_dev_ssd1327_96x96_gr.c ****   uint8_t d, tmp, cnt;
 168:.\u8glib_arm_v1.18.1\src/u8g_dev_ssd1327_96x96_gr.c ****   static uint8_t buf[4];
 169:.\u8glib_arm_v1.18.1\src/u8g_dev_ssd1327_96x96_gr.c ****   buf[0] = 0;
 310              		.loc 1 169 0
 311 0016 224B     		ldr	r3, .L11
 312 0018 0022     		movs	r2, #0
 313 001a 1A70     		strb	r2, [r3]
 170:.\u8glib_arm_v1.18.1\src/u8g_dev_ssd1327_96x96_gr.c ****   buf[1] = 0;
 314              		.loc 1 170 0
 315 001c 204B     		ldr	r3, .L11
 316 001e 0022     		movs	r2, #0
 317 0020 5A70     		strb	r2, [r3, #1]
 171:.\u8glib_arm_v1.18.1\src/u8g_dev_ssd1327_96x96_gr.c ****   buf[2] = 0;
 318              		.loc 1 171 0
 319 0022 1F4B     		ldr	r3, .L11
 320 0024 0022     		movs	r2, #0
 321 0026 9A70     		strb	r2, [r3, #2]
 172:.\u8glib_arm_v1.18.1\src/u8g_dev_ssd1327_96x96_gr.c ****   buf[3] = 0;
 322              		.loc 1 172 0
 323 0028 1D4B     		ldr	r3, .L11
 324 002a 0022     		movs	r2, #0
 325 002c DA70     		strb	r2, [r3, #3]
 173:.\u8glib_arm_v1.18.1\src/u8g_dev_ssd1327_96x96_gr.c ****   cnt = 0;
 326              		.loc 1 173 0
 327 002e 0023     		movs	r3, #0
 328 0030 FB75     		strb	r3, [r7, #23]
 329              	.L10:
 174:.\u8glib_arm_v1.18.1\src/u8g_dev_ssd1327_96x96_gr.c ****   do 
 175:.\u8glib_arm_v1.18.1\src/u8g_dev_ssd1327_96x96_gr.c ****   {
 176:.\u8glib_arm_v1.18.1\src/u8g_dev_ssd1327_96x96_gr.c ****     if ( left == 0 && right == 0 )
 330              		.loc 1 176 0
 331 0032 FB79     		ldrb	r3, [r7, #7]	@ zero_extendqisi2
 332 0034 002B     		cmp	r3, #0
 333 0036 03D1     		bne	.L8
 334              		.loc 1 176 0 is_stmt 0 discriminator 1
 335 0038 BB79     		ldrb	r3, [r7, #6]	@ zero_extendqisi2
 336 003a 002B     		cmp	r3, #0
 337 003c 00D1     		bne	.L8
ARM GAS  C:\Users\Shiguruy\AppData\Local\Temp\ccbiG4Yr.s 			page 10


 177:.\u8glib_arm_v1.18.1\src/u8g_dev_ssd1327_96x96_gr.c ****       break;
 338              		.loc 1 177 0 is_stmt 1
 339 003e 25E0     		b	.L9
 340              	.L8:
 178:.\u8glib_arm_v1.18.1\src/u8g_dev_ssd1327_96x96_gr.c ****     d = left;
 341              		.loc 1 178 0
 342 0040 FB79     		ldrb	r3, [r7, #7]
 343 0042 BB75     		strb	r3, [r7, #22]
 179:.\u8glib_arm_v1.18.1\src/u8g_dev_ssd1327_96x96_gr.c ****     d &= 3;
 344              		.loc 1 179 0
 345 0044 BB7D     		ldrb	r3, [r7, #22]
 346 0046 03F00303 		and	r3, r3, #3
 347 004a BB75     		strb	r3, [r7, #22]
 180:.\u8glib_arm_v1.18.1\src/u8g_dev_ssd1327_96x96_gr.c ****     d <<= 4;    
 348              		.loc 1 180 0
 349 004c BB7D     		ldrb	r3, [r7, #22]
 350 004e 1B01     		lsls	r3, r3, #4
 351 0050 BB75     		strb	r3, [r7, #22]
 181:.\u8glib_arm_v1.18.1\src/u8g_dev_ssd1327_96x96_gr.c ****     tmp = right;    
 352              		.loc 1 181 0
 353 0052 BB79     		ldrb	r3, [r7, #6]
 354 0054 7B75     		strb	r3, [r7, #21]
 182:.\u8glib_arm_v1.18.1\src/u8g_dev_ssd1327_96x96_gr.c ****     tmp &= 3;
 355              		.loc 1 182 0
 356 0056 7B7D     		ldrb	r3, [r7, #21]
 357 0058 03F00303 		and	r3, r3, #3
 358 005c 7B75     		strb	r3, [r7, #21]
 183:.\u8glib_arm_v1.18.1\src/u8g_dev_ssd1327_96x96_gr.c ****     d |= tmp;
 359              		.loc 1 183 0
 360 005e BA7D     		ldrb	r2, [r7, #22]
 361 0060 7B7D     		ldrb	r3, [r7, #21]
 362 0062 1343     		orrs	r3, r3, r2
 363 0064 BB75     		strb	r3, [r7, #22]
 184:.\u8glib_arm_v1.18.1\src/u8g_dev_ssd1327_96x96_gr.c ****     d <<= 2;
 364              		.loc 1 184 0
 365 0066 BB7D     		ldrb	r3, [r7, #22]
 366 0068 9B00     		lsls	r3, r3, #2
 367 006a BB75     		strb	r3, [r7, #22]
 185:.\u8glib_arm_v1.18.1\src/u8g_dev_ssd1327_96x96_gr.c ****     buf[cnt] = d;
 368              		.loc 1 185 0
 369 006c FB7D     		ldrb	r3, [r7, #23]	@ zero_extendqisi2
 370 006e 0C49     		ldr	r1, .L11
 371 0070 BA7D     		ldrb	r2, [r7, #22]
 372 0072 CA54     		strb	r2, [r1, r3]
 186:.\u8glib_arm_v1.18.1\src/u8g_dev_ssd1327_96x96_gr.c ****     left >>= 2;
 373              		.loc 1 186 0
 374 0074 FB79     		ldrb	r3, [r7, #7]	@ zero_extendqisi2
 375 0076 9B08     		lsrs	r3, r3, #2
 376 0078 FB71     		strb	r3, [r7, #7]
 187:.\u8glib_arm_v1.18.1\src/u8g_dev_ssd1327_96x96_gr.c ****     right >>= 2;
 377              		.loc 1 187 0
 378 007a BB79     		ldrb	r3, [r7, #6]	@ zero_extendqisi2
 379 007c 9B08     		lsrs	r3, r3, #2
 380 007e BB71     		strb	r3, [r7, #6]
 188:.\u8glib_arm_v1.18.1\src/u8g_dev_ssd1327_96x96_gr.c ****     cnt++;
 381              		.loc 1 188 0
 382 0080 FB7D     		ldrb	r3, [r7, #23]	@ zero_extendqisi2
ARM GAS  C:\Users\Shiguruy\AppData\Local\Temp\ccbiG4Yr.s 			page 11


 383 0082 0133     		adds	r3, r3, #1
 384 0084 FB75     		strb	r3, [r7, #23]
 189:.\u8glib_arm_v1.18.1\src/u8g_dev_ssd1327_96x96_gr.c ****   }while ( cnt < 4 );
 385              		.loc 1 189 0
 386 0086 FB7D     		ldrb	r3, [r7, #23]	@ zero_extendqisi2
 387 0088 032B     		cmp	r3, #3
 388 008a D2D9     		bls	.L10
 389              	.L9:
 190:.\u8glib_arm_v1.18.1\src/u8g_dev_ssd1327_96x96_gr.c ****   u8g_WriteSequence(u8g, dev, 4, buf);
 390              		.loc 1 190 0
 391 008c F868     		ldr	r0, [r7, #12]
 392 008e B968     		ldr	r1, [r7, #8]
 393 0090 0422     		movs	r2, #4
 394 0092 034B     		ldr	r3, .L11
 395 0094 FFF7FEFF 		bl	u8g_WriteSequence
 191:.\u8glib_arm_v1.18.1\src/u8g_dev_ssd1327_96x96_gr.c **** }
 396              		.loc 1 191 0
 397 0098 1837     		adds	r7, r7, #24
 398              		.cfi_def_cfa_offset 8
 399 009a BD46     		mov	sp, r7
 400              		.cfi_def_cfa_register 13
 401              		@ sp needed
 402 009c 80BD     		pop	{r7, pc}
 403              	.L12:
 404 009e 00BF     		.align	2
 405              	.L11:
 406 00a0 E0010000 		.word	buf.5763
 407              		.cfi_endproc
 408              	.LFE2:
 409              		.size	u8g_dev_ssd1327_2bit_write_4_pixel, .-u8g_dev_ssd1327_2bit_write_4_pixel
 410              		.section	.text.u8g_dev_ssd1327_2bit_write_buffer,"ax",%progbits
 411              		.align	2
 412              		.thumb
 413              		.thumb_func
 414              		.type	u8g_dev_ssd1327_2bit_write_buffer, %function
 415              	u8g_dev_ssd1327_2bit_write_buffer:
 416              	.LFB3:
 192:.\u8glib_arm_v1.18.1\src/u8g_dev_ssd1327_96x96_gr.c **** 
 193:.\u8glib_arm_v1.18.1\src/u8g_dev_ssd1327_96x96_gr.c **** static void u8g_dev_ssd1327_2bit_write_buffer(u8g_t *u8g, u8g_dev_t *dev)
 194:.\u8glib_arm_v1.18.1\src/u8g_dev_ssd1327_96x96_gr.c **** {
 417              		.loc 1 194 0
 418              		.cfi_startproc
 419              		@ args = 0, pretend = 0, frame = 24
 420              		@ frame_needed = 1, uses_anonymous_args = 0
 421 0000 80B5     		push	{r7, lr}
 422              		.cfi_def_cfa_offset 8
 423              		.cfi_offset 7, -8
 424              		.cfi_offset 14, -4
 425 0002 86B0     		sub	sp, sp, #24
 426              		.cfi_def_cfa_offset 32
 427 0004 00AF     		add	r7, sp, #0
 428              		.cfi_def_cfa_register 7
 429 0006 7860     		str	r0, [r7, #4]
 430 0008 3960     		str	r1, [r7]
 195:.\u8glib_arm_v1.18.1\src/u8g_dev_ssd1327_96x96_gr.c ****   uint8_t cnt, left, right;
 196:.\u8glib_arm_v1.18.1\src/u8g_dev_ssd1327_96x96_gr.c ****   uint8_t *ptr;
 197:.\u8glib_arm_v1.18.1\src/u8g_dev_ssd1327_96x96_gr.c ****   u8g_pb_t *pb = (u8g_pb_t *)(dev->dev_mem);
ARM GAS  C:\Users\Shiguruy\AppData\Local\Temp\ccbiG4Yr.s 			page 12


 431              		.loc 1 197 0
 432 000a 3B68     		ldr	r3, [r7]
 433 000c 5B68     		ldr	r3, [r3, #4]
 434 000e FB60     		str	r3, [r7, #12]
 198:.\u8glib_arm_v1.18.1\src/u8g_dev_ssd1327_96x96_gr.c ****   
 199:.\u8glib_arm_v1.18.1\src/u8g_dev_ssd1327_96x96_gr.c ****   cnt = pb->width;
 435              		.loc 1 199 0
 436 0010 FB68     		ldr	r3, [r7, #12]
 437 0012 5B79     		ldrb	r3, [r3, #5]
 438 0014 FB75     		strb	r3, [r7, #23]
 200:.\u8glib_arm_v1.18.1\src/u8g_dev_ssd1327_96x96_gr.c ****   cnt >>= 1;
 439              		.loc 1 200 0
 440 0016 FB7D     		ldrb	r3, [r7, #23]	@ zero_extendqisi2
 441 0018 5B08     		lsrs	r3, r3, #1
 442 001a FB75     		strb	r3, [r7, #23]
 201:.\u8glib_arm_v1.18.1\src/u8g_dev_ssd1327_96x96_gr.c ****   ptr = pb->buf;
 443              		.loc 1 201 0
 444 001c FB68     		ldr	r3, [r7, #12]
 445 001e 9B68     		ldr	r3, [r3, #8]
 446 0020 3B61     		str	r3, [r7, #16]
 447              	.L14:
 202:.\u8glib_arm_v1.18.1\src/u8g_dev_ssd1327_96x96_gr.c ****   do
 203:.\u8glib_arm_v1.18.1\src/u8g_dev_ssd1327_96x96_gr.c ****   {
 204:.\u8glib_arm_v1.18.1\src/u8g_dev_ssd1327_96x96_gr.c ****     left = *ptr++;
 448              		.loc 1 204 0 discriminator 1
 449 0022 3B69     		ldr	r3, [r7, #16]
 450 0024 5A1C     		adds	r2, r3, #1
 451 0026 3A61     		str	r2, [r7, #16]
 452 0028 1B78     		ldrb	r3, [r3]
 453 002a FB72     		strb	r3, [r7, #11]
 205:.\u8glib_arm_v1.18.1\src/u8g_dev_ssd1327_96x96_gr.c ****     right = *ptr++;
 454              		.loc 1 205 0 discriminator 1
 455 002c 3B69     		ldr	r3, [r7, #16]
 456 002e 5A1C     		adds	r2, r3, #1
 457 0030 3A61     		str	r2, [r7, #16]
 458 0032 1B78     		ldrb	r3, [r3]
 459 0034 BB72     		strb	r3, [r7, #10]
 206:.\u8glib_arm_v1.18.1\src/u8g_dev_ssd1327_96x96_gr.c ****     u8g_dev_ssd1327_2bit_write_4_pixel(u8g, dev, left, right);
 460              		.loc 1 206 0 discriminator 1
 461 0036 FA7A     		ldrb	r2, [r7, #11]	@ zero_extendqisi2
 462 0038 BB7A     		ldrb	r3, [r7, #10]	@ zero_extendqisi2
 463 003a 7868     		ldr	r0, [r7, #4]
 464 003c 3968     		ldr	r1, [r7]
 465 003e FFF7FEFF 		bl	u8g_dev_ssd1327_2bit_write_4_pixel
 207:.\u8glib_arm_v1.18.1\src/u8g_dev_ssd1327_96x96_gr.c ****     cnt--;
 466              		.loc 1 207 0 discriminator 1
 467 0042 FB7D     		ldrb	r3, [r7, #23]	@ zero_extendqisi2
 468 0044 013B     		subs	r3, r3, #1
 469 0046 FB75     		strb	r3, [r7, #23]
 208:.\u8glib_arm_v1.18.1\src/u8g_dev_ssd1327_96x96_gr.c ****   } while( cnt > 0 );
 470              		.loc 1 208 0 discriminator 1
 471 0048 FB7D     		ldrb	r3, [r7, #23]	@ zero_extendqisi2
 472 004a 002B     		cmp	r3, #0
 473 004c E9D1     		bne	.L14
 209:.\u8glib_arm_v1.18.1\src/u8g_dev_ssd1327_96x96_gr.c **** }
 474              		.loc 1 209 0
 475 004e 1837     		adds	r7, r7, #24
ARM GAS  C:\Users\Shiguruy\AppData\Local\Temp\ccbiG4Yr.s 			page 13


 476              		.cfi_def_cfa_offset 8
 477 0050 BD46     		mov	sp, r7
 478              		.cfi_def_cfa_register 13
 479              		@ sp needed
 480 0052 80BD     		pop	{r7, pc}
 481              		.cfi_endproc
 482              	.LFE3:
 483              		.size	u8g_dev_ssd1327_2bit_write_buffer, .-u8g_dev_ssd1327_2bit_write_buffer
 484              		.section	.text.u8g_dev_ssd1327_2bit_2x_write_buffer,"ax",%progbits
 485              		.align	2
 486              		.thumb
 487              		.thumb_func
 488              		.type	u8g_dev_ssd1327_2bit_2x_write_buffer, %function
 489              	u8g_dev_ssd1327_2bit_2x_write_buffer:
 490              	.LFB4:
 210:.\u8glib_arm_v1.18.1\src/u8g_dev_ssd1327_96x96_gr.c **** 
 211:.\u8glib_arm_v1.18.1\src/u8g_dev_ssd1327_96x96_gr.c **** static void u8g_dev_ssd1327_2bit_2x_write_buffer(u8g_t *u8g, u8g_dev_t *dev, uint8_t is_odd)
 212:.\u8glib_arm_v1.18.1\src/u8g_dev_ssd1327_96x96_gr.c **** {
 491              		.loc 1 212 0
 492              		.cfi_startproc
 493              		@ args = 0, pretend = 0, frame = 32
 494              		@ frame_needed = 1, uses_anonymous_args = 0
 495 0000 80B5     		push	{r7, lr}
 496              		.cfi_def_cfa_offset 8
 497              		.cfi_offset 7, -8
 498              		.cfi_offset 14, -4
 499 0002 88B0     		sub	sp, sp, #32
 500              		.cfi_def_cfa_offset 40
 501 0004 00AF     		add	r7, sp, #0
 502              		.cfi_def_cfa_register 7
 503 0006 F860     		str	r0, [r7, #12]
 504 0008 B960     		str	r1, [r7, #8]
 505 000a 1346     		mov	r3, r2
 506 000c FB71     		strb	r3, [r7, #7]
 213:.\u8glib_arm_v1.18.1\src/u8g_dev_ssd1327_96x96_gr.c ****   uint8_t cnt, left, right;
 214:.\u8glib_arm_v1.18.1\src/u8g_dev_ssd1327_96x96_gr.c ****   uint8_t *ptr;
 215:.\u8glib_arm_v1.18.1\src/u8g_dev_ssd1327_96x96_gr.c ****   u8g_pb_t *pb = (u8g_pb_t *)(dev->dev_mem);
 507              		.loc 1 215 0
 508 000e BB68     		ldr	r3, [r7, #8]
 509 0010 5B68     		ldr	r3, [r3, #4]
 510 0012 7B61     		str	r3, [r7, #20]
 216:.\u8glib_arm_v1.18.1\src/u8g_dev_ssd1327_96x96_gr.c ****   
 217:.\u8glib_arm_v1.18.1\src/u8g_dev_ssd1327_96x96_gr.c ****   ptr = pb->buf;
 511              		.loc 1 217 0
 512 0014 7B69     		ldr	r3, [r7, #20]
 513 0016 9B68     		ldr	r3, [r3, #8]
 514 0018 BB61     		str	r3, [r7, #24]
 218:.\u8glib_arm_v1.18.1\src/u8g_dev_ssd1327_96x96_gr.c ****   cnt = pb->width;
 515              		.loc 1 218 0
 516 001a 7B69     		ldr	r3, [r7, #20]
 517 001c 5B79     		ldrb	r3, [r3, #5]
 518 001e FB77     		strb	r3, [r7, #31]
 219:.\u8glib_arm_v1.18.1\src/u8g_dev_ssd1327_96x96_gr.c ****   if ( is_odd )
 519              		.loc 1 219 0
 520 0020 FB79     		ldrb	r3, [r7, #7]	@ zero_extendqisi2
 521 0022 002B     		cmp	r3, #0
 522 0024 03D0     		beq	.L16
ARM GAS  C:\Users\Shiguruy\AppData\Local\Temp\ccbiG4Yr.s 			page 14


 220:.\u8glib_arm_v1.18.1\src/u8g_dev_ssd1327_96x96_gr.c ****     ptr += cnt;
 523              		.loc 1 220 0
 524 0026 FB7F     		ldrb	r3, [r7, #31]	@ zero_extendqisi2
 525 0028 BA69     		ldr	r2, [r7, #24]
 526 002a 1344     		add	r3, r3, r2
 527 002c BB61     		str	r3, [r7, #24]
 528              	.L16:
 221:.\u8glib_arm_v1.18.1\src/u8g_dev_ssd1327_96x96_gr.c ****   cnt >>= 1;
 529              		.loc 1 221 0
 530 002e FB7F     		ldrb	r3, [r7, #31]	@ zero_extendqisi2
 531 0030 5B08     		lsrs	r3, r3, #1
 532 0032 FB77     		strb	r3, [r7, #31]
 533              	.L17:
 222:.\u8glib_arm_v1.18.1\src/u8g_dev_ssd1327_96x96_gr.c ****   do
 223:.\u8glib_arm_v1.18.1\src/u8g_dev_ssd1327_96x96_gr.c ****   {
 224:.\u8glib_arm_v1.18.1\src/u8g_dev_ssd1327_96x96_gr.c ****     left = *ptr++;
 534              		.loc 1 224 0 discriminator 1
 535 0034 BB69     		ldr	r3, [r7, #24]
 536 0036 5A1C     		adds	r2, r3, #1
 537 0038 BA61     		str	r2, [r7, #24]
 538 003a 1B78     		ldrb	r3, [r3]
 539 003c FB74     		strb	r3, [r7, #19]
 225:.\u8glib_arm_v1.18.1\src/u8g_dev_ssd1327_96x96_gr.c ****     right = *ptr++;
 540              		.loc 1 225 0 discriminator 1
 541 003e BB69     		ldr	r3, [r7, #24]
 542 0040 5A1C     		adds	r2, r3, #1
 543 0042 BA61     		str	r2, [r7, #24]
 544 0044 1B78     		ldrb	r3, [r3]
 545 0046 BB74     		strb	r3, [r7, #18]
 226:.\u8glib_arm_v1.18.1\src/u8g_dev_ssd1327_96x96_gr.c ****     u8g_dev_ssd1327_2bit_write_4_pixel(u8g, dev, left, right);
 546              		.loc 1 226 0 discriminator 1
 547 0048 FA7C     		ldrb	r2, [r7, #19]	@ zero_extendqisi2
 548 004a BB7C     		ldrb	r3, [r7, #18]	@ zero_extendqisi2
 549 004c F868     		ldr	r0, [r7, #12]
 550 004e B968     		ldr	r1, [r7, #8]
 551 0050 FFF7FEFF 		bl	u8g_dev_ssd1327_2bit_write_4_pixel
 227:.\u8glib_arm_v1.18.1\src/u8g_dev_ssd1327_96x96_gr.c ****     cnt--;
 552              		.loc 1 227 0 discriminator 1
 553 0054 FB7F     		ldrb	r3, [r7, #31]	@ zero_extendqisi2
 554 0056 013B     		subs	r3, r3, #1
 555 0058 FB77     		strb	r3, [r7, #31]
 228:.\u8glib_arm_v1.18.1\src/u8g_dev_ssd1327_96x96_gr.c ****   } while( cnt > 0 );
 556              		.loc 1 228 0 discriminator 1
 557 005a FB7F     		ldrb	r3, [r7, #31]	@ zero_extendqisi2
 558 005c 002B     		cmp	r3, #0
 559 005e E9D1     		bne	.L17
 229:.\u8glib_arm_v1.18.1\src/u8g_dev_ssd1327_96x96_gr.c **** }
 560              		.loc 1 229 0
 561 0060 2037     		adds	r7, r7, #32
 562              		.cfi_def_cfa_offset 8
 563 0062 BD46     		mov	sp, r7
 564              		.cfi_def_cfa_register 13
 565              		@ sp needed
 566 0064 80BD     		pop	{r7, pc}
 567              		.cfi_endproc
 568              	.LFE4:
 569              		.size	u8g_dev_ssd1327_2bit_2x_write_buffer, .-u8g_dev_ssd1327_2bit_2x_write_buffer
ARM GAS  C:\Users\Shiguruy\AppData\Local\Temp\ccbiG4Yr.s 			page 15


 570 0066 00BF     		.section	.text.u8g_dev_ssd1327_96x96_gr_fn,"ax",%progbits
 571              		.align	2
 572              		.global	u8g_dev_ssd1327_96x96_gr_fn
 573              		.thumb
 574              		.thumb_func
 575              		.type	u8g_dev_ssd1327_96x96_gr_fn, %function
 576              	u8g_dev_ssd1327_96x96_gr_fn:
 577              	.LFB5:
 230:.\u8glib_arm_v1.18.1\src/u8g_dev_ssd1327_96x96_gr.c **** 
 231:.\u8glib_arm_v1.18.1\src/u8g_dev_ssd1327_96x96_gr.c **** uint8_t u8g_dev_ssd1327_96x96_gr_fn(u8g_t *u8g, u8g_dev_t *dev, uint8_t msg, void *arg)
 232:.\u8glib_arm_v1.18.1\src/u8g_dev_ssd1327_96x96_gr.c **** {
 578              		.loc 1 232 0
 579              		.cfi_startproc
 580              		@ args = 0, pretend = 0, frame = 16
 581              		@ frame_needed = 1, uses_anonymous_args = 0
 582 0000 80B5     		push	{r7, lr}
 583              		.cfi_def_cfa_offset 8
 584              		.cfi_offset 7, -8
 585              		.cfi_offset 14, -4
 586 0002 84B0     		sub	sp, sp, #16
 587              		.cfi_def_cfa_offset 24
 588 0004 00AF     		add	r7, sp, #0
 589              		.cfi_def_cfa_register 7
 590 0006 F860     		str	r0, [r7, #12]
 591 0008 B960     		str	r1, [r7, #8]
 592 000a 3B60     		str	r3, [r7]
 593 000c 1346     		mov	r3, r2
 594 000e FB71     		strb	r3, [r7, #7]
 233:.\u8glib_arm_v1.18.1\src/u8g_dev_ssd1327_96x96_gr.c ****   switch(msg)
 595              		.loc 1 233 0
 596 0010 FB79     		ldrb	r3, [r7, #7]	@ zero_extendqisi2
 597 0012 0A3B     		subs	r3, r3, #10
 598 0014 0B2B     		cmp	r3, #11
 599 0016 53D8     		bhi	.L19
 600 0018 01A2     		adr	r2, .L21
 601 001a 52F823F0 		ldr	pc, [r2, r3, lsl #2]
 602 001e 00BF     		.p2align 2
 603              	.L21:
 604 0020 51000000 		.word	.L20+1
 605 0024 C1000000 		.word	.L19+1
 606 0028 C1000000 		.word	.L19+1
 607 002c C1000000 		.word	.L19+1
 608 0030 C1000000 		.word	.L19+1
 609 0034 83000000 		.word	.L23+1
 610 0038 C1000000 		.word	.L19+1
 611 003c C1000000 		.word	.L19+1
 612 0040 C1000000 		.word	.L19+1
 613 0044 C1000000 		.word	.L19+1
 614 0048 C1000000 		.word	.L19+1
 615 004c 67000000 		.word	.L24+1
 616              		.p2align 1
 617              	.L20:
 234:.\u8glib_arm_v1.18.1\src/u8g_dev_ssd1327_96x96_gr.c ****   {
 235:.\u8glib_arm_v1.18.1\src/u8g_dev_ssd1327_96x96_gr.c ****     case U8G_DEV_MSG_INIT:
 236:.\u8glib_arm_v1.18.1\src/u8g_dev_ssd1327_96x96_gr.c ****       u8g_InitCom(u8g, dev, U8G_SPI_CLK_CYCLE_300NS);
 618              		.loc 1 236 0
 619 0050 F868     		ldr	r0, [r7, #12]
ARM GAS  C:\Users\Shiguruy\AppData\Local\Temp\ccbiG4Yr.s 			page 16


 620 0052 B968     		ldr	r1, [r7, #8]
 621 0054 0222     		movs	r2, #2
 622 0056 FFF7FEFF 		bl	u8g_InitCom
 237:.\u8glib_arm_v1.18.1\src/u8g_dev_ssd1327_96x96_gr.c ****       u8g_WriteEscSeqP(u8g, dev, u8g_dev_ssd1327_2bit_96x96_init_seq);
 623              		.loc 1 237 0
 624 005a F868     		ldr	r0, [r7, #12]
 625 005c B968     		ldr	r1, [r7, #8]
 626 005e 1E4A     		ldr	r2, .L26
 627 0060 FFF7FEFF 		bl	u8g_WriteEscSeqP
 238:.\u8glib_arm_v1.18.1\src/u8g_dev_ssd1327_96x96_gr.c ****       break;
 628              		.loc 1 238 0
 629 0064 2CE0     		b	.L19
 630              	.L24:
 239:.\u8glib_arm_v1.18.1\src/u8g_dev_ssd1327_96x96_gr.c ****     case U8G_DEV_MSG_STOP:
 240:.\u8glib_arm_v1.18.1\src/u8g_dev_ssd1327_96x96_gr.c ****       break;
 241:.\u8glib_arm_v1.18.1\src/u8g_dev_ssd1327_96x96_gr.c ****     case U8G_DEV_MSG_PAGE_NEXT:
 242:.\u8glib_arm_v1.18.1\src/u8g_dev_ssd1327_96x96_gr.c ****       {
 243:.\u8glib_arm_v1.18.1\src/u8g_dev_ssd1327_96x96_gr.c ****         u8g_dev_ssd1327_2bit_prepare_page(u8g, dev);
 631              		.loc 1 243 0
 632 0066 F868     		ldr	r0, [r7, #12]
 633 0068 B968     		ldr	r1, [r7, #8]
 634 006a FFF7FEFF 		bl	u8g_dev_ssd1327_2bit_prepare_page
 244:.\u8glib_arm_v1.18.1\src/u8g_dev_ssd1327_96x96_gr.c ****         u8g_dev_ssd1327_2bit_write_buffer(u8g, dev);
 635              		.loc 1 244 0
 636 006e F868     		ldr	r0, [r7, #12]
 637 0070 B968     		ldr	r1, [r7, #8]
 638 0072 FFF7FEFF 		bl	u8g_dev_ssd1327_2bit_write_buffer
 245:.\u8glib_arm_v1.18.1\src/u8g_dev_ssd1327_96x96_gr.c ****         u8g_SetChipSelect(u8g, dev, 0);        
 639              		.loc 1 245 0
 640 0076 F868     		ldr	r0, [r7, #12]
 641 0078 B968     		ldr	r1, [r7, #8]
 642 007a 0022     		movs	r2, #0
 643 007c FFF7FEFF 		bl	u8g_SetChipSelect
 246:.\u8glib_arm_v1.18.1\src/u8g_dev_ssd1327_96x96_gr.c ****       }
 247:.\u8glib_arm_v1.18.1\src/u8g_dev_ssd1327_96x96_gr.c ****       break;
 644              		.loc 1 247 0
 645 0080 1EE0     		b	.L19
 646              	.L23:
 248:.\u8glib_arm_v1.18.1\src/u8g_dev_ssd1327_96x96_gr.c ****     case U8G_DEV_MSG_CONTRAST:
 249:.\u8glib_arm_v1.18.1\src/u8g_dev_ssd1327_96x96_gr.c ****       u8g_SetChipSelect(u8g, dev, 1);
 647              		.loc 1 249 0
 648 0082 F868     		ldr	r0, [r7, #12]
 649 0084 B968     		ldr	r1, [r7, #8]
 650 0086 0122     		movs	r2, #1
 651 0088 FFF7FEFF 		bl	u8g_SetChipSelect
 250:.\u8glib_arm_v1.18.1\src/u8g_dev_ssd1327_96x96_gr.c ****       u8g_SetAddress(u8g, dev, 0);          /* instruction mode */
 652              		.loc 1 250 0
 653 008c F868     		ldr	r0, [r7, #12]
 654 008e B968     		ldr	r1, [r7, #8]
 655 0090 0022     		movs	r2, #0
 656 0092 FFF7FEFF 		bl	u8g_SetAddress
 251:.\u8glib_arm_v1.18.1\src/u8g_dev_ssd1327_96x96_gr.c ****       u8g_WriteByte(u8g, dev, 0x081);
 657              		.loc 1 251 0
 658 0096 F868     		ldr	r0, [r7, #12]
 659 0098 B968     		ldr	r1, [r7, #8]
 660 009a 8122     		movs	r2, #129
 661 009c FFF7FEFF 		bl	u8g_WriteByte
ARM GAS  C:\Users\Shiguruy\AppData\Local\Temp\ccbiG4Yr.s 			page 17


 252:.\u8glib_arm_v1.18.1\src/u8g_dev_ssd1327_96x96_gr.c ****       u8g_WriteByte(u8g, dev, (*(uint8_t *)arg) >> 1);
 662              		.loc 1 252 0
 663 00a0 3B68     		ldr	r3, [r7]
 664 00a2 1B78     		ldrb	r3, [r3]	@ zero_extendqisi2
 665 00a4 5B08     		lsrs	r3, r3, #1
 666 00a6 DBB2     		uxtb	r3, r3
 667 00a8 F868     		ldr	r0, [r7, #12]
 668 00aa B968     		ldr	r1, [r7, #8]
 669 00ac 1A46     		mov	r2, r3
 670 00ae FFF7FEFF 		bl	u8g_WriteByte
 253:.\u8glib_arm_v1.18.1\src/u8g_dev_ssd1327_96x96_gr.c ****       u8g_SetChipSelect(u8g, dev, 0);      
 671              		.loc 1 253 0
 672 00b2 F868     		ldr	r0, [r7, #12]
 673 00b4 B968     		ldr	r1, [r7, #8]
 674 00b6 0022     		movs	r2, #0
 675 00b8 FFF7FEFF 		bl	u8g_SetChipSelect
 254:.\u8glib_arm_v1.18.1\src/u8g_dev_ssd1327_96x96_gr.c ****       return 1;
 676              		.loc 1 254 0
 677 00bc 0123     		movs	r3, #1
 678 00be 07E0     		b	.L25
 679              	.L19:
 255:.\u8glib_arm_v1.18.1\src/u8g_dev_ssd1327_96x96_gr.c ****   }
 256:.\u8glib_arm_v1.18.1\src/u8g_dev_ssd1327_96x96_gr.c ****   return u8g_dev_pb8v2_base_fn(u8g, dev, msg, arg);
 680              		.loc 1 256 0
 681 00c0 FB79     		ldrb	r3, [r7, #7]	@ zero_extendqisi2
 682 00c2 F868     		ldr	r0, [r7, #12]
 683 00c4 B968     		ldr	r1, [r7, #8]
 684 00c6 1A46     		mov	r2, r3
 685 00c8 3B68     		ldr	r3, [r7]
 686 00ca FFF7FEFF 		bl	u8g_dev_pb8v2_base_fn
 687 00ce 0346     		mov	r3, r0
 688              	.L25:
 257:.\u8glib_arm_v1.18.1\src/u8g_dev_ssd1327_96x96_gr.c **** }
 689              		.loc 1 257 0
 690 00d0 1846     		mov	r0, r3
 691 00d2 1037     		adds	r7, r7, #16
 692              		.cfi_def_cfa_offset 8
 693 00d4 BD46     		mov	sp, r7
 694              		.cfi_def_cfa_register 13
 695              		@ sp needed
 696 00d6 80BD     		pop	{r7, pc}
 697              	.L27:
 698              		.align	2
 699              	.L26:
 700 00d8 00000000 		.word	u8g_dev_ssd1327_2bit_96x96_init_seq
 701              		.cfi_endproc
 702              	.LFE5:
 703              		.size	u8g_dev_ssd1327_96x96_gr_fn, .-u8g_dev_ssd1327_96x96_gr_fn
 704              		.section	.text.u8g_dev_ssd1327_96x96_2x_gr_fn,"ax",%progbits
 705              		.align	2
 706              		.global	u8g_dev_ssd1327_96x96_2x_gr_fn
 707              		.thumb
 708              		.thumb_func
 709              		.type	u8g_dev_ssd1327_96x96_2x_gr_fn, %function
 710              	u8g_dev_ssd1327_96x96_2x_gr_fn:
 711              	.LFB6:
 258:.\u8glib_arm_v1.18.1\src/u8g_dev_ssd1327_96x96_gr.c **** 
ARM GAS  C:\Users\Shiguruy\AppData\Local\Temp\ccbiG4Yr.s 			page 18


 259:.\u8glib_arm_v1.18.1\src/u8g_dev_ssd1327_96x96_gr.c **** uint8_t u8g_dev_ssd1327_96x96_2x_gr_fn(u8g_t *u8g, u8g_dev_t *dev, uint8_t msg, void *arg)
 260:.\u8glib_arm_v1.18.1\src/u8g_dev_ssd1327_96x96_gr.c **** {
 712              		.loc 1 260 0
 713              		.cfi_startproc
 714              		@ args = 0, pretend = 0, frame = 16
 715              		@ frame_needed = 1, uses_anonymous_args = 0
 716 0000 80B5     		push	{r7, lr}
 717              		.cfi_def_cfa_offset 8
 718              		.cfi_offset 7, -8
 719              		.cfi_offset 14, -4
 720 0002 84B0     		sub	sp, sp, #16
 721              		.cfi_def_cfa_offset 24
 722 0004 00AF     		add	r7, sp, #0
 723              		.cfi_def_cfa_register 7
 724 0006 F860     		str	r0, [r7, #12]
 725 0008 B960     		str	r1, [r7, #8]
 726 000a 3B60     		str	r3, [r7]
 727 000c 1346     		mov	r3, r2
 728 000e FB71     		strb	r3, [r7, #7]
 261:.\u8glib_arm_v1.18.1\src/u8g_dev_ssd1327_96x96_gr.c ****   switch(msg)
 729              		.loc 1 261 0
 730 0010 FB79     		ldrb	r3, [r7, #7]	@ zero_extendqisi2
 731 0012 0A3B     		subs	r3, r3, #10
 732 0014 0B2B     		cmp	r3, #11
 733 0016 5FD8     		bhi	.L29
 734 0018 01A2     		adr	r2, .L31
 735 001a 52F823F0 		ldr	pc, [r2, r3, lsl #2]
 736 001e 00BF     		.p2align 2
 737              	.L31:
 738 0020 51000000 		.word	.L30+1
 739 0024 D9000000 		.word	.L29+1
 740 0028 D9000000 		.word	.L29+1
 741 002c D9000000 		.word	.L29+1
 742 0030 D9000000 		.word	.L29+1
 743 0034 9B000000 		.word	.L33+1
 744 0038 D9000000 		.word	.L29+1
 745 003c D9000000 		.word	.L29+1
 746 0040 D9000000 		.word	.L29+1
 747 0044 D9000000 		.word	.L29+1
 748 0048 D9000000 		.word	.L29+1
 749 004c 67000000 		.word	.L34+1
 750              		.p2align 1
 751              	.L30:
 262:.\u8glib_arm_v1.18.1\src/u8g_dev_ssd1327_96x96_gr.c ****   {
 263:.\u8glib_arm_v1.18.1\src/u8g_dev_ssd1327_96x96_gr.c ****     case U8G_DEV_MSG_INIT:
 264:.\u8glib_arm_v1.18.1\src/u8g_dev_ssd1327_96x96_gr.c ****       u8g_InitCom(u8g, dev, U8G_SPI_CLK_CYCLE_300NS);
 752              		.loc 1 264 0
 753 0050 F868     		ldr	r0, [r7, #12]
 754 0052 B968     		ldr	r1, [r7, #8]
 755 0054 0222     		movs	r2, #2
 756 0056 FFF7FEFF 		bl	u8g_InitCom
 265:.\u8glib_arm_v1.18.1\src/u8g_dev_ssd1327_96x96_gr.c ****       u8g_WriteEscSeqP(u8g, dev, u8g_dev_ssd1327_2bit_96x96_init_seq);
 757              		.loc 1 265 0
 758 005a F868     		ldr	r0, [r7, #12]
 759 005c B968     		ldr	r1, [r7, #8]
 760 005e 244A     		ldr	r2, .L36
 761 0060 FFF7FEFF 		bl	u8g_WriteEscSeqP
ARM GAS  C:\Users\Shiguruy\AppData\Local\Temp\ccbiG4Yr.s 			page 19


 266:.\u8glib_arm_v1.18.1\src/u8g_dev_ssd1327_96x96_gr.c ****       break;
 762              		.loc 1 266 0
 763 0064 38E0     		b	.L29
 764              	.L34:
 267:.\u8glib_arm_v1.18.1\src/u8g_dev_ssd1327_96x96_gr.c ****     case U8G_DEV_MSG_STOP:
 268:.\u8glib_arm_v1.18.1\src/u8g_dev_ssd1327_96x96_gr.c ****       break;
 269:.\u8glib_arm_v1.18.1\src/u8g_dev_ssd1327_96x96_gr.c ****     case U8G_DEV_MSG_PAGE_NEXT:
 270:.\u8glib_arm_v1.18.1\src/u8g_dev_ssd1327_96x96_gr.c ****       {
 271:.\u8glib_arm_v1.18.1\src/u8g_dev_ssd1327_96x96_gr.c ****         u8g_dev_ssd1327_2bit_2x_prepare_page(u8g, dev, 0);
 765              		.loc 1 271 0
 766 0066 F868     		ldr	r0, [r7, #12]
 767 0068 B968     		ldr	r1, [r7, #8]
 768 006a 0022     		movs	r2, #0
 769 006c FFF7FEFF 		bl	u8g_dev_ssd1327_2bit_2x_prepare_page
 272:.\u8glib_arm_v1.18.1\src/u8g_dev_ssd1327_96x96_gr.c ****         u8g_dev_ssd1327_2bit_2x_write_buffer(u8g, dev, 0);
 770              		.loc 1 272 0
 771 0070 F868     		ldr	r0, [r7, #12]
 772 0072 B968     		ldr	r1, [r7, #8]
 773 0074 0022     		movs	r2, #0
 774 0076 FFF7FEFF 		bl	u8g_dev_ssd1327_2bit_2x_write_buffer
 273:.\u8glib_arm_v1.18.1\src/u8g_dev_ssd1327_96x96_gr.c ****         u8g_dev_ssd1327_2bit_2x_prepare_page(u8g, dev, 1);
 775              		.loc 1 273 0
 776 007a F868     		ldr	r0, [r7, #12]
 777 007c B968     		ldr	r1, [r7, #8]
 778 007e 0122     		movs	r2, #1
 779 0080 FFF7FEFF 		bl	u8g_dev_ssd1327_2bit_2x_prepare_page
 274:.\u8glib_arm_v1.18.1\src/u8g_dev_ssd1327_96x96_gr.c ****         u8g_dev_ssd1327_2bit_2x_write_buffer(u8g, dev, 1);
 780              		.loc 1 274 0
 781 0084 F868     		ldr	r0, [r7, #12]
 782 0086 B968     		ldr	r1, [r7, #8]
 783 0088 0122     		movs	r2, #1
 784 008a FFF7FEFF 		bl	u8g_dev_ssd1327_2bit_2x_write_buffer
 275:.\u8glib_arm_v1.18.1\src/u8g_dev_ssd1327_96x96_gr.c ****         u8g_SetChipSelect(u8g, dev, 0);        
 785              		.loc 1 275 0
 786 008e F868     		ldr	r0, [r7, #12]
 787 0090 B968     		ldr	r1, [r7, #8]
 788 0092 0022     		movs	r2, #0
 789 0094 FFF7FEFF 		bl	u8g_SetChipSelect
 276:.\u8glib_arm_v1.18.1\src/u8g_dev_ssd1327_96x96_gr.c ****       }
 277:.\u8glib_arm_v1.18.1\src/u8g_dev_ssd1327_96x96_gr.c ****       break;
 790              		.loc 1 277 0
 791 0098 1EE0     		b	.L29
 792              	.L33:
 278:.\u8glib_arm_v1.18.1\src/u8g_dev_ssd1327_96x96_gr.c ****     case U8G_DEV_MSG_CONTRAST:
 279:.\u8glib_arm_v1.18.1\src/u8g_dev_ssd1327_96x96_gr.c ****       u8g_SetChipSelect(u8g, dev, 1);
 793              		.loc 1 279 0
 794 009a F868     		ldr	r0, [r7, #12]
 795 009c B968     		ldr	r1, [r7, #8]
 796 009e 0122     		movs	r2, #1
 797 00a0 FFF7FEFF 		bl	u8g_SetChipSelect
 280:.\u8glib_arm_v1.18.1\src/u8g_dev_ssd1327_96x96_gr.c ****       u8g_SetAddress(u8g, dev, 0);          /* instruction mode */
 798              		.loc 1 280 0
 799 00a4 F868     		ldr	r0, [r7, #12]
 800 00a6 B968     		ldr	r1, [r7, #8]
 801 00a8 0022     		movs	r2, #0
 802 00aa FFF7FEFF 		bl	u8g_SetAddress
 281:.\u8glib_arm_v1.18.1\src/u8g_dev_ssd1327_96x96_gr.c ****       u8g_WriteByte(u8g, dev, 0x081);
ARM GAS  C:\Users\Shiguruy\AppData\Local\Temp\ccbiG4Yr.s 			page 20


 803              		.loc 1 281 0
 804 00ae F868     		ldr	r0, [r7, #12]
 805 00b0 B968     		ldr	r1, [r7, #8]
 806 00b2 8122     		movs	r2, #129
 807 00b4 FFF7FEFF 		bl	u8g_WriteByte
 282:.\u8glib_arm_v1.18.1\src/u8g_dev_ssd1327_96x96_gr.c ****       u8g_WriteByte(u8g, dev, (*(uint8_t *)arg) >> 1);
 808              		.loc 1 282 0
 809 00b8 3B68     		ldr	r3, [r7]
 810 00ba 1B78     		ldrb	r3, [r3]	@ zero_extendqisi2
 811 00bc 5B08     		lsrs	r3, r3, #1
 812 00be DBB2     		uxtb	r3, r3
 813 00c0 F868     		ldr	r0, [r7, #12]
 814 00c2 B968     		ldr	r1, [r7, #8]
 815 00c4 1A46     		mov	r2, r3
 816 00c6 FFF7FEFF 		bl	u8g_WriteByte
 283:.\u8glib_arm_v1.18.1\src/u8g_dev_ssd1327_96x96_gr.c ****       u8g_SetChipSelect(u8g, dev, 0);      
 817              		.loc 1 283 0
 818 00ca F868     		ldr	r0, [r7, #12]
 819 00cc B968     		ldr	r1, [r7, #8]
 820 00ce 0022     		movs	r2, #0
 821 00d0 FFF7FEFF 		bl	u8g_SetChipSelect
 284:.\u8glib_arm_v1.18.1\src/u8g_dev_ssd1327_96x96_gr.c ****       return 1;
 822              		.loc 1 284 0
 823 00d4 0123     		movs	r3, #1
 824 00d6 07E0     		b	.L35
 825              	.L29:
 285:.\u8glib_arm_v1.18.1\src/u8g_dev_ssd1327_96x96_gr.c ****   }
 286:.\u8glib_arm_v1.18.1\src/u8g_dev_ssd1327_96x96_gr.c ****   return u8g_dev_pb16v2_base_fn(u8g, dev, msg, arg);
 826              		.loc 1 286 0
 827 00d8 FB79     		ldrb	r3, [r7, #7]	@ zero_extendqisi2
 828 00da F868     		ldr	r0, [r7, #12]
 829 00dc B968     		ldr	r1, [r7, #8]
 830 00de 1A46     		mov	r2, r3
 831 00e0 3B68     		ldr	r3, [r7]
 832 00e2 FFF7FEFF 		bl	u8g_dev_pb16v2_base_fn
 833 00e6 0346     		mov	r3, r0
 834              	.L35:
 287:.\u8glib_arm_v1.18.1\src/u8g_dev_ssd1327_96x96_gr.c **** }
 835              		.loc 1 287 0
 836 00e8 1846     		mov	r0, r3
 837 00ea 1037     		adds	r7, r7, #16
 838              		.cfi_def_cfa_offset 8
 839 00ec BD46     		mov	sp, r7
 840              		.cfi_def_cfa_register 13
 841              		@ sp needed
 842 00ee 80BD     		pop	{r7, pc}
 843              	.L37:
 844              		.align	2
 845              	.L36:
 846 00f0 00000000 		.word	u8g_dev_ssd1327_2bit_96x96_init_seq
 847              		.cfi_endproc
 848              	.LFE6:
 849              		.size	u8g_dev_ssd1327_96x96_2x_gr_fn, .-u8g_dev_ssd1327_96x96_2x_gr_fn
 850              		.global	u8g_dev_ssd1327_96x96_gr_sw_spi_buf
 851              		.bss
 852              		.align	2
 853              		.type	u8g_dev_ssd1327_96x96_gr_sw_spi_buf, %object
ARM GAS  C:\Users\Shiguruy\AppData\Local\Temp\ccbiG4Yr.s 			page 21


 854              		.size	u8g_dev_ssd1327_96x96_gr_sw_spi_buf, 96
 855              	u8g_dev_ssd1327_96x96_gr_sw_spi_buf:
 856 0000 00000000 		.space	96
 856      00000000 
 856      00000000 
 856      00000000 
 856      00000000 
 857              		.global	u8g_dev_ssd1327_96x96_gr_sw_spi_pb
 858              		.data
 859              		.align	2
 860              		.type	u8g_dev_ssd1327_96x96_gr_sw_spi_pb, %object
 861              		.size	u8g_dev_ssd1327_96x96_gr_sw_spi_pb, 12
 862              	u8g_dev_ssd1327_96x96_gr_sw_spi_pb:
 863 0000 04       		.byte	4
 864 0001 60       		.byte	96
 865 0002 00       		.byte	0
 866 0003 00       		.byte	0
 867 0004 00       		.byte	0
 868 0005 60       		.byte	96
 869 0006 0000     		.space	2
 870 0008 00000000 		.word	u8g_dev_ssd1327_96x96_gr_sw_spi_buf
 871              		.global	u8g_dev_ssd1327_96x96_gr_sw_spi
 872              		.align	2
 873              		.type	u8g_dev_ssd1327_96x96_gr_sw_spi, %object
 874              		.size	u8g_dev_ssd1327_96x96_gr_sw_spi, 12
 875              	u8g_dev_ssd1327_96x96_gr_sw_spi:
 876 000c 00000000 		.word	u8g_dev_ssd1327_96x96_gr_fn
 877 0010 00000000 		.word	u8g_dev_ssd1327_96x96_gr_sw_spi_pb
 878 0014 00000000 		.word	u8g_com_null_fn
 879              		.global	u8g_dev_ssd1327_96x96_gr_hw_spi_buf
 880              		.bss
 881              		.align	2
 882              		.type	u8g_dev_ssd1327_96x96_gr_hw_spi_buf, %object
 883              		.size	u8g_dev_ssd1327_96x96_gr_hw_spi_buf, 96
 884              	u8g_dev_ssd1327_96x96_gr_hw_spi_buf:
 885 0060 00000000 		.space	96
 885      00000000 
 885      00000000 
 885      00000000 
 885      00000000 
 886              		.global	u8g_dev_ssd1327_96x96_gr_hw_spi_pb
 887              		.data
 888              		.align	2
 889              		.type	u8g_dev_ssd1327_96x96_gr_hw_spi_pb, %object
 890              		.size	u8g_dev_ssd1327_96x96_gr_hw_spi_pb, 12
 891              	u8g_dev_ssd1327_96x96_gr_hw_spi_pb:
 892 0018 04       		.byte	4
 893 0019 60       		.byte	96
 894 001a 00       		.byte	0
 895 001b 00       		.byte	0
 896 001c 00       		.byte	0
 897 001d 60       		.byte	96
 898 001e 0000     		.space	2
 899 0020 00000000 		.word	u8g_dev_ssd1327_96x96_gr_hw_spi_buf
 900              		.global	u8g_dev_ssd1327_96x96_gr_hw_spi
 901              		.align	2
 902              		.type	u8g_dev_ssd1327_96x96_gr_hw_spi, %object
ARM GAS  C:\Users\Shiguruy\AppData\Local\Temp\ccbiG4Yr.s 			page 22


 903              		.size	u8g_dev_ssd1327_96x96_gr_hw_spi, 12
 904              	u8g_dev_ssd1327_96x96_gr_hw_spi:
 905 0024 00000000 		.word	u8g_dev_ssd1327_96x96_gr_fn
 906 0028 00000000 		.word	u8g_dev_ssd1327_96x96_gr_hw_spi_pb
 907 002c 00000000 		.word	u8g_com_null_fn
 908              		.global	u8g_dev_ssd1327_96x96_gr_i2c_buf
 909              		.bss
 910              		.align	2
 911              		.type	u8g_dev_ssd1327_96x96_gr_i2c_buf, %object
 912              		.size	u8g_dev_ssd1327_96x96_gr_i2c_buf, 96
 913              	u8g_dev_ssd1327_96x96_gr_i2c_buf:
 914 00c0 00000000 		.space	96
 914      00000000 
 914      00000000 
 914      00000000 
 914      00000000 
 915              		.global	u8g_dev_ssd1327_96x96_gr_i2c_pb
 916              		.data
 917              		.align	2
 918              		.type	u8g_dev_ssd1327_96x96_gr_i2c_pb, %object
 919              		.size	u8g_dev_ssd1327_96x96_gr_i2c_pb, 12
 920              	u8g_dev_ssd1327_96x96_gr_i2c_pb:
 921 0030 04       		.byte	4
 922 0031 60       		.byte	96
 923 0032 00       		.byte	0
 924 0033 00       		.byte	0
 925 0034 00       		.byte	0
 926 0035 60       		.byte	96
 927 0036 0000     		.space	2
 928 0038 00000000 		.word	u8g_dev_ssd1327_96x96_gr_i2c_buf
 929              		.global	u8g_dev_ssd1327_96x96_gr_i2c
 930              		.align	2
 931              		.type	u8g_dev_ssd1327_96x96_gr_i2c, %object
 932              		.size	u8g_dev_ssd1327_96x96_gr_i2c, 12
 933              	u8g_dev_ssd1327_96x96_gr_i2c:
 934 003c 00000000 		.word	u8g_dev_ssd1327_96x96_gr_fn
 935 0040 00000000 		.word	u8g_dev_ssd1327_96x96_gr_i2c_pb
 936 0044 00000000 		.word	u8g_com_null_fn
 937              		.global	u8g_dev_ssd1327_96x96_2x_buf
 938              		.bss
 939              		.align	2
 940              		.type	u8g_dev_ssd1327_96x96_2x_buf, %object
 941              		.size	u8g_dev_ssd1327_96x96_2x_buf, 192
 942              	u8g_dev_ssd1327_96x96_2x_buf:
 943 0120 00000000 		.space	192
 943      00000000 
 943      00000000 
 943      00000000 
 943      00000000 
 944              		.global	u8g_dev_ssd1327_96x96_2x_pb
 945              		.data
 946              		.align	2
 947              		.type	u8g_dev_ssd1327_96x96_2x_pb, %object
 948              		.size	u8g_dev_ssd1327_96x96_2x_pb, 12
 949              	u8g_dev_ssd1327_96x96_2x_pb:
 950 0048 08       		.byte	8
 951 0049 60       		.byte	96
ARM GAS  C:\Users\Shiguruy\AppData\Local\Temp\ccbiG4Yr.s 			page 23


 952 004a 00       		.byte	0
 953 004b 00       		.byte	0
 954 004c 00       		.byte	0
 955 004d 60       		.byte	96
 956 004e 0000     		.space	2
 957 0050 00000000 		.word	u8g_dev_ssd1327_96x96_2x_buf
 958              		.global	u8g_dev_ssd1327_96x96_2x_gr_sw_spi
 959              		.align	2
 960              		.type	u8g_dev_ssd1327_96x96_2x_gr_sw_spi, %object
 961              		.size	u8g_dev_ssd1327_96x96_2x_gr_sw_spi, 12
 962              	u8g_dev_ssd1327_96x96_2x_gr_sw_spi:
 963 0054 00000000 		.word	u8g_dev_ssd1327_96x96_2x_gr_fn
 964 0058 00000000 		.word	u8g_dev_ssd1327_96x96_2x_pb
 965 005c 00000000 		.word	u8g_com_null_fn
 966              		.global	u8g_dev_ssd1327_96x96_2x_gr_hw_spi
 967              		.align	2
 968              		.type	u8g_dev_ssd1327_96x96_2x_gr_hw_spi, %object
 969              		.size	u8g_dev_ssd1327_96x96_2x_gr_hw_spi, 12
 970              	u8g_dev_ssd1327_96x96_2x_gr_hw_spi:
 971 0060 00000000 		.word	u8g_dev_ssd1327_96x96_2x_gr_fn
 972 0064 00000000 		.word	u8g_dev_ssd1327_96x96_2x_pb
 973 0068 00000000 		.word	u8g_com_null_fn
 974              		.global	u8g_dev_ssd1327_96x96_2x_gr_i2c
 975              		.align	2
 976              		.type	u8g_dev_ssd1327_96x96_2x_gr_i2c, %object
 977              		.size	u8g_dev_ssd1327_96x96_2x_gr_i2c, 12
 978              	u8g_dev_ssd1327_96x96_2x_gr_i2c:
 979 006c 00000000 		.word	u8g_dev_ssd1327_96x96_2x_gr_fn
 980 0070 00000000 		.word	u8g_dev_ssd1327_96x96_2x_pb
 981 0074 00000000 		.word	u8g_com_null_fn
 982              		.bss
 983              		.align	2
 984              	buf.5763:
 985 01e0 00000000 		.space	4
 986              		.text
 987              	.Letext0:
 988              		.file 2 "c:\\program files (x86)\\cypress\\psoc creator\\3.3\\psoc creator\\import\\gnu\\arm\\4.9.
 989              		.file 3 "c:\\program files (x86)\\cypress\\psoc creator\\3.3\\psoc creator\\import\\gnu\\arm\\4.9.
 990              		.file 4 ".\\u8glib_arm_v1.18.1\\src\\u8g.h"