ARM GAS  C:\Users\Shiguruy\AppData\Local\Temp\ccfkLBUh.s 			page 1


   1              		.syntax unified
   2              		.cpu cortex-m3
   3              		.fpu softvfp
   4              		.eabi_attribute 20, 1
   5              		.eabi_attribute 21, 1
   6              		.eabi_attribute 23, 3
   7              		.eabi_attribute 24, 1
   8              		.eabi_attribute 25, 1
   9              		.eabi_attribute 26, 1
  10              		.eabi_attribute 30, 6
  11              		.eabi_attribute 34, 1
  12              		.eabi_attribute 18, 4
  13              		.thumb
  14              		.file	"u8g_dev_st7565_64128n.c"
  15              		.text
  16              	.Ltext0:
  17              		.cfi_sections	.debug_frame
  18              		.section	.rodata
  19              		.align	2
  20              		.type	u8g_dev_st7565_64128n_init_seq, %object
  21              		.size	u8g_dev_st7565_64128n_init_seq, 38
  22              	u8g_dev_st7565_64128n_init_seq:
  23 0000 FF       		.byte	-1
  24 0001 D0       		.byte	-48
  25 0002 FF       		.byte	-1
  26 0003 E0       		.byte	-32
  27 0004 FF       		.byte	-1
  28 0005 D1       		.byte	-47
  29 0006 FF       		.byte	-1
  30 0007 CF       		.byte	-49
  31 0008 A2       		.byte	-94
  32 0009 A0       		.byte	-96
  33 000a C8       		.byte	-56
  34 000b 40       		.byte	64
  35 000c 2C       		.byte	44
  36 000d FF       		.byte	-1
  37 000e 32       		.byte	50
  38 000f 2E       		.byte	46
  39 0010 FF       		.byte	-1
  40 0011 32       		.byte	50
  41 0012 2F       		.byte	47
  42 0013 FF       		.byte	-1
  43 0014 32       		.byte	50
  44 0015 10       		.byte	16
  45 0016 A6       		.byte	-90
  46 0017 81       		.byte	-127
  47 0018 1E       		.byte	30
  48 0019 AF       		.byte	-81
  49 001a FF       		.byte	-1
  50 001b 64       		.byte	100
  51 001c A5       		.byte	-91
  52 001d FF       		.byte	-1
  53 001e 64       		.byte	100
  54 001f FF       		.byte	-1
  55 0020 64       		.byte	100
  56 0021 A4       		.byte	-92
  57 0022 FF       		.byte	-1
ARM GAS  C:\Users\Shiguruy\AppData\Local\Temp\ccfkLBUh.s 			page 2


  58 0023 D0       		.byte	-48
  59 0024 FF       		.byte	-1
  60 0025 FE       		.byte	-2
  61 0026 0000     		.align	2
  62              		.type	u8g_dev_st7565_64128n_data_start, %object
  63              		.size	u8g_dev_st7565_64128n_data_start, 8
  64              	u8g_dev_st7565_64128n_data_start:
  65 0028 FF       		.byte	-1
  66 0029 E0       		.byte	-32
  67 002a FF       		.byte	-1
  68 002b D1       		.byte	-47
  69 002c 10       		.byte	16
  70 002d 00       		.byte	0
  71 002e FF       		.byte	-1
  72 002f FE       		.byte	-2
  73              		.align	2
  74              		.type	u8g_dev_st7565_64128n_sleep_on, %object
  75              		.size	u8g_dev_st7565_64128n_sleep_on, 12
  76              	u8g_dev_st7565_64128n_sleep_on:
  77 0030 FF       		.byte	-1
  78 0031 E0       		.byte	-32
  79 0032 FF       		.byte	-1
  80 0033 D1       		.byte	-47
  81 0034 AC       		.byte	-84
  82 0035 00       		.byte	0
  83 0036 AE       		.byte	-82
  84 0037 A5       		.byte	-91
  85 0038 FF       		.byte	-1
  86 0039 D0       		.byte	-48
  87 003a FF       		.byte	-1
  88 003b FE       		.byte	-2
  89              		.align	2
  90              		.type	u8g_dev_st7565_64128n_sleep_off, %object
  91              		.size	u8g_dev_st7565_64128n_sleep_off, 12
  92              	u8g_dev_st7565_64128n_sleep_off:
  93 003c FF       		.byte	-1
  94 003d E0       		.byte	-32
  95 003e FF       		.byte	-1
  96 003f D1       		.byte	-47
  97 0040 A4       		.byte	-92
  98 0041 AF       		.byte	-81
  99 0042 FF       		.byte	-1
 100 0043 32       		.byte	50
 101 0044 FF       		.byte	-1
 102 0045 D0       		.byte	-48
 103 0046 FF       		.byte	-1
 104 0047 FE       		.byte	-2
 105              		.section	.text.u8g_dev_st7565_64128n_fn,"ax",%progbits
 106              		.align	2
 107              		.global	u8g_dev_st7565_64128n_fn
 108              		.thumb
 109              		.thumb_func
 110              		.type	u8g_dev_st7565_64128n_fn, %function
 111              	u8g_dev_st7565_64128n_fn:
 112              	.LFB0:
 113              		.file 1 ".\\u8glib_arm_v1.18.1\\src\\u8g_dev_st7565_64128n.c"
   1:.\u8glib_arm_v1.18.1\src/u8g_dev_st7565_64128n.c **** /*
ARM GAS  C:\Users\Shiguruy\AppData\Local\Temp\ccfkLBUh.s 			page 3


   2:.\u8glib_arm_v1.18.1\src/u8g_dev_st7565_64128n.c **** 
   3:.\u8glib_arm_v1.18.1\src/u8g_dev_st7565_64128n.c ****   u8g_dev_st7565_64128n.c (Displaytech)
   4:.\u8glib_arm_v1.18.1\src/u8g_dev_st7565_64128n.c **** 
   5:.\u8glib_arm_v1.18.1\src/u8g_dev_st7565_64128n.c ****   Universal 8bit Graphics Library
   6:.\u8glib_arm_v1.18.1\src/u8g_dev_st7565_64128n.c ****   
   7:.\u8glib_arm_v1.18.1\src/u8g_dev_st7565_64128n.c ****   Copyright (c) 2011, olikraus@gmail.com
   8:.\u8glib_arm_v1.18.1\src/u8g_dev_st7565_64128n.c ****   All rights reserved.
   9:.\u8glib_arm_v1.18.1\src/u8g_dev_st7565_64128n.c **** 
  10:.\u8glib_arm_v1.18.1\src/u8g_dev_st7565_64128n.c ****   Redistribution and use in source and binary forms, with or without modification, 
  11:.\u8glib_arm_v1.18.1\src/u8g_dev_st7565_64128n.c ****   are permitted provided that the following conditions are met:
  12:.\u8glib_arm_v1.18.1\src/u8g_dev_st7565_64128n.c **** 
  13:.\u8glib_arm_v1.18.1\src/u8g_dev_st7565_64128n.c ****   * Redistributions of source code must retain the above copyright notice, this list 
  14:.\u8glib_arm_v1.18.1\src/u8g_dev_st7565_64128n.c ****     of conditions and the following disclaimer.
  15:.\u8glib_arm_v1.18.1\src/u8g_dev_st7565_64128n.c ****     
  16:.\u8glib_arm_v1.18.1\src/u8g_dev_st7565_64128n.c ****   * Redistributions in binary form must reproduce the above copyright notice, this 
  17:.\u8glib_arm_v1.18.1\src/u8g_dev_st7565_64128n.c ****     list of conditions and the following disclaimer in the documentation and/or other 
  18:.\u8glib_arm_v1.18.1\src/u8g_dev_st7565_64128n.c ****     materials provided with the distribution.
  19:.\u8glib_arm_v1.18.1\src/u8g_dev_st7565_64128n.c **** 
  20:.\u8glib_arm_v1.18.1\src/u8g_dev_st7565_64128n.c ****   THIS SOFTWARE IS PROVIDED BY THE COPYRIGHT HOLDERS AND 
  21:.\u8glib_arm_v1.18.1\src/u8g_dev_st7565_64128n.c ****   CONTRIBUTORS "AS IS" AND ANY EXPRESS OR IMPLIED WARRANTIES, 
  22:.\u8glib_arm_v1.18.1\src/u8g_dev_st7565_64128n.c ****   INCLUDING, BUT NOT LIMITED TO, THE IMPLIED WARRANTIES OF 
  23:.\u8glib_arm_v1.18.1\src/u8g_dev_st7565_64128n.c ****   MERCHANTABILITY AND FITNESS FOR A PARTICULAR PURPOSE ARE 
  24:.\u8glib_arm_v1.18.1\src/u8g_dev_st7565_64128n.c ****   DISCLAIMED. IN NO EVENT SHALL THE COPYRIGHT HOLDER OR 
  25:.\u8glib_arm_v1.18.1\src/u8g_dev_st7565_64128n.c ****   CONTRIBUTORS BE LIABLE FOR ANY DIRECT, INDIRECT, INCIDENTAL, 
  26:.\u8glib_arm_v1.18.1\src/u8g_dev_st7565_64128n.c ****   SPECIAL, EXEMPLARY, OR CONSEQUENTIAL DAMAGES (INCLUDING, BUT 
  27:.\u8glib_arm_v1.18.1\src/u8g_dev_st7565_64128n.c ****   NOT LIMITED TO, PROCUREMENT OF SUBSTITUTE GOODS OR SERVICES; 
  28:.\u8glib_arm_v1.18.1\src/u8g_dev_st7565_64128n.c ****   LOSS OF USE, DATA, OR PROFITS; OR BUSINESS INTERRUPTION) HOWEVER 
  29:.\u8glib_arm_v1.18.1\src/u8g_dev_st7565_64128n.c ****   CAUSED AND ON ANY THEORY OF LIABILITY, WHETHER IN CONTRACT, 
  30:.\u8glib_arm_v1.18.1\src/u8g_dev_st7565_64128n.c ****   STRICT LIABILITY, OR TORT (INCLUDING NEGLIGENCE OR OTHERWISE) 
  31:.\u8glib_arm_v1.18.1\src/u8g_dev_st7565_64128n.c ****   ARISING IN ANY WAY OUT OF THE USE OF THIS SOFTWARE, EVEN IF 
  32:.\u8glib_arm_v1.18.1\src/u8g_dev_st7565_64128n.c ****   ADVISED OF THE POSSIBILITY OF SUCH DAMAGE.  
  33:.\u8glib_arm_v1.18.1\src/u8g_dev_st7565_64128n.c ****   
  34:.\u8glib_arm_v1.18.1\src/u8g_dev_st7565_64128n.c ****   
  35:.\u8glib_arm_v1.18.1\src/u8g_dev_st7565_64128n.c **** */
  36:.\u8glib_arm_v1.18.1\src/u8g_dev_st7565_64128n.c **** 
  37:.\u8glib_arm_v1.18.1\src/u8g_dev_st7565_64128n.c **** #include "u8g.h"
  38:.\u8glib_arm_v1.18.1\src/u8g_dev_st7565_64128n.c **** 
  39:.\u8glib_arm_v1.18.1\src/u8g_dev_st7565_64128n.c **** #define WIDTH 128
  40:.\u8glib_arm_v1.18.1\src/u8g_dev_st7565_64128n.c **** #define HEIGHT 64
  41:.\u8glib_arm_v1.18.1\src/u8g_dev_st7565_64128n.c **** #define PAGE_HEIGHT 8
  42:.\u8glib_arm_v1.18.1\src/u8g_dev_st7565_64128n.c **** 
  43:.\u8glib_arm_v1.18.1\src/u8g_dev_st7565_64128n.c **** /* init sequence from https://github.com/adafruit/ST7565-LCD/blob/master/ST7565/ST7565.cpp */
  44:.\u8glib_arm_v1.18.1\src/u8g_dev_st7565_64128n.c **** static const uint8_t u8g_dev_st7565_64128n_init_seq[] PROGMEM = {
  45:.\u8glib_arm_v1.18.1\src/u8g_dev_st7565_64128n.c ****  	 U8G_ESC_CS(0),            /* disable chip */
  46:.\u8glib_arm_v1.18.1\src/u8g_dev_st7565_64128n.c **** 	  U8G_ESC_ADR(0),          /* instruction mode */
  47:.\u8glib_arm_v1.18.1\src/u8g_dev_st7565_64128n.c **** 	  U8G_ESC_CS(1),           /* enable chip */
  48:.\u8glib_arm_v1.18.1\src/u8g_dev_st7565_64128n.c **** 	  U8G_ESC_RST(15),         /* do reset low pulse with (15*16)+2 milliseconds (=maximum delay)*/
  49:.\u8glib_arm_v1.18.1\src/u8g_dev_st7565_64128n.c **** 
  50:.\u8glib_arm_v1.18.1\src/u8g_dev_st7565_64128n.c **** 	  0x0A2,   				   /* 0x0a2: LCD bias 1/9 (according to Displaytech 64128N datasheet) */
  51:.\u8glib_arm_v1.18.1\src/u8g_dev_st7565_64128n.c **** 	  0x0A0,  				   /* Normal ADC Select (according to Displaytech 64128N datasheet) */
  52:.\u8glib_arm_v1.18.1\src/u8g_dev_st7565_64128n.c **** 
  53:.\u8glib_arm_v1.18.1\src/u8g_dev_st7565_64128n.c **** 	  0x0c8,                   /* common output mode: set scan direction normal operation/SHL Select, 
  54:.\u8glib_arm_v1.18.1\src/u8g_dev_st7565_64128n.c **** 	  0x040,		           /* Display start line for Displaytech 64128N */
  55:.\u8glib_arm_v1.18.1\src/u8g_dev_st7565_64128n.c **** 
  56:.\u8glib_arm_v1.18.1\src/u8g_dev_st7565_64128n.c **** 	  0x028 | 0x04,            /* power control: turn on voltage converter */
  57:.\u8glib_arm_v1.18.1\src/u8g_dev_st7565_64128n.c **** 	  U8G_ESC_DLY(50),         /* delay 50 ms */
  58:.\u8glib_arm_v1.18.1\src/u8g_dev_st7565_64128n.c **** 
ARM GAS  C:\Users\Shiguruy\AppData\Local\Temp\ccfkLBUh.s 			page 4


  59:.\u8glib_arm_v1.18.1\src/u8g_dev_st7565_64128n.c **** 	  0x028 | 0x06,            /* power control: turn on voltage regulator */
  60:.\u8glib_arm_v1.18.1\src/u8g_dev_st7565_64128n.c **** 	  U8G_ESC_DLY(50),         /* delay 50 ms */
  61:.\u8glib_arm_v1.18.1\src/u8g_dev_st7565_64128n.c **** 
  62:.\u8glib_arm_v1.18.1\src/u8g_dev_st7565_64128n.c **** 	  0x028 | 0x07,            /* power control: turn on voltage follower */
  63:.\u8glib_arm_v1.18.1\src/u8g_dev_st7565_64128n.c **** 	  U8G_ESC_DLY(50),         /* delay 50 ms */
  64:.\u8glib_arm_v1.18.1\src/u8g_dev_st7565_64128n.c **** 
  65:.\u8glib_arm_v1.18.1\src/u8g_dev_st7565_64128n.c **** 	  0x010,                   /* Set V0 voltage resistor ratio. Setting for controlling brightness of
  66:.\u8glib_arm_v1.18.1\src/u8g_dev_st7565_64128n.c **** 
  67:.\u8glib_arm_v1.18.1\src/u8g_dev_st7565_64128n.c **** 	  0x0a6,                   /* display normal, bit val 0: LCD pixel off. */
  68:.\u8glib_arm_v1.18.1\src/u8g_dev_st7565_64128n.c **** 
  69:.\u8glib_arm_v1.18.1\src/u8g_dev_st7565_64128n.c **** 	  0x081,      	           /* set contrast */
  70:.\u8glib_arm_v1.18.1\src/u8g_dev_st7565_64128n.c **** 	  0x01e,        	       /* Contrast value. Setting for controlling brightness of Displaytech 64128
  71:.\u8glib_arm_v1.18.1\src/u8g_dev_st7565_64128n.c **** 
  72:.\u8glib_arm_v1.18.1\src/u8g_dev_st7565_64128n.c **** 
  73:.\u8glib_arm_v1.18.1\src/u8g_dev_st7565_64128n.c **** 	  0x0af,		           /* display on */
  74:.\u8glib_arm_v1.18.1\src/u8g_dev_st7565_64128n.c **** 
  75:.\u8glib_arm_v1.18.1\src/u8g_dev_st7565_64128n.c **** 	  U8G_ESC_DLY(100),        /* delay 100 ms */
  76:.\u8glib_arm_v1.18.1\src/u8g_dev_st7565_64128n.c **** 	  0x0a5,		           /* display all points, ST7565 */
  77:.\u8glib_arm_v1.18.1\src/u8g_dev_st7565_64128n.c **** 	  U8G_ESC_DLY(100),        /* delay 100 ms */
  78:.\u8glib_arm_v1.18.1\src/u8g_dev_st7565_64128n.c **** 	  U8G_ESC_DLY(100),        /* delay 100 ms */
  79:.\u8glib_arm_v1.18.1\src/u8g_dev_st7565_64128n.c **** 	  0x0a4,		           /* normal display */
  80:.\u8glib_arm_v1.18.1\src/u8g_dev_st7565_64128n.c **** 	  U8G_ESC_CS(0),           /* disable chip */
  81:.\u8glib_arm_v1.18.1\src/u8g_dev_st7565_64128n.c **** 	  U8G_ESC_END              /* end of sequence */
  82:.\u8glib_arm_v1.18.1\src/u8g_dev_st7565_64128n.c **** };
  83:.\u8glib_arm_v1.18.1\src/u8g_dev_st7565_64128n.c **** 
  84:.\u8glib_arm_v1.18.1\src/u8g_dev_st7565_64128n.c **** static const uint8_t u8g_dev_st7565_64128n_data_start[] PROGMEM = {
  85:.\u8glib_arm_v1.18.1\src/u8g_dev_st7565_64128n.c ****   U8G_ESC_ADR(0),           /* instruction mode */
  86:.\u8glib_arm_v1.18.1\src/u8g_dev_st7565_64128n.c ****   U8G_ESC_CS(1),            /* enable chip */
  87:.\u8glib_arm_v1.18.1\src/u8g_dev_st7565_64128n.c ****   0x010,	                /* set upper 4 bit of the col adr to 0x10 */
  88:.\u8glib_arm_v1.18.1\src/u8g_dev_st7565_64128n.c ****   0x000,		            /* set lower 4 bit of the col adr to 0x00. Changed for DisplayTech 64128N */ 
  89:.\u8glib_arm_v1.18.1\src/u8g_dev_st7565_64128n.c ****   U8G_ESC_END               /* end of sequence */
  90:.\u8glib_arm_v1.18.1\src/u8g_dev_st7565_64128n.c **** };
  91:.\u8glib_arm_v1.18.1\src/u8g_dev_st7565_64128n.c **** 
  92:.\u8glib_arm_v1.18.1\src/u8g_dev_st7565_64128n.c **** static const uint8_t u8g_dev_st7565_64128n_sleep_on[] PROGMEM = {
  93:.\u8glib_arm_v1.18.1\src/u8g_dev_st7565_64128n.c ****   U8G_ESC_ADR(0),           /* instruction mode */
  94:.\u8glib_arm_v1.18.1\src/u8g_dev_st7565_64128n.c ****   U8G_ESC_CS(1),             /* enable chip */
  95:.\u8glib_arm_v1.18.1\src/u8g_dev_st7565_64128n.c ****   0x0ac,		/* static indicator off */
  96:.\u8glib_arm_v1.18.1\src/u8g_dev_st7565_64128n.c ****   0x000,		                /* indicator register set (not sure if this is required) */
  97:.\u8glib_arm_v1.18.1\src/u8g_dev_st7565_64128n.c ****   0x0ae,		/* display off */      
  98:.\u8glib_arm_v1.18.1\src/u8g_dev_st7565_64128n.c ****   0x0a5,		/* all points on */      
  99:.\u8glib_arm_v1.18.1\src/u8g_dev_st7565_64128n.c ****   U8G_ESC_CS(0),             /* disable chip, bugfix 12 nov 2014 */
 100:.\u8glib_arm_v1.18.1\src/u8g_dev_st7565_64128n.c ****   U8G_ESC_END                /* end of sequence */
 101:.\u8glib_arm_v1.18.1\src/u8g_dev_st7565_64128n.c **** };
 102:.\u8glib_arm_v1.18.1\src/u8g_dev_st7565_64128n.c **** 
 103:.\u8glib_arm_v1.18.1\src/u8g_dev_st7565_64128n.c **** static const uint8_t u8g_dev_st7565_64128n_sleep_off[] PROGMEM = {
 104:.\u8glib_arm_v1.18.1\src/u8g_dev_st7565_64128n.c ****   U8G_ESC_ADR(0),           /* instruction mode */
 105:.\u8glib_arm_v1.18.1\src/u8g_dev_st7565_64128n.c ****   U8G_ESC_CS(1),             /* enable chip */
 106:.\u8glib_arm_v1.18.1\src/u8g_dev_st7565_64128n.c ****   0x0a4,		/* all points off */      
 107:.\u8glib_arm_v1.18.1\src/u8g_dev_st7565_64128n.c ****   0x0af,		/* display on */      
 108:.\u8glib_arm_v1.18.1\src/u8g_dev_st7565_64128n.c ****   U8G_ESC_DLY(50),       /* delay 50 ms */
 109:.\u8glib_arm_v1.18.1\src/u8g_dev_st7565_64128n.c ****   U8G_ESC_CS(0),             /* disable chip, bugfix 12 nov 2014 */
 110:.\u8glib_arm_v1.18.1\src/u8g_dev_st7565_64128n.c ****   U8G_ESC_END                /* end of sequence */
 111:.\u8glib_arm_v1.18.1\src/u8g_dev_st7565_64128n.c **** };
 112:.\u8glib_arm_v1.18.1\src/u8g_dev_st7565_64128n.c **** 
 113:.\u8glib_arm_v1.18.1\src/u8g_dev_st7565_64128n.c **** uint8_t u8g_dev_st7565_64128n_fn(u8g_t *u8g, u8g_dev_t *dev, uint8_t msg, void *arg)
 114:.\u8glib_arm_v1.18.1\src/u8g_dev_st7565_64128n.c **** {
 114              		.loc 1 114 0
ARM GAS  C:\Users\Shiguruy\AppData\Local\Temp\ccfkLBUh.s 			page 5


 115              		.cfi_startproc
 116              		@ args = 0, pretend = 0, frame = 24
 117              		@ frame_needed = 1, uses_anonymous_args = 0
 118 0000 80B5     		push	{r7, lr}
 119              		.cfi_def_cfa_offset 8
 120              		.cfi_offset 7, -8
 121              		.cfi_offset 14, -4
 122 0002 86B0     		sub	sp, sp, #24
 123              		.cfi_def_cfa_offset 32
 124 0004 00AF     		add	r7, sp, #0
 125              		.cfi_def_cfa_register 7
 126 0006 F860     		str	r0, [r7, #12]
 127 0008 B960     		str	r1, [r7, #8]
 128 000a 3B60     		str	r3, [r7]
 129 000c 1346     		mov	r3, r2
 130 000e FB71     		strb	r3, [r7, #7]
 115:.\u8glib_arm_v1.18.1\src/u8g_dev_st7565_64128n.c ****   switch(msg)
 131              		.loc 1 115 0
 132 0010 FB79     		ldrb	r3, [r7, #7]	@ zero_extendqisi2
 133 0012 0A3B     		subs	r3, r3, #10
 134 0014 0B2B     		cmp	r3, #11
 135 0016 7AD8     		bhi	.L2
 136 0018 01A2     		adr	r2, .L4
 137 001a 52F823F0 		ldr	pc, [r2, r3, lsl #2]
 138 001e 00BF     		.p2align 2
 139              	.L4:
 140 0020 51000000 		.word	.L3+1
 141 0024 0F010000 		.word	.L2+1
 142 0028 0F010000 		.word	.L2+1
 143 002c 0F010000 		.word	.L2+1
 144 0030 0F010000 		.word	.L2+1
 145 0034 B5000000 		.word	.L6+1
 146 0038 F3000000 		.word	.L7+1
 147 003c 01010000 		.word	.L8+1
 148 0040 0F010000 		.word	.L2+1
 149 0044 0F010000 		.word	.L2+1
 150 0048 0F010000 		.word	.L2+1
 151 004c 67000000 		.word	.L9+1
 152              		.p2align 1
 153              	.L3:
 116:.\u8glib_arm_v1.18.1\src/u8g_dev_st7565_64128n.c ****   {
 117:.\u8glib_arm_v1.18.1\src/u8g_dev_st7565_64128n.c ****     case U8G_DEV_MSG_INIT:
 118:.\u8glib_arm_v1.18.1\src/u8g_dev_st7565_64128n.c ****       u8g_InitCom(u8g, dev, U8G_SPI_CLK_CYCLE_400NS);
 154              		.loc 1 118 0
 155 0050 F868     		ldr	r0, [r7, #12]
 156 0052 B968     		ldr	r1, [r7, #8]
 157 0054 0322     		movs	r2, #3
 158 0056 FFF7FEFF 		bl	u8g_InitCom
 119:.\u8glib_arm_v1.18.1\src/u8g_dev_st7565_64128n.c ****       u8g_WriteEscSeqP(u8g, dev, u8g_dev_st7565_64128n_init_seq);
 159              		.loc 1 119 0
 160 005a F868     		ldr	r0, [r7, #12]
 161 005c B968     		ldr	r1, [r7, #8]
 162 005e 324A     		ldr	r2, .L12
 163 0060 FFF7FEFF 		bl	u8g_WriteEscSeqP
 120:.\u8glib_arm_v1.18.1\src/u8g_dev_st7565_64128n.c ****       break;
 164              		.loc 1 120 0
 165 0064 53E0     		b	.L2
ARM GAS  C:\Users\Shiguruy\AppData\Local\Temp\ccfkLBUh.s 			page 6


 166              	.L9:
 167              	.LBB2:
 121:.\u8glib_arm_v1.18.1\src/u8g_dev_st7565_64128n.c ****     case U8G_DEV_MSG_STOP:
 122:.\u8glib_arm_v1.18.1\src/u8g_dev_st7565_64128n.c ****       break;
 123:.\u8glib_arm_v1.18.1\src/u8g_dev_st7565_64128n.c ****     case U8G_DEV_MSG_PAGE_NEXT:
 124:.\u8glib_arm_v1.18.1\src/u8g_dev_st7565_64128n.c ****       {
 125:.\u8glib_arm_v1.18.1\src/u8g_dev_st7565_64128n.c ****         u8g_pb_t *pb = (u8g_pb_t *)(dev->dev_mem);
 168              		.loc 1 125 0
 169 0066 BB68     		ldr	r3, [r7, #8]
 170 0068 5B68     		ldr	r3, [r3, #4]
 171 006a 7B61     		str	r3, [r7, #20]
 126:.\u8glib_arm_v1.18.1\src/u8g_dev_st7565_64128n.c ****         u8g_WriteEscSeqP(u8g, dev, u8g_dev_st7565_64128n_data_start);    
 172              		.loc 1 126 0
 173 006c F868     		ldr	r0, [r7, #12]
 174 006e B968     		ldr	r1, [r7, #8]
 175 0070 2E4A     		ldr	r2, .L12+4
 176 0072 FFF7FEFF 		bl	u8g_WriteEscSeqP
 127:.\u8glib_arm_v1.18.1\src/u8g_dev_st7565_64128n.c ****         u8g_WriteByte(u8g, dev, 0x0b0 | pb->p.page); /* select current page (ST7565R) */
 177              		.loc 1 127 0
 178 0076 7B69     		ldr	r3, [r7, #20]
 179 0078 1B79     		ldrb	r3, [r3, #4]	@ zero_extendqisi2
 180 007a 63F04F03 		orn	r3, r3, #79
 181 007e DBB2     		uxtb	r3, r3
 182 0080 F868     		ldr	r0, [r7, #12]
 183 0082 B968     		ldr	r1, [r7, #8]
 184 0084 1A46     		mov	r2, r3
 185 0086 FFF7FEFF 		bl	u8g_WriteByte
 128:.\u8glib_arm_v1.18.1\src/u8g_dev_st7565_64128n.c ****         u8g_SetAddress(u8g, dev, 1);           /* data mode */
 186              		.loc 1 128 0
 187 008a F868     		ldr	r0, [r7, #12]
 188 008c B968     		ldr	r1, [r7, #8]
 189 008e 0122     		movs	r2, #1
 190 0090 FFF7FEFF 		bl	u8g_SetAddress
 129:.\u8glib_arm_v1.18.1\src/u8g_dev_st7565_64128n.c ****         if ( u8g_pb_WriteBuffer(pb, u8g, dev) == 0 )
 191              		.loc 1 129 0
 192 0094 7869     		ldr	r0, [r7, #20]
 193 0096 F968     		ldr	r1, [r7, #12]
 194 0098 BA68     		ldr	r2, [r7, #8]
 195 009a FFF7FEFF 		bl	u8g_pb_WriteBuffer
 196 009e 0346     		mov	r3, r0
 197 00a0 002B     		cmp	r3, #0
 198 00a2 01D1     		bne	.L10
 130:.\u8glib_arm_v1.18.1\src/u8g_dev_st7565_64128n.c ****           return 0;
 199              		.loc 1 130 0
 200 00a4 0023     		movs	r3, #0
 201 00a6 3AE0     		b	.L11
 202              	.L10:
 131:.\u8glib_arm_v1.18.1\src/u8g_dev_st7565_64128n.c ****         u8g_SetChipSelect(u8g, dev, 0);
 203              		.loc 1 131 0
 204 00a8 F868     		ldr	r0, [r7, #12]
 205 00aa B968     		ldr	r1, [r7, #8]
 206 00ac 0022     		movs	r2, #0
 207 00ae FFF7FEFF 		bl	u8g_SetChipSelect
 208              	.LBE2:
 132:.\u8glib_arm_v1.18.1\src/u8g_dev_st7565_64128n.c ****       }
 133:.\u8glib_arm_v1.18.1\src/u8g_dev_st7565_64128n.c ****       break;
 209              		.loc 1 133 0
ARM GAS  C:\Users\Shiguruy\AppData\Local\Temp\ccfkLBUh.s 			page 7


 210 00b2 2CE0     		b	.L2
 211              	.L6:
 134:.\u8glib_arm_v1.18.1\src/u8g_dev_st7565_64128n.c ****     case U8G_DEV_MSG_CONTRAST:
 135:.\u8glib_arm_v1.18.1\src/u8g_dev_st7565_64128n.c ****       u8g_SetChipSelect(u8g, dev, 1);
 212              		.loc 1 135 0
 213 00b4 F868     		ldr	r0, [r7, #12]
 214 00b6 B968     		ldr	r1, [r7, #8]
 215 00b8 0122     		movs	r2, #1
 216 00ba FFF7FEFF 		bl	u8g_SetChipSelect
 136:.\u8glib_arm_v1.18.1\src/u8g_dev_st7565_64128n.c ****       u8g_SetAddress(u8g, dev, 0);          /* instruction mode */
 217              		.loc 1 136 0
 218 00be F868     		ldr	r0, [r7, #12]
 219 00c0 B968     		ldr	r1, [r7, #8]
 220 00c2 0022     		movs	r2, #0
 221 00c4 FFF7FEFF 		bl	u8g_SetAddress
 137:.\u8glib_arm_v1.18.1\src/u8g_dev_st7565_64128n.c ****       u8g_WriteByte(u8g, dev, 0x081);
 222              		.loc 1 137 0
 223 00c8 F868     		ldr	r0, [r7, #12]
 224 00ca B968     		ldr	r1, [r7, #8]
 225 00cc 8122     		movs	r2, #129
 226 00ce FFF7FEFF 		bl	u8g_WriteByte
 138:.\u8glib_arm_v1.18.1\src/u8g_dev_st7565_64128n.c ****       u8g_WriteByte(u8g, dev, (*(uint8_t *)arg) >> 2);
 227              		.loc 1 138 0
 228 00d2 3B68     		ldr	r3, [r7]
 229 00d4 1B78     		ldrb	r3, [r3]	@ zero_extendqisi2
 230 00d6 9B08     		lsrs	r3, r3, #2
 231 00d8 DBB2     		uxtb	r3, r3
 232 00da F868     		ldr	r0, [r7, #12]
 233 00dc B968     		ldr	r1, [r7, #8]
 234 00de 1A46     		mov	r2, r3
 235 00e0 FFF7FEFF 		bl	u8g_WriteByte
 139:.\u8glib_arm_v1.18.1\src/u8g_dev_st7565_64128n.c ****       u8g_SetChipSelect(u8g, dev, 0);      
 236              		.loc 1 139 0
 237 00e4 F868     		ldr	r0, [r7, #12]
 238 00e6 B968     		ldr	r1, [r7, #8]
 239 00e8 0022     		movs	r2, #0
 240 00ea FFF7FEFF 		bl	u8g_SetChipSelect
 140:.\u8glib_arm_v1.18.1\src/u8g_dev_st7565_64128n.c ****       return 1;
 241              		.loc 1 140 0
 242 00ee 0123     		movs	r3, #1
 243 00f0 15E0     		b	.L11
 244              	.L7:
 141:.\u8glib_arm_v1.18.1\src/u8g_dev_st7565_64128n.c ****     case U8G_DEV_MSG_SLEEP_ON:
 142:.\u8glib_arm_v1.18.1\src/u8g_dev_st7565_64128n.c ****       u8g_WriteEscSeqP(u8g, dev, u8g_dev_st7565_64128n_sleep_on);    
 245              		.loc 1 142 0
 246 00f2 F868     		ldr	r0, [r7, #12]
 247 00f4 B968     		ldr	r1, [r7, #8]
 248 00f6 0E4A     		ldr	r2, .L12+8
 249 00f8 FFF7FEFF 		bl	u8g_WriteEscSeqP
 143:.\u8glib_arm_v1.18.1\src/u8g_dev_st7565_64128n.c ****       return 1;
 250              		.loc 1 143 0
 251 00fc 0123     		movs	r3, #1
 252 00fe 0EE0     		b	.L11
 253              	.L8:
 144:.\u8glib_arm_v1.18.1\src/u8g_dev_st7565_64128n.c ****     case U8G_DEV_MSG_SLEEP_OFF:
 145:.\u8glib_arm_v1.18.1\src/u8g_dev_st7565_64128n.c ****       u8g_WriteEscSeqP(u8g, dev, u8g_dev_st7565_64128n_sleep_off);    
 254              		.loc 1 145 0
ARM GAS  C:\Users\Shiguruy\AppData\Local\Temp\ccfkLBUh.s 			page 8


 255 0100 F868     		ldr	r0, [r7, #12]
 256 0102 B968     		ldr	r1, [r7, #8]
 257 0104 0B4A     		ldr	r2, .L12+12
 258 0106 FFF7FEFF 		bl	u8g_WriteEscSeqP
 146:.\u8glib_arm_v1.18.1\src/u8g_dev_st7565_64128n.c ****       return 1;
 259              		.loc 1 146 0
 260 010a 0123     		movs	r3, #1
 261 010c 07E0     		b	.L11
 262              	.L2:
 147:.\u8glib_arm_v1.18.1\src/u8g_dev_st7565_64128n.c ****   }
 148:.\u8glib_arm_v1.18.1\src/u8g_dev_st7565_64128n.c ****   return u8g_dev_pb8v1_base_fn(u8g, dev, msg, arg);
 263              		.loc 1 148 0
 264 010e FB79     		ldrb	r3, [r7, #7]	@ zero_extendqisi2
 265 0110 F868     		ldr	r0, [r7, #12]
 266 0112 B968     		ldr	r1, [r7, #8]
 267 0114 1A46     		mov	r2, r3
 268 0116 3B68     		ldr	r3, [r7]
 269 0118 FFF7FEFF 		bl	u8g_dev_pb8v1_base_fn
 270 011c 0346     		mov	r3, r0
 271              	.L11:
 149:.\u8glib_arm_v1.18.1\src/u8g_dev_st7565_64128n.c **** }
 272              		.loc 1 149 0
 273 011e 1846     		mov	r0, r3
 274 0120 1837     		adds	r7, r7, #24
 275              		.cfi_def_cfa_offset 8
 276 0122 BD46     		mov	sp, r7
 277              		.cfi_def_cfa_register 13
 278              		@ sp needed
 279 0124 80BD     		pop	{r7, pc}
 280              	.L13:
 281 0126 00BF     		.align	2
 282              	.L12:
 283 0128 00000000 		.word	u8g_dev_st7565_64128n_init_seq
 284 012c 28000000 		.word	u8g_dev_st7565_64128n_data_start
 285 0130 30000000 		.word	u8g_dev_st7565_64128n_sleep_on
 286 0134 3C000000 		.word	u8g_dev_st7565_64128n_sleep_off
 287              		.cfi_endproc
 288              	.LFE0:
 289              		.size	u8g_dev_st7565_64128n_fn, .-u8g_dev_st7565_64128n_fn
 290              		.section	.text.u8g_dev_st7565_64128n_2x_fn,"ax",%progbits
 291              		.align	2
 292              		.global	u8g_dev_st7565_64128n_2x_fn
 293              		.thumb
 294              		.thumb_func
 295              		.type	u8g_dev_st7565_64128n_2x_fn, %function
 296              	u8g_dev_st7565_64128n_2x_fn:
 297              	.LFB1:
 150:.\u8glib_arm_v1.18.1\src/u8g_dev_st7565_64128n.c **** 
 151:.\u8glib_arm_v1.18.1\src/u8g_dev_st7565_64128n.c **** uint8_t u8g_dev_st7565_64128n_2x_fn(u8g_t *u8g, u8g_dev_t *dev, uint8_t msg, void *arg)
 152:.\u8glib_arm_v1.18.1\src/u8g_dev_st7565_64128n.c **** {
 298              		.loc 1 152 0
 299              		.cfi_startproc
 300              		@ args = 0, pretend = 0, frame = 24
 301              		@ frame_needed = 1, uses_anonymous_args = 0
 302 0000 90B5     		push	{r4, r7, lr}
 303              		.cfi_def_cfa_offset 12
 304              		.cfi_offset 4, -12
ARM GAS  C:\Users\Shiguruy\AppData\Local\Temp\ccfkLBUh.s 			page 9


 305              		.cfi_offset 7, -8
 306              		.cfi_offset 14, -4
 307 0002 87B0     		sub	sp, sp, #28
 308              		.cfi_def_cfa_offset 40
 309 0004 00AF     		add	r7, sp, #0
 310              		.cfi_def_cfa_register 7
 311 0006 F860     		str	r0, [r7, #12]
 312 0008 B960     		str	r1, [r7, #8]
 313 000a 3B60     		str	r3, [r7]
 314 000c 1346     		mov	r3, r2
 315 000e FB71     		strb	r3, [r7, #7]
 153:.\u8glib_arm_v1.18.1\src/u8g_dev_st7565_64128n.c ****   switch(msg)
 316              		.loc 1 153 0
 317 0010 FB79     		ldrb	r3, [r7, #7]	@ zero_extendqisi2
 318 0012 0A3B     		subs	r3, r3, #10
 319 0014 0B2B     		cmp	r3, #11
 320 0016 00F2A780 		bhi	.L15
 321 001a 01A2     		adr	r2, .L17
 322 001c 52F823F0 		ldr	pc, [r2, r3, lsl #2]
 323              		.p2align 2
 324              	.L17:
 325 0020 51000000 		.word	.L16+1
 326 0024 69010000 		.word	.L15+1
 327 0028 69010000 		.word	.L15+1
 328 002c 69010000 		.word	.L15+1
 329 0030 69010000 		.word	.L15+1
 330 0034 0F010000 		.word	.L19+1
 331 0038 4D010000 		.word	.L20+1
 332 003c 5B010000 		.word	.L21+1
 333 0040 69010000 		.word	.L15+1
 334 0044 69010000 		.word	.L15+1
 335 0048 69010000 		.word	.L15+1
 336 004c 67000000 		.word	.L22+1
 337              		.p2align 1
 338              	.L16:
 154:.\u8glib_arm_v1.18.1\src/u8g_dev_st7565_64128n.c ****   {
 155:.\u8glib_arm_v1.18.1\src/u8g_dev_st7565_64128n.c ****     case U8G_DEV_MSG_INIT:
 156:.\u8glib_arm_v1.18.1\src/u8g_dev_st7565_64128n.c ****       u8g_InitCom(u8g, dev, U8G_SPI_CLK_CYCLE_400NS);
 339              		.loc 1 156 0
 340 0050 F868     		ldr	r0, [r7, #12]
 341 0052 B968     		ldr	r1, [r7, #8]
 342 0054 0322     		movs	r2, #3
 343 0056 FFF7FEFF 		bl	u8g_InitCom
 157:.\u8glib_arm_v1.18.1\src/u8g_dev_st7565_64128n.c ****       u8g_WriteEscSeqP(u8g, dev, u8g_dev_st7565_64128n_init_seq);
 344              		.loc 1 157 0
 345 005a F868     		ldr	r0, [r7, #12]
 346 005c B968     		ldr	r1, [r7, #8]
 347 005e 484A     		ldr	r2, .L24
 348 0060 FFF7FEFF 		bl	u8g_WriteEscSeqP
 158:.\u8glib_arm_v1.18.1\src/u8g_dev_st7565_64128n.c ****       break;
 349              		.loc 1 158 0
 350 0064 80E0     		b	.L15
 351              	.L22:
 352              	.LBB3:
 159:.\u8glib_arm_v1.18.1\src/u8g_dev_st7565_64128n.c ****     case U8G_DEV_MSG_STOP:
 160:.\u8glib_arm_v1.18.1\src/u8g_dev_st7565_64128n.c ****       break;
 161:.\u8glib_arm_v1.18.1\src/u8g_dev_st7565_64128n.c ****     case U8G_DEV_MSG_PAGE_NEXT:
ARM GAS  C:\Users\Shiguruy\AppData\Local\Temp\ccfkLBUh.s 			page 10


 162:.\u8glib_arm_v1.18.1\src/u8g_dev_st7565_64128n.c ****       {
 163:.\u8glib_arm_v1.18.1\src/u8g_dev_st7565_64128n.c ****         u8g_pb_t *pb = (u8g_pb_t *)(dev->dev_mem);
 353              		.loc 1 163 0
 354 0066 BB68     		ldr	r3, [r7, #8]
 355 0068 5B68     		ldr	r3, [r3, #4]
 356 006a 7B61     		str	r3, [r7, #20]
 164:.\u8glib_arm_v1.18.1\src/u8g_dev_st7565_64128n.c **** 	
 165:.\u8glib_arm_v1.18.1\src/u8g_dev_st7565_64128n.c ****         u8g_WriteEscSeqP(u8g, dev, u8g_dev_st7565_64128n_data_start);    
 357              		.loc 1 165 0
 358 006c F868     		ldr	r0, [r7, #12]
 359 006e B968     		ldr	r1, [r7, #8]
 360 0070 444A     		ldr	r2, .L24+4
 361 0072 FFF7FEFF 		bl	u8g_WriteEscSeqP
 166:.\u8glib_arm_v1.18.1\src/u8g_dev_st7565_64128n.c ****         u8g_WriteByte(u8g, dev, 0x0b0 | (2*pb->p.page)); /* select current page (ST7565R) */
 362              		.loc 1 166 0
 363 0076 7B69     		ldr	r3, [r7, #20]
 364 0078 1B79     		ldrb	r3, [r3, #4]	@ zero_extendqisi2
 365 007a 5B00     		lsls	r3, r3, #1
 366 007c DBB2     		uxtb	r3, r3
 367 007e DBB2     		uxtb	r3, r3
 368 0080 63F04F03 		orn	r3, r3, #79
 369 0084 DBB2     		uxtb	r3, r3
 370 0086 DBB2     		uxtb	r3, r3
 371 0088 F868     		ldr	r0, [r7, #12]
 372 008a B968     		ldr	r1, [r7, #8]
 373 008c 1A46     		mov	r2, r3
 374 008e FFF7FEFF 		bl	u8g_WriteByte
 167:.\u8glib_arm_v1.18.1\src/u8g_dev_st7565_64128n.c ****         u8g_SetAddress(u8g, dev, 1);           /* data mode */
 375              		.loc 1 167 0
 376 0092 F868     		ldr	r0, [r7, #12]
 377 0094 B968     		ldr	r1, [r7, #8]
 378 0096 0122     		movs	r2, #1
 379 0098 FFF7FEFF 		bl	u8g_SetAddress
 168:.\u8glib_arm_v1.18.1\src/u8g_dev_st7565_64128n.c **** 	u8g_WriteSequence(u8g, dev, pb->width, pb->buf); 
 380              		.loc 1 168 0
 381 009c 7B69     		ldr	r3, [r7, #20]
 382 009e 5A79     		ldrb	r2, [r3, #5]	@ zero_extendqisi2
 383 00a0 7B69     		ldr	r3, [r7, #20]
 384 00a2 9B68     		ldr	r3, [r3, #8]
 385 00a4 F868     		ldr	r0, [r7, #12]
 386 00a6 B968     		ldr	r1, [r7, #8]
 387 00a8 FFF7FEFF 		bl	u8g_WriteSequence
 169:.\u8glib_arm_v1.18.1\src/u8g_dev_st7565_64128n.c ****         u8g_SetChipSelect(u8g, dev, 0);
 388              		.loc 1 169 0
 389 00ac F868     		ldr	r0, [r7, #12]
 390 00ae B968     		ldr	r1, [r7, #8]
 391 00b0 0022     		movs	r2, #0
 392 00b2 FFF7FEFF 		bl	u8g_SetChipSelect
 170:.\u8glib_arm_v1.18.1\src/u8g_dev_st7565_64128n.c **** 	
 171:.\u8glib_arm_v1.18.1\src/u8g_dev_st7565_64128n.c ****         u8g_WriteEscSeqP(u8g, dev, u8g_dev_st7565_64128n_data_start);    
 393              		.loc 1 171 0
 394 00b6 F868     		ldr	r0, [r7, #12]
 395 00b8 B968     		ldr	r1, [r7, #8]
 396 00ba 324A     		ldr	r2, .L24+4
 397 00bc FFF7FEFF 		bl	u8g_WriteEscSeqP
 172:.\u8glib_arm_v1.18.1\src/u8g_dev_st7565_64128n.c ****         u8g_WriteByte(u8g, dev, 0x0b0 | (2*pb->p.page+1)); /* select current page (ST7565R) */
 398              		.loc 1 172 0
ARM GAS  C:\Users\Shiguruy\AppData\Local\Temp\ccfkLBUh.s 			page 11


 399 00c0 7B69     		ldr	r3, [r7, #20]
 400 00c2 1B79     		ldrb	r3, [r3, #4]	@ zero_extendqisi2
 401 00c4 5B00     		lsls	r3, r3, #1
 402 00c6 DBB2     		uxtb	r3, r3
 403 00c8 0133     		adds	r3, r3, #1
 404 00ca DBB2     		uxtb	r3, r3
 405 00cc DBB2     		uxtb	r3, r3
 406 00ce 63F04F03 		orn	r3, r3, #79
 407 00d2 DBB2     		uxtb	r3, r3
 408 00d4 DBB2     		uxtb	r3, r3
 409 00d6 F868     		ldr	r0, [r7, #12]
 410 00d8 B968     		ldr	r1, [r7, #8]
 411 00da 1A46     		mov	r2, r3
 412 00dc FFF7FEFF 		bl	u8g_WriteByte
 173:.\u8glib_arm_v1.18.1\src/u8g_dev_st7565_64128n.c ****         u8g_SetAddress(u8g, dev, 1);           /* data mode */
 413              		.loc 1 173 0
 414 00e0 F868     		ldr	r0, [r7, #12]
 415 00e2 B968     		ldr	r1, [r7, #8]
 416 00e4 0122     		movs	r2, #1
 417 00e6 FFF7FEFF 		bl	u8g_SetAddress
 174:.\u8glib_arm_v1.18.1\src/u8g_dev_st7565_64128n.c **** 	u8g_WriteSequence(u8g, dev, pb->width, (uint8_t *)(pb->buf)+pb->width); 
 418              		.loc 1 174 0
 419 00ea 7B69     		ldr	r3, [r7, #20]
 420 00ec 5C79     		ldrb	r4, [r3, #5]	@ zero_extendqisi2
 421 00ee 7B69     		ldr	r3, [r7, #20]
 422 00f0 9B68     		ldr	r3, [r3, #8]
 423 00f2 7A69     		ldr	r2, [r7, #20]
 424 00f4 5279     		ldrb	r2, [r2, #5]	@ zero_extendqisi2
 425 00f6 1344     		add	r3, r3, r2
 426 00f8 F868     		ldr	r0, [r7, #12]
 427 00fa B968     		ldr	r1, [r7, #8]
 428 00fc 2246     		mov	r2, r4
 429 00fe FFF7FEFF 		bl	u8g_WriteSequence
 175:.\u8glib_arm_v1.18.1\src/u8g_dev_st7565_64128n.c ****         u8g_SetChipSelect(u8g, dev, 0);
 430              		.loc 1 175 0
 431 0102 F868     		ldr	r0, [r7, #12]
 432 0104 B968     		ldr	r1, [r7, #8]
 433 0106 0022     		movs	r2, #0
 434 0108 FFF7FEFF 		bl	u8g_SetChipSelect
 435              	.LBE3:
 176:.\u8glib_arm_v1.18.1\src/u8g_dev_st7565_64128n.c ****       }
 177:.\u8glib_arm_v1.18.1\src/u8g_dev_st7565_64128n.c ****       break;
 436              		.loc 1 177 0
 437 010c 2CE0     		b	.L15
 438              	.L19:
 178:.\u8glib_arm_v1.18.1\src/u8g_dev_st7565_64128n.c ****     case U8G_DEV_MSG_CONTRAST:
 179:.\u8glib_arm_v1.18.1\src/u8g_dev_st7565_64128n.c ****       u8g_SetChipSelect(u8g, dev, 1);
 439              		.loc 1 179 0
 440 010e F868     		ldr	r0, [r7, #12]
 441 0110 B968     		ldr	r1, [r7, #8]
 442 0112 0122     		movs	r2, #1
 443 0114 FFF7FEFF 		bl	u8g_SetChipSelect
 180:.\u8glib_arm_v1.18.1\src/u8g_dev_st7565_64128n.c ****       u8g_SetAddress(u8g, dev, 0);          /* instruction mode */
 444              		.loc 1 180 0
 445 0118 F868     		ldr	r0, [r7, #12]
 446 011a B968     		ldr	r1, [r7, #8]
 447 011c 0022     		movs	r2, #0
ARM GAS  C:\Users\Shiguruy\AppData\Local\Temp\ccfkLBUh.s 			page 12


 448 011e FFF7FEFF 		bl	u8g_SetAddress
 181:.\u8glib_arm_v1.18.1\src/u8g_dev_st7565_64128n.c ****       u8g_WriteByte(u8g, dev, 0x081);
 449              		.loc 1 181 0
 450 0122 F868     		ldr	r0, [r7, #12]
 451 0124 B968     		ldr	r1, [r7, #8]
 452 0126 8122     		movs	r2, #129
 453 0128 FFF7FEFF 		bl	u8g_WriteByte
 182:.\u8glib_arm_v1.18.1\src/u8g_dev_st7565_64128n.c ****       u8g_WriteByte(u8g, dev, (*(uint8_t *)arg) >> 2);
 454              		.loc 1 182 0
 455 012c 3B68     		ldr	r3, [r7]
 456 012e 1B78     		ldrb	r3, [r3]	@ zero_extendqisi2
 457 0130 9B08     		lsrs	r3, r3, #2
 458 0132 DBB2     		uxtb	r3, r3
 459 0134 F868     		ldr	r0, [r7, #12]
 460 0136 B968     		ldr	r1, [r7, #8]
 461 0138 1A46     		mov	r2, r3
 462 013a FFF7FEFF 		bl	u8g_WriteByte
 183:.\u8glib_arm_v1.18.1\src/u8g_dev_st7565_64128n.c ****       u8g_SetChipSelect(u8g, dev, 0);      
 463              		.loc 1 183 0
 464 013e F868     		ldr	r0, [r7, #12]
 465 0140 B968     		ldr	r1, [r7, #8]
 466 0142 0022     		movs	r2, #0
 467 0144 FFF7FEFF 		bl	u8g_SetChipSelect
 184:.\u8glib_arm_v1.18.1\src/u8g_dev_st7565_64128n.c ****       return 1;
 468              		.loc 1 184 0
 469 0148 0123     		movs	r3, #1
 470 014a 15E0     		b	.L23
 471              	.L20:
 185:.\u8glib_arm_v1.18.1\src/u8g_dev_st7565_64128n.c ****     case U8G_DEV_MSG_SLEEP_ON:
 186:.\u8glib_arm_v1.18.1\src/u8g_dev_st7565_64128n.c ****       u8g_WriteEscSeqP(u8g, dev, u8g_dev_st7565_64128n_sleep_on);    
 472              		.loc 1 186 0
 473 014c F868     		ldr	r0, [r7, #12]
 474 014e B968     		ldr	r1, [r7, #8]
 475 0150 0D4A     		ldr	r2, .L24+8
 476 0152 FFF7FEFF 		bl	u8g_WriteEscSeqP
 187:.\u8glib_arm_v1.18.1\src/u8g_dev_st7565_64128n.c ****       return 1;
 477              		.loc 1 187 0
 478 0156 0123     		movs	r3, #1
 479 0158 0EE0     		b	.L23
 480              	.L21:
 188:.\u8glib_arm_v1.18.1\src/u8g_dev_st7565_64128n.c ****     case U8G_DEV_MSG_SLEEP_OFF:
 189:.\u8glib_arm_v1.18.1\src/u8g_dev_st7565_64128n.c ****       u8g_WriteEscSeqP(u8g, dev, u8g_dev_st7565_64128n_sleep_off);    
 481              		.loc 1 189 0
 482 015a F868     		ldr	r0, [r7, #12]
 483 015c B968     		ldr	r1, [r7, #8]
 484 015e 0B4A     		ldr	r2, .L24+12
 485 0160 FFF7FEFF 		bl	u8g_WriteEscSeqP
 190:.\u8glib_arm_v1.18.1\src/u8g_dev_st7565_64128n.c ****       return 1;
 486              		.loc 1 190 0
 487 0164 0123     		movs	r3, #1
 488 0166 07E0     		b	.L23
 489              	.L15:
 191:.\u8glib_arm_v1.18.1\src/u8g_dev_st7565_64128n.c ****   }
 192:.\u8glib_arm_v1.18.1\src/u8g_dev_st7565_64128n.c ****   return u8g_dev_pb16v1_base_fn(u8g, dev, msg, arg);
 490              		.loc 1 192 0
 491 0168 FB79     		ldrb	r3, [r7, #7]	@ zero_extendqisi2
 492 016a F868     		ldr	r0, [r7, #12]
ARM GAS  C:\Users\Shiguruy\AppData\Local\Temp\ccfkLBUh.s 			page 13


 493 016c B968     		ldr	r1, [r7, #8]
 494 016e 1A46     		mov	r2, r3
 495 0170 3B68     		ldr	r3, [r7]
 496 0172 FFF7FEFF 		bl	u8g_dev_pb16v1_base_fn
 497 0176 0346     		mov	r3, r0
 498              	.L23:
 193:.\u8glib_arm_v1.18.1\src/u8g_dev_st7565_64128n.c **** }
 499              		.loc 1 193 0
 500 0178 1846     		mov	r0, r3
 501 017a 1C37     		adds	r7, r7, #28
 502              		.cfi_def_cfa_offset 12
 503 017c BD46     		mov	sp, r7
 504              		.cfi_def_cfa_register 13
 505              		@ sp needed
 506 017e 90BD     		pop	{r4, r7, pc}
 507              	.L25:
 508              		.align	2
 509              	.L24:
 510 0180 00000000 		.word	u8g_dev_st7565_64128n_init_seq
 511 0184 28000000 		.word	u8g_dev_st7565_64128n_data_start
 512 0188 30000000 		.word	u8g_dev_st7565_64128n_sleep_on
 513 018c 3C000000 		.word	u8g_dev_st7565_64128n_sleep_off
 514              		.cfi_endproc
 515              	.LFE1:
 516              		.size	u8g_dev_st7565_64128n_2x_fn, .-u8g_dev_st7565_64128n_2x_fn
 517              		.global	u8g_dev_st7565_64128n_sw_spi_buf
 518              		.bss
 519              		.align	2
 520              		.type	u8g_dev_st7565_64128n_sw_spi_buf, %object
 521              		.size	u8g_dev_st7565_64128n_sw_spi_buf, 128
 522              	u8g_dev_st7565_64128n_sw_spi_buf:
 523 0000 00000000 		.space	128
 523      00000000 
 523      00000000 
 523      00000000 
 523      00000000 
 524              		.global	u8g_dev_st7565_64128n_sw_spi_pb
 525              		.data
 526              		.align	2
 527              		.type	u8g_dev_st7565_64128n_sw_spi_pb, %object
 528              		.size	u8g_dev_st7565_64128n_sw_spi_pb, 12
 529              	u8g_dev_st7565_64128n_sw_spi_pb:
 530 0000 08       		.byte	8
 531 0001 40       		.byte	64
 532 0002 00       		.byte	0
 533 0003 00       		.byte	0
 534 0004 00       		.byte	0
 535 0005 80       		.byte	-128
 536 0006 0000     		.space	2
 537 0008 00000000 		.word	u8g_dev_st7565_64128n_sw_spi_buf
 538              		.global	u8g_dev_st7565_64128n_sw_spi
 539              		.align	2
 540              		.type	u8g_dev_st7565_64128n_sw_spi, %object
 541              		.size	u8g_dev_st7565_64128n_sw_spi, 12
 542              	u8g_dev_st7565_64128n_sw_spi:
 543 000c 00000000 		.word	u8g_dev_st7565_64128n_fn
 544 0010 00000000 		.word	u8g_dev_st7565_64128n_sw_spi_pb
ARM GAS  C:\Users\Shiguruy\AppData\Local\Temp\ccfkLBUh.s 			page 14


 545 0014 00000000 		.word	u8g_com_null_fn
 546              		.global	u8g_dev_st7565_64128n_hw_spi_buf
 547              		.bss
 548              		.align	2
 549              		.type	u8g_dev_st7565_64128n_hw_spi_buf, %object
 550              		.size	u8g_dev_st7565_64128n_hw_spi_buf, 128
 551              	u8g_dev_st7565_64128n_hw_spi_buf:
 552 0080 00000000 		.space	128
 552      00000000 
 552      00000000 
 552      00000000 
 552      00000000 
 553              		.global	u8g_dev_st7565_64128n_hw_spi_pb
 554              		.data
 555              		.align	2
 556              		.type	u8g_dev_st7565_64128n_hw_spi_pb, %object
 557              		.size	u8g_dev_st7565_64128n_hw_spi_pb, 12
 558              	u8g_dev_st7565_64128n_hw_spi_pb:
 559 0018 08       		.byte	8
 560 0019 40       		.byte	64
 561 001a 00       		.byte	0
 562 001b 00       		.byte	0
 563 001c 00       		.byte	0
 564 001d 80       		.byte	-128
 565 001e 0000     		.space	2
 566 0020 00000000 		.word	u8g_dev_st7565_64128n_hw_spi_buf
 567              		.global	u8g_dev_st7565_64128n_hw_spi
 568              		.align	2
 569              		.type	u8g_dev_st7565_64128n_hw_spi, %object
 570              		.size	u8g_dev_st7565_64128n_hw_spi, 12
 571              	u8g_dev_st7565_64128n_hw_spi:
 572 0024 00000000 		.word	u8g_dev_st7565_64128n_fn
 573 0028 00000000 		.word	u8g_dev_st7565_64128n_hw_spi_pb
 574 002c 00000000 		.word	u8g_com_null_fn
 575              		.global	u8g_dev_st7565_64128n_parallel_buf
 576              		.bss
 577              		.align	2
 578              		.type	u8g_dev_st7565_64128n_parallel_buf, %object
 579              		.size	u8g_dev_st7565_64128n_parallel_buf, 128
 580              	u8g_dev_st7565_64128n_parallel_buf:
 581 0100 00000000 		.space	128
 581      00000000 
 581      00000000 
 581      00000000 
 581      00000000 
 582              		.global	u8g_dev_st7565_64128n_parallel_pb
 583              		.data
 584              		.align	2
 585              		.type	u8g_dev_st7565_64128n_parallel_pb, %object
 586              		.size	u8g_dev_st7565_64128n_parallel_pb, 12
 587              	u8g_dev_st7565_64128n_parallel_pb:
 588 0030 08       		.byte	8
 589 0031 40       		.byte	64
 590 0032 00       		.byte	0
 591 0033 00       		.byte	0
 592 0034 00       		.byte	0
 593 0035 80       		.byte	-128
ARM GAS  C:\Users\Shiguruy\AppData\Local\Temp\ccfkLBUh.s 			page 15


 594 0036 0000     		.space	2
 595 0038 00000000 		.word	u8g_dev_st7565_64128n_parallel_buf
 596              		.global	u8g_dev_st7565_64128n_parallel
 597              		.align	2
 598              		.type	u8g_dev_st7565_64128n_parallel, %object
 599              		.size	u8g_dev_st7565_64128n_parallel, 12
 600              	u8g_dev_st7565_64128n_parallel:
 601 003c 00000000 		.word	u8g_dev_st7565_64128n_fn
 602 0040 00000000 		.word	u8g_dev_st7565_64128n_parallel_pb
 603 0044 00000000 		.word	u8g_com_null_fn
 604              		.global	u8g_dev_st7565_64128n_2x_buf
 605              		.bss
 606              		.align	2
 607              		.type	u8g_dev_st7565_64128n_2x_buf, %object
 608              		.size	u8g_dev_st7565_64128n_2x_buf, 256
 609              	u8g_dev_st7565_64128n_2x_buf:
 610 0180 00000000 		.space	256
 610      00000000 
 610      00000000 
 610      00000000 
 610      00000000 
 611              		.global	u8g_dev_st7565_64128n_2x_pb
 612              		.data
 613              		.align	2
 614              		.type	u8g_dev_st7565_64128n_2x_pb, %object
 615              		.size	u8g_dev_st7565_64128n_2x_pb, 12
 616              	u8g_dev_st7565_64128n_2x_pb:
 617 0048 10       		.byte	16
 618 0049 40       		.byte	64
 619 004a 00       		.byte	0
 620 004b 00       		.byte	0
 621 004c 00       		.byte	0
 622 004d 80       		.byte	-128
 623 004e 0000     		.space	2
 624 0050 00000000 		.word	u8g_dev_st7565_64128n_2x_buf
 625              		.global	u8g_dev_st7565_64128n_2x_sw_spi
 626              		.align	2
 627              		.type	u8g_dev_st7565_64128n_2x_sw_spi, %object
 628              		.size	u8g_dev_st7565_64128n_2x_sw_spi, 12
 629              	u8g_dev_st7565_64128n_2x_sw_spi:
 630 0054 00000000 		.word	u8g_dev_st7565_64128n_2x_fn
 631 0058 00000000 		.word	u8g_dev_st7565_64128n_2x_pb
 632 005c 00000000 		.word	u8g_com_null_fn
 633              		.global	u8g_dev_st7565_64128n_2x_hw_spi
 634              		.align	2
 635              		.type	u8g_dev_st7565_64128n_2x_hw_spi, %object
 636              		.size	u8g_dev_st7565_64128n_2x_hw_spi, 12
 637              	u8g_dev_st7565_64128n_2x_hw_spi:
 638 0060 00000000 		.word	u8g_dev_st7565_64128n_2x_fn
 639 0064 00000000 		.word	u8g_dev_st7565_64128n_2x_pb
 640 0068 00000000 		.word	u8g_com_null_fn
 641              		.global	u8g_dev_st7565_64128n_2x_hw_parallel
 642              		.align	2
 643              		.type	u8g_dev_st7565_64128n_2x_hw_parallel, %object
 644              		.size	u8g_dev_st7565_64128n_2x_hw_parallel, 12
 645              	u8g_dev_st7565_64128n_2x_hw_parallel:
 646 006c 00000000 		.word	u8g_dev_st7565_64128n_2x_fn
ARM GAS  C:\Users\Shiguruy\AppData\Local\Temp\ccfkLBUh.s 			page 16


 647 0070 00000000 		.word	u8g_dev_st7565_64128n_2x_pb
 648 0074 00000000 		.word	u8g_com_null_fn
 649              		.text
 650              	.Letext0:
 651              		.file 2 "c:\\program files (x86)\\cypress\\psoc creator\\3.3\\psoc creator\\import\\gnu\\arm\\4.9.
 652              		.file 3 "c:\\program files (x86)\\cypress\\psoc creator\\3.3\\psoc creator\\import\\gnu\\arm\\4.9.
 653              		.file 4 ".\\u8glib_arm_v1.18.1\\src\\u8g.h"