ARM GAS  C:\Users\KJA\AppData\Local\Temp\ccVGM81N.s 			page 1


   1              		.syntax unified
   2              		.cpu cortex-m3
   3              		.fpu softvfp
   4              		.eabi_attribute 20, 1
   5              		.eabi_attribute 21, 1
   6              		.eabi_attribute 23, 3
   7              		.eabi_attribute 24, 1
   8              		.eabi_attribute 25, 1
   9              		.eabi_attribute 26, 1
  10              		.eabi_attribute 30, 6
  11              		.eabi_attribute 34, 1
  12              		.eabi_attribute 18, 4
  13              		.thumb
  14              		.file	"u8g_pb8h8.c"
  15              		.text
  16              	.Ltext0:
  17              		.cfi_sections	.debug_frame
  18              		.section	.text.u8g_pb8h8_Clear,"ax",%progbits
  19              		.align	2
  20              		.global	u8g_pb8h8_Clear
  21              		.thumb
  22              		.thumb_func
  23              		.type	u8g_pb8h8_Clear, %function
  24              	u8g_pb8h8_Clear:
  25              	.LFB0:
  26              		.file 1 "u8glib_arm_v1.18.1\\src\\u8g_pb8h8.c"
   1:u8glib_arm_v1.18.1\src/u8g_pb8h8.c **** /*
   2:u8glib_arm_v1.18.1\src/u8g_pb8h8.c **** 
   3:u8glib_arm_v1.18.1\src/u8g_pb8h8.c ****   u8g_pb8h8.c
   4:u8glib_arm_v1.18.1\src/u8g_pb8h8.c ****   
   5:u8glib_arm_v1.18.1\src/u8g_pb8h8.c ****   8 lines per page, horizontal, 8 bits per pixel
   6:u8glib_arm_v1.18.1\src/u8g_pb8h8.c ****   (22 May 2013: might also support any number of lines --> needs to be checked)
   7:u8glib_arm_v1.18.1\src/u8g_pb8h8.c ****   
   8:u8glib_arm_v1.18.1\src/u8g_pb8h8.c ****   Universal 8bit Graphics Library
   9:u8glib_arm_v1.18.1\src/u8g_pb8h8.c ****   
  10:u8glib_arm_v1.18.1\src/u8g_pb8h8.c ****   Copyright (c) 2012, olikraus@gmail.com
  11:u8glib_arm_v1.18.1\src/u8g_pb8h8.c ****   All rights reserved.
  12:u8glib_arm_v1.18.1\src/u8g_pb8h8.c **** 
  13:u8glib_arm_v1.18.1\src/u8g_pb8h8.c ****   Redistribution and use in source and binary forms, with or without modification, 
  14:u8glib_arm_v1.18.1\src/u8g_pb8h8.c ****   are permitted provided that the following conditions are met:
  15:u8glib_arm_v1.18.1\src/u8g_pb8h8.c **** 
  16:u8glib_arm_v1.18.1\src/u8g_pb8h8.c ****   * Redistributions of source code must retain the above copyright notice, this list 
  17:u8glib_arm_v1.18.1\src/u8g_pb8h8.c ****     of conditions and the following disclaimer.
  18:u8glib_arm_v1.18.1\src/u8g_pb8h8.c ****     
  19:u8glib_arm_v1.18.1\src/u8g_pb8h8.c ****   * Redistributions in binary form must reproduce the above copyright notice, this 
  20:u8glib_arm_v1.18.1\src/u8g_pb8h8.c ****     list of conditions and the following disclaimer in the documentation and/or other 
  21:u8glib_arm_v1.18.1\src/u8g_pb8h8.c ****     materials provided with the distribution.
  22:u8glib_arm_v1.18.1\src/u8g_pb8h8.c **** 
  23:u8glib_arm_v1.18.1\src/u8g_pb8h8.c ****   THIS SOFTWARE IS PROVIDED BY THE COPYRIGHT HOLDERS AND 
  24:u8glib_arm_v1.18.1\src/u8g_pb8h8.c ****   CONTRIBUTORS "AS IS" AND ANY EXPRESS OR IMPLIED WARRANTIES, 
  25:u8glib_arm_v1.18.1\src/u8g_pb8h8.c ****   INCLUDING, BUT NOT LIMITED TO, THE IMPLIED WARRANTIES OF 
  26:u8glib_arm_v1.18.1\src/u8g_pb8h8.c ****   MERCHANTABILITY AND FITNESS FOR A PARTICULAR PURPOSE ARE 
  27:u8glib_arm_v1.18.1\src/u8g_pb8h8.c ****   DISCLAIMED. IN NO EVENT SHALL THE COPYRIGHT HOLDER OR 
  28:u8glib_arm_v1.18.1\src/u8g_pb8h8.c ****   CONTRIBUTORS BE LIABLE FOR ANY DIRECT, INDIRECT, INCIDENTAL, 
  29:u8glib_arm_v1.18.1\src/u8g_pb8h8.c ****   SPECIAL, EXEMPLARY, OR CONSEQUENTIAL DAMAGES (INCLUDING, BUT 
  30:u8glib_arm_v1.18.1\src/u8g_pb8h8.c ****   NOT LIMITED TO, PROCUREMENT OF SUBSTITUTE GOODS OR SERVICES; 
  31:u8glib_arm_v1.18.1\src/u8g_pb8h8.c ****   LOSS OF USE, DATA, OR PROFITS; OR BUSINESS INTERRUPTION) HOWEVER 
ARM GAS  C:\Users\KJA\AppData\Local\Temp\ccVGM81N.s 			page 2


  32:u8glib_arm_v1.18.1\src/u8g_pb8h8.c ****   CAUSED AND ON ANY THEORY OF LIABILITY, WHETHER IN CONTRACT, 
  33:u8glib_arm_v1.18.1\src/u8g_pb8h8.c ****   STRICT LIABILITY, OR TORT (INCLUDING NEGLIGENCE OR OTHERWISE) 
  34:u8glib_arm_v1.18.1\src/u8g_pb8h8.c ****   ARISING IN ANY WAY OUT OF THE USE OF THIS SOFTWARE, EVEN IF 
  35:u8glib_arm_v1.18.1\src/u8g_pb8h8.c ****   ADVISED OF THE POSSIBILITY OF SUCH DAMAGE.  
  36:u8glib_arm_v1.18.1\src/u8g_pb8h8.c **** 
  37:u8glib_arm_v1.18.1\src/u8g_pb8h8.c **** 
  38:u8glib_arm_v1.18.1\src/u8g_pb8h8.c **** struct _u8g_pb_t
  39:u8glib_arm_v1.18.1\src/u8g_pb8h8.c **** {
  40:u8glib_arm_v1.18.1\src/u8g_pb8h8.c ****   u8g_page_t p;
  41:u8glib_arm_v1.18.1\src/u8g_pb8h8.c ****   u8g_uint_t width;
  42:u8glib_arm_v1.18.1\src/u8g_pb8h8.c ****   void *buf;
  43:u8glib_arm_v1.18.1\src/u8g_pb8h8.c **** };
  44:u8glib_arm_v1.18.1\src/u8g_pb8h8.c **** typedef struct _u8g_pb_t u8g_pb_t;
  45:u8glib_arm_v1.18.1\src/u8g_pb8h8.c **** 
  46:u8glib_arm_v1.18.1\src/u8g_pb8h8.c **** 
  47:u8glib_arm_v1.18.1\src/u8g_pb8h8.c **** uint8_t u8g_index_color_8h8_buf[WIDTH*PAGE_HEIGHT] U8G_NOCOMMON ; 
  48:u8glib_arm_v1.18.1\src/u8g_pb8h8.c **** u8g_pb_t u8g_index_color_8h8_pb = { {PAGE_HEIGHT, HEIGHT, 0, 0, 0},  WIDTH, u8g_index_color_8h8_buf
  49:u8glib_arm_v1.18.1\src/u8g_pb8h8.c **** u8g_dev_t name = { dev_fn, &u8g_index_color_8h8_pb, com_fn }
  50:u8glib_arm_v1.18.1\src/u8g_pb8h8.c **** 
  51:u8glib_arm_v1.18.1\src/u8g_pb8h8.c **** */
  52:u8glib_arm_v1.18.1\src/u8g_pb8h8.c **** 
  53:u8glib_arm_v1.18.1\src/u8g_pb8h8.c **** #include "u8g.h"
  54:u8glib_arm_v1.18.1\src/u8g_pb8h8.c **** 
  55:u8glib_arm_v1.18.1\src/u8g_pb8h8.c **** /*
  56:u8glib_arm_v1.18.1\src/u8g_pb8h8.c **** #define WIDTH_BITS 7
  57:u8glib_arm_v1.18.1\src/u8g_pb8h8.c **** #define WIDTH (1<<WIDTH_BITS)
  58:u8glib_arm_v1.18.1\src/u8g_pb8h8.c **** #define PAGE_HEIGHT_BITS 3
  59:u8glib_arm_v1.18.1\src/u8g_pb8h8.c **** #define PAGE_HEIGHT (1<<PAGE_HEIGHT_BITS)
  60:u8glib_arm_v1.18.1\src/u8g_pb8h8.c **** */
  61:u8glib_arm_v1.18.1\src/u8g_pb8h8.c **** 
  62:u8glib_arm_v1.18.1\src/u8g_pb8h8.c **** void u8g_pb8h8_Clear(u8g_pb_t *b)
  63:u8glib_arm_v1.18.1\src/u8g_pb8h8.c **** {
  27              		.loc 1 63 0
  28              		.cfi_startproc
  29              		@ args = 0, pretend = 0, frame = 24
  30              		@ frame_needed = 1, uses_anonymous_args = 0
  31              		@ link register save eliminated.
  32 0000 80B4     		push	{r7}
  33              		.cfi_def_cfa_offset 4
  34              		.cfi_offset 7, -4
  35 0002 87B0     		sub	sp, sp, #28
  36              		.cfi_def_cfa_offset 32
  37 0004 00AF     		add	r7, sp, #0
  38              		.cfi_def_cfa_register 7
  39 0006 7860     		str	r0, [r7, #4]
  64:u8glib_arm_v1.18.1\src/u8g_pb8h8.c ****   uint8_t *ptr = (uint8_t *)b->buf;
  40              		.loc 1 64 0
  41 0008 7B68     		ldr	r3, [r7, #4]
  42 000a 9B68     		ldr	r3, [r3, #8]
  43 000c 7B61     		str	r3, [r7, #20]
  65:u8glib_arm_v1.18.1\src/u8g_pb8h8.c ****   uint8_t *end_ptr = ptr;
  44              		.loc 1 65 0
  45 000e 7B69     		ldr	r3, [r7, #20]
  46 0010 3B61     		str	r3, [r7, #16]
  66:u8glib_arm_v1.18.1\src/u8g_pb8h8.c ****   uint8_t cnt = b->p.page_height;
  47              		.loc 1 66 0
  48 0012 7B68     		ldr	r3, [r7, #4]
ARM GAS  C:\Users\KJA\AppData\Local\Temp\ccVGM81N.s 			page 3


  49 0014 1B78     		ldrb	r3, [r3]
  50 0016 FB73     		strb	r3, [r7, #15]
  67:u8glib_arm_v1.18.1\src/u8g_pb8h8.c ****   end_ptr += b->width*cnt;
  51              		.loc 1 67 0
  52 0018 7B68     		ldr	r3, [r7, #4]
  53 001a 5B79     		ldrb	r3, [r3, #5]	@ zero_extendqisi2
  54 001c 1A46     		mov	r2, r3
  55 001e FB7B     		ldrb	r3, [r7, #15]	@ zero_extendqisi2
  56 0020 03FB02F3 		mul	r3, r3, r2
  57 0024 1A46     		mov	r2, r3
  58 0026 3B69     		ldr	r3, [r7, #16]
  59 0028 1344     		add	r3, r3, r2
  60 002a 3B61     		str	r3, [r7, #16]
  61              	.L2:
  68:u8glib_arm_v1.18.1\src/u8g_pb8h8.c ****   /*
  69:u8glib_arm_v1.18.1\src/u8g_pb8h8.c ****   do
  70:u8glib_arm_v1.18.1\src/u8g_pb8h8.c ****   {
  71:u8glib_arm_v1.18.1\src/u8g_pb8h8.c ****     end_ptr += b->width;
  72:u8glib_arm_v1.18.1\src/u8g_pb8h8.c ****     cnt--;
  73:u8glib_arm_v1.18.1\src/u8g_pb8h8.c ****   } while( cnt > 0 );
  74:u8glib_arm_v1.18.1\src/u8g_pb8h8.c ****   */
  75:u8glib_arm_v1.18.1\src/u8g_pb8h8.c ****   do
  76:u8glib_arm_v1.18.1\src/u8g_pb8h8.c ****   {
  77:u8glib_arm_v1.18.1\src/u8g_pb8h8.c ****     *ptr++ = 0;
  62              		.loc 1 77 0 discriminator 1
  63 002c 7B69     		ldr	r3, [r7, #20]
  64 002e 5A1C     		adds	r2, r3, #1
  65 0030 7A61     		str	r2, [r7, #20]
  66 0032 0022     		movs	r2, #0
  67 0034 1A70     		strb	r2, [r3]
  78:u8glib_arm_v1.18.1\src/u8g_pb8h8.c ****   } while( ptr != end_ptr );
  68              		.loc 1 78 0 discriminator 1
  69 0036 7A69     		ldr	r2, [r7, #20]
  70 0038 3B69     		ldr	r3, [r7, #16]
  71 003a 9A42     		cmp	r2, r3
  72 003c F6D1     		bne	.L2
  79:u8glib_arm_v1.18.1\src/u8g_pb8h8.c **** }
  73              		.loc 1 79 0
  74 003e 1C37     		adds	r7, r7, #28
  75              		.cfi_def_cfa_offset 4
  76 0040 BD46     		mov	sp, r7
  77              		.cfi_def_cfa_register 13
  78              		@ sp needed
  79 0042 5DF8047B 		ldr	r7, [sp], #4
  80              		.cfi_restore 7
  81              		.cfi_def_cfa_offset 0
  82 0046 7047     		bx	lr
  83              		.cfi_endproc
  84              	.LFE0:
  85              		.size	u8g_pb8h8_Clear, .-u8g_pb8h8_Clear
  86              		.section	.text.u8g_pb8h8_Init,"ax",%progbits
  87              		.align	2
  88              		.global	u8g_pb8h8_Init
  89              		.thumb
  90              		.thumb_func
  91              		.type	u8g_pb8h8_Init, %function
  92              	u8g_pb8h8_Init:
ARM GAS  C:\Users\KJA\AppData\Local\Temp\ccVGM81N.s 			page 4


  93              	.LFB1:
  80:u8glib_arm_v1.18.1\src/u8g_pb8h8.c **** 
  81:u8glib_arm_v1.18.1\src/u8g_pb8h8.c **** 
  82:u8glib_arm_v1.18.1\src/u8g_pb8h8.c **** void u8g_pb8h8_Init(u8g_pb_t *b, void *buf, u8g_uint_t width)
  83:u8glib_arm_v1.18.1\src/u8g_pb8h8.c **** {
  94              		.loc 1 83 0
  95              		.cfi_startproc
  96              		@ args = 0, pretend = 0, frame = 16
  97              		@ frame_needed = 1, uses_anonymous_args = 0
  98 0000 80B5     		push	{r7, lr}
  99              		.cfi_def_cfa_offset 8
 100              		.cfi_offset 7, -8
 101              		.cfi_offset 14, -4
 102 0002 84B0     		sub	sp, sp, #16
 103              		.cfi_def_cfa_offset 24
 104 0004 00AF     		add	r7, sp, #0
 105              		.cfi_def_cfa_register 7
 106 0006 F860     		str	r0, [r7, #12]
 107 0008 B960     		str	r1, [r7, #8]
 108 000a 1346     		mov	r3, r2
 109 000c FB71     		strb	r3, [r7, #7]
  84:u8glib_arm_v1.18.1\src/u8g_pb8h8.c ****   b->buf = buf;
 110              		.loc 1 84 0
 111 000e FB68     		ldr	r3, [r7, #12]
 112 0010 BA68     		ldr	r2, [r7, #8]
 113 0012 9A60     		str	r2, [r3, #8]
  85:u8glib_arm_v1.18.1\src/u8g_pb8h8.c ****   b->width = width;
 114              		.loc 1 85 0
 115 0014 FB68     		ldr	r3, [r7, #12]
 116 0016 FA79     		ldrb	r2, [r7, #7]
 117 0018 5A71     		strb	r2, [r3, #5]
  86:u8glib_arm_v1.18.1\src/u8g_pb8h8.c ****   u8g_pb8h8_Clear(b);
 118              		.loc 1 86 0
 119 001a F868     		ldr	r0, [r7, #12]
 120 001c FFF7FEFF 		bl	u8g_pb8h8_Clear
  87:u8glib_arm_v1.18.1\src/u8g_pb8h8.c **** }
 121              		.loc 1 87 0
 122 0020 1037     		adds	r7, r7, #16
 123              		.cfi_def_cfa_offset 8
 124 0022 BD46     		mov	sp, r7
 125              		.cfi_def_cfa_register 13
 126              		@ sp needed
 127 0024 80BD     		pop	{r7, pc}
 128              		.cfi_endproc
 129              	.LFE1:
 130              		.size	u8g_pb8h8_Init, .-u8g_pb8h8_Init
 131 0026 00BF     		.section	.text.u8g_pb8h8_set_pixel,"ax",%progbits
 132              		.align	2
 133              		.thumb
 134              		.thumb_func
 135              		.type	u8g_pb8h8_set_pixel, %function
 136              	u8g_pb8h8_set_pixel:
 137              	.LFB2:
  88:u8glib_arm_v1.18.1\src/u8g_pb8h8.c **** 
  89:u8glib_arm_v1.18.1\src/u8g_pb8h8.c **** static void u8g_pb8h8_set_pixel(u8g_pb_t *b, u8g_uint_t x, u8g_uint_t y, uint8_t color_index)
  90:u8glib_arm_v1.18.1\src/u8g_pb8h8.c **** {
 138              		.loc 1 90 0
ARM GAS  C:\Users\KJA\AppData\Local\Temp\ccVGM81N.s 			page 5


 139              		.cfi_startproc
 140              		@ args = 0, pretend = 0, frame = 16
 141              		@ frame_needed = 1, uses_anonymous_args = 0
 142              		@ link register save eliminated.
 143 0000 80B4     		push	{r7}
 144              		.cfi_def_cfa_offset 4
 145              		.cfi_offset 7, -4
 146 0002 85B0     		sub	sp, sp, #20
 147              		.cfi_def_cfa_offset 24
 148 0004 00AF     		add	r7, sp, #0
 149              		.cfi_def_cfa_register 7
 150 0006 7860     		str	r0, [r7, #4]
 151 0008 0846     		mov	r0, r1
 152 000a 1146     		mov	r1, r2
 153 000c 1A46     		mov	r2, r3
 154 000e 0346     		mov	r3, r0
 155 0010 FB70     		strb	r3, [r7, #3]
 156 0012 0B46     		mov	r3, r1
 157 0014 BB70     		strb	r3, [r7, #2]
 158 0016 1346     		mov	r3, r2
 159 0018 7B70     		strb	r3, [r7, #1]
  91:u8glib_arm_v1.18.1\src/u8g_pb8h8.c ****   uint16_t tmp;
  92:u8glib_arm_v1.18.1\src/u8g_pb8h8.c ****   uint8_t *ptr = b->buf;
 160              		.loc 1 92 0
 161 001a 7B68     		ldr	r3, [r7, #4]
 162 001c 9B68     		ldr	r3, [r3, #8]
 163 001e FB60     		str	r3, [r7, #12]
  93:u8glib_arm_v1.18.1\src/u8g_pb8h8.c ****   y -= b->p.page_y0;
 164              		.loc 1 93 0
 165 0020 7B68     		ldr	r3, [r7, #4]
 166 0022 9B78     		ldrb	r3, [r3, #2]	@ zero_extendqisi2
 167 0024 BA78     		ldrb	r2, [r7, #2]
 168 0026 D31A     		subs	r3, r2, r3
 169 0028 BB70     		strb	r3, [r7, #2]
  94:u8glib_arm_v1.18.1\src/u8g_pb8h8.c ****   tmp = y;
 170              		.loc 1 94 0
 171 002a BB78     		ldrb	r3, [r7, #2]	@ zero_extendqisi2
 172 002c 7B81     		strh	r3, [r7, #10]	@ movhi
  95:u8glib_arm_v1.18.1\src/u8g_pb8h8.c ****   tmp *= b->width;
 173              		.loc 1 95 0
 174 002e 7B68     		ldr	r3, [r7, #4]
 175 0030 5B79     		ldrb	r3, [r3, #5]	@ zero_extendqisi2
 176 0032 9BB2     		uxth	r3, r3
 177 0034 7A89     		ldrh	r2, [r7, #10]	@ movhi
 178 0036 02FB03F3 		mul	r3, r2, r3
 179 003a 7B81     		strh	r3, [r7, #10]	@ movhi
  96:u8glib_arm_v1.18.1\src/u8g_pb8h8.c ****   tmp += x;
 180              		.loc 1 96 0
 181 003c FB78     		ldrb	r3, [r7, #3]	@ zero_extendqisi2
 182 003e 9AB2     		uxth	r2, r3
 183 0040 7B89     		ldrh	r3, [r7, #10]	@ movhi
 184 0042 1344     		add	r3, r3, r2
 185 0044 7B81     		strh	r3, [r7, #10]	@ movhi
  97:u8glib_arm_v1.18.1\src/u8g_pb8h8.c ****   ptr += tmp;
 186              		.loc 1 97 0
 187 0046 7B89     		ldrh	r3, [r7, #10]
 188 0048 FA68     		ldr	r2, [r7, #12]
ARM GAS  C:\Users\KJA\AppData\Local\Temp\ccVGM81N.s 			page 6


 189 004a 1344     		add	r3, r3, r2
 190 004c FB60     		str	r3, [r7, #12]
  98:u8glib_arm_v1.18.1\src/u8g_pb8h8.c ****   *ptr = color_index;
 191              		.loc 1 98 0
 192 004e FB68     		ldr	r3, [r7, #12]
 193 0050 7A78     		ldrb	r2, [r7, #1]
 194 0052 1A70     		strb	r2, [r3]
  99:u8glib_arm_v1.18.1\src/u8g_pb8h8.c **** }
 195              		.loc 1 99 0
 196 0054 1437     		adds	r7, r7, #20
 197              		.cfi_def_cfa_offset 4
 198 0056 BD46     		mov	sp, r7
 199              		.cfi_def_cfa_register 13
 200              		@ sp needed
 201 0058 5DF8047B 		ldr	r7, [sp], #4
 202              		.cfi_restore 7
 203              		.cfi_def_cfa_offset 0
 204 005c 7047     		bx	lr
 205              		.cfi_endproc
 206              	.LFE2:
 207              		.size	u8g_pb8h8_set_pixel, .-u8g_pb8h8_set_pixel
 208 005e 00BF     		.section	.text.u8g_pb8h8_SetPixel,"ax",%progbits
 209              		.align	2
 210              		.global	u8g_pb8h8_SetPixel
 211              		.thumb
 212              		.thumb_func
 213              		.type	u8g_pb8h8_SetPixel, %function
 214              	u8g_pb8h8_SetPixel:
 215              	.LFB3:
 100:u8glib_arm_v1.18.1\src/u8g_pb8h8.c **** 
 101:u8glib_arm_v1.18.1\src/u8g_pb8h8.c **** void u8g_pb8h8_SetPixel(u8g_pb_t *b, const u8g_dev_arg_pixel_t * const arg_pixel)
 102:u8glib_arm_v1.18.1\src/u8g_pb8h8.c **** {
 216              		.loc 1 102 0
 217              		.cfi_startproc
 218              		@ args = 0, pretend = 0, frame = 8
 219              		@ frame_needed = 1, uses_anonymous_args = 0
 220 0000 80B5     		push	{r7, lr}
 221              		.cfi_def_cfa_offset 8
 222              		.cfi_offset 7, -8
 223              		.cfi_offset 14, -4
 224 0002 82B0     		sub	sp, sp, #8
 225              		.cfi_def_cfa_offset 16
 226 0004 00AF     		add	r7, sp, #0
 227              		.cfi_def_cfa_register 7
 228 0006 7860     		str	r0, [r7, #4]
 229 0008 3960     		str	r1, [r7]
 103:u8glib_arm_v1.18.1\src/u8g_pb8h8.c ****   if ( arg_pixel->y < b->p.page_y0 )
 230              		.loc 1 103 0
 231 000a 3B68     		ldr	r3, [r7]
 232 000c 5A78     		ldrb	r2, [r3, #1]	@ zero_extendqisi2
 233 000e 7B68     		ldr	r3, [r7, #4]
 234 0010 9B78     		ldrb	r3, [r3, #2]	@ zero_extendqisi2
 235 0012 9A42     		cmp	r2, r3
 236 0014 00D2     		bcs	.L6
 104:u8glib_arm_v1.18.1\src/u8g_pb8h8.c ****     return;
 237              		.loc 1 104 0
 238 0016 16E0     		b	.L5
ARM GAS  C:\Users\KJA\AppData\Local\Temp\ccVGM81N.s 			page 7


 239              	.L6:
 105:u8glib_arm_v1.18.1\src/u8g_pb8h8.c ****   if ( arg_pixel->y > b->p.page_y1 )
 240              		.loc 1 105 0
 241 0018 3B68     		ldr	r3, [r7]
 242 001a 5A78     		ldrb	r2, [r3, #1]	@ zero_extendqisi2
 243 001c 7B68     		ldr	r3, [r7, #4]
 244 001e DB78     		ldrb	r3, [r3, #3]	@ zero_extendqisi2
 245 0020 9A42     		cmp	r2, r3
 246 0022 00D9     		bls	.L8
 106:u8glib_arm_v1.18.1\src/u8g_pb8h8.c ****     return;
 247              		.loc 1 106 0 discriminator 2
 248 0024 0FE0     		b	.L5
 249              	.L8:
 107:u8glib_arm_v1.18.1\src/u8g_pb8h8.c ****   if ( arg_pixel->x >= b->width )
 250              		.loc 1 107 0
 251 0026 3B68     		ldr	r3, [r7]
 252 0028 1A78     		ldrb	r2, [r3]	@ zero_extendqisi2
 253 002a 7B68     		ldr	r3, [r7, #4]
 254 002c 5B79     		ldrb	r3, [r3, #5]	@ zero_extendqisi2
 255 002e 9A42     		cmp	r2, r3
 256 0030 00D3     		bcc	.L9
 108:u8glib_arm_v1.18.1\src/u8g_pb8h8.c ****     return;
 257              		.loc 1 108 0 discriminator 3
 258 0032 08E0     		b	.L5
 259              	.L9:
 109:u8glib_arm_v1.18.1\src/u8g_pb8h8.c ****   u8g_pb8h8_set_pixel(b, arg_pixel->x, arg_pixel->y, arg_pixel->color);
 260              		.loc 1 109 0
 261 0034 3B68     		ldr	r3, [r7]
 262 0036 1978     		ldrb	r1, [r3]	@ zero_extendqisi2
 263 0038 3B68     		ldr	r3, [r7]
 264 003a 5A78     		ldrb	r2, [r3, #1]	@ zero_extendqisi2
 265 003c 3B68     		ldr	r3, [r7]
 266 003e 1B79     		ldrb	r3, [r3, #4]	@ zero_extendqisi2
 267 0040 7868     		ldr	r0, [r7, #4]
 268 0042 FFF7FEFF 		bl	u8g_pb8h8_set_pixel
 269              	.L5:
 110:u8glib_arm_v1.18.1\src/u8g_pb8h8.c **** }
 270              		.loc 1 110 0
 271 0046 0837     		adds	r7, r7, #8
 272              		.cfi_def_cfa_offset 8
 273 0048 BD46     		mov	sp, r7
 274              		.cfi_def_cfa_register 13
 275              		@ sp needed
 276 004a 80BD     		pop	{r7, pc}
 277              		.cfi_endproc
 278              	.LFE3:
 279              		.size	u8g_pb8h8_SetPixel, .-u8g_pb8h8_SetPixel
 280              		.section	.text.u8g_pb8h8_Set8Pixel,"ax",%progbits
 281              		.align	2
 282              		.global	u8g_pb8h8_Set8Pixel
 283              		.thumb
 284              		.thumb_func
 285              		.type	u8g_pb8h8_Set8Pixel, %function
 286              	u8g_pb8h8_Set8Pixel:
 287              	.LFB4:
 111:u8glib_arm_v1.18.1\src/u8g_pb8h8.c **** 
 112:u8glib_arm_v1.18.1\src/u8g_pb8h8.c **** 
ARM GAS  C:\Users\KJA\AppData\Local\Temp\ccVGM81N.s 			page 8


 113:u8glib_arm_v1.18.1\src/u8g_pb8h8.c **** void u8g_pb8h8_Set8Pixel(u8g_pb_t *b, u8g_dev_arg_pixel_t *arg_pixel)
 114:u8glib_arm_v1.18.1\src/u8g_pb8h8.c **** {
 288              		.loc 1 114 0
 289              		.cfi_startproc
 290              		@ args = 0, pretend = 0, frame = 16
 291              		@ frame_needed = 1, uses_anonymous_args = 0
 292 0000 90B5     		push	{r4, r7, lr}
 293              		.cfi_def_cfa_offset 12
 294              		.cfi_offset 4, -12
 295              		.cfi_offset 7, -8
 296              		.cfi_offset 14, -4
 297 0002 85B0     		sub	sp, sp, #20
 298              		.cfi_def_cfa_offset 32
 299 0004 00AF     		add	r7, sp, #0
 300              		.cfi_def_cfa_register 7
 301 0006 7860     		str	r0, [r7, #4]
 302 0008 3960     		str	r1, [r7]
 115:u8glib_arm_v1.18.1\src/u8g_pb8h8.c ****   register uint8_t pixel = arg_pixel->pixel;
 303              		.loc 1 115 0
 304 000a 3B68     		ldr	r3, [r7]
 305 000c 9C78     		ldrb	r4, [r3, #2]	@ zero_extendqisi2
 116:u8glib_arm_v1.18.1\src/u8g_pb8h8.c ****   u8g_uint_t dx = 0;
 306              		.loc 1 116 0
 307 000e 0023     		movs	r3, #0
 308 0010 FB73     		strb	r3, [r7, #15]
 117:u8glib_arm_v1.18.1\src/u8g_pb8h8.c ****   u8g_uint_t dy = 0;
 309              		.loc 1 117 0
 310 0012 0023     		movs	r3, #0
 311 0014 BB73     		strb	r3, [r7, #14]
 118:u8glib_arm_v1.18.1\src/u8g_pb8h8.c ****   
 119:u8glib_arm_v1.18.1\src/u8g_pb8h8.c ****   switch( arg_pixel->dir )
 312              		.loc 1 119 0
 313 0016 3B68     		ldr	r3, [r7]
 314 0018 DB78     		ldrb	r3, [r3, #3]	@ zero_extendqisi2
 315 001a 032B     		cmp	r3, #3
 316 001c 1AD8     		bhi	.L11
 317 001e 01A2     		adr	r2, .L13
 318 0020 52F823F0 		ldr	pc, [r2, r3, lsl #2]
 319              		.p2align 2
 320              	.L13:
 321 0024 35000000 		.word	.L12+1
 322 0028 3D000000 		.word	.L14+1
 323 002c 45000000 		.word	.L15+1
 324 0030 4D000000 		.word	.L16+1
 325              		.p2align 1
 326              	.L12:
 120:u8glib_arm_v1.18.1\src/u8g_pb8h8.c ****   {
 121:u8glib_arm_v1.18.1\src/u8g_pb8h8.c ****     case 0: dx++; break;
 327              		.loc 1 121 0
 328 0034 FB7B     		ldrb	r3, [r7, #15]	@ zero_extendqisi2
 329 0036 0133     		adds	r3, r3, #1
 330 0038 FB73     		strb	r3, [r7, #15]
 331 003a 0BE0     		b	.L11
 332              	.L14:
 122:u8glib_arm_v1.18.1\src/u8g_pb8h8.c ****     case 1: dy++; break;
 333              		.loc 1 122 0
 334 003c BB7B     		ldrb	r3, [r7, #14]	@ zero_extendqisi2
ARM GAS  C:\Users\KJA\AppData\Local\Temp\ccVGM81N.s 			page 9


 335 003e 0133     		adds	r3, r3, #1
 336 0040 BB73     		strb	r3, [r7, #14]
 337 0042 07E0     		b	.L11
 338              	.L15:
 123:u8glib_arm_v1.18.1\src/u8g_pb8h8.c ****     case 2: dx--; break;
 339              		.loc 1 123 0
 340 0044 FB7B     		ldrb	r3, [r7, #15]	@ zero_extendqisi2
 341 0046 013B     		subs	r3, r3, #1
 342 0048 FB73     		strb	r3, [r7, #15]
 343 004a 03E0     		b	.L11
 344              	.L16:
 124:u8glib_arm_v1.18.1\src/u8g_pb8h8.c ****     case 3: dy--; break;
 345              		.loc 1 124 0
 346 004c BB7B     		ldrb	r3, [r7, #14]	@ zero_extendqisi2
 347 004e 013B     		subs	r3, r3, #1
 348 0050 BB73     		strb	r3, [r7, #14]
 349 0052 00BF     		nop
 350              	.L11:
 125:u8glib_arm_v1.18.1\src/u8g_pb8h8.c ****   }
 126:u8glib_arm_v1.18.1\src/u8g_pb8h8.c ****   
 127:u8glib_arm_v1.18.1\src/u8g_pb8h8.c ****   do
 128:u8glib_arm_v1.18.1\src/u8g_pb8h8.c ****   {
 129:u8glib_arm_v1.18.1\src/u8g_pb8h8.c ****     if ( pixel & 128 )
 351              		.loc 1 129 0
 352 0054 E3B2     		uxtb	r3, r4
 353 0056 5BB2     		sxtb	r3, r3
 354 0058 002B     		cmp	r3, #0
 355 005a 03DA     		bge	.L17
 130:u8glib_arm_v1.18.1\src/u8g_pb8h8.c ****       u8g_pb8h8_SetPixel(b, arg_pixel);
 356              		.loc 1 130 0
 357 005c 7868     		ldr	r0, [r7, #4]
 358 005e 3968     		ldr	r1, [r7]
 359 0060 FFF7FEFF 		bl	u8g_pb8h8_SetPixel
 360              	.L17:
 131:u8glib_arm_v1.18.1\src/u8g_pb8h8.c ****     arg_pixel->x += dx;
 361              		.loc 1 131 0
 362 0064 3B68     		ldr	r3, [r7]
 363 0066 1A78     		ldrb	r2, [r3]	@ zero_extendqisi2
 364 0068 FB7B     		ldrb	r3, [r7, #15]
 365 006a 1344     		add	r3, r3, r2
 366 006c DAB2     		uxtb	r2, r3
 367 006e 3B68     		ldr	r3, [r7]
 368 0070 1A70     		strb	r2, [r3]
 132:u8glib_arm_v1.18.1\src/u8g_pb8h8.c ****     arg_pixel->y += dy;
 369              		.loc 1 132 0
 370 0072 3B68     		ldr	r3, [r7]
 371 0074 5A78     		ldrb	r2, [r3, #1]	@ zero_extendqisi2
 372 0076 BB7B     		ldrb	r3, [r7, #14]
 373 0078 1344     		add	r3, r3, r2
 374 007a DAB2     		uxtb	r2, r3
 375 007c 3B68     		ldr	r3, [r7]
 376 007e 5A70     		strb	r2, [r3, #1]
 133:u8glib_arm_v1.18.1\src/u8g_pb8h8.c ****     pixel <<= 1;
 377              		.loc 1 133 0
 378 0080 6300     		lsls	r3, r4, #1
 379 0082 DCB2     		uxtb	r4, r3
 134:u8glib_arm_v1.18.1\src/u8g_pb8h8.c ****   } while( pixel != 0  );  
ARM GAS  C:\Users\KJA\AppData\Local\Temp\ccVGM81N.s 			page 10


 380              		.loc 1 134 0
 381 0084 002C     		cmp	r4, #0
 382 0086 E5D1     		bne	.L11
 135:u8glib_arm_v1.18.1\src/u8g_pb8h8.c **** }
 383              		.loc 1 135 0
 384 0088 1437     		adds	r7, r7, #20
 385              		.cfi_def_cfa_offset 12
 386 008a BD46     		mov	sp, r7
 387              		.cfi_def_cfa_register 13
 388              		@ sp needed
 389 008c 90BD     		pop	{r4, r7, pc}
 390              		.cfi_endproc
 391              	.LFE4:
 392              		.size	u8g_pb8h8_Set8Pixel, .-u8g_pb8h8_Set8Pixel
 393 008e 00BF     		.section	.text.u8g_dev_pb8h8_base_fn,"ax",%progbits
 394              		.align	2
 395              		.global	u8g_dev_pb8h8_base_fn
 396              		.thumb
 397              		.thumb_func
 398              		.type	u8g_dev_pb8h8_base_fn, %function
 399              	u8g_dev_pb8h8_base_fn:
 400              	.LFB5:
 136:u8glib_arm_v1.18.1\src/u8g_pb8h8.c **** 
 137:u8glib_arm_v1.18.1\src/u8g_pb8h8.c **** 
 138:u8glib_arm_v1.18.1\src/u8g_pb8h8.c **** uint8_t u8g_dev_pb8h8_base_fn(u8g_t *u8g, u8g_dev_t *dev, uint8_t msg, void *arg)
 139:u8glib_arm_v1.18.1\src/u8g_pb8h8.c **** {
 401              		.loc 1 139 0
 402              		.cfi_startproc
 403              		@ args = 0, pretend = 0, frame = 24
 404              		@ frame_needed = 1, uses_anonymous_args = 0
 405 0000 80B5     		push	{r7, lr}
 406              		.cfi_def_cfa_offset 8
 407              		.cfi_offset 7, -8
 408              		.cfi_offset 14, -4
 409 0002 86B0     		sub	sp, sp, #24
 410              		.cfi_def_cfa_offset 32
 411 0004 00AF     		add	r7, sp, #0
 412              		.cfi_def_cfa_register 7
 413 0006 F860     		str	r0, [r7, #12]
 414 0008 B960     		str	r1, [r7, #8]
 415 000a 3B60     		str	r3, [r7]
 416 000c 1346     		mov	r3, r2
 417 000e FB71     		strb	r3, [r7, #7]
 140:u8glib_arm_v1.18.1\src/u8g_pb8h8.c ****   u8g_pb_t *pb = (u8g_pb_t *)(dev->dev_mem);
 418              		.loc 1 140 0
 419 0010 BB68     		ldr	r3, [r7, #8]
 420 0012 5B68     		ldr	r3, [r3, #4]
 421 0014 7B61     		str	r3, [r7, #20]
 141:u8glib_arm_v1.18.1\src/u8g_pb8h8.c ****   switch(msg)
 422              		.loc 1 141 0
 423 0016 FB79     		ldrb	r3, [r7, #7]	@ zero_extendqisi2
 424 0018 0A3B     		subs	r3, r3, #10
 425 001a 3E2B     		cmp	r3, #62
 426 001c 00F2BA80 		bhi	.L19
 427 0020 01A2     		adr	r2, .L21
 428 0022 52F823F0 		ldr	pc, [r2, r3, lsl #2]
 429 0026 00BF     		.p2align 2
ARM GAS  C:\Users\KJA\AppData\Local\Temp\ccVGM81N.s 			page 11


 430              	.L21:
 431 0028 95010000 		.word	.L19+1
 432 002c 95010000 		.word	.L19+1
 433 0030 95010000 		.word	.L19+1
 434 0034 95010000 		.word	.L19+1
 435 0038 95010000 		.word	.L19+1
 436 003c 95010000 		.word	.L19+1
 437 0040 95010000 		.word	.L19+1
 438 0044 95010000 		.word	.L19+1
 439 0048 95010000 		.word	.L19+1
 440 004c 95010000 		.word	.L19+1
 441 0050 49010000 		.word	.L23+1
 442 0054 59010000 		.word	.L24+1
 443 0058 95010000 		.word	.L19+1
 444 005c 73010000 		.word	.L25+1
 445 0060 95010000 		.word	.L19+1
 446 0064 95010000 		.word	.L19+1
 447 0068 95010000 		.word	.L19+1
 448 006c 95010000 		.word	.L19+1
 449 0070 95010000 		.word	.L19+1
 450 0074 95010000 		.word	.L19+1
 451 0078 95010000 		.word	.L19+1
 452 007c 95010000 		.word	.L19+1
 453 0080 95010000 		.word	.L19+1
 454 0084 95010000 		.word	.L19+1
 455 0088 95010000 		.word	.L19+1
 456 008c 95010000 		.word	.L19+1
 457 0090 95010000 		.word	.L19+1
 458 0094 95010000 		.word	.L19+1
 459 0098 95010000 		.word	.L19+1
 460 009c 95010000 		.word	.L19+1
 461 00a0 95010000 		.word	.L19+1
 462 00a4 95010000 		.word	.L19+1
 463 00a8 95010000 		.word	.L19+1
 464 00ac 95010000 		.word	.L19+1
 465 00b0 95010000 		.word	.L19+1
 466 00b4 95010000 		.word	.L19+1
 467 00b8 95010000 		.word	.L19+1
 468 00bc 95010000 		.word	.L19+1
 469 00c0 95010000 		.word	.L19+1
 470 00c4 95010000 		.word	.L19+1
 471 00c8 3F010000 		.word	.L26+1
 472 00cc 95010000 		.word	.L19+1
 473 00d0 95010000 		.word	.L19+1
 474 00d4 95010000 		.word	.L19+1
 475 00d8 95010000 		.word	.L19+1
 476 00dc 95010000 		.word	.L19+1
 477 00e0 95010000 		.word	.L19+1
 478 00e4 95010000 		.word	.L19+1
 479 00e8 95010000 		.word	.L19+1
 480 00ec 25010000 		.word	.L27+1
 481 00f0 95010000 		.word	.L19+1
 482 00f4 95010000 		.word	.L19+1
 483 00f8 95010000 		.word	.L19+1
 484 00fc 95010000 		.word	.L19+1
 485 0100 95010000 		.word	.L19+1
 486 0104 95010000 		.word	.L19+1
ARM GAS  C:\Users\KJA\AppData\Local\Temp\ccVGM81N.s 			page 12


 487 0108 95010000 		.word	.L19+1
 488 010c 95010000 		.word	.L19+1
 489 0110 95010000 		.word	.L19+1
 490 0114 95010000 		.word	.L19+1
 491 0118 7D010000 		.word	.L30+1
 492 011c 87010000 		.word	.L31+1
 493 0120 91010000 		.word	.L32+1
 494              		.p2align 1
 495              	.L27:
 142:u8glib_arm_v1.18.1\src/u8g_pb8h8.c ****   {
 143:u8glib_arm_v1.18.1\src/u8g_pb8h8.c ****     case U8G_DEV_MSG_SET_8PIXEL:
 144:u8glib_arm_v1.18.1\src/u8g_pb8h8.c ****       if ( u8g_pb_Is8PixelVisible(pb, (u8g_dev_arg_pixel_t *)arg) )
 496              		.loc 1 144 0
 497 0124 7869     		ldr	r0, [r7, #20]
 498 0126 3968     		ldr	r1, [r7]
 499 0128 FFF7FEFF 		bl	u8g_pb_Is8PixelVisible
 500 012c 0346     		mov	r3, r0
 501 012e 002B     		cmp	r3, #0
 502 0130 04D0     		beq	.L33
 145:u8glib_arm_v1.18.1\src/u8g_pb8h8.c ****         u8g_pb8h8_Set8Pixel(pb, (u8g_dev_arg_pixel_t *)arg);
 503              		.loc 1 145 0
 504 0132 7869     		ldr	r0, [r7, #20]
 505 0134 3968     		ldr	r1, [r7]
 506 0136 FFF7FEFF 		bl	u8g_pb8h8_Set8Pixel
 146:u8glib_arm_v1.18.1\src/u8g_pb8h8.c ****       break;
 507              		.loc 1 146 0
 508 013a 2BE0     		b	.L19
 509              	.L33:
 510 013c 2AE0     		b	.L19
 511              	.L26:
 147:u8glib_arm_v1.18.1\src/u8g_pb8h8.c ****     case U8G_DEV_MSG_SET_PIXEL:
 148:u8glib_arm_v1.18.1\src/u8g_pb8h8.c ****       u8g_pb8h8_SetPixel(pb, (u8g_dev_arg_pixel_t *)arg);
 512              		.loc 1 148 0
 513 013e 7869     		ldr	r0, [r7, #20]
 514 0140 3968     		ldr	r1, [r7]
 515 0142 FFF7FEFF 		bl	u8g_pb8h8_SetPixel
 149:u8glib_arm_v1.18.1\src/u8g_pb8h8.c ****       break;
 516              		.loc 1 149 0
 517 0146 25E0     		b	.L19
 518              	.L23:
 150:u8glib_arm_v1.18.1\src/u8g_pb8h8.c ****     case U8G_DEV_MSG_INIT:
 151:u8glib_arm_v1.18.1\src/u8g_pb8h8.c ****       break;
 152:u8glib_arm_v1.18.1\src/u8g_pb8h8.c ****     case U8G_DEV_MSG_STOP:
 153:u8glib_arm_v1.18.1\src/u8g_pb8h8.c ****       break;
 154:u8glib_arm_v1.18.1\src/u8g_pb8h8.c ****     case U8G_DEV_MSG_PAGE_FIRST:
 155:u8glib_arm_v1.18.1\src/u8g_pb8h8.c ****       u8g_pb8h8_Clear(pb);
 519              		.loc 1 155 0
 520 0148 7869     		ldr	r0, [r7, #20]
 521 014a FFF7FEFF 		bl	u8g_pb8h8_Clear
 156:u8glib_arm_v1.18.1\src/u8g_pb8h8.c ****       u8g_page_First(&(pb->p));
 522              		.loc 1 156 0
 523 014e 7B69     		ldr	r3, [r7, #20]
 524 0150 1846     		mov	r0, r3
 525 0152 FFF7FEFF 		bl	u8g_page_First
 157:u8glib_arm_v1.18.1\src/u8g_pb8h8.c ****       break;
 526              		.loc 1 157 0
 527 0156 1DE0     		b	.L19
ARM GAS  C:\Users\KJA\AppData\Local\Temp\ccVGM81N.s 			page 13


 528              	.L24:
 158:u8glib_arm_v1.18.1\src/u8g_pb8h8.c ****     case U8G_DEV_MSG_PAGE_NEXT:
 159:u8glib_arm_v1.18.1\src/u8g_pb8h8.c ****       if ( u8g_page_Next(&(pb->p)) == 0 )
 529              		.loc 1 159 0
 530 0158 7B69     		ldr	r3, [r7, #20]
 531 015a 1846     		mov	r0, r3
 532 015c FFF7FEFF 		bl	u8g_page_Next
 533 0160 0346     		mov	r3, r0
 534 0162 002B     		cmp	r3, #0
 535 0164 01D1     		bne	.L34
 160:u8glib_arm_v1.18.1\src/u8g_pb8h8.c ****         return 0;
 536              		.loc 1 160 0
 537 0166 0023     		movs	r3, #0
 538 0168 15E0     		b	.L35
 539              	.L34:
 161:u8glib_arm_v1.18.1\src/u8g_pb8h8.c ****       u8g_pb8h8_Clear(pb);
 540              		.loc 1 161 0
 541 016a 7869     		ldr	r0, [r7, #20]
 542 016c FFF7FEFF 		bl	u8g_pb8h8_Clear
 162:u8glib_arm_v1.18.1\src/u8g_pb8h8.c ****       break;
 543              		.loc 1 162 0
 544 0170 10E0     		b	.L19
 545              	.L25:
 163:u8glib_arm_v1.18.1\src/u8g_pb8h8.c **** #ifdef U8G_DEV_MSG_IS_BBX_INTERSECTION
 164:u8glib_arm_v1.18.1\src/u8g_pb8h8.c ****     case U8G_DEV_MSG_IS_BBX_INTERSECTION:
 165:u8glib_arm_v1.18.1\src/u8g_pb8h8.c ****       return u8g_pb_IsIntersection(pb, (u8g_dev_arg_bbx_t *)arg);
 166:u8glib_arm_v1.18.1\src/u8g_pb8h8.c **** #endif
 167:u8glib_arm_v1.18.1\src/u8g_pb8h8.c ****     case U8G_DEV_MSG_GET_PAGE_BOX:
 168:u8glib_arm_v1.18.1\src/u8g_pb8h8.c ****       u8g_pb_GetPageBox(pb, (u8g_box_t *)arg);
 546              		.loc 1 168 0
 547 0172 7869     		ldr	r0, [r7, #20]
 548 0174 3968     		ldr	r1, [r7]
 549 0176 FFF7FEFF 		bl	u8g_pb_GetPageBox
 169:u8glib_arm_v1.18.1\src/u8g_pb8h8.c ****       break;
 550              		.loc 1 169 0
 551 017a 0BE0     		b	.L19
 552              	.L30:
 170:u8glib_arm_v1.18.1\src/u8g_pb8h8.c ****     case U8G_DEV_MSG_GET_WIDTH:
 171:u8glib_arm_v1.18.1\src/u8g_pb8h8.c ****       *((u8g_uint_t *)arg) = pb->width;
 553              		.loc 1 171 0
 554 017c 7B69     		ldr	r3, [r7, #20]
 555 017e 5A79     		ldrb	r2, [r3, #5]	@ zero_extendqisi2
 556 0180 3B68     		ldr	r3, [r7]
 557 0182 1A70     		strb	r2, [r3]
 172:u8glib_arm_v1.18.1\src/u8g_pb8h8.c ****       break;
 558              		.loc 1 172 0
 559 0184 06E0     		b	.L19
 560              	.L31:
 173:u8glib_arm_v1.18.1\src/u8g_pb8h8.c ****     case U8G_DEV_MSG_GET_HEIGHT:
 174:u8glib_arm_v1.18.1\src/u8g_pb8h8.c ****       *((u8g_uint_t *)arg) = pb->p.total_height;
 561              		.loc 1 174 0
 562 0186 7B69     		ldr	r3, [r7, #20]
 563 0188 5A78     		ldrb	r2, [r3, #1]	@ zero_extendqisi2
 564 018a 3B68     		ldr	r3, [r7]
 565 018c 1A70     		strb	r2, [r3]
 175:u8glib_arm_v1.18.1\src/u8g_pb8h8.c ****       break;
 566              		.loc 1 175 0
ARM GAS  C:\Users\KJA\AppData\Local\Temp\ccVGM81N.s 			page 14


 567 018e 01E0     		b	.L19
 568              	.L32:
 176:u8glib_arm_v1.18.1\src/u8g_pb8h8.c ****     case U8G_DEV_MSG_SET_COLOR_ENTRY:
 177:u8glib_arm_v1.18.1\src/u8g_pb8h8.c ****       break;
 178:u8glib_arm_v1.18.1\src/u8g_pb8h8.c ****     case U8G_DEV_MSG_SET_XY_CB:
 179:u8glib_arm_v1.18.1\src/u8g_pb8h8.c ****       break;
 180:u8glib_arm_v1.18.1\src/u8g_pb8h8.c ****     case U8G_DEV_MSG_GET_MODE:
 181:u8glib_arm_v1.18.1\src/u8g_pb8h8.c ****       return U8G_MODE_R3G3B2;
 569              		.loc 1 181 0
 570 0190 2823     		movs	r3, #40
 571 0192 00E0     		b	.L35
 572              	.L19:
 182:u8glib_arm_v1.18.1\src/u8g_pb8h8.c ****   }
 183:u8glib_arm_v1.18.1\src/u8g_pb8h8.c ****   return 1;
 573              		.loc 1 183 0
 574 0194 0123     		movs	r3, #1
 575              	.L35:
 184:u8glib_arm_v1.18.1\src/u8g_pb8h8.c **** }
 576              		.loc 1 184 0
 577 0196 1846     		mov	r0, r3
 578 0198 1837     		adds	r7, r7, #24
 579              		.cfi_def_cfa_offset 8
 580 019a BD46     		mov	sp, r7
 581              		.cfi_def_cfa_register 13
 582              		@ sp needed
 583 019c 80BD     		pop	{r7, pc}
 584              		.cfi_endproc
 585              	.LFE5:
 586              		.size	u8g_dev_pb8h8_base_fn, .-u8g_dev_pb8h8_base_fn
 587 019e 00BF     		.text
 588              	.Letext0:
 589              		.file 2 "c:\\program files (x86)\\cypress\\psoc creator\\4.0\\psoc creator\\import\\gnu\\arm\\4.9.
 590              		.file 3 "c:\\program files (x86)\\cypress\\psoc creator\\4.0\\psoc creator\\import\\gnu\\arm\\4.9.
 591              		.file 4 "u8glib_arm_v1.18.1\\src\\u8g.h"