ARM GAS  C:\Users\Shiguruy\AppData\Local\Temp\ccTXlQmq.s 			page 1


   1              		.syntax unified
   2              		.cpu cortex-m3
   3              		.fpu softvfp
   4              		.eabi_attribute 20, 1
   5              		.eabi_attribute 21, 1
   6              		.eabi_attribute 23, 3
   7              		.eabi_attribute 24, 1
   8              		.eabi_attribute 25, 1
   9              		.eabi_attribute 26, 1
  10              		.eabi_attribute 30, 6
  11              		.eabi_attribute 34, 1
  12              		.eabi_attribute 18, 4
  13              		.thumb
  14              		.file	"u8g_dev_st7687_c144mvgd.c"
  15              		.text
  16              	.Ltext0:
  17              		.cfi_sections	.debug_frame
  18              		.section	.rodata
  19              		.align	2
  20              		.type	u8g_dev_st7687_c144mvgd_init_seq, %object
  21              		.size	u8g_dev_st7687_c144mvgd_init_seq, 138
  22              	u8g_dev_st7687_c144mvgd_init_seq:
  23 0000 FF       		.byte	-1
  24 0001 D0       		.byte	-48
  25 0002 FF       		.byte	-1
  26 0003 E0       		.byte	-32
  27 0004 FF       		.byte	-1
  28 0005 D1       		.byte	-47
  29 0006 FF       		.byte	-1
  30 0007 CF       		.byte	-49
  31 0008 11       		.byte	17
  32 0009 FF       		.byte	-1
  33 000a 05       		.byte	5
  34 000b 3A       		.byte	58
  35 000c FF       		.byte	-1
  36 000d E1       		.byte	-31
  37 000e 04       		.byte	4
  38 000f FF       		.byte	-1
  39 0010 E0       		.byte	-32
  40 0011 26       		.byte	38
  41 0012 FF       		.byte	-1
  42 0013 E1       		.byte	-31
  43 0014 04       		.byte	4
  44 0015 FF       		.byte	-1
  45 0016 E0       		.byte	-32
  46 0017 F2       		.byte	-14
  47 0018 FF       		.byte	-1
  48 0019 E1       		.byte	-31
  49 001a 01       		.byte	1
  50 001b FF       		.byte	-1
  51 001c E0       		.byte	-32
  52 001d E0       		.byte	-32
  53 001e FF       		.byte	-1
  54 001f E1       		.byte	-31
  55 0020 3F       		.byte	63
  56 0021 25       		.byte	37
  57 0022 1C       		.byte	28
ARM GAS  C:\Users\Shiguruy\AppData\Local\Temp\ccTXlQmq.s 			page 2


  58 0023 1E       		.byte	30
  59 0024 20       		.byte	32
  60 0025 12       		.byte	18
  61 0026 2A       		.byte	42
  62 0027 90       		.byte	-112
  63 0028 24       		.byte	36
  64 0029 11       		.byte	17
  65 002a 00       		.byte	0
  66 002b 00       		.byte	0
  67 002c 00       		.byte	0
  68 002d 00       		.byte	0
  69 002e 00       		.byte	0
  70 002f FF       		.byte	-1
  71 0030 E0       		.byte	-32
  72 0031 E1       		.byte	-31
  73 0032 FF       		.byte	-1
  74 0033 E1       		.byte	-31
  75 0034 20       		.byte	32
  76 0035 20       		.byte	32
  77 0036 20       		.byte	32
  78 0037 20       		.byte	32
  79 0038 05       		.byte	5
  80 0039 00       		.byte	0
  81 003a 15       		.byte	21
  82 003b A7       		.byte	-89
  83 003c 3D       		.byte	61
  84 003d 18       		.byte	24
  85 003e 25       		.byte	37
  86 003f 2A       		.byte	42
  87 0040 2B       		.byte	43
  88 0041 2B       		.byte	43
  89 0042 3A       		.byte	58
  90 0043 FF       		.byte	-1
  91 0044 E0       		.byte	-32
  92 0045 B1       		.byte	-79
  93 0046 FF       		.byte	-1
  94 0047 E1       		.byte	-31
  95 0048 08       		.byte	8
  96 0049 08       		.byte	8
  97 004a FF       		.byte	-1
  98 004b E0       		.byte	-32
  99 004c B4       		.byte	-76
 100 004d FF       		.byte	-1
 101 004e E1       		.byte	-31
 102 004f 07       		.byte	7
 103 0050 FF       		.byte	-1
 104 0051 E0       		.byte	-32
 105 0052 C0       		.byte	-64
 106 0053 FF       		.byte	-1
 107 0054 E1       		.byte	-31
 108 0055 0A       		.byte	10
 109 0056 02       		.byte	2
 110 0057 FF       		.byte	-1
 111 0058 E0       		.byte	-32
 112 0059 C1       		.byte	-63
 113 005a FF       		.byte	-1
 114 005b E1       		.byte	-31
ARM GAS  C:\Users\Shiguruy\AppData\Local\Temp\ccTXlQmq.s 			page 3


 115 005c 02       		.byte	2
 116 005d FF       		.byte	-1
 117 005e E0       		.byte	-32
 118 005f C5       		.byte	-59
 119 0060 FF       		.byte	-1
 120 0061 E1       		.byte	-31
 121 0062 50       		.byte	80
 122 0063 5B       		.byte	91
 123 0064 FF       		.byte	-1
 124 0065 E0       		.byte	-32
 125 0066 C7       		.byte	-57
 126 0067 FF       		.byte	-1
 127 0068 E1       		.byte	-31
 128 0069 40       		.byte	64
 129 006a FF       		.byte	-1
 130 006b E0       		.byte	-32
 131 006c 2A       		.byte	42
 132 006d FF       		.byte	-1
 133 006e E1       		.byte	-31
 134 006f 00       		.byte	0
 135 0070 00       		.byte	0
 136 0071 00       		.byte	0
 137 0072 7F       		.byte	127
 138 0073 FF       		.byte	-1
 139 0074 E0       		.byte	-32
 140 0075 2B       		.byte	43
 141 0076 FF       		.byte	-1
 142 0077 E1       		.byte	-31
 143 0078 00       		.byte	0
 144 0079 00       		.byte	0
 145 007a 00       		.byte	0
 146 007b 7F       		.byte	127
 147 007c FF       		.byte	-1
 148 007d E0       		.byte	-32
 149 007e 36       		.byte	54
 150 007f FF       		.byte	-1
 151 0080 E1       		.byte	-31
 152 0081 00       		.byte	0
 153 0082 FF       		.byte	-1
 154 0083 E0       		.byte	-32
 155 0084 29       		.byte	41
 156 0085 2C       		.byte	44
 157 0086 FF       		.byte	-1
 158 0087 D0       		.byte	-48
 159 0088 FF       		.byte	-1
 160 0089 FE       		.byte	-2
 161 008a 0000     		.section	.text.get_byte_1,"ax",%progbits
 162              		.align	2
 163              		.thumb
 164              		.thumb_func
 165              		.type	get_byte_1, %function
 166              	get_byte_1:
 167              	.LFB0:
 168              		.file 1 ".\\u8glib_arm_v1.18.1\\src\\u8g_dev_st7687_c144mvgd.c"
   1:.\u8glib_arm_v1.18.1\src/u8g_dev_st7687_c144mvgd.c **** /*
   2:.\u8glib_arm_v1.18.1\src/u8g_dev_st7687_c144mvgd.c **** 
   3:.\u8glib_arm_v1.18.1\src/u8g_dev_st7687_c144mvgd.c ****   u8g_dev_st7687_c144mvgd.c (1.44" TFT)
ARM GAS  C:\Users\Shiguruy\AppData\Local\Temp\ccTXlQmq.s 			page 4


   4:.\u8glib_arm_v1.18.1\src/u8g_dev_st7687_c144mvgd.c ****   
   5:.\u8glib_arm_v1.18.1\src/u8g_dev_st7687_c144mvgd.c ****   Status: Started, but not finished
   6:.\u8glib_arm_v1.18.1\src/u8g_dev_st7687_c144mvgd.c **** 
   7:.\u8glib_arm_v1.18.1\src/u8g_dev_st7687_c144mvgd.c ****   Universal 8bit Graphics Library
   8:.\u8glib_arm_v1.18.1\src/u8g_dev_st7687_c144mvgd.c ****   
   9:.\u8glib_arm_v1.18.1\src/u8g_dev_st7687_c144mvgd.c ****   Copyright (c) 2012, olikraus@gmail.com
  10:.\u8glib_arm_v1.18.1\src/u8g_dev_st7687_c144mvgd.c ****   All rights reserved.
  11:.\u8glib_arm_v1.18.1\src/u8g_dev_st7687_c144mvgd.c **** 
  12:.\u8glib_arm_v1.18.1\src/u8g_dev_st7687_c144mvgd.c ****   Redistribution and use in source and binary forms, with or without modification, 
  13:.\u8glib_arm_v1.18.1\src/u8g_dev_st7687_c144mvgd.c ****   are permitted provided that the following conditions are met:
  14:.\u8glib_arm_v1.18.1\src/u8g_dev_st7687_c144mvgd.c **** 
  15:.\u8glib_arm_v1.18.1\src/u8g_dev_st7687_c144mvgd.c ****   * Redistributions of source code must retain the above copyright notice, this list 
  16:.\u8glib_arm_v1.18.1\src/u8g_dev_st7687_c144mvgd.c ****     of conditions and the following disclaimer.
  17:.\u8glib_arm_v1.18.1\src/u8g_dev_st7687_c144mvgd.c ****     
  18:.\u8glib_arm_v1.18.1\src/u8g_dev_st7687_c144mvgd.c ****   * Redistributions in binary form must reproduce the above copyright notice, this 
  19:.\u8glib_arm_v1.18.1\src/u8g_dev_st7687_c144mvgd.c ****     list of conditions and the following disclaimer in the documentation and/or other 
  20:.\u8glib_arm_v1.18.1\src/u8g_dev_st7687_c144mvgd.c ****     materials provided with the distribution.
  21:.\u8glib_arm_v1.18.1\src/u8g_dev_st7687_c144mvgd.c **** 
  22:.\u8glib_arm_v1.18.1\src/u8g_dev_st7687_c144mvgd.c ****   THIS SOFTWARE IS PROVIDED BY THE COPYRIGHT HOLDERS AND 
  23:.\u8glib_arm_v1.18.1\src/u8g_dev_st7687_c144mvgd.c ****   CONTRIBUTORS "AS IS" AND ANY EXPRESS OR IMPLIED WARRANTIES, 
  24:.\u8glib_arm_v1.18.1\src/u8g_dev_st7687_c144mvgd.c ****   INCLUDING, BUT NOT LIMITED TO, THE IMPLIED WARRANTIES OF 
  25:.\u8glib_arm_v1.18.1\src/u8g_dev_st7687_c144mvgd.c ****   MERCHANTABILITY AND FITNESS FOR A PARTICULAR PURPOSE ARE 
  26:.\u8glib_arm_v1.18.1\src/u8g_dev_st7687_c144mvgd.c ****   DISCLAIMED. IN NO EVENT SHALL THE COPYRIGHT HOLDER OR 
  27:.\u8glib_arm_v1.18.1\src/u8g_dev_st7687_c144mvgd.c ****   CONTRIBUTORS BE LIABLE FOR ANY DIRECT, INDIRECT, INCIDENTAL, 
  28:.\u8glib_arm_v1.18.1\src/u8g_dev_st7687_c144mvgd.c ****   SPECIAL, EXEMPLARY, OR CONSEQUENTIAL DAMAGES (INCLUDING, BUT 
  29:.\u8glib_arm_v1.18.1\src/u8g_dev_st7687_c144mvgd.c ****   NOT LIMITED TO, PROCUREMENT OF SUBSTITUTE GOODS OR SERVICES; 
  30:.\u8glib_arm_v1.18.1\src/u8g_dev_st7687_c144mvgd.c ****   LOSS OF USE, DATA, OR PROFITS; OR BUSINESS INTERRUPTION) HOWEVER 
  31:.\u8glib_arm_v1.18.1\src/u8g_dev_st7687_c144mvgd.c ****   CAUSED AND ON ANY THEORY OF LIABILITY, WHETHER IN CONTRACT, 
  32:.\u8glib_arm_v1.18.1\src/u8g_dev_st7687_c144mvgd.c ****   STRICT LIABILITY, OR TORT (INCLUDING NEGLIGENCE OR OTHERWISE) 
  33:.\u8glib_arm_v1.18.1\src/u8g_dev_st7687_c144mvgd.c ****   ARISING IN ANY WAY OUT OF THE USE OF THIS SOFTWARE, EVEN IF 
  34:.\u8glib_arm_v1.18.1\src/u8g_dev_st7687_c144mvgd.c ****   ADVISED OF THE POSSIBILITY OF SUCH DAMAGE.  
  35:.\u8glib_arm_v1.18.1\src/u8g_dev_st7687_c144mvgd.c ****   
  36:.\u8glib_arm_v1.18.1\src/u8g_dev_st7687_c144mvgd.c ****   
  37:.\u8glib_arm_v1.18.1\src/u8g_dev_st7687_c144mvgd.c **** */
  38:.\u8glib_arm_v1.18.1\src/u8g_dev_st7687_c144mvgd.c **** 
  39:.\u8glib_arm_v1.18.1\src/u8g_dev_st7687_c144mvgd.c **** #include "u8g.h"
  40:.\u8glib_arm_v1.18.1\src/u8g_dev_st7687_c144mvgd.c **** 
  41:.\u8glib_arm_v1.18.1\src/u8g_dev_st7687_c144mvgd.c **** #define WIDTH 128
  42:.\u8glib_arm_v1.18.1\src/u8g_dev_st7687_c144mvgd.c **** #define HEIGHT 128
  43:.\u8glib_arm_v1.18.1\src/u8g_dev_st7687_c144mvgd.c **** #define PAGE_HEIGHT 8
  44:.\u8glib_arm_v1.18.1\src/u8g_dev_st7687_c144mvgd.c **** 
  45:.\u8glib_arm_v1.18.1\src/u8g_dev_st7687_c144mvgd.c **** 
  46:.\u8glib_arm_v1.18.1\src/u8g_dev_st7687_c144mvgd.c **** #ifdef FIRST_VERSION
  47:.\u8glib_arm_v1.18.1\src/u8g_dev_st7687_c144mvgd.c **** /* 
  48:.\u8glib_arm_v1.18.1\src/u8g_dev_st7687_c144mvgd.c **** see also: read.pudn.com/downloads115/sourcecode/app/484503/LCM_Display.c__.htm 
  49:.\u8glib_arm_v1.18.1\src/u8g_dev_st7687_c144mvgd.c **** http://en.pudn.com/downloads115/sourcecode/app/detail484503_en.html
  50:.\u8glib_arm_v1.18.1\src/u8g_dev_st7687_c144mvgd.c **** */
  51:.\u8glib_arm_v1.18.1\src/u8g_dev_st7687_c144mvgd.c **** 
  52:.\u8glib_arm_v1.18.1\src/u8g_dev_st7687_c144mvgd.c **** static const uint8_t u8g_dev_st7687_c144mvgd_init_seq[] PROGMEM = {
  53:.\u8glib_arm_v1.18.1\src/u8g_dev_st7687_c144mvgd.c ****   U8G_ESC_CS(0),             /* disable chip */
  54:.\u8glib_arm_v1.18.1\src/u8g_dev_st7687_c144mvgd.c ****   U8G_ESC_ADR(0),           /* instruction mode */
  55:.\u8glib_arm_v1.18.1\src/u8g_dev_st7687_c144mvgd.c ****   U8G_ESC_CS(1),             /* enable chip */
  56:.\u8glib_arm_v1.18.1\src/u8g_dev_st7687_c144mvgd.c ****   U8G_ESC_RST(15),           /* do reset low pulse with (15*16)+2 milliseconds (=maximum delay)*/
  57:.\u8glib_arm_v1.18.1\src/u8g_dev_st7687_c144mvgd.c ****   
  58:.\u8glib_arm_v1.18.1\src/u8g_dev_st7687_c144mvgd.c ****   0x001,                        /* A0=0, SW reset */
  59:.\u8glib_arm_v1.18.1\src/u8g_dev_st7687_c144mvgd.c ****   U8G_ESC_DLY(200),         /* delay 200 ms */
  60:.\u8glib_arm_v1.18.1\src/u8g_dev_st7687_c144mvgd.c ****   
ARM GAS  C:\Users\Shiguruy\AppData\Local\Temp\ccTXlQmq.s 			page 5


  61:.\u8glib_arm_v1.18.1\src/u8g_dev_st7687_c144mvgd.c ****   0x0d7,                        /* EEPROM data auto re-load control */
  62:.\u8glib_arm_v1.18.1\src/u8g_dev_st7687_c144mvgd.c ****   U8G_ESC_ADR(1),           /* data mode */
  63:.\u8glib_arm_v1.18.1\src/u8g_dev_st7687_c144mvgd.c ****   0x09f,                             /* ARD = 1 */
  64:.\u8glib_arm_v1.18.1\src/u8g_dev_st7687_c144mvgd.c ****   U8G_ESC_ADR(0),           /* instruction mode */
  65:.\u8glib_arm_v1.18.1\src/u8g_dev_st7687_c144mvgd.c ****   U8G_ESC_DLY(100),         /* delay 100 ms */
  66:.\u8glib_arm_v1.18.1\src/u8g_dev_st7687_c144mvgd.c ****   
  67:.\u8glib_arm_v1.18.1\src/u8g_dev_st7687_c144mvgd.c ****   0x0e0,                        /* EEPROM control in */
  68:.\u8glib_arm_v1.18.1\src/u8g_dev_st7687_c144mvgd.c ****   U8G_ESC_ADR(1),           /* data mode */
  69:.\u8glib_arm_v1.18.1\src/u8g_dev_st7687_c144mvgd.c ****   0x000,                             /*  */
  70:.\u8glib_arm_v1.18.1\src/u8g_dev_st7687_c144mvgd.c ****   U8G_ESC_ADR(0),           /* instruction mode */
  71:.\u8glib_arm_v1.18.1\src/u8g_dev_st7687_c144mvgd.c ****   U8G_ESC_DLY(100),         /* delay 100 ms */
  72:.\u8glib_arm_v1.18.1\src/u8g_dev_st7687_c144mvgd.c ****   
  73:.\u8glib_arm_v1.18.1\src/u8g_dev_st7687_c144mvgd.c **** #ifdef NOT_REQUIRED  
  74:.\u8glib_arm_v1.18.1\src/u8g_dev_st7687_c144mvgd.c ****   0x0fa,                        /* EEPROM function selection 8.1.66 */
  75:.\u8glib_arm_v1.18.1\src/u8g_dev_st7687_c144mvgd.c ****   U8G_ESC_ADR(1),           /* data mode */
  76:.\u8glib_arm_v1.18.1\src/u8g_dev_st7687_c144mvgd.c ****   0x000,                             /*  */
  77:.\u8glib_arm_v1.18.1\src/u8g_dev_st7687_c144mvgd.c ****   U8G_ESC_ADR(0),           /* instruction mode */
  78:.\u8glib_arm_v1.18.1\src/u8g_dev_st7687_c144mvgd.c ****   U8G_ESC_DLY(100),         /* delay 100 ms */
  79:.\u8glib_arm_v1.18.1\src/u8g_dev_st7687_c144mvgd.c **** #endif 
  80:.\u8glib_arm_v1.18.1\src/u8g_dev_st7687_c144mvgd.c **** 
  81:.\u8glib_arm_v1.18.1\src/u8g_dev_st7687_c144mvgd.c ****   0x0e3,                        /* Read from EEPROM, 8.1.55 */
  82:.\u8glib_arm_v1.18.1\src/u8g_dev_st7687_c144mvgd.c ****   U8G_ESC_DLY(100),         /* delay 100 ms */
  83:.\u8glib_arm_v1.18.1\src/u8g_dev_st7687_c144mvgd.c **** 
  84:.\u8glib_arm_v1.18.1\src/u8g_dev_st7687_c144mvgd.c ****   0x0e1,                        /* EEPROM control out, 8.1.53 */
  85:.\u8glib_arm_v1.18.1\src/u8g_dev_st7687_c144mvgd.c ****   U8G_ESC_DLY(100),         /* delay 100 ms */
  86:.\u8glib_arm_v1.18.1\src/u8g_dev_st7687_c144mvgd.c ****   
  87:.\u8glib_arm_v1.18.1\src/u8g_dev_st7687_c144mvgd.c ****   //0x028,                        /* display off */
  88:.\u8glib_arm_v1.18.1\src/u8g_dev_st7687_c144mvgd.c ****   0x011,                                /* Sleep out & booster on */
  89:.\u8glib_arm_v1.18.1\src/u8g_dev_st7687_c144mvgd.c ****   U8G_ESC_DLY(100),         /* delay 100 ms */
  90:.\u8glib_arm_v1.18.1\src/u8g_dev_st7687_c144mvgd.c ****   
  91:.\u8glib_arm_v1.18.1\src/u8g_dev_st7687_c144mvgd.c ****   0x0c0,                        /* Vop setting, 8.1.42 */
  92:.\u8glib_arm_v1.18.1\src/u8g_dev_st7687_c144mvgd.c ****   U8G_ESC_ADR(1),           /* data mode */
  93:.\u8glib_arm_v1.18.1\src/u8g_dev_st7687_c144mvgd.c ****   0x000,                             /*  */
  94:.\u8glib_arm_v1.18.1\src/u8g_dev_st7687_c144mvgd.c ****   0x001,                             /*  3.6 + 256*0.04 = 13.84 Volt */
  95:.\u8glib_arm_v1.18.1\src/u8g_dev_st7687_c144mvgd.c ****   U8G_ESC_ADR(0),           /* instruction mode */
  96:.\u8glib_arm_v1.18.1\src/u8g_dev_st7687_c144mvgd.c ****   U8G_ESC_DLY(100),         /* delay 100 ms */
  97:.\u8glib_arm_v1.18.1\src/u8g_dev_st7687_c144mvgd.c ****   
  98:.\u8glib_arm_v1.18.1\src/u8g_dev_st7687_c144mvgd.c ****   0x0c3,                                /* Bias selection, 8.1.45 */
  99:.\u8glib_arm_v1.18.1\src/u8g_dev_st7687_c144mvgd.c ****   U8G_ESC_ADR(1),           /* data mode */
 100:.\u8glib_arm_v1.18.1\src/u8g_dev_st7687_c144mvgd.c ****   0x003,
 101:.\u8glib_arm_v1.18.1\src/u8g_dev_st7687_c144mvgd.c ****   U8G_ESC_ADR(0),           /* instruction mode */
 102:.\u8glib_arm_v1.18.1\src/u8g_dev_st7687_c144mvgd.c ****   
 103:.\u8glib_arm_v1.18.1\src/u8g_dev_st7687_c144mvgd.c ****   0x0c4,                                /* Booster setting 8.1.46 */
 104:.\u8glib_arm_v1.18.1\src/u8g_dev_st7687_c144mvgd.c ****   U8G_ESC_ADR(1),           /* data mode */
 105:.\u8glib_arm_v1.18.1\src/u8g_dev_st7687_c144mvgd.c ****   0x007,
 106:.\u8glib_arm_v1.18.1\src/u8g_dev_st7687_c144mvgd.c ****   U8G_ESC_ADR(0),           /* instruction mode */
 107:.\u8glib_arm_v1.18.1\src/u8g_dev_st7687_c144mvgd.c ****   
 108:.\u8glib_arm_v1.18.1\src/u8g_dev_st7687_c144mvgd.c ****   0x0c5,                                /* ??? */
 109:.\u8glib_arm_v1.18.1\src/u8g_dev_st7687_c144mvgd.c ****   U8G_ESC_ADR(1),           /* data mode */
 110:.\u8glib_arm_v1.18.1\src/u8g_dev_st7687_c144mvgd.c ****   0x001,
 111:.\u8glib_arm_v1.18.1\src/u8g_dev_st7687_c144mvgd.c ****   U8G_ESC_ADR(0),           /* instruction mode */
 112:.\u8glib_arm_v1.18.1\src/u8g_dev_st7687_c144mvgd.c ****   
 113:.\u8glib_arm_v1.18.1\src/u8g_dev_st7687_c144mvgd.c ****   0x0cb,                                /* FV3 with Booster x2 control, 8.1.47 */
 114:.\u8glib_arm_v1.18.1\src/u8g_dev_st7687_c144mvgd.c ****   U8G_ESC_ADR(1),           /* data mode */
 115:.\u8glib_arm_v1.18.1\src/u8g_dev_st7687_c144mvgd.c ****   0x001,
 116:.\u8glib_arm_v1.18.1\src/u8g_dev_st7687_c144mvgd.c ****   U8G_ESC_ADR(0),           /* instruction mode */
 117:.\u8glib_arm_v1.18.1\src/u8g_dev_st7687_c144mvgd.c ****   
ARM GAS  C:\Users\Shiguruy\AppData\Local\Temp\ccTXlQmq.s 			page 6


 118:.\u8glib_arm_v1.18.1\src/u8g_dev_st7687_c144mvgd.c ****   0x036,                                /* Memory data access control, 8.1.28 */
 119:.\u8glib_arm_v1.18.1\src/u8g_dev_st7687_c144mvgd.c ****   U8G_ESC_ADR(1),           /* data mode */
 120:.\u8glib_arm_v1.18.1\src/u8g_dev_st7687_c144mvgd.c ****   0x080,
 121:.\u8glib_arm_v1.18.1\src/u8g_dev_st7687_c144mvgd.c ****   U8G_ESC_ADR(0),           /* instruction mode */
 122:.\u8glib_arm_v1.18.1\src/u8g_dev_st7687_c144mvgd.c **** 
 123:.\u8glib_arm_v1.18.1\src/u8g_dev_st7687_c144mvgd.c ****   0x0b5,                                /* N-line control, 8.1.37 */
 124:.\u8glib_arm_v1.18.1\src/u8g_dev_st7687_c144mvgd.c ****   U8G_ESC_ADR(1),           /* data mode */
 125:.\u8glib_arm_v1.18.1\src/u8g_dev_st7687_c144mvgd.c ****   0x089,
 126:.\u8glib_arm_v1.18.1\src/u8g_dev_st7687_c144mvgd.c ****   U8G_ESC_ADR(0),           /* instruction mode */
 127:.\u8glib_arm_v1.18.1\src/u8g_dev_st7687_c144mvgd.c **** 
 128:.\u8glib_arm_v1.18.1\src/u8g_dev_st7687_c144mvgd.c **** 
 129:.\u8glib_arm_v1.18.1\src/u8g_dev_st7687_c144mvgd.c ****   0x0d0,                                /* Analog circuit setting, 8.1.49 */
 130:.\u8glib_arm_v1.18.1\src/u8g_dev_st7687_c144mvgd.c ****   U8G_ESC_ADR(1),           /* data mode */
 131:.\u8glib_arm_v1.18.1\src/u8g_dev_st7687_c144mvgd.c ****   0x01d,
 132:.\u8glib_arm_v1.18.1\src/u8g_dev_st7687_c144mvgd.c ****   U8G_ESC_ADR(0),           /* instruction mode */
 133:.\u8glib_arm_v1.18.1\src/u8g_dev_st7687_c144mvgd.c **** 
 134:.\u8glib_arm_v1.18.1\src/u8g_dev_st7687_c144mvgd.c ****   0x0b7,                                /* Com/Seg Scan Direction, 8.1.38 */
 135:.\u8glib_arm_v1.18.1\src/u8g_dev_st7687_c144mvgd.c ****   U8G_ESC_ADR(1),           /* data mode */
 136:.\u8glib_arm_v1.18.1\src/u8g_dev_st7687_c144mvgd.c ****   0x040,
 137:.\u8glib_arm_v1.18.1\src/u8g_dev_st7687_c144mvgd.c ****   U8G_ESC_ADR(0),           /* instruction mode */
 138:.\u8glib_arm_v1.18.1\src/u8g_dev_st7687_c144mvgd.c **** 
 139:.\u8glib_arm_v1.18.1\src/u8g_dev_st7687_c144mvgd.c ****   0x025,                                /* Write contrast, 8.1.17 */
 140:.\u8glib_arm_v1.18.1\src/u8g_dev_st7687_c144mvgd.c ****   U8G_ESC_ADR(1),           /* data mode */
 141:.\u8glib_arm_v1.18.1\src/u8g_dev_st7687_c144mvgd.c ****   0x03f,
 142:.\u8glib_arm_v1.18.1\src/u8g_dev_st7687_c144mvgd.c ****   U8G_ESC_ADR(0),           /* instruction mode */
 143:.\u8glib_arm_v1.18.1\src/u8g_dev_st7687_c144mvgd.c **** 
 144:.\u8glib_arm_v1.18.1\src/u8g_dev_st7687_c144mvgd.c ****   0x03a,                                /* Interface pixel format, 8.1.32 */
 145:.\u8glib_arm_v1.18.1\src/u8g_dev_st7687_c144mvgd.c ****   U8G_ESC_ADR(1),           /* data mode */
 146:.\u8glib_arm_v1.18.1\src/u8g_dev_st7687_c144mvgd.c ****   0x004,                                /* 3: 12 bit per pixel Type A, 4: 12 bit Type B, 5: 16bit p
 147:.\u8glib_arm_v1.18.1\src/u8g_dev_st7687_c144mvgd.c ****   U8G_ESC_ADR(0),           /* instruction mode */
 148:.\u8glib_arm_v1.18.1\src/u8g_dev_st7687_c144mvgd.c **** 
 149:.\u8glib_arm_v1.18.1\src/u8g_dev_st7687_c144mvgd.c ****   0x0b0,                                /* Display Duty setting, 8.1.34 */
 150:.\u8glib_arm_v1.18.1\src/u8g_dev_st7687_c144mvgd.c ****   U8G_ESC_ADR(1),           /* data mode */
 151:.\u8glib_arm_v1.18.1\src/u8g_dev_st7687_c144mvgd.c ****   0x07f,
 152:.\u8glib_arm_v1.18.1\src/u8g_dev_st7687_c144mvgd.c ****   U8G_ESC_ADR(0),           /* instruction mode */
 153:.\u8glib_arm_v1.18.1\src/u8g_dev_st7687_c144mvgd.c **** 
 154:.\u8glib_arm_v1.18.1\src/u8g_dev_st7687_c144mvgd.c ****   0x0f0,                                /* Frame Freq. in Temp range A,B,C and D, 8.1.59 */
 155:.\u8glib_arm_v1.18.1\src/u8g_dev_st7687_c144mvgd.c ****   U8G_ESC_ADR(1),           /* data mode */
 156:.\u8glib_arm_v1.18.1\src/u8g_dev_st7687_c144mvgd.c ****   0x007,
 157:.\u8glib_arm_v1.18.1\src/u8g_dev_st7687_c144mvgd.c ****   0x00c,
 158:.\u8glib_arm_v1.18.1\src/u8g_dev_st7687_c144mvgd.c ****   0x00c,
 159:.\u8glib_arm_v1.18.1\src/u8g_dev_st7687_c144mvgd.c ****   0x015,
 160:.\u8glib_arm_v1.18.1\src/u8g_dev_st7687_c144mvgd.c ****   U8G_ESC_ADR(0),           /* instruction mode */
 161:.\u8glib_arm_v1.18.1\src/u8g_dev_st7687_c144mvgd.c **** 
 162:.\u8glib_arm_v1.18.1\src/u8g_dev_st7687_c144mvgd.c ****   0x0f9,                                /* Frame RGB Value, 8.1.65 */
 163:.\u8glib_arm_v1.18.1\src/u8g_dev_st7687_c144mvgd.c ****   U8G_ESC_ADR(1),           /* data mode */
 164:.\u8glib_arm_v1.18.1\src/u8g_dev_st7687_c144mvgd.c ****   0x000,
 165:.\u8glib_arm_v1.18.1\src/u8g_dev_st7687_c144mvgd.c ****   0x005,
 166:.\u8glib_arm_v1.18.1\src/u8g_dev_st7687_c144mvgd.c ****   0x008,
 167:.\u8glib_arm_v1.18.1\src/u8g_dev_st7687_c144mvgd.c ****   0x00a,
 168:.\u8glib_arm_v1.18.1\src/u8g_dev_st7687_c144mvgd.c ****   0x00c,
 169:.\u8glib_arm_v1.18.1\src/u8g_dev_st7687_c144mvgd.c ****   0x00e,
 170:.\u8glib_arm_v1.18.1\src/u8g_dev_st7687_c144mvgd.c ****   0x010,
 171:.\u8glib_arm_v1.18.1\src/u8g_dev_st7687_c144mvgd.c ****   0x011,
 172:.\u8glib_arm_v1.18.1\src/u8g_dev_st7687_c144mvgd.c ****   0x012,
 173:.\u8glib_arm_v1.18.1\src/u8g_dev_st7687_c144mvgd.c ****   0x013,
 174:.\u8glib_arm_v1.18.1\src/u8g_dev_st7687_c144mvgd.c ****   0x014,
ARM GAS  C:\Users\Shiguruy\AppData\Local\Temp\ccTXlQmq.s 			page 7


 175:.\u8glib_arm_v1.18.1\src/u8g_dev_st7687_c144mvgd.c ****   0x015,
 176:.\u8glib_arm_v1.18.1\src/u8g_dev_st7687_c144mvgd.c ****   0x016,
 177:.\u8glib_arm_v1.18.1\src/u8g_dev_st7687_c144mvgd.c ****   0x018,
 178:.\u8glib_arm_v1.18.1\src/u8g_dev_st7687_c144mvgd.c ****   0x01a,
 179:.\u8glib_arm_v1.18.1\src/u8g_dev_st7687_c144mvgd.c ****   0x01b,
 180:.\u8glib_arm_v1.18.1\src/u8g_dev_st7687_c144mvgd.c ****   U8G_ESC_ADR(0),           /* instruction mode */
 181:.\u8glib_arm_v1.18.1\src/u8g_dev_st7687_c144mvgd.c **** 
 182:.\u8glib_arm_v1.18.1\src/u8g_dev_st7687_c144mvgd.c ****   0x0f9,                                /* Frame RGB Value, 8.1.65 */
 183:.\u8glib_arm_v1.18.1\src/u8g_dev_st7687_c144mvgd.c ****   U8G_ESC_ADR(1),           /* data mode */
 184:.\u8glib_arm_v1.18.1\src/u8g_dev_st7687_c144mvgd.c ****   0x000,
 185:.\u8glib_arm_v1.18.1\src/u8g_dev_st7687_c144mvgd.c ****   0x000,
 186:.\u8glib_arm_v1.18.1\src/u8g_dev_st7687_c144mvgd.c ****   0x000,
 187:.\u8glib_arm_v1.18.1\src/u8g_dev_st7687_c144mvgd.c ****   0x000,
 188:.\u8glib_arm_v1.18.1\src/u8g_dev_st7687_c144mvgd.c ****   0x033,
 189:.\u8glib_arm_v1.18.1\src/u8g_dev_st7687_c144mvgd.c ****   0x055,
 190:.\u8glib_arm_v1.18.1\src/u8g_dev_st7687_c144mvgd.c ****   0x055,
 191:.\u8glib_arm_v1.18.1\src/u8g_dev_st7687_c144mvgd.c ****   0x055,
 192:.\u8glib_arm_v1.18.1\src/u8g_dev_st7687_c144mvgd.c ****   U8G_ESC_ADR(0),           /* instruction mode */
 193:.\u8glib_arm_v1.18.1\src/u8g_dev_st7687_c144mvgd.c **** 
 194:.\u8glib_arm_v1.18.1\src/u8g_dev_st7687_c144mvgd.c ****   0x029,                        /* display on */
 195:.\u8glib_arm_v1.18.1\src/u8g_dev_st7687_c144mvgd.c **** 
 196:.\u8glib_arm_v1.18.1\src/u8g_dev_st7687_c144mvgd.c ****   U8G_ESC_CS(0),             /* disable chip */
 197:.\u8glib_arm_v1.18.1\src/u8g_dev_st7687_c144mvgd.c ****   U8G_ESC_END                /* end of sequence */
 198:.\u8glib_arm_v1.18.1\src/u8g_dev_st7687_c144mvgd.c **** 
 199:.\u8glib_arm_v1.18.1\src/u8g_dev_st7687_c144mvgd.c **** };
 200:.\u8glib_arm_v1.18.1\src/u8g_dev_st7687_c144mvgd.c **** 
 201:.\u8glib_arm_v1.18.1\src/u8g_dev_st7687_c144mvgd.c **** #else
 202:.\u8glib_arm_v1.18.1\src/u8g_dev_st7687_c144mvgd.c **** 
 203:.\u8glib_arm_v1.18.1\src/u8g_dev_st7687_c144mvgd.c **** /*
 204:.\u8glib_arm_v1.18.1\src/u8g_dev_st7687_c144mvgd.c **** http://www.waitingforfriday.com/images/e/e3/FTM144D01N_test.zip
 205:.\u8glib_arm_v1.18.1\src/u8g_dev_st7687_c144mvgd.c **** */
 206:.\u8glib_arm_v1.18.1\src/u8g_dev_st7687_c144mvgd.c **** 
 207:.\u8glib_arm_v1.18.1\src/u8g_dev_st7687_c144mvgd.c **** static const uint8_t u8g_dev_st7687_c144mvgd_init_seq[] PROGMEM = {
 208:.\u8glib_arm_v1.18.1\src/u8g_dev_st7687_c144mvgd.c ****   U8G_ESC_CS(0),             /* disable chip */
 209:.\u8glib_arm_v1.18.1\src/u8g_dev_st7687_c144mvgd.c ****   U8G_ESC_ADR(0),           /* instruction mode */
 210:.\u8glib_arm_v1.18.1\src/u8g_dev_st7687_c144mvgd.c ****   U8G_ESC_CS(1),             /* enable chip */
 211:.\u8glib_arm_v1.18.1\src/u8g_dev_st7687_c144mvgd.c ****   U8G_ESC_RST(15),           /* do reset low pulse with (15*16)+2 milliseconds (=maximum delay)*/
 212:.\u8glib_arm_v1.18.1\src/u8g_dev_st7687_c144mvgd.c **** 
 213:.\u8glib_arm_v1.18.1\src/u8g_dev_st7687_c144mvgd.c ****   0x011,                                /* Sleep out & booster on */
 214:.\u8glib_arm_v1.18.1\src/u8g_dev_st7687_c144mvgd.c ****   U8G_ESC_DLY(5),         /* delay 5 ms */
 215:.\u8glib_arm_v1.18.1\src/u8g_dev_st7687_c144mvgd.c ****     
 216:.\u8glib_arm_v1.18.1\src/u8g_dev_st7687_c144mvgd.c ****   0x03a,                                /* Interface pixel format, 8.1.32 */
 217:.\u8glib_arm_v1.18.1\src/u8g_dev_st7687_c144mvgd.c ****   U8G_ESC_ADR(1),           /* data mode */
 218:.\u8glib_arm_v1.18.1\src/u8g_dev_st7687_c144mvgd.c ****   0x004,                                /* 3: 12 bit per pixel Type A, 4: 12 bit Type B, 5: 16bit p
 219:.\u8glib_arm_v1.18.1\src/u8g_dev_st7687_c144mvgd.c ****   U8G_ESC_ADR(0),           /* instruction mode */
 220:.\u8glib_arm_v1.18.1\src/u8g_dev_st7687_c144mvgd.c ****   
 221:.\u8glib_arm_v1.18.1\src/u8g_dev_st7687_c144mvgd.c ****   
 222:.\u8glib_arm_v1.18.1\src/u8g_dev_st7687_c144mvgd.c ****   0x026,                                /* SET_GAMMA_CURVE */
 223:.\u8glib_arm_v1.18.1\src/u8g_dev_st7687_c144mvgd.c ****   U8G_ESC_ADR(1),           /* data mode */
 224:.\u8glib_arm_v1.18.1\src/u8g_dev_st7687_c144mvgd.c ****   0x004,                                
 225:.\u8glib_arm_v1.18.1\src/u8g_dev_st7687_c144mvgd.c ****   U8G_ESC_ADR(0),           /* instruction mode */
 226:.\u8glib_arm_v1.18.1\src/u8g_dev_st7687_c144mvgd.c **** 
 227:.\u8glib_arm_v1.18.1\src/u8g_dev_st7687_c144mvgd.c ****   0x0f2,                                /* GAM_R_SEL */
 228:.\u8glib_arm_v1.18.1\src/u8g_dev_st7687_c144mvgd.c ****   U8G_ESC_ADR(1),           /* data mode */
 229:.\u8glib_arm_v1.18.1\src/u8g_dev_st7687_c144mvgd.c ****   0x001,                                /* enable gamma adj */                                
 230:.\u8glib_arm_v1.18.1\src/u8g_dev_st7687_c144mvgd.c ****   U8G_ESC_ADR(0),           /* instruction mode */
 231:.\u8glib_arm_v1.18.1\src/u8g_dev_st7687_c144mvgd.c **** 
ARM GAS  C:\Users\Shiguruy\AppData\Local\Temp\ccTXlQmq.s 			page 8


 232:.\u8glib_arm_v1.18.1\src/u8g_dev_st7687_c144mvgd.c **** 
 233:.\u8glib_arm_v1.18.1\src/u8g_dev_st7687_c144mvgd.c ****   0x0e0,                                /* POSITIVE_GAMMA_CORRECT */
 234:.\u8glib_arm_v1.18.1\src/u8g_dev_st7687_c144mvgd.c ****   U8G_ESC_ADR(1),           /* data mode */
 235:.\u8glib_arm_v1.18.1\src/u8g_dev_st7687_c144mvgd.c ****   0x3f,
 236:.\u8glib_arm_v1.18.1\src/u8g_dev_st7687_c144mvgd.c ****     0x25,
 237:.\u8glib_arm_v1.18.1\src/u8g_dev_st7687_c144mvgd.c ****     0x1c,
 238:.\u8glib_arm_v1.18.1\src/u8g_dev_st7687_c144mvgd.c ****     0x1e,
 239:.\u8glib_arm_v1.18.1\src/u8g_dev_st7687_c144mvgd.c ****     0x20,
 240:.\u8glib_arm_v1.18.1\src/u8g_dev_st7687_c144mvgd.c ****     0x12,
 241:.\u8glib_arm_v1.18.1\src/u8g_dev_st7687_c144mvgd.c ****     0x2a,
 242:.\u8glib_arm_v1.18.1\src/u8g_dev_st7687_c144mvgd.c ****     0x90,
 243:.\u8glib_arm_v1.18.1\src/u8g_dev_st7687_c144mvgd.c ****     0x24,
 244:.\u8glib_arm_v1.18.1\src/u8g_dev_st7687_c144mvgd.c ****     0x11,
 245:.\u8glib_arm_v1.18.1\src/u8g_dev_st7687_c144mvgd.c ****     0x00,
 246:.\u8glib_arm_v1.18.1\src/u8g_dev_st7687_c144mvgd.c ****     0x00,
 247:.\u8glib_arm_v1.18.1\src/u8g_dev_st7687_c144mvgd.c ****     0x00,
 248:.\u8glib_arm_v1.18.1\src/u8g_dev_st7687_c144mvgd.c ****     0x00,
 249:.\u8glib_arm_v1.18.1\src/u8g_dev_st7687_c144mvgd.c ****     0x00,    
 250:.\u8glib_arm_v1.18.1\src/u8g_dev_st7687_c144mvgd.c ****   U8G_ESC_ADR(0),           /* instruction mode */
 251:.\u8glib_arm_v1.18.1\src/u8g_dev_st7687_c144mvgd.c **** 
 252:.\u8glib_arm_v1.18.1\src/u8g_dev_st7687_c144mvgd.c ****   0x0e1,                                /* NEGATIVE_GAMMA_CORRECT */
 253:.\u8glib_arm_v1.18.1\src/u8g_dev_st7687_c144mvgd.c ****   U8G_ESC_ADR(1),           /* data mode */
 254:.\u8glib_arm_v1.18.1\src/u8g_dev_st7687_c144mvgd.c ****     0x20,
 255:.\u8glib_arm_v1.18.1\src/u8g_dev_st7687_c144mvgd.c ****     0x20,
 256:.\u8glib_arm_v1.18.1\src/u8g_dev_st7687_c144mvgd.c ****     0x20,
 257:.\u8glib_arm_v1.18.1\src/u8g_dev_st7687_c144mvgd.c ****     0x20,
 258:.\u8glib_arm_v1.18.1\src/u8g_dev_st7687_c144mvgd.c ****     0x05,
 259:.\u8glib_arm_v1.18.1\src/u8g_dev_st7687_c144mvgd.c ****     0x00,
 260:.\u8glib_arm_v1.18.1\src/u8g_dev_st7687_c144mvgd.c ****     0x15,
 261:.\u8glib_arm_v1.18.1\src/u8g_dev_st7687_c144mvgd.c ****     0xa7,
 262:.\u8glib_arm_v1.18.1\src/u8g_dev_st7687_c144mvgd.c ****     0x3d,
 263:.\u8glib_arm_v1.18.1\src/u8g_dev_st7687_c144mvgd.c ****     0x18,
 264:.\u8glib_arm_v1.18.1\src/u8g_dev_st7687_c144mvgd.c ****     0x25,
 265:.\u8glib_arm_v1.18.1\src/u8g_dev_st7687_c144mvgd.c ****     0x2a,
 266:.\u8glib_arm_v1.18.1\src/u8g_dev_st7687_c144mvgd.c ****     0x2b,
 267:.\u8glib_arm_v1.18.1\src/u8g_dev_st7687_c144mvgd.c ****     0x2b,
 268:.\u8glib_arm_v1.18.1\src/u8g_dev_st7687_c144mvgd.c ****     0x3a,
 269:.\u8glib_arm_v1.18.1\src/u8g_dev_st7687_c144mvgd.c ****   U8G_ESC_ADR(0),           /* instruction mode */
 270:.\u8glib_arm_v1.18.1\src/u8g_dev_st7687_c144mvgd.c ****      
 271:.\u8glib_arm_v1.18.1\src/u8g_dev_st7687_c144mvgd.c ****   0x0b1,                                /* FRAME_RATE_CONTROL1 */
 272:.\u8glib_arm_v1.18.1\src/u8g_dev_st7687_c144mvgd.c ****   U8G_ESC_ADR(1),           /* data mode */
 273:.\u8glib_arm_v1.18.1\src/u8g_dev_st7687_c144mvgd.c ****   0x008,                                /* DIVA = 8 */
 274:.\u8glib_arm_v1.18.1\src/u8g_dev_st7687_c144mvgd.c ****   0x008,                                /* VPA = 8 */
 275:.\u8glib_arm_v1.18.1\src/u8g_dev_st7687_c144mvgd.c ****   U8G_ESC_ADR(0),           /* instruction mode */
 276:.\u8glib_arm_v1.18.1\src/u8g_dev_st7687_c144mvgd.c **** 
 277:.\u8glib_arm_v1.18.1\src/u8g_dev_st7687_c144mvgd.c **** 
 278:.\u8glib_arm_v1.18.1\src/u8g_dev_st7687_c144mvgd.c ****   0x0b4,                                /* DISPLAY_INVERSION */
 279:.\u8glib_arm_v1.18.1\src/u8g_dev_st7687_c144mvgd.c ****   U8G_ESC_ADR(1),           /* data mode */
 280:.\u8glib_arm_v1.18.1\src/u8g_dev_st7687_c144mvgd.c ****   0x007,                                /* NLA = 1, NLB = 1, NLC = 1 (all on Frame Inversion) */
 281:.\u8glib_arm_v1.18.1\src/u8g_dev_st7687_c144mvgd.c ****   U8G_ESC_ADR(0),           /* instruction mode */
 282:.\u8glib_arm_v1.18.1\src/u8g_dev_st7687_c144mvgd.c ****     
 283:.\u8glib_arm_v1.18.1\src/u8g_dev_st7687_c144mvgd.c ****   0x0c0,                                /* POWER_CONTROL1 */
 284:.\u8glib_arm_v1.18.1\src/u8g_dev_st7687_c144mvgd.c ****   U8G_ESC_ADR(1),           /* data mode */
 285:.\u8glib_arm_v1.18.1\src/u8g_dev_st7687_c144mvgd.c ****   0x00a,                                /* VRH = 10:  GVDD = 4.30 */
 286:.\u8glib_arm_v1.18.1\src/u8g_dev_st7687_c144mvgd.c ****   0x002,                                /* VC = 2: VCI1 = 2.65 */
 287:.\u8glib_arm_v1.18.1\src/u8g_dev_st7687_c144mvgd.c ****   U8G_ESC_ADR(0),           /* instruction mode */
 288:.\u8glib_arm_v1.18.1\src/u8g_dev_st7687_c144mvgd.c ****    
ARM GAS  C:\Users\Shiguruy\AppData\Local\Temp\ccTXlQmq.s 			page 9


 289:.\u8glib_arm_v1.18.1\src/u8g_dev_st7687_c144mvgd.c ****   0x0c1,                                /* POWER_CONTROL2 */
 290:.\u8glib_arm_v1.18.1\src/u8g_dev_st7687_c144mvgd.c ****   U8G_ESC_ADR(1),           /* data mode */
 291:.\u8glib_arm_v1.18.1\src/u8g_dev_st7687_c144mvgd.c ****   0x002,                                /* BT = 2: AVDD = 2xVCI1, VCL = -1xVCI1, VGH = 5xVCI1, VGL 
 292:.\u8glib_arm_v1.18.1\src/u8g_dev_st7687_c144mvgd.c ****   U8G_ESC_ADR(0),           /* instruction mode */
 293:.\u8glib_arm_v1.18.1\src/u8g_dev_st7687_c144mvgd.c ****       
 294:.\u8glib_arm_v1.18.1\src/u8g_dev_st7687_c144mvgd.c ****   0x0c5,                                /* VCOM_CONTROL1 */
 295:.\u8glib_arm_v1.18.1\src/u8g_dev_st7687_c144mvgd.c ****   U8G_ESC_ADR(1),           /* data mode */
 296:.\u8glib_arm_v1.18.1\src/u8g_dev_st7687_c144mvgd.c ****   0x050,                                /* VMH = 80: VCOMH voltage = 4.5 */
 297:.\u8glib_arm_v1.18.1\src/u8g_dev_st7687_c144mvgd.c ****   0x05b,                                /* VML = 91: VCOML voltage = -0.225 */
 298:.\u8glib_arm_v1.18.1\src/u8g_dev_st7687_c144mvgd.c ****   U8G_ESC_ADR(0),           /* instruction mode */
 299:.\u8glib_arm_v1.18.1\src/u8g_dev_st7687_c144mvgd.c **** 
 300:.\u8glib_arm_v1.18.1\src/u8g_dev_st7687_c144mvgd.c ****   0x0c7,                                /* VCOM_OFFSET_CONTROL */
 301:.\u8glib_arm_v1.18.1\src/u8g_dev_st7687_c144mvgd.c ****   U8G_ESC_ADR(1),           /* data mode */
 302:.\u8glib_arm_v1.18.1\src/u8g_dev_st7687_c144mvgd.c ****   0x040,                                /* nVM = 0, VMF = 64: VCOMH output = VMH, VCOML output = VM
 303:.\u8glib_arm_v1.18.1\src/u8g_dev_st7687_c144mvgd.c ****   U8G_ESC_ADR(0),           /* instruction mode */
 304:.\u8glib_arm_v1.18.1\src/u8g_dev_st7687_c144mvgd.c **** 
 305:.\u8glib_arm_v1.18.1\src/u8g_dev_st7687_c144mvgd.c ****   0x02a,                                /* SET_COLUMN_ADDRESS */
 306:.\u8glib_arm_v1.18.1\src/u8g_dev_st7687_c144mvgd.c ****   U8G_ESC_ADR(1),           /* data mode */
 307:.\u8glib_arm_v1.18.1\src/u8g_dev_st7687_c144mvgd.c ****   0x000,                                /*  */
 308:.\u8glib_arm_v1.18.1\src/u8g_dev_st7687_c144mvgd.c ****   0x000,                                /*  */
 309:.\u8glib_arm_v1.18.1\src/u8g_dev_st7687_c144mvgd.c ****   0x000,                                /*  */
 310:.\u8glib_arm_v1.18.1\src/u8g_dev_st7687_c144mvgd.c ****   0x07f,                                /*  */
 311:.\u8glib_arm_v1.18.1\src/u8g_dev_st7687_c144mvgd.c ****   U8G_ESC_ADR(0),           /* instruction mode */
 312:.\u8glib_arm_v1.18.1\src/u8g_dev_st7687_c144mvgd.c **** 
 313:.\u8glib_arm_v1.18.1\src/u8g_dev_st7687_c144mvgd.c ****   0x02b,                                /* SET_PAGE_ADDRESS */
 314:.\u8glib_arm_v1.18.1\src/u8g_dev_st7687_c144mvgd.c ****   U8G_ESC_ADR(1),           /* data mode */
 315:.\u8glib_arm_v1.18.1\src/u8g_dev_st7687_c144mvgd.c ****   0x000,                                /*  */
 316:.\u8glib_arm_v1.18.1\src/u8g_dev_st7687_c144mvgd.c ****   0x000,                                /*  */
 317:.\u8glib_arm_v1.18.1\src/u8g_dev_st7687_c144mvgd.c ****   0x000,                                /*  */
 318:.\u8glib_arm_v1.18.1\src/u8g_dev_st7687_c144mvgd.c ****   0x07f,                                /*  */
 319:.\u8glib_arm_v1.18.1\src/u8g_dev_st7687_c144mvgd.c ****   U8G_ESC_ADR(0),           /* instruction mode */
 320:.\u8glib_arm_v1.18.1\src/u8g_dev_st7687_c144mvgd.c **** 
 321:.\u8glib_arm_v1.18.1\src/u8g_dev_st7687_c144mvgd.c ****   0x036,                                /* SET_ADDRESS_MODE */
 322:.\u8glib_arm_v1.18.1\src/u8g_dev_st7687_c144mvgd.c ****   U8G_ESC_ADR(1),           /* data mode */
 323:.\u8glib_arm_v1.18.1\src/u8g_dev_st7687_c144mvgd.c ****   0x000,                                /* Select display orientation */
 324:.\u8glib_arm_v1.18.1\src/u8g_dev_st7687_c144mvgd.c ****   U8G_ESC_ADR(0),           /* instruction mode */
 325:.\u8glib_arm_v1.18.1\src/u8g_dev_st7687_c144mvgd.c **** 	
 326:.\u8glib_arm_v1.18.1\src/u8g_dev_st7687_c144mvgd.c **** 
 327:.\u8glib_arm_v1.18.1\src/u8g_dev_st7687_c144mvgd.c ****   0x029,                        /* display on */
 328:.\u8glib_arm_v1.18.1\src/u8g_dev_st7687_c144mvgd.c ****   
 329:.\u8glib_arm_v1.18.1\src/u8g_dev_st7687_c144mvgd.c ****   0x02c,                         /* write start */
 330:.\u8glib_arm_v1.18.1\src/u8g_dev_st7687_c144mvgd.c ****   
 331:.\u8glib_arm_v1.18.1\src/u8g_dev_st7687_c144mvgd.c ****   U8G_ESC_CS(0),             /* disable chip */
 332:.\u8glib_arm_v1.18.1\src/u8g_dev_st7687_c144mvgd.c ****   U8G_ESC_END                /* end of sequence */
 333:.\u8glib_arm_v1.18.1\src/u8g_dev_st7687_c144mvgd.c **** 
 334:.\u8glib_arm_v1.18.1\src/u8g_dev_st7687_c144mvgd.c **** };
 335:.\u8glib_arm_v1.18.1\src/u8g_dev_st7687_c144mvgd.c **** 
 336:.\u8glib_arm_v1.18.1\src/u8g_dev_st7687_c144mvgd.c **** #endif
 337:.\u8glib_arm_v1.18.1\src/u8g_dev_st7687_c144mvgd.c **** 
 338:.\u8glib_arm_v1.18.1\src/u8g_dev_st7687_c144mvgd.c **** 
 339:.\u8glib_arm_v1.18.1\src/u8g_dev_st7687_c144mvgd.c **** 
 340:.\u8glib_arm_v1.18.1\src/u8g_dev_st7687_c144mvgd.c **** 
 341:.\u8glib_arm_v1.18.1\src/u8g_dev_st7687_c144mvgd.c **** /* calculate bytes for Type B 4096 color display */
 342:.\u8glib_arm_v1.18.1\src/u8g_dev_st7687_c144mvgd.c **** static uint8_t get_byte_1(uint8_t v)
 343:.\u8glib_arm_v1.18.1\src/u8g_dev_st7687_c144mvgd.c **** {
 169              		.loc 1 343 0
 170              		.cfi_startproc
ARM GAS  C:\Users\Shiguruy\AppData\Local\Temp\ccTXlQmq.s 			page 10


 171              		@ args = 0, pretend = 0, frame = 8
 172              		@ frame_needed = 1, uses_anonymous_args = 0
 173              		@ link register save eliminated.
 174 0000 80B4     		push	{r7}
 175              		.cfi_def_cfa_offset 4
 176              		.cfi_offset 7, -4
 177 0002 83B0     		sub	sp, sp, #12
 178              		.cfi_def_cfa_offset 16
 179 0004 00AF     		add	r7, sp, #0
 180              		.cfi_def_cfa_register 7
 181 0006 0346     		mov	r3, r0
 182 0008 FB71     		strb	r3, [r7, #7]
 344:.\u8glib_arm_v1.18.1\src/u8g_dev_st7687_c144mvgd.c ****   v >>= 4;
 183              		.loc 1 344 0
 184 000a FB79     		ldrb	r3, [r7, #7]	@ zero_extendqisi2
 185 000c 1B09     		lsrs	r3, r3, #4
 186 000e FB71     		strb	r3, [r7, #7]
 345:.\u8glib_arm_v1.18.1\src/u8g_dev_st7687_c144mvgd.c ****   v &= 0x0e;
 187              		.loc 1 345 0
 188 0010 FB79     		ldrb	r3, [r7, #7]
 189 0012 03F00E03 		and	r3, r3, #14
 190 0016 FB71     		strb	r3, [r7, #7]
 346:.\u8glib_arm_v1.18.1\src/u8g_dev_st7687_c144mvgd.c ****   return v;
 191              		.loc 1 346 0
 192 0018 FB79     		ldrb	r3, [r7, #7]	@ zero_extendqisi2
 347:.\u8glib_arm_v1.18.1\src/u8g_dev_st7687_c144mvgd.c **** }
 193              		.loc 1 347 0
 194 001a 1846     		mov	r0, r3
 195 001c 0C37     		adds	r7, r7, #12
 196              		.cfi_def_cfa_offset 4
 197 001e BD46     		mov	sp, r7
 198              		.cfi_def_cfa_register 13
 199              		@ sp needed
 200 0020 5DF8047B 		ldr	r7, [sp], #4
 201              		.cfi_restore 7
 202              		.cfi_def_cfa_offset 0
 203 0024 7047     		bx	lr
 204              		.cfi_endproc
 205              	.LFE0:
 206              		.size	get_byte_1, .-get_byte_1
 207 0026 00BF     		.section	.text.get_byte_2,"ax",%progbits
 208              		.align	2
 209              		.thumb
 210              		.thumb_func
 211              		.type	get_byte_2, %function
 212              	get_byte_2:
 213              	.LFB1:
 348:.\u8glib_arm_v1.18.1\src/u8g_dev_st7687_c144mvgd.c **** 
 349:.\u8glib_arm_v1.18.1\src/u8g_dev_st7687_c144mvgd.c **** static uint8_t get_byte_2(uint8_t v)
 350:.\u8glib_arm_v1.18.1\src/u8g_dev_st7687_c144mvgd.c **** {
 214              		.loc 1 350 0
 215              		.cfi_startproc
 216              		@ args = 0, pretend = 0, frame = 16
 217              		@ frame_needed = 1, uses_anonymous_args = 0
 218              		@ link register save eliminated.
 219 0000 80B4     		push	{r7}
 220              		.cfi_def_cfa_offset 4
ARM GAS  C:\Users\Shiguruy\AppData\Local\Temp\ccTXlQmq.s 			page 11


 221              		.cfi_offset 7, -4
 222 0002 85B0     		sub	sp, sp, #20
 223              		.cfi_def_cfa_offset 24
 224 0004 00AF     		add	r7, sp, #0
 225              		.cfi_def_cfa_register 7
 226 0006 0346     		mov	r3, r0
 227 0008 FB71     		strb	r3, [r7, #7]
 351:.\u8glib_arm_v1.18.1\src/u8g_dev_st7687_c144mvgd.c ****   uint8_t w;
 352:.\u8glib_arm_v1.18.1\src/u8g_dev_st7687_c144mvgd.c ****   w = v;
 228              		.loc 1 352 0
 229 000a FB79     		ldrb	r3, [r7, #7]
 230 000c FB73     		strb	r3, [r7, #15]
 353:.\u8glib_arm_v1.18.1\src/u8g_dev_st7687_c144mvgd.c ****   w &= 3;
 231              		.loc 1 353 0
 232 000e FB7B     		ldrb	r3, [r7, #15]
 233 0010 03F00303 		and	r3, r3, #3
 234 0014 FB73     		strb	r3, [r7, #15]
 354:.\u8glib_arm_v1.18.1\src/u8g_dev_st7687_c144mvgd.c ****   w = (w<<2) | w;
 235              		.loc 1 354 0
 236 0016 FB7B     		ldrb	r3, [r7, #15]	@ zero_extendqisi2
 237 0018 9B00     		lsls	r3, r3, #2
 238 001a DAB2     		uxtb	r2, r3
 239 001c FB7B     		ldrb	r3, [r7, #15]	@ zero_extendqisi2
 240 001e 1343     		orrs	r3, r3, r2
 241 0020 DBB2     		uxtb	r3, r3
 242 0022 FB73     		strb	r3, [r7, #15]
 355:.\u8glib_arm_v1.18.1\src/u8g_dev_st7687_c144mvgd.c ****   v <<= 3;
 243              		.loc 1 355 0
 244 0024 FB79     		ldrb	r3, [r7, #7]
 245 0026 DB00     		lsls	r3, r3, #3
 246 0028 FB71     		strb	r3, [r7, #7]
 356:.\u8glib_arm_v1.18.1\src/u8g_dev_st7687_c144mvgd.c ****   v &= 0x0e0;
 247              		.loc 1 356 0
 248 002a FB79     		ldrb	r3, [r7, #7]
 249 002c 23F01F03 		bic	r3, r3, #31
 250 0030 FB71     		strb	r3, [r7, #7]
 357:.\u8glib_arm_v1.18.1\src/u8g_dev_st7687_c144mvgd.c ****   w |= v;
 251              		.loc 1 357 0
 252 0032 FA7B     		ldrb	r2, [r7, #15]
 253 0034 FB79     		ldrb	r3, [r7, #7]
 254 0036 1343     		orrs	r3, r3, r2
 255 0038 FB73     		strb	r3, [r7, #15]
 358:.\u8glib_arm_v1.18.1\src/u8g_dev_st7687_c144mvgd.c ****   return w;
 256              		.loc 1 358 0
 257 003a FB7B     		ldrb	r3, [r7, #15]	@ zero_extendqisi2
 359:.\u8glib_arm_v1.18.1\src/u8g_dev_st7687_c144mvgd.c **** }
 258              		.loc 1 359 0
 259 003c 1846     		mov	r0, r3
 260 003e 1437     		adds	r7, r7, #20
 261              		.cfi_def_cfa_offset 4
 262 0040 BD46     		mov	sp, r7
 263              		.cfi_def_cfa_register 13
 264              		@ sp needed
 265 0042 5DF8047B 		ldr	r7, [sp], #4
 266              		.cfi_restore 7
 267              		.cfi_def_cfa_offset 0
 268 0046 7047     		bx	lr
ARM GAS  C:\Users\Shiguruy\AppData\Local\Temp\ccTXlQmq.s 			page 12


 269              		.cfi_endproc
 270              	.LFE1:
 271              		.size	get_byte_2, .-get_byte_2
 272              		.section	.text.u8g_dev_st7687_c144mvgd_fn,"ax",%progbits
 273              		.align	2
 274              		.global	u8g_dev_st7687_c144mvgd_fn
 275              		.thumb
 276              		.thumb_func
 277              		.type	u8g_dev_st7687_c144mvgd_fn, %function
 278              	u8g_dev_st7687_c144mvgd_fn:
 279              	.LFB2:
 360:.\u8glib_arm_v1.18.1\src/u8g_dev_st7687_c144mvgd.c **** 
 361:.\u8glib_arm_v1.18.1\src/u8g_dev_st7687_c144mvgd.c **** uint8_t u8g_dev_st7687_c144mvgd_fn(u8g_t *u8g, u8g_dev_t *dev, uint8_t msg, void *arg)
 362:.\u8glib_arm_v1.18.1\src/u8g_dev_st7687_c144mvgd.c **** {
 280              		.loc 1 362 0
 281              		.cfi_startproc
 282              		@ args = 0, pretend = 0, frame = 32
 283              		@ frame_needed = 1, uses_anonymous_args = 0
 284 0000 80B5     		push	{r7, lr}
 285              		.cfi_def_cfa_offset 8
 286              		.cfi_offset 7, -8
 287              		.cfi_offset 14, -4
 288 0002 88B0     		sub	sp, sp, #32
 289              		.cfi_def_cfa_offset 40
 290 0004 00AF     		add	r7, sp, #0
 291              		.cfi_def_cfa_register 7
 292 0006 F860     		str	r0, [r7, #12]
 293 0008 B960     		str	r1, [r7, #8]
 294 000a 3B60     		str	r3, [r7]
 295 000c 1346     		mov	r3, r2
 296 000e FB71     		strb	r3, [r7, #7]
 363:.\u8glib_arm_v1.18.1\src/u8g_dev_st7687_c144mvgd.c ****   switch(msg)
 297              		.loc 1 363 0
 298 0010 FB79     		ldrb	r3, [r7, #7]	@ zero_extendqisi2
 299 0012 0B2B     		cmp	r3, #11
 300 0014 00F09F80 		beq	.L15
 301 0018 152B     		cmp	r3, #21
 302 001a 0DD0     		beq	.L8
 303 001c 0A2B     		cmp	r3, #10
 304 001e 40F09B80 		bne	.L6
 364:.\u8glib_arm_v1.18.1\src/u8g_dev_st7687_c144mvgd.c ****   {
 365:.\u8glib_arm_v1.18.1\src/u8g_dev_st7687_c144mvgd.c ****     case U8G_DEV_MSG_INIT:
 366:.\u8glib_arm_v1.18.1\src/u8g_dev_st7687_c144mvgd.c ****       u8g_InitCom(u8g, dev, U8G_SPI_CLK_CYCLE_400NS);
 305              		.loc 1 366 0
 306 0022 F868     		ldr	r0, [r7, #12]
 307 0024 B968     		ldr	r1, [r7, #8]
 308 0026 0322     		movs	r2, #3
 309 0028 FFF7FEFF 		bl	u8g_InitCom
 367:.\u8glib_arm_v1.18.1\src/u8g_dev_st7687_c144mvgd.c ****       u8g_WriteEscSeqP(u8g, dev, u8g_dev_st7687_c144mvgd_init_seq);
 310              		.loc 1 367 0
 311 002c F868     		ldr	r0, [r7, #12]
 312 002e B968     		ldr	r1, [r7, #8]
 313 0030 4F4A     		ldr	r2, .L16
 314 0032 FFF7FEFF 		bl	u8g_WriteEscSeqP
 368:.\u8glib_arm_v1.18.1\src/u8g_dev_st7687_c144mvgd.c ****       break;
 315              		.loc 1 368 0
 316 0036 8FE0     		b	.L6
ARM GAS  C:\Users\Shiguruy\AppData\Local\Temp\ccTXlQmq.s 			page 13


 317              	.L8:
 318              	.LBB2:
 369:.\u8glib_arm_v1.18.1\src/u8g_dev_st7687_c144mvgd.c ****     case U8G_DEV_MSG_STOP:
 370:.\u8glib_arm_v1.18.1\src/u8g_dev_st7687_c144mvgd.c ****       break;
 371:.\u8glib_arm_v1.18.1\src/u8g_dev_st7687_c144mvgd.c ****     case U8G_DEV_MSG_PAGE_NEXT:
 372:.\u8glib_arm_v1.18.1\src/u8g_dev_st7687_c144mvgd.c ****       {
 373:.\u8glib_arm_v1.18.1\src/u8g_dev_st7687_c144mvgd.c ****         uint8_t y, i, j;
 374:.\u8glib_arm_v1.18.1\src/u8g_dev_st7687_c144mvgd.c ****         uint8_t *ptr;
 375:.\u8glib_arm_v1.18.1\src/u8g_dev_st7687_c144mvgd.c ****         u8g_pb_t *pb = (u8g_pb_t *)(dev->dev_mem);
 319              		.loc 1 375 0
 320 0038 BB68     		ldr	r3, [r7, #8]
 321 003a 5B68     		ldr	r3, [r3, #4]
 322 003c 7B61     		str	r3, [r7, #20]
 376:.\u8glib_arm_v1.18.1\src/u8g_dev_st7687_c144mvgd.c ****         
 377:.\u8glib_arm_v1.18.1\src/u8g_dev_st7687_c144mvgd.c ****         u8g_SetAddress(u8g, dev, 0);           /* cmd mode */
 323              		.loc 1 377 0
 324 003e F868     		ldr	r0, [r7, #12]
 325 0040 B968     		ldr	r1, [r7, #8]
 326 0042 0022     		movs	r2, #0
 327 0044 FFF7FEFF 		bl	u8g_SetAddress
 378:.\u8glib_arm_v1.18.1\src/u8g_dev_st7687_c144mvgd.c ****         u8g_SetChipSelect(u8g, dev, 1);
 328              		.loc 1 378 0
 329 0048 F868     		ldr	r0, [r7, #12]
 330 004a B968     		ldr	r1, [r7, #8]
 331 004c 0122     		movs	r2, #1
 332 004e FFF7FEFF 		bl	u8g_SetChipSelect
 379:.\u8glib_arm_v1.18.1\src/u8g_dev_st7687_c144mvgd.c ****         y = pb->p.page_y0;
 333              		.loc 1 379 0
 334 0052 7B69     		ldr	r3, [r7, #20]
 335 0054 9B78     		ldrb	r3, [r3, #2]
 336 0056 FB74     		strb	r3, [r7, #19]
 380:.\u8glib_arm_v1.18.1\src/u8g_dev_st7687_c144mvgd.c ****         ptr = pb->buf;
 337              		.loc 1 380 0
 338 0058 7B69     		ldr	r3, [r7, #20]
 339 005a 9B68     		ldr	r3, [r3, #8]
 340 005c BB61     		str	r3, [r7, #24]
 381:.\u8glib_arm_v1.18.1\src/u8g_dev_st7687_c144mvgd.c ****         
 382:.\u8glib_arm_v1.18.1\src/u8g_dev_st7687_c144mvgd.c ****         u8g_SetAddress(u8g, dev, 0);           /* cmd mode */
 341              		.loc 1 382 0
 342 005e F868     		ldr	r0, [r7, #12]
 343 0060 B968     		ldr	r1, [r7, #8]
 344 0062 0022     		movs	r2, #0
 345 0064 FFF7FEFF 		bl	u8g_SetAddress
 383:.\u8glib_arm_v1.18.1\src/u8g_dev_st7687_c144mvgd.c ****         u8g_WriteByte(u8g, dev, 0x02a );      /* Column address set 8.1.20 */
 346              		.loc 1 383 0
 347 0068 F868     		ldr	r0, [r7, #12]
 348 006a B968     		ldr	r1, [r7, #8]
 349 006c 2A22     		movs	r2, #42
 350 006e FFF7FEFF 		bl	u8g_WriteByte
 384:.\u8glib_arm_v1.18.1\src/u8g_dev_st7687_c144mvgd.c ****         u8g_SetAddress(u8g, dev, 1);           /* data mode */
 351              		.loc 1 384 0
 352 0072 F868     		ldr	r0, [r7, #12]
 353 0074 B968     		ldr	r1, [r7, #8]
 354 0076 0122     		movs	r2, #1
 355 0078 FFF7FEFF 		bl	u8g_SetAddress
 385:.\u8glib_arm_v1.18.1\src/u8g_dev_st7687_c144mvgd.c ****         u8g_WriteByte(u8g, dev, 0x000 );      /* x0 */
 356              		.loc 1 385 0
ARM GAS  C:\Users\Shiguruy\AppData\Local\Temp\ccTXlQmq.s 			page 14


 357 007c F868     		ldr	r0, [r7, #12]
 358 007e B968     		ldr	r1, [r7, #8]
 359 0080 0022     		movs	r2, #0
 360 0082 FFF7FEFF 		bl	u8g_WriteByte
 386:.\u8glib_arm_v1.18.1\src/u8g_dev_st7687_c144mvgd.c ****         u8g_WriteByte(u8g, dev, WIDTH-1 );      /* x1 */
 361              		.loc 1 386 0
 362 0086 F868     		ldr	r0, [r7, #12]
 363 0088 B968     		ldr	r1, [r7, #8]
 364 008a 7F22     		movs	r2, #127
 365 008c FFF7FEFF 		bl	u8g_WriteByte
 387:.\u8glib_arm_v1.18.1\src/u8g_dev_st7687_c144mvgd.c ****         u8g_SetAddress(u8g, dev, 0);           /* cmd mode */
 366              		.loc 1 387 0
 367 0090 F868     		ldr	r0, [r7, #12]
 368 0092 B968     		ldr	r1, [r7, #8]
 369 0094 0022     		movs	r2, #0
 370 0096 FFF7FEFF 		bl	u8g_SetAddress
 388:.\u8glib_arm_v1.18.1\src/u8g_dev_st7687_c144mvgd.c ****         u8g_WriteByte(u8g, dev, 0x02b );      /* Row address set 8.1.21 */
 371              		.loc 1 388 0
 372 009a F868     		ldr	r0, [r7, #12]
 373 009c B968     		ldr	r1, [r7, #8]
 374 009e 2B22     		movs	r2, #43
 375 00a0 FFF7FEFF 		bl	u8g_WriteByte
 389:.\u8glib_arm_v1.18.1\src/u8g_dev_st7687_c144mvgd.c ****         u8g_SetAddress(u8g, dev, 1);           /* data mode */
 376              		.loc 1 389 0
 377 00a4 F868     		ldr	r0, [r7, #12]
 378 00a6 B968     		ldr	r1, [r7, #8]
 379 00a8 0122     		movs	r2, #1
 380 00aa FFF7FEFF 		bl	u8g_SetAddress
 390:.\u8glib_arm_v1.18.1\src/u8g_dev_st7687_c144mvgd.c ****         u8g_WriteByte(u8g, dev, y );      /* y0 */
 381              		.loc 1 390 0
 382 00ae FB7C     		ldrb	r3, [r7, #19]	@ zero_extendqisi2
 383 00b0 F868     		ldr	r0, [r7, #12]
 384 00b2 B968     		ldr	r1, [r7, #8]
 385 00b4 1A46     		mov	r2, r3
 386 00b6 FFF7FEFF 		bl	u8g_WriteByte
 391:.\u8glib_arm_v1.18.1\src/u8g_dev_st7687_c144mvgd.c ****         u8g_WriteByte(u8g, dev, y+PAGE_HEIGHT-1 );      /* y1 */
 387              		.loc 1 391 0
 388 00ba FB7C     		ldrb	r3, [r7, #19]
 389 00bc 0733     		adds	r3, r3, #7
 390 00be DBB2     		uxtb	r3, r3
 391 00c0 F868     		ldr	r0, [r7, #12]
 392 00c2 B968     		ldr	r1, [r7, #8]
 393 00c4 1A46     		mov	r2, r3
 394 00c6 FFF7FEFF 		bl	u8g_WriteByte
 392:.\u8glib_arm_v1.18.1\src/u8g_dev_st7687_c144mvgd.c ****         u8g_SetAddress(u8g, dev, 0);           /* cmd mode */
 395              		.loc 1 392 0
 396 00ca F868     		ldr	r0, [r7, #12]
 397 00cc B968     		ldr	r1, [r7, #8]
 398 00ce 0022     		movs	r2, #0
 399 00d0 FFF7FEFF 		bl	u8g_SetAddress
 393:.\u8glib_arm_v1.18.1\src/u8g_dev_st7687_c144mvgd.c ****         u8g_WriteByte(u8g, dev, 0x02c );      /* Memory write 8.1.22 */
 400              		.loc 1 393 0
 401 00d4 F868     		ldr	r0, [r7, #12]
 402 00d6 B968     		ldr	r1, [r7, #8]
 403 00d8 2C22     		movs	r2, #44
 404 00da FFF7FEFF 		bl	u8g_WriteByte
 394:.\u8glib_arm_v1.18.1\src/u8g_dev_st7687_c144mvgd.c ****         u8g_SetAddress(u8g, dev, 1);           /* data mode */
ARM GAS  C:\Users\Shiguruy\AppData\Local\Temp\ccTXlQmq.s 			page 15


 405              		.loc 1 394 0
 406 00de F868     		ldr	r0, [r7, #12]
 407 00e0 B968     		ldr	r1, [r7, #8]
 408 00e2 0122     		movs	r2, #1
 409 00e4 FFF7FEFF 		bl	u8g_SetAddress
 395:.\u8glib_arm_v1.18.1\src/u8g_dev_st7687_c144mvgd.c ****         
 396:.\u8glib_arm_v1.18.1\src/u8g_dev_st7687_c144mvgd.c ****         for( i = 0; i < PAGE_HEIGHT; i ++ )
 410              		.loc 1 396 0
 411 00e8 0023     		movs	r3, #0
 412 00ea FB77     		strb	r3, [r7, #31]
 413 00ec 25E0     		b	.L10
 414              	.L13:
 397:.\u8glib_arm_v1.18.1\src/u8g_dev_st7687_c144mvgd.c ****         {
 398:.\u8glib_arm_v1.18.1\src/u8g_dev_st7687_c144mvgd.c ****           
 399:.\u8glib_arm_v1.18.1\src/u8g_dev_st7687_c144mvgd.c ****           for( j = 0; j < WIDTH; j ++ )
 415              		.loc 1 399 0
 416 00ee 0023     		movs	r3, #0
 417 00f0 BB77     		strb	r3, [r7, #30]
 418 00f2 1BE0     		b	.L11
 419              	.L12:
 400:.\u8glib_arm_v1.18.1\src/u8g_dev_st7687_c144mvgd.c ****           {
 401:.\u8glib_arm_v1.18.1\src/u8g_dev_st7687_c144mvgd.c ****             u8g_WriteByte(u8g, dev, get_byte_1(*ptr) );     
 420              		.loc 1 401 0 discriminator 3
 421 00f4 BB69     		ldr	r3, [r7, #24]
 422 00f6 1B78     		ldrb	r3, [r3]	@ zero_extendqisi2
 423 00f8 1846     		mov	r0, r3
 424 00fa FFF7FEFF 		bl	get_byte_1
 425 00fe 0346     		mov	r3, r0
 426 0100 F868     		ldr	r0, [r7, #12]
 427 0102 B968     		ldr	r1, [r7, #8]
 428 0104 1A46     		mov	r2, r3
 429 0106 FFF7FEFF 		bl	u8g_WriteByte
 402:.\u8glib_arm_v1.18.1\src/u8g_dev_st7687_c144mvgd.c ****             u8g_WriteByte(u8g, dev, get_byte_2(*ptr) );                 
 430              		.loc 1 402 0 discriminator 3
 431 010a BB69     		ldr	r3, [r7, #24]
 432 010c 1B78     		ldrb	r3, [r3]	@ zero_extendqisi2
 433 010e 1846     		mov	r0, r3
 434 0110 FFF7FEFF 		bl	get_byte_2
 435 0114 0346     		mov	r3, r0
 436 0116 F868     		ldr	r0, [r7, #12]
 437 0118 B968     		ldr	r1, [r7, #8]
 438 011a 1A46     		mov	r2, r3
 439 011c FFF7FEFF 		bl	u8g_WriteByte
 403:.\u8glib_arm_v1.18.1\src/u8g_dev_st7687_c144mvgd.c ****             ptr++;
 440              		.loc 1 403 0 discriminator 3
 441 0120 BB69     		ldr	r3, [r7, #24]
 442 0122 0133     		adds	r3, r3, #1
 443 0124 BB61     		str	r3, [r7, #24]
 399:.\u8glib_arm_v1.18.1\src/u8g_dev_st7687_c144mvgd.c ****           {
 444              		.loc 1 399 0 discriminator 3
 445 0126 BB7F     		ldrb	r3, [r7, #30]	@ zero_extendqisi2
 446 0128 0133     		adds	r3, r3, #1
 447 012a BB77     		strb	r3, [r7, #30]
 448              	.L11:
 399:.\u8glib_arm_v1.18.1\src/u8g_dev_st7687_c144mvgd.c ****           {
 449              		.loc 1 399 0 is_stmt 0 discriminator 1
 450 012c BB7F     		ldrb	r3, [r7, #30]	@ zero_extendqisi2
ARM GAS  C:\Users\Shiguruy\AppData\Local\Temp\ccTXlQmq.s 			page 16


 451 012e 5BB2     		sxtb	r3, r3
 452 0130 002B     		cmp	r3, #0
 453 0132 DFDA     		bge	.L12
 396:.\u8glib_arm_v1.18.1\src/u8g_dev_st7687_c144mvgd.c ****         {
 454              		.loc 1 396 0 is_stmt 1 discriminator 2
 455 0134 FB7F     		ldrb	r3, [r7, #31]	@ zero_extendqisi2
 456 0136 0133     		adds	r3, r3, #1
 457 0138 FB77     		strb	r3, [r7, #31]
 458              	.L10:
 396:.\u8glib_arm_v1.18.1\src/u8g_dev_st7687_c144mvgd.c ****         {
 459              		.loc 1 396 0 is_stmt 0 discriminator 1
 460 013a FB7F     		ldrb	r3, [r7, #31]	@ zero_extendqisi2
 461 013c 072B     		cmp	r3, #7
 462 013e D6D9     		bls	.L13
 404:.\u8glib_arm_v1.18.1\src/u8g_dev_st7687_c144mvgd.c ****           }
 405:.\u8glib_arm_v1.18.1\src/u8g_dev_st7687_c144mvgd.c ****         }
 406:.\u8glib_arm_v1.18.1\src/u8g_dev_st7687_c144mvgd.c ****         u8g_SetAddress(u8g, dev, 0);           /* cmd mode */
 463              		.loc 1 406 0 is_stmt 1
 464 0140 F868     		ldr	r0, [r7, #12]
 465 0142 B968     		ldr	r1, [r7, #8]
 466 0144 0022     		movs	r2, #0
 467 0146 FFF7FEFF 		bl	u8g_SetAddress
 407:.\u8glib_arm_v1.18.1\src/u8g_dev_st7687_c144mvgd.c ****         u8g_SetChipSelect(u8g, dev, 0);
 468              		.loc 1 407 0
 469 014a F868     		ldr	r0, [r7, #12]
 470 014c B968     		ldr	r1, [r7, #8]
 471 014e 0022     		movs	r2, #0
 472 0150 FFF7FEFF 		bl	u8g_SetChipSelect
 473              	.LBE2:
 408:.\u8glib_arm_v1.18.1\src/u8g_dev_st7687_c144mvgd.c ****       }
 409:.\u8glib_arm_v1.18.1\src/u8g_dev_st7687_c144mvgd.c ****       break;
 474              		.loc 1 409 0
 475 0154 00E0     		b	.L6
 476              	.L15:
 370:.\u8glib_arm_v1.18.1\src/u8g_dev_st7687_c144mvgd.c ****     case U8G_DEV_MSG_PAGE_NEXT:
 477              		.loc 1 370 0
 478 0156 00BF     		nop
 479              	.L6:
 410:.\u8glib_arm_v1.18.1\src/u8g_dev_st7687_c144mvgd.c ****   }
 411:.\u8glib_arm_v1.18.1\src/u8g_dev_st7687_c144mvgd.c ****   return u8g_dev_pb8h8_base_fn(u8g, dev, msg, arg);
 480              		.loc 1 411 0
 481 0158 FB79     		ldrb	r3, [r7, #7]	@ zero_extendqisi2
 482 015a F868     		ldr	r0, [r7, #12]
 483 015c B968     		ldr	r1, [r7, #8]
 484 015e 1A46     		mov	r2, r3
 485 0160 3B68     		ldr	r3, [r7]
 486 0162 FFF7FEFF 		bl	u8g_dev_pb8h8_base_fn
 487 0166 0346     		mov	r3, r0
 412:.\u8glib_arm_v1.18.1\src/u8g_dev_st7687_c144mvgd.c **** }
 488              		.loc 1 412 0
 489 0168 1846     		mov	r0, r3
 490 016a 2037     		adds	r7, r7, #32
 491              		.cfi_def_cfa_offset 8
 492 016c BD46     		mov	sp, r7
 493              		.cfi_def_cfa_register 13
 494              		@ sp needed
 495 016e 80BD     		pop	{r7, pc}
ARM GAS  C:\Users\Shiguruy\AppData\Local\Temp\ccTXlQmq.s 			page 17


 496              	.L17:
 497              		.align	2
 498              	.L16:
 499 0170 00000000 		.word	u8g_dev_st7687_c144mvgd_init_seq
 500              		.cfi_endproc
 501              	.LFE2:
 502              		.size	u8g_dev_st7687_c144mvgd_fn, .-u8g_dev_st7687_c144mvgd_fn
 503              		.global	u8g_st7687_c144mvgd_8h8_buf
 504              		.bss
 505              		.align	2
 506              		.type	u8g_st7687_c144mvgd_8h8_buf, %object
 507              		.size	u8g_st7687_c144mvgd_8h8_buf, 1024
 508              	u8g_st7687_c144mvgd_8h8_buf:
 509 0000 00000000 		.space	1024
 509      00000000 
 509      00000000 
 509      00000000 
 509      00000000 
 510              		.global	u8g_st7687_c144mvgd_8h8_pb
 511              		.data
 512              		.align	2
 513              		.type	u8g_st7687_c144mvgd_8h8_pb, %object
 514              		.size	u8g_st7687_c144mvgd_8h8_pb, 12
 515              	u8g_st7687_c144mvgd_8h8_pb:
 516 0000 08       		.byte	8
 517 0001 80       		.byte	-128
 518 0002 00       		.byte	0
 519 0003 00       		.byte	0
 520 0004 00       		.byte	0
 521 0005 80       		.byte	-128
 522 0006 0000     		.space	2
 523 0008 00000000 		.word	u8g_st7687_c144mvgd_8h8_buf
 524              		.global	u8g_dev_st7687_c144mvgd_sw_spi
 525              		.align	2
 526              		.type	u8g_dev_st7687_c144mvgd_sw_spi, %object
 527              		.size	u8g_dev_st7687_c144mvgd_sw_spi, 12
 528              	u8g_dev_st7687_c144mvgd_sw_spi:
 529 000c 00000000 		.word	u8g_dev_st7687_c144mvgd_fn
 530 0010 00000000 		.word	u8g_st7687_c144mvgd_8h8_pb
 531 0014 00000000 		.word	u8g_com_arduino_sw_spi_fn
 532              		.global	u8g_dev_st7687_c144mvgd_8bit
 533              		.align	2
 534              		.type	u8g_dev_st7687_c144mvgd_8bit, %object
 535              		.size	u8g_dev_st7687_c144mvgd_8bit, 12
 536              	u8g_dev_st7687_c144mvgd_8bit:
 537 0018 00000000 		.word	u8g_dev_st7687_c144mvgd_fn
 538 001c 00000000 		.word	u8g_st7687_c144mvgd_8h8_pb
 539 0020 00000000 		.word	u8g_com_null_fn
 540              		.text
 541              	.Letext0:
 542              		.file 2 "c:\\program files (x86)\\cypress\\psoc creator\\3.3\\psoc creator\\import\\gnu\\arm\\4.9.
 543              		.file 3 "c:\\program files (x86)\\cypress\\psoc creator\\3.3\\psoc creator\\import\\gnu\\arm\\4.9.
 544              		.file 4 ".\\u8glib_arm_v1.18.1\\src\\u8g.h"