ARM GAS  C:\Users\KJA\AppData\Local\Temp\ccQNhiOM.s 			page 1


   1              		.syntax unified
   2              		.cpu cortex-m3
   3              		.fpu softvfp
   4              		.eabi_attribute 20, 1
   5              		.eabi_attribute 21, 1
   6              		.eabi_attribute 23, 3
   7              		.eabi_attribute 24, 1
   8              		.eabi_attribute 25, 1
   9              		.eabi_attribute 26, 1
  10              		.eabi_attribute 30, 6
  11              		.eabi_attribute 34, 1
  12              		.eabi_attribute 18, 4
  13              		.thumb
  14              		.file	"u8g_pbxh24.c"
  15              		.text
  16              	.Ltext0:
  17              		.cfi_sections	.debug_frame
  18              		.section	.text.u8g_pbxh24_Clear,"ax",%progbits
  19              		.align	2
  20              		.global	u8g_pbxh24_Clear
  21              		.thumb
  22              		.thumb_func
  23              		.type	u8g_pbxh24_Clear, %function
  24              	u8g_pbxh24_Clear:
  25              	.LFB0:
  26              		.file 1 "u8glib_arm_v1.18.1\\src\\u8g_pbxh24.c"
   1:u8glib_arm_v1.18.1\src/u8g_pbxh24.c **** /*
   2:u8glib_arm_v1.18.1\src/u8g_pbxh24.c **** 
   3:u8glib_arm_v1.18.1\src/u8g_pbxh24.c ****   u8g_pbxh24.c
   4:u8glib_arm_v1.18.1\src/u8g_pbxh24.c ****   
   5:u8glib_arm_v1.18.1\src/u8g_pbxh24.c ****   x lines per page, horizontal, 24 bits per pixel (true color modes)
   6:u8glib_arm_v1.18.1\src/u8g_pbxh24.c ****   
   7:u8glib_arm_v1.18.1\src/u8g_pbxh24.c ****   Universal 8bit Graphics Library
   8:u8glib_arm_v1.18.1\src/u8g_pbxh24.c ****   
   9:u8glib_arm_v1.18.1\src/u8g_pbxh24.c ****   Copyright (c) 2013, olikraus@gmail.com
  10:u8glib_arm_v1.18.1\src/u8g_pbxh24.c ****   All rights reserved.
  11:u8glib_arm_v1.18.1\src/u8g_pbxh24.c **** 
  12:u8glib_arm_v1.18.1\src/u8g_pbxh24.c ****   Redistribution and use in source and binary forms, with or without modification, 
  13:u8glib_arm_v1.18.1\src/u8g_pbxh24.c ****   are permitted provided that the following conditions are met:
  14:u8glib_arm_v1.18.1\src/u8g_pbxh24.c **** 
  15:u8glib_arm_v1.18.1\src/u8g_pbxh24.c ****   * Redistributions of source code must retain the above copyright notice, this list 
  16:u8glib_arm_v1.18.1\src/u8g_pbxh24.c ****     of conditions and the following disclaimer.
  17:u8glib_arm_v1.18.1\src/u8g_pbxh24.c ****     
  18:u8glib_arm_v1.18.1\src/u8g_pbxh24.c ****   * Redistributions in binary form must reproduce the above copyright notice, this 
  19:u8glib_arm_v1.18.1\src/u8g_pbxh24.c ****     list of conditions and the following disclaimer in the documentation and/or other 
  20:u8glib_arm_v1.18.1\src/u8g_pbxh24.c ****     materials provided with the distribution.
  21:u8glib_arm_v1.18.1\src/u8g_pbxh24.c **** 
  22:u8glib_arm_v1.18.1\src/u8g_pbxh24.c ****   THIS SOFTWARE IS PROVIDED BY THE COPYRIGHT HOLDERS AND 
  23:u8glib_arm_v1.18.1\src/u8g_pbxh24.c ****   CONTRIBUTORS "AS IS" AND ANY EXPRESS OR IMPLIED WARRANTIES, 
  24:u8glib_arm_v1.18.1\src/u8g_pbxh24.c ****   INCLUDING, BUT NOT LIMITED TO, THE IMPLIED WARRANTIES OF 
  25:u8glib_arm_v1.18.1\src/u8g_pbxh24.c ****   MERCHANTABILITY AND FITNESS FOR A PARTICULAR PURPOSE ARE 
  26:u8glib_arm_v1.18.1\src/u8g_pbxh24.c ****   DISCLAIMED. IN NO EVENT SHALL THE COPYRIGHT HOLDER OR 
  27:u8glib_arm_v1.18.1\src/u8g_pbxh24.c ****   CONTRIBUTORS BE LIABLE FOR ANY DIRECT, INDIRECT, INCIDENTAL, 
  28:u8glib_arm_v1.18.1\src/u8g_pbxh24.c ****   SPECIAL, EXEMPLARY, OR CONSEQUENTIAL DAMAGES (INCLUDING, BUT 
  29:u8glib_arm_v1.18.1\src/u8g_pbxh24.c ****   NOT LIMITED TO, PROCUREMENT OF SUBSTITUTE GOODS OR SERVICES; 
  30:u8glib_arm_v1.18.1\src/u8g_pbxh24.c ****   LOSS OF USE, DATA, OR PROFITS; OR BUSINESS INTERRUPTION) HOWEVER 
  31:u8glib_arm_v1.18.1\src/u8g_pbxh24.c ****   CAUSED AND ON ANY THEORY OF LIABILITY, WHETHER IN CONTRACT, 
ARM GAS  C:\Users\KJA\AppData\Local\Temp\ccQNhiOM.s 			page 2


  32:u8glib_arm_v1.18.1\src/u8g_pbxh24.c ****   STRICT LIABILITY, OR TORT (INCLUDING NEGLIGENCE OR OTHERWISE) 
  33:u8glib_arm_v1.18.1\src/u8g_pbxh24.c ****   ARISING IN ANY WAY OUT OF THE USE OF THIS SOFTWARE, EVEN IF 
  34:u8glib_arm_v1.18.1\src/u8g_pbxh24.c ****   ADVISED OF THE POSSIBILITY OF SUCH DAMAGE.  
  35:u8glib_arm_v1.18.1\src/u8g_pbxh24.c **** 
  36:u8glib_arm_v1.18.1\src/u8g_pbxh24.c **** 
  37:u8glib_arm_v1.18.1\src/u8g_pbxh24.c **** struct _u8g_pb_t
  38:u8glib_arm_v1.18.1\src/u8g_pbxh24.c **** {
  39:u8glib_arm_v1.18.1\src/u8g_pbxh24.c ****   u8g_page_t p;
  40:u8glib_arm_v1.18.1\src/u8g_pbxh24.c ****   u8g_uint_t width;
  41:u8glib_arm_v1.18.1\src/u8g_pbxh24.c ****   void *buf;
  42:u8glib_arm_v1.18.1\src/u8g_pbxh24.c **** };
  43:u8glib_arm_v1.18.1\src/u8g_pbxh24.c **** typedef struct _u8g_pb_t u8g_pb_t;
  44:u8glib_arm_v1.18.1\src/u8g_pbxh24.c **** 
  45:u8glib_arm_v1.18.1\src/u8g_pbxh24.c **** 
  46:u8glib_arm_v1.18.1\src/u8g_pbxh24.c **** uint8_t u8g_index_color_xh16_buf[2*WIDTH*PAGE_HEIGHT] U8G_NOCOMMON ; 
  47:u8glib_arm_v1.18.1\src/u8g_pbxh24.c **** u8g_pb_t u8g_index_color_xh16_pb = { {PAGE_HEIGHT, HEIGHT, 0, 0, 0},  WIDTH, u8g_index_color_xh16_b
  48:u8glib_arm_v1.18.1\src/u8g_pbxh24.c **** u8g_dev_t name = { dev_fn, &u8g_index_color_xh16_pb , com_fn }
  49:u8glib_arm_v1.18.1\src/u8g_pbxh24.c **** 
  50:u8glib_arm_v1.18.1\src/u8g_pbxh24.c **** */
  51:u8glib_arm_v1.18.1\src/u8g_pbxh24.c **** 
  52:u8glib_arm_v1.18.1\src/u8g_pbxh24.c **** #include "u8g.h"
  53:u8glib_arm_v1.18.1\src/u8g_pbxh24.c **** 
  54:u8glib_arm_v1.18.1\src/u8g_pbxh24.c **** /*
  55:u8glib_arm_v1.18.1\src/u8g_pbxh24.c **** #define WIDTH_BITS 7
  56:u8glib_arm_v1.18.1\src/u8g_pbxh24.c **** #define WIDTH (1<<WIDTH_BITS)
  57:u8glib_arm_v1.18.1\src/u8g_pbxh24.c **** #define PAGE_HEIGHT_BITS 3
  58:u8glib_arm_v1.18.1\src/u8g_pbxh24.c **** #define PAGE_HEIGHT (1<<PAGE_HEIGHT_BITS)
  59:u8glib_arm_v1.18.1\src/u8g_pbxh24.c **** */
  60:u8glib_arm_v1.18.1\src/u8g_pbxh24.c **** 
  61:u8glib_arm_v1.18.1\src/u8g_pbxh24.c **** void u8g_pbxh24_Clear(u8g_pb_t *b)
  62:u8glib_arm_v1.18.1\src/u8g_pbxh24.c **** {
  27              		.loc 1 62 0
  28              		.cfi_startproc
  29              		@ args = 0, pretend = 0, frame = 24
  30              		@ frame_needed = 1, uses_anonymous_args = 0
  31              		@ link register save eliminated.
  32 0000 80B4     		push	{r7}
  33              		.cfi_def_cfa_offset 4
  34              		.cfi_offset 7, -4
  35 0002 87B0     		sub	sp, sp, #28
  36              		.cfi_def_cfa_offset 32
  37 0004 00AF     		add	r7, sp, #0
  38              		.cfi_def_cfa_register 7
  39 0006 7860     		str	r0, [r7, #4]
  63:u8glib_arm_v1.18.1\src/u8g_pbxh24.c ****   uint8_t *ptr = (uint8_t *)b->buf;
  40              		.loc 1 63 0
  41 0008 7B68     		ldr	r3, [r7, #4]
  42 000a 9B68     		ldr	r3, [r3, #8]
  43 000c 7B61     		str	r3, [r7, #20]
  64:u8glib_arm_v1.18.1\src/u8g_pbxh24.c ****   uint8_t *end_ptr = ptr;
  44              		.loc 1 64 0
  45 000e 7B69     		ldr	r3, [r7, #20]
  46 0010 3B61     		str	r3, [r7, #16]
  65:u8glib_arm_v1.18.1\src/u8g_pbxh24.c ****   uint8_t cnt = b->p.page_height;
  47              		.loc 1 65 0
  48 0012 7B68     		ldr	r3, [r7, #4]
  49 0014 1B78     		ldrb	r3, [r3]
ARM GAS  C:\Users\KJA\AppData\Local\Temp\ccQNhiOM.s 			page 3


  50 0016 FB73     		strb	r3, [r7, #15]
  51              	.L2:
  66:u8glib_arm_v1.18.1\src/u8g_pbxh24.c ****   do
  67:u8glib_arm_v1.18.1\src/u8g_pbxh24.c ****   {
  68:u8glib_arm_v1.18.1\src/u8g_pbxh24.c ****     end_ptr += b->width*3;
  52              		.loc 1 68 0 discriminator 1
  53 0018 7B68     		ldr	r3, [r7, #4]
  54 001a 5B79     		ldrb	r3, [r3, #5]	@ zero_extendqisi2
  55 001c 1A46     		mov	r2, r3
  56 001e 1346     		mov	r3, r2
  57 0020 5B00     		lsls	r3, r3, #1
  58 0022 1344     		add	r3, r3, r2
  59 0024 1A46     		mov	r2, r3
  60 0026 3B69     		ldr	r3, [r7, #16]
  61 0028 1344     		add	r3, r3, r2
  62 002a 3B61     		str	r3, [r7, #16]
  69:u8glib_arm_v1.18.1\src/u8g_pbxh24.c ****     cnt--;
  63              		.loc 1 69 0 discriminator 1
  64 002c FB7B     		ldrb	r3, [r7, #15]	@ zero_extendqisi2
  65 002e 013B     		subs	r3, r3, #1
  66 0030 FB73     		strb	r3, [r7, #15]
  70:u8glib_arm_v1.18.1\src/u8g_pbxh24.c ****   } while( cnt > 0 );
  67              		.loc 1 70 0 discriminator 1
  68 0032 FB7B     		ldrb	r3, [r7, #15]	@ zero_extendqisi2
  69 0034 002B     		cmp	r3, #0
  70 0036 EFD1     		bne	.L2
  71              	.L3:
  71:u8glib_arm_v1.18.1\src/u8g_pbxh24.c ****   do
  72:u8glib_arm_v1.18.1\src/u8g_pbxh24.c ****   {
  73:u8glib_arm_v1.18.1\src/u8g_pbxh24.c ****     *ptr++ = 0;
  72              		.loc 1 73 0 discriminator 1
  73 0038 7B69     		ldr	r3, [r7, #20]
  74 003a 5A1C     		adds	r2, r3, #1
  75 003c 7A61     		str	r2, [r7, #20]
  76 003e 0022     		movs	r2, #0
  77 0040 1A70     		strb	r2, [r3]
  74:u8glib_arm_v1.18.1\src/u8g_pbxh24.c ****   } while( ptr != end_ptr );
  78              		.loc 1 74 0 discriminator 1
  79 0042 7A69     		ldr	r2, [r7, #20]
  80 0044 3B69     		ldr	r3, [r7, #16]
  81 0046 9A42     		cmp	r2, r3
  82 0048 F6D1     		bne	.L3
  75:u8glib_arm_v1.18.1\src/u8g_pbxh24.c **** }
  83              		.loc 1 75 0
  84 004a 1C37     		adds	r7, r7, #28
  85              		.cfi_def_cfa_offset 4
  86 004c BD46     		mov	sp, r7
  87              		.cfi_def_cfa_register 13
  88              		@ sp needed
  89 004e 5DF8047B 		ldr	r7, [sp], #4
  90              		.cfi_restore 7
  91              		.cfi_def_cfa_offset 0
  92 0052 7047     		bx	lr
  93              		.cfi_endproc
  94              	.LFE0:
  95              		.size	u8g_pbxh24_Clear, .-u8g_pbxh24_Clear
  96              		.section	.text.u8g_pbxh24_Init,"ax",%progbits
ARM GAS  C:\Users\KJA\AppData\Local\Temp\ccQNhiOM.s 			page 4


  97              		.align	2
  98              		.global	u8g_pbxh24_Init
  99              		.thumb
 100              		.thumb_func
 101              		.type	u8g_pbxh24_Init, %function
 102              	u8g_pbxh24_Init:
 103              	.LFB1:
  76:u8glib_arm_v1.18.1\src/u8g_pbxh24.c **** 
  77:u8glib_arm_v1.18.1\src/u8g_pbxh24.c **** 
  78:u8glib_arm_v1.18.1\src/u8g_pbxh24.c **** void u8g_pbxh24_Init(u8g_pb_t *b, void *buf, u8g_uint_t width)
  79:u8glib_arm_v1.18.1\src/u8g_pbxh24.c **** {
 104              		.loc 1 79 0
 105              		.cfi_startproc
 106              		@ args = 0, pretend = 0, frame = 16
 107              		@ frame_needed = 1, uses_anonymous_args = 0
 108 0000 80B5     		push	{r7, lr}
 109              		.cfi_def_cfa_offset 8
 110              		.cfi_offset 7, -8
 111              		.cfi_offset 14, -4
 112 0002 84B0     		sub	sp, sp, #16
 113              		.cfi_def_cfa_offset 24
 114 0004 00AF     		add	r7, sp, #0
 115              		.cfi_def_cfa_register 7
 116 0006 F860     		str	r0, [r7, #12]
 117 0008 B960     		str	r1, [r7, #8]
 118 000a 1346     		mov	r3, r2
 119 000c FB71     		strb	r3, [r7, #7]
  80:u8glib_arm_v1.18.1\src/u8g_pbxh24.c ****   b->buf = buf;
 120              		.loc 1 80 0
 121 000e FB68     		ldr	r3, [r7, #12]
 122 0010 BA68     		ldr	r2, [r7, #8]
 123 0012 9A60     		str	r2, [r3, #8]
  81:u8glib_arm_v1.18.1\src/u8g_pbxh24.c ****   b->width = width;
 124              		.loc 1 81 0
 125 0014 FB68     		ldr	r3, [r7, #12]
 126 0016 FA79     		ldrb	r2, [r7, #7]
 127 0018 5A71     		strb	r2, [r3, #5]
  82:u8glib_arm_v1.18.1\src/u8g_pbxh24.c ****   u8g_pbxh24_Clear(b);
 128              		.loc 1 82 0
 129 001a F868     		ldr	r0, [r7, #12]
 130 001c FFF7FEFF 		bl	u8g_pbxh24_Clear
  83:u8glib_arm_v1.18.1\src/u8g_pbxh24.c **** }
 131              		.loc 1 83 0
 132 0020 1037     		adds	r7, r7, #16
 133              		.cfi_def_cfa_offset 8
 134 0022 BD46     		mov	sp, r7
 135              		.cfi_def_cfa_register 13
 136              		@ sp needed
 137 0024 80BD     		pop	{r7, pc}
 138              		.cfi_endproc
 139              	.LFE1:
 140              		.size	u8g_pbxh24_Init, .-u8g_pbxh24_Init
 141 0026 00BF     		.section	.text.u8g_pbxh24_set_tpixel,"ax",%progbits
 142              		.align	2
 143              		.thumb
 144              		.thumb_func
 145              		.type	u8g_pbxh24_set_tpixel, %function
ARM GAS  C:\Users\KJA\AppData\Local\Temp\ccQNhiOM.s 			page 5


 146              	u8g_pbxh24_set_tpixel:
 147              	.LFB2:
  84:u8glib_arm_v1.18.1\src/u8g_pbxh24.c **** 
  85:u8glib_arm_v1.18.1\src/u8g_pbxh24.c **** #ifdef OBSOLETE
  86:u8glib_arm_v1.18.1\src/u8g_pbxh24.c **** static void u8g_pbxh24_set_pixel(u8g_pb_t *b, u8g_uint_t x, u8g_uint_t y, uint8_t r, uint8_t g, uin
  87:u8glib_arm_v1.18.1\src/u8g_pbxh24.c **** {
  88:u8glib_arm_v1.18.1\src/u8g_pbxh24.c ****   uint16_t tmp;
  89:u8glib_arm_v1.18.1\src/u8g_pbxh24.c ****   uint8_t *ptr = b->buf;
  90:u8glib_arm_v1.18.1\src/u8g_pbxh24.c ****   y -= b->p.page_y0;
  91:u8glib_arm_v1.18.1\src/u8g_pbxh24.c ****   tmp = y;
  92:u8glib_arm_v1.18.1\src/u8g_pbxh24.c ****   tmp *= b->width;
  93:u8glib_arm_v1.18.1\src/u8g_pbxh24.c ****   tmp += x;
  94:u8glib_arm_v1.18.1\src/u8g_pbxh24.c ****   tmp *= 3;
  95:u8glib_arm_v1.18.1\src/u8g_pbxh24.c ****   ptr += tmp;
  96:u8glib_arm_v1.18.1\src/u8g_pbxh24.c ****   *ptr = r;
  97:u8glib_arm_v1.18.1\src/u8g_pbxh24.c ****   ptr++;
  98:u8glib_arm_v1.18.1\src/u8g_pbxh24.c ****   *ptr = g;
  99:u8glib_arm_v1.18.1\src/u8g_pbxh24.c ****   ptr++;
 100:u8glib_arm_v1.18.1\src/u8g_pbxh24.c ****   *ptr = b;
 101:u8glib_arm_v1.18.1\src/u8g_pbxh24.c **** }
 102:u8glib_arm_v1.18.1\src/u8g_pbxh24.c **** #endif
 103:u8glib_arm_v1.18.1\src/u8g_pbxh24.c **** 
 104:u8glib_arm_v1.18.1\src/u8g_pbxh24.c **** /*
 105:u8glib_arm_v1.18.1\src/u8g_pbxh24.c ****   intensity
 106:u8glib_arm_v1.18.1\src/u8g_pbxh24.c ****     0..3		intensity value
 107:u8glib_arm_v1.18.1\src/u8g_pbxh24.c ****     4			replace color
 108:u8glib_arm_v1.18.1\src/u8g_pbxh24.c **** */
 109:u8glib_arm_v1.18.1\src/u8g_pbxh24.c **** static void u8g_pbxh24_set_tpixel(u8g_pb_t *b, u8g_uint_t x, u8g_uint_t y, uint8_t red, uint8_t gre
 110:u8glib_arm_v1.18.1\src/u8g_pbxh24.c **** {
 148              		.loc 1 110 0
 149              		.cfi_startproc
 150              		@ args = 12, pretend = 0, frame = 16
 151              		@ frame_needed = 1, uses_anonymous_args = 0
 152              		@ link register save eliminated.
 153 0000 80B4     		push	{r7}
 154              		.cfi_def_cfa_offset 4
 155              		.cfi_offset 7, -4
 156 0002 85B0     		sub	sp, sp, #20
 157              		.cfi_def_cfa_offset 24
 158 0004 00AF     		add	r7, sp, #0
 159              		.cfi_def_cfa_register 7
 160 0006 7860     		str	r0, [r7, #4]
 161 0008 0846     		mov	r0, r1
 162 000a 1146     		mov	r1, r2
 163 000c 1A46     		mov	r2, r3
 164 000e 0346     		mov	r3, r0
 165 0010 FB70     		strb	r3, [r7, #3]
 166 0012 0B46     		mov	r3, r1
 167 0014 BB70     		strb	r3, [r7, #2]
 168 0016 1346     		mov	r3, r2
 169 0018 7B70     		strb	r3, [r7, #1]
 111:u8glib_arm_v1.18.1\src/u8g_pbxh24.c ****   uint16_t tmp;
 112:u8glib_arm_v1.18.1\src/u8g_pbxh24.c ****   uint8_t *ptr = b->buf;
 170              		.loc 1 112 0
 171 001a 7B68     		ldr	r3, [r7, #4]
 172 001c 9B68     		ldr	r3, [r3, #8]
 173 001e FB60     		str	r3, [r7, #12]
ARM GAS  C:\Users\KJA\AppData\Local\Temp\ccQNhiOM.s 			page 6


 113:u8glib_arm_v1.18.1\src/u8g_pbxh24.c ****   
 114:u8glib_arm_v1.18.1\src/u8g_pbxh24.c ****   if ( intensity == 0 )
 174              		.loc 1 114 0
 175 0020 97F82030 		ldrb	r3, [r7, #32]	@ zero_extendqisi2
 176 0024 002B     		cmp	r3, #0
 177 0026 00D1     		bne	.L6
 115:u8glib_arm_v1.18.1\src/u8g_pbxh24.c ****     return;
 178              		.loc 1 115 0
 179 0028 89E0     		b	.L5
 180              	.L6:
 116:u8glib_arm_v1.18.1\src/u8g_pbxh24.c ****   
 117:u8glib_arm_v1.18.1\src/u8g_pbxh24.c ****   y -= b->p.page_y0;
 181              		.loc 1 117 0
 182 002a 7B68     		ldr	r3, [r7, #4]
 183 002c 9B78     		ldrb	r3, [r3, #2]	@ zero_extendqisi2
 184 002e BA78     		ldrb	r2, [r7, #2]
 185 0030 D31A     		subs	r3, r2, r3
 186 0032 BB70     		strb	r3, [r7, #2]
 118:u8glib_arm_v1.18.1\src/u8g_pbxh24.c ****   tmp = y;
 187              		.loc 1 118 0
 188 0034 BB78     		ldrb	r3, [r7, #2]	@ zero_extendqisi2
 189 0036 7B81     		strh	r3, [r7, #10]	@ movhi
 119:u8glib_arm_v1.18.1\src/u8g_pbxh24.c ****   tmp *= b->width;
 190              		.loc 1 119 0
 191 0038 7B68     		ldr	r3, [r7, #4]
 192 003a 5B79     		ldrb	r3, [r3, #5]	@ zero_extendqisi2
 193 003c 9BB2     		uxth	r3, r3
 194 003e 7A89     		ldrh	r2, [r7, #10]	@ movhi
 195 0040 02FB03F3 		mul	r3, r2, r3
 196 0044 7B81     		strh	r3, [r7, #10]	@ movhi
 120:u8glib_arm_v1.18.1\src/u8g_pbxh24.c ****   tmp += x;
 197              		.loc 1 120 0
 198 0046 FB78     		ldrb	r3, [r7, #3]	@ zero_extendqisi2
 199 0048 9AB2     		uxth	r2, r3
 200 004a 7B89     		ldrh	r3, [r7, #10]	@ movhi
 201 004c 1344     		add	r3, r3, r2
 202 004e 7B81     		strh	r3, [r7, #10]	@ movhi
 121:u8glib_arm_v1.18.1\src/u8g_pbxh24.c ****   tmp *= 3;
 203              		.loc 1 121 0
 204 0050 7B89     		ldrh	r3, [r7, #10]	@ movhi
 205 0052 1A46     		mov	r2, r3	@ movhi
 206 0054 5200     		lsls	r2, r2, #1
 207 0056 1344     		add	r3, r3, r2
 208 0058 7B81     		strh	r3, [r7, #10]	@ movhi
 122:u8glib_arm_v1.18.1\src/u8g_pbxh24.c ****   ptr += tmp;
 209              		.loc 1 122 0
 210 005a 7B89     		ldrh	r3, [r7, #10]
 211 005c FA68     		ldr	r2, [r7, #12]
 212 005e 1344     		add	r3, r3, r2
 213 0060 FB60     		str	r3, [r7, #12]
 123:u8glib_arm_v1.18.1\src/u8g_pbxh24.c ****   
 124:u8glib_arm_v1.18.1\src/u8g_pbxh24.c ****   if ( intensity == 4 )
 214              		.loc 1 124 0
 215 0062 97F82030 		ldrb	r3, [r7, #32]	@ zero_extendqisi2
 216 0066 042B     		cmp	r3, #4
 217 0068 0FD1     		bne	.L8
 125:u8glib_arm_v1.18.1\src/u8g_pbxh24.c ****   {
ARM GAS  C:\Users\KJA\AppData\Local\Temp\ccQNhiOM.s 			page 7


 126:u8glib_arm_v1.18.1\src/u8g_pbxh24.c ****     *ptr = red;
 218              		.loc 1 126 0
 219 006a FB68     		ldr	r3, [r7, #12]
 220 006c 7A78     		ldrb	r2, [r7, #1]
 221 006e 1A70     		strb	r2, [r3]
 127:u8glib_arm_v1.18.1\src/u8g_pbxh24.c ****     ptr++;
 222              		.loc 1 127 0
 223 0070 FB68     		ldr	r3, [r7, #12]
 224 0072 0133     		adds	r3, r3, #1
 225 0074 FB60     		str	r3, [r7, #12]
 128:u8glib_arm_v1.18.1\src/u8g_pbxh24.c ****     *ptr = green;
 226              		.loc 1 128 0
 227 0076 FB68     		ldr	r3, [r7, #12]
 228 0078 3A7E     		ldrb	r2, [r7, #24]
 229 007a 1A70     		strb	r2, [r3]
 129:u8glib_arm_v1.18.1\src/u8g_pbxh24.c ****     ptr++;
 230              		.loc 1 129 0
 231 007c FB68     		ldr	r3, [r7, #12]
 232 007e 0133     		adds	r3, r3, #1
 233 0080 FB60     		str	r3, [r7, #12]
 130:u8glib_arm_v1.18.1\src/u8g_pbxh24.c ****     *ptr = blue;
 234              		.loc 1 130 0
 235 0082 FB68     		ldr	r3, [r7, #12]
 236 0084 3A7F     		ldrb	r2, [r7, #28]
 237 0086 1A70     		strb	r2, [r3]
 131:u8glib_arm_v1.18.1\src/u8g_pbxh24.c ****     return;
 238              		.loc 1 131 0
 239 0088 59E0     		b	.L5
 240              	.L8:
 132:u8glib_arm_v1.18.1\src/u8g_pbxh24.c ****   }
 133:u8glib_arm_v1.18.1\src/u8g_pbxh24.c **** 
 134:u8glib_arm_v1.18.1\src/u8g_pbxh24.c ****   if ( intensity == 2 )
 241              		.loc 1 134 0
 242 008a 97F82030 		ldrb	r3, [r7, #32]	@ zero_extendqisi2
 243 008e 022B     		cmp	r3, #2
 244 0090 09D1     		bne	.L9
 135:u8glib_arm_v1.18.1\src/u8g_pbxh24.c ****   {
 136:u8glib_arm_v1.18.1\src/u8g_pbxh24.c ****     /*
 137:u8glib_arm_v1.18.1\src/u8g_pbxh24.c ****     red = red/4 + red/2;
 138:u8glib_arm_v1.18.1\src/u8g_pbxh24.c ****     green = green/4 + green/2;
 139:u8glib_arm_v1.18.1\src/u8g_pbxh24.c ****     blue = blue/4 + blue/2;
 140:u8glib_arm_v1.18.1\src/u8g_pbxh24.c ****     */
 141:u8glib_arm_v1.18.1\src/u8g_pbxh24.c ****     red >>= 1;
 245              		.loc 1 141 0
 246 0092 7B78     		ldrb	r3, [r7, #1]	@ zero_extendqisi2
 247 0094 5B08     		lsrs	r3, r3, #1
 248 0096 7B70     		strb	r3, [r7, #1]
 142:u8glib_arm_v1.18.1\src/u8g_pbxh24.c ****     green >>= 1;
 249              		.loc 1 142 0
 250 0098 3B7E     		ldrb	r3, [r7, #24]	@ zero_extendqisi2
 251 009a 5B08     		lsrs	r3, r3, #1
 252 009c 3B76     		strb	r3, [r7, #24]
 143:u8glib_arm_v1.18.1\src/u8g_pbxh24.c ****     blue >>= 1;
 253              		.loc 1 143 0
 254 009e 3B7F     		ldrb	r3, [r7, #28]	@ zero_extendqisi2
 255 00a0 5B08     		lsrs	r3, r3, #1
 256 00a2 3B77     		strb	r3, [r7, #28]
ARM GAS  C:\Users\KJA\AppData\Local\Temp\ccQNhiOM.s 			page 8


 257 00a4 0CE0     		b	.L10
 258              	.L9:
 144:u8glib_arm_v1.18.1\src/u8g_pbxh24.c ****   }
 145:u8glib_arm_v1.18.1\src/u8g_pbxh24.c ****   else if ( intensity == 1 )
 259              		.loc 1 145 0
 260 00a6 97F82030 		ldrb	r3, [r7, #32]	@ zero_extendqisi2
 261 00aa 012B     		cmp	r3, #1
 262 00ac 08D1     		bne	.L10
 146:u8glib_arm_v1.18.1\src/u8g_pbxh24.c ****   {
 147:u8glib_arm_v1.18.1\src/u8g_pbxh24.c ****     red >>= 2;
 263              		.loc 1 147 0
 264 00ae 7B78     		ldrb	r3, [r7, #1]	@ zero_extendqisi2
 265 00b0 9B08     		lsrs	r3, r3, #2
 266 00b2 7B70     		strb	r3, [r7, #1]
 148:u8glib_arm_v1.18.1\src/u8g_pbxh24.c ****     green >>= 2;
 267              		.loc 1 148 0
 268 00b4 3B7E     		ldrb	r3, [r7, #24]	@ zero_extendqisi2
 269 00b6 9B08     		lsrs	r3, r3, #2
 270 00b8 3B76     		strb	r3, [r7, #24]
 149:u8glib_arm_v1.18.1\src/u8g_pbxh24.c ****     blue >>= 2;
 271              		.loc 1 149 0
 272 00ba 3B7F     		ldrb	r3, [r7, #28]	@ zero_extendqisi2
 273 00bc 9B08     		lsrs	r3, r3, #2
 274 00be 3B77     		strb	r3, [r7, #28]
 275              	.L10:
 150:u8glib_arm_v1.18.1\src/u8g_pbxh24.c ****   }
 151:u8glib_arm_v1.18.1\src/u8g_pbxh24.c **** 
 152:u8glib_arm_v1.18.1\src/u8g_pbxh24.c ****   if ( *ptr >= 255-red ) *ptr = 255; 
 276              		.loc 1 152 0
 277 00c0 FB68     		ldr	r3, [r7, #12]
 278 00c2 1B78     		ldrb	r3, [r3]	@ zero_extendqisi2
 279 00c4 1A46     		mov	r2, r3
 280 00c6 7B78     		ldrb	r3, [r7, #1]	@ zero_extendqisi2
 281 00c8 C3F1FF03 		rsb	r3, r3, #255
 282 00cc 9A42     		cmp	r2, r3
 283 00ce 03DB     		blt	.L11
 284              		.loc 1 152 0 is_stmt 0 discriminator 1
 285 00d0 FB68     		ldr	r3, [r7, #12]
 286 00d2 FF22     		movs	r2, #255
 287 00d4 1A70     		strb	r2, [r3]
 288 00d6 06E0     		b	.L12
 289              	.L11:
 153:u8glib_arm_v1.18.1\src/u8g_pbxh24.c ****   else *ptr += red;
 290              		.loc 1 153 0 is_stmt 1
 291 00d8 FB68     		ldr	r3, [r7, #12]
 292 00da 1A78     		ldrb	r2, [r3]	@ zero_extendqisi2
 293 00dc 7B78     		ldrb	r3, [r7, #1]
 294 00de 1344     		add	r3, r3, r2
 295 00e0 DAB2     		uxtb	r2, r3
 296 00e2 FB68     		ldr	r3, [r7, #12]
 297 00e4 1A70     		strb	r2, [r3]
 298              	.L12:
 154:u8glib_arm_v1.18.1\src/u8g_pbxh24.c ****   ptr++;
 299              		.loc 1 154 0
 300 00e6 FB68     		ldr	r3, [r7, #12]
 301 00e8 0133     		adds	r3, r3, #1
 302 00ea FB60     		str	r3, [r7, #12]
ARM GAS  C:\Users\KJA\AppData\Local\Temp\ccQNhiOM.s 			page 9


 155:u8glib_arm_v1.18.1\src/u8g_pbxh24.c **** 
 156:u8glib_arm_v1.18.1\src/u8g_pbxh24.c ****   if ( *ptr >= 255-green ) *ptr = 255; 
 303              		.loc 1 156 0
 304 00ec FB68     		ldr	r3, [r7, #12]
 305 00ee 1B78     		ldrb	r3, [r3]	@ zero_extendqisi2
 306 00f0 1A46     		mov	r2, r3
 307 00f2 3B7E     		ldrb	r3, [r7, #24]	@ zero_extendqisi2
 308 00f4 C3F1FF03 		rsb	r3, r3, #255
 309 00f8 9A42     		cmp	r2, r3
 310 00fa 03DB     		blt	.L13
 311              		.loc 1 156 0 is_stmt 0 discriminator 1
 312 00fc FB68     		ldr	r3, [r7, #12]
 313 00fe FF22     		movs	r2, #255
 314 0100 1A70     		strb	r2, [r3]
 315 0102 06E0     		b	.L14
 316              	.L13:
 157:u8glib_arm_v1.18.1\src/u8g_pbxh24.c ****   else *ptr += green;
 317              		.loc 1 157 0 is_stmt 1
 318 0104 FB68     		ldr	r3, [r7, #12]
 319 0106 1A78     		ldrb	r2, [r3]	@ zero_extendqisi2
 320 0108 3B7E     		ldrb	r3, [r7, #24]
 321 010a 1344     		add	r3, r3, r2
 322 010c DAB2     		uxtb	r2, r3
 323 010e FB68     		ldr	r3, [r7, #12]
 324 0110 1A70     		strb	r2, [r3]
 325              	.L14:
 158:u8glib_arm_v1.18.1\src/u8g_pbxh24.c ****   ptr++;
 326              		.loc 1 158 0
 327 0112 FB68     		ldr	r3, [r7, #12]
 328 0114 0133     		adds	r3, r3, #1
 329 0116 FB60     		str	r3, [r7, #12]
 159:u8glib_arm_v1.18.1\src/u8g_pbxh24.c **** 
 160:u8glib_arm_v1.18.1\src/u8g_pbxh24.c ****   if ( *ptr >= 255-blue ) *ptr = 255; 
 330              		.loc 1 160 0
 331 0118 FB68     		ldr	r3, [r7, #12]
 332 011a 1B78     		ldrb	r3, [r3]	@ zero_extendqisi2
 333 011c 1A46     		mov	r2, r3
 334 011e 3B7F     		ldrb	r3, [r7, #28]	@ zero_extendqisi2
 335 0120 C3F1FF03 		rsb	r3, r3, #255
 336 0124 9A42     		cmp	r2, r3
 337 0126 03DB     		blt	.L15
 338              		.loc 1 160 0 is_stmt 0 discriminator 1
 339 0128 FB68     		ldr	r3, [r7, #12]
 340 012a FF22     		movs	r2, #255
 341 012c 1A70     		strb	r2, [r3]
 342 012e 06E0     		b	.L5
 343              	.L15:
 161:u8glib_arm_v1.18.1\src/u8g_pbxh24.c ****   else *ptr += blue;
 344              		.loc 1 161 0 is_stmt 1
 345 0130 FB68     		ldr	r3, [r7, #12]
 346 0132 1A78     		ldrb	r2, [r3]	@ zero_extendqisi2
 347 0134 3B7F     		ldrb	r3, [r7, #28]
 348 0136 1344     		add	r3, r3, r2
 349 0138 DAB2     		uxtb	r2, r3
 350 013a FB68     		ldr	r3, [r7, #12]
 351 013c 1A70     		strb	r2, [r3]
 352              	.L5:
ARM GAS  C:\Users\KJA\AppData\Local\Temp\ccQNhiOM.s 			page 10


 162:u8glib_arm_v1.18.1\src/u8g_pbxh24.c ****   
 163:u8glib_arm_v1.18.1\src/u8g_pbxh24.c ****   /*
 164:u8glib_arm_v1.18.1\src/u8g_pbxh24.c ****   if ( *ptr < red ) *ptr = red;
 165:u8glib_arm_v1.18.1\src/u8g_pbxh24.c ****   ptr++;
 166:u8glib_arm_v1.18.1\src/u8g_pbxh24.c ****   if ( *ptr < green ) *ptr = green;
 167:u8glib_arm_v1.18.1\src/u8g_pbxh24.c ****   ptr++;
 168:u8glib_arm_v1.18.1\src/u8g_pbxh24.c ****   if ( *ptr < blue ) *ptr = blue;
 169:u8glib_arm_v1.18.1\src/u8g_pbxh24.c ****   */
 170:u8glib_arm_v1.18.1\src/u8g_pbxh24.c ****   
 171:u8glib_arm_v1.18.1\src/u8g_pbxh24.c ****   
 172:u8glib_arm_v1.18.1\src/u8g_pbxh24.c **** }
 353              		.loc 1 172 0
 354 013e 1437     		adds	r7, r7, #20
 355              		.cfi_def_cfa_offset 4
 356 0140 BD46     		mov	sp, r7
 357              		.cfi_def_cfa_register 13
 358              		@ sp needed
 359 0142 5DF8047B 		ldr	r7, [sp], #4
 360              		.cfi_restore 7
 361              		.cfi_def_cfa_offset 0
 362 0146 7047     		bx	lr
 363              		.cfi_endproc
 364              	.LFE2:
 365              		.size	u8g_pbxh24_set_tpixel, .-u8g_pbxh24_set_tpixel
 366              		.section	.text.u8g_pbxh24_SetTPixel,"ax",%progbits
 367              		.align	2
 368              		.global	u8g_pbxh24_SetTPixel
 369              		.thumb
 370              		.thumb_func
 371              		.type	u8g_pbxh24_SetTPixel, %function
 372              	u8g_pbxh24_SetTPixel:
 373              	.LFB3:
 173:u8glib_arm_v1.18.1\src/u8g_pbxh24.c **** 
 174:u8glib_arm_v1.18.1\src/u8g_pbxh24.c **** void u8g_pbxh24_SetTPixel(u8g_pb_t *b, const u8g_dev_arg_pixel_t * const arg_pixel, uint8_t intensi
 175:u8glib_arm_v1.18.1\src/u8g_pbxh24.c **** {
 374              		.loc 1 175 0
 375              		.cfi_startproc
 376              		@ args = 0, pretend = 0, frame = 16
 377              		@ frame_needed = 1, uses_anonymous_args = 0
 378 0000 B0B5     		push	{r4, r5, r7, lr}
 379              		.cfi_def_cfa_offset 16
 380              		.cfi_offset 4, -16
 381              		.cfi_offset 5, -12
 382              		.cfi_offset 7, -8
 383              		.cfi_offset 14, -4
 384 0002 88B0     		sub	sp, sp, #32
 385              		.cfi_def_cfa_offset 48
 386 0004 04AF     		add	r7, sp, #16
 387              		.cfi_def_cfa 7, 32
 388 0006 F860     		str	r0, [r7, #12]
 389 0008 B960     		str	r1, [r7, #8]
 390 000a 1346     		mov	r3, r2
 391 000c FB71     		strb	r3, [r7, #7]
 176:u8glib_arm_v1.18.1\src/u8g_pbxh24.c ****   if ( arg_pixel->y < b->p.page_y0 )
 392              		.loc 1 176 0
 393 000e BB68     		ldr	r3, [r7, #8]
 394 0010 5A78     		ldrb	r2, [r3, #1]	@ zero_extendqisi2
ARM GAS  C:\Users\KJA\AppData\Local\Temp\ccQNhiOM.s 			page 11


 395 0012 FB68     		ldr	r3, [r7, #12]
 396 0014 9B78     		ldrb	r3, [r3, #2]	@ zero_extendqisi2
 397 0016 9A42     		cmp	r2, r3
 398 0018 00D2     		bcs	.L17
 177:u8glib_arm_v1.18.1\src/u8g_pbxh24.c ****     return;
 399              		.loc 1 177 0
 400 001a 20E0     		b	.L16
 401              	.L17:
 178:u8glib_arm_v1.18.1\src/u8g_pbxh24.c ****   if ( arg_pixel->y > b->p.page_y1 )
 402              		.loc 1 178 0
 403 001c BB68     		ldr	r3, [r7, #8]
 404 001e 5A78     		ldrb	r2, [r3, #1]	@ zero_extendqisi2
 405 0020 FB68     		ldr	r3, [r7, #12]
 406 0022 DB78     		ldrb	r3, [r3, #3]	@ zero_extendqisi2
 407 0024 9A42     		cmp	r2, r3
 408 0026 00D9     		bls	.L19
 179:u8glib_arm_v1.18.1\src/u8g_pbxh24.c ****     return;
 409              		.loc 1 179 0 discriminator 2
 410 0028 19E0     		b	.L16
 411              	.L19:
 180:u8glib_arm_v1.18.1\src/u8g_pbxh24.c ****   if ( arg_pixel->x >= b->width )
 412              		.loc 1 180 0
 413 002a BB68     		ldr	r3, [r7, #8]
 414 002c 1A78     		ldrb	r2, [r3]	@ zero_extendqisi2
 415 002e FB68     		ldr	r3, [r7, #12]
 416 0030 5B79     		ldrb	r3, [r3, #5]	@ zero_extendqisi2
 417 0032 9A42     		cmp	r2, r3
 418 0034 00D3     		bcc	.L20
 181:u8glib_arm_v1.18.1\src/u8g_pbxh24.c ****     return;
 419              		.loc 1 181 0 discriminator 3
 420 0036 12E0     		b	.L16
 421              	.L20:
 182:u8glib_arm_v1.18.1\src/u8g_pbxh24.c ****   u8g_pbxh24_set_tpixel(b, arg_pixel->x, arg_pixel->y, arg_pixel->color, arg_pixel->hi_color, arg_p
 422              		.loc 1 182 0
 423 0038 BB68     		ldr	r3, [r7, #8]
 424 003a 1978     		ldrb	r1, [r3]	@ zero_extendqisi2
 425 003c BB68     		ldr	r3, [r7, #8]
 426 003e 5D78     		ldrb	r5, [r3, #1]	@ zero_extendqisi2
 427 0040 BB68     		ldr	r3, [r7, #8]
 428 0042 1C79     		ldrb	r4, [r3, #4]	@ zero_extendqisi2
 429 0044 BB68     		ldr	r3, [r7, #8]
 430 0046 5A79     		ldrb	r2, [r3, #5]	@ zero_extendqisi2
 431 0048 BB68     		ldr	r3, [r7, #8]
 432 004a 9B79     		ldrb	r3, [r3, #6]	@ zero_extendqisi2
 433 004c 0092     		str	r2, [sp]
 434 004e 0193     		str	r3, [sp, #4]
 435 0050 FB79     		ldrb	r3, [r7, #7]	@ zero_extendqisi2
 436 0052 0293     		str	r3, [sp, #8]
 437 0054 F868     		ldr	r0, [r7, #12]
 438 0056 2A46     		mov	r2, r5
 439 0058 2346     		mov	r3, r4
 440 005a FFF7FEFF 		bl	u8g_pbxh24_set_tpixel
 441              	.L16:
 183:u8glib_arm_v1.18.1\src/u8g_pbxh24.c **** }
 442              		.loc 1 183 0
 443 005e 1037     		adds	r7, r7, #16
 444              		.cfi_def_cfa_offset 16
ARM GAS  C:\Users\KJA\AppData\Local\Temp\ccQNhiOM.s 			page 12


 445 0060 BD46     		mov	sp, r7
 446              		.cfi_def_cfa_register 13
 447              		@ sp needed
 448 0062 B0BD     		pop	{r4, r5, r7, pc}
 449              		.cfi_endproc
 450              	.LFE3:
 451              		.size	u8g_pbxh24_SetTPixel, .-u8g_pbxh24_SetTPixel
 452              		.section	.text.u8g_pbxh24_Set8Pixel,"ax",%progbits
 453              		.align	2
 454              		.global	u8g_pbxh24_Set8Pixel
 455              		.thumb
 456              		.thumb_func
 457              		.type	u8g_pbxh24_Set8Pixel, %function
 458              	u8g_pbxh24_Set8Pixel:
 459              	.LFB4:
 184:u8glib_arm_v1.18.1\src/u8g_pbxh24.c **** 
 185:u8glib_arm_v1.18.1\src/u8g_pbxh24.c **** 
 186:u8glib_arm_v1.18.1\src/u8g_pbxh24.c **** void u8g_pbxh24_Set8Pixel(u8g_pb_t *b, u8g_dev_arg_pixel_t *arg_pixel)
 187:u8glib_arm_v1.18.1\src/u8g_pbxh24.c **** {
 460              		.loc 1 187 0
 461              		.cfi_startproc
 462              		@ args = 0, pretend = 0, frame = 16
 463              		@ frame_needed = 1, uses_anonymous_args = 0
 464 0000 90B5     		push	{r4, r7, lr}
 465              		.cfi_def_cfa_offset 12
 466              		.cfi_offset 4, -12
 467              		.cfi_offset 7, -8
 468              		.cfi_offset 14, -4
 469 0002 85B0     		sub	sp, sp, #20
 470              		.cfi_def_cfa_offset 32
 471 0004 00AF     		add	r7, sp, #0
 472              		.cfi_def_cfa_register 7
 473 0006 7860     		str	r0, [r7, #4]
 474 0008 3960     		str	r1, [r7]
 188:u8glib_arm_v1.18.1\src/u8g_pbxh24.c ****   register uint8_t pixel = arg_pixel->pixel;
 475              		.loc 1 188 0
 476 000a 3B68     		ldr	r3, [r7]
 477 000c 9C78     		ldrb	r4, [r3, #2]	@ zero_extendqisi2
 189:u8glib_arm_v1.18.1\src/u8g_pbxh24.c ****   u8g_uint_t dx = 0;
 478              		.loc 1 189 0
 479 000e 0023     		movs	r3, #0
 480 0010 FB73     		strb	r3, [r7, #15]
 190:u8glib_arm_v1.18.1\src/u8g_pbxh24.c ****   u8g_uint_t dy = 0;
 481              		.loc 1 190 0
 482 0012 0023     		movs	r3, #0
 483 0014 BB73     		strb	r3, [r7, #14]
 191:u8glib_arm_v1.18.1\src/u8g_pbxh24.c ****   
 192:u8glib_arm_v1.18.1\src/u8g_pbxh24.c ****   switch( arg_pixel->dir )
 484              		.loc 1 192 0
 485 0016 3B68     		ldr	r3, [r7]
 486 0018 DB78     		ldrb	r3, [r3, #3]	@ zero_extendqisi2
 487 001a 032B     		cmp	r3, #3
 488 001c 1AD8     		bhi	.L22
 489 001e 01A2     		adr	r2, .L24
 490 0020 52F823F0 		ldr	pc, [r2, r3, lsl #2]
 491              		.p2align 2
 492              	.L24:
ARM GAS  C:\Users\KJA\AppData\Local\Temp\ccQNhiOM.s 			page 13


 493 0024 35000000 		.word	.L23+1
 494 0028 3D000000 		.word	.L25+1
 495 002c 45000000 		.word	.L26+1
 496 0030 4D000000 		.word	.L27+1
 497              		.p2align 1
 498              	.L23:
 193:u8glib_arm_v1.18.1\src/u8g_pbxh24.c ****   {
 194:u8glib_arm_v1.18.1\src/u8g_pbxh24.c ****     case 0: dx++; break;
 499              		.loc 1 194 0
 500 0034 FB7B     		ldrb	r3, [r7, #15]	@ zero_extendqisi2
 501 0036 0133     		adds	r3, r3, #1
 502 0038 FB73     		strb	r3, [r7, #15]
 503 003a 0BE0     		b	.L22
 504              	.L25:
 195:u8glib_arm_v1.18.1\src/u8g_pbxh24.c ****     case 1: dy++; break;
 505              		.loc 1 195 0
 506 003c BB7B     		ldrb	r3, [r7, #14]	@ zero_extendqisi2
 507 003e 0133     		adds	r3, r3, #1
 508 0040 BB73     		strb	r3, [r7, #14]
 509 0042 07E0     		b	.L22
 510              	.L26:
 196:u8glib_arm_v1.18.1\src/u8g_pbxh24.c ****     case 2: dx--; break;
 511              		.loc 1 196 0
 512 0044 FB7B     		ldrb	r3, [r7, #15]	@ zero_extendqisi2
 513 0046 013B     		subs	r3, r3, #1
 514 0048 FB73     		strb	r3, [r7, #15]
 515 004a 03E0     		b	.L22
 516              	.L27:
 197:u8glib_arm_v1.18.1\src/u8g_pbxh24.c ****     case 3: dy--; break;
 517              		.loc 1 197 0
 518 004c BB7B     		ldrb	r3, [r7, #14]	@ zero_extendqisi2
 519 004e 013B     		subs	r3, r3, #1
 520 0050 BB73     		strb	r3, [r7, #14]
 521 0052 00BF     		nop
 522              	.L22:
 198:u8glib_arm_v1.18.1\src/u8g_pbxh24.c ****   }
 199:u8glib_arm_v1.18.1\src/u8g_pbxh24.c ****   
 200:u8glib_arm_v1.18.1\src/u8g_pbxh24.c ****   do
 201:u8glib_arm_v1.18.1\src/u8g_pbxh24.c ****   {
 202:u8glib_arm_v1.18.1\src/u8g_pbxh24.c ****     if ( pixel & 128 )
 523              		.loc 1 202 0
 524 0054 E3B2     		uxtb	r3, r4
 525 0056 5BB2     		sxtb	r3, r3
 526 0058 002B     		cmp	r3, #0
 527 005a 04DA     		bge	.L28
 203:u8glib_arm_v1.18.1\src/u8g_pbxh24.c ****       u8g_pbxh24_SetTPixel(b, arg_pixel, 4);
 528              		.loc 1 203 0
 529 005c 7868     		ldr	r0, [r7, #4]
 530 005e 3968     		ldr	r1, [r7]
 531 0060 0422     		movs	r2, #4
 532 0062 FFF7FEFF 		bl	u8g_pbxh24_SetTPixel
 533              	.L28:
 204:u8glib_arm_v1.18.1\src/u8g_pbxh24.c ****     arg_pixel->x += dx;
 534              		.loc 1 204 0
 535 0066 3B68     		ldr	r3, [r7]
 536 0068 1A78     		ldrb	r2, [r3]	@ zero_extendqisi2
 537 006a FB7B     		ldrb	r3, [r7, #15]
ARM GAS  C:\Users\KJA\AppData\Local\Temp\ccQNhiOM.s 			page 14


 538 006c 1344     		add	r3, r3, r2
 539 006e DAB2     		uxtb	r2, r3
 540 0070 3B68     		ldr	r3, [r7]
 541 0072 1A70     		strb	r2, [r3]
 205:u8glib_arm_v1.18.1\src/u8g_pbxh24.c ****     arg_pixel->y += dy;
 542              		.loc 1 205 0
 543 0074 3B68     		ldr	r3, [r7]
 544 0076 5A78     		ldrb	r2, [r3, #1]	@ zero_extendqisi2
 545 0078 BB7B     		ldrb	r3, [r7, #14]
 546 007a 1344     		add	r3, r3, r2
 547 007c DAB2     		uxtb	r2, r3
 548 007e 3B68     		ldr	r3, [r7]
 549 0080 5A70     		strb	r2, [r3, #1]
 206:u8glib_arm_v1.18.1\src/u8g_pbxh24.c ****     pixel <<= 1;
 550              		.loc 1 206 0
 551 0082 6300     		lsls	r3, r4, #1
 552 0084 DCB2     		uxtb	r4, r3
 207:u8glib_arm_v1.18.1\src/u8g_pbxh24.c ****   } while( pixel != 0  );  
 553              		.loc 1 207 0
 554 0086 002C     		cmp	r4, #0
 555 0088 E4D1     		bne	.L22
 208:u8glib_arm_v1.18.1\src/u8g_pbxh24.c **** }
 556              		.loc 1 208 0
 557 008a 1437     		adds	r7, r7, #20
 558              		.cfi_def_cfa_offset 12
 559 008c BD46     		mov	sp, r7
 560              		.cfi_def_cfa_register 13
 561              		@ sp needed
 562 008e 90BD     		pop	{r4, r7, pc}
 563              		.cfi_endproc
 564              	.LFE4:
 565              		.size	u8g_pbxh24_Set8Pixel, .-u8g_pbxh24_Set8Pixel
 566              		.section	.text.u8g_pbxh24_Set4TPixel,"ax",%progbits
 567              		.align	2
 568              		.global	u8g_pbxh24_Set4TPixel
 569              		.thumb
 570              		.thumb_func
 571              		.type	u8g_pbxh24_Set4TPixel, %function
 572              	u8g_pbxh24_Set4TPixel:
 573              	.LFB5:
 209:u8glib_arm_v1.18.1\src/u8g_pbxh24.c **** 
 210:u8glib_arm_v1.18.1\src/u8g_pbxh24.c **** void u8g_pbxh24_Set4TPixel(u8g_pb_t *b, u8g_dev_arg_pixel_t *arg_pixel)
 211:u8glib_arm_v1.18.1\src/u8g_pbxh24.c **** {
 574              		.loc 1 211 0
 575              		.cfi_startproc
 576              		@ args = 0, pretend = 0, frame = 16
 577              		@ frame_needed = 1, uses_anonymous_args = 0
 578 0000 90B5     		push	{r4, r7, lr}
 579              		.cfi_def_cfa_offset 12
 580              		.cfi_offset 4, -12
 581              		.cfi_offset 7, -8
 582              		.cfi_offset 14, -4
 583 0002 85B0     		sub	sp, sp, #20
 584              		.cfi_def_cfa_offset 32
 585 0004 00AF     		add	r7, sp, #0
 586              		.cfi_def_cfa_register 7
 587 0006 7860     		str	r0, [r7, #4]
ARM GAS  C:\Users\KJA\AppData\Local\Temp\ccQNhiOM.s 			page 15


 588 0008 3960     		str	r1, [r7]
 212:u8glib_arm_v1.18.1\src/u8g_pbxh24.c ****   register uint8_t pixel = arg_pixel->pixel;
 589              		.loc 1 212 0
 590 000a 3B68     		ldr	r3, [r7]
 591 000c 9C78     		ldrb	r4, [r3, #2]	@ zero_extendqisi2
 213:u8glib_arm_v1.18.1\src/u8g_pbxh24.c ****   u8g_uint_t dx = 0;
 592              		.loc 1 213 0
 593 000e 0023     		movs	r3, #0
 594 0010 FB73     		strb	r3, [r7, #15]
 214:u8glib_arm_v1.18.1\src/u8g_pbxh24.c ****   u8g_uint_t dy = 0;
 595              		.loc 1 214 0
 596 0012 0023     		movs	r3, #0
 597 0014 BB73     		strb	r3, [r7, #14]
 215:u8glib_arm_v1.18.1\src/u8g_pbxh24.c ****   
 216:u8glib_arm_v1.18.1\src/u8g_pbxh24.c ****   switch( arg_pixel->dir )
 598              		.loc 1 216 0
 599 0016 3B68     		ldr	r3, [r7]
 600 0018 DB78     		ldrb	r3, [r3, #3]	@ zero_extendqisi2
 601 001a 032B     		cmp	r3, #3
 602 001c 1AD8     		bhi	.L30
 603 001e 01A2     		adr	r2, .L32
 604 0020 52F823F0 		ldr	pc, [r2, r3, lsl #2]
 605              		.p2align 2
 606              	.L32:
 607 0024 35000000 		.word	.L31+1
 608 0028 3D000000 		.word	.L33+1
 609 002c 45000000 		.word	.L34+1
 610 0030 4D000000 		.word	.L35+1
 611              		.p2align 1
 612              	.L31:
 217:u8glib_arm_v1.18.1\src/u8g_pbxh24.c ****   {
 218:u8glib_arm_v1.18.1\src/u8g_pbxh24.c ****     case 0: dx++; break;
 613              		.loc 1 218 0
 614 0034 FB7B     		ldrb	r3, [r7, #15]	@ zero_extendqisi2
 615 0036 0133     		adds	r3, r3, #1
 616 0038 FB73     		strb	r3, [r7, #15]
 617 003a 0BE0     		b	.L30
 618              	.L33:
 219:u8glib_arm_v1.18.1\src/u8g_pbxh24.c ****     case 1: dy++; break;
 619              		.loc 1 219 0
 620 003c BB7B     		ldrb	r3, [r7, #14]	@ zero_extendqisi2
 621 003e 0133     		adds	r3, r3, #1
 622 0040 BB73     		strb	r3, [r7, #14]
 623 0042 07E0     		b	.L30
 624              	.L34:
 220:u8glib_arm_v1.18.1\src/u8g_pbxh24.c ****     case 2: dx--; break;
 625              		.loc 1 220 0
 626 0044 FB7B     		ldrb	r3, [r7, #15]	@ zero_extendqisi2
 627 0046 013B     		subs	r3, r3, #1
 628 0048 FB73     		strb	r3, [r7, #15]
 629 004a 03E0     		b	.L30
 630              	.L35:
 221:u8glib_arm_v1.18.1\src/u8g_pbxh24.c ****     case 3: dy--; break;
 631              		.loc 1 221 0
 632 004c BB7B     		ldrb	r3, [r7, #14]	@ zero_extendqisi2
 633 004e 013B     		subs	r3, r3, #1
 634 0050 BB73     		strb	r3, [r7, #14]
ARM GAS  C:\Users\KJA\AppData\Local\Temp\ccQNhiOM.s 			page 16


 635 0052 00BF     		nop
 636              	.L30:
 222:u8glib_arm_v1.18.1\src/u8g_pbxh24.c ****   }
 223:u8glib_arm_v1.18.1\src/u8g_pbxh24.c ****   
 224:u8glib_arm_v1.18.1\src/u8g_pbxh24.c ****   do
 225:u8glib_arm_v1.18.1\src/u8g_pbxh24.c ****   {
 226:u8glib_arm_v1.18.1\src/u8g_pbxh24.c ****     u8g_pbxh24_SetTPixel(b, arg_pixel, pixel >> 6);
 637              		.loc 1 226 0 discriminator 1
 638 0054 A309     		lsrs	r3, r4, #6
 639 0056 DBB2     		uxtb	r3, r3
 640 0058 7868     		ldr	r0, [r7, #4]
 641 005a 3968     		ldr	r1, [r7]
 642 005c 1A46     		mov	r2, r3
 643 005e FFF7FEFF 		bl	u8g_pbxh24_SetTPixel
 227:u8glib_arm_v1.18.1\src/u8g_pbxh24.c ****     arg_pixel->x += dx;
 644              		.loc 1 227 0 discriminator 1
 645 0062 3B68     		ldr	r3, [r7]
 646 0064 1A78     		ldrb	r2, [r3]	@ zero_extendqisi2
 647 0066 FB7B     		ldrb	r3, [r7, #15]
 648 0068 1344     		add	r3, r3, r2
 649 006a DAB2     		uxtb	r2, r3
 650 006c 3B68     		ldr	r3, [r7]
 651 006e 1A70     		strb	r2, [r3]
 228:u8glib_arm_v1.18.1\src/u8g_pbxh24.c ****     arg_pixel->y += dy;
 652              		.loc 1 228 0 discriminator 1
 653 0070 3B68     		ldr	r3, [r7]
 654 0072 5A78     		ldrb	r2, [r3, #1]	@ zero_extendqisi2
 655 0074 BB7B     		ldrb	r3, [r7, #14]
 656 0076 1344     		add	r3, r3, r2
 657 0078 DAB2     		uxtb	r2, r3
 658 007a 3B68     		ldr	r3, [r7]
 659 007c 5A70     		strb	r2, [r3, #1]
 229:u8glib_arm_v1.18.1\src/u8g_pbxh24.c ****     pixel <<= 2;
 660              		.loc 1 229 0 discriminator 1
 661 007e A300     		lsls	r3, r4, #2
 662 0080 DCB2     		uxtb	r4, r3
 230:u8glib_arm_v1.18.1\src/u8g_pbxh24.c ****   } while( pixel != 0  );  
 663              		.loc 1 230 0 discriminator 1
 664 0082 002C     		cmp	r4, #0
 665 0084 E6D1     		bne	.L30
 231:u8glib_arm_v1.18.1\src/u8g_pbxh24.c **** }
 666              		.loc 1 231 0
 667 0086 1437     		adds	r7, r7, #20
 668              		.cfi_def_cfa_offset 12
 669 0088 BD46     		mov	sp, r7
 670              		.cfi_def_cfa_register 13
 671              		@ sp needed
 672 008a 90BD     		pop	{r4, r7, pc}
 673              		.cfi_endproc
 674              	.LFE5:
 675              		.size	u8g_pbxh24_Set4TPixel, .-u8g_pbxh24_Set4TPixel
 676              		.section	.text.u8g_dev_pbxh24_base_fn,"ax",%progbits
 677              		.align	2
 678              		.global	u8g_dev_pbxh24_base_fn
 679              		.thumb
 680              		.thumb_func
 681              		.type	u8g_dev_pbxh24_base_fn, %function
ARM GAS  C:\Users\KJA\AppData\Local\Temp\ccQNhiOM.s 			page 17


 682              	u8g_dev_pbxh24_base_fn:
 683              	.LFB6:
 232:u8glib_arm_v1.18.1\src/u8g_pbxh24.c **** 
 233:u8glib_arm_v1.18.1\src/u8g_pbxh24.c **** 
 234:u8glib_arm_v1.18.1\src/u8g_pbxh24.c **** uint8_t u8g_dev_pbxh24_base_fn(u8g_t *u8g, u8g_dev_t *dev, uint8_t msg, void *arg)
 235:u8glib_arm_v1.18.1\src/u8g_pbxh24.c **** {
 684              		.loc 1 235 0
 685              		.cfi_startproc
 686              		@ args = 0, pretend = 0, frame = 24
 687              		@ frame_needed = 1, uses_anonymous_args = 0
 688 0000 80B5     		push	{r7, lr}
 689              		.cfi_def_cfa_offset 8
 690              		.cfi_offset 7, -8
 691              		.cfi_offset 14, -4
 692 0002 86B0     		sub	sp, sp, #24
 693              		.cfi_def_cfa_offset 32
 694 0004 00AF     		add	r7, sp, #0
 695              		.cfi_def_cfa_register 7
 696 0006 F860     		str	r0, [r7, #12]
 697 0008 B960     		str	r1, [r7, #8]
 698 000a 3B60     		str	r3, [r7]
 699 000c 1346     		mov	r3, r2
 700 000e FB71     		strb	r3, [r7, #7]
 236:u8glib_arm_v1.18.1\src/u8g_pbxh24.c ****   u8g_pb_t *pb = (u8g_pb_t *)(dev->dev_mem);
 701              		.loc 1 236 0
 702 0010 BB68     		ldr	r3, [r7, #8]
 703 0012 5B68     		ldr	r3, [r3, #4]
 704 0014 7B61     		str	r3, [r7, #20]
 237:u8glib_arm_v1.18.1\src/u8g_pbxh24.c ****   switch(msg)
 705              		.loc 1 237 0
 706 0016 FB79     		ldrb	r3, [r7, #7]	@ zero_extendqisi2
 707 0018 0A3B     		subs	r3, r3, #10
 708 001a 3E2B     		cmp	r3, #62
 709 001c 00F2CB80 		bhi	.L37
 710 0020 01A2     		adr	r2, .L39
 711 0022 52F823F0 		ldr	pc, [r2, r3, lsl #2]
 712 0026 00BF     		.p2align 2
 713              	.L39:
 714 0028 B7010000 		.word	.L37+1
 715 002c B7010000 		.word	.L37+1
 716 0030 B7010000 		.word	.L37+1
 717 0034 B7010000 		.word	.L37+1
 718 0038 B7010000 		.word	.L37+1
 719 003c B7010000 		.word	.L37+1
 720 0040 B7010000 		.word	.L37+1
 721 0044 B7010000 		.word	.L37+1
 722 0048 B7010000 		.word	.L37+1
 723 004c B7010000 		.word	.L37+1
 724 0050 6B010000 		.word	.L41+1
 725 0054 7B010000 		.word	.L42+1
 726 0058 B7010000 		.word	.L37+1
 727 005c 95010000 		.word	.L43+1
 728 0060 B7010000 		.word	.L37+1
 729 0064 B7010000 		.word	.L37+1
 730 0068 B7010000 		.word	.L37+1
 731 006c B7010000 		.word	.L37+1
 732 0070 B7010000 		.word	.L37+1
ARM GAS  C:\Users\KJA\AppData\Local\Temp\ccQNhiOM.s 			page 18


 733 0074 B7010000 		.word	.L37+1
 734 0078 B7010000 		.word	.L37+1
 735 007c B7010000 		.word	.L37+1
 736 0080 B7010000 		.word	.L37+1
 737 0084 B7010000 		.word	.L37+1
 738 0088 B7010000 		.word	.L37+1
 739 008c B7010000 		.word	.L37+1
 740 0090 B7010000 		.word	.L37+1
 741 0094 B7010000 		.word	.L37+1
 742 0098 B7010000 		.word	.L37+1
 743 009c B7010000 		.word	.L37+1
 744 00a0 B7010000 		.word	.L37+1
 745 00a4 B7010000 		.word	.L37+1
 746 00a8 B7010000 		.word	.L37+1
 747 00ac B7010000 		.word	.L37+1
 748 00b0 55010000 		.word	.L44+1
 749 00b4 4B010000 		.word	.L45+1
 750 00b8 B7010000 		.word	.L37+1
 751 00bc B7010000 		.word	.L37+1
 752 00c0 B7010000 		.word	.L37+1
 753 00c4 B7010000 		.word	.L37+1
 754 00c8 3F010000 		.word	.L46+1
 755 00cc B7010000 		.word	.L37+1
 756 00d0 B7010000 		.word	.L37+1
 757 00d4 B7010000 		.word	.L37+1
 758 00d8 B7010000 		.word	.L37+1
 759 00dc B7010000 		.word	.L37+1
 760 00e0 B7010000 		.word	.L37+1
 761 00e4 B7010000 		.word	.L37+1
 762 00e8 B7010000 		.word	.L37+1
 763 00ec 25010000 		.word	.L47+1
 764 00f0 B7010000 		.word	.L37+1
 765 00f4 B7010000 		.word	.L37+1
 766 00f8 B7010000 		.word	.L37+1
 767 00fc B7010000 		.word	.L37+1
 768 0100 B7010000 		.word	.L37+1
 769 0104 B7010000 		.word	.L37+1
 770 0108 B7010000 		.word	.L37+1
 771 010c B7010000 		.word	.L37+1
 772 0110 B7010000 		.word	.L37+1
 773 0114 B7010000 		.word	.L37+1
 774 0118 9F010000 		.word	.L50+1
 775 011c A9010000 		.word	.L51+1
 776 0120 B3010000 		.word	.L52+1
 777              		.p2align 1
 778              	.L47:
 238:u8glib_arm_v1.18.1\src/u8g_pbxh24.c ****   {
 239:u8glib_arm_v1.18.1\src/u8g_pbxh24.c ****     case U8G_DEV_MSG_SET_8PIXEL:
 240:u8glib_arm_v1.18.1\src/u8g_pbxh24.c ****       if ( u8g_pb_Is8PixelVisible(pb, (u8g_dev_arg_pixel_t *)arg) )
 779              		.loc 1 240 0
 780 0124 7869     		ldr	r0, [r7, #20]
 781 0126 3968     		ldr	r1, [r7]
 782 0128 FFF7FEFF 		bl	u8g_pb_Is8PixelVisible
 783 012c 0346     		mov	r3, r0
 784 012e 002B     		cmp	r3, #0
 785 0130 04D0     		beq	.L53
 241:u8glib_arm_v1.18.1\src/u8g_pbxh24.c ****         u8g_pbxh24_Set8Pixel(pb, (u8g_dev_arg_pixel_t *)arg);
ARM GAS  C:\Users\KJA\AppData\Local\Temp\ccQNhiOM.s 			page 19


 786              		.loc 1 241 0
 787 0132 7869     		ldr	r0, [r7, #20]
 788 0134 3968     		ldr	r1, [r7]
 789 0136 FFF7FEFF 		bl	u8g_pbxh24_Set8Pixel
 242:u8glib_arm_v1.18.1\src/u8g_pbxh24.c ****       break;
 790              		.loc 1 242 0
 791 013a 3CE0     		b	.L37
 792              	.L53:
 793 013c 3BE0     		b	.L37
 794              	.L46:
 243:u8glib_arm_v1.18.1\src/u8g_pbxh24.c ****     case U8G_DEV_MSG_SET_PIXEL:
 244:u8glib_arm_v1.18.1\src/u8g_pbxh24.c ****       u8g_pbxh24_SetTPixel(pb, (u8g_dev_arg_pixel_t *)arg, 4);
 795              		.loc 1 244 0
 796 013e 7869     		ldr	r0, [r7, #20]
 797 0140 3968     		ldr	r1, [r7]
 798 0142 0422     		movs	r2, #4
 799 0144 FFF7FEFF 		bl	u8g_pbxh24_SetTPixel
 245:u8glib_arm_v1.18.1\src/u8g_pbxh24.c ****       break;
 800              		.loc 1 245 0
 801 0148 35E0     		b	.L37
 802              	.L45:
 246:u8glib_arm_v1.18.1\src/u8g_pbxh24.c ****     case U8G_DEV_MSG_SET_4TPIXEL:
 247:u8glib_arm_v1.18.1\src/u8g_pbxh24.c ****       u8g_pbxh24_Set4TPixel(pb, (u8g_dev_arg_pixel_t *)arg);
 803              		.loc 1 247 0
 804 014a 7869     		ldr	r0, [r7, #20]
 805 014c 3968     		ldr	r1, [r7]
 806 014e FFF7FEFF 		bl	u8g_pbxh24_Set4TPixel
 248:u8glib_arm_v1.18.1\src/u8g_pbxh24.c ****       break;
 807              		.loc 1 248 0
 808 0152 30E0     		b	.L37
 809              	.L44:
 249:u8glib_arm_v1.18.1\src/u8g_pbxh24.c ****     case U8G_DEV_MSG_SET_TPIXEL:
 250:u8glib_arm_v1.18.1\src/u8g_pbxh24.c ****       u8g_pbxh24_SetTPixel(pb, (u8g_dev_arg_pixel_t *)arg, ((u8g_dev_arg_pixel_t *)arg)->pixel&3);
 810              		.loc 1 250 0
 811 0154 3B68     		ldr	r3, [r7]
 812 0156 9B78     		ldrb	r3, [r3, #2]	@ zero_extendqisi2
 813 0158 03F00303 		and	r3, r3, #3
 814 015c DBB2     		uxtb	r3, r3
 815 015e 7869     		ldr	r0, [r7, #20]
 816 0160 3968     		ldr	r1, [r7]
 817 0162 1A46     		mov	r2, r3
 818 0164 FFF7FEFF 		bl	u8g_pbxh24_SetTPixel
 251:u8glib_arm_v1.18.1\src/u8g_pbxh24.c ****       break;
 819              		.loc 1 251 0
 820 0168 25E0     		b	.L37
 821              	.L41:
 252:u8glib_arm_v1.18.1\src/u8g_pbxh24.c ****     case U8G_DEV_MSG_INIT:
 253:u8glib_arm_v1.18.1\src/u8g_pbxh24.c ****       break;
 254:u8glib_arm_v1.18.1\src/u8g_pbxh24.c ****     case U8G_DEV_MSG_STOP:
 255:u8glib_arm_v1.18.1\src/u8g_pbxh24.c ****       break;
 256:u8glib_arm_v1.18.1\src/u8g_pbxh24.c ****     case U8G_DEV_MSG_PAGE_FIRST:
 257:u8glib_arm_v1.18.1\src/u8g_pbxh24.c ****       u8g_pbxh24_Clear(pb);
 822              		.loc 1 257 0
 823 016a 7869     		ldr	r0, [r7, #20]
 824 016c FFF7FEFF 		bl	u8g_pbxh24_Clear
 258:u8glib_arm_v1.18.1\src/u8g_pbxh24.c ****       u8g_page_First(&(pb->p));
 825              		.loc 1 258 0
ARM GAS  C:\Users\KJA\AppData\Local\Temp\ccQNhiOM.s 			page 20


 826 0170 7B69     		ldr	r3, [r7, #20]
 827 0172 1846     		mov	r0, r3
 828 0174 FFF7FEFF 		bl	u8g_page_First
 259:u8glib_arm_v1.18.1\src/u8g_pbxh24.c ****       break;
 829              		.loc 1 259 0
 830 0178 1DE0     		b	.L37
 831              	.L42:
 260:u8glib_arm_v1.18.1\src/u8g_pbxh24.c ****     case U8G_DEV_MSG_PAGE_NEXT:
 261:u8glib_arm_v1.18.1\src/u8g_pbxh24.c ****       if ( u8g_page_Next(&(pb->p)) == 0 )
 832              		.loc 1 261 0
 833 017a 7B69     		ldr	r3, [r7, #20]
 834 017c 1846     		mov	r0, r3
 835 017e FFF7FEFF 		bl	u8g_page_Next
 836 0182 0346     		mov	r3, r0
 837 0184 002B     		cmp	r3, #0
 838 0186 01D1     		bne	.L54
 262:u8glib_arm_v1.18.1\src/u8g_pbxh24.c ****         return 0;
 839              		.loc 1 262 0
 840 0188 0023     		movs	r3, #0
 841 018a 15E0     		b	.L55
 842              	.L54:
 263:u8glib_arm_v1.18.1\src/u8g_pbxh24.c ****       u8g_pbxh24_Clear(pb);
 843              		.loc 1 263 0
 844 018c 7869     		ldr	r0, [r7, #20]
 845 018e FFF7FEFF 		bl	u8g_pbxh24_Clear
 264:u8glib_arm_v1.18.1\src/u8g_pbxh24.c ****       break;
 846              		.loc 1 264 0
 847 0192 10E0     		b	.L37
 848              	.L43:
 265:u8glib_arm_v1.18.1\src/u8g_pbxh24.c **** #ifdef U8G_DEV_MSG_IS_BBX_INTERSECTION
 266:u8glib_arm_v1.18.1\src/u8g_pbxh24.c ****     case U8G_DEV_MSG_IS_BBX_INTERSECTION:
 267:u8glib_arm_v1.18.1\src/u8g_pbxh24.c ****       return u8g_pb_IsIntersection(pb, (u8g_dev_arg_bbx_t *)arg);
 268:u8glib_arm_v1.18.1\src/u8g_pbxh24.c **** #endif
 269:u8glib_arm_v1.18.1\src/u8g_pbxh24.c ****     case U8G_DEV_MSG_GET_PAGE_BOX:
 270:u8glib_arm_v1.18.1\src/u8g_pbxh24.c ****       u8g_pb_GetPageBox(pb, (u8g_box_t *)arg);
 849              		.loc 1 270 0
 850 0194 7869     		ldr	r0, [r7, #20]
 851 0196 3968     		ldr	r1, [r7]
 852 0198 FFF7FEFF 		bl	u8g_pb_GetPageBox
 271:u8glib_arm_v1.18.1\src/u8g_pbxh24.c ****       break;
 853              		.loc 1 271 0
 854 019c 0BE0     		b	.L37
 855              	.L50:
 272:u8glib_arm_v1.18.1\src/u8g_pbxh24.c ****     case U8G_DEV_MSG_GET_WIDTH:
 273:u8glib_arm_v1.18.1\src/u8g_pbxh24.c ****       *((u8g_uint_t *)arg) = pb->width;
 856              		.loc 1 273 0
 857 019e 7B69     		ldr	r3, [r7, #20]
 858 01a0 5A79     		ldrb	r2, [r3, #5]	@ zero_extendqisi2
 859 01a2 3B68     		ldr	r3, [r7]
 860 01a4 1A70     		strb	r2, [r3]
 274:u8glib_arm_v1.18.1\src/u8g_pbxh24.c ****       break;
 861              		.loc 1 274 0
 862 01a6 06E0     		b	.L37
 863              	.L51:
 275:u8glib_arm_v1.18.1\src/u8g_pbxh24.c ****     case U8G_DEV_MSG_GET_HEIGHT:
 276:u8glib_arm_v1.18.1\src/u8g_pbxh24.c ****       *((u8g_uint_t *)arg) = pb->p.total_height;
 864              		.loc 1 276 0
ARM GAS  C:\Users\KJA\AppData\Local\Temp\ccQNhiOM.s 			page 21


 865 01a8 7B69     		ldr	r3, [r7, #20]
 866 01aa 5A78     		ldrb	r2, [r3, #1]	@ zero_extendqisi2
 867 01ac 3B68     		ldr	r3, [r7]
 868 01ae 1A70     		strb	r2, [r3]
 277:u8glib_arm_v1.18.1\src/u8g_pbxh24.c ****       break;
 869              		.loc 1 277 0
 870 01b0 01E0     		b	.L37
 871              	.L52:
 278:u8glib_arm_v1.18.1\src/u8g_pbxh24.c ****     case U8G_DEV_MSG_SET_COLOR_ENTRY:
 279:u8glib_arm_v1.18.1\src/u8g_pbxh24.c ****       break;
 280:u8glib_arm_v1.18.1\src/u8g_pbxh24.c ****     case U8G_DEV_MSG_SET_XY_CB:
 281:u8glib_arm_v1.18.1\src/u8g_pbxh24.c ****       break;
 282:u8glib_arm_v1.18.1\src/u8g_pbxh24.c ****     case U8G_DEV_MSG_GET_MODE:
 283:u8glib_arm_v1.18.1\src/u8g_pbxh24.c ****       return U8G_MODE_TRUECOLOR;
 872              		.loc 1 283 0
 873 01b2 3823     		movs	r3, #56
 874 01b4 00E0     		b	.L55
 875              	.L37:
 284:u8glib_arm_v1.18.1\src/u8g_pbxh24.c ****   }
 285:u8glib_arm_v1.18.1\src/u8g_pbxh24.c ****   return 1;
 876              		.loc 1 285 0
 877 01b6 0123     		movs	r3, #1
 878              	.L55:
 286:u8glib_arm_v1.18.1\src/u8g_pbxh24.c **** }
 879              		.loc 1 286 0
 880 01b8 1846     		mov	r0, r3
 881 01ba 1837     		adds	r7, r7, #24
 882              		.cfi_def_cfa_offset 8
 883 01bc BD46     		mov	sp, r7
 884              		.cfi_def_cfa_register 13
 885              		@ sp needed
 886 01be 80BD     		pop	{r7, pc}
 887              		.cfi_endproc
 888              	.LFE6:
 889              		.size	u8g_dev_pbxh24_base_fn, .-u8g_dev_pbxh24_base_fn
 890              		.text
 891              	.Letext0:
 892              		.file 2 "c:\\program files (x86)\\cypress\\psoc creator\\4.0\\psoc creator\\import\\gnu\\arm\\4.9.
 893              		.file 3 "c:\\program files (x86)\\cypress\\psoc creator\\4.0\\psoc creator\\import\\gnu\\arm\\4.9.
 894              		.file 4 "u8glib_arm_v1.18.1\\src\\u8g.h"