ARM GAS  C:\Users\Shiguruy\AppData\Local\Temp\cc1cFwkK.s 			page 1


   1              		.syntax unified
   2              		.cpu cortex-m3
   3              		.fpu softvfp
   4              		.eabi_attribute 20, 1
   5              		.eabi_attribute 21, 1
   6              		.eabi_attribute 23, 3
   7              		.eabi_attribute 24, 1
   8              		.eabi_attribute 25, 1
   9              		.eabi_attribute 26, 1
  10              		.eabi_attribute 30, 6
  11              		.eabi_attribute 34, 1
  12              		.eabi_attribute 18, 4
  13              		.thumb
  14              		.file	"u8g_dev_ht1632.c"
  15              		.text
  16              	.Ltext0:
  17              		.cfi_sections	.debug_frame
  18              		.section	.text.ht1632_init,"ax",%progbits
  19              		.align	2
  20              		.global	ht1632_init
  21              		.thumb
  22              		.thumb_func
  23              		.type	ht1632_init, %function
  24              	ht1632_init:
  25              	.LFB0:
  26              		.file 1 ".\\u8glib_arm_v1.18.1\\src\\u8g_dev_ht1632.c"
   1:.\u8glib_arm_v1.18.1\src/u8g_dev_ht1632.c **** /*
   2:.\u8glib_arm_v1.18.1\src/u8g_dev_ht1632.c ****  
   3:.\u8glib_arm_v1.18.1\src/u8g_dev_ht1632.c ****   u8g_dev_ht1632.c
   4:.\u8glib_arm_v1.18.1\src/u8g_dev_ht1632.c ****  
   5:.\u8glib_arm_v1.18.1\src/u8g_dev_ht1632.c ****   1-Bit (BW) Driver for HT1632 controller
   6:.\u8glib_arm_v1.18.1\src/u8g_dev_ht1632.c ****  
   7:.\u8glib_arm_v1.18.1\src/u8g_dev_ht1632.c ****   Universal 8bit Graphics Library
   8:.\u8glib_arm_v1.18.1\src/u8g_dev_ht1632.c ****  
   9:.\u8glib_arm_v1.18.1\src/u8g_dev_ht1632.c ****   Copyright (c) 2013, olikraus@gmail.com
  10:.\u8glib_arm_v1.18.1\src/u8g_dev_ht1632.c ****   All rights reserved.
  11:.\u8glib_arm_v1.18.1\src/u8g_dev_ht1632.c ****  
  12:.\u8glib_arm_v1.18.1\src/u8g_dev_ht1632.c ****   Redistribution and use in source and binary forms, with or without modification,
  13:.\u8glib_arm_v1.18.1\src/u8g_dev_ht1632.c ****   are permitted provided that the following conditions are met:
  14:.\u8glib_arm_v1.18.1\src/u8g_dev_ht1632.c ****  
  15:.\u8glib_arm_v1.18.1\src/u8g_dev_ht1632.c ****   * Redistributions of source code must retain the above copyright notice, this list
  16:.\u8glib_arm_v1.18.1\src/u8g_dev_ht1632.c ****     of conditions and the following disclaimer.
  17:.\u8glib_arm_v1.18.1\src/u8g_dev_ht1632.c ****    
  18:.\u8glib_arm_v1.18.1\src/u8g_dev_ht1632.c ****   * Redistributions in binary form must reproduce the above copyright notice, this
  19:.\u8glib_arm_v1.18.1\src/u8g_dev_ht1632.c ****     list of conditions and the following disclaimer in the documentation and/or other
  20:.\u8glib_arm_v1.18.1\src/u8g_dev_ht1632.c ****     materials provided with the distribution.
  21:.\u8glib_arm_v1.18.1\src/u8g_dev_ht1632.c ****  
  22:.\u8glib_arm_v1.18.1\src/u8g_dev_ht1632.c ****   THIS SOFTWARE IS PROVIDED BY THE COPYRIGHT HOLDERS AND
  23:.\u8glib_arm_v1.18.1\src/u8g_dev_ht1632.c ****   CONTRIBUTORS "AS IS" AND ANY EXPRESS OR IMPLIED WARRANTIES,
  24:.\u8glib_arm_v1.18.1\src/u8g_dev_ht1632.c ****   INCLUDING, BUT NOT LIMITED TO, THE IMPLIED WARRANTIES OF
  25:.\u8glib_arm_v1.18.1\src/u8g_dev_ht1632.c ****   MERCHANTABILITY AND FITNESS FOR A PARTICULAR PURPOSE ARE
  26:.\u8glib_arm_v1.18.1\src/u8g_dev_ht1632.c ****   DISCLAIMED. IN NO EVENT SHALL THE COPYRIGHT HOLDER OR
  27:.\u8glib_arm_v1.18.1\src/u8g_dev_ht1632.c ****   CONTRIBUTORS BE LIABLE FOR ANY DIRECT, INDIRECT, INCIDENTAL,
  28:.\u8glib_arm_v1.18.1\src/u8g_dev_ht1632.c ****   SPECIAL, EXEMPLARY, OR CONSEQUENTIAL DAMAGES (INCLUDING, BUT
  29:.\u8glib_arm_v1.18.1\src/u8g_dev_ht1632.c ****   NOT LIMITED TO, PROCUREMENT OF SUBSTITUTE GOODS OR SERVICES;
  30:.\u8glib_arm_v1.18.1\src/u8g_dev_ht1632.c ****   LOSS OF USE, DATA, OR PROFITS; OR BUSINESS INTERRUPTION) HOWEVER
  31:.\u8glib_arm_v1.18.1\src/u8g_dev_ht1632.c ****   CAUSED AND ON ANY THEORY OF LIABILITY, WHETHER IN CONTRACT,
ARM GAS  C:\Users\Shiguruy\AppData\Local\Temp\cc1cFwkK.s 			page 2


  32:.\u8glib_arm_v1.18.1\src/u8g_dev_ht1632.c ****   STRICT LIABILITY, OR TORT (INCLUDING NEGLIGENCE OR OTHERWISE)
  33:.\u8glib_arm_v1.18.1\src/u8g_dev_ht1632.c ****   ARISING IN ANY WAY OUT OF THE USE OF THIS SOFTWARE, EVEN IF
  34:.\u8glib_arm_v1.18.1\src/u8g_dev_ht1632.c ****   ADVISED OF THE POSSIBILITY OF SUCH DAMAGE.
  35:.\u8glib_arm_v1.18.1\src/u8g_dev_ht1632.c **** 
  36:.\u8glib_arm_v1.18.1\src/u8g_dev_ht1632.c **** 
  37:.\u8glib_arm_v1.18.1\src/u8g_dev_ht1632.c **** 
  38:.\u8glib_arm_v1.18.1\src/u8g_dev_ht1632.c ****     U8G_PIN_NONE can be used as argument
  39:.\u8glib_arm_v1.18.1\src/u8g_dev_ht1632.c ****    
  40:.\u8glib_arm_v1.18.1\src/u8g_dev_ht1632.c ****     uint8_t u8g_InitSPI(u8g_t *u8g, u8g_dev_t *dev, uint8_t sck, uint8_t mosi, uint8_t cs, uint8_t 
  41:.\u8glib_arm_v1.18.1\src/u8g_dev_ht1632.c ****     {
  42:.\u8glib_arm_v1.18.1\src/u8g_dev_ht1632.c ****       ...      
  43:.\u8glib_arm_v1.18.1\src/u8g_dev_ht1632.c ****       u8g->pin_list[U8G_PI_SCK] = sck;
  44:.\u8glib_arm_v1.18.1\src/u8g_dev_ht1632.c ****       u8g->pin_list[U8G_PI_MOSI] = mosi;
  45:.\u8glib_arm_v1.18.1\src/u8g_dev_ht1632.c ****       u8g->pin_list[U8G_PI_CS] = cs;
  46:.\u8glib_arm_v1.18.1\src/u8g_dev_ht1632.c ****       u8g->pin_list[U8G_PI_A0] = a0;
  47:.\u8glib_arm_v1.18.1\src/u8g_dev_ht1632.c ****       u8g->pin_list[U8G_PI_RESET] = reset;
  48:.\u8glib_arm_v1.18.1\src/u8g_dev_ht1632.c **** 
  49:.\u8glib_arm_v1.18.1\src/u8g_dev_ht1632.c **** mapping  
  50:.\u8glib_arm_v1.18.1\src/u8g_dev_ht1632.c **** 
  51:.\u8glib_arm_v1.18.1\src/u8g_dev_ht1632.c **** #define DATA_PIN --> U8G_PI_MOSI
  52:.\u8glib_arm_v1.18.1\src/u8g_dev_ht1632.c **** #define WR_PIN    --> U8G_PI_SCK
  53:.\u8glib_arm_v1.18.1\src/u8g_dev_ht1632.c **** #define CS_PIN      --> U8G_PI_CS
  54:.\u8glib_arm_v1.18.1\src/u8g_dev_ht1632.c **** 				    U8G_PI_A0 --> not used
  55:.\u8glib_arm_v1.18.1\src/u8g_dev_ht1632.c **** 				    U8G_PI_RESET --> not used
  56:.\u8glib_arm_v1.18.1\src/u8g_dev_ht1632.c **** 
  57:.\u8glib_arm_v1.18.1\src/u8g_dev_ht1632.c **** Usage:
  58:.\u8glib_arm_v1.18.1\src/u8g_dev_ht1632.c **** 
  59:.\u8glib_arm_v1.18.1\src/u8g_dev_ht1632.c ****     u8g_InitSPI(&u8g, &u8g_dev_ht1632_24x16, WR_PIN, DATA_IN, CS_PIN, U8G_PIN_NONE, U8G_PIN_NONE)
  60:.\u8glib_arm_v1.18.1\src/u8g_dev_ht1632.c **** 
  61:.\u8glib_arm_v1.18.1\src/u8g_dev_ht1632.c **** */
  62:.\u8glib_arm_v1.18.1\src/u8g_dev_ht1632.c ****  
  63:.\u8glib_arm_v1.18.1\src/u8g_dev_ht1632.c **** #include "u8g.h"
  64:.\u8glib_arm_v1.18.1\src/u8g_dev_ht1632.c ****  
  65:.\u8glib_arm_v1.18.1\src/u8g_dev_ht1632.c **** #define WIDTH 24
  66:.\u8glib_arm_v1.18.1\src/u8g_dev_ht1632.c **** #define HEIGHT 16
  67:.\u8glib_arm_v1.18.1\src/u8g_dev_ht1632.c **** #define PAGE_HEIGHT 16
  68:.\u8glib_arm_v1.18.1\src/u8g_dev_ht1632.c ****  
  69:.\u8glib_arm_v1.18.1\src/u8g_dev_ht1632.c **** /* http://forum.arduino.cc/index.php?topic=168537.0 */
  70:.\u8glib_arm_v1.18.1\src/u8g_dev_ht1632.c ****  
  71:.\u8glib_arm_v1.18.1\src/u8g_dev_ht1632.c **** #define HT1632_CMD_SYSDIS       0x00    // CMD= 0000-0000-x Turn off oscil
  72:.\u8glib_arm_v1.18.1\src/u8g_dev_ht1632.c **** #define HT1632_CMD_SYSON        0x01    // CMD= 0000-0001-x Enable system oscil
  73:.\u8glib_arm_v1.18.1\src/u8g_dev_ht1632.c **** #define HT1632_CMD_LEDOFF       0x02    // CMD= 0000-0010-x LED duty cycle gen off
  74:.\u8glib_arm_v1.18.1\src/u8g_dev_ht1632.c **** #define HT1632_CMD_LEDON        0x03    // CMD= 0000-0011-x LEDs ON
  75:.\u8glib_arm_v1.18.1\src/u8g_dev_ht1632.c **** #define HT1632_CMD_BLOFF        0x08    // CMD= 0000-1000-x Blink OFF
  76:.\u8glib_arm_v1.18.1\src/u8g_dev_ht1632.c **** #define HT1632_CMD_BLON         0x09    // CMD= 0000-1001-x Blink On
  77:.\u8glib_arm_v1.18.1\src/u8g_dev_ht1632.c **** #define HT1632_CMD_SLVMD        0x10    // CMD= 0001-00xx-x Slave Mode
  78:.\u8glib_arm_v1.18.1\src/u8g_dev_ht1632.c **** #define HT1632_CMD_MSTMD        0x14    // CMD= 0001-01xx-x Master Mode
  79:.\u8glib_arm_v1.18.1\src/u8g_dev_ht1632.c **** #define HT1632_CMD_RCCLK        0x18    // CMD= 0001-10xx-x Use on-chip clock
  80:.\u8glib_arm_v1.18.1\src/u8g_dev_ht1632.c **** #define HT1632_CMD_EXTCLK       0x1C    // CMD= 0001-11xx-x Use external clock
  81:.\u8glib_arm_v1.18.1\src/u8g_dev_ht1632.c **** #define HT1632_CMD_COMS00       0x20    // CMD= 0010-ABxx-x commons options
  82:.\u8glib_arm_v1.18.1\src/u8g_dev_ht1632.c **** #define HT1632_CMD_COMS01       0x24    // CMD= 0010-ABxx-x commons options
  83:.\u8glib_arm_v1.18.1\src/u8g_dev_ht1632.c **** #define HT1632_CMD_COMS10       0x28    // CMD= 0010-ABxx-x commons options
  84:.\u8glib_arm_v1.18.1\src/u8g_dev_ht1632.c **** #define HT1632_CMD_COMS11       0x2C    // P-MOS OUTPUT AND 16COMMON OPTION
  85:.\u8glib_arm_v1.18.1\src/u8g_dev_ht1632.c **** #define HT1632_CMD_PWM          0xA0    // CMD= 101x-PPPP-x PWM duty cycle
  86:.\u8glib_arm_v1.18.1\src/u8g_dev_ht1632.c ****  
  87:.\u8glib_arm_v1.18.1\src/u8g_dev_ht1632.c **** #define HT1632_ID_CMD   4       /* ID = 100 - Commands */
  88:.\u8glib_arm_v1.18.1\src/u8g_dev_ht1632.c **** #define HT1632_ID_RD    6       /* ID = 110 - Read RAM */
ARM GAS  C:\Users\Shiguruy\AppData\Local\Temp\cc1cFwkK.s 			page 3


  89:.\u8glib_arm_v1.18.1\src/u8g_dev_ht1632.c **** #define HT1632_ID_WR    5       /* ID = 101 - Write RAM */
  90:.\u8glib_arm_v1.18.1\src/u8g_dev_ht1632.c ****  
  91:.\u8glib_arm_v1.18.1\src/u8g_dev_ht1632.c **** #define HT1632_ID_LEN           3               // IDs are 3 bits
  92:.\u8glib_arm_v1.18.1\src/u8g_dev_ht1632.c **** #define HT1632_CMD_LEN          8               // CMDs are 8 bits
  93:.\u8glib_arm_v1.18.1\src/u8g_dev_ht1632.c **** #define HT1632_DATA_LEN         8               // Data are 4*2 bits
  94:.\u8glib_arm_v1.18.1\src/u8g_dev_ht1632.c **** #define HT1632_ADDR_LEN         7               // Address are 7 bits
  95:.\u8glib_arm_v1.18.1\src/u8g_dev_ht1632.c ****  
  96:.\u8glib_arm_v1.18.1\src/u8g_dev_ht1632.c **** #if defined(ARDUINO)
  97:.\u8glib_arm_v1.18.1\src/u8g_dev_ht1632.c ****  
  98:.\u8glib_arm_v1.18.1\src/u8g_dev_ht1632.c **** #if ARDUINO < 100
  99:.\u8glib_arm_v1.18.1\src/u8g_dev_ht1632.c **** #include <WProgram.h>
 100:.\u8glib_arm_v1.18.1\src/u8g_dev_ht1632.c **** #else
 101:.\u8glib_arm_v1.18.1\src/u8g_dev_ht1632.c **** #include <Arduino.h>
 102:.\u8glib_arm_v1.18.1\src/u8g_dev_ht1632.c **** #endif
 103:.\u8glib_arm_v1.18.1\src/u8g_dev_ht1632.c ****  
 104:.\u8glib_arm_v1.18.1\src/u8g_dev_ht1632.c **** //#define WR_PIN 3
 105:.\u8glib_arm_v1.18.1\src/u8g_dev_ht1632.c **** //#define DATA_PIN 2
 106:.\u8glib_arm_v1.18.1\src/u8g_dev_ht1632.c **** //#define CS_PIN 4
 107:.\u8glib_arm_v1.18.1\src/u8g_dev_ht1632.c ****  
 108:.\u8glib_arm_v1.18.1\src/u8g_dev_ht1632.c **** void ht1632_write_data_MSB(u8g_t *u8g, uint8_t cnt, uint8_t data, uint8_t extra)
 109:.\u8glib_arm_v1.18.1\src/u8g_dev_ht1632.c **** {
 110:.\u8glib_arm_v1.18.1\src/u8g_dev_ht1632.c ****   int8_t i;
 111:.\u8glib_arm_v1.18.1\src/u8g_dev_ht1632.c ****   uint8_t data_pin = u8g->pin_list[U8G_PI_MOSI];
 112:.\u8glib_arm_v1.18.1\src/u8g_dev_ht1632.c ****   uint8_t wr_pin = u8g->pin_list[U8G_PI_SCK];
 113:.\u8glib_arm_v1.18.1\src/u8g_dev_ht1632.c ****  
 114:.\u8glib_arm_v1.18.1\src/u8g_dev_ht1632.c ****   for(i = cnt - 1; i >= 0; i--)
 115:.\u8glib_arm_v1.18.1\src/u8g_dev_ht1632.c ****   {
 116:.\u8glib_arm_v1.18.1\src/u8g_dev_ht1632.c ****     if ((data >> i) & 1)
 117:.\u8glib_arm_v1.18.1\src/u8g_dev_ht1632.c ****     {  
 118:.\u8glib_arm_v1.18.1\src/u8g_dev_ht1632.c ****       digitalWrite(data_pin, HIGH);
 119:.\u8glib_arm_v1.18.1\src/u8g_dev_ht1632.c ****     }
 120:.\u8glib_arm_v1.18.1\src/u8g_dev_ht1632.c ****     else
 121:.\u8glib_arm_v1.18.1\src/u8g_dev_ht1632.c ****     {
 122:.\u8glib_arm_v1.18.1\src/u8g_dev_ht1632.c ****       digitalWrite(data_pin, LOW);
 123:.\u8glib_arm_v1.18.1\src/u8g_dev_ht1632.c ****     }
 124:.\u8glib_arm_v1.18.1\src/u8g_dev_ht1632.c ****  
 125:.\u8glib_arm_v1.18.1\src/u8g_dev_ht1632.c ****     digitalWrite(wr_pin, LOW);
 126:.\u8glib_arm_v1.18.1\src/u8g_dev_ht1632.c ****     u8g_MicroDelay();
 127:.\u8glib_arm_v1.18.1\src/u8g_dev_ht1632.c ****     digitalWrite(wr_pin, HIGH);
 128:.\u8glib_arm_v1.18.1\src/u8g_dev_ht1632.c ****     u8g_MicroDelay();
 129:.\u8glib_arm_v1.18.1\src/u8g_dev_ht1632.c ****   }
 130:.\u8glib_arm_v1.18.1\src/u8g_dev_ht1632.c ****  
 131:.\u8glib_arm_v1.18.1\src/u8g_dev_ht1632.c ****   // Send an extra bit
 132:.\u8glib_arm_v1.18.1\src/u8g_dev_ht1632.c ****   if (extra)
 133:.\u8glib_arm_v1.18.1\src/u8g_dev_ht1632.c ****   {
 134:.\u8glib_arm_v1.18.1\src/u8g_dev_ht1632.c ****     digitalWrite(data_pin, HIGH);
 135:.\u8glib_arm_v1.18.1\src/u8g_dev_ht1632.c ****     digitalWrite(wr_pin, LOW);
 136:.\u8glib_arm_v1.18.1\src/u8g_dev_ht1632.c ****     u8g_MicroDelay();
 137:.\u8glib_arm_v1.18.1\src/u8g_dev_ht1632.c ****     digitalWrite(wr_pin, HIGH);
 138:.\u8glib_arm_v1.18.1\src/u8g_dev_ht1632.c ****     u8g_MicroDelay();
 139:.\u8glib_arm_v1.18.1\src/u8g_dev_ht1632.c ****   }
 140:.\u8glib_arm_v1.18.1\src/u8g_dev_ht1632.c **** }
 141:.\u8glib_arm_v1.18.1\src/u8g_dev_ht1632.c ****  
 142:.\u8glib_arm_v1.18.1\src/u8g_dev_ht1632.c **** void ht1632_write_data(u8g_t *u8g, uint8_t cnt, uint8_t data)
 143:.\u8glib_arm_v1.18.1\src/u8g_dev_ht1632.c **** {
 144:.\u8glib_arm_v1.18.1\src/u8g_dev_ht1632.c ****   uint8_t i;
 145:.\u8glib_arm_v1.18.1\src/u8g_dev_ht1632.c ****   uint8_t data_pin = u8g->pin_list[U8G_PI_MOSI];
ARM GAS  C:\Users\Shiguruy\AppData\Local\Temp\cc1cFwkK.s 			page 4


 146:.\u8glib_arm_v1.18.1\src/u8g_dev_ht1632.c ****   uint8_t wr_pin = u8g->pin_list[U8G_PI_SCK];
 147:.\u8glib_arm_v1.18.1\src/u8g_dev_ht1632.c ****   for (i = 0; i < cnt; i++)
 148:.\u8glib_arm_v1.18.1\src/u8g_dev_ht1632.c ****   {
 149:.\u8glib_arm_v1.18.1\src/u8g_dev_ht1632.c ****  
 150:.\u8glib_arm_v1.18.1\src/u8g_dev_ht1632.c ****     if ((data >> i) & 1) {
 151:.\u8glib_arm_v1.18.1\src/u8g_dev_ht1632.c ****       digitalWrite(data_pin, HIGH);
 152:.\u8glib_arm_v1.18.1\src/u8g_dev_ht1632.c ****     }
 153:.\u8glib_arm_v1.18.1\src/u8g_dev_ht1632.c ****     else {
 154:.\u8glib_arm_v1.18.1\src/u8g_dev_ht1632.c ****       digitalWrite(data_pin, LOW);
 155:.\u8glib_arm_v1.18.1\src/u8g_dev_ht1632.c ****     }
 156:.\u8glib_arm_v1.18.1\src/u8g_dev_ht1632.c ****  
 157:.\u8glib_arm_v1.18.1\src/u8g_dev_ht1632.c ****     digitalWrite(wr_pin, LOW);
 158:.\u8glib_arm_v1.18.1\src/u8g_dev_ht1632.c ****     u8g_MicroDelay();
 159:.\u8glib_arm_v1.18.1\src/u8g_dev_ht1632.c ****     digitalWrite(wr_pin, HIGH);
 160:.\u8glib_arm_v1.18.1\src/u8g_dev_ht1632.c ****     u8g_MicroDelay();
 161:.\u8glib_arm_v1.18.1\src/u8g_dev_ht1632.c ****   }
 162:.\u8glib_arm_v1.18.1\src/u8g_dev_ht1632.c **** }
 163:.\u8glib_arm_v1.18.1\src/u8g_dev_ht1632.c ****  
 164:.\u8glib_arm_v1.18.1\src/u8g_dev_ht1632.c ****  
 165:.\u8glib_arm_v1.18.1\src/u8g_dev_ht1632.c **** void ht1632_init(u8g_t *u8g)
 166:.\u8glib_arm_v1.18.1\src/u8g_dev_ht1632.c **** {
 167:.\u8glib_arm_v1.18.1\src/u8g_dev_ht1632.c ****   //uint8_t i;
 168:.\u8glib_arm_v1.18.1\src/u8g_dev_ht1632.c ****   uint8_t data_pin = u8g->pin_list[U8G_PI_MOSI];
 169:.\u8glib_arm_v1.18.1\src/u8g_dev_ht1632.c ****   uint8_t wr_pin = u8g->pin_list[U8G_PI_SCK];
 170:.\u8glib_arm_v1.18.1\src/u8g_dev_ht1632.c ****   uint8_t cs_pin = u8g->pin_list[U8G_PI_CS];
 171:.\u8glib_arm_v1.18.1\src/u8g_dev_ht1632.c ****   pinMode(data_pin, OUTPUT);
 172:.\u8glib_arm_v1.18.1\src/u8g_dev_ht1632.c ****   pinMode(wr_pin, OUTPUT);
 173:.\u8glib_arm_v1.18.1\src/u8g_dev_ht1632.c ****   pinMode(cs_pin, OUTPUT);
 174:.\u8glib_arm_v1.18.1\src/u8g_dev_ht1632.c ****  
 175:.\u8glib_arm_v1.18.1\src/u8g_dev_ht1632.c ****   digitalWrite(data_pin, HIGH);
 176:.\u8glib_arm_v1.18.1\src/u8g_dev_ht1632.c ****   digitalWrite(wr_pin, HIGH);
 177:.\u8glib_arm_v1.18.1\src/u8g_dev_ht1632.c ****   digitalWrite(cs_pin, HIGH);
 178:.\u8glib_arm_v1.18.1\src/u8g_dev_ht1632.c ****  
 179:.\u8glib_arm_v1.18.1\src/u8g_dev_ht1632.c ****   digitalWrite(cs_pin, LOW);
 180:.\u8glib_arm_v1.18.1\src/u8g_dev_ht1632.c ****   /* init display once after startup */
 181:.\u8glib_arm_v1.18.1\src/u8g_dev_ht1632.c ****   ht1632_write_data_MSB(u8g, 3, HT1632_ID_CMD, false); // IDs are 3 bits
 182:.\u8glib_arm_v1.18.1\src/u8g_dev_ht1632.c ****   ht1632_write_data_MSB(u8g, 8, HT1632_CMD_SYSDIS, true); // 8 bits
 183:.\u8glib_arm_v1.18.1\src/u8g_dev_ht1632.c ****   ht1632_write_data_MSB(u8g, 8, HT1632_CMD_SYSON, true); // 8 bits
 184:.\u8glib_arm_v1.18.1\src/u8g_dev_ht1632.c ****   ht1632_write_data_MSB(u8g, 8, HT1632_CMD_COMS11, true); // 8 bits
 185:.\u8glib_arm_v1.18.1\src/u8g_dev_ht1632.c ****   ht1632_write_data_MSB(u8g, 8, HT1632_CMD_LEDON, true); // 8 bits
 186:.\u8glib_arm_v1.18.1\src/u8g_dev_ht1632.c ****   ht1632_write_data_MSB(u8g, 8, HT1632_CMD_BLOFF, true); // 8 bits
 187:.\u8glib_arm_v1.18.1\src/u8g_dev_ht1632.c ****   ht1632_write_data_MSB(u8g, 8, HT1632_CMD_PWM+15, true); // 8 bits  
 188:.\u8glib_arm_v1.18.1\src/u8g_dev_ht1632.c ****   digitalWrite(cs_pin, HIGH);
 189:.\u8glib_arm_v1.18.1\src/u8g_dev_ht1632.c ****  
 190:.\u8glib_arm_v1.18.1\src/u8g_dev_ht1632.c ****   /* removed following (debug) code */
 191:.\u8glib_arm_v1.18.1\src/u8g_dev_ht1632.c ****   /*
 192:.\u8glib_arm_v1.18.1\src/u8g_dev_ht1632.c ****   digitalWrite(cs_pin, LOW);
 193:.\u8glib_arm_v1.18.1\src/u8g_dev_ht1632.c ****   ht1632_write_data_MSB(u8g, 3, HT1632_ID_WR, false); // Send "write to display" command
 194:.\u8glib_arm_v1.18.1\src/u8g_dev_ht1632.c ****   ht1632_write_data_MSB(u8g, 7, 0, false);
 195:.\u8glib_arm_v1.18.1\src/u8g_dev_ht1632.c ****   for(i = 0; i<48; ++i)
 196:.\u8glib_arm_v1.18.1\src/u8g_dev_ht1632.c ****   {
 197:.\u8glib_arm_v1.18.1\src/u8g_dev_ht1632.c ****     ht1632_write_data(u8g, 8, 0xFF);
 198:.\u8glib_arm_v1.18.1\src/u8g_dev_ht1632.c ****   }
 199:.\u8glib_arm_v1.18.1\src/u8g_dev_ht1632.c ****   digitalWrite(cs_pin, HIGH);
 200:.\u8glib_arm_v1.18.1\src/u8g_dev_ht1632.c ****   */
 201:.\u8glib_arm_v1.18.1\src/u8g_dev_ht1632.c **** }
 202:.\u8glib_arm_v1.18.1\src/u8g_dev_ht1632.c ****  
ARM GAS  C:\Users\Shiguruy\AppData\Local\Temp\cc1cFwkK.s 			page 5


 203:.\u8glib_arm_v1.18.1\src/u8g_dev_ht1632.c **** /*
 204:.\u8glib_arm_v1.18.1\src/u8g_dev_ht1632.c ****   page: 0=data contain lines 0..16, 1=data contain lines 16..32  (a 24x16 display will only have pa
 205:.\u8glib_arm_v1.18.1\src/u8g_dev_ht1632.c ****   cnt: width of the display
 206:.\u8glib_arm_v1.18.1\src/u8g_dev_ht1632.c ****   data: pointer to a buffer with 2*cnt bytes.
 207:.\u8glib_arm_v1.18.1\src/u8g_dev_ht1632.c **** */
 208:.\u8glib_arm_v1.18.1\src/u8g_dev_ht1632.c **** void ht1632_transfer_data(u8g_t *u8g, uint8_t page, uint8_t cnt, uint8_t *data)
 209:.\u8glib_arm_v1.18.1\src/u8g_dev_ht1632.c **** {
 210:.\u8glib_arm_v1.18.1\src/u8g_dev_ht1632.c ****   uint8_t addr;
 211:.\u8glib_arm_v1.18.1\src/u8g_dev_ht1632.c ****   uint8_t cs_pin = u8g->pin_list[U8G_PI_CS];
 212:.\u8glib_arm_v1.18.1\src/u8g_dev_ht1632.c ****   /* send data to the ht1632 */
 213:.\u8glib_arm_v1.18.1\src/u8g_dev_ht1632.c ****   digitalWrite(cs_pin, LOW);
 214:.\u8glib_arm_v1.18.1\src/u8g_dev_ht1632.c ****   ht1632_write_data_MSB(u8g, 3, HT1632_ID_WR, false); // Send "write to display" command
 215:.\u8glib_arm_v1.18.1\src/u8g_dev_ht1632.c ****   ht1632_write_data_MSB(u8g, 7, page*2*cnt, false); 
 216:.\u8glib_arm_v1.18.1\src/u8g_dev_ht1632.c ****   
 217:.\u8glib_arm_v1.18.1\src/u8g_dev_ht1632.c ****   // Operating in progressive addressing mode
 218:.\u8glib_arm_v1.18.1\src/u8g_dev_ht1632.c ****   for (addr = 0; addr < cnt; addr++)
 219:.\u8glib_arm_v1.18.1\src/u8g_dev_ht1632.c ****   {
 220:.\u8glib_arm_v1.18.1\src/u8g_dev_ht1632.c ****     ht1632_write_data(u8g, 8, data[addr]);  
 221:.\u8glib_arm_v1.18.1\src/u8g_dev_ht1632.c ****     ht1632_write_data(u8g, 8, data[addr+cnt]);
 222:.\u8glib_arm_v1.18.1\src/u8g_dev_ht1632.c ****   }  
 223:.\u8glib_arm_v1.18.1\src/u8g_dev_ht1632.c ****   digitalWrite(cs_pin, HIGH);
 224:.\u8glib_arm_v1.18.1\src/u8g_dev_ht1632.c **** }
 225:.\u8glib_arm_v1.18.1\src/u8g_dev_ht1632.c **** 
 226:.\u8glib_arm_v1.18.1\src/u8g_dev_ht1632.c **** /* value is between 0...15 */
 227:.\u8glib_arm_v1.18.1\src/u8g_dev_ht1632.c **** void ht1632_set_contrast(u8g_t *u8g, uint8_t value)
 228:.\u8glib_arm_v1.18.1\src/u8g_dev_ht1632.c **** {
 229:.\u8glib_arm_v1.18.1\src/u8g_dev_ht1632.c ****   uint8_t cs_pin = u8g->pin_list[U8G_PI_CS];
 230:.\u8glib_arm_v1.18.1\src/u8g_dev_ht1632.c ****   digitalWrite(cs_pin, LOW);
 231:.\u8glib_arm_v1.18.1\src/u8g_dev_ht1632.c ****   ht1632_write_data_MSB(u8g, 3, HT1632_ID_CMD, false);
 232:.\u8glib_arm_v1.18.1\src/u8g_dev_ht1632.c ****   ht1632_write_data_MSB(u8g, 8, HT1632_CMD_PWM + value, false);
 233:.\u8glib_arm_v1.18.1\src/u8g_dev_ht1632.c ****   digitalWrite(cs_pin, HIGH);
 234:.\u8glib_arm_v1.18.1\src/u8g_dev_ht1632.c **** }
 235:.\u8glib_arm_v1.18.1\src/u8g_dev_ht1632.c ****  
 236:.\u8glib_arm_v1.18.1\src/u8g_dev_ht1632.c **** #else
 237:.\u8glib_arm_v1.18.1\src/u8g_dev_ht1632.c **** void ht1632_init(u8g_t *u8g)
 238:.\u8glib_arm_v1.18.1\src/u8g_dev_ht1632.c **** {
  27              		.loc 1 238 0
  28              		.cfi_startproc
  29              		@ args = 0, pretend = 0, frame = 8
  30              		@ frame_needed = 1, uses_anonymous_args = 0
  31              		@ link register save eliminated.
  32 0000 80B4     		push	{r7}
  33              		.cfi_def_cfa_offset 4
  34              		.cfi_offset 7, -4
  35 0002 83B0     		sub	sp, sp, #12
  36              		.cfi_def_cfa_offset 16
  37 0004 00AF     		add	r7, sp, #0
  38              		.cfi_def_cfa_register 7
  39 0006 7860     		str	r0, [r7, #4]
 239:.\u8glib_arm_v1.18.1\src/u8g_dev_ht1632.c **** }
  40              		.loc 1 239 0
  41 0008 0C37     		adds	r7, r7, #12
  42              		.cfi_def_cfa_offset 4
  43 000a BD46     		mov	sp, r7
  44              		.cfi_def_cfa_register 13
  45              		@ sp needed
  46 000c 5DF8047B 		ldr	r7, [sp], #4
ARM GAS  C:\Users\Shiguruy\AppData\Local\Temp\cc1cFwkK.s 			page 6


  47              		.cfi_restore 7
  48              		.cfi_def_cfa_offset 0
  49 0010 7047     		bx	lr
  50              		.cfi_endproc
  51              	.LFE0:
  52              		.size	ht1632_init, .-ht1632_init
  53 0012 00BF     		.section	.text.ht1632_transfer_data,"ax",%progbits
  54              		.align	2
  55              		.global	ht1632_transfer_data
  56              		.thumb
  57              		.thumb_func
  58              		.type	ht1632_transfer_data, %function
  59              	ht1632_transfer_data:
  60              	.LFB1:
 240:.\u8glib_arm_v1.18.1\src/u8g_dev_ht1632.c ****  
 241:.\u8glib_arm_v1.18.1\src/u8g_dev_ht1632.c **** void ht1632_transfer_data(u8g_t *u8g, uint8_t page, uint8_t cnt, uint8_t *data)
 242:.\u8glib_arm_v1.18.1\src/u8g_dev_ht1632.c **** {
  61              		.loc 1 242 0
  62              		.cfi_startproc
  63              		@ args = 0, pretend = 0, frame = 16
  64              		@ frame_needed = 1, uses_anonymous_args = 0
  65              		@ link register save eliminated.
  66 0000 80B4     		push	{r7}
  67              		.cfi_def_cfa_offset 4
  68              		.cfi_offset 7, -4
  69 0002 85B0     		sub	sp, sp, #20
  70              		.cfi_def_cfa_offset 24
  71 0004 00AF     		add	r7, sp, #0
  72              		.cfi_def_cfa_register 7
  73 0006 F860     		str	r0, [r7, #12]
  74 0008 7B60     		str	r3, [r7, #4]
  75 000a 0B46     		mov	r3, r1
  76 000c FB72     		strb	r3, [r7, #11]
  77 000e 1346     		mov	r3, r2
  78 0010 BB72     		strb	r3, [r7, #10]
 243:.\u8glib_arm_v1.18.1\src/u8g_dev_ht1632.c **** }
  79              		.loc 1 243 0
  80 0012 1437     		adds	r7, r7, #20
  81              		.cfi_def_cfa_offset 4
  82 0014 BD46     		mov	sp, r7
  83              		.cfi_def_cfa_register 13
  84              		@ sp needed
  85 0016 5DF8047B 		ldr	r7, [sp], #4
  86              		.cfi_restore 7
  87              		.cfi_def_cfa_offset 0
  88 001a 7047     		bx	lr
  89              		.cfi_endproc
  90              	.LFE1:
  91              		.size	ht1632_transfer_data, .-ht1632_transfer_data
  92              		.section	.text.ht1632_set_contrast,"ax",%progbits
  93              		.align	2
  94              		.global	ht1632_set_contrast
  95              		.thumb
  96              		.thumb_func
  97              		.type	ht1632_set_contrast, %function
  98              	ht1632_set_contrast:
  99              	.LFB2:
ARM GAS  C:\Users\Shiguruy\AppData\Local\Temp\cc1cFwkK.s 			page 7


 244:.\u8glib_arm_v1.18.1\src/u8g_dev_ht1632.c **** 
 245:.\u8glib_arm_v1.18.1\src/u8g_dev_ht1632.c **** void ht1632_set_contrast(u8g_t *u8g, uint8_t value)
 246:.\u8glib_arm_v1.18.1\src/u8g_dev_ht1632.c **** {
 100              		.loc 1 246 0
 101              		.cfi_startproc
 102              		@ args = 0, pretend = 0, frame = 8
 103              		@ frame_needed = 1, uses_anonymous_args = 0
 104              		@ link register save eliminated.
 105 0000 80B4     		push	{r7}
 106              		.cfi_def_cfa_offset 4
 107              		.cfi_offset 7, -4
 108 0002 83B0     		sub	sp, sp, #12
 109              		.cfi_def_cfa_offset 16
 110 0004 00AF     		add	r7, sp, #0
 111              		.cfi_def_cfa_register 7
 112 0006 7860     		str	r0, [r7, #4]
 113 0008 0B46     		mov	r3, r1
 114 000a FB70     		strb	r3, [r7, #3]
 247:.\u8glib_arm_v1.18.1\src/u8g_dev_ht1632.c **** }
 115              		.loc 1 247 0
 116 000c 0C37     		adds	r7, r7, #12
 117              		.cfi_def_cfa_offset 4
 118 000e BD46     		mov	sp, r7
 119              		.cfi_def_cfa_register 13
 120              		@ sp needed
 121 0010 5DF8047B 		ldr	r7, [sp], #4
 122              		.cfi_restore 7
 123              		.cfi_def_cfa_offset 0
 124 0014 7047     		bx	lr
 125              		.cfi_endproc
 126              	.LFE2:
 127              		.size	ht1632_set_contrast, .-ht1632_set_contrast
 128 0016 00BF     		.section	.text.u8g_dev_ht1632_24x16_fn,"ax",%progbits
 129              		.align	2
 130              		.global	u8g_dev_ht1632_24x16_fn
 131              		.thumb
 132              		.thumb_func
 133              		.type	u8g_dev_ht1632_24x16_fn, %function
 134              	u8g_dev_ht1632_24x16_fn:
 135              	.LFB3:
 248:.\u8glib_arm_v1.18.1\src/u8g_dev_ht1632.c **** 
 249:.\u8glib_arm_v1.18.1\src/u8g_dev_ht1632.c **** #endif /* ARDUINO */
 250:.\u8glib_arm_v1.18.1\src/u8g_dev_ht1632.c ****  
 251:.\u8glib_arm_v1.18.1\src/u8g_dev_ht1632.c ****  
 252:.\u8glib_arm_v1.18.1\src/u8g_dev_ht1632.c **** uint8_t u8g_dev_ht1632_24x16_fn(u8g_t *u8g, u8g_dev_t *dev, uint8_t msg, void *arg)
 253:.\u8glib_arm_v1.18.1\src/u8g_dev_ht1632.c **** {
 136              		.loc 1 253 0
 137              		.cfi_startproc
 138              		@ args = 0, pretend = 0, frame = 24
 139              		@ frame_needed = 1, uses_anonymous_args = 0
 140 0000 80B5     		push	{r7, lr}
 141              		.cfi_def_cfa_offset 8
 142              		.cfi_offset 7, -8
 143              		.cfi_offset 14, -4
 144 0002 86B0     		sub	sp, sp, #24
 145              		.cfi_def_cfa_offset 32
 146 0004 00AF     		add	r7, sp, #0
ARM GAS  C:\Users\Shiguruy\AppData\Local\Temp\cc1cFwkK.s 			page 8


 147              		.cfi_def_cfa_register 7
 148 0006 F860     		str	r0, [r7, #12]
 149 0008 B960     		str	r1, [r7, #8]
 150 000a 3B60     		str	r3, [r7]
 151 000c 1346     		mov	r3, r2
 152 000e FB71     		strb	r3, [r7, #7]
 254:.\u8glib_arm_v1.18.1\src/u8g_dev_ht1632.c ****   switch(msg)
 153              		.loc 1 254 0
 154 0010 FB79     		ldrb	r3, [r7, #7]	@ zero_extendqisi2
 155 0012 0A3B     		subs	r3, r3, #10
 156 0014 0B2B     		cmp	r3, #11
 157 0016 36D8     		bhi	.L5
 158 0018 01A2     		adr	r2, .L7
 159 001a 52F823F0 		ldr	pc, [r2, r3, lsl #2]
 160 001e 00BF     		.p2align 2
 161              	.L7:
 162 0020 51000000 		.word	.L6+1
 163 0024 87000000 		.word	.L5+1
 164 0028 87000000 		.word	.L5+1
 165 002c 87000000 		.word	.L5+1
 166 0030 87000000 		.word	.L5+1
 167 0034 73000000 		.word	.L9+1
 168 0038 87000000 		.word	.L5+1
 169 003c 87000000 		.word	.L5+1
 170 0040 87000000 		.word	.L5+1
 171 0044 87000000 		.word	.L5+1
 172 0048 87000000 		.word	.L5+1
 173 004c 59000000 		.word	.L10+1
 174              		.p2align 1
 175              	.L6:
 255:.\u8glib_arm_v1.18.1\src/u8g_dev_ht1632.c ****   {
 256:.\u8glib_arm_v1.18.1\src/u8g_dev_ht1632.c ****     case U8G_DEV_MSG_INIT:
 257:.\u8glib_arm_v1.18.1\src/u8g_dev_ht1632.c ****       ht1632_init(u8g);
 176              		.loc 1 257 0
 177 0050 F868     		ldr	r0, [r7, #12]
 178 0052 FFF7FEFF 		bl	ht1632_init
 258:.\u8glib_arm_v1.18.1\src/u8g_dev_ht1632.c ****       break;
 179              		.loc 1 258 0
 180 0056 16E0     		b	.L5
 181              	.L10:
 182              	.LBB2:
 259:.\u8glib_arm_v1.18.1\src/u8g_dev_ht1632.c ****     case U8G_DEV_MSG_STOP:
 260:.\u8glib_arm_v1.18.1\src/u8g_dev_ht1632.c ****       break;
 261:.\u8glib_arm_v1.18.1\src/u8g_dev_ht1632.c ****     case U8G_DEV_MSG_PAGE_NEXT:
 262:.\u8glib_arm_v1.18.1\src/u8g_dev_ht1632.c ****       {
 263:.\u8glib_arm_v1.18.1\src/u8g_dev_ht1632.c **** 	u8g_pb_t *pb = (u8g_pb_t *)(dev->dev_mem);
 183              		.loc 1 263 0
 184 0058 BB68     		ldr	r3, [r7, #8]
 185 005a 5B68     		ldr	r3, [r3, #4]
 186 005c 7B61     		str	r3, [r7, #20]
 264:.\u8glib_arm_v1.18.1\src/u8g_dev_ht1632.c ****        
 265:.\u8glib_arm_v1.18.1\src/u8g_dev_ht1632.c **** 	/* current page: pb->p.page */
 266:.\u8glib_arm_v1.18.1\src/u8g_dev_ht1632.c **** 	/* ptr to the buffer: pb->buf */
 267:.\u8glib_arm_v1.18.1\src/u8g_dev_ht1632.c **** 	ht1632_transfer_data(u8g, pb->p.page, WIDTH, pb->buf);
 187              		.loc 1 267 0
 188 005e 7B69     		ldr	r3, [r7, #20]
 189 0060 1A79     		ldrb	r2, [r3, #4]	@ zero_extendqisi2
ARM GAS  C:\Users\Shiguruy\AppData\Local\Temp\cc1cFwkK.s 			page 9


 190 0062 7B69     		ldr	r3, [r7, #20]
 191 0064 9B68     		ldr	r3, [r3, #8]
 192 0066 F868     		ldr	r0, [r7, #12]
 193 0068 1146     		mov	r1, r2
 194 006a 1822     		movs	r2, #24
 195 006c FFF7FEFF 		bl	ht1632_transfer_data
 196              	.LBE2:
 268:.\u8glib_arm_v1.18.1\src/u8g_dev_ht1632.c ****       }
 269:.\u8glib_arm_v1.18.1\src/u8g_dev_ht1632.c ****       break;
 197              		.loc 1 269 0
 198 0070 09E0     		b	.L5
 199              	.L9:
 270:.\u8glib_arm_v1.18.1\src/u8g_dev_ht1632.c ****     case U8G_DEV_MSG_CONTRAST:
 271:.\u8glib_arm_v1.18.1\src/u8g_dev_ht1632.c ****       /* values passed to SetContrast() are between 0 and 255, scale down to 0...15 */
 272:.\u8glib_arm_v1.18.1\src/u8g_dev_ht1632.c ****       ht1632_set_contrast(u8g, (*(uint8_t *)arg) >> 4);
 200              		.loc 1 272 0
 201 0072 3B68     		ldr	r3, [r7]
 202 0074 1B78     		ldrb	r3, [r3]	@ zero_extendqisi2
 203 0076 1B09     		lsrs	r3, r3, #4
 204 0078 DBB2     		uxtb	r3, r3
 205 007a F868     		ldr	r0, [r7, #12]
 206 007c 1946     		mov	r1, r3
 207 007e FFF7FEFF 		bl	ht1632_set_contrast
 273:.\u8glib_arm_v1.18.1\src/u8g_dev_ht1632.c ****     return 1;
 208              		.loc 1 273 0
 209 0082 0123     		movs	r3, #1
 210 0084 07E0     		b	.L11
 211              	.L5:
 274:.\u8glib_arm_v1.18.1\src/u8g_dev_ht1632.c ****   }
 275:.\u8glib_arm_v1.18.1\src/u8g_dev_ht1632.c ****   return u8g_dev_pb16v1_base_fn(u8g, dev, msg, arg);
 212              		.loc 1 275 0
 213 0086 FB79     		ldrb	r3, [r7, #7]	@ zero_extendqisi2
 214 0088 F868     		ldr	r0, [r7, #12]
 215 008a B968     		ldr	r1, [r7, #8]
 216 008c 1A46     		mov	r2, r3
 217 008e 3B68     		ldr	r3, [r7]
 218 0090 FFF7FEFF 		bl	u8g_dev_pb16v1_base_fn
 219 0094 0346     		mov	r3, r0
 220              	.L11:
 276:.\u8glib_arm_v1.18.1\src/u8g_dev_ht1632.c **** }
 221              		.loc 1 276 0
 222 0096 1846     		mov	r0, r3
 223 0098 1837     		adds	r7, r7, #24
 224              		.cfi_def_cfa_offset 8
 225 009a BD46     		mov	sp, r7
 226              		.cfi_def_cfa_register 13
 227              		@ sp needed
 228 009c 80BD     		pop	{r7, pc}
 229              		.cfi_endproc
 230              	.LFE3:
 231              		.size	u8g_dev_ht1632_24x16_fn, .-u8g_dev_ht1632_24x16_fn
 232              		.global	u8g_dev_ht1632_24x16_buf
 233 009e 00BF     		.bss
 234              		.align	2
 235              		.type	u8g_dev_ht1632_24x16_buf, %object
 236              		.size	u8g_dev_ht1632_24x16_buf, 48
 237              	u8g_dev_ht1632_24x16_buf:
ARM GAS  C:\Users\Shiguruy\AppData\Local\Temp\cc1cFwkK.s 			page 10


 238 0000 00000000 		.space	48
 238      00000000 
 238      00000000 
 238      00000000 
 238      00000000 
 239              		.global	u8g_dev_ht1632_24x16_pb
 240              		.data
 241              		.align	2
 242              		.type	u8g_dev_ht1632_24x16_pb, %object
 243              		.size	u8g_dev_ht1632_24x16_pb, 12
 244              	u8g_dev_ht1632_24x16_pb:
 245 0000 10       		.byte	16
 246 0001 10       		.byte	16
 247 0002 00       		.byte	0
 248 0003 00       		.byte	0
 249 0004 00       		.byte	0
 250 0005 18       		.byte	24
 251 0006 0000     		.space	2
 252 0008 00000000 		.word	u8g_dev_ht1632_24x16_buf
 253              		.global	u8g_dev_ht1632_24x16
 254              		.align	2
 255              		.type	u8g_dev_ht1632_24x16, %object
 256              		.size	u8g_dev_ht1632_24x16, 12
 257              	u8g_dev_ht1632_24x16:
 258 000c 00000000 		.word	u8g_dev_ht1632_24x16_fn
 259 0010 00000000 		.word	u8g_dev_ht1632_24x16_pb
 260 0014 00000000 		.word	u8g_com_null_fn
 261              		.text
 262              	.Letext0:
 263              		.file 2 "c:\\program files (x86)\\cypress\\psoc creator\\3.3\\psoc creator\\import\\gnu\\arm\\4.9.
 264              		.file 3 "c:\\program files (x86)\\cypress\\psoc creator\\3.3\\psoc creator\\import\\gnu\\arm\\4.9.
 265              		.file 4 ".\\u8glib_arm_v1.18.1\\src\\u8g.h"