ARM GAS  C:\Users\Shiguruy\AppData\Local\Temp\cc635eNb.s 			page 1


   1              		.syntax unified
   2              		.cpu cortex-m3
   3              		.fpu softvfp
   4              		.eabi_attribute 20, 1
   5              		.eabi_attribute 21, 1
   6              		.eabi_attribute 23, 3
   7              		.eabi_attribute 24, 1
   8              		.eabi_attribute 25, 1
   9              		.eabi_attribute 26, 1
  10              		.eabi_attribute 30, 6
  11              		.eabi_attribute 34, 1
  12              		.eabi_attribute 18, 4
  13              		.thumb
  14              		.file	"u8g_dev_t6963_128x128.c"
  15              		.text
  16              	.Ltext0:
  17              		.cfi_sections	.debug_frame
  18              		.section	.rodata
  19              		.align	2
  20              		.type	u8g_dev_t6963_128x128_init_seq, %object
  21              		.size	u8g_dev_t6963_128x128_init_seq, 73
  22              	u8g_dev_t6963_128x128_init_seq:
  23 0000 FF       		.byte	-1
  24 0001 D0       		.byte	-48
  25 0002 FF       		.byte	-1
  26 0003 E0       		.byte	-32
  27 0004 FF       		.byte	-1
  28 0005 CF       		.byte	-49
  29 0006 FF       		.byte	-1
  30 0007 D1       		.byte	-47
  31 0008 FF       		.byte	-1
  32 0009 32       		.byte	50
  33 000a FF       		.byte	-1
  34 000b E0       		.byte	-32
  35 000c 00       		.byte	0
  36 000d 00       		.byte	0
  37 000e FF       		.byte	-1
  38 000f E1       		.byte	-31
  39 0010 21       		.byte	33
  40 0011 FF       		.byte	-1
  41 0012 E0       		.byte	-32
  42 0013 00       		.byte	0
  43 0014 00       		.byte	0
  44 0015 FF       		.byte	-1
  45 0016 E1       		.byte	-31
  46 0017 22       		.byte	34
  47 0018 FF       		.byte	-1
  48 0019 E0       		.byte	-32
  49 001a 00       		.byte	0
  50 001b 00       		.byte	0
  51 001c FF       		.byte	-1
  52 001d E1       		.byte	-31
  53 001e 40       		.byte	64
  54 001f FF       		.byte	-1
  55 0020 E0       		.byte	-32
  56 0021 10       		.byte	16
  57 0022 00       		.byte	0
ARM GAS  C:\Users\Shiguruy\AppData\Local\Temp\cc635eNb.s 			page 2


  58 0023 FF       		.byte	-1
  59 0024 E1       		.byte	-31
  60 0025 41       		.byte	65
  61 0026 FF       		.byte	-1
  62 0027 E0       		.byte	-32
  63 0028 00       		.byte	0
  64 0029 00       		.byte	0
  65 002a FF       		.byte	-1
  66 002b E1       		.byte	-31
  67 002c 42       		.byte	66
  68 002d FF       		.byte	-1
  69 002e E0       		.byte	-32
  70 002f 10       		.byte	16
  71 0030 00       		.byte	0
  72 0031 FF       		.byte	-1
  73 0032 E1       		.byte	-31
  74 0033 43       		.byte	67
  75 0034 FF       		.byte	-1
  76 0035 E1       		.byte	-31
  77 0036 80       		.byte	-128
  78 0037 FF       		.byte	-1
  79 0038 E1       		.byte	-31
  80 0039 98       		.byte	-104
  81 003a FF       		.byte	-1
  82 003b E0       		.byte	-32
  83 003c 00       		.byte	0
  84 003d 00       		.byte	0
  85 003e FF       		.byte	-1
  86 003f E1       		.byte	-31
  87 0040 24       		.byte	36
  88 0041 FF       		.byte	-1
  89 0042 64       		.byte	100
  90 0043 FF       		.byte	-1
  91 0044 E0       		.byte	-32
  92 0045 FF       		.byte	-1
  93 0046 D0       		.byte	-48
  94 0047 FF       		.byte	-1
  95 0048 FE       		.byte	-2
  96 0049 000000   		.section	.text.u8g_dev_t6963_128x128_fn,"ax",%progbits
  97              		.align	2
  98              		.global	u8g_dev_t6963_128x128_fn
  99              		.thumb
 100              		.thumb_func
 101              		.type	u8g_dev_t6963_128x128_fn, %function
 102              	u8g_dev_t6963_128x128_fn:
 103              	.LFB0:
 104              		.file 1 ".\\u8glib_arm_v1.18.1\\src\\u8g_dev_t6963_128x128.c"
   1:.\u8glib_arm_v1.18.1\src/u8g_dev_t6963_128x128.c **** /*
   2:.\u8glib_arm_v1.18.1\src/u8g_dev_t6963_128x128.c **** 
   3:.\u8glib_arm_v1.18.1\src/u8g_dev_t6963_128x128.c ****   u8g_dev_t6963_128x128.c
   4:.\u8glib_arm_v1.18.1\src/u8g_dev_t6963_128x128.c ****   
   5:.\u8glib_arm_v1.18.1\src/u8g_dev_t6963_128x128.c ****   Universal 8bit Graphics Library
   6:.\u8glib_arm_v1.18.1\src/u8g_dev_t6963_128x128.c ****   
   7:.\u8glib_arm_v1.18.1\src/u8g_dev_t6963_128x128.c ****   Copyright (c) 2013, olikraus@gmail.com
   8:.\u8glib_arm_v1.18.1\src/u8g_dev_t6963_128x128.c ****   All rights reserved.
   9:.\u8glib_arm_v1.18.1\src/u8g_dev_t6963_128x128.c **** 
  10:.\u8glib_arm_v1.18.1\src/u8g_dev_t6963_128x128.c ****   Redistribution and use in source and binary forms, with or without modification, 
ARM GAS  C:\Users\Shiguruy\AppData\Local\Temp\cc635eNb.s 			page 3


  11:.\u8glib_arm_v1.18.1\src/u8g_dev_t6963_128x128.c ****   are permitted provided that the following conditions are met:
  12:.\u8glib_arm_v1.18.1\src/u8g_dev_t6963_128x128.c **** 
  13:.\u8glib_arm_v1.18.1\src/u8g_dev_t6963_128x128.c ****   * Redistributions of source code must retain the above copyright notice, this list 
  14:.\u8glib_arm_v1.18.1\src/u8g_dev_t6963_128x128.c ****     of conditions and the following disclaimer.
  15:.\u8glib_arm_v1.18.1\src/u8g_dev_t6963_128x128.c ****     
  16:.\u8glib_arm_v1.18.1\src/u8g_dev_t6963_128x128.c ****   * Redistributions in binary form must reproduce the above copyright notice, this 
  17:.\u8glib_arm_v1.18.1\src/u8g_dev_t6963_128x128.c ****     list of conditions and the following disclaimer in the documentation and/or other 
  18:.\u8glib_arm_v1.18.1\src/u8g_dev_t6963_128x128.c ****     materials provided with the distribution.
  19:.\u8glib_arm_v1.18.1\src/u8g_dev_t6963_128x128.c **** 
  20:.\u8glib_arm_v1.18.1\src/u8g_dev_t6963_128x128.c ****   THIS SOFTWARE IS PROVIDED BY THE COPYRIGHT HOLDERS AND 
  21:.\u8glib_arm_v1.18.1\src/u8g_dev_t6963_128x128.c ****   CONTRIBUTORS "AS IS" AND ANY EXPRESS OR IMPLIED WARRANTIES, 
  22:.\u8glib_arm_v1.18.1\src/u8g_dev_t6963_128x128.c ****   INCLUDING, BUT NOT LIMITED TO, THE IMPLIED WARRANTIES OF 
  23:.\u8glib_arm_v1.18.1\src/u8g_dev_t6963_128x128.c ****   MERCHANTABILITY AND FITNESS FOR A PARTICULAR PURPOSE ARE 
  24:.\u8glib_arm_v1.18.1\src/u8g_dev_t6963_128x128.c ****   DISCLAIMED. IN NO EVENT SHALL THE COPYRIGHT HOLDER OR 
  25:.\u8glib_arm_v1.18.1\src/u8g_dev_t6963_128x128.c ****   CONTRIBUTORS BE LIABLE FOR ANY DIRECT, INDIRECT, INCIDENTAL, 
  26:.\u8glib_arm_v1.18.1\src/u8g_dev_t6963_128x128.c ****   SPECIAL, EXEMPLARY, OR CONSEQUENTIAL DAMAGES (INCLUDING, BUT 
  27:.\u8glib_arm_v1.18.1\src/u8g_dev_t6963_128x128.c ****   NOT LIMITED TO, PROCUREMENT OF SUBSTITUTE GOODS OR SERVICES; 
  28:.\u8glib_arm_v1.18.1\src/u8g_dev_t6963_128x128.c ****   LOSS OF USE, DATA, OR PROFITS; OR BUSINESS INTERRUPTION) HOWEVER 
  29:.\u8glib_arm_v1.18.1\src/u8g_dev_t6963_128x128.c ****   CAUSED AND ON ANY THEORY OF LIABILITY, WHETHER IN CONTRACT, 
  30:.\u8glib_arm_v1.18.1\src/u8g_dev_t6963_128x128.c ****   STRICT LIABILITY, OR TORT (INCLUDING NEGLIGENCE OR OTHERWISE) 
  31:.\u8glib_arm_v1.18.1\src/u8g_dev_t6963_128x128.c ****   ARISING IN ANY WAY OUT OF THE USE OF THIS SOFTWARE, EVEN IF 
  32:.\u8glib_arm_v1.18.1\src/u8g_dev_t6963_128x128.c ****   ADVISED OF THE POSSIBILITY OF SUCH DAMAGE.  
  33:.\u8glib_arm_v1.18.1\src/u8g_dev_t6963_128x128.c ****     
  34:.\u8glib_arm_v1.18.1\src/u8g_dev_t6963_128x128.c ****         
  35:.\u8glib_arm_v1.18.1\src/u8g_dev_t6963_128x128.c ****   Application Notes for the MGLS 128x128
  36:.\u8glib_arm_v1.18.1\src/u8g_dev_t6963_128x128.c ****     www.baso.no/content/pdf/T6963C_Application.pdf
  37:.\u8glib_arm_v1.18.1\src/u8g_dev_t6963_128x128.c ****   
  38:.\u8glib_arm_v1.18.1\src/u8g_dev_t6963_128x128.c ****   Hitachi App Notes:
  39:.\u8glib_arm_v1.18.1\src/u8g_dev_t6963_128x128.c ****     https://www.sparkfun.com/datasheets/LCD/Monochrome/AN-029-Toshiba_T6963C.pdf
  40:.\u8glib_arm_v1.18.1\src/u8g_dev_t6963_128x128.c **** 
  41:.\u8glib_arm_v1.18.1\src/u8g_dev_t6963_128x128.c ****   Notes:
  42:.\u8glib_arm_v1.18.1\src/u8g_dev_t6963_128x128.c ****     The font selection pins should generate the 8x8 font.
  43:.\u8glib_arm_v1.18.1\src/u8g_dev_t6963_128x128.c ****     For the MGLS240128TZ only FS1 is available on pin 18.
  44:.\u8glib_arm_v1.18.1\src/u8g_dev_t6963_128x128.c ****     FS1 must be low to generate the 8x8 font.
  45:.\u8glib_arm_v1.18.1\src/u8g_dev_t6963_128x128.c ****   
  46:.\u8glib_arm_v1.18.1\src/u8g_dev_t6963_128x128.c **** 
  47:.\u8glib_arm_v1.18.1\src/u8g_dev_t6963_128x128.c **** */
  48:.\u8glib_arm_v1.18.1\src/u8g_dev_t6963_128x128.c **** 
  49:.\u8glib_arm_v1.18.1\src/u8g_dev_t6963_128x128.c **** #include "u8g.h"
  50:.\u8glib_arm_v1.18.1\src/u8g_dev_t6963_128x128.c **** 
  51:.\u8glib_arm_v1.18.1\src/u8g_dev_t6963_128x128.c **** #define WIDTH 128
  52:.\u8glib_arm_v1.18.1\src/u8g_dev_t6963_128x128.c **** #define HEIGHT 128
  53:.\u8glib_arm_v1.18.1\src/u8g_dev_t6963_128x128.c **** #define PAGE_HEIGHT 16
  54:.\u8glib_arm_v1.18.1\src/u8g_dev_t6963_128x128.c **** 
  55:.\u8glib_arm_v1.18.1\src/u8g_dev_t6963_128x128.c **** 
  56:.\u8glib_arm_v1.18.1\src/u8g_dev_t6963_128x128.c **** /*
  57:.\u8glib_arm_v1.18.1\src/u8g_dev_t6963_128x128.c ****   http://www.mark-products.com/graphics.htm#240x64%20Pixel%20Format
  58:.\u8glib_arm_v1.18.1\src/u8g_dev_t6963_128x128.c **** */
  59:.\u8glib_arm_v1.18.1\src/u8g_dev_t6963_128x128.c **** 
  60:.\u8glib_arm_v1.18.1\src/u8g_dev_t6963_128x128.c **** /* text is not used, so settings are not relevant */
  61:.\u8glib_arm_v1.18.1\src/u8g_dev_t6963_128x128.c **** static const uint8_t u8g_dev_t6963_128x128_init_seq[] PROGMEM = {
  62:.\u8glib_arm_v1.18.1\src/u8g_dev_t6963_128x128.c ****   U8G_ESC_CS(0),             /* disable chip */
  63:.\u8glib_arm_v1.18.1\src/u8g_dev_t6963_128x128.c ****   U8G_ESC_ADR(0),           /* data mode */
  64:.\u8glib_arm_v1.18.1\src/u8g_dev_t6963_128x128.c ****   U8G_ESC_RST(15),           /* do reset low pulse with (15*16)+2 milliseconds (=maximum delay)*/
  65:.\u8glib_arm_v1.18.1\src/u8g_dev_t6963_128x128.c **** 
  66:.\u8glib_arm_v1.18.1\src/u8g_dev_t6963_128x128.c ****   U8G_ESC_CS(1),             /* enable chip */
  67:.\u8glib_arm_v1.18.1\src/u8g_dev_t6963_128x128.c ****   U8G_ESC_DLY(50),         /* delay 50 ms */
ARM GAS  C:\Users\Shiguruy\AppData\Local\Temp\cc635eNb.s 			page 4


  68:.\u8glib_arm_v1.18.1\src/u8g_dev_t6963_128x128.c **** 
  69:.\u8glib_arm_v1.18.1\src/u8g_dev_t6963_128x128.c ****   U8G_ESC_ADR(0),               /* data mode */
  70:.\u8glib_arm_v1.18.1\src/u8g_dev_t6963_128x128.c ****   0x000,                                /* low byte */
  71:.\u8glib_arm_v1.18.1\src/u8g_dev_t6963_128x128.c ****   0x000,                                /* height byte */
  72:.\u8glib_arm_v1.18.1\src/u8g_dev_t6963_128x128.c ****   U8G_ESC_ADR(1),               /* instruction mode */
  73:.\u8glib_arm_v1.18.1\src/u8g_dev_t6963_128x128.c ****   0x021,                                /* set cursor position */
  74:.\u8glib_arm_v1.18.1\src/u8g_dev_t6963_128x128.c ****   
  75:.\u8glib_arm_v1.18.1\src/u8g_dev_t6963_128x128.c ****   U8G_ESC_ADR(0),               /* data mode */
  76:.\u8glib_arm_v1.18.1\src/u8g_dev_t6963_128x128.c ****   0x000,                                /* low byte */
  77:.\u8glib_arm_v1.18.1\src/u8g_dev_t6963_128x128.c ****   0x000,                                /* height byte */
  78:.\u8glib_arm_v1.18.1\src/u8g_dev_t6963_128x128.c ****   U8G_ESC_ADR(1),               /* instruction mode */
  79:.\u8glib_arm_v1.18.1\src/u8g_dev_t6963_128x128.c ****   0x022,                                /* set offset */
  80:.\u8glib_arm_v1.18.1\src/u8g_dev_t6963_128x128.c **** 
  81:.\u8glib_arm_v1.18.1\src/u8g_dev_t6963_128x128.c ****   U8G_ESC_ADR(0),               /* data mode */
  82:.\u8glib_arm_v1.18.1\src/u8g_dev_t6963_128x128.c ****   0x000,                                /* low byte */
  83:.\u8glib_arm_v1.18.1\src/u8g_dev_t6963_128x128.c ****   0x000,                                /* height byte */
  84:.\u8glib_arm_v1.18.1\src/u8g_dev_t6963_128x128.c ****   U8G_ESC_ADR(1),               /* instruction mode */
  85:.\u8glib_arm_v1.18.1\src/u8g_dev_t6963_128x128.c ****   0x040,				     /* text home */
  86:.\u8glib_arm_v1.18.1\src/u8g_dev_t6963_128x128.c **** 
  87:.\u8glib_arm_v1.18.1\src/u8g_dev_t6963_128x128.c ****   U8G_ESC_ADR(0),               /* data mode */
  88:.\u8glib_arm_v1.18.1\src/u8g_dev_t6963_128x128.c ****   WIDTH/8,                      	    /* low byte */
  89:.\u8glib_arm_v1.18.1\src/u8g_dev_t6963_128x128.c ****   0x000,                                /* height byte */
  90:.\u8glib_arm_v1.18.1\src/u8g_dev_t6963_128x128.c ****   U8G_ESC_ADR(1),               /* instruction mode */
  91:.\u8glib_arm_v1.18.1\src/u8g_dev_t6963_128x128.c ****   0x041,				     /* text columns */
  92:.\u8glib_arm_v1.18.1\src/u8g_dev_t6963_128x128.c **** 
  93:.\u8glib_arm_v1.18.1\src/u8g_dev_t6963_128x128.c ****   U8G_ESC_ADR(0),               /* data mode */
  94:.\u8glib_arm_v1.18.1\src/u8g_dev_t6963_128x128.c ****   0x000,                                /* low byte */
  95:.\u8glib_arm_v1.18.1\src/u8g_dev_t6963_128x128.c ****   0x000,                                /* height byte */
  96:.\u8glib_arm_v1.18.1\src/u8g_dev_t6963_128x128.c ****   U8G_ESC_ADR(1),               /* instruction mode */
  97:.\u8glib_arm_v1.18.1\src/u8g_dev_t6963_128x128.c ****   0x042,				     /* graphics home */
  98:.\u8glib_arm_v1.18.1\src/u8g_dev_t6963_128x128.c **** 
  99:.\u8glib_arm_v1.18.1\src/u8g_dev_t6963_128x128.c ****   U8G_ESC_ADR(0),               /* data mode */
 100:.\u8glib_arm_v1.18.1\src/u8g_dev_t6963_128x128.c ****   WIDTH/8,                            /* low byte */
 101:.\u8glib_arm_v1.18.1\src/u8g_dev_t6963_128x128.c ****   0x000,                                /* height byte */
 102:.\u8glib_arm_v1.18.1\src/u8g_dev_t6963_128x128.c ****   U8G_ESC_ADR(1),               /* instruction mode */
 103:.\u8glib_arm_v1.18.1\src/u8g_dev_t6963_128x128.c ****   0x043,				     /* graphics columns */
 104:.\u8glib_arm_v1.18.1\src/u8g_dev_t6963_128x128.c ****   
 105:.\u8glib_arm_v1.18.1\src/u8g_dev_t6963_128x128.c ****   // mode set
 106:.\u8glib_arm_v1.18.1\src/u8g_dev_t6963_128x128.c ****   // 0x080: Internal CG, OR Mode
 107:.\u8glib_arm_v1.18.1\src/u8g_dev_t6963_128x128.c ****   // 0x081: Internal CG, EXOR Mode
 108:.\u8glib_arm_v1.18.1\src/u8g_dev_t6963_128x128.c ****   // 0x083: Internal CG, AND Mode
 109:.\u8glib_arm_v1.18.1\src/u8g_dev_t6963_128x128.c ****   // 0x088: External CG, OR Mode
 110:.\u8glib_arm_v1.18.1\src/u8g_dev_t6963_128x128.c ****   // 0x089: External CG, EXOR Mode
 111:.\u8glib_arm_v1.18.1\src/u8g_dev_t6963_128x128.c ****   // 0x08B: External CG, AND Mode
 112:.\u8glib_arm_v1.18.1\src/u8g_dev_t6963_128x128.c ****   U8G_ESC_ADR(1),               /* instruction mode */
 113:.\u8glib_arm_v1.18.1\src/u8g_dev_t6963_128x128.c ****   0x080,                                /* mode register: OR Mode, Internal Character Mode */
 114:.\u8glib_arm_v1.18.1\src/u8g_dev_t6963_128x128.c ****   
 115:.\u8glib_arm_v1.18.1\src/u8g_dev_t6963_128x128.c ****   U8G_ESC_ADR(1),               /* instruction mode */
 116:.\u8glib_arm_v1.18.1\src/u8g_dev_t6963_128x128.c ****   // display mode
 117:.\u8glib_arm_v1.18.1\src/u8g_dev_t6963_128x128.c ****   // 0x090: Display off
 118:.\u8glib_arm_v1.18.1\src/u8g_dev_t6963_128x128.c ****   // 0x094: Graphic off, text on, cursor off, blink off
 119:.\u8glib_arm_v1.18.1\src/u8g_dev_t6963_128x128.c ****   // 0x096: Graphic off, text on, cursor on, blink off
 120:.\u8glib_arm_v1.18.1\src/u8g_dev_t6963_128x128.c ****   // 0x097: Graphic off, text on, cursor on, blink on
 121:.\u8glib_arm_v1.18.1\src/u8g_dev_t6963_128x128.c ****   // 0x098: Graphic on, text off, cursor off, blink off
 122:.\u8glib_arm_v1.18.1\src/u8g_dev_t6963_128x128.c ****   // 0x09a: Graphic on, text off, cursor on, blink off
 123:.\u8glib_arm_v1.18.1\src/u8g_dev_t6963_128x128.c ****   // ...
 124:.\u8glib_arm_v1.18.1\src/u8g_dev_t6963_128x128.c ****   // 0x09c: Graphic on, text on, cursor off, blink off
ARM GAS  C:\Users\Shiguruy\AppData\Local\Temp\cc635eNb.s 			page 5


 125:.\u8glib_arm_v1.18.1\src/u8g_dev_t6963_128x128.c ****   // 0x09f: Graphic on, text on, cursor on, blink on
 126:.\u8glib_arm_v1.18.1\src/u8g_dev_t6963_128x128.c ****   0x098,                                /* mode register: Display Mode, Graphics on, Text off, Curs
 127:.\u8glib_arm_v1.18.1\src/u8g_dev_t6963_128x128.c ****   
 128:.\u8glib_arm_v1.18.1\src/u8g_dev_t6963_128x128.c ****   U8G_ESC_ADR(0),               /* data mode */
 129:.\u8glib_arm_v1.18.1\src/u8g_dev_t6963_128x128.c ****   0x000,                                /* low byte */
 130:.\u8glib_arm_v1.18.1\src/u8g_dev_t6963_128x128.c ****   0x000,                                /* height byte */
 131:.\u8glib_arm_v1.18.1\src/u8g_dev_t6963_128x128.c ****   U8G_ESC_ADR(1),               /* instruction mode */
 132:.\u8glib_arm_v1.18.1\src/u8g_dev_t6963_128x128.c ****   0x024,                                /* set adr pointer */
 133:.\u8glib_arm_v1.18.1\src/u8g_dev_t6963_128x128.c ****   
 134:.\u8glib_arm_v1.18.1\src/u8g_dev_t6963_128x128.c **** 
 135:.\u8glib_arm_v1.18.1\src/u8g_dev_t6963_128x128.c ****   U8G_ESC_DLY(100),         /* delay 100 ms */
 136:.\u8glib_arm_v1.18.1\src/u8g_dev_t6963_128x128.c ****   
 137:.\u8glib_arm_v1.18.1\src/u8g_dev_t6963_128x128.c ****   U8G_ESC_ADR(0),               /* data mode */
 138:.\u8glib_arm_v1.18.1\src/u8g_dev_t6963_128x128.c ****   U8G_ESC_CS(0),             /* disable chip */
 139:.\u8glib_arm_v1.18.1\src/u8g_dev_t6963_128x128.c ****   U8G_ESC_END                /* end of sequence */
 140:.\u8glib_arm_v1.18.1\src/u8g_dev_t6963_128x128.c **** };
 141:.\u8glib_arm_v1.18.1\src/u8g_dev_t6963_128x128.c **** 
 142:.\u8glib_arm_v1.18.1\src/u8g_dev_t6963_128x128.c **** uint8_t u8g_dev_t6963_128x128_fn(u8g_t *u8g, u8g_dev_t *dev, uint8_t msg, void *arg)
 143:.\u8glib_arm_v1.18.1\src/u8g_dev_t6963_128x128.c **** {
 105              		.loc 1 143 0
 106              		.cfi_startproc
 107              		@ args = 0, pretend = 0, frame = 32
 108              		@ frame_needed = 1, uses_anonymous_args = 0
 109 0000 80B5     		push	{r7, lr}
 110              		.cfi_def_cfa_offset 8
 111              		.cfi_offset 7, -8
 112              		.cfi_offset 14, -4
 113 0002 88B0     		sub	sp, sp, #32
 114              		.cfi_def_cfa_offset 40
 115 0004 00AF     		add	r7, sp, #0
 116              		.cfi_def_cfa_register 7
 117 0006 F860     		str	r0, [r7, #12]
 118 0008 B960     		str	r1, [r7, #8]
 119 000a 3B60     		str	r3, [r7]
 120 000c 1346     		mov	r3, r2
 121 000e FB71     		strb	r3, [r7, #7]
 144:.\u8glib_arm_v1.18.1\src/u8g_dev_t6963_128x128.c ****   switch(msg)
 122              		.loc 1 144 0
 123 0010 FB79     		ldrb	r3, [r7, #7]	@ zero_extendqisi2
 124 0012 0B2B     		cmp	r3, #11
 125 0014 68D0     		beq	.L9
 126 0016 152B     		cmp	r3, #21
 127 0018 0CD0     		beq	.L4
 128 001a 0A2B     		cmp	r3, #10
 129 001c 65D1     		bne	.L2
 145:.\u8glib_arm_v1.18.1\src/u8g_dev_t6963_128x128.c ****   {
 146:.\u8glib_arm_v1.18.1\src/u8g_dev_t6963_128x128.c ****     case U8G_DEV_MSG_INIT:
 147:.\u8glib_arm_v1.18.1\src/u8g_dev_t6963_128x128.c ****       u8g_InitCom(u8g, dev, U8G_SPI_CLK_CYCLE_NONE);    
 130              		.loc 1 147 0
 131 001e F868     		ldr	r0, [r7, #12]
 132 0020 B968     		ldr	r1, [r7, #8]
 133 0022 FF22     		movs	r2, #255
 134 0024 FFF7FEFF 		bl	u8g_InitCom
 148:.\u8glib_arm_v1.18.1\src/u8g_dev_t6963_128x128.c ****       u8g_WriteEscSeqP(u8g, dev, u8g_dev_t6963_128x128_init_seq);
 135              		.loc 1 148 0
 136 0028 F868     		ldr	r0, [r7, #12]
 137 002a B968     		ldr	r1, [r7, #8]
ARM GAS  C:\Users\Shiguruy\AppData\Local\Temp\cc635eNb.s 			page 6


 138 002c 354A     		ldr	r2, .L10
 139 002e FFF7FEFF 		bl	u8g_WriteEscSeqP
 149:.\u8glib_arm_v1.18.1\src/u8g_dev_t6963_128x128.c ****       break;
 140              		.loc 1 149 0
 141 0032 5AE0     		b	.L2
 142              	.L4:
 143              	.LBB2:
 150:.\u8glib_arm_v1.18.1\src/u8g_dev_t6963_128x128.c ****     case U8G_DEV_MSG_STOP:
 151:.\u8glib_arm_v1.18.1\src/u8g_dev_t6963_128x128.c ****       break;
 152:.\u8glib_arm_v1.18.1\src/u8g_dev_t6963_128x128.c ****     case U8G_DEV_MSG_PAGE_NEXT:
 153:.\u8glib_arm_v1.18.1\src/u8g_dev_t6963_128x128.c ****       {
 154:.\u8glib_arm_v1.18.1\src/u8g_dev_t6963_128x128.c ****         uint8_t y, i;
 155:.\u8glib_arm_v1.18.1\src/u8g_dev_t6963_128x128.c ****         uint16_t disp_ram_adr;
 156:.\u8glib_arm_v1.18.1\src/u8g_dev_t6963_128x128.c ****         uint8_t *ptr;
 157:.\u8glib_arm_v1.18.1\src/u8g_dev_t6963_128x128.c ****         u8g_pb_t *pb = (u8g_pb_t *)(dev->dev_mem);
 144              		.loc 1 157 0
 145 0034 BB68     		ldr	r3, [r7, #8]
 146 0036 5B68     		ldr	r3, [r3, #4]
 147 0038 7B61     		str	r3, [r7, #20]
 158:.\u8glib_arm_v1.18.1\src/u8g_dev_t6963_128x128.c **** 
 159:.\u8glib_arm_v1.18.1\src/u8g_dev_t6963_128x128.c ****         
 160:.\u8glib_arm_v1.18.1\src/u8g_dev_t6963_128x128.c **** 	u8g_SetAddress(u8g, dev, 0);           /* data mode */
 148              		.loc 1 160 0
 149 003a F868     		ldr	r0, [r7, #12]
 150 003c B968     		ldr	r1, [r7, #8]
 151 003e 0022     		movs	r2, #0
 152 0040 FFF7FEFF 		bl	u8g_SetAddress
 161:.\u8glib_arm_v1.18.1\src/u8g_dev_t6963_128x128.c ****         u8g_SetChipSelect(u8g, dev, 1);
 153              		.loc 1 161 0
 154 0044 F868     		ldr	r0, [r7, #12]
 155 0046 B968     		ldr	r1, [r7, #8]
 156 0048 0122     		movs	r2, #1
 157 004a FFF7FEFF 		bl	u8g_SetChipSelect
 162:.\u8glib_arm_v1.18.1\src/u8g_dev_t6963_128x128.c ****         y = pb->p.page_y0;
 158              		.loc 1 162 0
 159 004e 7B69     		ldr	r3, [r7, #20]
 160 0050 9B78     		ldrb	r3, [r3, #2]
 161 0052 FB74     		strb	r3, [r7, #19]
 163:.\u8glib_arm_v1.18.1\src/u8g_dev_t6963_128x128.c ****         ptr = pb->buf;
 162              		.loc 1 163 0
 163 0054 7B69     		ldr	r3, [r7, #20]
 164 0056 9B68     		ldr	r3, [r3, #8]
 165 0058 BB61     		str	r3, [r7, #24]
 164:.\u8glib_arm_v1.18.1\src/u8g_dev_t6963_128x128.c ****         disp_ram_adr = WIDTH/8;
 166              		.loc 1 164 0
 167 005a 1023     		movs	r3, #16
 168 005c BB83     		strh	r3, [r7, #28]	@ movhi
 165:.\u8glib_arm_v1.18.1\src/u8g_dev_t6963_128x128.c ****         disp_ram_adr *= y;
 169              		.loc 1 165 0
 170 005e FB7C     		ldrb	r3, [r7, #19]	@ zero_extendqisi2
 171 0060 9BB2     		uxth	r3, r3
 172 0062 BA8B     		ldrh	r2, [r7, #28]	@ movhi
 173 0064 02FB03F3 		mul	r3, r2, r3
 174 0068 BB83     		strh	r3, [r7, #28]	@ movhi
 166:.\u8glib_arm_v1.18.1\src/u8g_dev_t6963_128x128.c ****         for( i = 0; i < PAGE_HEIGHT; i ++ )
 175              		.loc 1 166 0
 176 006a 0023     		movs	r3, #0
ARM GAS  C:\Users\Shiguruy\AppData\Local\Temp\cc635eNb.s 			page 7


 177 006c FB77     		strb	r3, [r7, #31]
 178 006e 2DE0     		b	.L6
 179              	.L7:
 167:.\u8glib_arm_v1.18.1\src/u8g_dev_t6963_128x128.c ****         {
 168:.\u8glib_arm_v1.18.1\src/u8g_dev_t6963_128x128.c ****           u8g_SetAddress(u8g, dev, 0);           /* data mode */
 180              		.loc 1 168 0 discriminator 3
 181 0070 F868     		ldr	r0, [r7, #12]
 182 0072 B968     		ldr	r1, [r7, #8]
 183 0074 0022     		movs	r2, #0
 184 0076 FFF7FEFF 		bl	u8g_SetAddress
 169:.\u8glib_arm_v1.18.1\src/u8g_dev_t6963_128x128.c ****           u8g_WriteByte(u8g, dev, disp_ram_adr&255 );      /* address low byte */
 185              		.loc 1 169 0 discriminator 3
 186 007a BB8B     		ldrh	r3, [r7, #28]	@ movhi
 187 007c DBB2     		uxtb	r3, r3
 188 007e F868     		ldr	r0, [r7, #12]
 189 0080 B968     		ldr	r1, [r7, #8]
 190 0082 1A46     		mov	r2, r3
 191 0084 FFF7FEFF 		bl	u8g_WriteByte
 170:.\u8glib_arm_v1.18.1\src/u8g_dev_t6963_128x128.c ****           u8g_WriteByte(u8g, dev, disp_ram_adr>>8 );      /* address hight byte */
 192              		.loc 1 170 0 discriminator 3
 193 0088 BB8B     		ldrh	r3, [r7, #28]
 194 008a 1B0A     		lsrs	r3, r3, #8
 195 008c 9BB2     		uxth	r3, r3
 196 008e DBB2     		uxtb	r3, r3
 197 0090 F868     		ldr	r0, [r7, #12]
 198 0092 B968     		ldr	r1, [r7, #8]
 199 0094 1A46     		mov	r2, r3
 200 0096 FFF7FEFF 		bl	u8g_WriteByte
 171:.\u8glib_arm_v1.18.1\src/u8g_dev_t6963_128x128.c ****           u8g_SetAddress(u8g, dev, 1);           /* cmd mode */
 201              		.loc 1 171 0 discriminator 3
 202 009a F868     		ldr	r0, [r7, #12]
 203 009c B968     		ldr	r1, [r7, #8]
 204 009e 0122     		movs	r2, #1
 205 00a0 FFF7FEFF 		bl	u8g_SetAddress
 172:.\u8glib_arm_v1.18.1\src/u8g_dev_t6963_128x128.c ****           u8g_WriteByte(u8g, dev, 0x024 );      /* set adr ptr */
 206              		.loc 1 172 0 discriminator 3
 207 00a4 F868     		ldr	r0, [r7, #12]
 208 00a6 B968     		ldr	r1, [r7, #8]
 209 00a8 2422     		movs	r2, #36
 210 00aa FFF7FEFF 		bl	u8g_WriteByte
 173:.\u8glib_arm_v1.18.1\src/u8g_dev_t6963_128x128.c **** 	  
 174:.\u8glib_arm_v1.18.1\src/u8g_dev_t6963_128x128.c ****           u8g_WriteSequence(u8g, dev, WIDTH/8, ptr);	
 211              		.loc 1 174 0 discriminator 3
 212 00ae F868     		ldr	r0, [r7, #12]
 213 00b0 B968     		ldr	r1, [r7, #8]
 214 00b2 1022     		movs	r2, #16
 215 00b4 BB69     		ldr	r3, [r7, #24]
 216 00b6 FFF7FEFF 		bl	u8g_WriteSequence
 175:.\u8glib_arm_v1.18.1\src/u8g_dev_t6963_128x128.c **** 	  
 176:.\u8glib_arm_v1.18.1\src/u8g_dev_t6963_128x128.c ****           ptr += WIDTH/8;
 217              		.loc 1 176 0 discriminator 3
 218 00ba BB69     		ldr	r3, [r7, #24]
 219 00bc 1033     		adds	r3, r3, #16
 220 00be BB61     		str	r3, [r7, #24]
 177:.\u8glib_arm_v1.18.1\src/u8g_dev_t6963_128x128.c ****           disp_ram_adr += WIDTH/8;
 221              		.loc 1 177 0 discriminator 3
 222 00c0 BB8B     		ldrh	r3, [r7, #28]	@ movhi
ARM GAS  C:\Users\Shiguruy\AppData\Local\Temp\cc635eNb.s 			page 8


 223 00c2 1033     		adds	r3, r3, #16
 224 00c4 BB83     		strh	r3, [r7, #28]	@ movhi
 166:.\u8glib_arm_v1.18.1\src/u8g_dev_t6963_128x128.c ****         {
 225              		.loc 1 166 0 discriminator 3
 226 00c6 FB7F     		ldrb	r3, [r7, #31]	@ zero_extendqisi2
 227 00c8 0133     		adds	r3, r3, #1
 228 00ca FB77     		strb	r3, [r7, #31]
 229              	.L6:
 166:.\u8glib_arm_v1.18.1\src/u8g_dev_t6963_128x128.c ****         {
 230              		.loc 1 166 0 is_stmt 0 discriminator 1
 231 00cc FB7F     		ldrb	r3, [r7, #31]	@ zero_extendqisi2
 232 00ce 0F2B     		cmp	r3, #15
 233 00d0 CED9     		bls	.L7
 178:.\u8glib_arm_v1.18.1\src/u8g_dev_t6963_128x128.c ****         }
 179:.\u8glib_arm_v1.18.1\src/u8g_dev_t6963_128x128.c **** 	u8g_SetAddress(u8g, dev, 0);           /* data mode */
 234              		.loc 1 179 0 is_stmt 1
 235 00d2 F868     		ldr	r0, [r7, #12]
 236 00d4 B968     		ldr	r1, [r7, #8]
 237 00d6 0022     		movs	r2, #0
 238 00d8 FFF7FEFF 		bl	u8g_SetAddress
 180:.\u8glib_arm_v1.18.1\src/u8g_dev_t6963_128x128.c ****         u8g_SetChipSelect(u8g, dev, 0);
 239              		.loc 1 180 0
 240 00dc F868     		ldr	r0, [r7, #12]
 241 00de B968     		ldr	r1, [r7, #8]
 242 00e0 0022     		movs	r2, #0
 243 00e2 FFF7FEFF 		bl	u8g_SetChipSelect
 244              	.LBE2:
 181:.\u8glib_arm_v1.18.1\src/u8g_dev_t6963_128x128.c ****       }
 182:.\u8glib_arm_v1.18.1\src/u8g_dev_t6963_128x128.c ****       break;
 245              		.loc 1 182 0
 246 00e6 00E0     		b	.L2
 247              	.L9:
 151:.\u8glib_arm_v1.18.1\src/u8g_dev_t6963_128x128.c ****     case U8G_DEV_MSG_PAGE_NEXT:
 248              		.loc 1 151 0
 249 00e8 00BF     		nop
 250              	.L2:
 183:.\u8glib_arm_v1.18.1\src/u8g_dev_t6963_128x128.c ****   }
 184:.\u8glib_arm_v1.18.1\src/u8g_dev_t6963_128x128.c ****   return u8g_dev_pb16h1_base_fn(u8g, dev, msg, arg);
 251              		.loc 1 184 0
 252 00ea FB79     		ldrb	r3, [r7, #7]	@ zero_extendqisi2
 253 00ec F868     		ldr	r0, [r7, #12]
 254 00ee B968     		ldr	r1, [r7, #8]
 255 00f0 1A46     		mov	r2, r3
 256 00f2 3B68     		ldr	r3, [r7]
 257 00f4 FFF7FEFF 		bl	u8g_dev_pb16h1_base_fn
 258 00f8 0346     		mov	r3, r0
 185:.\u8glib_arm_v1.18.1\src/u8g_dev_t6963_128x128.c **** }
 259              		.loc 1 185 0
 260 00fa 1846     		mov	r0, r3
 261 00fc 2037     		adds	r7, r7, #32
 262              		.cfi_def_cfa_offset 8
 263 00fe BD46     		mov	sp, r7
 264              		.cfi_def_cfa_register 13
 265              		@ sp needed
 266 0100 80BD     		pop	{r7, pc}
 267              	.L11:
 268 0102 00BF     		.align	2
ARM GAS  C:\Users\Shiguruy\AppData\Local\Temp\cc635eNb.s 			page 9


 269              	.L10:
 270 0104 00000000 		.word	u8g_dev_t6963_128x128_init_seq
 271              		.cfi_endproc
 272              	.LFE0:
 273              		.size	u8g_dev_t6963_128x128_fn, .-u8g_dev_t6963_128x128_fn
 274              		.global	u8g_dev_t6963_128x128_2x_bw_buf
 275              		.bss
 276              		.align	2
 277              		.type	u8g_dev_t6963_128x128_2x_bw_buf, %object
 278              		.size	u8g_dev_t6963_128x128_2x_bw_buf, 256
 279              	u8g_dev_t6963_128x128_2x_bw_buf:
 280 0000 00000000 		.space	256
 280      00000000 
 280      00000000 
 280      00000000 
 280      00000000 
 281              		.global	u8g_dev_t6963_128x128_2x_bw_pb
 282              		.data
 283              		.align	2
 284              		.type	u8g_dev_t6963_128x128_2x_bw_pb, %object
 285              		.size	u8g_dev_t6963_128x128_2x_bw_pb, 12
 286              	u8g_dev_t6963_128x128_2x_bw_pb:
 287 0000 10       		.byte	16
 288 0001 80       		.byte	-128
 289 0002 00       		.byte	0
 290 0003 00       		.byte	0
 291 0004 00       		.byte	0
 292 0005 80       		.byte	-128
 293 0006 0000     		.space	2
 294 0008 00000000 		.word	u8g_dev_t6963_128x128_2x_bw_buf
 295              		.global	u8g_dev_t6963_128x128_8bit
 296              		.align	2
 297              		.type	u8g_dev_t6963_128x128_8bit, %object
 298              		.size	u8g_dev_t6963_128x128_8bit, 12
 299              	u8g_dev_t6963_128x128_8bit:
 300 000c 00000000 		.word	u8g_dev_t6963_128x128_fn
 301 0010 00000000 		.word	u8g_dev_t6963_128x128_2x_bw_pb
 302 0014 00000000 		.word	u8g_com_null_fn
 303              		.text
 304              	.Letext0:
 305              		.file 2 "c:\\program files (x86)\\cypress\\psoc creator\\3.3\\psoc creator\\import\\gnu\\arm\\4.9.
 306              		.file 3 "c:\\program files (x86)\\cypress\\psoc creator\\3.3\\psoc creator\\import\\gnu\\arm\\4.9.
 307              		.file 4 ".\\u8glib_arm_v1.18.1\\src\\u8g.h"