ARM GAS  C:\Users\Shiguruy\AppData\Local\Temp\ccgzv6TA.s 			page 1


   1              		.syntax unified
   2              		.cpu cortex-m3
   3              		.fpu softvfp
   4              		.eabi_attribute 20, 1
   5              		.eabi_attribute 21, 1
   6              		.eabi_attribute 23, 3
   7              		.eabi_attribute 24, 1
   8              		.eabi_attribute 25, 1
   9              		.eabi_attribute 26, 1
  10              		.eabi_attribute 30, 6
  11              		.eabi_attribute 34, 1
  12              		.eabi_attribute 18, 4
  13              		.thumb
  14              		.file	"u8g_dev_ssd1322_nhd31oled_gr.c"
  15              		.text
  16              	.Ltext0:
  17              		.cfi_sections	.debug_frame
  18              		.section	.rodata
  19              		.align	2
  20              		.type	u8g_dev_ssd1322_2bit_nhd_312_init_seq, %object
  21              		.size	u8g_dev_ssd1322_2bit_nhd_312_init_seq, 126
  22              	u8g_dev_ssd1322_2bit_nhd_312_init_seq:
  23 0000 FF       		.byte	-1
  24 0001 0A       		.byte	10
  25 0002 FF       		.byte	-1
  26 0003 D0       		.byte	-48
  27 0004 FF       		.byte	-1
  28 0005 E0       		.byte	-32
  29 0006 FF       		.byte	-1
  30 0007 C1       		.byte	-63
  31 0008 FF       		.byte	-1
  32 0009 D1       		.byte	-47
  33 000a FF       		.byte	-1
  34 000b 64       		.byte	100
  35 000c FF       		.byte	-1
  36 000d 64       		.byte	100
  37 000e FF       		.byte	-1
  38 000f E0       		.byte	-32
  39 0010 FD       		.byte	-3
  40 0011 FF       		.byte	-1
  41 0012 E1       		.byte	-31
  42 0013 12       		.byte	18
  43 0014 FF       		.byte	-1
  44 0015 E0       		.byte	-32
  45 0016 AE       		.byte	-82
  46 0017 FF       		.byte	-1
  47 0018 E0       		.byte	-32
  48 0019 B3       		.byte	-77
  49 001a FF       		.byte	-1
  50 001b E1       		.byte	-31
  51 001c 91       		.byte	-111
  52 001d FF       		.byte	-1
  53 001e E0       		.byte	-32
  54 001f CA       		.byte	-54
  55 0020 FF       		.byte	-1
  56 0021 E1       		.byte	-31
  57 0022 3F       		.byte	63
ARM GAS  C:\Users\Shiguruy\AppData\Local\Temp\ccgzv6TA.s 			page 2


  58 0023 FF       		.byte	-1
  59 0024 E0       		.byte	-32
  60 0025 A2       		.byte	-94
  61 0026 FF       		.byte	-1
  62 0027 E1       		.byte	-31
  63 0028 00       		.byte	0
  64 0029 FF       		.byte	-1
  65 002a E0       		.byte	-32
  66 002b A1       		.byte	-95
  67 002c FF       		.byte	-1
  68 002d E1       		.byte	-31
  69 002e 00       		.byte	0
  70 002f FF       		.byte	-1
  71 0030 E0       		.byte	-32
  72 0031 A0       		.byte	-96
  73 0032 FF       		.byte	-1
  74 0033 E1       		.byte	-31
  75 0034 14       		.byte	20
  76 0035 11       		.byte	17
  77 0036 FF       		.byte	-1
  78 0037 E0       		.byte	-32
  79 0038 AB       		.byte	-85
  80 0039 FF       		.byte	-1
  81 003a E1       		.byte	-31
  82 003b 01       		.byte	1
  83 003c FF       		.byte	-1
  84 003d E0       		.byte	-32
  85 003e B4       		.byte	-76
  86 003f FF       		.byte	-1
  87 0040 E1       		.byte	-31
  88 0041 A0       		.byte	-96
  89 0042 FD       		.byte	-3
  90 0043 FF       		.byte	-1
  91 0044 E0       		.byte	-32
  92 0045 C1       		.byte	-63
  93 0046 FF       		.byte	-1
  94 0047 E1       		.byte	-31
  95 0048 9F       		.byte	-97
  96 0049 FF       		.byte	-1
  97 004a E0       		.byte	-32
  98 004b C7       		.byte	-57
  99 004c FF       		.byte	-1
 100 004d E1       		.byte	-31
 101 004e 0F       		.byte	15
 102 004f FF       		.byte	-1
 103 0050 E0       		.byte	-32
 104 0051 B9       		.byte	-71
 105 0052 FF       		.byte	-1
 106 0053 E0       		.byte	-32
 107 0054 B1       		.byte	-79
 108 0055 FF       		.byte	-1
 109 0056 E1       		.byte	-31
 110 0057 E2       		.byte	-30
 111 0058 FF       		.byte	-1
 112 0059 E0       		.byte	-32
 113 005a D1       		.byte	-47
 114 005b FF       		.byte	-1
ARM GAS  C:\Users\Shiguruy\AppData\Local\Temp\ccgzv6TA.s 			page 3


 115 005c E1       		.byte	-31
 116 005d A2       		.byte	-94
 117 005e 20       		.byte	32
 118 005f FF       		.byte	-1
 119 0060 E0       		.byte	-32
 120 0061 BB       		.byte	-69
 121 0062 FF       		.byte	-1
 122 0063 E1       		.byte	-31
 123 0064 1F       		.byte	31
 124 0065 FF       		.byte	-1
 125 0066 E0       		.byte	-32
 126 0067 B6       		.byte	-74
 127 0068 FF       		.byte	-1
 128 0069 E1       		.byte	-31
 129 006a 08       		.byte	8
 130 006b FF       		.byte	-1
 131 006c E0       		.byte	-32
 132 006d BE       		.byte	-66
 133 006e FF       		.byte	-1
 134 006f E1       		.byte	-31
 135 0070 07       		.byte	7
 136 0071 FF       		.byte	-1
 137 0072 E0       		.byte	-32
 138 0073 A6       		.byte	-90
 139 0074 FF       		.byte	-1
 140 0075 E0       		.byte	-32
 141 0076 A9       		.byte	-87
 142 0077 FF       		.byte	-1
 143 0078 E0       		.byte	-32
 144 0079 AF       		.byte	-81
 145 007a FF       		.byte	-1
 146 007b D0       		.byte	-48
 147 007c FF       		.byte	-1
 148 007d FE       		.byte	-2
 149 007e 0000     		.align	2
 150              		.type	u8g_dev_ssd1322_2bit_nhd_312_prepare_page_seq, %object
 151              		.size	u8g_dev_ssd1322_2bit_nhd_312_prepare_page_seq, 16
 152              	u8g_dev_ssd1322_2bit_nhd_312_prepare_page_seq:
 153 0080 FF       		.byte	-1
 154 0081 E0       		.byte	-32
 155 0082 FF       		.byte	-1
 156 0083 D1       		.byte	-47
 157 0084 15       		.byte	21
 158 0085 FF       		.byte	-1
 159 0086 E1       		.byte	-31
 160 0087 1C       		.byte	28
 161 0088 5B       		.byte	91
 162 0089 FF       		.byte	-1
 163 008a E0       		.byte	-32
 164 008b 75       		.byte	117
 165 008c FF       		.byte	-1
 166 008d E1       		.byte	-31
 167 008e FF       		.byte	-1
 168 008f FE       		.byte	-2
 169              		.section	.text.u8g_dev_ssd1322_2bit_prepare_row,"ax",%progbits
 170              		.align	2
 171              		.thumb
ARM GAS  C:\Users\Shiguruy\AppData\Local\Temp\ccgzv6TA.s 			page 4


 172              		.thumb_func
 173              		.type	u8g_dev_ssd1322_2bit_prepare_row, %function
 174              	u8g_dev_ssd1322_2bit_prepare_row:
 175              	.LFB0:
 176              		.file 1 ".\\u8glib_arm_v1.18.1\\src\\u8g_dev_ssd1322_nhd31oled_gr.c"
   1:.\u8glib_arm_v1.18.1\src/u8g_dev_ssd1322_nhd31oled_gr.c **** /*
   2:.\u8glib_arm_v1.18.1\src/u8g_dev_ssd1322_nhd31oled_gr.c **** 
   3:.\u8glib_arm_v1.18.1\src/u8g_dev_ssd1322_nhd31oled_gr.c ****   u8g_dev_ssd1322_nhd31oled_gr.c
   4:.\u8glib_arm_v1.18.1\src/u8g_dev_ssd1322_nhd31oled_gr.c ****   
   5:.\u8glib_arm_v1.18.1\src/u8g_dev_ssd1322_nhd31oled_gr.c ****   2-Bit (4L) Driver for SSD1322 Controller (OLED Display)
   6:.\u8glib_arm_v1.18.1\src/u8g_dev_ssd1322_nhd31oled_gr.c ****   Tested with NHD-3.12-25664
   7:.\u8glib_arm_v1.18.1\src/u8g_dev_ssd1322_nhd31oled_gr.c **** 
   8:.\u8glib_arm_v1.18.1\src/u8g_dev_ssd1322_nhd31oled_gr.c ****   Universal 8bit Graphics Library
   9:.\u8glib_arm_v1.18.1\src/u8g_dev_ssd1322_nhd31oled_gr.c ****   
  10:.\u8glib_arm_v1.18.1\src/u8g_dev_ssd1322_nhd31oled_gr.c ****   Copyright (c) 2012, olikraus@gmail.com
  11:.\u8glib_arm_v1.18.1\src/u8g_dev_ssd1322_nhd31oled_gr.c ****   All rights reserved.
  12:.\u8glib_arm_v1.18.1\src/u8g_dev_ssd1322_nhd31oled_gr.c **** 
  13:.\u8glib_arm_v1.18.1\src/u8g_dev_ssd1322_nhd31oled_gr.c ****   Redistribution and use in source and binary forms, with or without modification, 
  14:.\u8glib_arm_v1.18.1\src/u8g_dev_ssd1322_nhd31oled_gr.c ****   are permitted provided that the following conditions are met:
  15:.\u8glib_arm_v1.18.1\src/u8g_dev_ssd1322_nhd31oled_gr.c **** 
  16:.\u8glib_arm_v1.18.1\src/u8g_dev_ssd1322_nhd31oled_gr.c ****   * Redistributions of source code must retain the above copyright notice, this list 
  17:.\u8glib_arm_v1.18.1\src/u8g_dev_ssd1322_nhd31oled_gr.c ****     of conditions and the following disclaimer.
  18:.\u8glib_arm_v1.18.1\src/u8g_dev_ssd1322_nhd31oled_gr.c ****     
  19:.\u8glib_arm_v1.18.1\src/u8g_dev_ssd1322_nhd31oled_gr.c ****   * Redistributions in binary form must reproduce the above copyright notice, this 
  20:.\u8glib_arm_v1.18.1\src/u8g_dev_ssd1322_nhd31oled_gr.c ****     list of conditions and the following disclaimer in the documentation and/or other 
  21:.\u8glib_arm_v1.18.1\src/u8g_dev_ssd1322_nhd31oled_gr.c ****     materials provided with the distribution.
  22:.\u8glib_arm_v1.18.1\src/u8g_dev_ssd1322_nhd31oled_gr.c **** 
  23:.\u8glib_arm_v1.18.1\src/u8g_dev_ssd1322_nhd31oled_gr.c ****   THIS SOFTWARE IS PROVIDED BY THE COPYRIGHT HOLDERS AND 
  24:.\u8glib_arm_v1.18.1\src/u8g_dev_ssd1322_nhd31oled_gr.c ****   CONTRIBUTORS "AS IS" AND ANY EXPRESS OR IMPLIED WARRANTIES, 
  25:.\u8glib_arm_v1.18.1\src/u8g_dev_ssd1322_nhd31oled_gr.c ****   INCLUDING, BUT NOT LIMITED TO, THE IMPLIED WARRANTIES OF 
  26:.\u8glib_arm_v1.18.1\src/u8g_dev_ssd1322_nhd31oled_gr.c ****   MERCHANTABILITY AND FITNESS FOR A PARTICULAR PURPOSE ARE 
  27:.\u8glib_arm_v1.18.1\src/u8g_dev_ssd1322_nhd31oled_gr.c ****   DISCLAIMED. IN NO EVENT SHALL THE COPYRIGHT HOLDER OR 
  28:.\u8glib_arm_v1.18.1\src/u8g_dev_ssd1322_nhd31oled_gr.c ****   CONTRIBUTORS BE LIABLE FOR ANY DIRECT, INDIRECT, INCIDENTAL, 
  29:.\u8glib_arm_v1.18.1\src/u8g_dev_ssd1322_nhd31oled_gr.c ****   SPECIAL, EXEMPLARY, OR CONSEQUENTIAL DAMAGES (INCLUDING, BUT 
  30:.\u8glib_arm_v1.18.1\src/u8g_dev_ssd1322_nhd31oled_gr.c ****   NOT LIMITED TO, PROCUREMENT OF SUBSTITUTE GOODS OR SERVICES; 
  31:.\u8glib_arm_v1.18.1\src/u8g_dev_ssd1322_nhd31oled_gr.c ****   LOSS OF USE, DATA, OR PROFITS; OR BUSINESS INTERRUPTION) HOWEVER 
  32:.\u8glib_arm_v1.18.1\src/u8g_dev_ssd1322_nhd31oled_gr.c ****   CAUSED AND ON ANY THEORY OF LIABILITY, WHETHER IN CONTRACT, 
  33:.\u8glib_arm_v1.18.1\src/u8g_dev_ssd1322_nhd31oled_gr.c ****   STRICT LIABILITY, OR TORT (INCLUDING NEGLIGENCE OR OTHERWISE) 
  34:.\u8glib_arm_v1.18.1\src/u8g_dev_ssd1322_nhd31oled_gr.c ****   ARISING IN ANY WAY OUT OF THE USE OF THIS SOFTWARE, EVEN IF 
  35:.\u8glib_arm_v1.18.1\src/u8g_dev_ssd1322_nhd31oled_gr.c ****   ADVISED OF THE POSSIBILITY OF SUCH DAMAGE.  
  36:.\u8glib_arm_v1.18.1\src/u8g_dev_ssd1322_nhd31oled_gr.c ****   
  37:.\u8glib_arm_v1.18.1\src/u8g_dev_ssd1322_nhd31oled_gr.c ****   SSD130x       Monochrom OLED Controller
  38:.\u8glib_arm_v1.18.1\src/u8g_dev_ssd1322_nhd31oled_gr.c ****   SSD131x       Character OLED Controller
  39:.\u8glib_arm_v1.18.1\src/u8g_dev_ssd1322_nhd31oled_gr.c ****   SSD132x       Graylevel OLED Controller
  40:.\u8glib_arm_v1.18.1\src/u8g_dev_ssd1322_nhd31oled_gr.c ****   SSD1331       Color OLED Controller       
  41:.\u8glib_arm_v1.18.1\src/u8g_dev_ssd1322_nhd31oled_gr.c **** 
  42:.\u8glib_arm_v1.18.1\src/u8g_dev_ssd1322_nhd31oled_gr.c **** */
  43:.\u8glib_arm_v1.18.1\src/u8g_dev_ssd1322_nhd31oled_gr.c **** 
  44:.\u8glib_arm_v1.18.1\src/u8g_dev_ssd1322_nhd31oled_gr.c **** #include "u8g.h"
  45:.\u8glib_arm_v1.18.1\src/u8g_dev_ssd1322_nhd31oled_gr.c **** 
  46:.\u8glib_arm_v1.18.1\src/u8g_dev_ssd1322_nhd31oled_gr.c **** /* width must be multiple of 8, largest value is 248 unless u8g 16 bit mode is enabled */
  47:.\u8glib_arm_v1.18.1\src/u8g_dev_ssd1322_nhd31oled_gr.c **** #if defined(U8G_16BIT)
  48:.\u8glib_arm_v1.18.1\src/u8g_dev_ssd1322_nhd31oled_gr.c **** #define WIDTH 256
  49:.\u8glib_arm_v1.18.1\src/u8g_dev_ssd1322_nhd31oled_gr.c **** #else
  50:.\u8glib_arm_v1.18.1\src/u8g_dev_ssd1322_nhd31oled_gr.c **** #define WIDTH 248
  51:.\u8glib_arm_v1.18.1\src/u8g_dev_ssd1322_nhd31oled_gr.c **** #endif
  52:.\u8glib_arm_v1.18.1\src/u8g_dev_ssd1322_nhd31oled_gr.c **** #define HEIGHT 64
ARM GAS  C:\Users\Shiguruy\AppData\Local\Temp\ccgzv6TA.s 			page 5


  53:.\u8glib_arm_v1.18.1\src/u8g_dev_ssd1322_nhd31oled_gr.c **** //#define PAGE_HEIGHT 8
  54:.\u8glib_arm_v1.18.1\src/u8g_dev_ssd1322_nhd31oled_gr.c **** 
  55:.\u8glib_arm_v1.18.1\src/u8g_dev_ssd1322_nhd31oled_gr.c **** /* 
  56:.\u8glib_arm_v1.18.1\src/u8g_dev_ssd1322_nhd31oled_gr.c ****   http://www.newhavendisplay.com/app_notes/OLED_25664.txt 
  57:.\u8glib_arm_v1.18.1\src/u8g_dev_ssd1322_nhd31oled_gr.c ****   http://www.newhavendisplay.com/forum/viewtopic.php?f=15&t=3758
  58:.\u8glib_arm_v1.18.1\src/u8g_dev_ssd1322_nhd31oled_gr.c **** */
  59:.\u8glib_arm_v1.18.1\src/u8g_dev_ssd1322_nhd31oled_gr.c **** 
  60:.\u8glib_arm_v1.18.1\src/u8g_dev_ssd1322_nhd31oled_gr.c **** static const uint8_t u8g_dev_ssd1322_2bit_nhd_312_init_seq[] PROGMEM = {
  61:.\u8glib_arm_v1.18.1\src/u8g_dev_ssd1322_nhd31oled_gr.c ****   U8G_ESC_DLY(10),              /* delay 10 ms */
  62:.\u8glib_arm_v1.18.1\src/u8g_dev_ssd1322_nhd31oled_gr.c ****   U8G_ESC_CS(0),                 /* disable chip */
  63:.\u8glib_arm_v1.18.1\src/u8g_dev_ssd1322_nhd31oled_gr.c ****   U8G_ESC_ADR(0),               /* instruction mode */
  64:.\u8glib_arm_v1.18.1\src/u8g_dev_ssd1322_nhd31oled_gr.c ****   U8G_ESC_RST(1),               /* do reset low pulse with (1*16)+2 milliseconds */
  65:.\u8glib_arm_v1.18.1\src/u8g_dev_ssd1322_nhd31oled_gr.c ****   U8G_ESC_CS(1),                /* enable chip */
  66:.\u8glib_arm_v1.18.1\src/u8g_dev_ssd1322_nhd31oled_gr.c ****   
  67:.\u8glib_arm_v1.18.1\src/u8g_dev_ssd1322_nhd31oled_gr.c ****   U8G_ESC_DLY(100),             /* delay 100 ms */
  68:.\u8glib_arm_v1.18.1\src/u8g_dev_ssd1322_nhd31oled_gr.c ****   U8G_ESC_DLY(100),             /* delay 100 ms */
  69:.\u8glib_arm_v1.18.1\src/u8g_dev_ssd1322_nhd31oled_gr.c ****   
  70:.\u8glib_arm_v1.18.1\src/u8g_dev_ssd1322_nhd31oled_gr.c ****   U8G_ESC_ADR(0),               	/* instruction mode */
  71:.\u8glib_arm_v1.18.1\src/u8g_dev_ssd1322_nhd31oled_gr.c ****   0x0fd,					/* lock command */
  72:.\u8glib_arm_v1.18.1\src/u8g_dev_ssd1322_nhd31oled_gr.c ****   U8G_ESC_ADR(1),               	/* data mode */
  73:.\u8glib_arm_v1.18.1\src/u8g_dev_ssd1322_nhd31oled_gr.c ****   0x012,					/* unlock */
  74:.\u8glib_arm_v1.18.1\src/u8g_dev_ssd1322_nhd31oled_gr.c ****   
  75:.\u8glib_arm_v1.18.1\src/u8g_dev_ssd1322_nhd31oled_gr.c ****   U8G_ESC_ADR(0),               	/* instruction mode */
  76:.\u8glib_arm_v1.18.1\src/u8g_dev_ssd1322_nhd31oled_gr.c ****   0x0ae,                               	 /* display off, sleep mode */
  77:.\u8glib_arm_v1.18.1\src/u8g_dev_ssd1322_nhd31oled_gr.c ****   
  78:.\u8glib_arm_v1.18.1\src/u8g_dev_ssd1322_nhd31oled_gr.c ****   U8G_ESC_ADR(0),               	/* instruction mode */
  79:.\u8glib_arm_v1.18.1\src/u8g_dev_ssd1322_nhd31oled_gr.c ****   0x0b3, 
  80:.\u8glib_arm_v1.18.1\src/u8g_dev_ssd1322_nhd31oled_gr.c ****   U8G_ESC_ADR(1),               	/* data mode */
  81:.\u8glib_arm_v1.18.1\src/u8g_dev_ssd1322_nhd31oled_gr.c ****   0x091,                    /* set display clock divide ratio/oscillator frequency (set clock as 80
  82:.\u8glib_arm_v1.18.1\src/u8g_dev_ssd1322_nhd31oled_gr.c ****   
  83:.\u8glib_arm_v1.18.1\src/u8g_dev_ssd1322_nhd31oled_gr.c ****   U8G_ESC_ADR(0),               	/* instruction mode */
  84:.\u8glib_arm_v1.18.1\src/u8g_dev_ssd1322_nhd31oled_gr.c ****   0x0ca, 					/* multiplex ratio */
  85:.\u8glib_arm_v1.18.1\src/u8g_dev_ssd1322_nhd31oled_gr.c ****   U8G_ESC_ADR(1),               	/* data mode */
  86:.\u8glib_arm_v1.18.1\src/u8g_dev_ssd1322_nhd31oled_gr.c ****   0x03f,                    		/* 1/64 Duty (0x0F~0x3F) */
  87:.\u8glib_arm_v1.18.1\src/u8g_dev_ssd1322_nhd31oled_gr.c ****   
  88:.\u8glib_arm_v1.18.1\src/u8g_dev_ssd1322_nhd31oled_gr.c ****   U8G_ESC_ADR(0),               	/* instruction mode */
  89:.\u8glib_arm_v1.18.1\src/u8g_dev_ssd1322_nhd31oled_gr.c ****   0x0a2, 
  90:.\u8glib_arm_v1.18.1\src/u8g_dev_ssd1322_nhd31oled_gr.c ****   U8G_ESC_ADR(1),               	/* data mode */
  91:.\u8glib_arm_v1.18.1\src/u8g_dev_ssd1322_nhd31oled_gr.c ****   0x000,                     		/* display offset, shift mapping ram counter */
  92:.\u8glib_arm_v1.18.1\src/u8g_dev_ssd1322_nhd31oled_gr.c **** 
  93:.\u8glib_arm_v1.18.1\src/u8g_dev_ssd1322_nhd31oled_gr.c ****   U8G_ESC_ADR(0),               	/* instruction mode */
  94:.\u8glib_arm_v1.18.1\src/u8g_dev_ssd1322_nhd31oled_gr.c ****   0x0a1, 
  95:.\u8glib_arm_v1.18.1\src/u8g_dev_ssd1322_nhd31oled_gr.c ****   U8G_ESC_ADR(1),               	/* data mode */
  96:.\u8glib_arm_v1.18.1\src/u8g_dev_ssd1322_nhd31oled_gr.c ****   0x000,                     		/* display start line */
  97:.\u8glib_arm_v1.18.1\src/u8g_dev_ssd1322_nhd31oled_gr.c **** 
  98:.\u8glib_arm_v1.18.1\src/u8g_dev_ssd1322_nhd31oled_gr.c ****   U8G_ESC_ADR(0),               	/* instruction mode */
  99:.\u8glib_arm_v1.18.1\src/u8g_dev_ssd1322_nhd31oled_gr.c ****   0x0a0, 					/* Set Re-Map / Dual COM Line Mode */
 100:.\u8glib_arm_v1.18.1\src/u8g_dev_ssd1322_nhd31oled_gr.c ****   U8G_ESC_ADR(1),               	/* data mode */
 101:.\u8glib_arm_v1.18.1\src/u8g_dev_ssd1322_nhd31oled_gr.c ****   0x014, 					/* was 0x014 */                     		
 102:.\u8glib_arm_v1.18.1\src/u8g_dev_ssd1322_nhd31oled_gr.c ****   0x011, 					/* was 0x011 */	
 103:.\u8glib_arm_v1.18.1\src/u8g_dev_ssd1322_nhd31oled_gr.c **** 
 104:.\u8glib_arm_v1.18.1\src/u8g_dev_ssd1322_nhd31oled_gr.c ****   U8G_ESC_ADR(0),               	/* instruction mode */
 105:.\u8glib_arm_v1.18.1\src/u8g_dev_ssd1322_nhd31oled_gr.c ****   0x0ab, 
 106:.\u8glib_arm_v1.18.1\src/u8g_dev_ssd1322_nhd31oled_gr.c ****   U8G_ESC_ADR(1),               	/* data mode */
 107:.\u8glib_arm_v1.18.1\src/u8g_dev_ssd1322_nhd31oled_gr.c ****   0x001,                     		/* Enable Internal VDD Regulator */
 108:.\u8glib_arm_v1.18.1\src/u8g_dev_ssd1322_nhd31oled_gr.c **** 
 109:.\u8glib_arm_v1.18.1\src/u8g_dev_ssd1322_nhd31oled_gr.c ****   U8G_ESC_ADR(0),               	/* instruction mode */
ARM GAS  C:\Users\Shiguruy\AppData\Local\Temp\ccgzv6TA.s 			page 6


 110:.\u8glib_arm_v1.18.1\src/u8g_dev_ssd1322_nhd31oled_gr.c ****   0x0b4, 					/* Display Enhancement A */
 111:.\u8glib_arm_v1.18.1\src/u8g_dev_ssd1322_nhd31oled_gr.c ****   U8G_ESC_ADR(1),               	/* data mode */
 112:.\u8glib_arm_v1.18.1\src/u8g_dev_ssd1322_nhd31oled_gr.c ****   0x0a0,                     		
 113:.\u8glib_arm_v1.18.1\src/u8g_dev_ssd1322_nhd31oled_gr.c ****   0x005|0x0fd,                     		
 114:.\u8glib_arm_v1.18.1\src/u8g_dev_ssd1322_nhd31oled_gr.c ****   
 115:.\u8glib_arm_v1.18.1\src/u8g_dev_ssd1322_nhd31oled_gr.c ****   U8G_ESC_ADR(0),               	/* instruction mode */
 116:.\u8glib_arm_v1.18.1\src/u8g_dev_ssd1322_nhd31oled_gr.c ****   0x0c1,					/* contrast */ 
 117:.\u8glib_arm_v1.18.1\src/u8g_dev_ssd1322_nhd31oled_gr.c ****   U8G_ESC_ADR(1),               	/* data mode */
 118:.\u8glib_arm_v1.18.1\src/u8g_dev_ssd1322_nhd31oled_gr.c ****   0x09f,                     		
 119:.\u8glib_arm_v1.18.1\src/u8g_dev_ssd1322_nhd31oled_gr.c ****   
 120:.\u8glib_arm_v1.18.1\src/u8g_dev_ssd1322_nhd31oled_gr.c ****   U8G_ESC_ADR(0),               	/* instruction mode */
 121:.\u8glib_arm_v1.18.1\src/u8g_dev_ssd1322_nhd31oled_gr.c ****   0x0c7,					/* Set Scale Factor of Segment Output Current Control */ 
 122:.\u8glib_arm_v1.18.1\src/u8g_dev_ssd1322_nhd31oled_gr.c ****   U8G_ESC_ADR(1),               	/* data mode */
 123:.\u8glib_arm_v1.18.1\src/u8g_dev_ssd1322_nhd31oled_gr.c ****   0x00f,                     		
 124:.\u8glib_arm_v1.18.1\src/u8g_dev_ssd1322_nhd31oled_gr.c **** 
 125:.\u8glib_arm_v1.18.1\src/u8g_dev_ssd1322_nhd31oled_gr.c ****   U8G_ESC_ADR(0),               	/* instruction mode */
 126:.\u8glib_arm_v1.18.1\src/u8g_dev_ssd1322_nhd31oled_gr.c ****   0x0b9,                               	 /* linear gray scale */
 127:.\u8glib_arm_v1.18.1\src/u8g_dev_ssd1322_nhd31oled_gr.c **** 
 128:.\u8glib_arm_v1.18.1\src/u8g_dev_ssd1322_nhd31oled_gr.c ****   U8G_ESC_ADR(0),               	/* instruction mode */
 129:.\u8glib_arm_v1.18.1\src/u8g_dev_ssd1322_nhd31oled_gr.c ****   0x0b1,					/* Phase 1 (Reset) & Phase 2 (Pre-Charge) Period Adjustment */ 
 130:.\u8glib_arm_v1.18.1\src/u8g_dev_ssd1322_nhd31oled_gr.c ****   U8G_ESC_ADR(1),               	/* data mode */
 131:.\u8glib_arm_v1.18.1\src/u8g_dev_ssd1322_nhd31oled_gr.c ****   0x0e2,                     		
 132:.\u8glib_arm_v1.18.1\src/u8g_dev_ssd1322_nhd31oled_gr.c **** 
 133:.\u8glib_arm_v1.18.1\src/u8g_dev_ssd1322_nhd31oled_gr.c ****   U8G_ESC_ADR(0),               	/* instruction mode */
 134:.\u8glib_arm_v1.18.1\src/u8g_dev_ssd1322_nhd31oled_gr.c ****   0x0d1, 					/* Display Enhancement B */
 135:.\u8glib_arm_v1.18.1\src/u8g_dev_ssd1322_nhd31oled_gr.c ****   U8G_ESC_ADR(1),               	/* data mode */
 136:.\u8glib_arm_v1.18.1\src/u8g_dev_ssd1322_nhd31oled_gr.c ****   0x082|0x020,                     		
 137:.\u8glib_arm_v1.18.1\src/u8g_dev_ssd1322_nhd31oled_gr.c ****   0x020,                     		
 138:.\u8glib_arm_v1.18.1\src/u8g_dev_ssd1322_nhd31oled_gr.c **** 
 139:.\u8glib_arm_v1.18.1\src/u8g_dev_ssd1322_nhd31oled_gr.c ****   U8G_ESC_ADR(0),               	/* instruction mode */
 140:.\u8glib_arm_v1.18.1\src/u8g_dev_ssd1322_nhd31oled_gr.c ****   0x0bb,					/* precharge  voltage */ 
 141:.\u8glib_arm_v1.18.1\src/u8g_dev_ssd1322_nhd31oled_gr.c ****   U8G_ESC_ADR(1),               	/* data mode */
 142:.\u8glib_arm_v1.18.1\src/u8g_dev_ssd1322_nhd31oled_gr.c ****   0x01f,                     		
 143:.\u8glib_arm_v1.18.1\src/u8g_dev_ssd1322_nhd31oled_gr.c ****   
 144:.\u8glib_arm_v1.18.1\src/u8g_dev_ssd1322_nhd31oled_gr.c ****   U8G_ESC_ADR(0),               	/* instruction mode */
 145:.\u8glib_arm_v1.18.1\src/u8g_dev_ssd1322_nhd31oled_gr.c ****   0x0b6,					/* precharge period */ 
 146:.\u8glib_arm_v1.18.1\src/u8g_dev_ssd1322_nhd31oled_gr.c ****   U8G_ESC_ADR(1),               	/* data mode */
 147:.\u8glib_arm_v1.18.1\src/u8g_dev_ssd1322_nhd31oled_gr.c ****   0x008,                     		
 148:.\u8glib_arm_v1.18.1\src/u8g_dev_ssd1322_nhd31oled_gr.c **** 
 149:.\u8glib_arm_v1.18.1\src/u8g_dev_ssd1322_nhd31oled_gr.c ****   U8G_ESC_ADR(0),               	/* instruction mode */
 150:.\u8glib_arm_v1.18.1\src/u8g_dev_ssd1322_nhd31oled_gr.c ****   0x0be,					/* vcomh */ 
 151:.\u8glib_arm_v1.18.1\src/u8g_dev_ssd1322_nhd31oled_gr.c ****   U8G_ESC_ADR(1),               	/* data mode */
 152:.\u8glib_arm_v1.18.1\src/u8g_dev_ssd1322_nhd31oled_gr.c ****   0x007,                     		
 153:.\u8glib_arm_v1.18.1\src/u8g_dev_ssd1322_nhd31oled_gr.c **** 
 154:.\u8glib_arm_v1.18.1\src/u8g_dev_ssd1322_nhd31oled_gr.c ****   U8G_ESC_ADR(0),               	/* instruction mode */
 155:.\u8glib_arm_v1.18.1\src/u8g_dev_ssd1322_nhd31oled_gr.c ****   0x0a6,                               	 /* normal display */
 156:.\u8glib_arm_v1.18.1\src/u8g_dev_ssd1322_nhd31oled_gr.c **** 
 157:.\u8glib_arm_v1.18.1\src/u8g_dev_ssd1322_nhd31oled_gr.c ****   U8G_ESC_ADR(0),               	/* instruction mode */
 158:.\u8glib_arm_v1.18.1\src/u8g_dev_ssd1322_nhd31oled_gr.c ****   0x0a9,                               	 /* exit partial display */
 159:.\u8glib_arm_v1.18.1\src/u8g_dev_ssd1322_nhd31oled_gr.c **** 
 160:.\u8glib_arm_v1.18.1\src/u8g_dev_ssd1322_nhd31oled_gr.c ****   U8G_ESC_ADR(0),               	/* instruction mode */
 161:.\u8glib_arm_v1.18.1\src/u8g_dev_ssd1322_nhd31oled_gr.c ****   0x0af,                               	 /* display on */
 162:.\u8glib_arm_v1.18.1\src/u8g_dev_ssd1322_nhd31oled_gr.c **** 
 163:.\u8glib_arm_v1.18.1\src/u8g_dev_ssd1322_nhd31oled_gr.c **** 
 164:.\u8glib_arm_v1.18.1\src/u8g_dev_ssd1322_nhd31oled_gr.c ****   U8G_ESC_CS(0),             /* disable chip */
 165:.\u8glib_arm_v1.18.1\src/u8g_dev_ssd1322_nhd31oled_gr.c ****   U8G_ESC_END                /* end of sequence */
 166:.\u8glib_arm_v1.18.1\src/u8g_dev_ssd1322_nhd31oled_gr.c **** };
ARM GAS  C:\Users\Shiguruy\AppData\Local\Temp\ccgzv6TA.s 			page 7


 167:.\u8glib_arm_v1.18.1\src/u8g_dev_ssd1322_nhd31oled_gr.c **** 
 168:.\u8glib_arm_v1.18.1\src/u8g_dev_ssd1322_nhd31oled_gr.c **** static const uint8_t u8g_dev_ssd1322_2bit_nhd_312_prepare_page_seq[] PROGMEM = {
 169:.\u8glib_arm_v1.18.1\src/u8g_dev_ssd1322_nhd31oled_gr.c ****   U8G_ESC_ADR(0),               /* instruction mode */
 170:.\u8glib_arm_v1.18.1\src/u8g_dev_ssd1322_nhd31oled_gr.c ****   U8G_ESC_CS(1),                /* enable chip */
 171:.\u8glib_arm_v1.18.1\src/u8g_dev_ssd1322_nhd31oled_gr.c ****   0x015,       /* column address... */
 172:.\u8glib_arm_v1.18.1\src/u8g_dev_ssd1322_nhd31oled_gr.c ****   U8G_ESC_ADR(1),               /* data mode */
 173:.\u8glib_arm_v1.18.1\src/u8g_dev_ssd1322_nhd31oled_gr.c ****   0x01c,       /* start at column 0 */
 174:.\u8glib_arm_v1.18.1\src/u8g_dev_ssd1322_nhd31oled_gr.c ****   0x05b,       /* end column */
 175:.\u8glib_arm_v1.18.1\src/u8g_dev_ssd1322_nhd31oled_gr.c ****   U8G_ESC_ADR(0),               /* instruction mode */
 176:.\u8glib_arm_v1.18.1\src/u8g_dev_ssd1322_nhd31oled_gr.c ****   0x075,       /* row address... */
 177:.\u8glib_arm_v1.18.1\src/u8g_dev_ssd1322_nhd31oled_gr.c ****   U8G_ESC_ADR(1),               /* data mode */
 178:.\u8glib_arm_v1.18.1\src/u8g_dev_ssd1322_nhd31oled_gr.c ****   U8G_ESC_END                /* end of sequence */
 179:.\u8glib_arm_v1.18.1\src/u8g_dev_ssd1322_nhd31oled_gr.c **** };
 180:.\u8glib_arm_v1.18.1\src/u8g_dev_ssd1322_nhd31oled_gr.c **** 
 181:.\u8glib_arm_v1.18.1\src/u8g_dev_ssd1322_nhd31oled_gr.c **** static void u8g_dev_ssd1322_2bit_prepare_row(u8g_t *u8g, u8g_dev_t *dev, uint8_t delta_row)
 182:.\u8glib_arm_v1.18.1\src/u8g_dev_ssd1322_nhd31oled_gr.c **** {
 177              		.loc 1 182 0
 178              		.cfi_startproc
 179              		@ args = 0, pretend = 0, frame = 24
 180              		@ frame_needed = 1, uses_anonymous_args = 0
 181 0000 80B5     		push	{r7, lr}
 182              		.cfi_def_cfa_offset 8
 183              		.cfi_offset 7, -8
 184              		.cfi_offset 14, -4
 185 0002 86B0     		sub	sp, sp, #24
 186              		.cfi_def_cfa_offset 32
 187 0004 00AF     		add	r7, sp, #0
 188              		.cfi_def_cfa_register 7
 189 0006 F860     		str	r0, [r7, #12]
 190 0008 B960     		str	r1, [r7, #8]
 191 000a 1346     		mov	r3, r2
 192 000c FB71     		strb	r3, [r7, #7]
 183:.\u8glib_arm_v1.18.1\src/u8g_dev_ssd1322_nhd31oled_gr.c ****   uint8_t row = ((u8g_pb_t *)(dev->dev_mem))->p.page;
 193              		.loc 1 183 0
 194 000e BB68     		ldr	r3, [r7, #8]
 195 0010 5B68     		ldr	r3, [r3, #4]
 196 0012 1B79     		ldrb	r3, [r3, #4]
 197 0014 FB75     		strb	r3, [r7, #23]
 184:.\u8glib_arm_v1.18.1\src/u8g_dev_ssd1322_nhd31oled_gr.c ****   
 185:.\u8glib_arm_v1.18.1\src/u8g_dev_ssd1322_nhd31oled_gr.c ****   row *= ((u8g_pb_t *)(dev->dev_mem))->p.page_height;
 198              		.loc 1 185 0
 199 0016 BB68     		ldr	r3, [r7, #8]
 200 0018 5B68     		ldr	r3, [r3, #4]
 201 001a 1B78     		ldrb	r3, [r3]	@ zero_extendqisi2
 202 001c FA7D     		ldrb	r2, [r7, #23]
 203 001e 02FB03F3 		mul	r3, r2, r3
 204 0022 FB75     		strb	r3, [r7, #23]
 186:.\u8glib_arm_v1.18.1\src/u8g_dev_ssd1322_nhd31oled_gr.c ****   row += delta_row;
 205              		.loc 1 186 0
 206 0024 FA7D     		ldrb	r2, [r7, #23]
 207 0026 FB79     		ldrb	r3, [r7, #7]
 208 0028 1344     		add	r3, r3, r2
 209 002a FB75     		strb	r3, [r7, #23]
 187:.\u8glib_arm_v1.18.1\src/u8g_dev_ssd1322_nhd31oled_gr.c ****   
 188:.\u8glib_arm_v1.18.1\src/u8g_dev_ssd1322_nhd31oled_gr.c ****   u8g_WriteEscSeqP(u8g, dev, u8g_dev_ssd1322_2bit_nhd_312_prepare_page_seq);
 210              		.loc 1 188 0
 211 002c F868     		ldr	r0, [r7, #12]
ARM GAS  C:\Users\Shiguruy\AppData\Local\Temp\ccgzv6TA.s 			page 8


 212 002e B968     		ldr	r1, [r7, #8]
 213 0030 114A     		ldr	r2, .L2
 214 0032 FFF7FEFF 		bl	u8g_WriteEscSeqP
 189:.\u8glib_arm_v1.18.1\src/u8g_dev_ssd1322_nhd31oled_gr.c ****   
 190:.\u8glib_arm_v1.18.1\src/u8g_dev_ssd1322_nhd31oled_gr.c ****   u8g_WriteByte(u8g, dev, row);       /* start at the selected row */
 215              		.loc 1 190 0
 216 0036 FB7D     		ldrb	r3, [r7, #23]	@ zero_extendqisi2
 217 0038 F868     		ldr	r0, [r7, #12]
 218 003a B968     		ldr	r1, [r7, #8]
 219 003c 1A46     		mov	r2, r3
 220 003e FFF7FEFF 		bl	u8g_WriteByte
 191:.\u8glib_arm_v1.18.1\src/u8g_dev_ssd1322_nhd31oled_gr.c ****   u8g_WriteByte(u8g, dev, row+1);       /* end within the selected row */  
 221              		.loc 1 191 0
 222 0042 FB7D     		ldrb	r3, [r7, #23]
 223 0044 0133     		adds	r3, r3, #1
 224 0046 DBB2     		uxtb	r3, r3
 225 0048 F868     		ldr	r0, [r7, #12]
 226 004a B968     		ldr	r1, [r7, #8]
 227 004c 1A46     		mov	r2, r3
 228 004e FFF7FEFF 		bl	u8g_WriteByte
 192:.\u8glib_arm_v1.18.1\src/u8g_dev_ssd1322_nhd31oled_gr.c ****   
 193:.\u8glib_arm_v1.18.1\src/u8g_dev_ssd1322_nhd31oled_gr.c ****   u8g_SetAddress(u8g, dev, 0);          /* instruction mode mode */
 229              		.loc 1 193 0
 230 0052 F868     		ldr	r0, [r7, #12]
 231 0054 B968     		ldr	r1, [r7, #8]
 232 0056 0022     		movs	r2, #0
 233 0058 FFF7FEFF 		bl	u8g_SetAddress
 194:.\u8glib_arm_v1.18.1\src/u8g_dev_ssd1322_nhd31oled_gr.c ****   u8g_WriteByte(u8g, dev, 0x05c);       /* write to ram */  
 234              		.loc 1 194 0
 235 005c F868     		ldr	r0, [r7, #12]
 236 005e B968     		ldr	r1, [r7, #8]
 237 0060 5C22     		movs	r2, #92
 238 0062 FFF7FEFF 		bl	u8g_WriteByte
 195:.\u8glib_arm_v1.18.1\src/u8g_dev_ssd1322_nhd31oled_gr.c ****   u8g_SetAddress(u8g, dev, 1);          /* data mode */
 239              		.loc 1 195 0
 240 0066 F868     		ldr	r0, [r7, #12]
 241 0068 B968     		ldr	r1, [r7, #8]
 242 006a 0122     		movs	r2, #1
 243 006c FFF7FEFF 		bl	u8g_SetAddress
 196:.\u8glib_arm_v1.18.1\src/u8g_dev_ssd1322_nhd31oled_gr.c **** }
 244              		.loc 1 196 0
 245 0070 1837     		adds	r7, r7, #24
 246              		.cfi_def_cfa_offset 8
 247 0072 BD46     		mov	sp, r7
 248              		.cfi_def_cfa_register 13
 249              		@ sp needed
 250 0074 80BD     		pop	{r7, pc}
 251              	.L3:
 252 0076 00BF     		.align	2
 253              	.L2:
 254 0078 80000000 		.word	u8g_dev_ssd1322_2bit_nhd_312_prepare_page_seq
 255              		.cfi_endproc
 256              	.LFE0:
 257              		.size	u8g_dev_ssd1322_2bit_prepare_row, .-u8g_dev_ssd1322_2bit_prepare_row
 258              		.section	.rodata
 259              		.align	2
 260              		.type	u8g_dev_ssd13xx_sleep_on, %object
ARM GAS  C:\Users\Shiguruy\AppData\Local\Temp\ccgzv6TA.s 			page 9


 261              		.size	u8g_dev_ssd13xx_sleep_on, 9
 262              	u8g_dev_ssd13xx_sleep_on:
 263 0090 FF       		.byte	-1
 264 0091 E0       		.byte	-32
 265 0092 FF       		.byte	-1
 266 0093 D1       		.byte	-47
 267 0094 AE       		.byte	-82
 268 0095 FF       		.byte	-1
 269 0096 D0       		.byte	-48
 270 0097 FF       		.byte	-1
 271 0098 FE       		.byte	-2
 272 0099 000000   		.align	2
 273              		.type	u8g_dev_ssd13xx_sleep_off, %object
 274              		.size	u8g_dev_ssd13xx_sleep_off, 11
 275              	u8g_dev_ssd13xx_sleep_off:
 276 009c FF       		.byte	-1
 277 009d E0       		.byte	-32
 278 009e FF       		.byte	-1
 279 009f D1       		.byte	-47
 280 00a0 AF       		.byte	-81
 281 00a1 FF       		.byte	-1
 282 00a2 32       		.byte	50
 283 00a3 FF       		.byte	-1
 284 00a4 D0       		.byte	-48
 285 00a5 FF       		.byte	-1
 286 00a6 FE       		.byte	-2
 287 00a7 00       		.section	.text.u8g_dev_ssd1322_nhd31oled_gr_fn,"ax",%progbits
 288              		.align	2
 289              		.global	u8g_dev_ssd1322_nhd31oled_gr_fn
 290              		.thumb
 291              		.thumb_func
 292              		.type	u8g_dev_ssd1322_nhd31oled_gr_fn, %function
 293              	u8g_dev_ssd1322_nhd31oled_gr_fn:
 294              	.LFB1:
 197:.\u8glib_arm_v1.18.1\src/u8g_dev_ssd1322_nhd31oled_gr.c **** 
 198:.\u8glib_arm_v1.18.1\src/u8g_dev_ssd1322_nhd31oled_gr.c **** static const uint8_t u8g_dev_ssd13xx_sleep_on[] PROGMEM = {
 199:.\u8glib_arm_v1.18.1\src/u8g_dev_ssd1322_nhd31oled_gr.c ****   U8G_ESC_ADR(0),           /* instruction mode */
 200:.\u8glib_arm_v1.18.1\src/u8g_dev_ssd1322_nhd31oled_gr.c ****   U8G_ESC_CS(1),             /* enable chip */
 201:.\u8glib_arm_v1.18.1\src/u8g_dev_ssd1322_nhd31oled_gr.c ****   0x0ae,		/* display off */      
 202:.\u8glib_arm_v1.18.1\src/u8g_dev_ssd1322_nhd31oled_gr.c ****   U8G_ESC_CS(0),             /* disable chip, bugfix 12 nov 2014 */
 203:.\u8glib_arm_v1.18.1\src/u8g_dev_ssd1322_nhd31oled_gr.c ****   U8G_ESC_END                /* end of sequence */
 204:.\u8glib_arm_v1.18.1\src/u8g_dev_ssd1322_nhd31oled_gr.c **** };
 205:.\u8glib_arm_v1.18.1\src/u8g_dev_ssd1322_nhd31oled_gr.c **** 
 206:.\u8glib_arm_v1.18.1\src/u8g_dev_ssd1322_nhd31oled_gr.c **** static const uint8_t u8g_dev_ssd13xx_sleep_off[] PROGMEM = {
 207:.\u8glib_arm_v1.18.1\src/u8g_dev_ssd1322_nhd31oled_gr.c ****   U8G_ESC_ADR(0),           /* instruction mode */
 208:.\u8glib_arm_v1.18.1\src/u8g_dev_ssd1322_nhd31oled_gr.c ****   U8G_ESC_CS(1),             /* enable chip */
 209:.\u8glib_arm_v1.18.1\src/u8g_dev_ssd1322_nhd31oled_gr.c ****   0x0af,		/* display on */      
 210:.\u8glib_arm_v1.18.1\src/u8g_dev_ssd1322_nhd31oled_gr.c ****   U8G_ESC_DLY(50),       /* delay 50 ms */
 211:.\u8glib_arm_v1.18.1\src/u8g_dev_ssd1322_nhd31oled_gr.c ****   U8G_ESC_CS(0),             /* disable chip, bugfix 12 nov 2014 */
 212:.\u8glib_arm_v1.18.1\src/u8g_dev_ssd1322_nhd31oled_gr.c ****   U8G_ESC_END                /* end of sequence */
 213:.\u8glib_arm_v1.18.1\src/u8g_dev_ssd1322_nhd31oled_gr.c **** };
 214:.\u8glib_arm_v1.18.1\src/u8g_dev_ssd1322_nhd31oled_gr.c **** 
 215:.\u8glib_arm_v1.18.1\src/u8g_dev_ssd1322_nhd31oled_gr.c **** uint8_t u8g_dev_ssd1322_nhd31oled_gr_fn(u8g_t *u8g, u8g_dev_t *dev, uint8_t msg, void *arg)
 216:.\u8glib_arm_v1.18.1\src/u8g_dev_ssd1322_nhd31oled_gr.c **** {
 295              		.loc 1 216 0
 296              		.cfi_startproc
 297              		@ args = 0, pretend = 0, frame = 32
ARM GAS  C:\Users\Shiguruy\AppData\Local\Temp\ccgzv6TA.s 			page 10


 298              		@ frame_needed = 1, uses_anonymous_args = 0
 299 0000 80B5     		push	{r7, lr}
 300              		.cfi_def_cfa_offset 8
 301              		.cfi_offset 7, -8
 302              		.cfi_offset 14, -4
 303 0002 88B0     		sub	sp, sp, #32
 304              		.cfi_def_cfa_offset 40
 305 0004 00AF     		add	r7, sp, #0
 306              		.cfi_def_cfa_register 7
 307 0006 F860     		str	r0, [r7, #12]
 308 0008 B960     		str	r1, [r7, #8]
 309 000a 3B60     		str	r3, [r7]
 310 000c 1346     		mov	r3, r2
 311 000e FB71     		strb	r3, [r7, #7]
 217:.\u8glib_arm_v1.18.1\src/u8g_dev_ssd1322_nhd31oled_gr.c ****   switch(msg)
 312              		.loc 1 217 0
 313 0010 FB79     		ldrb	r3, [r7, #7]	@ zero_extendqisi2
 314 0012 0A3B     		subs	r3, r3, #10
 315 0014 0B2B     		cmp	r3, #11
 316 0016 00F29D80 		bhi	.L5
 317 001a 01A2     		adr	r2, .L7
 318 001c 52F823F0 		ldr	pc, [r2, r3, lsl #2]
 319              		.p2align 2
 320              	.L7:
 321 0020 51000000 		.word	.L6+1
 322 0024 55010000 		.word	.L5+1
 323 0028 55010000 		.word	.L5+1
 324 002c 55010000 		.word	.L5+1
 325 0030 55010000 		.word	.L5+1
 326 0034 EF000000 		.word	.L9+1
 327 0038 39010000 		.word	.L10+1
 328 003c 47010000 		.word	.L11+1
 329 0040 55010000 		.word	.L5+1
 330 0044 55010000 		.word	.L5+1
 331 0048 55010000 		.word	.L5+1
 332 004c 67000000 		.word	.L12+1
 333              		.p2align 1
 334              	.L6:
 218:.\u8glib_arm_v1.18.1\src/u8g_dev_ssd1322_nhd31oled_gr.c ****   {
 219:.\u8glib_arm_v1.18.1\src/u8g_dev_ssd1322_nhd31oled_gr.c ****     case U8G_DEV_MSG_INIT:
 220:.\u8glib_arm_v1.18.1\src/u8g_dev_ssd1322_nhd31oled_gr.c ****       u8g_InitCom(u8g, dev, U8G_SPI_CLK_CYCLE_300NS);
 335              		.loc 1 220 0
 336 0050 F868     		ldr	r0, [r7, #12]
 337 0052 B968     		ldr	r1, [r7, #8]
 338 0054 0222     		movs	r2, #2
 339 0056 FFF7FEFF 		bl	u8g_InitCom
 221:.\u8glib_arm_v1.18.1\src/u8g_dev_ssd1322_nhd31oled_gr.c ****       u8g_WriteEscSeqP(u8g, dev, u8g_dev_ssd1322_2bit_nhd_312_init_seq);
 340              		.loc 1 221 0
 341 005a F868     		ldr	r0, [r7, #12]
 342 005c B968     		ldr	r1, [r7, #8]
 343 005e 434A     		ldr	r2, .L16
 344 0060 FFF7FEFF 		bl	u8g_WriteEscSeqP
 222:.\u8glib_arm_v1.18.1\src/u8g_dev_ssd1322_nhd31oled_gr.c ****       break;
 345              		.loc 1 222 0
 346 0064 76E0     		b	.L5
 347              	.L12:
 348              	.LBB2:
ARM GAS  C:\Users\Shiguruy\AppData\Local\Temp\ccgzv6TA.s 			page 11


 223:.\u8glib_arm_v1.18.1\src/u8g_dev_ssd1322_nhd31oled_gr.c ****     case U8G_DEV_MSG_STOP:
 224:.\u8glib_arm_v1.18.1\src/u8g_dev_ssd1322_nhd31oled_gr.c ****       break;
 225:.\u8glib_arm_v1.18.1\src/u8g_dev_ssd1322_nhd31oled_gr.c ****     case U8G_DEV_MSG_PAGE_NEXT:
 226:.\u8glib_arm_v1.18.1\src/u8g_dev_ssd1322_nhd31oled_gr.c ****       {
 227:.\u8glib_arm_v1.18.1\src/u8g_dev_ssd1322_nhd31oled_gr.c **** 	uint8_t i;
 228:.\u8glib_arm_v1.18.1\src/u8g_dev_ssd1322_nhd31oled_gr.c **** 	u8g_pb_t *pb = (u8g_pb_t *)(dev->dev_mem);
 349              		.loc 1 228 0
 350 0066 BB68     		ldr	r3, [r7, #8]
 351 0068 5B68     		ldr	r3, [r3, #4]
 352 006a 7B61     		str	r3, [r7, #20]
 229:.\u8glib_arm_v1.18.1\src/u8g_dev_ssd1322_nhd31oled_gr.c **** 	uint8_t *p = pb->buf;
 353              		.loc 1 229 0
 354 006c 7B69     		ldr	r3, [r7, #20]
 355 006e 9B68     		ldr	r3, [r3, #8]
 356 0070 BB61     		str	r3, [r7, #24]
 230:.\u8glib_arm_v1.18.1\src/u8g_dev_ssd1322_nhd31oled_gr.c **** 	u8g_uint_t cnt;
 231:.\u8glib_arm_v1.18.1\src/u8g_dev_ssd1322_nhd31oled_gr.c **** 	cnt = pb->width;
 357              		.loc 1 231 0
 358 0072 7B69     		ldr	r3, [r7, #20]
 359 0074 5B79     		ldrb	r3, [r3, #5]
 360 0076 FB74     		strb	r3, [r7, #19]
 232:.\u8glib_arm_v1.18.1\src/u8g_dev_ssd1322_nhd31oled_gr.c **** 	cnt >>= 2;
 361              		.loc 1 232 0
 362 0078 FB7C     		ldrb	r3, [r7, #19]	@ zero_extendqisi2
 363 007a 9B08     		lsrs	r3, r3, #2
 364 007c FB74     		strb	r3, [r7, #19]
 233:.\u8glib_arm_v1.18.1\src/u8g_dev_ssd1322_nhd31oled_gr.c **** 
 234:.\u8glib_arm_v1.18.1\src/u8g_dev_ssd1322_nhd31oled_gr.c **** 	for( i = 0; i < pb->p.page_height; i++ )
 365              		.loc 1 234 0
 366 007e 0023     		movs	r3, #0
 367 0080 FB77     		strb	r3, [r7, #31]
 368 0082 2EE0     		b	.L13
 369              	.L14:
 235:.\u8glib_arm_v1.18.1\src/u8g_dev_ssd1322_nhd31oled_gr.c **** 	{
 236:.\u8glib_arm_v1.18.1\src/u8g_dev_ssd1322_nhd31oled_gr.c **** 	  u8g_dev_ssd1322_2bit_prepare_row(u8g, dev, i);  /* this will also enable chip select */
 370              		.loc 1 236 0 discriminator 3
 371 0084 FB7F     		ldrb	r3, [r7, #31]	@ zero_extendqisi2
 372 0086 F868     		ldr	r0, [r7, #12]
 373 0088 B968     		ldr	r1, [r7, #8]
 374 008a 1A46     		mov	r2, r3
 375 008c FFF7FEFF 		bl	u8g_dev_ssd1322_2bit_prepare_row
 237:.\u8glib_arm_v1.18.1\src/u8g_dev_ssd1322_nhd31oled_gr.c **** #if !defined(U8G_16BIT)
 238:.\u8glib_arm_v1.18.1\src/u8g_dev_ssd1322_nhd31oled_gr.c **** 	  u8g_WriteByte(u8g, dev, 0x00);
 376              		.loc 1 238 0 discriminator 3
 377 0090 F868     		ldr	r0, [r7, #12]
 378 0092 B968     		ldr	r1, [r7, #8]
 379 0094 0022     		movs	r2, #0
 380 0096 FFF7FEFF 		bl	u8g_WriteByte
 239:.\u8glib_arm_v1.18.1\src/u8g_dev_ssd1322_nhd31oled_gr.c **** 	  u8g_WriteByte(u8g, dev, 0x00);
 381              		.loc 1 239 0 discriminator 3
 382 009a F868     		ldr	r0, [r7, #12]
 383 009c B968     		ldr	r1, [r7, #8]
 384 009e 0022     		movs	r2, #0
 385 00a0 FFF7FEFF 		bl	u8g_WriteByte
 240:.\u8glib_arm_v1.18.1\src/u8g_dev_ssd1322_nhd31oled_gr.c **** #endif
 241:.\u8glib_arm_v1.18.1\src/u8g_dev_ssd1322_nhd31oled_gr.c **** 	  u8g_WriteSequence4LTo16GrDevice(u8g, dev, cnt, p);
 386              		.loc 1 241 0 discriminator 3
ARM GAS  C:\Users\Shiguruy\AppData\Local\Temp\ccgzv6TA.s 			page 12


 387 00a4 FB7C     		ldrb	r3, [r7, #19]	@ zero_extendqisi2
 388 00a6 F868     		ldr	r0, [r7, #12]
 389 00a8 B968     		ldr	r1, [r7, #8]
 390 00aa 1A46     		mov	r2, r3
 391 00ac BB69     		ldr	r3, [r7, #24]
 392 00ae FFF7FEFF 		bl	u8g_WriteSequence4LTo16GrDevice
 242:.\u8glib_arm_v1.18.1\src/u8g_dev_ssd1322_nhd31oled_gr.c **** #if !defined(U8G_16BIT)
 243:.\u8glib_arm_v1.18.1\src/u8g_dev_ssd1322_nhd31oled_gr.c **** 	  u8g_WriteByte(u8g, dev, 0x00);
 393              		.loc 1 243 0 discriminator 3
 394 00b2 F868     		ldr	r0, [r7, #12]
 395 00b4 B968     		ldr	r1, [r7, #8]
 396 00b6 0022     		movs	r2, #0
 397 00b8 FFF7FEFF 		bl	u8g_WriteByte
 244:.\u8glib_arm_v1.18.1\src/u8g_dev_ssd1322_nhd31oled_gr.c **** 	  u8g_WriteByte(u8g, dev, 0x00);
 398              		.loc 1 244 0 discriminator 3
 399 00bc F868     		ldr	r0, [r7, #12]
 400 00be B968     		ldr	r1, [r7, #8]
 401 00c0 0022     		movs	r2, #0
 402 00c2 FFF7FEFF 		bl	u8g_WriteByte
 245:.\u8glib_arm_v1.18.1\src/u8g_dev_ssd1322_nhd31oled_gr.c **** #endif
 246:.\u8glib_arm_v1.18.1\src/u8g_dev_ssd1322_nhd31oled_gr.c **** 	  u8g_MicroDelay();	// for DUE?
 403              		.loc 1 246 0 discriminator 3
 404 00c6 FFF7FEFF 		bl	u8g_MicroDelay
 247:.\u8glib_arm_v1.18.1\src/u8g_dev_ssd1322_nhd31oled_gr.c **** 	  u8g_SetChipSelect(u8g, dev, 0);        
 405              		.loc 1 247 0 discriminator 3
 406 00ca F868     		ldr	r0, [r7, #12]
 407 00cc B968     		ldr	r1, [r7, #8]
 408 00ce 0022     		movs	r2, #0
 409 00d0 FFF7FEFF 		bl	u8g_SetChipSelect
 248:.\u8glib_arm_v1.18.1\src/u8g_dev_ssd1322_nhd31oled_gr.c **** 	  p+=cnt;
 410              		.loc 1 248 0 discriminator 3
 411 00d4 FB7C     		ldrb	r3, [r7, #19]	@ zero_extendqisi2
 412 00d6 BA69     		ldr	r2, [r7, #24]
 413 00d8 1344     		add	r3, r3, r2
 414 00da BB61     		str	r3, [r7, #24]
 234:.\u8glib_arm_v1.18.1\src/u8g_dev_ssd1322_nhd31oled_gr.c **** 	{
 415              		.loc 1 234 0 discriminator 3
 416 00dc FB7F     		ldrb	r3, [r7, #31]	@ zero_extendqisi2
 417 00de 0133     		adds	r3, r3, #1
 418 00e0 FB77     		strb	r3, [r7, #31]
 419              	.L13:
 234:.\u8glib_arm_v1.18.1\src/u8g_dev_ssd1322_nhd31oled_gr.c **** 	{
 420              		.loc 1 234 0 is_stmt 0 discriminator 1
 421 00e2 7B69     		ldr	r3, [r7, #20]
 422 00e4 1B78     		ldrb	r3, [r3]	@ zero_extendqisi2
 423 00e6 FA7F     		ldrb	r2, [r7, #31]	@ zero_extendqisi2
 424 00e8 9A42     		cmp	r2, r3
 425 00ea CBD3     		bcc	.L14
 426              	.LBE2:
 249:.\u8glib_arm_v1.18.1\src/u8g_dev_ssd1322_nhd31oled_gr.c **** 	}
 250:.\u8glib_arm_v1.18.1\src/u8g_dev_ssd1322_nhd31oled_gr.c ****       }
 251:.\u8glib_arm_v1.18.1\src/u8g_dev_ssd1322_nhd31oled_gr.c ****       break;
 427              		.loc 1 251 0 is_stmt 1
 428 00ec 32E0     		b	.L5
 429              	.L9:
 252:.\u8glib_arm_v1.18.1\src/u8g_dev_ssd1322_nhd31oled_gr.c ****     case U8G_DEV_MSG_CONTRAST:
 253:.\u8glib_arm_v1.18.1\src/u8g_dev_ssd1322_nhd31oled_gr.c ****       u8g_SetChipSelect(u8g, dev, 1);
ARM GAS  C:\Users\Shiguruy\AppData\Local\Temp\ccgzv6TA.s 			page 13


 430              		.loc 1 253 0
 431 00ee F868     		ldr	r0, [r7, #12]
 432 00f0 B968     		ldr	r1, [r7, #8]
 433 00f2 0122     		movs	r2, #1
 434 00f4 FFF7FEFF 		bl	u8g_SetChipSelect
 254:.\u8glib_arm_v1.18.1\src/u8g_dev_ssd1322_nhd31oled_gr.c ****       u8g_SetAddress(u8g, dev, 0);          /* instruction mode */
 435              		.loc 1 254 0
 436 00f8 F868     		ldr	r0, [r7, #12]
 437 00fa B968     		ldr	r1, [r7, #8]
 438 00fc 0022     		movs	r2, #0
 439 00fe FFF7FEFF 		bl	u8g_SetAddress
 255:.\u8glib_arm_v1.18.1\src/u8g_dev_ssd1322_nhd31oled_gr.c ****       u8g_WriteByte(u8g, dev, 0x081);
 440              		.loc 1 255 0
 441 0102 F868     		ldr	r0, [r7, #12]
 442 0104 B968     		ldr	r1, [r7, #8]
 443 0106 8122     		movs	r2, #129
 444 0108 FFF7FEFF 		bl	u8g_WriteByte
 256:.\u8glib_arm_v1.18.1\src/u8g_dev_ssd1322_nhd31oled_gr.c ****       u8g_SetAddress(u8g, dev, 1);          /* data mode */
 445              		.loc 1 256 0
 446 010c F868     		ldr	r0, [r7, #12]
 447 010e B968     		ldr	r1, [r7, #8]
 448 0110 0122     		movs	r2, #1
 449 0112 FFF7FEFF 		bl	u8g_SetAddress
 257:.\u8glib_arm_v1.18.1\src/u8g_dev_ssd1322_nhd31oled_gr.c ****       u8g_WriteByte(u8g, dev, (*(uint8_t *)arg) >> 1);
 450              		.loc 1 257 0
 451 0116 3B68     		ldr	r3, [r7]
 452 0118 1B78     		ldrb	r3, [r3]	@ zero_extendqisi2
 453 011a 5B08     		lsrs	r3, r3, #1
 454 011c DBB2     		uxtb	r3, r3
 455 011e F868     		ldr	r0, [r7, #12]
 456 0120 B968     		ldr	r1, [r7, #8]
 457 0122 1A46     		mov	r2, r3
 458 0124 FFF7FEFF 		bl	u8g_WriteByte
 258:.\u8glib_arm_v1.18.1\src/u8g_dev_ssd1322_nhd31oled_gr.c ****       u8g_MicroDelay();	// for DUE?
 459              		.loc 1 258 0
 460 0128 FFF7FEFF 		bl	u8g_MicroDelay
 259:.\u8glib_arm_v1.18.1\src/u8g_dev_ssd1322_nhd31oled_gr.c ****       u8g_SetChipSelect(u8g, dev, 0);      
 461              		.loc 1 259 0
 462 012c F868     		ldr	r0, [r7, #12]
 463 012e B968     		ldr	r1, [r7, #8]
 464 0130 0022     		movs	r2, #0
 465 0132 FFF7FEFF 		bl	u8g_SetChipSelect
 260:.\u8glib_arm_v1.18.1\src/u8g_dev_ssd1322_nhd31oled_gr.c ****       break;
 466              		.loc 1 260 0
 467 0136 0DE0     		b	.L5
 468              	.L10:
 261:.\u8glib_arm_v1.18.1\src/u8g_dev_ssd1322_nhd31oled_gr.c ****     case U8G_DEV_MSG_SLEEP_ON:
 262:.\u8glib_arm_v1.18.1\src/u8g_dev_ssd1322_nhd31oled_gr.c ****       u8g_WriteEscSeqP(u8g, dev, u8g_dev_ssd13xx_sleep_on);    
 469              		.loc 1 262 0
 470 0138 F868     		ldr	r0, [r7, #12]
 471 013a B968     		ldr	r1, [r7, #8]
 472 013c 0C4A     		ldr	r2, .L16+4
 473 013e FFF7FEFF 		bl	u8g_WriteEscSeqP
 263:.\u8glib_arm_v1.18.1\src/u8g_dev_ssd1322_nhd31oled_gr.c ****       return 1;
 474              		.loc 1 263 0
 475 0142 0123     		movs	r3, #1
 476 0144 0EE0     		b	.L15
ARM GAS  C:\Users\Shiguruy\AppData\Local\Temp\ccgzv6TA.s 			page 14


 477              	.L11:
 264:.\u8glib_arm_v1.18.1\src/u8g_dev_ssd1322_nhd31oled_gr.c ****     case U8G_DEV_MSG_SLEEP_OFF:
 265:.\u8glib_arm_v1.18.1\src/u8g_dev_ssd1322_nhd31oled_gr.c ****       u8g_WriteEscSeqP(u8g, dev, u8g_dev_ssd13xx_sleep_off);    
 478              		.loc 1 265 0
 479 0146 F868     		ldr	r0, [r7, #12]
 480 0148 B968     		ldr	r1, [r7, #8]
 481 014a 0A4A     		ldr	r2, .L16+8
 482 014c FFF7FEFF 		bl	u8g_WriteEscSeqP
 266:.\u8glib_arm_v1.18.1\src/u8g_dev_ssd1322_nhd31oled_gr.c ****       return 1;
 483              		.loc 1 266 0
 484 0150 0123     		movs	r3, #1
 485 0152 07E0     		b	.L15
 486              	.L5:
 267:.\u8glib_arm_v1.18.1\src/u8g_dev_ssd1322_nhd31oled_gr.c ****   }
 268:.\u8glib_arm_v1.18.1\src/u8g_dev_ssd1322_nhd31oled_gr.c ****   return u8g_dev_pb8h2_base_fn(u8g, dev, msg, arg);
 487              		.loc 1 268 0
 488 0154 FB79     		ldrb	r3, [r7, #7]	@ zero_extendqisi2
 489 0156 F868     		ldr	r0, [r7, #12]
 490 0158 B968     		ldr	r1, [r7, #8]
 491 015a 1A46     		mov	r2, r3
 492 015c 3B68     		ldr	r3, [r7]
 493 015e FFF7FEFF 		bl	u8g_dev_pb8h2_base_fn
 494 0162 0346     		mov	r3, r0
 495              	.L15:
 269:.\u8glib_arm_v1.18.1\src/u8g_dev_ssd1322_nhd31oled_gr.c **** }
 496              		.loc 1 269 0
 497 0164 1846     		mov	r0, r3
 498 0166 2037     		adds	r7, r7, #32
 499              		.cfi_def_cfa_offset 8
 500 0168 BD46     		mov	sp, r7
 501              		.cfi_def_cfa_register 13
 502              		@ sp needed
 503 016a 80BD     		pop	{r7, pc}
 504              	.L17:
 505              		.align	2
 506              	.L16:
 507 016c 00000000 		.word	u8g_dev_ssd1322_2bit_nhd_312_init_seq
 508 0170 90000000 		.word	u8g_dev_ssd13xx_sleep_on
 509 0174 9C000000 		.word	u8g_dev_ssd13xx_sleep_off
 510              		.cfi_endproc
 511              	.LFE1:
 512              		.size	u8g_dev_ssd1322_nhd31oled_gr_fn, .-u8g_dev_ssd1322_nhd31oled_gr_fn
 513              		.section	.text.u8g_dev_ssd1322_nhd31oled_2x_gr_fn,"ax",%progbits
 514              		.align	2
 515              		.global	u8g_dev_ssd1322_nhd31oled_2x_gr_fn
 516              		.thumb
 517              		.thumb_func
 518              		.type	u8g_dev_ssd1322_nhd31oled_2x_gr_fn, %function
 519              	u8g_dev_ssd1322_nhd31oled_2x_gr_fn:
 520              	.LFB2:
 270:.\u8glib_arm_v1.18.1\src/u8g_dev_ssd1322_nhd31oled_gr.c **** 
 271:.\u8glib_arm_v1.18.1\src/u8g_dev_ssd1322_nhd31oled_gr.c **** 
 272:.\u8glib_arm_v1.18.1\src/u8g_dev_ssd1322_nhd31oled_gr.c **** uint8_t u8g_dev_ssd1322_nhd31oled_2x_gr_fn(u8g_t *u8g, u8g_dev_t *dev, uint8_t msg, void *arg)
 273:.\u8glib_arm_v1.18.1\src/u8g_dev_ssd1322_nhd31oled_gr.c **** {
 521              		.loc 1 273 0
 522              		.cfi_startproc
 523              		@ args = 0, pretend = 0, frame = 32
ARM GAS  C:\Users\Shiguruy\AppData\Local\Temp\ccgzv6TA.s 			page 15


 524              		@ frame_needed = 1, uses_anonymous_args = 0
 525 0000 80B5     		push	{r7, lr}
 526              		.cfi_def_cfa_offset 8
 527              		.cfi_offset 7, -8
 528              		.cfi_offset 14, -4
 529 0002 88B0     		sub	sp, sp, #32
 530              		.cfi_def_cfa_offset 40
 531 0004 00AF     		add	r7, sp, #0
 532              		.cfi_def_cfa_register 7
 533 0006 F860     		str	r0, [r7, #12]
 534 0008 B960     		str	r1, [r7, #8]
 535 000a 3B60     		str	r3, [r7]
 536 000c 1346     		mov	r3, r2
 537 000e FB71     		strb	r3, [r7, #7]
 274:.\u8glib_arm_v1.18.1\src/u8g_dev_ssd1322_nhd31oled_gr.c ****   switch(msg)
 538              		.loc 1 274 0
 539 0010 FB79     		ldrb	r3, [r7, #7]	@ zero_extendqisi2
 540 0012 0A3B     		subs	r3, r3, #10
 541 0014 0B2B     		cmp	r3, #11
 542 0016 00F29B80 		bhi	.L19
 543 001a 01A2     		adr	r2, .L21
 544 001c 52F823F0 		ldr	pc, [r2, r3, lsl #2]
 545              		.p2align 2
 546              	.L21:
 547 0020 51000000 		.word	.L20+1
 548 0024 51010000 		.word	.L19+1
 549 0028 51010000 		.word	.L19+1
 550 002c 51010000 		.word	.L19+1
 551 0030 51010000 		.word	.L19+1
 552 0034 EF000000 		.word	.L23+1
 553 0038 35010000 		.word	.L24+1
 554 003c 43010000 		.word	.L25+1
 555 0040 51010000 		.word	.L19+1
 556 0044 51010000 		.word	.L19+1
 557 0048 51010000 		.word	.L19+1
 558 004c 67000000 		.word	.L26+1
 559              		.p2align 1
 560              	.L20:
 275:.\u8glib_arm_v1.18.1\src/u8g_dev_ssd1322_nhd31oled_gr.c ****   {
 276:.\u8glib_arm_v1.18.1\src/u8g_dev_ssd1322_nhd31oled_gr.c ****     case U8G_DEV_MSG_INIT:
 277:.\u8glib_arm_v1.18.1\src/u8g_dev_ssd1322_nhd31oled_gr.c ****       u8g_InitCom(u8g, dev, U8G_SPI_CLK_CYCLE_300NS);
 561              		.loc 1 277 0
 562 0050 F868     		ldr	r0, [r7, #12]
 563 0052 B968     		ldr	r1, [r7, #8]
 564 0054 0222     		movs	r2, #2
 565 0056 FFF7FEFF 		bl	u8g_InitCom
 278:.\u8glib_arm_v1.18.1\src/u8g_dev_ssd1322_nhd31oled_gr.c ****       u8g_WriteEscSeqP(u8g, dev, u8g_dev_ssd1322_2bit_nhd_312_init_seq);
 566              		.loc 1 278 0
 567 005a F868     		ldr	r0, [r7, #12]
 568 005c B968     		ldr	r1, [r7, #8]
 569 005e 424A     		ldr	r2, .L30
 570 0060 FFF7FEFF 		bl	u8g_WriteEscSeqP
 279:.\u8glib_arm_v1.18.1\src/u8g_dev_ssd1322_nhd31oled_gr.c ****       break;
 571              		.loc 1 279 0
 572 0064 74E0     		b	.L19
 573              	.L26:
 574              	.LBB3:
ARM GAS  C:\Users\Shiguruy\AppData\Local\Temp\ccgzv6TA.s 			page 16


 280:.\u8glib_arm_v1.18.1\src/u8g_dev_ssd1322_nhd31oled_gr.c ****     case U8G_DEV_MSG_STOP:
 281:.\u8glib_arm_v1.18.1\src/u8g_dev_ssd1322_nhd31oled_gr.c ****       break;
 282:.\u8glib_arm_v1.18.1\src/u8g_dev_ssd1322_nhd31oled_gr.c ****     case U8G_DEV_MSG_PAGE_NEXT:
 283:.\u8glib_arm_v1.18.1\src/u8g_dev_ssd1322_nhd31oled_gr.c ****       {
 284:.\u8glib_arm_v1.18.1\src/u8g_dev_ssd1322_nhd31oled_gr.c **** 	uint8_t i;
 285:.\u8glib_arm_v1.18.1\src/u8g_dev_ssd1322_nhd31oled_gr.c **** 	u8g_pb_t *pb = (u8g_pb_t *)(dev->dev_mem);
 575              		.loc 1 285 0
 576 0066 BB68     		ldr	r3, [r7, #8]
 577 0068 5B68     		ldr	r3, [r3, #4]
 578 006a 7B61     		str	r3, [r7, #20]
 286:.\u8glib_arm_v1.18.1\src/u8g_dev_ssd1322_nhd31oled_gr.c **** 	uint8_t *p = pb->buf;
 579              		.loc 1 286 0
 580 006c 7B69     		ldr	r3, [r7, #20]
 581 006e 9B68     		ldr	r3, [r3, #8]
 582 0070 BB61     		str	r3, [r7, #24]
 287:.\u8glib_arm_v1.18.1\src/u8g_dev_ssd1322_nhd31oled_gr.c **** 	u8g_uint_t cnt;
 288:.\u8glib_arm_v1.18.1\src/u8g_dev_ssd1322_nhd31oled_gr.c **** 	cnt = pb->width;
 583              		.loc 1 288 0
 584 0072 7B69     		ldr	r3, [r7, #20]
 585 0074 5B79     		ldrb	r3, [r3, #5]
 586 0076 FB74     		strb	r3, [r7, #19]
 289:.\u8glib_arm_v1.18.1\src/u8g_dev_ssd1322_nhd31oled_gr.c **** 	cnt >>= 2;    /* 23 Oct 2013, changed to 2 */
 587              		.loc 1 289 0
 588 0078 FB7C     		ldrb	r3, [r7, #19]	@ zero_extendqisi2
 589 007a 9B08     		lsrs	r3, r3, #2
 590 007c FB74     		strb	r3, [r7, #19]
 290:.\u8glib_arm_v1.18.1\src/u8g_dev_ssd1322_nhd31oled_gr.c **** 
 291:.\u8glib_arm_v1.18.1\src/u8g_dev_ssd1322_nhd31oled_gr.c **** 	for( i = 0; i < pb->p.page_height; i++ )
 591              		.loc 1 291 0
 592 007e 0023     		movs	r3, #0
 593 0080 FB77     		strb	r3, [r7, #31]
 594 0082 2EE0     		b	.L27
 595              	.L28:
 292:.\u8glib_arm_v1.18.1\src/u8g_dev_ssd1322_nhd31oled_gr.c **** 	{
 293:.\u8glib_arm_v1.18.1\src/u8g_dev_ssd1322_nhd31oled_gr.c **** 	  u8g_dev_ssd1322_2bit_prepare_row(u8g, dev, i);		/* this will also enable chip select */
 596              		.loc 1 293 0 discriminator 3
 597 0084 FB7F     		ldrb	r3, [r7, #31]	@ zero_extendqisi2
 598 0086 F868     		ldr	r0, [r7, #12]
 599 0088 B968     		ldr	r1, [r7, #8]
 600 008a 1A46     		mov	r2, r3
 601 008c FFF7FEFF 		bl	u8g_dev_ssd1322_2bit_prepare_row
 294:.\u8glib_arm_v1.18.1\src/u8g_dev_ssd1322_nhd31oled_gr.c **** #if !defined(U8G_16BIT)
 295:.\u8glib_arm_v1.18.1\src/u8g_dev_ssd1322_nhd31oled_gr.c **** 	  u8g_WriteByte(u8g, dev, 0x00);
 602              		.loc 1 295 0 discriminator 3
 603 0090 F868     		ldr	r0, [r7, #12]
 604 0092 B968     		ldr	r1, [r7, #8]
 605 0094 0022     		movs	r2, #0
 606 0096 FFF7FEFF 		bl	u8g_WriteByte
 296:.\u8glib_arm_v1.18.1\src/u8g_dev_ssd1322_nhd31oled_gr.c **** 	  u8g_WriteByte(u8g, dev, 0x00);
 607              		.loc 1 296 0 discriminator 3
 608 009a F868     		ldr	r0, [r7, #12]
 609 009c B968     		ldr	r1, [r7, #8]
 610 009e 0022     		movs	r2, #0
 611 00a0 FFF7FEFF 		bl	u8g_WriteByte
 297:.\u8glib_arm_v1.18.1\src/u8g_dev_ssd1322_nhd31oled_gr.c **** #endif
 298:.\u8glib_arm_v1.18.1\src/u8g_dev_ssd1322_nhd31oled_gr.c **** 	  u8g_WriteSequence4LTo16GrDevice(u8g, dev, cnt, p);
 612              		.loc 1 298 0 discriminator 3
ARM GAS  C:\Users\Shiguruy\AppData\Local\Temp\ccgzv6TA.s 			page 17


 613 00a4 FB7C     		ldrb	r3, [r7, #19]	@ zero_extendqisi2
 614 00a6 F868     		ldr	r0, [r7, #12]
 615 00a8 B968     		ldr	r1, [r7, #8]
 616 00aa 1A46     		mov	r2, r3
 617 00ac BB69     		ldr	r3, [r7, #24]
 618 00ae FFF7FEFF 		bl	u8g_WriteSequence4LTo16GrDevice
 299:.\u8glib_arm_v1.18.1\src/u8g_dev_ssd1322_nhd31oled_gr.c **** #if !defined(U8G_16BIT)
 300:.\u8glib_arm_v1.18.1\src/u8g_dev_ssd1322_nhd31oled_gr.c **** 	  u8g_WriteByte(u8g, dev, 0x00);
 619              		.loc 1 300 0 discriminator 3
 620 00b2 F868     		ldr	r0, [r7, #12]
 621 00b4 B968     		ldr	r1, [r7, #8]
 622 00b6 0022     		movs	r2, #0
 623 00b8 FFF7FEFF 		bl	u8g_WriteByte
 301:.\u8glib_arm_v1.18.1\src/u8g_dev_ssd1322_nhd31oled_gr.c **** 	  u8g_WriteByte(u8g, dev, 0x00);
 624              		.loc 1 301 0 discriminator 3
 625 00bc F868     		ldr	r0, [r7, #12]
 626 00be B968     		ldr	r1, [r7, #8]
 627 00c0 0022     		movs	r2, #0
 628 00c2 FFF7FEFF 		bl	u8g_WriteByte
 302:.\u8glib_arm_v1.18.1\src/u8g_dev_ssd1322_nhd31oled_gr.c **** #endif
 303:.\u8glib_arm_v1.18.1\src/u8g_dev_ssd1322_nhd31oled_gr.c **** 	  u8g_MicroDelay();	// for DUE?
 629              		.loc 1 303 0 discriminator 3
 630 00c6 FFF7FEFF 		bl	u8g_MicroDelay
 304:.\u8glib_arm_v1.18.1\src/u8g_dev_ssd1322_nhd31oled_gr.c **** 	  u8g_SetChipSelect(u8g, dev, 0);        
 631              		.loc 1 304 0 discriminator 3
 632 00ca F868     		ldr	r0, [r7, #12]
 633 00cc B968     		ldr	r1, [r7, #8]
 634 00ce 0022     		movs	r2, #0
 635 00d0 FFF7FEFF 		bl	u8g_SetChipSelect
 305:.\u8glib_arm_v1.18.1\src/u8g_dev_ssd1322_nhd31oled_gr.c **** 	  p+=cnt;
 636              		.loc 1 305 0 discriminator 3
 637 00d4 FB7C     		ldrb	r3, [r7, #19]	@ zero_extendqisi2
 638 00d6 BA69     		ldr	r2, [r7, #24]
 639 00d8 1344     		add	r3, r3, r2
 640 00da BB61     		str	r3, [r7, #24]
 291:.\u8glib_arm_v1.18.1\src/u8g_dev_ssd1322_nhd31oled_gr.c **** 	{
 641              		.loc 1 291 0 discriminator 3
 642 00dc FB7F     		ldrb	r3, [r7, #31]	@ zero_extendqisi2
 643 00de 0133     		adds	r3, r3, #1
 644 00e0 FB77     		strb	r3, [r7, #31]
 645              	.L27:
 291:.\u8glib_arm_v1.18.1\src/u8g_dev_ssd1322_nhd31oled_gr.c **** 	{
 646              		.loc 1 291 0 is_stmt 0 discriminator 1
 647 00e2 7B69     		ldr	r3, [r7, #20]
 648 00e4 1B78     		ldrb	r3, [r3]	@ zero_extendqisi2
 649 00e6 FA7F     		ldrb	r2, [r7, #31]	@ zero_extendqisi2
 650 00e8 9A42     		cmp	r2, r3
 651 00ea CBD3     		bcc	.L28
 652              	.LBE3:
 306:.\u8glib_arm_v1.18.1\src/u8g_dev_ssd1322_nhd31oled_gr.c **** 	}
 307:.\u8glib_arm_v1.18.1\src/u8g_dev_ssd1322_nhd31oled_gr.c ****       }
 308:.\u8glib_arm_v1.18.1\src/u8g_dev_ssd1322_nhd31oled_gr.c ****       break;
 653              		.loc 1 308 0 is_stmt 1
 654 00ec 30E0     		b	.L19
 655              	.L23:
 309:.\u8glib_arm_v1.18.1\src/u8g_dev_ssd1322_nhd31oled_gr.c ****     case U8G_DEV_MSG_CONTRAST:
 310:.\u8glib_arm_v1.18.1\src/u8g_dev_ssd1322_nhd31oled_gr.c ****       u8g_SetChipSelect(u8g, dev, 1);
ARM GAS  C:\Users\Shiguruy\AppData\Local\Temp\ccgzv6TA.s 			page 18


 656              		.loc 1 310 0
 657 00ee F868     		ldr	r0, [r7, #12]
 658 00f0 B968     		ldr	r1, [r7, #8]
 659 00f2 0122     		movs	r2, #1
 660 00f4 FFF7FEFF 		bl	u8g_SetChipSelect
 311:.\u8glib_arm_v1.18.1\src/u8g_dev_ssd1322_nhd31oled_gr.c ****       u8g_SetAddress(u8g, dev, 0);          /* instruction mode */
 661              		.loc 1 311 0
 662 00f8 F868     		ldr	r0, [r7, #12]
 663 00fa B968     		ldr	r1, [r7, #8]
 664 00fc 0022     		movs	r2, #0
 665 00fe FFF7FEFF 		bl	u8g_SetAddress
 312:.\u8glib_arm_v1.18.1\src/u8g_dev_ssd1322_nhd31oled_gr.c ****       u8g_WriteByte(u8g, dev, 0x081);
 666              		.loc 1 312 0
 667 0102 F868     		ldr	r0, [r7, #12]
 668 0104 B968     		ldr	r1, [r7, #8]
 669 0106 8122     		movs	r2, #129
 670 0108 FFF7FEFF 		bl	u8g_WriteByte
 313:.\u8glib_arm_v1.18.1\src/u8g_dev_ssd1322_nhd31oled_gr.c ****       u8g_SetAddress(u8g, dev, 1);          /* data mode */
 671              		.loc 1 313 0
 672 010c F868     		ldr	r0, [r7, #12]
 673 010e B968     		ldr	r1, [r7, #8]
 674 0110 0122     		movs	r2, #1
 675 0112 FFF7FEFF 		bl	u8g_SetAddress
 314:.\u8glib_arm_v1.18.1\src/u8g_dev_ssd1322_nhd31oled_gr.c ****       u8g_WriteByte(u8g, dev, (*(uint8_t *)arg) >> 1);
 676              		.loc 1 314 0
 677 0116 3B68     		ldr	r3, [r7]
 678 0118 1B78     		ldrb	r3, [r3]	@ zero_extendqisi2
 679 011a 5B08     		lsrs	r3, r3, #1
 680 011c DBB2     		uxtb	r3, r3
 681 011e F868     		ldr	r0, [r7, #12]
 682 0120 B968     		ldr	r1, [r7, #8]
 683 0122 1A46     		mov	r2, r3
 684 0124 FFF7FEFF 		bl	u8g_WriteByte
 315:.\u8glib_arm_v1.18.1\src/u8g_dev_ssd1322_nhd31oled_gr.c ****       u8g_SetChipSelect(u8g, dev, 0);      
 685              		.loc 1 315 0
 686 0128 F868     		ldr	r0, [r7, #12]
 687 012a B968     		ldr	r1, [r7, #8]
 688 012c 0022     		movs	r2, #0
 689 012e FFF7FEFF 		bl	u8g_SetChipSelect
 316:.\u8glib_arm_v1.18.1\src/u8g_dev_ssd1322_nhd31oled_gr.c ****       break;
 690              		.loc 1 316 0
 691 0132 0DE0     		b	.L19
 692              	.L24:
 317:.\u8glib_arm_v1.18.1\src/u8g_dev_ssd1322_nhd31oled_gr.c ****     case U8G_DEV_MSG_SLEEP_ON:
 318:.\u8glib_arm_v1.18.1\src/u8g_dev_ssd1322_nhd31oled_gr.c ****       u8g_WriteEscSeqP(u8g, dev, u8g_dev_ssd13xx_sleep_on);    
 693              		.loc 1 318 0
 694 0134 F868     		ldr	r0, [r7, #12]
 695 0136 B968     		ldr	r1, [r7, #8]
 696 0138 0C4A     		ldr	r2, .L30+4
 697 013a FFF7FEFF 		bl	u8g_WriteEscSeqP
 319:.\u8glib_arm_v1.18.1\src/u8g_dev_ssd1322_nhd31oled_gr.c ****       return 1;
 698              		.loc 1 319 0
 699 013e 0123     		movs	r3, #1
 700 0140 0EE0     		b	.L29
 701              	.L25:
 320:.\u8glib_arm_v1.18.1\src/u8g_dev_ssd1322_nhd31oled_gr.c ****     case U8G_DEV_MSG_SLEEP_OFF:
 321:.\u8glib_arm_v1.18.1\src/u8g_dev_ssd1322_nhd31oled_gr.c ****       u8g_WriteEscSeqP(u8g, dev, u8g_dev_ssd13xx_sleep_off);    
ARM GAS  C:\Users\Shiguruy\AppData\Local\Temp\ccgzv6TA.s 			page 19


 702              		.loc 1 321 0
 703 0142 F868     		ldr	r0, [r7, #12]
 704 0144 B968     		ldr	r1, [r7, #8]
 705 0146 0A4A     		ldr	r2, .L30+8
 706 0148 FFF7FEFF 		bl	u8g_WriteEscSeqP
 322:.\u8glib_arm_v1.18.1\src/u8g_dev_ssd1322_nhd31oled_gr.c ****       return 1;
 707              		.loc 1 322 0
 708 014c 0123     		movs	r3, #1
 709 014e 07E0     		b	.L29
 710              	.L19:
 323:.\u8glib_arm_v1.18.1\src/u8g_dev_ssd1322_nhd31oled_gr.c ****   }
 324:.\u8glib_arm_v1.18.1\src/u8g_dev_ssd1322_nhd31oled_gr.c ****   return u8g_dev_pb16h2_base_fn(u8g, dev, msg, arg);
 711              		.loc 1 324 0
 712 0150 FB79     		ldrb	r3, [r7, #7]	@ zero_extendqisi2
 713 0152 F868     		ldr	r0, [r7, #12]
 714 0154 B968     		ldr	r1, [r7, #8]
 715 0156 1A46     		mov	r2, r3
 716 0158 3B68     		ldr	r3, [r7]
 717 015a FFF7FEFF 		bl	u8g_dev_pb16h2_base_fn
 718 015e 0346     		mov	r3, r0
 719              	.L29:
 325:.\u8glib_arm_v1.18.1\src/u8g_dev_ssd1322_nhd31oled_gr.c **** }
 720              		.loc 1 325 0
 721 0160 1846     		mov	r0, r3
 722 0162 2037     		adds	r7, r7, #32
 723              		.cfi_def_cfa_offset 8
 724 0164 BD46     		mov	sp, r7
 725              		.cfi_def_cfa_register 13
 726              		@ sp needed
 727 0166 80BD     		pop	{r7, pc}
 728              	.L31:
 729              		.align	2
 730              	.L30:
 731 0168 00000000 		.word	u8g_dev_ssd1322_2bit_nhd_312_init_seq
 732 016c 90000000 		.word	u8g_dev_ssd13xx_sleep_on
 733 0170 9C000000 		.word	u8g_dev_ssd13xx_sleep_off
 734              		.cfi_endproc
 735              	.LFE2:
 736              		.size	u8g_dev_ssd1322_nhd31oled_2x_gr_fn, .-u8g_dev_ssd1322_nhd31oled_2x_gr_fn
 737              		.global	u8g_dev_ssd1322_nhd31oled_gr_sw_spi_buf
 738              		.bss
 739              		.align	2
 740              		.type	u8g_dev_ssd1322_nhd31oled_gr_sw_spi_buf, %object
 741              		.size	u8g_dev_ssd1322_nhd31oled_gr_sw_spi_buf, 248
 742              	u8g_dev_ssd1322_nhd31oled_gr_sw_spi_buf:
 743 0000 00000000 		.space	248
 743      00000000 
 743      00000000 
 743      00000000 
 743      00000000 
 744              		.global	u8g_dev_ssd1322_nhd31oled_gr_sw_spi_pb
 745              		.data
 746              		.align	2
 747              		.type	u8g_dev_ssd1322_nhd31oled_gr_sw_spi_pb, %object
 748              		.size	u8g_dev_ssd1322_nhd31oled_gr_sw_spi_pb, 12
 749              	u8g_dev_ssd1322_nhd31oled_gr_sw_spi_pb:
 750 0000 04       		.byte	4
ARM GAS  C:\Users\Shiguruy\AppData\Local\Temp\ccgzv6TA.s 			page 20


 751 0001 40       		.byte	64
 752 0002 00       		.byte	0
 753 0003 00       		.byte	0
 754 0004 00       		.byte	0
 755 0005 F8       		.byte	-8
 756 0006 0000     		.space	2
 757 0008 00000000 		.word	u8g_dev_ssd1322_nhd31oled_gr_sw_spi_buf
 758              		.global	u8g_dev_ssd1322_nhd31oled_gr_sw_spi
 759              		.align	2
 760              		.type	u8g_dev_ssd1322_nhd31oled_gr_sw_spi, %object
 761              		.size	u8g_dev_ssd1322_nhd31oled_gr_sw_spi, 12
 762              	u8g_dev_ssd1322_nhd31oled_gr_sw_spi:
 763 000c 00000000 		.word	u8g_dev_ssd1322_nhd31oled_gr_fn
 764 0010 00000000 		.word	u8g_dev_ssd1322_nhd31oled_gr_sw_spi_pb
 765 0014 00000000 		.word	u8g_com_null_fn
 766              		.global	u8g_dev_ssd1322_nhd31oled_gr_hw_spi_buf
 767              		.bss
 768              		.align	2
 769              		.type	u8g_dev_ssd1322_nhd31oled_gr_hw_spi_buf, %object
 770              		.size	u8g_dev_ssd1322_nhd31oled_gr_hw_spi_buf, 248
 771              	u8g_dev_ssd1322_nhd31oled_gr_hw_spi_buf:
 772 00f8 00000000 		.space	248
 772      00000000 
 772      00000000 
 772      00000000 
 772      00000000 
 773              		.global	u8g_dev_ssd1322_nhd31oled_gr_hw_spi_pb
 774              		.data
 775              		.align	2
 776              		.type	u8g_dev_ssd1322_nhd31oled_gr_hw_spi_pb, %object
 777              		.size	u8g_dev_ssd1322_nhd31oled_gr_hw_spi_pb, 12
 778              	u8g_dev_ssd1322_nhd31oled_gr_hw_spi_pb:
 779 0018 04       		.byte	4
 780 0019 40       		.byte	64
 781 001a 00       		.byte	0
 782 001b 00       		.byte	0
 783 001c 00       		.byte	0
 784 001d F8       		.byte	-8
 785 001e 0000     		.space	2
 786 0020 00000000 		.word	u8g_dev_ssd1322_nhd31oled_gr_hw_spi_buf
 787              		.global	u8g_dev_ssd1322_nhd31oled_gr_hw_spi
 788              		.align	2
 789              		.type	u8g_dev_ssd1322_nhd31oled_gr_hw_spi, %object
 790              		.size	u8g_dev_ssd1322_nhd31oled_gr_hw_spi, 12
 791              	u8g_dev_ssd1322_nhd31oled_gr_hw_spi:
 792 0024 00000000 		.word	u8g_dev_ssd1322_nhd31oled_gr_fn
 793 0028 00000000 		.word	u8g_dev_ssd1322_nhd31oled_gr_hw_spi_pb
 794 002c 00000000 		.word	u8g_com_null_fn
 795              		.global	u8g_dev_ssd1322_nhd31oled_gr_parallel_buf
 796              		.bss
 797              		.align	2
 798              		.type	u8g_dev_ssd1322_nhd31oled_gr_parallel_buf, %object
 799              		.size	u8g_dev_ssd1322_nhd31oled_gr_parallel_buf, 248
 800              	u8g_dev_ssd1322_nhd31oled_gr_parallel_buf:
 801 01f0 00000000 		.space	248
 801      00000000 
 801      00000000 
ARM GAS  C:\Users\Shiguruy\AppData\Local\Temp\ccgzv6TA.s 			page 21


 801      00000000 
 801      00000000 
 802              		.global	u8g_dev_ssd1322_nhd31oled_gr_parallel_pb
 803              		.data
 804              		.align	2
 805              		.type	u8g_dev_ssd1322_nhd31oled_gr_parallel_pb, %object
 806              		.size	u8g_dev_ssd1322_nhd31oled_gr_parallel_pb, 12
 807              	u8g_dev_ssd1322_nhd31oled_gr_parallel_pb:
 808 0030 04       		.byte	4
 809 0031 40       		.byte	64
 810 0032 00       		.byte	0
 811 0033 00       		.byte	0
 812 0034 00       		.byte	0
 813 0035 F8       		.byte	-8
 814 0036 0000     		.space	2
 815 0038 00000000 		.word	u8g_dev_ssd1322_nhd31oled_gr_parallel_buf
 816              		.global	u8g_dev_ssd1322_nhd31oled_gr_parallel
 817              		.align	2
 818              		.type	u8g_dev_ssd1322_nhd31oled_gr_parallel, %object
 819              		.size	u8g_dev_ssd1322_nhd31oled_gr_parallel, 12
 820              	u8g_dev_ssd1322_nhd31oled_gr_parallel:
 821 003c 00000000 		.word	u8g_dev_ssd1322_nhd31oled_gr_fn
 822 0040 00000000 		.word	u8g_dev_ssd1322_nhd31oled_gr_parallel_pb
 823 0044 00000000 		.word	u8g_com_null_fn
 824              		.global	u8g_dev_ssd1322_nhd31oled_2x_gr_buf
 825              		.bss
 826              		.align	2
 827              		.type	u8g_dev_ssd1322_nhd31oled_2x_gr_buf, %object
 828              		.size	u8g_dev_ssd1322_nhd31oled_2x_gr_buf, 496
 829              	u8g_dev_ssd1322_nhd31oled_2x_gr_buf:
 830 02e8 00000000 		.space	496
 830      00000000 
 830      00000000 
 830      00000000 
 830      00000000 
 831              		.global	u8g_dev_ssd1322_nhd31oled_2x_gr_pb
 832              		.data
 833              		.align	2
 834              		.type	u8g_dev_ssd1322_nhd31oled_2x_gr_pb, %object
 835              		.size	u8g_dev_ssd1322_nhd31oled_2x_gr_pb, 12
 836              	u8g_dev_ssd1322_nhd31oled_2x_gr_pb:
 837 0048 08       		.byte	8
 838 0049 40       		.byte	64
 839 004a 00       		.byte	0
 840 004b 00       		.byte	0
 841 004c 00       		.byte	0
 842 004d F8       		.byte	-8
 843 004e 0000     		.space	2
 844 0050 00000000 		.word	u8g_dev_ssd1322_nhd31oled_2x_gr_buf
 845              		.global	u8g_dev_ssd1322_nhd31oled_2x_gr_sw_spi
 846              		.align	2
 847              		.type	u8g_dev_ssd1322_nhd31oled_2x_gr_sw_spi, %object
 848              		.size	u8g_dev_ssd1322_nhd31oled_2x_gr_sw_spi, 12
 849              	u8g_dev_ssd1322_nhd31oled_2x_gr_sw_spi:
 850 0054 00000000 		.word	u8g_dev_ssd1322_nhd31oled_2x_gr_fn
 851 0058 00000000 		.word	u8g_dev_ssd1322_nhd31oled_2x_gr_pb
 852 005c 00000000 		.word	u8g_com_null_fn
ARM GAS  C:\Users\Shiguruy\AppData\Local\Temp\ccgzv6TA.s 			page 22


 853              		.global	u8g_dev_ssd1322_nhd31oled_2x_gr_hw_spi
 854              		.align	2
 855              		.type	u8g_dev_ssd1322_nhd31oled_2x_gr_hw_spi, %object
 856              		.size	u8g_dev_ssd1322_nhd31oled_2x_gr_hw_spi, 12
 857              	u8g_dev_ssd1322_nhd31oled_2x_gr_hw_spi:
 858 0060 00000000 		.word	u8g_dev_ssd1322_nhd31oled_2x_gr_fn
 859 0064 00000000 		.word	u8g_dev_ssd1322_nhd31oled_2x_gr_pb
 860 0068 00000000 		.word	u8g_com_null_fn
 861              		.text
 862              	.Letext0:
 863              		.file 2 "c:\\program files (x86)\\cypress\\psoc creator\\3.3\\psoc creator\\import\\gnu\\arm\\4.9.
 864              		.file 3 "c:\\program files (x86)\\cypress\\psoc creator\\3.3\\psoc creator\\import\\gnu\\arm\\4.9.
 865              		.file 4 ".\\u8glib_arm_v1.18.1\\src\\u8g.h"