ARM GAS  C:\Users\Shiguruy\AppData\Local\Temp\cc5WsBly.s 			page 1


   1              		.syntax unified
   2              		.cpu cortex-m3
   3              		.fpu softvfp
   4              		.eabi_attribute 20, 1
   5              		.eabi_attribute 21, 1
   6              		.eabi_attribute 23, 3
   7              		.eabi_attribute 24, 1
   8              		.eabi_attribute 25, 1
   9              		.eabi_attribute 26, 1
  10              		.eabi_attribute 30, 6
  11              		.eabi_attribute 34, 1
  12              		.eabi_attribute 18, 4
  13              		.thumb
  14              		.file	"u8g_dev_gprof.c"
  15              		.text
  16              	.Ltext0:
  17              		.cfi_sections	.debug_frame
  18              		.comm	u8g_pb_dev_gprof_buf,128,4
  19              		.global	u8g_pb_dev_gprof
  20              		.data
  21              		.align	2
  22              		.type	u8g_pb_dev_gprof, %object
  23              		.size	u8g_pb_dev_gprof, 12
  24              	u8g_pb_dev_gprof:
  25 0000 08       		.byte	8
  26 0001 40       		.byte	64
  27 0002 00       		.byte	0
  28 0003 00       		.byte	0
  29 0004 00       		.byte	0
  30 0005 80       		.byte	-128
  31 0006 0000     		.space	2
  32 0008 00000000 		.word	u8g_pb_dev_gprof_buf
  33              		.global	u8g_dev_gprof
  34              		.align	2
  35              		.type	u8g_dev_gprof, %object
  36              		.size	u8g_dev_gprof, 12
  37              	u8g_dev_gprof:
  38 000c 00000000 		.word	u8g_dev_gprof_fn
  39 0010 00000000 		.word	u8g_pb_dev_gprof
  40 0014 00000000 		.word	0
  41              		.section	.text.u8g_dev_gprof_fn,"ax",%progbits
  42              		.align	2
  43              		.global	u8g_dev_gprof_fn
  44              		.thumb
  45              		.thumb_func
  46              		.type	u8g_dev_gprof_fn, %function
  47              	u8g_dev_gprof_fn:
  48              	.LFB0:
  49              		.file 1 ".\\u8glib_arm_v1.18.1\\src\\u8g_dev_gprof.c"
   1:.\u8glib_arm_v1.18.1\src/u8g_dev_gprof.c **** /*
   2:.\u8glib_arm_v1.18.1\src/u8g_dev_gprof.c **** 
   3:.\u8glib_arm_v1.18.1\src/u8g_dev_gprof.c ****   u8g_dev_gprof.c
   4:.\u8glib_arm_v1.18.1\src/u8g_dev_gprof.c **** 
   5:.\u8glib_arm_v1.18.1\src/u8g_dev_gprof.c ****   Device for performance measurement with gprof.
   6:.\u8glib_arm_v1.18.1\src/u8g_dev_gprof.c ****   Does not write any data, but uses a buffer.
   7:.\u8glib_arm_v1.18.1\src/u8g_dev_gprof.c **** 
   8:.\u8glib_arm_v1.18.1\src/u8g_dev_gprof.c ****   Universal 8bit Graphics Library
ARM GAS  C:\Users\Shiguruy\AppData\Local\Temp\cc5WsBly.s 			page 2


   9:.\u8glib_arm_v1.18.1\src/u8g_dev_gprof.c ****   
  10:.\u8glib_arm_v1.18.1\src/u8g_dev_gprof.c ****   Copyright (c) 2011, olikraus@gmail.com
  11:.\u8glib_arm_v1.18.1\src/u8g_dev_gprof.c ****   All rights reserved.
  12:.\u8glib_arm_v1.18.1\src/u8g_dev_gprof.c **** 
  13:.\u8glib_arm_v1.18.1\src/u8g_dev_gprof.c ****   Redistribution and use in source and binary forms, with or without modification, 
  14:.\u8glib_arm_v1.18.1\src/u8g_dev_gprof.c ****   are permitted provided that the following conditions are met:
  15:.\u8glib_arm_v1.18.1\src/u8g_dev_gprof.c **** 
  16:.\u8glib_arm_v1.18.1\src/u8g_dev_gprof.c ****   * Redistributions of source code must retain the above copyright notice, this list 
  17:.\u8glib_arm_v1.18.1\src/u8g_dev_gprof.c ****     of conditions and the following disclaimer.
  18:.\u8glib_arm_v1.18.1\src/u8g_dev_gprof.c ****     
  19:.\u8glib_arm_v1.18.1\src/u8g_dev_gprof.c ****   * Redistributions in binary form must reproduce the above copyright notice, this 
  20:.\u8glib_arm_v1.18.1\src/u8g_dev_gprof.c ****     list of conditions and the following disclaimer in the documentation and/or other 
  21:.\u8glib_arm_v1.18.1\src/u8g_dev_gprof.c ****     materials provided with the distribution.
  22:.\u8glib_arm_v1.18.1\src/u8g_dev_gprof.c **** 
  23:.\u8glib_arm_v1.18.1\src/u8g_dev_gprof.c ****   THIS SOFTWARE IS PROVIDED BY THE COPYRIGHT HOLDERS AND 
  24:.\u8glib_arm_v1.18.1\src/u8g_dev_gprof.c ****   CONTRIBUTORS "AS IS" AND ANY EXPRESS OR IMPLIED WARRANTIES, 
  25:.\u8glib_arm_v1.18.1\src/u8g_dev_gprof.c ****   INCLUDING, BUT NOT LIMITED TO, THE IMPLIED WARRANTIES OF 
  26:.\u8glib_arm_v1.18.1\src/u8g_dev_gprof.c ****   MERCHANTABILITY AND FITNESS FOR A PARTICULAR PURPOSE ARE 
  27:.\u8glib_arm_v1.18.1\src/u8g_dev_gprof.c ****   DISCLAIMED. IN NO EVENT SHALL THE COPYRIGHT HOLDER OR 
  28:.\u8glib_arm_v1.18.1\src/u8g_dev_gprof.c ****   CONTRIBUTORS BE LIABLE FOR ANY DIRECT, INDIRECT, INCIDENTAL, 
  29:.\u8glib_arm_v1.18.1\src/u8g_dev_gprof.c ****   SPECIAL, EXEMPLARY, OR CONSEQUENTIAL DAMAGES (INCLUDING, BUT 
  30:.\u8glib_arm_v1.18.1\src/u8g_dev_gprof.c ****   NOT LIMITED TO, PROCUREMENT OF SUBSTITUTE GOODS OR SERVICES; 
  31:.\u8glib_arm_v1.18.1\src/u8g_dev_gprof.c ****   LOSS OF USE, DATA, OR PROFITS; OR BUSINESS INTERRUPTION) HOWEVER 
  32:.\u8glib_arm_v1.18.1\src/u8g_dev_gprof.c ****   CAUSED AND ON ANY THEORY OF LIABILITY, WHETHER IN CONTRACT, 
  33:.\u8glib_arm_v1.18.1\src/u8g_dev_gprof.c ****   STRICT LIABILITY, OR TORT (INCLUDING NEGLIGENCE OR OTHERWISE) 
  34:.\u8glib_arm_v1.18.1\src/u8g_dev_gprof.c ****   ARISING IN ANY WAY OUT OF THE USE OF THIS SOFTWARE, EVEN IF 
  35:.\u8glib_arm_v1.18.1\src/u8g_dev_gprof.c ****   ADVISED OF THE POSSIBILITY OF SUCH DAMAGE.  
  36:.\u8glib_arm_v1.18.1\src/u8g_dev_gprof.c ****   
  37:.\u8glib_arm_v1.18.1\src/u8g_dev_gprof.c ****   
  38:.\u8glib_arm_v1.18.1\src/u8g_dev_gprof.c **** 
  39:.\u8glib_arm_v1.18.1\src/u8g_dev_gprof.c **** */
  40:.\u8glib_arm_v1.18.1\src/u8g_dev_gprof.c **** 
  41:.\u8glib_arm_v1.18.1\src/u8g_dev_gprof.c **** #include "u8g.h"
  42:.\u8glib_arm_v1.18.1\src/u8g_dev_gprof.c **** 
  43:.\u8glib_arm_v1.18.1\src/u8g_dev_gprof.c **** 
  44:.\u8glib_arm_v1.18.1\src/u8g_dev_gprof.c **** #define WIDTH 128
  45:.\u8glib_arm_v1.18.1\src/u8g_dev_gprof.c **** #define HEIGHT 64
  46:.\u8glib_arm_v1.18.1\src/u8g_dev_gprof.c **** #define PAGE_HEIGHT 8
  47:.\u8glib_arm_v1.18.1\src/u8g_dev_gprof.c **** 
  48:.\u8glib_arm_v1.18.1\src/u8g_dev_gprof.c **** uint8_t u8g_dev_gprof_fn(u8g_t *u8g, u8g_dev_t *dev, uint8_t msg, void *arg);
  49:.\u8glib_arm_v1.18.1\src/u8g_dev_gprof.c **** 
  50:.\u8glib_arm_v1.18.1\src/u8g_dev_gprof.c **** uint8_t u8g_pb_dev_gprof_buf[WIDTH];
  51:.\u8glib_arm_v1.18.1\src/u8g_dev_gprof.c **** u8g_pb_t u8g_pb_dev_gprof = { {PAGE_HEIGHT, HEIGHT, 0, 0, 0},  WIDTH, u8g_pb_dev_gprof_buf };
  52:.\u8glib_arm_v1.18.1\src/u8g_dev_gprof.c **** 
  53:.\u8glib_arm_v1.18.1\src/u8g_dev_gprof.c **** u8g_dev_t u8g_dev_gprof = { u8g_dev_gprof_fn, &u8g_pb_dev_gprof, NULL };
  54:.\u8glib_arm_v1.18.1\src/u8g_dev_gprof.c **** 
  55:.\u8glib_arm_v1.18.1\src/u8g_dev_gprof.c **** uint8_t u8g_dev_gprof_fn(u8g_t *u8g, u8g_dev_t *dev, uint8_t msg, void *arg)
  56:.\u8glib_arm_v1.18.1\src/u8g_dev_gprof.c **** {
  50              		.loc 1 56 0
  51              		.cfi_startproc
  52              		@ args = 0, pretend = 0, frame = 24
  53              		@ frame_needed = 1, uses_anonymous_args = 0
  54 0000 80B5     		push	{r7, lr}
  55              		.cfi_def_cfa_offset 8
  56              		.cfi_offset 7, -8
  57              		.cfi_offset 14, -4
  58 0002 86B0     		sub	sp, sp, #24
ARM GAS  C:\Users\Shiguruy\AppData\Local\Temp\cc5WsBly.s 			page 3


  59              		.cfi_def_cfa_offset 32
  60 0004 00AF     		add	r7, sp, #0
  61              		.cfi_def_cfa_register 7
  62 0006 F860     		str	r0, [r7, #12]
  63 0008 B960     		str	r1, [r7, #8]
  64 000a 3B60     		str	r3, [r7]
  65 000c 1346     		mov	r3, r2
  66 000e FB71     		strb	r3, [r7, #7]
  57:.\u8glib_arm_v1.18.1\src/u8g_dev_gprof.c ****   u8g_pb_t *pb = (u8g_pb_t *)(dev->dev_mem);
  67              		.loc 1 57 0
  68 0010 BB68     		ldr	r3, [r7, #8]
  69 0012 5B68     		ldr	r3, [r3, #4]
  70 0014 7B61     		str	r3, [r7, #20]
  58:.\u8glib_arm_v1.18.1\src/u8g_dev_gprof.c ****   
  59:.\u8glib_arm_v1.18.1\src/u8g_dev_gprof.c ****   switch(msg)
  71              		.loc 1 59 0
  72 0016 FB79     		ldrb	r3, [r7, #7]	@ zero_extendqisi2
  73 0018 0A3B     		subs	r3, r3, #10
  74 001a 332B     		cmp	r3, #51
  75 001c 00F28680 		bhi	.L2
  76 0020 01A2     		adr	r2, .L4
  77 0022 52F823F0 		ldr	pc, [r2, r3, lsl #2]
  78 0026 00BF     		.p2align 2
  79              	.L4:
  80 0028 2D010000 		.word	.L2+1
  81 002c 2D010000 		.word	.L2+1
  82 0030 2D010000 		.word	.L2+1
  83 0034 2D010000 		.word	.L2+1
  84 0038 2D010000 		.word	.L2+1
  85 003c 2D010000 		.word	.L2+1
  86 0040 2D010000 		.word	.L2+1
  87 0044 2D010000 		.word	.L2+1
  88 0048 2D010000 		.word	.L2+1
  89 004c 2D010000 		.word	.L2+1
  90 0050 F9000000 		.word	.L6+1
  91 0054 09010000 		.word	.L7+1
  92 0058 2D010000 		.word	.L2+1
  93 005c 23010000 		.word	.L8+1
  94 0060 2D010000 		.word	.L2+1
  95 0064 2D010000 		.word	.L2+1
  96 0068 2D010000 		.word	.L2+1
  97 006c 2D010000 		.word	.L2+1
  98 0070 2D010000 		.word	.L2+1
  99 0074 2D010000 		.word	.L2+1
 100 0078 2D010000 		.word	.L2+1
 101 007c 2D010000 		.word	.L2+1
 102 0080 2D010000 		.word	.L2+1
 103 0084 2D010000 		.word	.L2+1
 104 0088 2D010000 		.word	.L2+1
 105 008c 2D010000 		.word	.L2+1
 106 0090 2D010000 		.word	.L2+1
 107 0094 2D010000 		.word	.L2+1
 108 0098 2D010000 		.word	.L2+1
 109 009c 2D010000 		.word	.L2+1
 110 00a0 2D010000 		.word	.L2+1
 111 00a4 2D010000 		.word	.L2+1
 112 00a8 2D010000 		.word	.L2+1
ARM GAS  C:\Users\Shiguruy\AppData\Local\Temp\cc5WsBly.s 			page 4


 113 00ac 2D010000 		.word	.L2+1
 114 00b0 2D010000 		.word	.L2+1
 115 00b4 2D010000 		.word	.L2+1
 116 00b8 2D010000 		.word	.L2+1
 117 00bc 2D010000 		.word	.L2+1
 118 00c0 2D010000 		.word	.L2+1
 119 00c4 2D010000 		.word	.L2+1
 120 00c8 2D010000 		.word	.L2+1
 121 00cc 2D010000 		.word	.L2+1
 122 00d0 2D010000 		.word	.L2+1
 123 00d4 2D010000 		.word	.L2+1
 124 00d8 2D010000 		.word	.L2+1
 125 00dc 2D010000 		.word	.L2+1
 126 00e0 2D010000 		.word	.L2+1
 127 00e4 2D010000 		.word	.L2+1
 128 00e8 2D010000 		.word	.L2+1
 129 00ec 2D010000 		.word	.L2+1
 130 00f0 2D010000 		.word	.L2+1
 131 00f4 2D010000 		.word	.L2+1
 132              		.p2align 1
 133              	.L6:
  60:.\u8glib_arm_v1.18.1\src/u8g_dev_gprof.c ****   {
  61:.\u8glib_arm_v1.18.1\src/u8g_dev_gprof.c ****     case U8G_DEV_MSG_INIT:
  62:.\u8glib_arm_v1.18.1\src/u8g_dev_gprof.c ****       break;
  63:.\u8glib_arm_v1.18.1\src/u8g_dev_gprof.c ****     case U8G_DEV_MSG_STOP:
  64:.\u8glib_arm_v1.18.1\src/u8g_dev_gprof.c ****       break;
  65:.\u8glib_arm_v1.18.1\src/u8g_dev_gprof.c ****     case U8G_DEV_MSG_PAGE_FIRST:
  66:.\u8glib_arm_v1.18.1\src/u8g_dev_gprof.c ****       u8g_pb_Clear(pb);
 134              		.loc 1 66 0
 135 00f8 7869     		ldr	r0, [r7, #20]
 136 00fa FFF7FEFF 		bl	u8g_pb_Clear
  67:.\u8glib_arm_v1.18.1\src/u8g_dev_gprof.c ****       u8g_page_First(&(pb->p));
 137              		.loc 1 67 0
 138 00fe 7B69     		ldr	r3, [r7, #20]
 139 0100 1846     		mov	r0, r3
 140 0102 FFF7FEFF 		bl	u8g_page_First
  68:.\u8glib_arm_v1.18.1\src/u8g_dev_gprof.c ****       break;
 141              		.loc 1 68 0
 142 0106 11E0     		b	.L2
 143              	.L7:
  69:.\u8glib_arm_v1.18.1\src/u8g_dev_gprof.c ****     case U8G_DEV_MSG_PAGE_NEXT:
  70:.\u8glib_arm_v1.18.1\src/u8g_dev_gprof.c ****       /*
  71:.\u8glib_arm_v1.18.1\src/u8g_dev_gprof.c ****       {
  72:.\u8glib_arm_v1.18.1\src/u8g_dev_gprof.c ****         uint8_t i, j;
  73:.\u8glib_arm_v1.18.1\src/u8g_dev_gprof.c ****         uint8_t page_height;
  74:.\u8glib_arm_v1.18.1\src/u8g_dev_gprof.c ****         page_height = pb->p.page_y1;
  75:.\u8glib_arm_v1.18.1\src/u8g_dev_gprof.c ****         page_height -= pb->p.page_y0;
  76:.\u8glib_arm_v1.18.1\src/u8g_dev_gprof.c ****         page_height++;
  77:.\u8glib_arm_v1.18.1\src/u8g_dev_gprof.c ****         for( j = 0; j < page_height; j++ )
  78:.\u8glib_arm_v1.18.1\src/u8g_dev_gprof.c ****         {
  79:.\u8glib_arm_v1.18.1\src/u8g_dev_gprof.c ****           printf("%02d ", j);
  80:.\u8glib_arm_v1.18.1\src/u8g_dev_gprof.c ****           for( i = 0; i < WIDTH; i++ )
  81:.\u8glib_arm_v1.18.1\src/u8g_dev_gprof.c ****           {
  82:.\u8glib_arm_v1.18.1\src/u8g_dev_gprof.c ****             if ( (u8g_pb_dev_stdout_buf[i] & (1<<j)) != 0 )
  83:.\u8glib_arm_v1.18.1\src/u8g_dev_gprof.c ****               printf("#");
  84:.\u8glib_arm_v1.18.1\src/u8g_dev_gprof.c ****             else
  85:.\u8glib_arm_v1.18.1\src/u8g_dev_gprof.c ****               printf(".");
ARM GAS  C:\Users\Shiguruy\AppData\Local\Temp\cc5WsBly.s 			page 5


  86:.\u8glib_arm_v1.18.1\src/u8g_dev_gprof.c ****           }
  87:.\u8glib_arm_v1.18.1\src/u8g_dev_gprof.c ****           printf("\n");
  88:.\u8glib_arm_v1.18.1\src/u8g_dev_gprof.c ****         }
  89:.\u8glib_arm_v1.18.1\src/u8g_dev_gprof.c ****       }
  90:.\u8glib_arm_v1.18.1\src/u8g_dev_gprof.c ****       */
  91:.\u8glib_arm_v1.18.1\src/u8g_dev_gprof.c ****       if ( u8g_page_Next(&(pb->p)) == 0 )
 144              		.loc 1 91 0
 145 0108 7B69     		ldr	r3, [r7, #20]
 146 010a 1846     		mov	r0, r3
 147 010c FFF7FEFF 		bl	u8g_page_Next
 148 0110 0346     		mov	r3, r0
 149 0112 002B     		cmp	r3, #0
 150 0114 01D1     		bne	.L11
  92:.\u8glib_arm_v1.18.1\src/u8g_dev_gprof.c ****       {
  93:.\u8glib_arm_v1.18.1\src/u8g_dev_gprof.c ****         //printf("\n");
  94:.\u8glib_arm_v1.18.1\src/u8g_dev_gprof.c ****         return 0;
 151              		.loc 1 94 0
 152 0116 0023     		movs	r3, #0
 153 0118 10E0     		b	.L12
 154              	.L11:
  95:.\u8glib_arm_v1.18.1\src/u8g_dev_gprof.c ****       }
  96:.\u8glib_arm_v1.18.1\src/u8g_dev_gprof.c ****       u8g_pb_Clear(pb);
 155              		.loc 1 96 0
 156 011a 7869     		ldr	r0, [r7, #20]
 157 011c FFF7FEFF 		bl	u8g_pb_Clear
  97:.\u8glib_arm_v1.18.1\src/u8g_dev_gprof.c ****       break;
 158              		.loc 1 97 0
 159 0120 04E0     		b	.L2
 160              	.L8:
  98:.\u8glib_arm_v1.18.1\src/u8g_dev_gprof.c **** #ifdef U8G_DEV_MSG_IS_BBX_INTERSECTION
  99:.\u8glib_arm_v1.18.1\src/u8g_dev_gprof.c ****     case U8G_DEV_MSG_IS_BBX_INTERSECTION:
 100:.\u8glib_arm_v1.18.1\src/u8g_dev_gprof.c ****        {
 101:.\u8glib_arm_v1.18.1\src/u8g_dev_gprof.c ****         u8g_dev_arg_bbx_t *bbx = (u8g_dev_arg_bbx_t *)arg;
 102:.\u8glib_arm_v1.18.1\src/u8g_dev_gprof.c ****         u8g_uint_t x2, y2;
 103:.\u8glib_arm_v1.18.1\src/u8g_dev_gprof.c **** 
 104:.\u8glib_arm_v1.18.1\src/u8g_dev_gprof.c ****         y2 = bbx->y;
 105:.\u8glib_arm_v1.18.1\src/u8g_dev_gprof.c ****         y2 += bbx->h;
 106:.\u8glib_arm_v1.18.1\src/u8g_dev_gprof.c ****         y2--;
 107:.\u8glib_arm_v1.18.1\src/u8g_dev_gprof.c ****         
 108:.\u8glib_arm_v1.18.1\src/u8g_dev_gprof.c ****         if ( u8g_pb_IsYIntersection(pb, bbx->y, y2) == 0 )
 109:.\u8glib_arm_v1.18.1\src/u8g_dev_gprof.c ****           return 0;
 110:.\u8glib_arm_v1.18.1\src/u8g_dev_gprof.c ****         
 111:.\u8glib_arm_v1.18.1\src/u8g_dev_gprof.c ****         /* maybe this one can be skiped... probability is very high to have an intersection, so it 
 112:.\u8glib_arm_v1.18.1\src/u8g_dev_gprof.c ****         x2 = bbx->x;
 113:.\u8glib_arm_v1.18.1\src/u8g_dev_gprof.c ****         x2 += bbx->w;
 114:.\u8glib_arm_v1.18.1\src/u8g_dev_gprof.c ****         x2--;
 115:.\u8glib_arm_v1.18.1\src/u8g_dev_gprof.c ****         
 116:.\u8glib_arm_v1.18.1\src/u8g_dev_gprof.c ****         if ( u8g_pb_IsXIntersection(pb, bbx->x, x2) == 0 )
 117:.\u8glib_arm_v1.18.1\src/u8g_dev_gprof.c ****           return 0;
 118:.\u8glib_arm_v1.18.1\src/u8g_dev_gprof.c ****       }
 119:.\u8glib_arm_v1.18.1\src/u8g_dev_gprof.c ****       return 1;
 120:.\u8glib_arm_v1.18.1\src/u8g_dev_gprof.c **** #endif
 121:.\u8glib_arm_v1.18.1\src/u8g_dev_gprof.c ****     case U8G_DEV_MSG_GET_PAGE_BOX:
 122:.\u8glib_arm_v1.18.1\src/u8g_dev_gprof.c ****       u8g_pb_GetPageBox(pb, (u8g_box_t *)arg);
 161              		.loc 1 122 0
 162 0122 7869     		ldr	r0, [r7, #20]
 163 0124 3968     		ldr	r1, [r7]
ARM GAS  C:\Users\Shiguruy\AppData\Local\Temp\cc5WsBly.s 			page 6


 164 0126 FFF7FEFF 		bl	u8g_pb_GetPageBox
 123:.\u8glib_arm_v1.18.1\src/u8g_dev_gprof.c ****       break;
 165              		.loc 1 123 0
 166 012a 00BF     		nop
 167              	.L2:
 124:.\u8glib_arm_v1.18.1\src/u8g_dev_gprof.c ****     case U8G_DEV_MSG_SET_COLOR_ENTRY:
 125:.\u8glib_arm_v1.18.1\src/u8g_dev_gprof.c ****       break;
 126:.\u8glib_arm_v1.18.1\src/u8g_dev_gprof.c ****     case U8G_DEV_MSG_SET_XY_CB:
 127:.\u8glib_arm_v1.18.1\src/u8g_dev_gprof.c ****       break;
 128:.\u8glib_arm_v1.18.1\src/u8g_dev_gprof.c ****   }
 129:.\u8glib_arm_v1.18.1\src/u8g_dev_gprof.c ****   return u8g_dev_pb8v1_base_fn(u8g, dev, msg, arg);
 168              		.loc 1 129 0
 169 012c FB79     		ldrb	r3, [r7, #7]	@ zero_extendqisi2
 170 012e F868     		ldr	r0, [r7, #12]
 171 0130 B968     		ldr	r1, [r7, #8]
 172 0132 1A46     		mov	r2, r3
 173 0134 3B68     		ldr	r3, [r7]
 174 0136 FFF7FEFF 		bl	u8g_dev_pb8v1_base_fn
 175 013a 0346     		mov	r3, r0
 176              	.L12:
 130:.\u8glib_arm_v1.18.1\src/u8g_dev_gprof.c **** }
 177              		.loc 1 130 0
 178 013c 1846     		mov	r0, r3
 179 013e 1837     		adds	r7, r7, #24
 180              		.cfi_def_cfa_offset 8
 181 0140 BD46     		mov	sp, r7
 182              		.cfi_def_cfa_register 13
 183              		@ sp needed
 184 0142 80BD     		pop	{r7, pc}
 185              		.cfi_endproc
 186              	.LFE0:
 187              		.size	u8g_dev_gprof_fn, .-u8g_dev_gprof_fn
 188              		.text
 189              	.Letext0:
 190              		.file 2 "c:\\program files (x86)\\cypress\\psoc creator\\3.3\\psoc creator\\import\\gnu\\arm\\4.9.
 191              		.file 3 "c:\\program files (x86)\\cypress\\psoc creator\\3.3\\psoc creator\\import\\gnu\\arm\\4.9.
 192              		.file 4 ".\\u8glib_arm_v1.18.1\\src\\u8g.h"