ARM GAS  C:\Users\KJA\AppData\Local\Temp\ccpE9MEh.s 			page 1


   1              		.syntax unified
   2              		.cpu cortex-m3
   3              		.fpu softvfp
   4              		.eabi_attribute 20, 1
   5              		.eabi_attribute 21, 1
   6              		.eabi_attribute 23, 3
   7              		.eabi_attribute 24, 1
   8              		.eabi_attribute 25, 1
   9              		.eabi_attribute 26, 1
  10              		.eabi_attribute 30, 6
  11              		.eabi_attribute 34, 1
  12              		.eabi_attribute 18, 4
  13              		.thumb
  14              		.file	"u8g_page.c"
  15              		.text
  16              	.Ltext0:
  17              		.cfi_sections	.debug_frame
  18              		.section	.text.u8g_page_Init,"ax",%progbits
  19              		.align	2
  20              		.global	u8g_page_Init
  21              		.thumb
  22              		.thumb_func
  23              		.type	u8g_page_Init, %function
  24              	u8g_page_Init:
  25              	.LFB0:
  26              		.file 1 "u8glib_arm_v1.18.1\\src\\u8g_page.c"
   1:u8glib_arm_v1.18.1\src/u8g_page.c **** /*
   2:u8glib_arm_v1.18.1\src/u8g_page.c **** 
   3:u8glib_arm_v1.18.1\src/u8g_page.c ****   u8g_page.c
   4:u8glib_arm_v1.18.1\src/u8g_page.c ****   
   5:u8glib_arm_v1.18.1\src/u8g_page.c ****   page helper functions, only called by the dev handler.
   6:u8glib_arm_v1.18.1\src/u8g_page.c **** 
   7:u8glib_arm_v1.18.1\src/u8g_page.c ****   Universal 8bit Graphics Library
   8:u8glib_arm_v1.18.1\src/u8g_page.c ****   
   9:u8glib_arm_v1.18.1\src/u8g_page.c ****   Copyright (c) 2011, olikraus@gmail.com
  10:u8glib_arm_v1.18.1\src/u8g_page.c ****   All rights reserved.
  11:u8glib_arm_v1.18.1\src/u8g_page.c **** 
  12:u8glib_arm_v1.18.1\src/u8g_page.c ****   Redistribution and use in source and binary forms, with or without modification, 
  13:u8glib_arm_v1.18.1\src/u8g_page.c ****   are permitted provided that the following conditions are met:
  14:u8glib_arm_v1.18.1\src/u8g_page.c **** 
  15:u8glib_arm_v1.18.1\src/u8g_page.c ****   * Redistributions of source code must retain the above copyright notice, this list 
  16:u8glib_arm_v1.18.1\src/u8g_page.c ****     of conditions and the following disclaimer.
  17:u8glib_arm_v1.18.1\src/u8g_page.c ****     
  18:u8glib_arm_v1.18.1\src/u8g_page.c ****   * Redistributions in binary form must reproduce the above copyright notice, this 
  19:u8glib_arm_v1.18.1\src/u8g_page.c ****     list of conditions and the following disclaimer in the documentation and/or other 
  20:u8glib_arm_v1.18.1\src/u8g_page.c ****     materials provided with the distribution.
  21:u8glib_arm_v1.18.1\src/u8g_page.c **** 
  22:u8glib_arm_v1.18.1\src/u8g_page.c ****   THIS SOFTWARE IS PROVIDED BY THE COPYRIGHT HOLDERS AND 
  23:u8glib_arm_v1.18.1\src/u8g_page.c ****   CONTRIBUTORS "AS IS" AND ANY EXPRESS OR IMPLIED WARRANTIES, 
  24:u8glib_arm_v1.18.1\src/u8g_page.c ****   INCLUDING, BUT NOT LIMITED TO, THE IMPLIED WARRANTIES OF 
  25:u8glib_arm_v1.18.1\src/u8g_page.c ****   MERCHANTABILITY AND FITNESS FOR A PARTICULAR PURPOSE ARE 
  26:u8glib_arm_v1.18.1\src/u8g_page.c ****   DISCLAIMED. IN NO EVENT SHALL THE COPYRIGHT HOLDER OR 
  27:u8glib_arm_v1.18.1\src/u8g_page.c ****   CONTRIBUTORS BE LIABLE FOR ANY DIRECT, INDIRECT, INCIDENTAL, 
  28:u8glib_arm_v1.18.1\src/u8g_page.c ****   SPECIAL, EXEMPLARY, OR CONSEQUENTIAL DAMAGES (INCLUDING, BUT 
  29:u8glib_arm_v1.18.1\src/u8g_page.c ****   NOT LIMITED TO, PROCUREMENT OF SUBSTITUTE GOODS OR SERVICES; 
  30:u8glib_arm_v1.18.1\src/u8g_page.c ****   LOSS OF USE, DATA, OR PROFITS; OR BUSINESS INTERRUPTION) HOWEVER 
  31:u8glib_arm_v1.18.1\src/u8g_page.c ****   CAUSED AND ON ANY THEORY OF LIABILITY, WHETHER IN CONTRACT, 
ARM GAS  C:\Users\KJA\AppData\Local\Temp\ccpE9MEh.s 			page 2


  32:u8glib_arm_v1.18.1\src/u8g_page.c ****   STRICT LIABILITY, OR TORT (INCLUDING NEGLIGENCE OR OTHERWISE) 
  33:u8glib_arm_v1.18.1\src/u8g_page.c ****   ARISING IN ANY WAY OUT OF THE USE OF THIS SOFTWARE, EVEN IF 
  34:u8glib_arm_v1.18.1\src/u8g_page.c ****   ADVISED OF THE POSSIBILITY OF SUCH DAMAGE.  
  35:u8glib_arm_v1.18.1\src/u8g_page.c ****   
  36:u8glib_arm_v1.18.1\src/u8g_page.c ****   
  37:u8glib_arm_v1.18.1\src/u8g_page.c **** */
  38:u8glib_arm_v1.18.1\src/u8g_page.c **** 
  39:u8glib_arm_v1.18.1\src/u8g_page.c **** #include "u8g.h"
  40:u8glib_arm_v1.18.1\src/u8g_page.c **** 
  41:u8glib_arm_v1.18.1\src/u8g_page.c **** /*
  42:u8glib_arm_v1.18.1\src/u8g_page.c ****   setup page count structure
  43:u8glib_arm_v1.18.1\src/u8g_page.c ****   conditions: page_height <= total_height
  44:u8glib_arm_v1.18.1\src/u8g_page.c **** */
  45:u8glib_arm_v1.18.1\src/u8g_page.c **** void u8g_page_Init(u8g_page_t *p, u8g_uint_t page_height, u8g_uint_t total_height )
  46:u8glib_arm_v1.18.1\src/u8g_page.c **** {
  27              		.loc 1 46 0
  28              		.cfi_startproc
  29              		@ args = 0, pretend = 0, frame = 8
  30              		@ frame_needed = 1, uses_anonymous_args = 0
  31 0000 80B5     		push	{r7, lr}
  32              		.cfi_def_cfa_offset 8
  33              		.cfi_offset 7, -8
  34              		.cfi_offset 14, -4
  35 0002 82B0     		sub	sp, sp, #8
  36              		.cfi_def_cfa_offset 16
  37 0004 00AF     		add	r7, sp, #0
  38              		.cfi_def_cfa_register 7
  39 0006 7860     		str	r0, [r7, #4]
  40 0008 0B46     		mov	r3, r1
  41 000a FB70     		strb	r3, [r7, #3]
  42 000c 1346     		mov	r3, r2
  43 000e BB70     		strb	r3, [r7, #2]
  47:u8glib_arm_v1.18.1\src/u8g_page.c ****   p->page_height = page_height;
  44              		.loc 1 47 0
  45 0010 7B68     		ldr	r3, [r7, #4]
  46 0012 FA78     		ldrb	r2, [r7, #3]
  47 0014 1A70     		strb	r2, [r3]
  48:u8glib_arm_v1.18.1\src/u8g_page.c ****   p->total_height = total_height;
  48              		.loc 1 48 0
  49 0016 7B68     		ldr	r3, [r7, #4]
  50 0018 BA78     		ldrb	r2, [r7, #2]
  51 001a 5A70     		strb	r2, [r3, #1]
  49:u8glib_arm_v1.18.1\src/u8g_page.c ****   p->page = 0;
  52              		.loc 1 49 0
  53 001c 7B68     		ldr	r3, [r7, #4]
  54 001e 0022     		movs	r2, #0
  55 0020 1A71     		strb	r2, [r3, #4]
  50:u8glib_arm_v1.18.1\src/u8g_page.c ****   u8g_page_First(p);
  56              		.loc 1 50 0
  57 0022 7868     		ldr	r0, [r7, #4]
  58 0024 FFF7FEFF 		bl	u8g_page_First
  51:u8glib_arm_v1.18.1\src/u8g_page.c **** }
  59              		.loc 1 51 0
  60 0028 0837     		adds	r7, r7, #8
  61              		.cfi_def_cfa_offset 8
  62 002a BD46     		mov	sp, r7
  63              		.cfi_def_cfa_register 13
ARM GAS  C:\Users\KJA\AppData\Local\Temp\ccpE9MEh.s 			page 3


  64              		@ sp needed
  65 002c 80BD     		pop	{r7, pc}
  66              		.cfi_endproc
  67              	.LFE0:
  68              		.size	u8g_page_Init, .-u8g_page_Init
  69 002e 00BF     		.section	.text.u8g_page_First,"ax",%progbits
  70              		.align	2
  71              		.global	u8g_page_First
  72              		.thumb
  73              		.thumb_func
  74              		.type	u8g_page_First, %function
  75              	u8g_page_First:
  76              	.LFB1:
  52:u8glib_arm_v1.18.1\src/u8g_page.c **** 
  53:u8glib_arm_v1.18.1\src/u8g_page.c **** void u8g_page_First(u8g_page_t *p)
  54:u8glib_arm_v1.18.1\src/u8g_page.c **** {
  77              		.loc 1 54 0
  78              		.cfi_startproc
  79              		@ args = 0, pretend = 0, frame = 8
  80              		@ frame_needed = 1, uses_anonymous_args = 0
  81              		@ link register save eliminated.
  82 0000 80B4     		push	{r7}
  83              		.cfi_def_cfa_offset 4
  84              		.cfi_offset 7, -4
  85 0002 83B0     		sub	sp, sp, #12
  86              		.cfi_def_cfa_offset 16
  87 0004 00AF     		add	r7, sp, #0
  88              		.cfi_def_cfa_register 7
  89 0006 7860     		str	r0, [r7, #4]
  55:u8glib_arm_v1.18.1\src/u8g_page.c ****   p->page_y0 = 0;
  90              		.loc 1 55 0
  91 0008 7B68     		ldr	r3, [r7, #4]
  92 000a 0022     		movs	r2, #0
  93 000c 9A70     		strb	r2, [r3, #2]
  56:u8glib_arm_v1.18.1\src/u8g_page.c ****   p->page_y1 = p->page_height;
  94              		.loc 1 56 0
  95 000e 7B68     		ldr	r3, [r7, #4]
  96 0010 1A78     		ldrb	r2, [r3]	@ zero_extendqisi2
  97 0012 7B68     		ldr	r3, [r7, #4]
  98 0014 DA70     		strb	r2, [r3, #3]
  57:u8glib_arm_v1.18.1\src/u8g_page.c ****   p->page_y1--;
  99              		.loc 1 57 0
 100 0016 7B68     		ldr	r3, [r7, #4]
 101 0018 DB78     		ldrb	r3, [r3, #3]	@ zero_extendqisi2
 102 001a 013B     		subs	r3, r3, #1
 103 001c DAB2     		uxtb	r2, r3
 104 001e 7B68     		ldr	r3, [r7, #4]
 105 0020 DA70     		strb	r2, [r3, #3]
  58:u8glib_arm_v1.18.1\src/u8g_page.c ****   p->page = 0;
 106              		.loc 1 58 0
 107 0022 7B68     		ldr	r3, [r7, #4]
 108 0024 0022     		movs	r2, #0
 109 0026 1A71     		strb	r2, [r3, #4]
  59:u8glib_arm_v1.18.1\src/u8g_page.c **** }
 110              		.loc 1 59 0
 111 0028 0C37     		adds	r7, r7, #12
 112              		.cfi_def_cfa_offset 4
ARM GAS  C:\Users\KJA\AppData\Local\Temp\ccpE9MEh.s 			page 4


 113 002a BD46     		mov	sp, r7
 114              		.cfi_def_cfa_register 13
 115              		@ sp needed
 116 002c 5DF8047B 		ldr	r7, [sp], #4
 117              		.cfi_restore 7
 118              		.cfi_def_cfa_offset 0
 119 0030 7047     		bx	lr
 120              		.cfi_endproc
 121              	.LFE1:
 122              		.size	u8g_page_First, .-u8g_page_First
 123 0032 00BF     		.section	.text.u8g_page_Next,"ax",%progbits
 124              		.align	2
 125              		.global	u8g_page_Next
 126              		.thumb
 127              		.thumb_func
 128              		.type	u8g_page_Next, %function
 129              	u8g_page_Next:
 130              	.LFB2:
  60:u8glib_arm_v1.18.1\src/u8g_page.c **** 
  61:u8glib_arm_v1.18.1\src/u8g_page.c **** uint8_t u8g_page_Next(u8g_page_t * p)
  62:u8glib_arm_v1.18.1\src/u8g_page.c **** {
 131              		.loc 1 62 0
 132              		.cfi_startproc
 133              		@ args = 0, pretend = 0, frame = 8
 134              		@ frame_needed = 1, uses_anonymous_args = 0
 135              		@ link register save eliminated.
 136 0000 90B4     		push	{r4, r7}
 137              		.cfi_def_cfa_offset 8
 138              		.cfi_offset 4, -8
 139              		.cfi_offset 7, -4
 140 0002 82B0     		sub	sp, sp, #8
 141              		.cfi_def_cfa_offset 16
 142 0004 00AF     		add	r7, sp, #0
 143              		.cfi_def_cfa_register 7
 144 0006 7860     		str	r0, [r7, #4]
  63:u8glib_arm_v1.18.1\src/u8g_page.c ****   register u8g_uint_t y1;
  64:u8glib_arm_v1.18.1\src/u8g_page.c ****   p->page_y0 += p->page_height;
 145              		.loc 1 64 0
 146 0008 7B68     		ldr	r3, [r7, #4]
 147 000a 9A78     		ldrb	r2, [r3, #2]	@ zero_extendqisi2
 148 000c 7B68     		ldr	r3, [r7, #4]
 149 000e 1B78     		ldrb	r3, [r3]	@ zero_extendqisi2
 150 0010 1344     		add	r3, r3, r2
 151 0012 DAB2     		uxtb	r2, r3
 152 0014 7B68     		ldr	r3, [r7, #4]
 153 0016 9A70     		strb	r2, [r3, #2]
  65:u8glib_arm_v1.18.1\src/u8g_page.c ****   if ( p->page_y0 >= p->total_height )
 154              		.loc 1 65 0
 155 0018 7B68     		ldr	r3, [r7, #4]
 156 001a 9A78     		ldrb	r2, [r3, #2]	@ zero_extendqisi2
 157 001c 7B68     		ldr	r3, [r7, #4]
 158 001e 5B78     		ldrb	r3, [r3, #1]	@ zero_extendqisi2
 159 0020 9A42     		cmp	r2, r3
 160 0022 01D3     		bcc	.L4
  66:u8glib_arm_v1.18.1\src/u8g_page.c ****     return 0;
 161              		.loc 1 66 0
 162 0024 0023     		movs	r3, #0
ARM GAS  C:\Users\KJA\AppData\Local\Temp\ccpE9MEh.s 			page 5


 163 0026 18E0     		b	.L5
 164              	.L4:
  67:u8glib_arm_v1.18.1\src/u8g_page.c ****   p->page++;
 165              		.loc 1 67 0
 166 0028 7B68     		ldr	r3, [r7, #4]
 167 002a 1B79     		ldrb	r3, [r3, #4]	@ zero_extendqisi2
 168 002c 0133     		adds	r3, r3, #1
 169 002e DAB2     		uxtb	r2, r3
 170 0030 7B68     		ldr	r3, [r7, #4]
 171 0032 1A71     		strb	r2, [r3, #4]
  68:u8glib_arm_v1.18.1\src/u8g_page.c ****   y1 = p->page_y1;
 172              		.loc 1 68 0
 173 0034 7B68     		ldr	r3, [r7, #4]
 174 0036 DC78     		ldrb	r4, [r3, #3]	@ zero_extendqisi2
  69:u8glib_arm_v1.18.1\src/u8g_page.c ****   y1 += p->page_height;
 175              		.loc 1 69 0
 176 0038 7B68     		ldr	r3, [r7, #4]
 177 003a 1B78     		ldrb	r3, [r3]	@ zero_extendqisi2
 178 003c 2344     		add	r3, r3, r4
 179 003e DCB2     		uxtb	r4, r3
  70:u8glib_arm_v1.18.1\src/u8g_page.c ****   if ( y1 >= p->total_height )
 180              		.loc 1 70 0
 181 0040 7B68     		ldr	r3, [r7, #4]
 182 0042 5B78     		ldrb	r3, [r3, #1]	@ zero_extendqisi2
 183 0044 A342     		cmp	r3, r4
 184 0046 04D8     		bhi	.L6
  71:u8glib_arm_v1.18.1\src/u8g_page.c ****   {
  72:u8glib_arm_v1.18.1\src/u8g_page.c ****     y1 = p->total_height;
 185              		.loc 1 72 0
 186 0048 7B68     		ldr	r3, [r7, #4]
 187 004a 5C78     		ldrb	r4, [r3, #1]	@ zero_extendqisi2
  73:u8glib_arm_v1.18.1\src/u8g_page.c ****     y1--;
 188              		.loc 1 73 0
 189 004c 2346     		mov	r3, r4
 190 004e 013B     		subs	r3, r3, #1
 191 0050 DCB2     		uxtb	r4, r3
 192              	.L6:
  74:u8glib_arm_v1.18.1\src/u8g_page.c ****   }
  75:u8glib_arm_v1.18.1\src/u8g_page.c ****   p->page_y1 = y1;
 193              		.loc 1 75 0
 194 0052 7B68     		ldr	r3, [r7, #4]
 195 0054 2246     		mov	r2, r4
 196 0056 DA70     		strb	r2, [r3, #3]
  76:u8glib_arm_v1.18.1\src/u8g_page.c ****   
  77:u8glib_arm_v1.18.1\src/u8g_page.c ****   return 1;
 197              		.loc 1 77 0
 198 0058 0123     		movs	r3, #1
 199              	.L5:
  78:u8glib_arm_v1.18.1\src/u8g_page.c **** }
 200              		.loc 1 78 0
 201 005a 1846     		mov	r0, r3
 202 005c 0837     		adds	r7, r7, #8
 203              		.cfi_def_cfa_offset 8
 204 005e BD46     		mov	sp, r7
 205              		.cfi_def_cfa_register 13
 206              		@ sp needed
 207 0060 90BC     		pop	{r4, r7}
ARM GAS  C:\Users\KJA\AppData\Local\Temp\ccpE9MEh.s 			page 6


 208              		.cfi_restore 7
 209              		.cfi_restore 4
 210              		.cfi_def_cfa_offset 0
 211 0062 7047     		bx	lr
 212              		.cfi_endproc
 213              	.LFE2:
 214              		.size	u8g_page_Next, .-u8g_page_Next
 215              		.text
 216              	.Letext0:
 217              		.file 2 "c:\\program files (x86)\\cypress\\psoc creator\\4.0\\psoc creator\\import\\gnu\\arm\\4.9.
 218              		.file 3 "c:\\program files (x86)\\cypress\\psoc creator\\4.0\\psoc creator\\import\\gnu\\arm\\4.9.
 219              		.file 4 "u8glib_arm_v1.18.1\\src\\u8g.h"