ARM GAS  C:\Users\KJA\AppData\Local\Temp\ccLML7Uo.s 			page 1


   1              		.syntax unified
   2              		.cpu cortex-m3
   3              		.fpu softvfp
   4              		.eabi_attribute 20, 1
   5              		.eabi_attribute 21, 1
   6              		.eabi_attribute 23, 3
   7              		.eabi_attribute 24, 1
   8              		.eabi_attribute 25, 1
   9              		.eabi_attribute 26, 1
  10              		.eabi_attribute 30, 6
  11              		.eabi_attribute 34, 1
  12              		.eabi_attribute 18, 4
  13              		.thumb
  14              		.file	"u8g_u16toa.c"
  15              		.text
  16              	.Ltext0:
  17              		.cfi_sections	.debug_frame
  18              		.section	.text.u8g_u16toap,"ax",%progbits
  19              		.align	2
  20              		.global	u8g_u16toap
  21              		.thumb
  22              		.thumb_func
  23              		.type	u8g_u16toap, %function
  24              	u8g_u16toap:
  25              	.LFB0:
  26              		.file 1 "u8glib_arm_v1.18.1\\src\\u8g_u16toa.c"
   1:u8glib_arm_v1.18.1\src/u8g_u16toa.c **** /*
   2:u8glib_arm_v1.18.1\src/u8g_u16toa.c **** 
   3:u8glib_arm_v1.18.1\src/u8g_u16toa.c ****   u8g_u16toa.c
   4:u8glib_arm_v1.18.1\src/u8g_u16toa.c **** 
   5:u8glib_arm_v1.18.1\src/u8g_u16toa.c **** 
   6:u8glib_arm_v1.18.1\src/u8g_u16toa.c ****   Universal 8bit Graphics Library
   7:u8glib_arm_v1.18.1\src/u8g_u16toa.c ****   
   8:u8glib_arm_v1.18.1\src/u8g_u16toa.c ****   Copyright (c) 2012, olikraus@gmail.com
   9:u8glib_arm_v1.18.1\src/u8g_u16toa.c ****   All rights reserved.
  10:u8glib_arm_v1.18.1\src/u8g_u16toa.c **** 
  11:u8glib_arm_v1.18.1\src/u8g_u16toa.c ****   Redistribution and use in source and binary forms, with or without modification, 
  12:u8glib_arm_v1.18.1\src/u8g_u16toa.c ****   are permitted provided that the following conditions are met:
  13:u8glib_arm_v1.18.1\src/u8g_u16toa.c **** 
  14:u8glib_arm_v1.18.1\src/u8g_u16toa.c ****   * Redistributions of source code must retain the above copyright notice, this list 
  15:u8glib_arm_v1.18.1\src/u8g_u16toa.c ****     of conditions and the following disclaimer.
  16:u8glib_arm_v1.18.1\src/u8g_u16toa.c ****     
  17:u8glib_arm_v1.18.1\src/u8g_u16toa.c ****   * Redistributions in binary form must reproduce the above copyright notice, this 
  18:u8glib_arm_v1.18.1\src/u8g_u16toa.c ****     list of conditions and the following disclaimer in the documentation and/or other 
  19:u8glib_arm_v1.18.1\src/u8g_u16toa.c ****     materials provided with the distribution.
  20:u8glib_arm_v1.18.1\src/u8g_u16toa.c **** 
  21:u8glib_arm_v1.18.1\src/u8g_u16toa.c ****   THIS SOFTWARE IS PROVIDED BY THE COPYRIGHT HOLDERS AND 
  22:u8glib_arm_v1.18.1\src/u8g_u16toa.c ****   CONTRIBUTORS "AS IS" AND ANY EXPRESS OR IMPLIED WARRANTIES, 
  23:u8glib_arm_v1.18.1\src/u8g_u16toa.c ****   INCLUDING, BUT NOT LIMITED TO, THE IMPLIED WARRANTIES OF 
  24:u8glib_arm_v1.18.1\src/u8g_u16toa.c ****   MERCHANTABILITY AND FITNESS FOR A PARTICULAR PURPOSE ARE 
  25:u8glib_arm_v1.18.1\src/u8g_u16toa.c ****   DISCLAIMED. IN NO EVENT SHALL THE COPYRIGHT HOLDER OR 
  26:u8glib_arm_v1.18.1\src/u8g_u16toa.c ****   CONTRIBUTORS BE LIABLE FOR ANY DIRECT, INDIRECT, INCIDENTAL, 
  27:u8glib_arm_v1.18.1\src/u8g_u16toa.c ****   SPECIAL, EXEMPLARY, OR CONSEQUENTIAL DAMAGES (INCLUDING, BUT 
  28:u8glib_arm_v1.18.1\src/u8g_u16toa.c ****   NOT LIMITED TO, PROCUREMENT OF SUBSTITUTE GOODS OR SERVICES; 
  29:u8glib_arm_v1.18.1\src/u8g_u16toa.c ****   LOSS OF USE, DATA, OR PROFITS; OR BUSINESS INTERRUPTION) HOWEVER 
  30:u8glib_arm_v1.18.1\src/u8g_u16toa.c ****   CAUSED AND ON ANY THEORY OF LIABILITY, WHETHER IN CONTRACT, 
  31:u8glib_arm_v1.18.1\src/u8g_u16toa.c ****   STRICT LIABILITY, OR TORT (INCLUDING NEGLIGENCE OR OTHERWISE) 
ARM GAS  C:\Users\KJA\AppData\Local\Temp\ccLML7Uo.s 			page 2


  32:u8glib_arm_v1.18.1\src/u8g_u16toa.c ****   ARISING IN ANY WAY OUT OF THE USE OF THIS SOFTWARE, EVEN IF 
  33:u8glib_arm_v1.18.1\src/u8g_u16toa.c ****   ADVISED OF THE POSSIBILITY OF SUCH DAMAGE.  
  34:u8glib_arm_v1.18.1\src/u8g_u16toa.c ****   
  35:u8glib_arm_v1.18.1\src/u8g_u16toa.c **** */
  36:u8glib_arm_v1.18.1\src/u8g_u16toa.c **** 
  37:u8glib_arm_v1.18.1\src/u8g_u16toa.c **** 
  38:u8glib_arm_v1.18.1\src/u8g_u16toa.c **** #include "u8g.h"
  39:u8glib_arm_v1.18.1\src/u8g_u16toa.c **** 
  40:u8glib_arm_v1.18.1\src/u8g_u16toa.c **** const char *u8g_u16toap(char * dest, uint16_t v)
  41:u8glib_arm_v1.18.1\src/u8g_u16toa.c **** {
  27              		.loc 1 41 0
  28              		.cfi_startproc
  29              		@ args = 0, pretend = 0, frame = 16
  30              		@ frame_needed = 1, uses_anonymous_args = 0
  31              		@ link register save eliminated.
  32 0000 80B4     		push	{r7}
  33              		.cfi_def_cfa_offset 4
  34              		.cfi_offset 7, -4
  35 0002 85B0     		sub	sp, sp, #20
  36              		.cfi_def_cfa_offset 24
  37 0004 00AF     		add	r7, sp, #0
  38              		.cfi_def_cfa_register 7
  39 0006 7860     		str	r0, [r7, #4]
  40 0008 0B46     		mov	r3, r1
  41 000a 7B80     		strh	r3, [r7, #2]	@ movhi
  42:u8glib_arm_v1.18.1\src/u8g_u16toa.c ****   uint8_t pos;
  43:u8glib_arm_v1.18.1\src/u8g_u16toa.c ****   uint8_t d;
  44:u8glib_arm_v1.18.1\src/u8g_u16toa.c ****   uint16_t c;
  45:u8glib_arm_v1.18.1\src/u8g_u16toa.c ****   c = 10000;
  42              		.loc 1 45 0
  43 000c 42F21073 		movw	r3, #10000
  44 0010 BB81     		strh	r3, [r7, #12]	@ movhi
  46:u8glib_arm_v1.18.1\src/u8g_u16toa.c ****   for( pos = 0; pos < 5; pos++ )
  45              		.loc 1 46 0
  46 0012 0023     		movs	r3, #0
  47 0014 FB73     		strb	r3, [r7, #15]
  48 0016 1BE0     		b	.L2
  49              	.L5:
  47:u8glib_arm_v1.18.1\src/u8g_u16toa.c ****   {
  48:u8glib_arm_v1.18.1\src/u8g_u16toa.c ****       d = '0';
  50              		.loc 1 48 0
  51 0018 3023     		movs	r3, #48
  52 001a BB73     		strb	r3, [r7, #14]
  49:u8glib_arm_v1.18.1\src/u8g_u16toa.c ****       while( v >= c )
  53              		.loc 1 49 0
  54 001c 06E0     		b	.L3
  55              	.L4:
  50:u8glib_arm_v1.18.1\src/u8g_u16toa.c ****       {
  51:u8glib_arm_v1.18.1\src/u8g_u16toa.c **** 	v -= c;
  56              		.loc 1 51 0
  57 001e 7A88     		ldrh	r2, [r7, #2]	@ movhi
  58 0020 BB89     		ldrh	r3, [r7, #12]	@ movhi
  59 0022 D31A     		subs	r3, r2, r3
  60 0024 7B80     		strh	r3, [r7, #2]	@ movhi
  52:u8glib_arm_v1.18.1\src/u8g_u16toa.c **** 	d++;
  61              		.loc 1 52 0
  62 0026 BB7B     		ldrb	r3, [r7, #14]	@ zero_extendqisi2
ARM GAS  C:\Users\KJA\AppData\Local\Temp\ccLML7Uo.s 			page 3


  63 0028 0133     		adds	r3, r3, #1
  64 002a BB73     		strb	r3, [r7, #14]
  65              	.L3:
  49:u8glib_arm_v1.18.1\src/u8g_u16toa.c ****       while( v >= c )
  66              		.loc 1 49 0
  67 002c 7A88     		ldrh	r2, [r7, #2]
  68 002e BB89     		ldrh	r3, [r7, #12]
  69 0030 9A42     		cmp	r2, r3
  70 0032 F4D2     		bcs	.L4
  53:u8glib_arm_v1.18.1\src/u8g_u16toa.c ****       }
  54:u8glib_arm_v1.18.1\src/u8g_u16toa.c ****       dest[pos] = d;
  71              		.loc 1 54 0 discriminator 2
  72 0034 FB7B     		ldrb	r3, [r7, #15]	@ zero_extendqisi2
  73 0036 7A68     		ldr	r2, [r7, #4]
  74 0038 1344     		add	r3, r3, r2
  75 003a BA7B     		ldrb	r2, [r7, #14]
  76 003c 1A70     		strb	r2, [r3]
  55:u8glib_arm_v1.18.1\src/u8g_u16toa.c ****       c /= 10;
  77              		.loc 1 55 0 discriminator 2
  78 003e BB89     		ldrh	r3, [r7, #12]
  79 0040 0A4A     		ldr	r2, .L7
  80 0042 A2FB0323 		umull	r2, r3, r2, r3
  81 0046 DB08     		lsrs	r3, r3, #3
  82 0048 BB81     		strh	r3, [r7, #12]	@ movhi
  46:u8glib_arm_v1.18.1\src/u8g_u16toa.c ****   {
  83              		.loc 1 46 0 discriminator 2
  84 004a FB7B     		ldrb	r3, [r7, #15]	@ zero_extendqisi2
  85 004c 0133     		adds	r3, r3, #1
  86 004e FB73     		strb	r3, [r7, #15]
  87              	.L2:
  46:u8glib_arm_v1.18.1\src/u8g_u16toa.c ****   {
  88              		.loc 1 46 0 is_stmt 0 discriminator 1
  89 0050 FB7B     		ldrb	r3, [r7, #15]	@ zero_extendqisi2
  90 0052 042B     		cmp	r3, #4
  91 0054 E0D9     		bls	.L5
  56:u8glib_arm_v1.18.1\src/u8g_u16toa.c ****   }  
  57:u8glib_arm_v1.18.1\src/u8g_u16toa.c ****   dest[5] = '\0';
  92              		.loc 1 57 0 is_stmt 1
  93 0056 7B68     		ldr	r3, [r7, #4]
  94 0058 0533     		adds	r3, r3, #5
  95 005a 0022     		movs	r2, #0
  96 005c 1A70     		strb	r2, [r3]
  58:u8glib_arm_v1.18.1\src/u8g_u16toa.c ****   return dest;
  97              		.loc 1 58 0
  98 005e 7B68     		ldr	r3, [r7, #4]
  59:u8glib_arm_v1.18.1\src/u8g_u16toa.c **** }
  99              		.loc 1 59 0
 100 0060 1846     		mov	r0, r3
 101 0062 1437     		adds	r7, r7, #20
 102              		.cfi_def_cfa_offset 4
 103 0064 BD46     		mov	sp, r7
 104              		.cfi_def_cfa_register 13
 105              		@ sp needed
 106 0066 5DF8047B 		ldr	r7, [sp], #4
 107              		.cfi_restore 7
 108              		.cfi_def_cfa_offset 0
 109 006a 7047     		bx	lr
ARM GAS  C:\Users\KJA\AppData\Local\Temp\ccLML7Uo.s 			page 4


 110              	.L8:
 111              		.align	2
 112              	.L7:
 113 006c CDCCCCCC 		.word	-858993459
 114              		.cfi_endproc
 115              	.LFE0:
 116              		.size	u8g_u16toap, .-u8g_u16toap
 117              		.section	.text.u8g_u16toa,"ax",%progbits
 118              		.align	2
 119              		.global	u8g_u16toa
 120              		.thumb
 121              		.thumb_func
 122              		.type	u8g_u16toa, %function
 123              	u8g_u16toa:
 124              	.LFB1:
  60:u8glib_arm_v1.18.1\src/u8g_u16toa.c **** 
  61:u8glib_arm_v1.18.1\src/u8g_u16toa.c **** /* v = value, d = number of digits */
  62:u8glib_arm_v1.18.1\src/u8g_u16toa.c **** const char *u8g_u16toa(uint16_t v, uint8_t d)
  63:u8glib_arm_v1.18.1\src/u8g_u16toa.c **** {
 125              		.loc 1 63 0
 126              		.cfi_startproc
 127              		@ args = 0, pretend = 0, frame = 8
 128              		@ frame_needed = 1, uses_anonymous_args = 0
 129 0000 80B5     		push	{r7, lr}
 130              		.cfi_def_cfa_offset 8
 131              		.cfi_offset 7, -8
 132              		.cfi_offset 14, -4
 133 0002 82B0     		sub	sp, sp, #8
 134              		.cfi_def_cfa_offset 16
 135 0004 00AF     		add	r7, sp, #0
 136              		.cfi_def_cfa_register 7
 137 0006 0346     		mov	r3, r0
 138 0008 0A46     		mov	r2, r1
 139 000a FB80     		strh	r3, [r7, #6]	@ movhi
 140 000c 1346     		mov	r3, r2
 141 000e 7B71     		strb	r3, [r7, #5]
  64:u8glib_arm_v1.18.1\src/u8g_u16toa.c ****   static char buf[6];
  65:u8glib_arm_v1.18.1\src/u8g_u16toa.c ****   d = 5-d;
 142              		.loc 1 65 0
 143 0010 7B79     		ldrb	r3, [r7, #5]
 144 0012 C3F10503 		rsb	r3, r3, #5
 145 0016 7B71     		strb	r3, [r7, #5]
  66:u8glib_arm_v1.18.1\src/u8g_u16toa.c ****   return u8g_u16toap(buf, v) + d;
 146              		.loc 1 66 0
 147 0018 FB88     		ldrh	r3, [r7, #6]
 148 001a 0548     		ldr	r0, .L11
 149 001c 1946     		mov	r1, r3
 150 001e FFF7FEFF 		bl	u8g_u16toap
 151 0022 0246     		mov	r2, r0
 152 0024 7B79     		ldrb	r3, [r7, #5]	@ zero_extendqisi2
 153 0026 1344     		add	r3, r3, r2
  67:u8glib_arm_v1.18.1\src/u8g_u16toa.c **** }
 154              		.loc 1 67 0
 155 0028 1846     		mov	r0, r3
 156 002a 0837     		adds	r7, r7, #8
 157              		.cfi_def_cfa_offset 8
 158 002c BD46     		mov	sp, r7
ARM GAS  C:\Users\KJA\AppData\Local\Temp\ccLML7Uo.s 			page 5


 159              		.cfi_def_cfa_register 13
 160              		@ sp needed
 161 002e 80BD     		pop	{r7, pc}
 162              	.L12:
 163              		.align	2
 164              	.L11:
 165 0030 00000000 		.word	buf.5758
 166              		.cfi_endproc
 167              	.LFE1:
 168              		.size	u8g_u16toa, .-u8g_u16toa
 169              		.bss
 170              		.align	2
 171              	buf.5758:
 172 0000 00000000 		.space	6
 172      0000
 173 0006 0000     		.text
 174              	.Letext0:
 175              		.file 2 "c:\\program files (x86)\\cypress\\psoc creator\\4.0\\psoc creator\\import\\gnu\\arm\\4.9.
 176              		.file 3 "c:\\program files (x86)\\cypress\\psoc creator\\4.0\\psoc creator\\import\\gnu\\arm\\4.9.