ARM GAS  C:\Users\KJA\AppData\Local\Temp\ccGJ47qd.s 			page 1


   1              		.syntax unified
   2              		.cpu cortex-m3
   3              		.fpu softvfp
   4              		.eabi_attribute 20, 1
   5              		.eabi_attribute 21, 1
   6              		.eabi_attribute 23, 3
   7              		.eabi_attribute 24, 1
   8              		.eabi_attribute 25, 1
   9              		.eabi_attribute 26, 1
  10              		.eabi_attribute 30, 6
  11              		.eabi_attribute 34, 1
  12              		.eabi_attribute 18, 4
  13              		.thumb
  14              		.file	"u8g_line.c"
  15              		.text
  16              	.Ltext0:
  17              		.cfi_sections	.debug_frame
  18              		.section	.text.u8g_DrawLine,"ax",%progbits
  19              		.align	2
  20              		.global	u8g_DrawLine
  21              		.thumb
  22              		.thumb_func
  23              		.type	u8g_DrawLine, %function
  24              	u8g_DrawLine:
  25              	.LFB0:
  26              		.file 1 "u8glib_arm_v1.18.1\\src\\u8g_line.c"
   1:u8glib_arm_v1.18.1\src/u8g_line.c **** /*
   2:u8glib_arm_v1.18.1\src/u8g_line.c **** 
   3:u8glib_arm_v1.18.1\src/u8g_line.c ****   u8g_line.c
   4:u8glib_arm_v1.18.1\src/u8g_line.c ****   
   5:u8glib_arm_v1.18.1\src/u8g_line.c ****   Universal 8bit Graphics Library
   6:u8glib_arm_v1.18.1\src/u8g_line.c ****   
   7:u8glib_arm_v1.18.1\src/u8g_line.c ****   Copyright (c) 2012, olikraus@gmail.com
   8:u8glib_arm_v1.18.1\src/u8g_line.c ****   All rights reserved.
   9:u8glib_arm_v1.18.1\src/u8g_line.c **** 
  10:u8glib_arm_v1.18.1\src/u8g_line.c ****   Redistribution and use in source and binary forms, with or without modification, 
  11:u8glib_arm_v1.18.1\src/u8g_line.c ****   are permitted provided that the following conditions are met:
  12:u8glib_arm_v1.18.1\src/u8g_line.c **** 
  13:u8glib_arm_v1.18.1\src/u8g_line.c ****   * Redistributions of source code must retain the above copyright notice, this list 
  14:u8glib_arm_v1.18.1\src/u8g_line.c ****     of conditions and the following disclaimer.
  15:u8glib_arm_v1.18.1\src/u8g_line.c ****     
  16:u8glib_arm_v1.18.1\src/u8g_line.c ****   * Redistributions in binary form must reproduce the above copyright notice, this 
  17:u8glib_arm_v1.18.1\src/u8g_line.c ****     list of conditions and the following disclaimer in the documentation and/or other 
  18:u8glib_arm_v1.18.1\src/u8g_line.c ****     materials provided with the distribution.
  19:u8glib_arm_v1.18.1\src/u8g_line.c **** 
  20:u8glib_arm_v1.18.1\src/u8g_line.c ****   THIS SOFTWARE IS PROVIDED BY THE COPYRIGHT HOLDERS AND 
  21:u8glib_arm_v1.18.1\src/u8g_line.c ****   CONTRIBUTORS "AS IS" AND ANY EXPRESS OR IMPLIED WARRANTIES, 
  22:u8glib_arm_v1.18.1\src/u8g_line.c ****   INCLUDING, BUT NOT LIMITED TO, THE IMPLIED WARRANTIES OF 
  23:u8glib_arm_v1.18.1\src/u8g_line.c ****   MERCHANTABILITY AND FITNESS FOR A PARTICULAR PURPOSE ARE 
  24:u8glib_arm_v1.18.1\src/u8g_line.c ****   DISCLAIMED. IN NO EVENT SHALL THE COPYRIGHT HOLDER OR 
  25:u8glib_arm_v1.18.1\src/u8g_line.c ****   CONTRIBUTORS BE LIABLE FOR ANY DIRECT, INDIRECT, INCIDENTAL, 
  26:u8glib_arm_v1.18.1\src/u8g_line.c ****   SPECIAL, EXEMPLARY, OR CONSEQUENTIAL DAMAGES (INCLUDING, BUT 
  27:u8glib_arm_v1.18.1\src/u8g_line.c ****   NOT LIMITED TO, PROCUREMENT OF SUBSTITUTE GOODS OR SERVICES; 
  28:u8glib_arm_v1.18.1\src/u8g_line.c ****   LOSS OF USE, DATA, OR PROFITS; OR BUSINESS INTERRUPTION) HOWEVER 
  29:u8glib_arm_v1.18.1\src/u8g_line.c ****   CAUSED AND ON ANY THEORY OF LIABILITY, WHETHER IN CONTRACT, 
  30:u8glib_arm_v1.18.1\src/u8g_line.c ****   STRICT LIABILITY, OR TORT (INCLUDING NEGLIGENCE OR OTHERWISE) 
  31:u8glib_arm_v1.18.1\src/u8g_line.c ****   ARISING IN ANY WAY OUT OF THE USE OF THIS SOFTWARE, EVEN IF 
ARM GAS  C:\Users\KJA\AppData\Local\Temp\ccGJ47qd.s 			page 2


  32:u8glib_arm_v1.18.1\src/u8g_line.c ****   ADVISED OF THE POSSIBILITY OF SUCH DAMAGE.  
  33:u8glib_arm_v1.18.1\src/u8g_line.c ****   
  34:u8glib_arm_v1.18.1\src/u8g_line.c **** */
  35:u8glib_arm_v1.18.1\src/u8g_line.c **** 
  36:u8glib_arm_v1.18.1\src/u8g_line.c **** #include "u8g.h"
  37:u8glib_arm_v1.18.1\src/u8g_line.c **** 
  38:u8glib_arm_v1.18.1\src/u8g_line.c **** void u8g_DrawLine(u8g_t *u8g, u8g_uint_t x1, u8g_uint_t y1, u8g_uint_t x2, u8g_uint_t y2)
  39:u8glib_arm_v1.18.1\src/u8g_line.c **** {
  27              		.loc 1 39 0
  28              		.cfi_startproc
  29              		@ args = 4, pretend = 0, frame = 16
  30              		@ frame_needed = 1, uses_anonymous_args = 0
  31 0000 80B5     		push	{r7, lr}
  32              		.cfi_def_cfa_offset 8
  33              		.cfi_offset 7, -8
  34              		.cfi_offset 14, -4
  35 0002 84B0     		sub	sp, sp, #16
  36              		.cfi_def_cfa_offset 24
  37 0004 00AF     		add	r7, sp, #0
  38              		.cfi_def_cfa_register 7
  39 0006 7860     		str	r0, [r7, #4]
  40 0008 0846     		mov	r0, r1
  41 000a 1146     		mov	r1, r2
  42 000c 1A46     		mov	r2, r3
  43 000e 0346     		mov	r3, r0
  44 0010 FB70     		strb	r3, [r7, #3]
  45 0012 0B46     		mov	r3, r1
  46 0014 BB70     		strb	r3, [r7, #2]
  47 0016 1346     		mov	r3, r2
  48 0018 7B70     		strb	r3, [r7, #1]
  40:u8glib_arm_v1.18.1\src/u8g_line.c ****   u8g_uint_t tmp;
  41:u8glib_arm_v1.18.1\src/u8g_line.c ****   u8g_uint_t x,y;
  42:u8glib_arm_v1.18.1\src/u8g_line.c ****   u8g_uint_t dx, dy;
  43:u8glib_arm_v1.18.1\src/u8g_line.c ****   u8g_int_t err;
  44:u8glib_arm_v1.18.1\src/u8g_line.c ****   u8g_int_t ystep;
  45:u8glib_arm_v1.18.1\src/u8g_line.c **** 
  46:u8glib_arm_v1.18.1\src/u8g_line.c ****   uint8_t swapxy = 0;
  49              		.loc 1 46 0
  50 001a 0023     		movs	r3, #0
  51 001c 7B72     		strb	r3, [r7, #9]
  47:u8glib_arm_v1.18.1\src/u8g_line.c ****   
  48:u8glib_arm_v1.18.1\src/u8g_line.c ****   /* no BBX intersection check at the moment, should be added... */
  49:u8glib_arm_v1.18.1\src/u8g_line.c **** 
  50:u8glib_arm_v1.18.1\src/u8g_line.c ****   if ( x1 > x2 ) dx = x1-x2; else dx = x2-x1;
  52              		.loc 1 50 0
  53 001e FA78     		ldrb	r2, [r7, #3]	@ zero_extendqisi2
  54 0020 7B78     		ldrb	r3, [r7, #1]	@ zero_extendqisi2
  55 0022 9A42     		cmp	r2, r3
  56 0024 04D9     		bls	.L2
  57              		.loc 1 50 0 is_stmt 0 discriminator 1
  58 0026 FA78     		ldrb	r2, [r7, #3]
  59 0028 7B78     		ldrb	r3, [r7, #1]
  60 002a D31A     		subs	r3, r2, r3
  61 002c 7B73     		strb	r3, [r7, #13]
  62 002e 03E0     		b	.L3
  63              	.L2:
  64              		.loc 1 50 0 discriminator 2
ARM GAS  C:\Users\KJA\AppData\Local\Temp\ccGJ47qd.s 			page 3


  65 0030 7A78     		ldrb	r2, [r7, #1]
  66 0032 FB78     		ldrb	r3, [r7, #3]
  67 0034 D31A     		subs	r3, r2, r3
  68 0036 7B73     		strb	r3, [r7, #13]
  69              	.L3:
  51:u8glib_arm_v1.18.1\src/u8g_line.c ****   if ( y1 > y2 ) dy = y1-y2; else dy = y2-y1;
  70              		.loc 1 51 0 is_stmt 1
  71 0038 BA78     		ldrb	r2, [r7, #2]	@ zero_extendqisi2
  72 003a 3B7E     		ldrb	r3, [r7, #24]	@ zero_extendqisi2
  73 003c 9A42     		cmp	r2, r3
  74 003e 04D9     		bls	.L4
  75              		.loc 1 51 0 is_stmt 0 discriminator 1
  76 0040 BA78     		ldrb	r2, [r7, #2]
  77 0042 3B7E     		ldrb	r3, [r7, #24]
  78 0044 D31A     		subs	r3, r2, r3
  79 0046 3B73     		strb	r3, [r7, #12]
  80 0048 03E0     		b	.L5
  81              	.L4:
  82              		.loc 1 51 0 discriminator 2
  83 004a 3A7E     		ldrb	r2, [r7, #24]
  84 004c BB78     		ldrb	r3, [r7, #2]
  85 004e D31A     		subs	r3, r2, r3
  86 0050 3B73     		strb	r3, [r7, #12]
  87              	.L5:
  52:u8glib_arm_v1.18.1\src/u8g_line.c **** 
  53:u8glib_arm_v1.18.1\src/u8g_line.c ****   if ( dy > dx ) 
  88              		.loc 1 53 0 is_stmt 1
  89 0052 3A7B     		ldrb	r2, [r7, #12]	@ zero_extendqisi2
  90 0054 7B7B     		ldrb	r3, [r7, #13]	@ zero_extendqisi2
  91 0056 9A42     		cmp	r2, r3
  92 0058 13D9     		bls	.L6
  54:u8glib_arm_v1.18.1\src/u8g_line.c ****   {
  55:u8glib_arm_v1.18.1\src/u8g_line.c ****     swapxy = 1;
  93              		.loc 1 55 0
  94 005a 0123     		movs	r3, #1
  95 005c 7B72     		strb	r3, [r7, #9]
  56:u8glib_arm_v1.18.1\src/u8g_line.c ****     tmp = dx; dx =dy; dy = tmp;
  96              		.loc 1 56 0
  97 005e 7B7B     		ldrb	r3, [r7, #13]
  98 0060 3B72     		strb	r3, [r7, #8]
  99 0062 3B7B     		ldrb	r3, [r7, #12]
 100 0064 7B73     		strb	r3, [r7, #13]
 101 0066 3B7A     		ldrb	r3, [r7, #8]
 102 0068 3B73     		strb	r3, [r7, #12]
  57:u8glib_arm_v1.18.1\src/u8g_line.c ****     tmp = x1; x1 =y1; y1 = tmp;
 103              		.loc 1 57 0
 104 006a FB78     		ldrb	r3, [r7, #3]
 105 006c 3B72     		strb	r3, [r7, #8]
 106 006e BB78     		ldrb	r3, [r7, #2]
 107 0070 FB70     		strb	r3, [r7, #3]
 108 0072 3B7A     		ldrb	r3, [r7, #8]
 109 0074 BB70     		strb	r3, [r7, #2]
  58:u8glib_arm_v1.18.1\src/u8g_line.c ****     tmp = x2; x2 =y2; y2 = tmp;
 110              		.loc 1 58 0
 111 0076 7B78     		ldrb	r3, [r7, #1]
 112 0078 3B72     		strb	r3, [r7, #8]
 113 007a 3B7E     		ldrb	r3, [r7, #24]
ARM GAS  C:\Users\KJA\AppData\Local\Temp\ccGJ47qd.s 			page 4


 114 007c 7B70     		strb	r3, [r7, #1]
 115 007e 3B7A     		ldrb	r3, [r7, #8]
 116 0080 3B76     		strb	r3, [r7, #24]
 117              	.L6:
  59:u8glib_arm_v1.18.1\src/u8g_line.c ****   }
  60:u8glib_arm_v1.18.1\src/u8g_line.c ****   if ( x1 > x2 ) 
 118              		.loc 1 60 0
 119 0082 FA78     		ldrb	r2, [r7, #3]	@ zero_extendqisi2
 120 0084 7B78     		ldrb	r3, [r7, #1]	@ zero_extendqisi2
 121 0086 9A42     		cmp	r2, r3
 122 0088 0BD9     		bls	.L7
  61:u8glib_arm_v1.18.1\src/u8g_line.c ****   {
  62:u8glib_arm_v1.18.1\src/u8g_line.c ****     tmp = x1; x1 =x2; x2 = tmp;
 123              		.loc 1 62 0
 124 008a FB78     		ldrb	r3, [r7, #3]
 125 008c 3B72     		strb	r3, [r7, #8]
 126 008e 7B78     		ldrb	r3, [r7, #1]
 127 0090 FB70     		strb	r3, [r7, #3]
 128 0092 3B7A     		ldrb	r3, [r7, #8]
 129 0094 7B70     		strb	r3, [r7, #1]
  63:u8glib_arm_v1.18.1\src/u8g_line.c ****     tmp = y1; y1 =y2; y2 = tmp;
 130              		.loc 1 63 0
 131 0096 BB78     		ldrb	r3, [r7, #2]
 132 0098 3B72     		strb	r3, [r7, #8]
 133 009a 3B7E     		ldrb	r3, [r7, #24]
 134 009c BB70     		strb	r3, [r7, #2]
 135 009e 3B7A     		ldrb	r3, [r7, #8]
 136 00a0 3B76     		strb	r3, [r7, #24]
 137              	.L7:
  64:u8glib_arm_v1.18.1\src/u8g_line.c ****   }
  65:u8glib_arm_v1.18.1\src/u8g_line.c ****   err = dx >> 1;
 138              		.loc 1 65 0
 139 00a2 7B7B     		ldrb	r3, [r7, #13]	@ zero_extendqisi2
 140 00a4 5B08     		lsrs	r3, r3, #1
 141 00a6 DBB2     		uxtb	r3, r3
 142 00a8 FB72     		strb	r3, [r7, #11]
  66:u8glib_arm_v1.18.1\src/u8g_line.c ****   if ( y2 > y1 ) ystep = 1; else ystep = -1;
 143              		.loc 1 66 0
 144 00aa 3A7E     		ldrb	r2, [r7, #24]	@ zero_extendqisi2
 145 00ac BB78     		ldrb	r3, [r7, #2]	@ zero_extendqisi2
 146 00ae 9A42     		cmp	r2, r3
 147 00b0 02D9     		bls	.L8
 148              		.loc 1 66 0 is_stmt 0 discriminator 1
 149 00b2 0123     		movs	r3, #1
 150 00b4 BB72     		strb	r3, [r7, #10]
 151 00b6 01E0     		b	.L9
 152              	.L8:
 153              		.loc 1 66 0 discriminator 2
 154 00b8 FF23     		movs	r3, #255
 155 00ba BB72     		strb	r3, [r7, #10]
 156              	.L9:
  67:u8glib_arm_v1.18.1\src/u8g_line.c ****   y = y1;
 157              		.loc 1 67 0 is_stmt 1
 158 00bc BB78     		ldrb	r3, [r7, #2]
 159 00be BB73     		strb	r3, [r7, #14]
  68:u8glib_arm_v1.18.1\src/u8g_line.c **** 
  69:u8glib_arm_v1.18.1\src/u8g_line.c **** #ifndef  U8G_16BIT
ARM GAS  C:\Users\KJA\AppData\Local\Temp\ccGJ47qd.s 			page 5


  70:u8glib_arm_v1.18.1\src/u8g_line.c ****   if ( x2 == 255 )
 160              		.loc 1 70 0
 161 00c0 7B78     		ldrb	r3, [r7, #1]	@ zero_extendqisi2
 162 00c2 FF2B     		cmp	r3, #255
 163 00c4 02D1     		bne	.L10
  71:u8glib_arm_v1.18.1\src/u8g_line.c ****     x2--;
 164              		.loc 1 71 0
 165 00c6 7B78     		ldrb	r3, [r7, #1]	@ zero_extendqisi2
 166 00c8 013B     		subs	r3, r3, #1
 167 00ca 7B70     		strb	r3, [r7, #1]
 168              	.L10:
  72:u8glib_arm_v1.18.1\src/u8g_line.c **** #else
  73:u8glib_arm_v1.18.1\src/u8g_line.c ****   if ( x2 == 0xffff )
  74:u8glib_arm_v1.18.1\src/u8g_line.c ****     x2--;
  75:u8glib_arm_v1.18.1\src/u8g_line.c **** #endif
  76:u8glib_arm_v1.18.1\src/u8g_line.c **** 
  77:u8glib_arm_v1.18.1\src/u8g_line.c ****   for( x = x1; x <= x2; x++ )
 169              		.loc 1 77 0
 170 00cc FB78     		ldrb	r3, [r7, #3]
 171 00ce FB73     		strb	r3, [r7, #15]
 172 00d0 26E0     		b	.L11
 173              	.L15:
  78:u8glib_arm_v1.18.1\src/u8g_line.c ****   {
  79:u8glib_arm_v1.18.1\src/u8g_line.c ****     if ( swapxy == 0 ) 
 174              		.loc 1 79 0
 175 00d2 7B7A     		ldrb	r3, [r7, #9]	@ zero_extendqisi2
 176 00d4 002B     		cmp	r3, #0
 177 00d6 07D1     		bne	.L12
  80:u8glib_arm_v1.18.1\src/u8g_line.c ****       u8g_DrawPixel(u8g, x, y); 
 178              		.loc 1 80 0
 179 00d8 FA7B     		ldrb	r2, [r7, #15]	@ zero_extendqisi2
 180 00da BB7B     		ldrb	r3, [r7, #14]	@ zero_extendqisi2
 181 00dc 7868     		ldr	r0, [r7, #4]
 182 00de 1146     		mov	r1, r2
 183 00e0 1A46     		mov	r2, r3
 184 00e2 FFF7FEFF 		bl	u8g_DrawPixel
 185 00e6 06E0     		b	.L13
 186              	.L12:
  81:u8glib_arm_v1.18.1\src/u8g_line.c ****     else 
  82:u8glib_arm_v1.18.1\src/u8g_line.c ****       u8g_DrawPixel(u8g, y, x); 
 187              		.loc 1 82 0
 188 00e8 BA7B     		ldrb	r2, [r7, #14]	@ zero_extendqisi2
 189 00ea FB7B     		ldrb	r3, [r7, #15]	@ zero_extendqisi2
 190 00ec 7868     		ldr	r0, [r7, #4]
 191 00ee 1146     		mov	r1, r2
 192 00f0 1A46     		mov	r2, r3
 193 00f2 FFF7FEFF 		bl	u8g_DrawPixel
 194              	.L13:
  83:u8glib_arm_v1.18.1\src/u8g_line.c ****     err -= (uint8_t)dy;
 195              		.loc 1 83 0
 196 00f6 FA7A     		ldrb	r2, [r7, #11]	@ zero_extendqisi2
 197 00f8 3B7B     		ldrb	r3, [r7, #12]
 198 00fa D31A     		subs	r3, r2, r3
 199 00fc DBB2     		uxtb	r3, r3
 200 00fe FB72     		strb	r3, [r7, #11]
  84:u8glib_arm_v1.18.1\src/u8g_line.c ****     if ( err < 0 ) 
 201              		.loc 1 84 0
ARM GAS  C:\Users\KJA\AppData\Local\Temp\ccGJ47qd.s 			page 6


 202 0100 97F90B30 		ldrsb	r3, [r7, #11]
 203 0104 002B     		cmp	r3, #0
 204 0106 08DA     		bge	.L14
  85:u8glib_arm_v1.18.1\src/u8g_line.c ****     {
  86:u8glib_arm_v1.18.1\src/u8g_line.c ****       y += (u8g_uint_t)ystep;
 205              		.loc 1 86 0
 206 0108 BA7A     		ldrb	r2, [r7, #10]	@ zero_extendqisi2
 207 010a BB7B     		ldrb	r3, [r7, #14]
 208 010c 1344     		add	r3, r3, r2
 209 010e BB73     		strb	r3, [r7, #14]
  87:u8glib_arm_v1.18.1\src/u8g_line.c ****       err += (u8g_uint_t)dx;
 210              		.loc 1 87 0
 211 0110 FA7A     		ldrb	r2, [r7, #11]	@ zero_extendqisi2
 212 0112 7B7B     		ldrb	r3, [r7, #13]
 213 0114 1344     		add	r3, r3, r2
 214 0116 DBB2     		uxtb	r3, r3
 215 0118 FB72     		strb	r3, [r7, #11]
 216              	.L14:
  77:u8glib_arm_v1.18.1\src/u8g_line.c ****   {
 217              		.loc 1 77 0 discriminator 2
 218 011a FB7B     		ldrb	r3, [r7, #15]	@ zero_extendqisi2
 219 011c 0133     		adds	r3, r3, #1
 220 011e FB73     		strb	r3, [r7, #15]
 221              	.L11:
  77:u8glib_arm_v1.18.1\src/u8g_line.c ****   {
 222              		.loc 1 77 0 is_stmt 0 discriminator 1
 223 0120 FA7B     		ldrb	r2, [r7, #15]	@ zero_extendqisi2
 224 0122 7B78     		ldrb	r3, [r7, #1]	@ zero_extendqisi2
 225 0124 9A42     		cmp	r2, r3
 226 0126 D4D9     		bls	.L15
  88:u8glib_arm_v1.18.1\src/u8g_line.c ****     }
  89:u8glib_arm_v1.18.1\src/u8g_line.c ****   }
  90:u8glib_arm_v1.18.1\src/u8g_line.c **** }
 227              		.loc 1 90 0 is_stmt 1
 228 0128 1037     		adds	r7, r7, #16
 229              		.cfi_def_cfa_offset 8
 230 012a BD46     		mov	sp, r7
 231              		.cfi_def_cfa_register 13
 232              		@ sp needed
 233 012c 80BD     		pop	{r7, pc}
 234              		.cfi_endproc
 235              	.LFE0:
 236              		.size	u8g_DrawLine, .-u8g_DrawLine
 237 012e 00BF     		.text
 238              	.Letext0:
 239              		.file 2 "c:\\program files (x86)\\cypress\\psoc creator\\4.0\\psoc creator\\import\\gnu\\arm\\4.9.
 240              		.file 3 "c:\\program files (x86)\\cypress\\psoc creator\\4.0\\psoc creator\\import\\gnu\\arm\\4.9.
 241              		.file 4 "u8glib_arm_v1.18.1\\src\\u8g.h"