ARM GAS  C:\Users\Shiguruy\AppData\Local\Temp\ccMoBwsQ.s 			page 1


   1              		.syntax unified
   2              		.cpu cortex-m3
   3              		.fpu softvfp
   4              		.eabi_attribute 20, 1
   5              		.eabi_attribute 21, 1
   6              		.eabi_attribute 23, 3
   7              		.eabi_attribute 24, 1
   8              		.eabi_attribute 25, 1
   9              		.eabi_attribute 26, 1
  10              		.eabi_attribute 30, 6
  11              		.eabi_attribute 34, 1
  12              		.eabi_attribute 18, 4
  13              		.thumb
  14              		.file	"u8g_dev_ld7032_60x32.c"
  15              		.text
  16              	.Ltext0:
  17              		.cfi_sections	.debug_frame
  18              		.section	.rodata
  19              		.align	2
  20              		.type	u8g_dev_ld7032_60x32_init_seq, %object
  21              		.size	u8g_dev_ld7032_60x32_init_seq, 115
  22              	u8g_dev_ld7032_60x32_init_seq:
  23 0000 FF       		.byte	-1
  24 0001 D0       		.byte	-48
  25 0002 FF       		.byte	-1
  26 0003 E0       		.byte	-32
  27 0004 FF       		.byte	-1
  28 0005 01       		.byte	1
  29 0006 FF       		.byte	-1
  30 0007 C1       		.byte	-63
  31 0008 FF       		.byte	-1
  32 0009 D1       		.byte	-47
  33 000a FF       		.byte	-1
  34 000b E0       		.byte	-32
  35 000c 02       		.byte	2
  36 000d FF       		.byte	-1
  37 000e E1       		.byte	-31
  38 000f 01       		.byte	1
  39 0010 FF       		.byte	-1
  40 0011 E0       		.byte	-32
  41 0012 14       		.byte	20
  42 0013 FF       		.byte	-1
  43 0014 E1       		.byte	-31
  44 0015 00       		.byte	0
  45 0016 FF       		.byte	-1
  46 0017 E0       		.byte	-32
  47 0018 1A       		.byte	26
  48 0019 FF       		.byte	-1
  49 001a E1       		.byte	-31
  50 001b 04       		.byte	4
  51 001c FF       		.byte	-1
  52 001d E0       		.byte	-32
  53 001e 1D       		.byte	29
  54 001f FF       		.byte	-1
  55 0020 E1       		.byte	-31
  56 0021 00       		.byte	0
  57 0022 FF       		.byte	-1
ARM GAS  C:\Users\Shiguruy\AppData\Local\Temp\ccMoBwsQ.s 			page 2


  58 0023 E0       		.byte	-32
  59 0024 09       		.byte	9
  60 0025 FF       		.byte	-1
  61 0026 E1       		.byte	-31
  62 0027 00       		.byte	0
  63 0028 FF       		.byte	-1
  64 0029 E0       		.byte	-32
  65 002a 30       		.byte	48
  66 002b FF       		.byte	-1
  67 002c E1       		.byte	-31
  68 002d 00       		.byte	0
  69 002e 3B       		.byte	59
  70 002f FF       		.byte	-1
  71 0030 E0       		.byte	-32
  72 0031 32       		.byte	50
  73 0032 FF       		.byte	-1
  74 0033 E1       		.byte	-31
  75 0034 00       		.byte	0
  76 0035 1F       		.byte	31
  77 0036 FF       		.byte	-1
  78 0037 E0       		.byte	-32
  79 0038 10       		.byte	16
  80 0039 FF       		.byte	-1
  81 003a E1       		.byte	-31
  82 003b 00       		.byte	0
  83 003c FF       		.byte	-1
  84 003d E0       		.byte	-32
  85 003e 16       		.byte	22
  86 003f FF       		.byte	-1
  87 0040 E1       		.byte	-31
  88 0041 00       		.byte	0
  89 0042 FF       		.byte	-1
  90 0043 E0       		.byte	-32
  91 0044 12       		.byte	18
  92 0045 FF       		.byte	-1
  93 0046 E1       		.byte	-31
  94 0047 50       		.byte	80
  95 0048 FF       		.byte	-1
  96 0049 E0       		.byte	-32
  97 004a 18       		.byte	24
  98 004b FF       		.byte	-1
  99 004c E1       		.byte	-31
 100 004d 03       		.byte	3
 101 004e FF       		.byte	-1
 102 004f E0       		.byte	-32
 103 0050 44       		.byte	68
 104 0051 FF       		.byte	-1
 105 0052 E1       		.byte	-31
 106 0053 02       		.byte	2
 107 0054 FF       		.byte	-1
 108 0055 E0       		.byte	-32
 109 0056 48       		.byte	72
 110 0057 FF       		.byte	-1
 111 0058 E1       		.byte	-31
 112 0059 03       		.byte	3
 113 005a FF       		.byte	-1
 114 005b E0       		.byte	-32
ARM GAS  C:\Users\Shiguruy\AppData\Local\Temp\ccMoBwsQ.s 			page 3


 115 005c 3F       		.byte	63
 116 005d FF       		.byte	-1
 117 005e E1       		.byte	-31
 118 005f 11       		.byte	17
 119 0060 FF       		.byte	-1
 120 0061 E0       		.byte	-32
 121 0062 3D       		.byte	61
 122 0063 FF       		.byte	-1
 123 0064 E1       		.byte	-31
 124 0065 00       		.byte	0
 125 0066 FF       		.byte	-1
 126 0067 E0       		.byte	-32
 127 0068 02       		.byte	2
 128 0069 FF       		.byte	-1
 129 006a E1       		.byte	-31
 130 006b 01       		.byte	1
 131 006c FF       		.byte	-1
 132 006d E0       		.byte	-32
 133 006e 08       		.byte	8
 134 006f FF       		.byte	-1
 135 0070 D0       		.byte	-48
 136 0071 FF       		.byte	-1
 137 0072 FE       		.byte	-2
 138 0073 00       		.align	2
 139              		.type	u8g_dev_ld7032_60x32_data_start, %object
 140              		.size	u8g_dev_ld7032_60x32_data_start, 29
 141              	u8g_dev_ld7032_60x32_data_start:
 142 0074 FF       		.byte	-1
 143 0075 E0       		.byte	-32
 144 0076 FF       		.byte	-1
 145 0077 D1       		.byte	-47
 146 0078 FF       		.byte	-1
 147 0079 E0       		.byte	-32
 148 007a 34       		.byte	52
 149 007b FF       		.byte	-1
 150 007c E1       		.byte	-31
 151 007d 00       		.byte	0
 152 007e FF       		.byte	-1
 153 007f E0       		.byte	-32
 154 0080 35       		.byte	53
 155 0081 FF       		.byte	-1
 156 0082 E1       		.byte	-31
 157 0083 07       		.byte	7
 158 0084 FF       		.byte	-1
 159 0085 E0       		.byte	-32
 160 0086 37       		.byte	55
 161 0087 FF       		.byte	-1
 162 0088 E1       		.byte	-31
 163 0089 1F       		.byte	31
 164 008a FF       		.byte	-1
 165 008b E0       		.byte	-32
 166 008c 36       		.byte	54
 167 008d FF       		.byte	-1
 168 008e E1       		.byte	-31
 169 008f FF       		.byte	-1
 170 0090 FE       		.byte	-2
 171 0091 000000   		.align	2
ARM GAS  C:\Users\Shiguruy\AppData\Local\Temp\ccMoBwsQ.s 			page 4


 172              		.type	u8g_dev_ld7032_60x32_sleep_on, %object
 173              		.size	u8g_dev_ld7032_60x32_sleep_on, 8
 174              	u8g_dev_ld7032_60x32_sleep_on:
 175 0094 FF       		.byte	-1
 176 0095 E0       		.byte	-32
 177 0096 FF       		.byte	-1
 178 0097 D1       		.byte	-47
 179 0098 FF       		.byte	-1
 180 0099 D0       		.byte	-48
 181 009a FF       		.byte	-1
 182 009b FE       		.byte	-2
 183              		.align	2
 184              		.type	u8g_dev_ld7032_60x32_sleep_off, %object
 185              		.size	u8g_dev_ld7032_60x32_sleep_off, 10
 186              	u8g_dev_ld7032_60x32_sleep_off:
 187 009c FF       		.byte	-1
 188 009d E0       		.byte	-32
 189 009e FF       		.byte	-1
 190 009f D1       		.byte	-47
 191 00a0 FF       		.byte	-1
 192 00a1 32       		.byte	50
 193 00a2 FF       		.byte	-1
 194 00a3 D0       		.byte	-48
 195 00a4 FF       		.byte	-1
 196 00a5 FE       		.byte	-2
 197 00a6 0000     		.section	.text.u8g_dev_ld7032_60x32_fn,"ax",%progbits
 198              		.align	2
 199              		.global	u8g_dev_ld7032_60x32_fn
 200              		.thumb
 201              		.thumb_func
 202              		.type	u8g_dev_ld7032_60x32_fn, %function
 203              	u8g_dev_ld7032_60x32_fn:
 204              	.LFB0:
 205              		.file 1 ".\\u8glib_arm_v1.18.1\\src\\u8g_dev_ld7032_60x32.c"
   1:.\u8glib_arm_v1.18.1\src/u8g_dev_ld7032_60x32.c **** /*
   2:.\u8glib_arm_v1.18.1\src/u8g_dev_ld7032_60x32.c **** 
   3:.\u8glib_arm_v1.18.1\src/u8g_dev_ld7032_60x32.c ****   u8g_dev_ld7032_60x32.c
   4:.\u8glib_arm_v1.18.1\src/u8g_dev_ld7032_60x32.c ****   
   5:.\u8glib_arm_v1.18.1\src/u8g_dev_ld7032_60x32.c ****   60x32 OLED display
   6:.\u8glib_arm_v1.18.1\src/u8g_dev_ld7032_60x32.c **** 
   7:.\u8glib_arm_v1.18.1\src/u8g_dev_ld7032_60x32.c ****   Universal 8bit Graphics Library
   8:.\u8glib_arm_v1.18.1\src/u8g_dev_ld7032_60x32.c ****   
   9:.\u8glib_arm_v1.18.1\src/u8g_dev_ld7032_60x32.c ****   Copyright (c) 2011, olikraus@gmail.com
  10:.\u8glib_arm_v1.18.1\src/u8g_dev_ld7032_60x32.c ****   All rights reserved.
  11:.\u8glib_arm_v1.18.1\src/u8g_dev_ld7032_60x32.c **** 
  12:.\u8glib_arm_v1.18.1\src/u8g_dev_ld7032_60x32.c ****   Redistribution and use in source and binary forms, with or without modification, 
  13:.\u8glib_arm_v1.18.1\src/u8g_dev_ld7032_60x32.c ****   are permitted provided that the following conditions are met:
  14:.\u8glib_arm_v1.18.1\src/u8g_dev_ld7032_60x32.c **** 
  15:.\u8glib_arm_v1.18.1\src/u8g_dev_ld7032_60x32.c ****   * Redistributions of source code must retain the above copyright notice, this list 
  16:.\u8glib_arm_v1.18.1\src/u8g_dev_ld7032_60x32.c ****     of conditions and the following disclaimer.
  17:.\u8glib_arm_v1.18.1\src/u8g_dev_ld7032_60x32.c ****     
  18:.\u8glib_arm_v1.18.1\src/u8g_dev_ld7032_60x32.c ****   * Redistributions in binary form must reproduce the above copyright notice, this 
  19:.\u8glib_arm_v1.18.1\src/u8g_dev_ld7032_60x32.c ****     list of conditions and the following disclaimer in the documentation and/or other 
  20:.\u8glib_arm_v1.18.1\src/u8g_dev_ld7032_60x32.c ****     materials provided with the distribution.
  21:.\u8glib_arm_v1.18.1\src/u8g_dev_ld7032_60x32.c **** 
  22:.\u8glib_arm_v1.18.1\src/u8g_dev_ld7032_60x32.c ****   THIS SOFTWARE IS PROVIDED BY THE COPYRIGHT HOLDERS AND 
  23:.\u8glib_arm_v1.18.1\src/u8g_dev_ld7032_60x32.c ****   CONTRIBUTORS "AS IS" AND ANY EXPRESS OR IMPLIED WARRANTIES, 
ARM GAS  C:\Users\Shiguruy\AppData\Local\Temp\ccMoBwsQ.s 			page 5


  24:.\u8glib_arm_v1.18.1\src/u8g_dev_ld7032_60x32.c ****   INCLUDING, BUT NOT LIMITED TO, THE IMPLIED WARRANTIES OF 
  25:.\u8glib_arm_v1.18.1\src/u8g_dev_ld7032_60x32.c ****   MERCHANTABILITY AND FITNESS FOR A PARTICULAR PURPOSE ARE 
  26:.\u8glib_arm_v1.18.1\src/u8g_dev_ld7032_60x32.c ****   DISCLAIMED. IN NO EVENT SHALL THE COPYRIGHT HOLDER OR 
  27:.\u8glib_arm_v1.18.1\src/u8g_dev_ld7032_60x32.c ****   CONTRIBUTORS BE LIABLE FOR ANY DIRECT, INDIRECT, INCIDENTAL, 
  28:.\u8glib_arm_v1.18.1\src/u8g_dev_ld7032_60x32.c ****   SPECIAL, EXEMPLARY, OR CONSEQUENTIAL DAMAGES (INCLUDING, BUT 
  29:.\u8glib_arm_v1.18.1\src/u8g_dev_ld7032_60x32.c ****   NOT LIMITED TO, PROCUREMENT OF SUBSTITUTE GOODS OR SERVICES; 
  30:.\u8glib_arm_v1.18.1\src/u8g_dev_ld7032_60x32.c ****   LOSS OF USE, DATA, OR PROFITS; OR BUSINESS INTERRUPTION) HOWEVER 
  31:.\u8glib_arm_v1.18.1\src/u8g_dev_ld7032_60x32.c ****   CAUSED AND ON ANY THEORY OF LIABILITY, WHETHER IN CONTRACT, 
  32:.\u8glib_arm_v1.18.1\src/u8g_dev_ld7032_60x32.c ****   STRICT LIABILITY, OR TORT (INCLUDING NEGLIGENCE OR OTHERWISE) 
  33:.\u8glib_arm_v1.18.1\src/u8g_dev_ld7032_60x32.c ****   ARISING IN ANY WAY OUT OF THE USE OF THIS SOFTWARE, EVEN IF 
  34:.\u8glib_arm_v1.18.1\src/u8g_dev_ld7032_60x32.c ****   ADVISED OF THE POSSIBILITY OF SUCH DAMAGE.  
  35:.\u8glib_arm_v1.18.1\src/u8g_dev_ld7032_60x32.c ****   
  36:.\u8glib_arm_v1.18.1\src/u8g_dev_ld7032_60x32.c ****   
  37:.\u8glib_arm_v1.18.1\src/u8g_dev_ld7032_60x32.c **** */
  38:.\u8glib_arm_v1.18.1\src/u8g_dev_ld7032_60x32.c **** 
  39:.\u8glib_arm_v1.18.1\src/u8g_dev_ld7032_60x32.c **** #include "u8g.h"
  40:.\u8glib_arm_v1.18.1\src/u8g_dev_ld7032_60x32.c **** 
  41:.\u8glib_arm_v1.18.1\src/u8g_dev_ld7032_60x32.c **** /* define width as 64, so that it is a multiple of 8 */
  42:.\u8glib_arm_v1.18.1\src/u8g_dev_ld7032_60x32.c **** #define WIDTH 64
  43:.\u8glib_arm_v1.18.1\src/u8g_dev_ld7032_60x32.c **** #define HEIGHT 32
  44:.\u8glib_arm_v1.18.1\src/u8g_dev_ld7032_60x32.c **** #define PAGE_HEIGHT 8
  45:.\u8glib_arm_v1.18.1\src/u8g_dev_ld7032_60x32.c **** 
  46:.\u8glib_arm_v1.18.1\src/u8g_dev_ld7032_60x32.c **** static const uint8_t u8g_dev_ld7032_60x32_init_seq[] PROGMEM = {
  47:.\u8glib_arm_v1.18.1\src/u8g_dev_ld7032_60x32.c ****   U8G_ESC_CS(0),             /* disable chip */
  48:.\u8glib_arm_v1.18.1\src/u8g_dev_ld7032_60x32.c ****   U8G_ESC_ADR(0),           /* instruction mode */
  49:.\u8glib_arm_v1.18.1\src/u8g_dev_ld7032_60x32.c ****   U8G_ESC_DLY(1),       	/* delay 1 ms */
  50:.\u8glib_arm_v1.18.1\src/u8g_dev_ld7032_60x32.c ****   U8G_ESC_RST(1),           /* do reset low pulse with (1*16)+2 milliseconds */
  51:.\u8glib_arm_v1.18.1\src/u8g_dev_ld7032_60x32.c ****   U8G_ESC_CS(1),             /* enable chip */
  52:.\u8glib_arm_v1.18.1\src/u8g_dev_ld7032_60x32.c ****   
  53:.\u8glib_arm_v1.18.1\src/u8g_dev_ld7032_60x32.c ****   
  54:.\u8glib_arm_v1.18.1\src/u8g_dev_ld7032_60x32.c ****   U8G_ESC_ADR(0),           /* instruction mode */
  55:.\u8glib_arm_v1.18.1\src/u8g_dev_ld7032_60x32.c ****   0x002,				/* Dot Matrix Display ON/OFF */
  56:.\u8glib_arm_v1.18.1\src/u8g_dev_ld7032_60x32.c ****   U8G_ESC_ADR(1),           /* data mode */
  57:.\u8glib_arm_v1.18.1\src/u8g_dev_ld7032_60x32.c ****   0x001,				/* ON */
  58:.\u8glib_arm_v1.18.1\src/u8g_dev_ld7032_60x32.c ****   
  59:.\u8glib_arm_v1.18.1\src/u8g_dev_ld7032_60x32.c ****   U8G_ESC_ADR(0),           /* instruction mode */
  60:.\u8glib_arm_v1.18.1\src/u8g_dev_ld7032_60x32.c ****   0x014,				/* Dot Matrix Display Stand-by ON/OFF */
  61:.\u8glib_arm_v1.18.1\src/u8g_dev_ld7032_60x32.c ****   U8G_ESC_ADR(1),           /* data mode */
  62:.\u8glib_arm_v1.18.1\src/u8g_dev_ld7032_60x32.c ****   0x000,				/* ON */
  63:.\u8glib_arm_v1.18.1\src/u8g_dev_ld7032_60x32.c **** 
  64:.\u8glib_arm_v1.18.1\src/u8g_dev_ld7032_60x32.c ****   U8G_ESC_ADR(0),           /* instruction mode */
  65:.\u8glib_arm_v1.18.1\src/u8g_dev_ld7032_60x32.c ****   0x01a,				/* Dot Matrix Frame Rate */
  66:.\u8glib_arm_v1.18.1\src/u8g_dev_ld7032_60x32.c ****   U8G_ESC_ADR(1),           /* data mode */
  67:.\u8glib_arm_v1.18.1\src/u8g_dev_ld7032_60x32.c ****   0x004,				/* special value for this OLED from manual */
  68:.\u8glib_arm_v1.18.1\src/u8g_dev_ld7032_60x32.c **** 
  69:.\u8glib_arm_v1.18.1\src/u8g_dev_ld7032_60x32.c ****   U8G_ESC_ADR(0),           /* instruction mode */
  70:.\u8glib_arm_v1.18.1\src/u8g_dev_ld7032_60x32.c ****   0x01d,				/* Graphics Memory Writing Direction */
  71:.\u8glib_arm_v1.18.1\src/u8g_dev_ld7032_60x32.c ****   U8G_ESC_ADR(1),           /* data mode */
  72:.\u8glib_arm_v1.18.1\src/u8g_dev_ld7032_60x32.c ****   0x000,				/* reset default (right down, horizontal) */
  73:.\u8glib_arm_v1.18.1\src/u8g_dev_ld7032_60x32.c **** 
  74:.\u8glib_arm_v1.18.1\src/u8g_dev_ld7032_60x32.c ****   U8G_ESC_ADR(0),           /* instruction mode */
  75:.\u8glib_arm_v1.18.1\src/u8g_dev_ld7032_60x32.c ****   0x009,				/* Display Direction */
  76:.\u8glib_arm_v1.18.1\src/u8g_dev_ld7032_60x32.c ****   U8G_ESC_ADR(1),           /* data mode */
  77:.\u8glib_arm_v1.18.1\src/u8g_dev_ld7032_60x32.c ****   0x000,				/* reset default (x,y: min --> max) */
  78:.\u8glib_arm_v1.18.1\src/u8g_dev_ld7032_60x32.c ****   
  79:.\u8glib_arm_v1.18.1\src/u8g_dev_ld7032_60x32.c ****   U8G_ESC_ADR(0),           /* instruction mode */
  80:.\u8glib_arm_v1.18.1\src/u8g_dev_ld7032_60x32.c ****   0x030,				/* Display Size X */
ARM GAS  C:\Users\Shiguruy\AppData\Local\Temp\ccMoBwsQ.s 			page 6


  81:.\u8glib_arm_v1.18.1\src/u8g_dev_ld7032_60x32.c ****   U8G_ESC_ADR(1),           /* data mode */
  82:.\u8glib_arm_v1.18.1\src/u8g_dev_ld7032_60x32.c ****   0x000,				/* Column Start Output */
  83:.\u8glib_arm_v1.18.1\src/u8g_dev_ld7032_60x32.c ****   0x03b,				/* Column End Output */
  84:.\u8glib_arm_v1.18.1\src/u8g_dev_ld7032_60x32.c **** 
  85:.\u8glib_arm_v1.18.1\src/u8g_dev_ld7032_60x32.c ****   U8G_ESC_ADR(0),           /* instruction mode */
  86:.\u8glib_arm_v1.18.1\src/u8g_dev_ld7032_60x32.c ****   0x032,				/* Display Size Y */
  87:.\u8glib_arm_v1.18.1\src/u8g_dev_ld7032_60x32.c ****   U8G_ESC_ADR(1),           /* data mode */
  88:.\u8glib_arm_v1.18.1\src/u8g_dev_ld7032_60x32.c ****   0x000,				/* Row Start Output */
  89:.\u8glib_arm_v1.18.1\src/u8g_dev_ld7032_60x32.c ****   0x01f,				/* Row End Output */
  90:.\u8glib_arm_v1.18.1\src/u8g_dev_ld7032_60x32.c ****   
  91:.\u8glib_arm_v1.18.1\src/u8g_dev_ld7032_60x32.c ****   U8G_ESC_ADR(0),           /* instruction mode */
  92:.\u8glib_arm_v1.18.1\src/u8g_dev_ld7032_60x32.c ****   0x010,				/* Peak Pulse Width Set */
  93:.\u8glib_arm_v1.18.1\src/u8g_dev_ld7032_60x32.c ****   U8G_ESC_ADR(1),           /* data mode */
  94:.\u8glib_arm_v1.18.1\src/u8g_dev_ld7032_60x32.c ****   0x000,				/* 0 SCLK */
  95:.\u8glib_arm_v1.18.1\src/u8g_dev_ld7032_60x32.c ****   
  96:.\u8glib_arm_v1.18.1\src/u8g_dev_ld7032_60x32.c ****   U8G_ESC_ADR(0),           /* instruction mode */
  97:.\u8glib_arm_v1.18.1\src/u8g_dev_ld7032_60x32.c ****   0x016,				/* Peak Pulse Delay Set */
  98:.\u8glib_arm_v1.18.1\src/u8g_dev_ld7032_60x32.c ****   U8G_ESC_ADR(1),           /* data mode */
  99:.\u8glib_arm_v1.18.1\src/u8g_dev_ld7032_60x32.c ****   0x000,				/* 0 SCLK */
 100:.\u8glib_arm_v1.18.1\src/u8g_dev_ld7032_60x32.c ****   
 101:.\u8glib_arm_v1.18.1\src/u8g_dev_ld7032_60x32.c ****   U8G_ESC_ADR(0),           /* instruction mode */
 102:.\u8glib_arm_v1.18.1\src/u8g_dev_ld7032_60x32.c ****   0x012,				/* Dot Matrix Current Level Set */
 103:.\u8glib_arm_v1.18.1\src/u8g_dev_ld7032_60x32.c ****   U8G_ESC_ADR(1),           /* data mode */
 104:.\u8glib_arm_v1.18.1\src/u8g_dev_ld7032_60x32.c ****   0x050,				/* 0x050 * 1 uA = 80 uA */
 105:.\u8glib_arm_v1.18.1\src/u8g_dev_ld7032_60x32.c **** 
 106:.\u8glib_arm_v1.18.1\src/u8g_dev_ld7032_60x32.c ****   U8G_ESC_ADR(0),           /* instruction mode */
 107:.\u8glib_arm_v1.18.1\src/u8g_dev_ld7032_60x32.c ****   0x018,				/* Pre-Charge Pulse Width */
 108:.\u8glib_arm_v1.18.1\src/u8g_dev_ld7032_60x32.c ****   U8G_ESC_ADR(1),           /* data mode */
 109:.\u8glib_arm_v1.18.1\src/u8g_dev_ld7032_60x32.c ****   0x003,				/* 3 SCLK */
 110:.\u8glib_arm_v1.18.1\src/u8g_dev_ld7032_60x32.c **** 
 111:.\u8glib_arm_v1.18.1\src/u8g_dev_ld7032_60x32.c ****   U8G_ESC_ADR(0),           /* instruction mode */
 112:.\u8glib_arm_v1.18.1\src/u8g_dev_ld7032_60x32.c ****   0x044,				/* Pre-Charge Mode */
 113:.\u8glib_arm_v1.18.1\src/u8g_dev_ld7032_60x32.c ****   U8G_ESC_ADR(1),           /* data mode */
 114:.\u8glib_arm_v1.18.1\src/u8g_dev_ld7032_60x32.c ****   0x002,				/* Every Time */
 115:.\u8glib_arm_v1.18.1\src/u8g_dev_ld7032_60x32.c **** 
 116:.\u8glib_arm_v1.18.1\src/u8g_dev_ld7032_60x32.c ****   U8G_ESC_ADR(0),           /* instruction mode */
 117:.\u8glib_arm_v1.18.1\src/u8g_dev_ld7032_60x32.c ****   0x048,				/* Row overlap timing */
 118:.\u8glib_arm_v1.18.1\src/u8g_dev_ld7032_60x32.c ****   U8G_ESC_ADR(1),           /* data mode */
 119:.\u8glib_arm_v1.18.1\src/u8g_dev_ld7032_60x32.c ****   0x003,				/* Pre-Charge + Peak Delay + Peak boot Timing */
 120:.\u8glib_arm_v1.18.1\src/u8g_dev_ld7032_60x32.c **** 
 121:.\u8glib_arm_v1.18.1\src/u8g_dev_ld7032_60x32.c ****   U8G_ESC_ADR(0),           /* instruction mode */
 122:.\u8glib_arm_v1.18.1\src/u8g_dev_ld7032_60x32.c ****   0x03f,				/* VCC_R_SEL */
 123:.\u8glib_arm_v1.18.1\src/u8g_dev_ld7032_60x32.c ****   U8G_ESC_ADR(1),           /* data mode */
 124:.\u8glib_arm_v1.18.1\src/u8g_dev_ld7032_60x32.c ****   0x011,				/* ??? */
 125:.\u8glib_arm_v1.18.1\src/u8g_dev_ld7032_60x32.c **** 
 126:.\u8glib_arm_v1.18.1\src/u8g_dev_ld7032_60x32.c ****   U8G_ESC_ADR(0),           /* instruction mode */
 127:.\u8glib_arm_v1.18.1\src/u8g_dev_ld7032_60x32.c ****   0x03d,				/* VSS selection */
 128:.\u8glib_arm_v1.18.1\src/u8g_dev_ld7032_60x32.c ****   U8G_ESC_ADR(1),           /* data mode */
 129:.\u8glib_arm_v1.18.1\src/u8g_dev_ld7032_60x32.c ****   0x000,				/* 2.8V */
 130:.\u8glib_arm_v1.18.1\src/u8g_dev_ld7032_60x32.c **** 
 131:.\u8glib_arm_v1.18.1\src/u8g_dev_ld7032_60x32.c ****   U8G_ESC_ADR(0),           /* instruction mode */
 132:.\u8glib_arm_v1.18.1\src/u8g_dev_ld7032_60x32.c ****   0x002,				/* Dot Matrix Display ON/OFF */
 133:.\u8glib_arm_v1.18.1\src/u8g_dev_ld7032_60x32.c ****   U8G_ESC_ADR(1),           /* data mode */
 134:.\u8glib_arm_v1.18.1\src/u8g_dev_ld7032_60x32.c ****   0x001,				/* ON */
 135:.\u8glib_arm_v1.18.1\src/u8g_dev_ld7032_60x32.c **** 
 136:.\u8glib_arm_v1.18.1\src/u8g_dev_ld7032_60x32.c ****   U8G_ESC_ADR(0),           /* instruction mode */
 137:.\u8glib_arm_v1.18.1\src/u8g_dev_ld7032_60x32.c ****   0x008,				/* write data */
ARM GAS  C:\Users\Shiguruy\AppData\Local\Temp\ccMoBwsQ.s 			page 7


 138:.\u8glib_arm_v1.18.1\src/u8g_dev_ld7032_60x32.c **** 
 139:.\u8glib_arm_v1.18.1\src/u8g_dev_ld7032_60x32.c ****   U8G_ESC_CS(0),             /* disable chip */
 140:.\u8glib_arm_v1.18.1\src/u8g_dev_ld7032_60x32.c ****   U8G_ESC_END                /* end of sequence */
 141:.\u8glib_arm_v1.18.1\src/u8g_dev_ld7032_60x32.c **** };
 142:.\u8glib_arm_v1.18.1\src/u8g_dev_ld7032_60x32.c **** 
 143:.\u8glib_arm_v1.18.1\src/u8g_dev_ld7032_60x32.c **** /* use box commands to set start adr */
 144:.\u8glib_arm_v1.18.1\src/u8g_dev_ld7032_60x32.c **** static const uint8_t u8g_dev_ld7032_60x32_data_start[] PROGMEM = {
 145:.\u8glib_arm_v1.18.1\src/u8g_dev_ld7032_60x32.c ****   U8G_ESC_ADR(0),           /* instruction mode */
 146:.\u8glib_arm_v1.18.1\src/u8g_dev_ld7032_60x32.c ****   U8G_ESC_CS(1),             /* enable chip */
 147:.\u8glib_arm_v1.18.1\src/u8g_dev_ld7032_60x32.c ****   
 148:.\u8glib_arm_v1.18.1\src/u8g_dev_ld7032_60x32.c ****   
 149:.\u8glib_arm_v1.18.1\src/u8g_dev_ld7032_60x32.c ****   U8G_ESC_ADR(0),           /* instruction mode */
 150:.\u8glib_arm_v1.18.1\src/u8g_dev_ld7032_60x32.c ****   0x034,				/* box x start */
 151:.\u8glib_arm_v1.18.1\src/u8g_dev_ld7032_60x32.c ****   U8G_ESC_ADR(1),           /* data mode */
 152:.\u8glib_arm_v1.18.1\src/u8g_dev_ld7032_60x32.c ****   0x000,				/* 0 */
 153:.\u8glib_arm_v1.18.1\src/u8g_dev_ld7032_60x32.c **** 
 154:.\u8glib_arm_v1.18.1\src/u8g_dev_ld7032_60x32.c ****   U8G_ESC_ADR(0),           /* instruction mode */
 155:.\u8glib_arm_v1.18.1\src/u8g_dev_ld7032_60x32.c ****   0x035,				/* box x end */
 156:.\u8glib_arm_v1.18.1\src/u8g_dev_ld7032_60x32.c ****   U8G_ESC_ADR(1),           /* data mode */
 157:.\u8glib_arm_v1.18.1\src/u8g_dev_ld7032_60x32.c ****   0x007,				/*  */
 158:.\u8glib_arm_v1.18.1\src/u8g_dev_ld7032_60x32.c **** 
 159:.\u8glib_arm_v1.18.1\src/u8g_dev_ld7032_60x32.c ****   U8G_ESC_ADR(0),           /* instruction mode */
 160:.\u8glib_arm_v1.18.1\src/u8g_dev_ld7032_60x32.c ****   0x037,				/* box y end */
 161:.\u8glib_arm_v1.18.1\src/u8g_dev_ld7032_60x32.c ****   U8G_ESC_ADR(1),           /* data mode */
 162:.\u8glib_arm_v1.18.1\src/u8g_dev_ld7032_60x32.c ****   0x01f,				/*  */
 163:.\u8glib_arm_v1.18.1\src/u8g_dev_ld7032_60x32.c **** 
 164:.\u8glib_arm_v1.18.1\src/u8g_dev_ld7032_60x32.c ****   U8G_ESC_ADR(0),           /* instruction mode */
 165:.\u8glib_arm_v1.18.1\src/u8g_dev_ld7032_60x32.c ****   0x036,				/* box y start */
 166:.\u8glib_arm_v1.18.1\src/u8g_dev_ld7032_60x32.c ****   U8G_ESC_ADR(1),           /* data mode */
 167:.\u8glib_arm_v1.18.1\src/u8g_dev_ld7032_60x32.c **** 
 168:.\u8glib_arm_v1.18.1\src/u8g_dev_ld7032_60x32.c ****   U8G_ESC_END                /* end of sequence */
 169:.\u8glib_arm_v1.18.1\src/u8g_dev_ld7032_60x32.c **** };
 170:.\u8glib_arm_v1.18.1\src/u8g_dev_ld7032_60x32.c **** 
 171:.\u8glib_arm_v1.18.1\src/u8g_dev_ld7032_60x32.c **** static const uint8_t u8g_dev_ld7032_60x32_sleep_on[] PROGMEM = {
 172:.\u8glib_arm_v1.18.1\src/u8g_dev_ld7032_60x32.c ****   U8G_ESC_ADR(0),           /* instruction mode */
 173:.\u8glib_arm_v1.18.1\src/u8g_dev_ld7032_60x32.c ****   U8G_ESC_CS(1),             /* enable chip */
 174:.\u8glib_arm_v1.18.1\src/u8g_dev_ld7032_60x32.c ****   /* ... */
 175:.\u8glib_arm_v1.18.1\src/u8g_dev_ld7032_60x32.c ****   U8G_ESC_CS(0),             /* disable chip */
 176:.\u8glib_arm_v1.18.1\src/u8g_dev_ld7032_60x32.c ****   U8G_ESC_END                /* end of sequence */
 177:.\u8glib_arm_v1.18.1\src/u8g_dev_ld7032_60x32.c **** };
 178:.\u8glib_arm_v1.18.1\src/u8g_dev_ld7032_60x32.c **** 
 179:.\u8glib_arm_v1.18.1\src/u8g_dev_ld7032_60x32.c **** static const uint8_t u8g_dev_ld7032_60x32_sleep_off[] PROGMEM = {
 180:.\u8glib_arm_v1.18.1\src/u8g_dev_ld7032_60x32.c ****   U8G_ESC_ADR(0),           /* instruction mode */
 181:.\u8glib_arm_v1.18.1\src/u8g_dev_ld7032_60x32.c ****   U8G_ESC_CS(1),             /* enable chip */
 182:.\u8glib_arm_v1.18.1\src/u8g_dev_ld7032_60x32.c ****   /* ... */
 183:.\u8glib_arm_v1.18.1\src/u8g_dev_ld7032_60x32.c ****   U8G_ESC_DLY(50),       /* delay 50 ms */
 184:.\u8glib_arm_v1.18.1\src/u8g_dev_ld7032_60x32.c ****   U8G_ESC_CS(0),             /* disable chip */
 185:.\u8glib_arm_v1.18.1\src/u8g_dev_ld7032_60x32.c ****   U8G_ESC_END                /* end of sequence */
 186:.\u8glib_arm_v1.18.1\src/u8g_dev_ld7032_60x32.c **** };
 187:.\u8glib_arm_v1.18.1\src/u8g_dev_ld7032_60x32.c **** 
 188:.\u8glib_arm_v1.18.1\src/u8g_dev_ld7032_60x32.c **** uint8_t u8g_dev_ld7032_60x32_fn(u8g_t *u8g, u8g_dev_t *dev, uint8_t msg, void *arg)
 189:.\u8glib_arm_v1.18.1\src/u8g_dev_ld7032_60x32.c **** {
 206              		.loc 1 189 0
 207              		.cfi_startproc
 208              		@ args = 0, pretend = 0, frame = 24
 209              		@ frame_needed = 1, uses_anonymous_args = 0
 210 0000 80B5     		push	{r7, lr}
ARM GAS  C:\Users\Shiguruy\AppData\Local\Temp\ccMoBwsQ.s 			page 8


 211              		.cfi_def_cfa_offset 8
 212              		.cfi_offset 7, -8
 213              		.cfi_offset 14, -4
 214 0002 86B0     		sub	sp, sp, #24
 215              		.cfi_def_cfa_offset 32
 216 0004 00AF     		add	r7, sp, #0
 217              		.cfi_def_cfa_register 7
 218 0006 F860     		str	r0, [r7, #12]
 219 0008 B960     		str	r1, [r7, #8]
 220 000a 3B60     		str	r3, [r7]
 221 000c 1346     		mov	r3, r2
 222 000e FB71     		strb	r3, [r7, #7]
 190:.\u8glib_arm_v1.18.1\src/u8g_dev_ld7032_60x32.c ****   switch(msg)
 223              		.loc 1 190 0
 224 0010 FB79     		ldrb	r3, [r7, #7]	@ zero_extendqisi2
 225 0012 0A3B     		subs	r3, r3, #10
 226 0014 0B2B     		cmp	r3, #11
 227 0016 00F28180 		bhi	.L2
 228 001a 01A2     		adr	r2, .L4
 229 001c 52F823F0 		ldr	pc, [r2, r3, lsl #2]
 230              		.p2align 2
 231              	.L4:
 232 0020 51000000 		.word	.L3+1
 233 0024 1D010000 		.word	.L2+1
 234 0028 1D010000 		.word	.L2+1
 235 002c 1D010000 		.word	.L2+1
 236 0030 1D010000 		.word	.L2+1
 237 0034 C3000000 		.word	.L6+1
 238 0038 01010000 		.word	.L7+1
 239 003c 0F010000 		.word	.L8+1
 240 0040 1D010000 		.word	.L2+1
 241 0044 1D010000 		.word	.L2+1
 242 0048 1D010000 		.word	.L2+1
 243 004c 67000000 		.word	.L9+1
 244              		.p2align 1
 245              	.L3:
 191:.\u8glib_arm_v1.18.1\src/u8g_dev_ld7032_60x32.c ****   {
 192:.\u8glib_arm_v1.18.1\src/u8g_dev_ld7032_60x32.c ****     case U8G_DEV_MSG_INIT:
 193:.\u8glib_arm_v1.18.1\src/u8g_dev_ld7032_60x32.c ****       u8g_InitCom(u8g, dev, U8G_SPI_CLK_CYCLE_400NS);
 246              		.loc 1 193 0
 247 0050 F868     		ldr	r0, [r7, #12]
 248 0052 B968     		ldr	r1, [r7, #8]
 249 0054 0322     		movs	r2, #3
 250 0056 FFF7FEFF 		bl	u8g_InitCom
 194:.\u8glib_arm_v1.18.1\src/u8g_dev_ld7032_60x32.c ****       u8g_WriteEscSeqP(u8g, dev, u8g_dev_ld7032_60x32_init_seq);
 251              		.loc 1 194 0
 252 005a F868     		ldr	r0, [r7, #12]
 253 005c B968     		ldr	r1, [r7, #8]
 254 005e 354A     		ldr	r2, .L12
 255 0060 FFF7FEFF 		bl	u8g_WriteEscSeqP
 195:.\u8glib_arm_v1.18.1\src/u8g_dev_ld7032_60x32.c ****       break;
 256              		.loc 1 195 0
 257 0064 5AE0     		b	.L2
 258              	.L9:
 259              	.LBB2:
 196:.\u8glib_arm_v1.18.1\src/u8g_dev_ld7032_60x32.c ****     case U8G_DEV_MSG_STOP:
 197:.\u8glib_arm_v1.18.1\src/u8g_dev_ld7032_60x32.c ****       break;
ARM GAS  C:\Users\Shiguruy\AppData\Local\Temp\ccMoBwsQ.s 			page 9


 198:.\u8glib_arm_v1.18.1\src/u8g_dev_ld7032_60x32.c ****     case U8G_DEV_MSG_PAGE_NEXT:
 199:.\u8glib_arm_v1.18.1\src/u8g_dev_ld7032_60x32.c ****       {
 200:.\u8glib_arm_v1.18.1\src/u8g_dev_ld7032_60x32.c ****         u8g_pb_t *pb = (u8g_pb_t *)(dev->dev_mem);
 260              		.loc 1 200 0
 261 0066 BB68     		ldr	r3, [r7, #8]
 262 0068 5B68     		ldr	r3, [r3, #4]
 263 006a 7B61     		str	r3, [r7, #20]
 201:.\u8glib_arm_v1.18.1\src/u8g_dev_ld7032_60x32.c ****         u8g_WriteEscSeqP(u8g, dev, u8g_dev_ld7032_60x32_data_start);    
 264              		.loc 1 201 0
 265 006c F868     		ldr	r0, [r7, #12]
 266 006e B968     		ldr	r1, [r7, #8]
 267 0070 314A     		ldr	r2, .L12+4
 268 0072 FFF7FEFF 		bl	u8g_WriteEscSeqP
 202:.\u8glib_arm_v1.18.1\src/u8g_dev_ld7032_60x32.c ****         u8g_WriteByte(u8g, dev, pb->p.page_y0); /* y start */
 269              		.loc 1 202 0
 270 0076 7B69     		ldr	r3, [r7, #20]
 271 0078 9B78     		ldrb	r3, [r3, #2]	@ zero_extendqisi2
 272 007a F868     		ldr	r0, [r7, #12]
 273 007c B968     		ldr	r1, [r7, #8]
 274 007e 1A46     		mov	r2, r3
 275 0080 FFF7FEFF 		bl	u8g_WriteByte
 203:.\u8glib_arm_v1.18.1\src/u8g_dev_ld7032_60x32.c **** 	u8g_SetAddress(u8g, dev, 0);          /* instruction mode */
 276              		.loc 1 203 0
 277 0084 F868     		ldr	r0, [r7, #12]
 278 0086 B968     		ldr	r1, [r7, #8]
 279 0088 0022     		movs	r2, #0
 280 008a FFF7FEFF 		bl	u8g_SetAddress
 204:.\u8glib_arm_v1.18.1\src/u8g_dev_ld7032_60x32.c **** 	u8g_WriteByte(u8g, dev, 0x008);
 281              		.loc 1 204 0
 282 008e F868     		ldr	r0, [r7, #12]
 283 0090 B968     		ldr	r1, [r7, #8]
 284 0092 0822     		movs	r2, #8
 285 0094 FFF7FEFF 		bl	u8g_WriteByte
 205:.\u8glib_arm_v1.18.1\src/u8g_dev_ld7032_60x32.c ****         u8g_SetAddress(u8g, dev, 1);           /* data mode */
 286              		.loc 1 205 0
 287 0098 F868     		ldr	r0, [r7, #12]
 288 009a B968     		ldr	r1, [r7, #8]
 289 009c 0122     		movs	r2, #1
 290 009e FFF7FEFF 		bl	u8g_SetAddress
 206:.\u8glib_arm_v1.18.1\src/u8g_dev_ld7032_60x32.c ****         if ( u8g_pb_WriteBuffer(pb, u8g, dev) == 0 )
 291              		.loc 1 206 0
 292 00a2 7869     		ldr	r0, [r7, #20]
 293 00a4 F968     		ldr	r1, [r7, #12]
 294 00a6 BA68     		ldr	r2, [r7, #8]
 295 00a8 FFF7FEFF 		bl	u8g_pb_WriteBuffer
 296 00ac 0346     		mov	r3, r0
 297 00ae 002B     		cmp	r3, #0
 298 00b0 01D1     		bne	.L10
 207:.\u8glib_arm_v1.18.1\src/u8g_dev_ld7032_60x32.c ****           return 0;
 299              		.loc 1 207 0
 300 00b2 0023     		movs	r3, #0
 301 00b4 3AE0     		b	.L11
 302              	.L10:
 208:.\u8glib_arm_v1.18.1\src/u8g_dev_ld7032_60x32.c ****         u8g_SetChipSelect(u8g, dev, 0);
 303              		.loc 1 208 0
 304 00b6 F868     		ldr	r0, [r7, #12]
 305 00b8 B968     		ldr	r1, [r7, #8]
ARM GAS  C:\Users\Shiguruy\AppData\Local\Temp\ccMoBwsQ.s 			page 10


 306 00ba 0022     		movs	r2, #0
 307 00bc FFF7FEFF 		bl	u8g_SetChipSelect
 308              	.LBE2:
 209:.\u8glib_arm_v1.18.1\src/u8g_dev_ld7032_60x32.c ****       }
 210:.\u8glib_arm_v1.18.1\src/u8g_dev_ld7032_60x32.c ****       break;
 309              		.loc 1 210 0
 310 00c0 2CE0     		b	.L2
 311              	.L6:
 211:.\u8glib_arm_v1.18.1\src/u8g_dev_ld7032_60x32.c ****     case U8G_DEV_MSG_CONTRAST:
 212:.\u8glib_arm_v1.18.1\src/u8g_dev_ld7032_60x32.c ****       u8g_SetChipSelect(u8g, dev, 1);
 312              		.loc 1 212 0
 313 00c2 F868     		ldr	r0, [r7, #12]
 314 00c4 B968     		ldr	r1, [r7, #8]
 315 00c6 0122     		movs	r2, #1
 316 00c8 FFF7FEFF 		bl	u8g_SetChipSelect
 213:.\u8glib_arm_v1.18.1\src/u8g_dev_ld7032_60x32.c ****       u8g_SetAddress(u8g, dev, 0);          /* instruction mode */
 317              		.loc 1 213 0
 318 00cc F868     		ldr	r0, [r7, #12]
 319 00ce B968     		ldr	r1, [r7, #8]
 320 00d0 0022     		movs	r2, #0
 321 00d2 FFF7FEFF 		bl	u8g_SetAddress
 214:.\u8glib_arm_v1.18.1\src/u8g_dev_ld7032_60x32.c ****       u8g_WriteByte(u8g, dev, 0x081);
 322              		.loc 1 214 0
 323 00d6 F868     		ldr	r0, [r7, #12]
 324 00d8 B968     		ldr	r1, [r7, #8]
 325 00da 8122     		movs	r2, #129
 326 00dc FFF7FEFF 		bl	u8g_WriteByte
 215:.\u8glib_arm_v1.18.1\src/u8g_dev_ld7032_60x32.c ****       u8g_WriteByte(u8g, dev, (*(uint8_t *)arg) >> 2);
 327              		.loc 1 215 0
 328 00e0 3B68     		ldr	r3, [r7]
 329 00e2 1B78     		ldrb	r3, [r3]	@ zero_extendqisi2
 330 00e4 9B08     		lsrs	r3, r3, #2
 331 00e6 DBB2     		uxtb	r3, r3
 332 00e8 F868     		ldr	r0, [r7, #12]
 333 00ea B968     		ldr	r1, [r7, #8]
 334 00ec 1A46     		mov	r2, r3
 335 00ee FFF7FEFF 		bl	u8g_WriteByte
 216:.\u8glib_arm_v1.18.1\src/u8g_dev_ld7032_60x32.c ****       u8g_SetChipSelect(u8g, dev, 0);      
 336              		.loc 1 216 0
 337 00f2 F868     		ldr	r0, [r7, #12]
 338 00f4 B968     		ldr	r1, [r7, #8]
 339 00f6 0022     		movs	r2, #0
 340 00f8 FFF7FEFF 		bl	u8g_SetChipSelect
 217:.\u8glib_arm_v1.18.1\src/u8g_dev_ld7032_60x32.c ****       return 1;
 341              		.loc 1 217 0
 342 00fc 0123     		movs	r3, #1
 343 00fe 15E0     		b	.L11
 344              	.L7:
 218:.\u8glib_arm_v1.18.1\src/u8g_dev_ld7032_60x32.c ****     case U8G_DEV_MSG_SLEEP_ON:
 219:.\u8glib_arm_v1.18.1\src/u8g_dev_ld7032_60x32.c ****       u8g_WriteEscSeqP(u8g, dev, u8g_dev_ld7032_60x32_sleep_on);    
 345              		.loc 1 219 0
 346 0100 F868     		ldr	r0, [r7, #12]
 347 0102 B968     		ldr	r1, [r7, #8]
 348 0104 0D4A     		ldr	r2, .L12+8
 349 0106 FFF7FEFF 		bl	u8g_WriteEscSeqP
 220:.\u8glib_arm_v1.18.1\src/u8g_dev_ld7032_60x32.c ****       return 1;
 350              		.loc 1 220 0
ARM GAS  C:\Users\Shiguruy\AppData\Local\Temp\ccMoBwsQ.s 			page 11


 351 010a 0123     		movs	r3, #1
 352 010c 0EE0     		b	.L11
 353              	.L8:
 221:.\u8glib_arm_v1.18.1\src/u8g_dev_ld7032_60x32.c ****     case U8G_DEV_MSG_SLEEP_OFF:
 222:.\u8glib_arm_v1.18.1\src/u8g_dev_ld7032_60x32.c ****       u8g_WriteEscSeqP(u8g, dev, u8g_dev_ld7032_60x32_sleep_off);    
 354              		.loc 1 222 0
 355 010e F868     		ldr	r0, [r7, #12]
 356 0110 B968     		ldr	r1, [r7, #8]
 357 0112 0B4A     		ldr	r2, .L12+12
 358 0114 FFF7FEFF 		bl	u8g_WriteEscSeqP
 223:.\u8glib_arm_v1.18.1\src/u8g_dev_ld7032_60x32.c ****       return 1;
 359              		.loc 1 223 0
 360 0118 0123     		movs	r3, #1
 361 011a 07E0     		b	.L11
 362              	.L2:
 224:.\u8glib_arm_v1.18.1\src/u8g_dev_ld7032_60x32.c ****   }
 225:.\u8glib_arm_v1.18.1\src/u8g_dev_ld7032_60x32.c ****   return u8g_dev_pb8h1_base_fn(u8g, dev, msg, arg);
 363              		.loc 1 225 0
 364 011c FB79     		ldrb	r3, [r7, #7]	@ zero_extendqisi2
 365 011e F868     		ldr	r0, [r7, #12]
 366 0120 B968     		ldr	r1, [r7, #8]
 367 0122 1A46     		mov	r2, r3
 368 0124 3B68     		ldr	r3, [r7]
 369 0126 FFF7FEFF 		bl	u8g_dev_pb8h1_base_fn
 370 012a 0346     		mov	r3, r0
 371              	.L11:
 226:.\u8glib_arm_v1.18.1\src/u8g_dev_ld7032_60x32.c **** }
 372              		.loc 1 226 0
 373 012c 1846     		mov	r0, r3
 374 012e 1837     		adds	r7, r7, #24
 375              		.cfi_def_cfa_offset 8
 376 0130 BD46     		mov	sp, r7
 377              		.cfi_def_cfa_register 13
 378              		@ sp needed
 379 0132 80BD     		pop	{r7, pc}
 380              	.L13:
 381              		.align	2
 382              	.L12:
 383 0134 00000000 		.word	u8g_dev_ld7032_60x32_init_seq
 384 0138 74000000 		.word	u8g_dev_ld7032_60x32_data_start
 385 013c 94000000 		.word	u8g_dev_ld7032_60x32_sleep_on
 386 0140 9C000000 		.word	u8g_dev_ld7032_60x32_sleep_off
 387              		.cfi_endproc
 388              	.LFE0:
 389              		.size	u8g_dev_ld7032_60x32_fn, .-u8g_dev_ld7032_60x32_fn
 390              		.global	u8g_dev_ld7032_60x32_sw_spi_buf
 391              		.bss
 392              		.align	2
 393              		.type	u8g_dev_ld7032_60x32_sw_spi_buf, %object
 394              		.size	u8g_dev_ld7032_60x32_sw_spi_buf, 64
 395              	u8g_dev_ld7032_60x32_sw_spi_buf:
 396 0000 00000000 		.space	64
 396      00000000 
 396      00000000 
 396      00000000 
 396      00000000 
 397              		.global	u8g_dev_ld7032_60x32_sw_spi_pb
ARM GAS  C:\Users\Shiguruy\AppData\Local\Temp\ccMoBwsQ.s 			page 12


 398              		.data
 399              		.align	2
 400              		.type	u8g_dev_ld7032_60x32_sw_spi_pb, %object
 401              		.size	u8g_dev_ld7032_60x32_sw_spi_pb, 12
 402              	u8g_dev_ld7032_60x32_sw_spi_pb:
 403 0000 08       		.byte	8
 404 0001 20       		.byte	32
 405 0002 00       		.byte	0
 406 0003 00       		.byte	0
 407 0004 00       		.byte	0
 408 0005 40       		.byte	64
 409 0006 0000     		.space	2
 410 0008 00000000 		.word	u8g_dev_ld7032_60x32_sw_spi_buf
 411              		.global	u8g_dev_ld7032_60x32_sw_spi
 412              		.align	2
 413              		.type	u8g_dev_ld7032_60x32_sw_spi, %object
 414              		.size	u8g_dev_ld7032_60x32_sw_spi, 12
 415              	u8g_dev_ld7032_60x32_sw_spi:
 416 000c 00000000 		.word	u8g_dev_ld7032_60x32_fn
 417 0010 00000000 		.word	u8g_dev_ld7032_60x32_sw_spi_pb
 418 0014 00000000 		.word	u8g_com_null_fn
 419              		.global	u8g_dev_ld7032_60x32_hw_spi_buf
 420              		.bss
 421              		.align	2
 422              		.type	u8g_dev_ld7032_60x32_hw_spi_buf, %object
 423              		.size	u8g_dev_ld7032_60x32_hw_spi_buf, 64
 424              	u8g_dev_ld7032_60x32_hw_spi_buf:
 425 0040 00000000 		.space	64
 425      00000000 
 425      00000000 
 425      00000000 
 425      00000000 
 426              		.global	u8g_dev_ld7032_60x32_hw_spi_pb
 427              		.data
 428              		.align	2
 429              		.type	u8g_dev_ld7032_60x32_hw_spi_pb, %object
 430              		.size	u8g_dev_ld7032_60x32_hw_spi_pb, 12
 431              	u8g_dev_ld7032_60x32_hw_spi_pb:
 432 0018 08       		.byte	8
 433 0019 20       		.byte	32
 434 001a 00       		.byte	0
 435 001b 00       		.byte	0
 436 001c 00       		.byte	0
 437 001d 40       		.byte	64
 438 001e 0000     		.space	2
 439 0020 00000000 		.word	u8g_dev_ld7032_60x32_hw_spi_buf
 440              		.global	u8g_dev_ld7032_60x32_hw_spi
 441              		.align	2
 442              		.type	u8g_dev_ld7032_60x32_hw_spi, %object
 443              		.size	u8g_dev_ld7032_60x32_hw_spi, 12
 444              	u8g_dev_ld7032_60x32_hw_spi:
 445 0024 00000000 		.word	u8g_dev_ld7032_60x32_fn
 446 0028 00000000 		.word	u8g_dev_ld7032_60x32_hw_spi_pb
 447 002c 00000000 		.word	u8g_com_null_fn
 448              		.global	u8g_dev_ld7032_60x32_parallel_buf
 449              		.bss
 450              		.align	2
ARM GAS  C:\Users\Shiguruy\AppData\Local\Temp\ccMoBwsQ.s 			page 13


 451              		.type	u8g_dev_ld7032_60x32_parallel_buf, %object
 452              		.size	u8g_dev_ld7032_60x32_parallel_buf, 64
 453              	u8g_dev_ld7032_60x32_parallel_buf:
 454 0080 00000000 		.space	64
 454      00000000 
 454      00000000 
 454      00000000 
 454      00000000 
 455              		.global	u8g_dev_ld7032_60x32_parallel_pb
 456              		.data
 457              		.align	2
 458              		.type	u8g_dev_ld7032_60x32_parallel_pb, %object
 459              		.size	u8g_dev_ld7032_60x32_parallel_pb, 12
 460              	u8g_dev_ld7032_60x32_parallel_pb:
 461 0030 08       		.byte	8
 462 0031 20       		.byte	32
 463 0032 00       		.byte	0
 464 0033 00       		.byte	0
 465 0034 00       		.byte	0
 466 0035 40       		.byte	64
 467 0036 0000     		.space	2
 468 0038 00000000 		.word	u8g_dev_ld7032_60x32_parallel_buf
 469              		.global	u8g_dev_ld7032_60x32_parallel
 470              		.align	2
 471              		.type	u8g_dev_ld7032_60x32_parallel, %object
 472              		.size	u8g_dev_ld7032_60x32_parallel, 12
 473              	u8g_dev_ld7032_60x32_parallel:
 474 003c 00000000 		.word	u8g_dev_ld7032_60x32_fn
 475 0040 00000000 		.word	u8g_dev_ld7032_60x32_parallel_pb
 476 0044 00000000 		.word	u8g_com_null_fn
 477              		.global	u8g_dev_ld7032_60x32_hw_usart_spi_buf
 478              		.bss
 479              		.align	2
 480              		.type	u8g_dev_ld7032_60x32_hw_usart_spi_buf, %object
 481              		.size	u8g_dev_ld7032_60x32_hw_usart_spi_buf, 64
 482              	u8g_dev_ld7032_60x32_hw_usart_spi_buf:
 483 00c0 00000000 		.space	64
 483      00000000 
 483      00000000 
 483      00000000 
 483      00000000 
 484              		.global	u8g_dev_ld7032_60x32_hw_usart_spi_pb
 485              		.data
 486              		.align	2
 487              		.type	u8g_dev_ld7032_60x32_hw_usart_spi_pb, %object
 488              		.size	u8g_dev_ld7032_60x32_hw_usart_spi_pb, 12
 489              	u8g_dev_ld7032_60x32_hw_usart_spi_pb:
 490 0048 08       		.byte	8
 491 0049 20       		.byte	32
 492 004a 00       		.byte	0
 493 004b 00       		.byte	0
 494 004c 00       		.byte	0
 495 004d 40       		.byte	64
 496 004e 0000     		.space	2
 497 0050 00000000 		.word	u8g_dev_ld7032_60x32_hw_usart_spi_buf
 498              		.global	u8g_dev_ld7032_60x32_hw_usart_spi
 499              		.align	2
ARM GAS  C:\Users\Shiguruy\AppData\Local\Temp\ccMoBwsQ.s 			page 14


 500              		.type	u8g_dev_ld7032_60x32_hw_usart_spi, %object
 501              		.size	u8g_dev_ld7032_60x32_hw_usart_spi, 12
 502              	u8g_dev_ld7032_60x32_hw_usart_spi:
 503 0054 00000000 		.word	u8g_dev_ld7032_60x32_fn
 504 0058 00000000 		.word	u8g_dev_ld7032_60x32_hw_usart_spi_pb
 505 005c 00000000 		.word	u8g_com_null_fn
 506              		.text
 507              	.Letext0:
 508              		.file 2 "c:\\program files (x86)\\cypress\\psoc creator\\3.3\\psoc creator\\import\\gnu\\arm\\4.9.
 509              		.file 3 "c:\\program files (x86)\\cypress\\psoc creator\\3.3\\psoc creator\\import\\gnu\\arm\\4.9.
 510              		.file 4 ".\\u8glib_arm_v1.18.1\\src\\u8g.h"