ARM GAS  C:\Users\KJA\AppData\Local\Temp\cct9XI71.s 			page 1


   1              		.syntax unified
   2              		.cpu cortex-m3
   3              		.fpu softvfp
   4              		.eabi_attribute 20, 1
   5              		.eabi_attribute 21, 1
   6              		.eabi_attribute 23, 3
   7              		.eabi_attribute 24, 1
   8              		.eabi_attribute 25, 1
   9              		.eabi_attribute 26, 1
  10              		.eabi_attribute 30, 6
  11              		.eabi_attribute 34, 1
  12              		.eabi_attribute 18, 4
  13              		.thumb
  14              		.file	"u8g_com_api_16gr.c"
  15              		.text
  16              	.Ltext0:
  17              		.cfi_sections	.debug_frame
  18              		.section	.text.u8g_WriteByteBWTo16GrDevice,"ax",%progbits
  19              		.align	2
  20              		.global	u8g_WriteByteBWTo16GrDevice
  21              		.thumb
  22              		.thumb_func
  23              		.type	u8g_WriteByteBWTo16GrDevice, %function
  24              	u8g_WriteByteBWTo16GrDevice:
  25              	.LFB0:
  26              		.file 1 "u8glib_arm_v1.18.1\\src\\u8g_com_api_16gr.c"
   1:u8glib_arm_v1.18.1\src/u8g_com_api_16gr.c **** /*
   2:u8glib_arm_v1.18.1\src/u8g_com_api_16gr.c **** 
   3:u8glib_arm_v1.18.1\src/u8g_com_api_16gr.c ****   u8g_com_api_16gr.c
   4:u8glib_arm_v1.18.1\src/u8g_com_api_16gr.c ****   
   5:u8glib_arm_v1.18.1\src/u8g_com_api_16gr.c ****   Extension of the com api for devices with 16 graylevels (4 bit per pixel).
   6:u8glib_arm_v1.18.1\src/u8g_com_api_16gr.c ****   This should fit to the 8h and 16h architectures (pb8v1, pb8v2, pb16v1, pb16v2), 
   7:u8glib_arm_v1.18.1\src/u8g_com_api_16gr.c ****   mainly intended for SSD OLEDs
   8:u8glib_arm_v1.18.1\src/u8g_com_api_16gr.c **** 
   9:u8glib_arm_v1.18.1\src/u8g_com_api_16gr.c ****   Universal 8bit Graphics Library
  10:u8glib_arm_v1.18.1\src/u8g_com_api_16gr.c ****   
  11:u8glib_arm_v1.18.1\src/u8g_com_api_16gr.c ****   Copyright (c) 2011, olikraus@gmail.com
  12:u8glib_arm_v1.18.1\src/u8g_com_api_16gr.c ****   All rights reserved.
  13:u8glib_arm_v1.18.1\src/u8g_com_api_16gr.c **** 
  14:u8glib_arm_v1.18.1\src/u8g_com_api_16gr.c ****   Redistribution and use in source and binary forms, with or without modification, 
  15:u8glib_arm_v1.18.1\src/u8g_com_api_16gr.c ****   are permitted provided that the following conditions are met:
  16:u8glib_arm_v1.18.1\src/u8g_com_api_16gr.c **** 
  17:u8glib_arm_v1.18.1\src/u8g_com_api_16gr.c ****   * Redistributions of source code must retain the above copyright notice, this list 
  18:u8glib_arm_v1.18.1\src/u8g_com_api_16gr.c ****     of conditions and the following disclaimer.
  19:u8glib_arm_v1.18.1\src/u8g_com_api_16gr.c ****     
  20:u8glib_arm_v1.18.1\src/u8g_com_api_16gr.c ****   * Redistributions in binary form must reproduce the above copyright notice, this 
  21:u8glib_arm_v1.18.1\src/u8g_com_api_16gr.c ****     list of conditions and the following disclaimer in the documentation and/or other 
  22:u8glib_arm_v1.18.1\src/u8g_com_api_16gr.c ****     materials provided with the distribution.
  23:u8glib_arm_v1.18.1\src/u8g_com_api_16gr.c **** 
  24:u8glib_arm_v1.18.1\src/u8g_com_api_16gr.c ****   THIS SOFTWARE IS PROVIDED BY THE COPYRIGHT HOLDERS AND 
  25:u8glib_arm_v1.18.1\src/u8g_com_api_16gr.c ****   CONTRIBUTORS "AS IS" AND ANY EXPRESS OR IMPLIED WARRANTIES, 
  26:u8glib_arm_v1.18.1\src/u8g_com_api_16gr.c ****   INCLUDING, BUT NOT LIMITED TO, THE IMPLIED WARRANTIES OF 
  27:u8glib_arm_v1.18.1\src/u8g_com_api_16gr.c ****   MERCHANTABILITY AND FITNESS FOR A PARTICULAR PURPOSE ARE 
  28:u8glib_arm_v1.18.1\src/u8g_com_api_16gr.c ****   DISCLAIMED. IN NO EVENT SHALL THE COPYRIGHT HOLDER OR 
  29:u8glib_arm_v1.18.1\src/u8g_com_api_16gr.c ****   CONTRIBUTORS BE LIABLE FOR ANY DIRECT, INDIRECT, INCIDENTAL, 
  30:u8glib_arm_v1.18.1\src/u8g_com_api_16gr.c ****   SPECIAL, EXEMPLARY, OR CONSEQUENTIAL DAMAGES (INCLUDING, BUT 
  31:u8glib_arm_v1.18.1\src/u8g_com_api_16gr.c ****   NOT LIMITED TO, PROCUREMENT OF SUBSTITUTE GOODS OR SERVICES; 
ARM GAS  C:\Users\KJA\AppData\Local\Temp\cct9XI71.s 			page 2


  32:u8glib_arm_v1.18.1\src/u8g_com_api_16gr.c ****   LOSS OF USE, DATA, OR PROFITS; OR BUSINESS INTERRUPTION) HOWEVER 
  33:u8glib_arm_v1.18.1\src/u8g_com_api_16gr.c ****   CAUSED AND ON ANY THEORY OF LIABILITY, WHETHER IN CONTRACT, 
  34:u8glib_arm_v1.18.1\src/u8g_com_api_16gr.c ****   STRICT LIABILITY, OR TORT (INCLUDING NEGLIGENCE OR OTHERWISE) 
  35:u8glib_arm_v1.18.1\src/u8g_com_api_16gr.c ****   ARISING IN ANY WAY OUT OF THE USE OF THIS SOFTWARE, EVEN IF 
  36:u8glib_arm_v1.18.1\src/u8g_com_api_16gr.c ****   ADVISED OF THE POSSIBILITY OF SUCH DAMAGE.  
  37:u8glib_arm_v1.18.1\src/u8g_com_api_16gr.c ****   
  38:u8glib_arm_v1.18.1\src/u8g_com_api_16gr.c ****   
  39:u8glib_arm_v1.18.1\src/u8g_com_api_16gr.c **** */
  40:u8glib_arm_v1.18.1\src/u8g_com_api_16gr.c **** 
  41:u8glib_arm_v1.18.1\src/u8g_com_api_16gr.c **** #include "u8g.h"
  42:u8glib_arm_v1.18.1\src/u8g_com_api_16gr.c **** 
  43:u8glib_arm_v1.18.1\src/u8g_com_api_16gr.c **** /* interpret b as a monochrome bit pattern, write value 15 for high bit and value 0 for a low bit *
  44:u8glib_arm_v1.18.1\src/u8g_com_api_16gr.c **** /* topbit (msb) is sent last */
  45:u8glib_arm_v1.18.1\src/u8g_com_api_16gr.c **** /* example: b = 0x083 will send 0xff, 0x00, 0x00, 0xf0 */
  46:u8glib_arm_v1.18.1\src/u8g_com_api_16gr.c **** uint8_t u8g_WriteByteBWTo16GrDevice(u8g_t *u8g, u8g_dev_t *dev, uint8_t b)
  47:u8glib_arm_v1.18.1\src/u8g_com_api_16gr.c **** {
  27              		.loc 1 47 0
  28              		.cfi_startproc
  29              		@ args = 0, pretend = 0, frame = 16
  30              		@ frame_needed = 1, uses_anonymous_args = 0
  31 0000 90B5     		push	{r4, r7, lr}
  32              		.cfi_def_cfa_offset 12
  33              		.cfi_offset 4, -12
  34              		.cfi_offset 7, -8
  35              		.cfi_offset 14, -4
  36 0002 85B0     		sub	sp, sp, #20
  37              		.cfi_def_cfa_offset 32
  38 0004 00AF     		add	r7, sp, #0
  39              		.cfi_def_cfa_register 7
  40 0006 F860     		str	r0, [r7, #12]
  41 0008 B960     		str	r1, [r7, #8]
  42 000a 1346     		mov	r3, r2
  43 000c FB71     		strb	r3, [r7, #7]
  48:u8glib_arm_v1.18.1\src/u8g_com_api_16gr.c ****   static uint8_t buf[4];
  49:u8glib_arm_v1.18.1\src/u8g_com_api_16gr.c ****   static uint8_t map[4] = { 0, 0x00f, 0x0f0, 0x0ff };
  50:u8glib_arm_v1.18.1\src/u8g_com_api_16gr.c ****   buf [3] = map[b & 3];
  44              		.loc 1 50 0
  45 000e FB79     		ldrb	r3, [r7, #7]	@ zero_extendqisi2
  46 0010 03F00303 		and	r3, r3, #3
  47 0014 164A     		ldr	r2, .L3
  48 0016 D25C     		ldrb	r2, [r2, r3]	@ zero_extendqisi2
  49 0018 164B     		ldr	r3, .L3+4
  50 001a DA70     		strb	r2, [r3, #3]
  51:u8glib_arm_v1.18.1\src/u8g_com_api_16gr.c ****   b>>=2;
  51              		.loc 1 51 0
  52 001c FB79     		ldrb	r3, [r7, #7]	@ zero_extendqisi2
  53 001e 9B08     		lsrs	r3, r3, #2
  54 0020 FB71     		strb	r3, [r7, #7]
  52:u8glib_arm_v1.18.1\src/u8g_com_api_16gr.c ****   buf [2] = map[b & 3];
  55              		.loc 1 52 0
  56 0022 FB79     		ldrb	r3, [r7, #7]	@ zero_extendqisi2
  57 0024 03F00303 		and	r3, r3, #3
  58 0028 114A     		ldr	r2, .L3
  59 002a D25C     		ldrb	r2, [r2, r3]	@ zero_extendqisi2
  60 002c 114B     		ldr	r3, .L3+4
  61 002e 9A70     		strb	r2, [r3, #2]
  53:u8glib_arm_v1.18.1\src/u8g_com_api_16gr.c ****   b>>=2;
ARM GAS  C:\Users\KJA\AppData\Local\Temp\cct9XI71.s 			page 3


  62              		.loc 1 53 0
  63 0030 FB79     		ldrb	r3, [r7, #7]	@ zero_extendqisi2
  64 0032 9B08     		lsrs	r3, r3, #2
  65 0034 FB71     		strb	r3, [r7, #7]
  54:u8glib_arm_v1.18.1\src/u8g_com_api_16gr.c ****   buf [1] = map[b & 3];
  66              		.loc 1 54 0
  67 0036 FB79     		ldrb	r3, [r7, #7]	@ zero_extendqisi2
  68 0038 03F00303 		and	r3, r3, #3
  69 003c 0C4A     		ldr	r2, .L3
  70 003e D25C     		ldrb	r2, [r2, r3]	@ zero_extendqisi2
  71 0040 0C4B     		ldr	r3, .L3+4
  72 0042 5A70     		strb	r2, [r3, #1]
  55:u8glib_arm_v1.18.1\src/u8g_com_api_16gr.c ****   b>>=2;
  73              		.loc 1 55 0
  74 0044 FB79     		ldrb	r3, [r7, #7]	@ zero_extendqisi2
  75 0046 9B08     		lsrs	r3, r3, #2
  76 0048 FB71     		strb	r3, [r7, #7]
  56:u8glib_arm_v1.18.1\src/u8g_com_api_16gr.c ****   buf [0] = map[b & 3];
  77              		.loc 1 56 0
  78 004a FB79     		ldrb	r3, [r7, #7]	@ zero_extendqisi2
  79 004c 03F00303 		and	r3, r3, #3
  80 0050 074A     		ldr	r2, .L3
  81 0052 D25C     		ldrb	r2, [r2, r3]	@ zero_extendqisi2
  82 0054 074B     		ldr	r3, .L3+4
  83 0056 1A70     		strb	r2, [r3]
  57:u8glib_arm_v1.18.1\src/u8g_com_api_16gr.c ****   return dev->com_fn(u8g, U8G_COM_MSG_WRITE_SEQ, 4, buf);
  84              		.loc 1 57 0
  85 0058 BB68     		ldr	r3, [r7, #8]
  86 005a 9C68     		ldr	r4, [r3, #8]
  87 005c F868     		ldr	r0, [r7, #12]
  88 005e 0621     		movs	r1, #6
  89 0060 0422     		movs	r2, #4
  90 0062 044B     		ldr	r3, .L3+4
  91 0064 A047     		blx	r4
  92 0066 0346     		mov	r3, r0
  58:u8glib_arm_v1.18.1\src/u8g_com_api_16gr.c **** }
  93              		.loc 1 58 0
  94 0068 1846     		mov	r0, r3
  95 006a 1437     		adds	r7, r7, #20
  96              		.cfi_def_cfa_offset 12
  97 006c BD46     		mov	sp, r7
  98              		.cfi_def_cfa_register 13
  99              		@ sp needed
 100 006e 90BD     		pop	{r4, r7, pc}
 101              	.L4:
 102              		.align	2
 103              	.L3:
 104 0070 00000000 		.word	map.5747
 105 0074 00000000 		.word	buf.5746
 106              		.cfi_endproc
 107              	.LFE0:
 108              		.size	u8g_WriteByteBWTo16GrDevice, .-u8g_WriteByteBWTo16GrDevice
 109              		.section	.text.u8g_WriteSequenceBWTo16GrDevice,"ax",%progbits
 110              		.align	2
 111              		.global	u8g_WriteSequenceBWTo16GrDevice
 112              		.thumb
 113              		.thumb_func
ARM GAS  C:\Users\KJA\AppData\Local\Temp\cct9XI71.s 			page 4


 114              		.type	u8g_WriteSequenceBWTo16GrDevice, %function
 115              	u8g_WriteSequenceBWTo16GrDevice:
 116              	.LFB1:
  59:u8glib_arm_v1.18.1\src/u8g_com_api_16gr.c **** 
  60:u8glib_arm_v1.18.1\src/u8g_com_api_16gr.c **** uint8_t u8g_WriteSequenceBWTo16GrDevice(u8g_t *u8g, u8g_dev_t *dev, uint8_t cnt, uint8_t *ptr)
  61:u8glib_arm_v1.18.1\src/u8g_com_api_16gr.c **** {
 117              		.loc 1 61 0
 118              		.cfi_startproc
 119              		@ args = 0, pretend = 0, frame = 16
 120              		@ frame_needed = 1, uses_anonymous_args = 0
 121 0000 80B5     		push	{r7, lr}
 122              		.cfi_def_cfa_offset 8
 123              		.cfi_offset 7, -8
 124              		.cfi_offset 14, -4
 125 0002 84B0     		sub	sp, sp, #16
 126              		.cfi_def_cfa_offset 24
 127 0004 00AF     		add	r7, sp, #0
 128              		.cfi_def_cfa_register 7
 129 0006 F860     		str	r0, [r7, #12]
 130 0008 B960     		str	r1, [r7, #8]
 131 000a 3B60     		str	r3, [r7]
 132 000c 1346     		mov	r3, r2
 133 000e FB71     		strb	r3, [r7, #7]
 134              	.L8:
  62:u8glib_arm_v1.18.1\src/u8g_com_api_16gr.c ****   do
  63:u8glib_arm_v1.18.1\src/u8g_com_api_16gr.c ****   {
  64:u8glib_arm_v1.18.1\src/u8g_com_api_16gr.c ****     if ( u8g_WriteByteBWTo16GrDevice(u8g, dev, *ptr++) == 0 )
 135              		.loc 1 64 0
 136 0010 3B68     		ldr	r3, [r7]
 137 0012 5A1C     		adds	r2, r3, #1
 138 0014 3A60     		str	r2, [r7]
 139 0016 1B78     		ldrb	r3, [r3]	@ zero_extendqisi2
 140 0018 F868     		ldr	r0, [r7, #12]
 141 001a B968     		ldr	r1, [r7, #8]
 142 001c 1A46     		mov	r2, r3
 143 001e FFF7FEFF 		bl	u8g_WriteByteBWTo16GrDevice
 144 0022 0346     		mov	r3, r0
 145 0024 002B     		cmp	r3, #0
 146 0026 01D1     		bne	.L6
  65:u8glib_arm_v1.18.1\src/u8g_com_api_16gr.c ****       return 0;
 147              		.loc 1 65 0
 148 0028 0023     		movs	r3, #0
 149 002a 06E0     		b	.L7
 150              	.L6:
  66:u8glib_arm_v1.18.1\src/u8g_com_api_16gr.c ****     cnt--;
 151              		.loc 1 66 0
 152 002c FB79     		ldrb	r3, [r7, #7]	@ zero_extendqisi2
 153 002e 013B     		subs	r3, r3, #1
 154 0030 FB71     		strb	r3, [r7, #7]
  67:u8glib_arm_v1.18.1\src/u8g_com_api_16gr.c ****   } while( cnt != 0 );
 155              		.loc 1 67 0
 156 0032 FB79     		ldrb	r3, [r7, #7]	@ zero_extendqisi2
 157 0034 002B     		cmp	r3, #0
 158 0036 EBD1     		bne	.L8
  68:u8glib_arm_v1.18.1\src/u8g_com_api_16gr.c ****   return 1;
 159              		.loc 1 68 0
 160 0038 0123     		movs	r3, #1
ARM GAS  C:\Users\KJA\AppData\Local\Temp\cct9XI71.s 			page 5


 161              	.L7:
  69:u8glib_arm_v1.18.1\src/u8g_com_api_16gr.c **** }
 162              		.loc 1 69 0
 163 003a 1846     		mov	r0, r3
 164 003c 1037     		adds	r7, r7, #16
 165              		.cfi_def_cfa_offset 8
 166 003e BD46     		mov	sp, r7
 167              		.cfi_def_cfa_register 13
 168              		@ sp needed
 169 0040 80BD     		pop	{r7, pc}
 170              		.cfi_endproc
 171              	.LFE1:
 172              		.size	u8g_WriteSequenceBWTo16GrDevice, .-u8g_WriteSequenceBWTo16GrDevice
 173 0042 00BF     		.section	.text.u8g_WriteByte4LTo16GrDevice,"ax",%progbits
 174              		.align	2
 175              		.global	u8g_WriteByte4LTo16GrDevice
 176              		.thumb
 177              		.thumb_func
 178              		.type	u8g_WriteByte4LTo16GrDevice, %function
 179              	u8g_WriteByte4LTo16GrDevice:
 180              	.LFB2:
  70:u8glib_arm_v1.18.1\src/u8g_com_api_16gr.c **** 
  71:u8glib_arm_v1.18.1\src/u8g_com_api_16gr.c **** /* interpret b as a 4L bit pattern, write values 0x000, 0x004, 0x008, 0x00c */
  72:u8glib_arm_v1.18.1\src/u8g_com_api_16gr.c **** uint8_t u8g_WriteByte4LTo16GrDevice(u8g_t *u8g, u8g_dev_t *dev, uint8_t b)
  73:u8glib_arm_v1.18.1\src/u8g_com_api_16gr.c **** {
 181              		.loc 1 73 0
 182              		.cfi_startproc
 183              		@ args = 0, pretend = 0, frame = 24
 184              		@ frame_needed = 1, uses_anonymous_args = 0
 185 0000 90B5     		push	{r4, r7, lr}
 186              		.cfi_def_cfa_offset 12
 187              		.cfi_offset 4, -12
 188              		.cfi_offset 7, -8
 189              		.cfi_offset 14, -4
 190 0002 87B0     		sub	sp, sp, #28
 191              		.cfi_def_cfa_offset 40
 192 0004 00AF     		add	r7, sp, #0
 193              		.cfi_def_cfa_register 7
 194 0006 F860     		str	r0, [r7, #12]
 195 0008 B960     		str	r1, [r7, #8]
 196 000a 1346     		mov	r3, r2
 197 000c FB71     		strb	r3, [r7, #7]
  74:u8glib_arm_v1.18.1\src/u8g_com_api_16gr.c ****   //static uint8_t map[16] = { 0x000, 0x004, 0x008, 0x00c, 0x040, 0x044, 0x048, 0x04c, 0x080, 0x084
  75:u8glib_arm_v1.18.1\src/u8g_com_api_16gr.c ****   //static uint8_t map[16] = { 0x000, 0x004, 0x00a, 0x00f, 0x040, 0x044, 0x04a, 0x04f, 0x0a0, 0x0a4
  76:u8glib_arm_v1.18.1\src/u8g_com_api_16gr.c ****   static uint8_t map[16] = { 0x000, 0x040, 0x0a0, 0x0f0, 0x004, 0x044, 0x0a4, 0x0f4, 0x00a, 0x04a, 
  77:u8glib_arm_v1.18.1\src/u8g_com_api_16gr.c ****   uint8_t bb;
  78:u8glib_arm_v1.18.1\src/u8g_com_api_16gr.c ****   bb = b;
 198              		.loc 1 78 0
 199 000e FB79     		ldrb	r3, [r7, #7]
 200 0010 FB75     		strb	r3, [r7, #23]
  79:u8glib_arm_v1.18.1\src/u8g_com_api_16gr.c ****   bb &= 15;
 201              		.loc 1 79 0
 202 0012 FB7D     		ldrb	r3, [r7, #23]
 203 0014 03F00F03 		and	r3, r3, #15
 204 0018 FB75     		strb	r3, [r7, #23]
  80:u8glib_arm_v1.18.1\src/u8g_com_api_16gr.c ****   b>>=4;
 205              		.loc 1 80 0
ARM GAS  C:\Users\KJA\AppData\Local\Temp\cct9XI71.s 			page 6


 206 001a FB79     		ldrb	r3, [r7, #7]	@ zero_extendqisi2
 207 001c 1B09     		lsrs	r3, r3, #4
 208 001e FB71     		strb	r3, [r7, #7]
  81:u8glib_arm_v1.18.1\src/u8g_com_api_16gr.c ****   dev->com_fn(u8g, U8G_COM_MSG_WRITE_BYTE, map[bb], NULL);
 209              		.loc 1 81 0
 210 0020 BB68     		ldr	r3, [r7, #8]
 211 0022 9C68     		ldr	r4, [r3, #8]
 212 0024 FB7D     		ldrb	r3, [r7, #23]	@ zero_extendqisi2
 213 0026 0B4A     		ldr	r2, .L11
 214 0028 D35C     		ldrb	r3, [r2, r3]	@ zero_extendqisi2
 215 002a F868     		ldr	r0, [r7, #12]
 216 002c 0521     		movs	r1, #5
 217 002e 1A46     		mov	r2, r3
 218 0030 0023     		movs	r3, #0
 219 0032 A047     		blx	r4
  82:u8glib_arm_v1.18.1\src/u8g_com_api_16gr.c ****   return dev->com_fn(u8g, U8G_COM_MSG_WRITE_BYTE, map[b], NULL);
 220              		.loc 1 82 0
 221 0034 BB68     		ldr	r3, [r7, #8]
 222 0036 9C68     		ldr	r4, [r3, #8]
 223 0038 FB79     		ldrb	r3, [r7, #7]	@ zero_extendqisi2
 224 003a 064A     		ldr	r2, .L11
 225 003c D35C     		ldrb	r3, [r2, r3]	@ zero_extendqisi2
 226 003e F868     		ldr	r0, [r7, #12]
 227 0040 0521     		movs	r1, #5
 228 0042 1A46     		mov	r2, r3
 229 0044 0023     		movs	r3, #0
 230 0046 A047     		blx	r4
 231 0048 0346     		mov	r3, r0
  83:u8glib_arm_v1.18.1\src/u8g_com_api_16gr.c **** }
 232              		.loc 1 83 0
 233 004a 1846     		mov	r0, r3
 234 004c 1C37     		adds	r7, r7, #28
 235              		.cfi_def_cfa_offset 12
 236 004e BD46     		mov	sp, r7
 237              		.cfi_def_cfa_register 13
 238              		@ sp needed
 239 0050 90BD     		pop	{r4, r7, pc}
 240              	.L12:
 241 0052 00BF     		.align	2
 242              	.L11:
 243 0054 04000000 		.word	map.5761
 244              		.cfi_endproc
 245              	.LFE2:
 246              		.size	u8g_WriteByte4LTo16GrDevice, .-u8g_WriteByte4LTo16GrDevice
 247              		.section	.text.u8g_WriteSequence4LTo16GrDevice,"ax",%progbits
 248              		.align	2
 249              		.global	u8g_WriteSequence4LTo16GrDevice
 250              		.thumb
 251              		.thumb_func
 252              		.type	u8g_WriteSequence4LTo16GrDevice, %function
 253              	u8g_WriteSequence4LTo16GrDevice:
 254              	.LFB3:
  84:u8glib_arm_v1.18.1\src/u8g_com_api_16gr.c **** 
  85:u8glib_arm_v1.18.1\src/u8g_com_api_16gr.c **** uint8_t u8g_WriteSequence4LTo16GrDevice(u8g_t *u8g, u8g_dev_t *dev, uint8_t cnt, uint8_t *ptr)
  86:u8glib_arm_v1.18.1\src/u8g_com_api_16gr.c **** {
 255              		.loc 1 86 0
 256              		.cfi_startproc
ARM GAS  C:\Users\KJA\AppData\Local\Temp\cct9XI71.s 			page 7


 257              		@ args = 0, pretend = 0, frame = 16
 258              		@ frame_needed = 1, uses_anonymous_args = 0
 259 0000 80B5     		push	{r7, lr}
 260              		.cfi_def_cfa_offset 8
 261              		.cfi_offset 7, -8
 262              		.cfi_offset 14, -4
 263 0002 84B0     		sub	sp, sp, #16
 264              		.cfi_def_cfa_offset 24
 265 0004 00AF     		add	r7, sp, #0
 266              		.cfi_def_cfa_register 7
 267 0006 F860     		str	r0, [r7, #12]
 268 0008 B960     		str	r1, [r7, #8]
 269 000a 3B60     		str	r3, [r7]
 270 000c 1346     		mov	r3, r2
 271 000e FB71     		strb	r3, [r7, #7]
 272              	.L16:
  87:u8glib_arm_v1.18.1\src/u8g_com_api_16gr.c ****   do
  88:u8glib_arm_v1.18.1\src/u8g_com_api_16gr.c ****   {
  89:u8glib_arm_v1.18.1\src/u8g_com_api_16gr.c ****     if ( u8g_WriteByte4LTo16GrDevice(u8g, dev, *ptr++) == 0 )
 273              		.loc 1 89 0
 274 0010 3B68     		ldr	r3, [r7]
 275 0012 5A1C     		adds	r2, r3, #1
 276 0014 3A60     		str	r2, [r7]
 277 0016 1B78     		ldrb	r3, [r3]	@ zero_extendqisi2
 278 0018 F868     		ldr	r0, [r7, #12]
 279 001a B968     		ldr	r1, [r7, #8]
 280 001c 1A46     		mov	r2, r3
 281 001e FFF7FEFF 		bl	u8g_WriteByte4LTo16GrDevice
 282 0022 0346     		mov	r3, r0
 283 0024 002B     		cmp	r3, #0
 284 0026 01D1     		bne	.L14
  90:u8glib_arm_v1.18.1\src/u8g_com_api_16gr.c ****       return 0;
 285              		.loc 1 90 0
 286 0028 0023     		movs	r3, #0
 287 002a 06E0     		b	.L15
 288              	.L14:
  91:u8glib_arm_v1.18.1\src/u8g_com_api_16gr.c ****     cnt--;
 289              		.loc 1 91 0
 290 002c FB79     		ldrb	r3, [r7, #7]	@ zero_extendqisi2
 291 002e 013B     		subs	r3, r3, #1
 292 0030 FB71     		strb	r3, [r7, #7]
  92:u8glib_arm_v1.18.1\src/u8g_com_api_16gr.c ****   } while( cnt != 0 );
 293              		.loc 1 92 0
 294 0032 FB79     		ldrb	r3, [r7, #7]	@ zero_extendqisi2
 295 0034 002B     		cmp	r3, #0
 296 0036 EBD1     		bne	.L16
  93:u8glib_arm_v1.18.1\src/u8g_com_api_16gr.c ****   return 1;
 297              		.loc 1 93 0
 298 0038 0123     		movs	r3, #1
 299              	.L15:
  94:u8glib_arm_v1.18.1\src/u8g_com_api_16gr.c **** }
 300              		.loc 1 94 0
 301 003a 1846     		mov	r0, r3
 302 003c 1037     		adds	r7, r7, #16
 303              		.cfi_def_cfa_offset 8
 304 003e BD46     		mov	sp, r7
 305              		.cfi_def_cfa_register 13
ARM GAS  C:\Users\KJA\AppData\Local\Temp\cct9XI71.s 			page 8


 306              		@ sp needed
 307 0040 80BD     		pop	{r7, pc}
 308              		.cfi_endproc
 309              	.LFE3:
 310              		.size	u8g_WriteSequence4LTo16GrDevice, .-u8g_WriteSequence4LTo16GrDevice
 311 0042 00BF     		.data
 312              		.align	2
 313              		.type	map.5747, %object
 314              		.size	map.5747, 4
 315              	map.5747:
 316 0000 00       		.byte	0
 317 0001 0F       		.byte	15
 318 0002 F0       		.byte	-16
 319 0003 FF       		.byte	-1
 320              		.bss
 321              		.align	2
 322              	buf.5746:
 323 0000 00000000 		.space	4
 324              		.data
 325              		.align	2
 326              		.type	map.5761, %object
 327              		.size	map.5761, 16
 328              	map.5761:
 329 0004 00       		.byte	0
 330 0005 40       		.byte	64
 331 0006 A0       		.byte	-96
 332 0007 F0       		.byte	-16
 333 0008 04       		.byte	4
 334 0009 44       		.byte	68
 335 000a A4       		.byte	-92
 336 000b F4       		.byte	-12
 337 000c 0A       		.byte	10
 338 000d 4A       		.byte	74
 339 000e AA       		.byte	-86
 340 000f FA       		.byte	-6
 341 0010 0F       		.byte	15
 342 0011 4F       		.byte	79
 343 0012 AF       		.byte	-81
 344 0013 FF       		.byte	-1
 345              		.text
 346              	.Letext0:
 347              		.file 2 "c:\\program files (x86)\\cypress\\psoc creator\\4.0\\psoc creator\\import\\gnu\\arm\\4.9.
 348              		.file 3 "c:\\program files (x86)\\cypress\\psoc creator\\4.0\\psoc creator\\import\\gnu\\arm\\4.9.
 349              		.file 4 "u8glib_arm_v1.18.1\\src\\u8g.h"