ARM GAS  C:\Users\Shiguruy\AppData\Local\Temp\ccjlHkHj.s 			page 1


   1              		.syntax unified
   2              		.cpu cortex-m3
   3              		.fpu softvfp
   4              		.eabi_attribute 20, 1
   5              		.eabi_attribute 21, 1
   6              		.eabi_attribute 23, 3
   7              		.eabi_attribute 24, 1
   8              		.eabi_attribute 25, 1
   9              		.eabi_attribute 26, 1
  10              		.eabi_attribute 30, 6
  11              		.eabi_attribute 34, 1
  12              		.eabi_attribute 18, 4
  13              		.thumb
  14              		.file	"u8g_dev_ssd1309_128x64.c"
  15              		.text
  16              	.Ltext0:
  17              		.cfi_sections	.debug_frame
  18              		.section	.rodata
  19              		.align	2
  20              		.type	u8g_dev_ssd1309_128x64_init_seq, %object
  21              		.size	u8g_dev_ssd1309_128x64_init_seq, 41
  22              	u8g_dev_ssd1309_128x64_init_seq:
  23 0000 FF       		.byte	-1
  24 0001 D0       		.byte	-48
  25 0002 FF       		.byte	-1
  26 0003 E0       		.byte	-32
  27 0004 FF       		.byte	-1
  28 0005 C1       		.byte	-63
  29 0006 FF       		.byte	-1
  30 0007 D1       		.byte	-47
  31 0008 FD       		.byte	-3
  32 0009 12       		.byte	18
  33 000a AE       		.byte	-82
  34 000b D5       		.byte	-43
  35 000c A0       		.byte	-96
  36 000d A8       		.byte	-88
  37 000e 3F       		.byte	63
  38 000f 3D       		.byte	61
  39 0010 00       		.byte	0
  40 0011 40       		.byte	64
  41 0012 A1       		.byte	-95
  42 0013 C8       		.byte	-56
  43 0014 DA       		.byte	-38
  44 0015 12       		.byte	18
  45 0016 81       		.byte	-127
  46 0017 DF       		.byte	-33
  47 0018 D9       		.byte	-39
  48 0019 82       		.byte	-126
  49 001a DB       		.byte	-37
  50 001b 34       		.byte	52
  51 001c A4       		.byte	-92
  52 001d A6       		.byte	-90
  53 001e FF       		.byte	-1
  54 001f BF       		.byte	-65
  55 0020 FF       		.byte	-1
  56 0021 32       		.byte	50
  57 0022 AF       		.byte	-81
ARM GAS  C:\Users\Shiguruy\AppData\Local\Temp\ccjlHkHj.s 			page 2


  58 0023 FF       		.byte	-1
  59 0024 32       		.byte	50
  60 0025 FF       		.byte	-1
  61 0026 D0       		.byte	-48
  62 0027 FF       		.byte	-1
  63 0028 FE       		.byte	-2
  64 0029 000000   		.align	2
  65              		.type	u8g_dev_ssd1309_128x64_data_start, %object
  66              		.size	u8g_dev_ssd1309_128x64_data_start, 8
  67              	u8g_dev_ssd1309_128x64_data_start:
  68 002c FF       		.byte	-1
  69 002d E0       		.byte	-32
  70 002e FF       		.byte	-1
  71 002f D1       		.byte	-47
  72 0030 10       		.byte	16
  73 0031 00       		.byte	0
  74 0032 FF       		.byte	-1
  75 0033 FE       		.byte	-2
  76              		.align	2
  77              		.type	u8g_dev_ssd13xx_sleep_on, %object
  78              		.size	u8g_dev_ssd13xx_sleep_on, 9
  79              	u8g_dev_ssd13xx_sleep_on:
  80 0034 FF       		.byte	-1
  81 0035 E0       		.byte	-32
  82 0036 FF       		.byte	-1
  83 0037 D1       		.byte	-47
  84 0038 AE       		.byte	-82
  85 0039 FF       		.byte	-1
  86 003a D0       		.byte	-48
  87 003b FF       		.byte	-1
  88 003c FE       		.byte	-2
  89 003d 000000   		.align	2
  90              		.type	u8g_dev_ssd13xx_sleep_off, %object
  91              		.size	u8g_dev_ssd13xx_sleep_off, 11
  92              	u8g_dev_ssd13xx_sleep_off:
  93 0040 FF       		.byte	-1
  94 0041 E0       		.byte	-32
  95 0042 FF       		.byte	-1
  96 0043 D1       		.byte	-47
  97 0044 AF       		.byte	-81
  98 0045 FF       		.byte	-1
  99 0046 32       		.byte	50
 100 0047 FF       		.byte	-1
 101 0048 D0       		.byte	-48
 102 0049 FF       		.byte	-1
 103 004a FE       		.byte	-2
 104 004b 00       		.section	.text.u8g_dev_ssd1309_128x64_fn,"ax",%progbits
 105              		.align	2
 106              		.global	u8g_dev_ssd1309_128x64_fn
 107              		.thumb
 108              		.thumb_func
 109              		.type	u8g_dev_ssd1309_128x64_fn, %function
 110              	u8g_dev_ssd1309_128x64_fn:
 111              	.LFB0:
 112              		.file 1 ".\\u8glib_arm_v1.18.1\\src\\u8g_dev_ssd1309_128x64.c"
   1:.\u8glib_arm_v1.18.1\src/u8g_dev_ssd1309_128x64.c **** /*
   2:.\u8glib_arm_v1.18.1\src/u8g_dev_ssd1309_128x64.c **** 
ARM GAS  C:\Users\Shiguruy\AppData\Local\Temp\ccjlHkHj.s 			page 3


   3:.\u8glib_arm_v1.18.1\src/u8g_dev_ssd1309_128x64.c ****   u8g_dev_ssd1309_128x64.c
   4:.\u8glib_arm_v1.18.1\src/u8g_dev_ssd1309_128x64.c **** 
   5:.\u8glib_arm_v1.18.1\src/u8g_dev_ssd1309_128x64.c ****   Universal 8bit Graphics Library
   6:.\u8glib_arm_v1.18.1\src/u8g_dev_ssd1309_128x64.c ****   
   7:.\u8glib_arm_v1.18.1\src/u8g_dev_ssd1309_128x64.c ****   Copyright (c) 2012, olikraus@gmail.com
   8:.\u8glib_arm_v1.18.1\src/u8g_dev_ssd1309_128x64.c ****   All rights reserved.
   9:.\u8glib_arm_v1.18.1\src/u8g_dev_ssd1309_128x64.c **** 
  10:.\u8glib_arm_v1.18.1\src/u8g_dev_ssd1309_128x64.c ****   Redistribution and use in source and binary forms, with or without modification, 
  11:.\u8glib_arm_v1.18.1\src/u8g_dev_ssd1309_128x64.c ****   are permitted provided that the following conditions are met:
  12:.\u8glib_arm_v1.18.1\src/u8g_dev_ssd1309_128x64.c **** 
  13:.\u8glib_arm_v1.18.1\src/u8g_dev_ssd1309_128x64.c ****   * Redistributions of source code must retain the above copyright notice, this list 
  14:.\u8glib_arm_v1.18.1\src/u8g_dev_ssd1309_128x64.c ****     of conditions and the following disclaimer.
  15:.\u8glib_arm_v1.18.1\src/u8g_dev_ssd1309_128x64.c ****     
  16:.\u8glib_arm_v1.18.1\src/u8g_dev_ssd1309_128x64.c ****   * Redistributions in binary form must reproduce the above copyright notice, this 
  17:.\u8glib_arm_v1.18.1\src/u8g_dev_ssd1309_128x64.c ****     list of conditions and the following disclaimer in the documentation and/or other 
  18:.\u8glib_arm_v1.18.1\src/u8g_dev_ssd1309_128x64.c ****     materials provided with the distribution.
  19:.\u8glib_arm_v1.18.1\src/u8g_dev_ssd1309_128x64.c **** 
  20:.\u8glib_arm_v1.18.1\src/u8g_dev_ssd1309_128x64.c ****   THIS SOFTWARE IS PROVIDED BY THE COPYRIGHT HOLDERS AND 
  21:.\u8glib_arm_v1.18.1\src/u8g_dev_ssd1309_128x64.c ****   CONTRIBUTORS "AS IS" AND ANY EXPRESS OR IMPLIED WARRANTIES, 
  22:.\u8glib_arm_v1.18.1\src/u8g_dev_ssd1309_128x64.c ****   INCLUDING, BUT NOT LIMITED TO, THE IMPLIED WARRANTIES OF 
  23:.\u8glib_arm_v1.18.1\src/u8g_dev_ssd1309_128x64.c ****   MERCHANTABILITY AND FITNESS FOR A PARTICULAR PURPOSE ARE 
  24:.\u8glib_arm_v1.18.1\src/u8g_dev_ssd1309_128x64.c ****   DISCLAIMED. IN NO EVENT SHALL THE COPYRIGHT HOLDER OR 
  25:.\u8glib_arm_v1.18.1\src/u8g_dev_ssd1309_128x64.c ****   CONTRIBUTORS BE LIABLE FOR ANY DIRECT, INDIRECT, INCIDENTAL, 
  26:.\u8glib_arm_v1.18.1\src/u8g_dev_ssd1309_128x64.c ****   SPECIAL, EXEMPLARY, OR CONSEQUENTIAL DAMAGES (INCLUDING, BUT 
  27:.\u8glib_arm_v1.18.1\src/u8g_dev_ssd1309_128x64.c ****   NOT LIMITED TO, PROCUREMENT OF SUBSTITUTE GOODS OR SERVICES; 
  28:.\u8glib_arm_v1.18.1\src/u8g_dev_ssd1309_128x64.c ****   LOSS OF USE, DATA, OR PROFITS; OR BUSINESS INTERRUPTION) HOWEVER 
  29:.\u8glib_arm_v1.18.1\src/u8g_dev_ssd1309_128x64.c ****   CAUSED AND ON ANY THEORY OF LIABILITY, WHETHER IN CONTRACT, 
  30:.\u8glib_arm_v1.18.1\src/u8g_dev_ssd1309_128x64.c ****   STRICT LIABILITY, OR TORT (INCLUDING NEGLIGENCE OR OTHERWISE) 
  31:.\u8glib_arm_v1.18.1\src/u8g_dev_ssd1309_128x64.c ****   ARISING IN ANY WAY OUT OF THE USE OF THIS SOFTWARE, EVEN IF 
  32:.\u8glib_arm_v1.18.1\src/u8g_dev_ssd1309_128x64.c ****   ADVISED OF THE POSSIBILITY OF SUCH DAMAGE.  
  33:.\u8glib_arm_v1.18.1\src/u8g_dev_ssd1309_128x64.c ****   
  34:.\u8glib_arm_v1.18.1\src/u8g_dev_ssd1309_128x64.c ****   
  35:.\u8glib_arm_v1.18.1\src/u8g_dev_ssd1309_128x64.c **** */
  36:.\u8glib_arm_v1.18.1\src/u8g_dev_ssd1309_128x64.c **** 
  37:.\u8glib_arm_v1.18.1\src/u8g_dev_ssd1309_128x64.c **** #include "u8g.h"
  38:.\u8glib_arm_v1.18.1\src/u8g_dev_ssd1309_128x64.c **** 
  39:.\u8glib_arm_v1.18.1\src/u8g_dev_ssd1309_128x64.c **** #define WIDTH 128
  40:.\u8glib_arm_v1.18.1\src/u8g_dev_ssd1309_128x64.c **** #define HEIGHT 64
  41:.\u8glib_arm_v1.18.1\src/u8g_dev_ssd1309_128x64.c **** #define PAGE_HEIGHT 8
  42:.\u8glib_arm_v1.18.1\src/u8g_dev_ssd1309_128x64.c **** 
  43:.\u8glib_arm_v1.18.1\src/u8g_dev_ssd1309_128x64.c **** 
  44:.\u8glib_arm_v1.18.1\src/u8g_dev_ssd1309_128x64.c **** /* ssd1309 ini sequence*/
  45:.\u8glib_arm_v1.18.1\src/u8g_dev_ssd1309_128x64.c **** static const uint8_t u8g_dev_ssd1309_128x64_init_seq[] PROGMEM={
  46:.\u8glib_arm_v1.18.1\src/u8g_dev_ssd1309_128x64.c **** 	U8G_ESC_CS(0),             /* disable chip */
  47:.\u8glib_arm_v1.18.1\src/u8g_dev_ssd1309_128x64.c **** 	U8G_ESC_ADR(0),           /* instruction mode */
  48:.\u8glib_arm_v1.18.1\src/u8g_dev_ssd1309_128x64.c **** 	U8G_ESC_RST(1),           /* do reset low pulse with (1*16)+2 milliseconds */
  49:.\u8glib_arm_v1.18.1\src/u8g_dev_ssd1309_128x64.c **** 	U8G_ESC_CS(1),             /* enable chip */
  50:.\u8glib_arm_v1.18.1\src/u8g_dev_ssd1309_128x64.c **** 	
  51:.\u8glib_arm_v1.18.1\src/u8g_dev_ssd1309_128x64.c **** 	0xfd,0x12,		/*Command Lock */
  52:.\u8glib_arm_v1.18.1\src/u8g_dev_ssd1309_128x64.c **** 	0xae,			/*Set Display Off */
  53:.\u8glib_arm_v1.18.1\src/u8g_dev_ssd1309_128x64.c **** 	0xd5,0xa0,		/*set Display Clock Divide Ratio/Oscillator Frequency */
  54:.\u8glib_arm_v1.18.1\src/u8g_dev_ssd1309_128x64.c **** 	0xa8,0x3f,		/*Set Multiplex Ratio */
  55:.\u8glib_arm_v1.18.1\src/u8g_dev_ssd1309_128x64.c **** 	0x3d,0x00,		/*Set Display Offset*/
  56:.\u8glib_arm_v1.18.1\src/u8g_dev_ssd1309_128x64.c **** 	0x40,			/*Set Display Start Line*/
  57:.\u8glib_arm_v1.18.1\src/u8g_dev_ssd1309_128x64.c **** 	0xa1,			/*Set Segment Re-Map*/
  58:.\u8glib_arm_v1.18.1\src/u8g_dev_ssd1309_128x64.c **** 	0xc8,			/*Set COM Output Scan Direction*/
  59:.\u8glib_arm_v1.18.1\src/u8g_dev_ssd1309_128x64.c **** 	0xda,0x12,		/*Set COM Pins Hardware Configuration*/
ARM GAS  C:\Users\Shiguruy\AppData\Local\Temp\ccjlHkHj.s 			page 4


  60:.\u8glib_arm_v1.18.1\src/u8g_dev_ssd1309_128x64.c **** 	0x81,0xdf,		/*Set Current Control */
  61:.\u8glib_arm_v1.18.1\src/u8g_dev_ssd1309_128x64.c **** 	0xd9,0x82,		/*Set Pre-Charge Period */
  62:.\u8glib_arm_v1.18.1\src/u8g_dev_ssd1309_128x64.c **** 	0xdb,0x34,		/*Set VCOMH Deselect Level */
  63:.\u8glib_arm_v1.18.1\src/u8g_dev_ssd1309_128x64.c **** 	0xa4,			/*Set Entire Display On/Off */
  64:.\u8glib_arm_v1.18.1\src/u8g_dev_ssd1309_128x64.c **** 	0xa6,			/*Set Normal/Inverse Display*/
  65:.\u8glib_arm_v1.18.1\src/u8g_dev_ssd1309_128x64.c **** 	U8G_ESC_VCC(1),	/*Power up VCC & Stabilized */
  66:.\u8glib_arm_v1.18.1\src/u8g_dev_ssd1309_128x64.c **** 	U8G_ESC_DLY(50),
  67:.\u8glib_arm_v1.18.1\src/u8g_dev_ssd1309_128x64.c **** 	0xaf,			/*Set Display On */
  68:.\u8glib_arm_v1.18.1\src/u8g_dev_ssd1309_128x64.c **** 	U8G_ESC_DLY(50),
  69:.\u8glib_arm_v1.18.1\src/u8g_dev_ssd1309_128x64.c **** 	U8G_ESC_CS(0),             /* disable chip */
  70:.\u8glib_arm_v1.18.1\src/u8g_dev_ssd1309_128x64.c **** 	U8G_ESC_END                /* end of sequence */
  71:.\u8glib_arm_v1.18.1\src/u8g_dev_ssd1309_128x64.c **** };
  72:.\u8glib_arm_v1.18.1\src/u8g_dev_ssd1309_128x64.c **** 
  73:.\u8glib_arm_v1.18.1\src/u8g_dev_ssd1309_128x64.c **** /* select one init sequence here */
  74:.\u8glib_arm_v1.18.1\src/u8g_dev_ssd1309_128x64.c ****   #define u8g_dev_ssd1309_128x64_init_seq u8g_dev_ssd1309_128x64_init_seq
  75:.\u8glib_arm_v1.18.1\src/u8g_dev_ssd1309_128x64.c ****   
  76:.\u8glib_arm_v1.18.1\src/u8g_dev_ssd1309_128x64.c ****   
  77:.\u8glib_arm_v1.18.1\src/u8g_dev_ssd1309_128x64.c ****  static const uint8_t u8g_dev_ssd1309_128x64_data_start[] PROGMEM = {
  78:.\u8glib_arm_v1.18.1\src/u8g_dev_ssd1309_128x64.c ****   U8G_ESC_ADR(0),           /* instruction mode */
  79:.\u8glib_arm_v1.18.1\src/u8g_dev_ssd1309_128x64.c ****   U8G_ESC_CS(1),             /* enable chip */
  80:.\u8glib_arm_v1.18.1\src/u8g_dev_ssd1309_128x64.c ****   0x010,		/* set upper 4 bit of the col adr to 0 */
  81:.\u8glib_arm_v1.18.1\src/u8g_dev_ssd1309_128x64.c ****   0x000,		/* set lower 4 bit of the col adr to 4  */
  82:.\u8glib_arm_v1.18.1\src/u8g_dev_ssd1309_128x64.c ****   U8G_ESC_END                /* end of sequence */
  83:.\u8glib_arm_v1.18.1\src/u8g_dev_ssd1309_128x64.c **** };
  84:.\u8glib_arm_v1.18.1\src/u8g_dev_ssd1309_128x64.c **** 
  85:.\u8glib_arm_v1.18.1\src/u8g_dev_ssd1309_128x64.c **** static const uint8_t u8g_dev_ssd13xx_sleep_on[] PROGMEM = {
  86:.\u8glib_arm_v1.18.1\src/u8g_dev_ssd1309_128x64.c ****   U8G_ESC_ADR(0),           /* instruction mode */
  87:.\u8glib_arm_v1.18.1\src/u8g_dev_ssd1309_128x64.c ****   U8G_ESC_CS(1),             /* enable chip */
  88:.\u8glib_arm_v1.18.1\src/u8g_dev_ssd1309_128x64.c ****   0x0ae,		/* display off */      
  89:.\u8glib_arm_v1.18.1\src/u8g_dev_ssd1309_128x64.c ****   U8G_ESC_CS(0),             /* disable chip */
  90:.\u8glib_arm_v1.18.1\src/u8g_dev_ssd1309_128x64.c ****   U8G_ESC_END                /* end of sequence */
  91:.\u8glib_arm_v1.18.1\src/u8g_dev_ssd1309_128x64.c **** };
  92:.\u8glib_arm_v1.18.1\src/u8g_dev_ssd1309_128x64.c **** 
  93:.\u8glib_arm_v1.18.1\src/u8g_dev_ssd1309_128x64.c **** static const uint8_t u8g_dev_ssd13xx_sleep_off[] PROGMEM = {
  94:.\u8glib_arm_v1.18.1\src/u8g_dev_ssd1309_128x64.c ****   U8G_ESC_ADR(0),           /* instruction mode */
  95:.\u8glib_arm_v1.18.1\src/u8g_dev_ssd1309_128x64.c ****   U8G_ESC_CS(1),             /* enable chip */
  96:.\u8glib_arm_v1.18.1\src/u8g_dev_ssd1309_128x64.c ****   0x0af,		/* display on */      
  97:.\u8glib_arm_v1.18.1\src/u8g_dev_ssd1309_128x64.c ****   U8G_ESC_DLY(50),       /* delay 50 ms */
  98:.\u8glib_arm_v1.18.1\src/u8g_dev_ssd1309_128x64.c ****   U8G_ESC_CS(0),             /* disable chip */
  99:.\u8glib_arm_v1.18.1\src/u8g_dev_ssd1309_128x64.c ****   U8G_ESC_END                /* end of sequence */
 100:.\u8glib_arm_v1.18.1\src/u8g_dev_ssd1309_128x64.c **** };
 101:.\u8glib_arm_v1.18.1\src/u8g_dev_ssd1309_128x64.c **** 
 102:.\u8glib_arm_v1.18.1\src/u8g_dev_ssd1309_128x64.c **** uint8_t u8g_dev_ssd1309_128x64_fn(u8g_t *u8g, u8g_dev_t *dev, uint8_t msg, void *arg)
 103:.\u8glib_arm_v1.18.1\src/u8g_dev_ssd1309_128x64.c **** {
 113              		.loc 1 103 0
 114              		.cfi_startproc
 115              		@ args = 0, pretend = 0, frame = 24
 116              		@ frame_needed = 1, uses_anonymous_args = 0
 117 0000 80B5     		push	{r7, lr}
 118              		.cfi_def_cfa_offset 8
 119              		.cfi_offset 7, -8
 120              		.cfi_offset 14, -4
 121 0002 86B0     		sub	sp, sp, #24
 122              		.cfi_def_cfa_offset 32
 123 0004 00AF     		add	r7, sp, #0
 124              		.cfi_def_cfa_register 7
 125 0006 F860     		str	r0, [r7, #12]
ARM GAS  C:\Users\Shiguruy\AppData\Local\Temp\ccjlHkHj.s 			page 5


 126 0008 B960     		str	r1, [r7, #8]
 127 000a 3B60     		str	r3, [r7]
 128 000c 1346     		mov	r3, r2
 129 000e FB71     		strb	r3, [r7, #7]
 104:.\u8glib_arm_v1.18.1\src/u8g_dev_ssd1309_128x64.c ****   switch(msg)
 130              		.loc 1 104 0
 131 0010 FB79     		ldrb	r3, [r7, #7]	@ zero_extendqisi2
 132 0012 0A3B     		subs	r3, r3, #10
 133 0014 0B2B     		cmp	r3, #11
 134 0016 78D8     		bhi	.L2
 135 0018 01A2     		adr	r2, .L4
 136 001a 52F823F0 		ldr	pc, [r2, r3, lsl #2]
 137 001e 00BF     		.p2align 2
 138              	.L4:
 139 0020 51000000 		.word	.L3+1
 140 0024 0B010000 		.word	.L2+1
 141 0028 0B010000 		.word	.L2+1
 142 002c 0B010000 		.word	.L2+1
 143 0030 0B010000 		.word	.L2+1
 144 0034 B5000000 		.word	.L6+1
 145 0038 EF000000 		.word	.L7+1
 146 003c FD000000 		.word	.L8+1
 147 0040 0B010000 		.word	.L2+1
 148 0044 0B010000 		.word	.L2+1
 149 0048 0B010000 		.word	.L2+1
 150 004c 67000000 		.word	.L9+1
 151              		.p2align 1
 152              	.L3:
 105:.\u8glib_arm_v1.18.1\src/u8g_dev_ssd1309_128x64.c ****   {
 106:.\u8glib_arm_v1.18.1\src/u8g_dev_ssd1309_128x64.c ****     case U8G_DEV_MSG_INIT:
 107:.\u8glib_arm_v1.18.1\src/u8g_dev_ssd1309_128x64.c ****       u8g_InitCom(u8g, dev, U8G_SPI_CLK_CYCLE_300NS);
 153              		.loc 1 107 0
 154 0050 F868     		ldr	r0, [r7, #12]
 155 0052 B968     		ldr	r1, [r7, #8]
 156 0054 0222     		movs	r2, #2
 157 0056 FFF7FEFF 		bl	u8g_InitCom
 108:.\u8glib_arm_v1.18.1\src/u8g_dev_ssd1309_128x64.c ****       u8g_WriteEscSeqP(u8g, dev, u8g_dev_ssd1309_128x64_init_seq);
 158              		.loc 1 108 0
 159 005a F868     		ldr	r0, [r7, #12]
 160 005c B968     		ldr	r1, [r7, #8]
 161 005e 314A     		ldr	r2, .L12
 162 0060 FFF7FEFF 		bl	u8g_WriteEscSeqP
 109:.\u8glib_arm_v1.18.1\src/u8g_dev_ssd1309_128x64.c ****       break;
 163              		.loc 1 109 0
 164 0064 51E0     		b	.L2
 165              	.L9:
 166              	.LBB2:
 110:.\u8glib_arm_v1.18.1\src/u8g_dev_ssd1309_128x64.c ****     case U8G_DEV_MSG_STOP:
 111:.\u8glib_arm_v1.18.1\src/u8g_dev_ssd1309_128x64.c ****       break;
 112:.\u8glib_arm_v1.18.1\src/u8g_dev_ssd1309_128x64.c ****     case U8G_DEV_MSG_PAGE_NEXT:
 113:.\u8glib_arm_v1.18.1\src/u8g_dev_ssd1309_128x64.c ****       {
 114:.\u8glib_arm_v1.18.1\src/u8g_dev_ssd1309_128x64.c ****         u8g_pb_t *pb = (u8g_pb_t *)(dev->dev_mem);
 167              		.loc 1 114 0
 168 0066 BB68     		ldr	r3, [r7, #8]
 169 0068 5B68     		ldr	r3, [r3, #4]
 170 006a 7B61     		str	r3, [r7, #20]
 115:.\u8glib_arm_v1.18.1\src/u8g_dev_ssd1309_128x64.c ****         u8g_WriteEscSeqP(u8g, dev, u8g_dev_ssd1309_128x64_data_start);    
ARM GAS  C:\Users\Shiguruy\AppData\Local\Temp\ccjlHkHj.s 			page 6


 171              		.loc 1 115 0
 172 006c F868     		ldr	r0, [r7, #12]
 173 006e B968     		ldr	r1, [r7, #8]
 174 0070 2D4A     		ldr	r2, .L12+4
 175 0072 FFF7FEFF 		bl	u8g_WriteEscSeqP
 116:.\u8glib_arm_v1.18.1\src/u8g_dev_ssd1309_128x64.c ****         u8g_WriteByte(u8g, dev, 0x0b0 | pb->p.page); /* select current page (SSD1306) */
 176              		.loc 1 116 0
 177 0076 7B69     		ldr	r3, [r7, #20]
 178 0078 1B79     		ldrb	r3, [r3, #4]	@ zero_extendqisi2
 179 007a 63F04F03 		orn	r3, r3, #79
 180 007e DBB2     		uxtb	r3, r3
 181 0080 F868     		ldr	r0, [r7, #12]
 182 0082 B968     		ldr	r1, [r7, #8]
 183 0084 1A46     		mov	r2, r3
 184 0086 FFF7FEFF 		bl	u8g_WriteByte
 117:.\u8glib_arm_v1.18.1\src/u8g_dev_ssd1309_128x64.c ****         u8g_SetAddress(u8g, dev, 1);           /* data mode */
 185              		.loc 1 117 0
 186 008a F868     		ldr	r0, [r7, #12]
 187 008c B968     		ldr	r1, [r7, #8]
 188 008e 0122     		movs	r2, #1
 189 0090 FFF7FEFF 		bl	u8g_SetAddress
 118:.\u8glib_arm_v1.18.1\src/u8g_dev_ssd1309_128x64.c ****         if ( u8g_pb_WriteBuffer(pb, u8g, dev) == 0 )
 190              		.loc 1 118 0
 191 0094 7869     		ldr	r0, [r7, #20]
 192 0096 F968     		ldr	r1, [r7, #12]
 193 0098 BA68     		ldr	r2, [r7, #8]
 194 009a FFF7FEFF 		bl	u8g_pb_WriteBuffer
 195 009e 0346     		mov	r3, r0
 196 00a0 002B     		cmp	r3, #0
 197 00a2 01D1     		bne	.L10
 119:.\u8glib_arm_v1.18.1\src/u8g_dev_ssd1309_128x64.c ****           return 0;
 198              		.loc 1 119 0
 199 00a4 0023     		movs	r3, #0
 200 00a6 38E0     		b	.L11
 201              	.L10:
 120:.\u8glib_arm_v1.18.1\src/u8g_dev_ssd1309_128x64.c ****         u8g_SetChipSelect(u8g, dev, 0);
 202              		.loc 1 120 0
 203 00a8 F868     		ldr	r0, [r7, #12]
 204 00aa B968     		ldr	r1, [r7, #8]
 205 00ac 0022     		movs	r2, #0
 206 00ae FFF7FEFF 		bl	u8g_SetChipSelect
 207              	.LBE2:
 121:.\u8glib_arm_v1.18.1\src/u8g_dev_ssd1309_128x64.c ****       }
 122:.\u8glib_arm_v1.18.1\src/u8g_dev_ssd1309_128x64.c ****       break;
 208              		.loc 1 122 0
 209 00b2 2AE0     		b	.L2
 210              	.L6:
 123:.\u8glib_arm_v1.18.1\src/u8g_dev_ssd1309_128x64.c ****     case U8G_DEV_MSG_CONTRAST:
 124:.\u8glib_arm_v1.18.1\src/u8g_dev_ssd1309_128x64.c ****       u8g_SetChipSelect(u8g, dev, 1);
 211              		.loc 1 124 0
 212 00b4 F868     		ldr	r0, [r7, #12]
 213 00b6 B968     		ldr	r1, [r7, #8]
 214 00b8 0122     		movs	r2, #1
 215 00ba FFF7FEFF 		bl	u8g_SetChipSelect
 125:.\u8glib_arm_v1.18.1\src/u8g_dev_ssd1309_128x64.c ****       u8g_SetAddress(u8g, dev, 0);          /* instruction mode */
 216              		.loc 1 125 0
 217 00be F868     		ldr	r0, [r7, #12]
ARM GAS  C:\Users\Shiguruy\AppData\Local\Temp\ccjlHkHj.s 			page 7


 218 00c0 B968     		ldr	r1, [r7, #8]
 219 00c2 0022     		movs	r2, #0
 220 00c4 FFF7FEFF 		bl	u8g_SetAddress
 126:.\u8glib_arm_v1.18.1\src/u8g_dev_ssd1309_128x64.c ****       u8g_WriteByte(u8g, dev, 0x081);
 221              		.loc 1 126 0
 222 00c8 F868     		ldr	r0, [r7, #12]
 223 00ca B968     		ldr	r1, [r7, #8]
 224 00cc 8122     		movs	r2, #129
 225 00ce FFF7FEFF 		bl	u8g_WriteByte
 127:.\u8glib_arm_v1.18.1\src/u8g_dev_ssd1309_128x64.c ****       u8g_WriteByte(u8g, dev, (*(uint8_t *)arg) ); /* 11 Jul 2015: fixed contrast calculation */
 226              		.loc 1 127 0
 227 00d2 3B68     		ldr	r3, [r7]
 228 00d4 1B78     		ldrb	r3, [r3]	@ zero_extendqisi2
 229 00d6 F868     		ldr	r0, [r7, #12]
 230 00d8 B968     		ldr	r1, [r7, #8]
 231 00da 1A46     		mov	r2, r3
 232 00dc FFF7FEFF 		bl	u8g_WriteByte
 128:.\u8glib_arm_v1.18.1\src/u8g_dev_ssd1309_128x64.c ****       u8g_SetChipSelect(u8g, dev, 0);      
 233              		.loc 1 128 0
 234 00e0 F868     		ldr	r0, [r7, #12]
 235 00e2 B968     		ldr	r1, [r7, #8]
 236 00e4 0022     		movs	r2, #0
 237 00e6 FFF7FEFF 		bl	u8g_SetChipSelect
 129:.\u8glib_arm_v1.18.1\src/u8g_dev_ssd1309_128x64.c ****       return 1; 
 238              		.loc 1 129 0
 239 00ea 0123     		movs	r3, #1
 240 00ec 15E0     		b	.L11
 241              	.L7:
 130:.\u8glib_arm_v1.18.1\src/u8g_dev_ssd1309_128x64.c ****     case U8G_DEV_MSG_SLEEP_ON:
 131:.\u8glib_arm_v1.18.1\src/u8g_dev_ssd1309_128x64.c ****       u8g_WriteEscSeqP(u8g, dev, u8g_dev_ssd13xx_sleep_on);    
 242              		.loc 1 131 0
 243 00ee F868     		ldr	r0, [r7, #12]
 244 00f0 B968     		ldr	r1, [r7, #8]
 245 00f2 0E4A     		ldr	r2, .L12+8
 246 00f4 FFF7FEFF 		bl	u8g_WriteEscSeqP
 132:.\u8glib_arm_v1.18.1\src/u8g_dev_ssd1309_128x64.c ****       return 1;
 247              		.loc 1 132 0
 248 00f8 0123     		movs	r3, #1
 249 00fa 0EE0     		b	.L11
 250              	.L8:
 133:.\u8glib_arm_v1.18.1\src/u8g_dev_ssd1309_128x64.c ****     case U8G_DEV_MSG_SLEEP_OFF:
 134:.\u8glib_arm_v1.18.1\src/u8g_dev_ssd1309_128x64.c ****       u8g_WriteEscSeqP(u8g, dev, u8g_dev_ssd13xx_sleep_off);    
 251              		.loc 1 134 0
 252 00fc F868     		ldr	r0, [r7, #12]
 253 00fe B968     		ldr	r1, [r7, #8]
 254 0100 0B4A     		ldr	r2, .L12+12
 255 0102 FFF7FEFF 		bl	u8g_WriteEscSeqP
 135:.\u8glib_arm_v1.18.1\src/u8g_dev_ssd1309_128x64.c ****       return 1;
 256              		.loc 1 135 0
 257 0106 0123     		movs	r3, #1
 258 0108 07E0     		b	.L11
 259              	.L2:
 136:.\u8glib_arm_v1.18.1\src/u8g_dev_ssd1309_128x64.c ****   }
 137:.\u8glib_arm_v1.18.1\src/u8g_dev_ssd1309_128x64.c ****   return u8g_dev_pb8v1_base_fn(u8g, dev, msg, arg);
 260              		.loc 1 137 0
 261 010a FB79     		ldrb	r3, [r7, #7]	@ zero_extendqisi2
 262 010c F868     		ldr	r0, [r7, #12]
ARM GAS  C:\Users\Shiguruy\AppData\Local\Temp\ccjlHkHj.s 			page 8


 263 010e B968     		ldr	r1, [r7, #8]
 264 0110 1A46     		mov	r2, r3
 265 0112 3B68     		ldr	r3, [r7]
 266 0114 FFF7FEFF 		bl	u8g_dev_pb8v1_base_fn
 267 0118 0346     		mov	r3, r0
 268              	.L11:
 138:.\u8glib_arm_v1.18.1\src/u8g_dev_ssd1309_128x64.c **** }
 269              		.loc 1 138 0
 270 011a 1846     		mov	r0, r3
 271 011c 1837     		adds	r7, r7, #24
 272              		.cfi_def_cfa_offset 8
 273 011e BD46     		mov	sp, r7
 274              		.cfi_def_cfa_register 13
 275              		@ sp needed
 276 0120 80BD     		pop	{r7, pc}
 277              	.L13:
 278 0122 00BF     		.align	2
 279              	.L12:
 280 0124 00000000 		.word	u8g_dev_ssd1309_128x64_init_seq
 281 0128 2C000000 		.word	u8g_dev_ssd1309_128x64_data_start
 282 012c 34000000 		.word	u8g_dev_ssd13xx_sleep_on
 283 0130 40000000 		.word	u8g_dev_ssd13xx_sleep_off
 284              		.cfi_endproc
 285              	.LFE0:
 286              		.size	u8g_dev_ssd1309_128x64_fn, .-u8g_dev_ssd1309_128x64_fn
 287              		.global	u8g_dev_ssd1309_128x64_hw_spi_buf
 288              		.bss
 289              		.align	2
 290              		.type	u8g_dev_ssd1309_128x64_hw_spi_buf, %object
 291              		.size	u8g_dev_ssd1309_128x64_hw_spi_buf, 128
 292              	u8g_dev_ssd1309_128x64_hw_spi_buf:
 293 0000 00000000 		.space	128
 293      00000000 
 293      00000000 
 293      00000000 
 293      00000000 
 294              		.global	u8g_dev_ssd1309_128x64_hw_spi_pb
 295              		.data
 296              		.align	2
 297              		.type	u8g_dev_ssd1309_128x64_hw_spi_pb, %object
 298              		.size	u8g_dev_ssd1309_128x64_hw_spi_pb, 12
 299              	u8g_dev_ssd1309_128x64_hw_spi_pb:
 300 0000 08       		.byte	8
 301 0001 40       		.byte	64
 302 0002 00       		.byte	0
 303 0003 00       		.byte	0
 304 0004 00       		.byte	0
 305 0005 80       		.byte	-128
 306 0006 0000     		.space	2
 307 0008 00000000 		.word	u8g_dev_ssd1309_128x64_hw_spi_buf
 308              		.global	u8g_dev_ssd1309_128x64_hw_spi
 309              		.align	2
 310              		.type	u8g_dev_ssd1309_128x64_hw_spi, %object
 311              		.size	u8g_dev_ssd1309_128x64_hw_spi, 12
 312              	u8g_dev_ssd1309_128x64_hw_spi:
 313 000c 00000000 		.word	u8g_dev_ssd1309_128x64_fn
 314 0010 00000000 		.word	u8g_dev_ssd1309_128x64_hw_spi_pb
ARM GAS  C:\Users\Shiguruy\AppData\Local\Temp\ccjlHkHj.s 			page 9


 315 0014 00000000 		.word	u8g_com_null_fn
 316              		.global	u8g_dev_ssd1309_128x64_sw_spi_buf
 317              		.bss
 318              		.align	2
 319              		.type	u8g_dev_ssd1309_128x64_sw_spi_buf, %object
 320              		.size	u8g_dev_ssd1309_128x64_sw_spi_buf, 128
 321              	u8g_dev_ssd1309_128x64_sw_spi_buf:
 322 0080 00000000 		.space	128
 322      00000000 
 322      00000000 
 322      00000000 
 322      00000000 
 323              		.global	u8g_dev_ssd1309_128x64_sw_spi_pb
 324              		.data
 325              		.align	2
 326              		.type	u8g_dev_ssd1309_128x64_sw_spi_pb, %object
 327              		.size	u8g_dev_ssd1309_128x64_sw_spi_pb, 12
 328              	u8g_dev_ssd1309_128x64_sw_spi_pb:
 329 0018 08       		.byte	8
 330 0019 40       		.byte	64
 331 001a 00       		.byte	0
 332 001b 00       		.byte	0
 333 001c 00       		.byte	0
 334 001d 80       		.byte	-128
 335 001e 0000     		.space	2
 336 0020 00000000 		.word	u8g_dev_ssd1309_128x64_sw_spi_buf
 337              		.global	u8g_dev_ssd1309_128x64_sw_spi
 338              		.align	2
 339              		.type	u8g_dev_ssd1309_128x64_sw_spi, %object
 340              		.size	u8g_dev_ssd1309_128x64_sw_spi, 12
 341              	u8g_dev_ssd1309_128x64_sw_spi:
 342 0024 00000000 		.word	u8g_dev_ssd1309_128x64_fn
 343 0028 00000000 		.word	u8g_dev_ssd1309_128x64_sw_spi_pb
 344 002c 00000000 		.word	u8g_com_null_fn
 345              		.global	u8g_dev_ssd1309_128x64_i2c_buf
 346              		.bss
 347              		.align	2
 348              		.type	u8g_dev_ssd1309_128x64_i2c_buf, %object
 349              		.size	u8g_dev_ssd1309_128x64_i2c_buf, 128
 350              	u8g_dev_ssd1309_128x64_i2c_buf:
 351 0100 00000000 		.space	128
 351      00000000 
 351      00000000 
 351      00000000 
 351      00000000 
 352              		.global	u8g_dev_ssd1309_128x64_i2c_pb
 353              		.data
 354              		.align	2
 355              		.type	u8g_dev_ssd1309_128x64_i2c_pb, %object
 356              		.size	u8g_dev_ssd1309_128x64_i2c_pb, 12
 357              	u8g_dev_ssd1309_128x64_i2c_pb:
 358 0030 08       		.byte	8
 359 0031 40       		.byte	64
 360 0032 00       		.byte	0
 361 0033 00       		.byte	0
 362 0034 00       		.byte	0
 363 0035 80       		.byte	-128
ARM GAS  C:\Users\Shiguruy\AppData\Local\Temp\ccjlHkHj.s 			page 10


 364 0036 0000     		.space	2
 365 0038 00000000 		.word	u8g_dev_ssd1309_128x64_i2c_buf
 366              		.global	u8g_dev_ssd1309_128x64_i2c
 367              		.align	2
 368              		.type	u8g_dev_ssd1309_128x64_i2c, %object
 369              		.size	u8g_dev_ssd1309_128x64_i2c, 12
 370              	u8g_dev_ssd1309_128x64_i2c:
 371 003c 00000000 		.word	u8g_dev_ssd1309_128x64_fn
 372 0040 00000000 		.word	u8g_dev_ssd1309_128x64_i2c_pb
 373 0044 00000000 		.word	u8g_com_null_fn
 374              		.text
 375              	.Letext0:
 376              		.file 2 "c:\\program files (x86)\\cypress\\psoc creator\\3.3\\psoc creator\\import\\gnu\\arm\\4.9.
 377              		.file 3 "c:\\program files (x86)\\cypress\\psoc creator\\3.3\\psoc creator\\import\\gnu\\arm\\4.9.
 378              		.file 4 ".\\u8glib_arm_v1.18.1\\src\\u8g.h"