ARM GAS  C:\Users\KJA\AppData\Local\Temp\ccoeGM2A.s 			page 1


   1              		.syntax unified
   2              		.cpu cortex-m3
   3              		.fpu softvfp
   4              		.eabi_attribute 20, 1
   5              		.eabi_attribute 21, 1
   6              		.eabi_attribute 23, 3
   7              		.eabi_attribute 24, 1
   8              		.eabi_attribute 25, 1
   9              		.eabi_attribute 26, 1
  10              		.eabi_attribute 30, 6
  11              		.eabi_attribute 34, 1
  12              		.eabi_attribute 18, 4
  13              		.thumb
  14              		.file	"u8g_cursor.c"
  15              		.text
  16              	.Ltext0:
  17              		.cfi_sections	.debug_frame
  18              		.section	.text.u8g_SetCursorFont,"ax",%progbits
  19              		.align	2
  20              		.global	u8g_SetCursorFont
  21              		.thumb
  22              		.thumb_func
  23              		.type	u8g_SetCursorFont, %function
  24              	u8g_SetCursorFont:
  25              	.LFB0:
  26              		.file 1 "u8glib_arm_v1.18.1\\src\\u8g_cursor.c"
   1:u8glib_arm_v1.18.1\src/u8g_cursor.c **** /*
   2:u8glib_arm_v1.18.1\src/u8g_cursor.c **** 
   3:u8glib_arm_v1.18.1\src/u8g_cursor.c ****   u8g_cursor.c
   4:u8glib_arm_v1.18.1\src/u8g_cursor.c **** 
   5:u8glib_arm_v1.18.1\src/u8g_cursor.c ****   Universal 8bit Graphics Library
   6:u8glib_arm_v1.18.1\src/u8g_cursor.c ****   
   7:u8glib_arm_v1.18.1\src/u8g_cursor.c ****   Copyright (c) 2011, olikraus@gmail.com
   8:u8glib_arm_v1.18.1\src/u8g_cursor.c ****   All rights reserved.
   9:u8glib_arm_v1.18.1\src/u8g_cursor.c **** 
  10:u8glib_arm_v1.18.1\src/u8g_cursor.c ****   Redistribution and use in source and binary forms, with or without modification, 
  11:u8glib_arm_v1.18.1\src/u8g_cursor.c ****   are permitted provided that the following conditions are met:
  12:u8glib_arm_v1.18.1\src/u8g_cursor.c **** 
  13:u8glib_arm_v1.18.1\src/u8g_cursor.c ****   * Redistributions of source code must retain the above copyright notice, this list 
  14:u8glib_arm_v1.18.1\src/u8g_cursor.c ****     of conditions and the following disclaimer.
  15:u8glib_arm_v1.18.1\src/u8g_cursor.c ****     
  16:u8glib_arm_v1.18.1\src/u8g_cursor.c ****   * Redistributions in binary form must reproduce the above copyright notice, this 
  17:u8glib_arm_v1.18.1\src/u8g_cursor.c ****     list of conditions and the following disclaimer in the documentation and/or other 
  18:u8glib_arm_v1.18.1\src/u8g_cursor.c ****     materials provided with the distribution.
  19:u8glib_arm_v1.18.1\src/u8g_cursor.c **** 
  20:u8glib_arm_v1.18.1\src/u8g_cursor.c ****   THIS SOFTWARE IS PROVIDED BY THE COPYRIGHT HOLDERS AND 
  21:u8glib_arm_v1.18.1\src/u8g_cursor.c ****   CONTRIBUTORS "AS IS" AND ANY EXPRESS OR IMPLIED WARRANTIES, 
  22:u8glib_arm_v1.18.1\src/u8g_cursor.c ****   INCLUDING, BUT NOT LIMITED TO, THE IMPLIED WARRANTIES OF 
  23:u8glib_arm_v1.18.1\src/u8g_cursor.c ****   MERCHANTABILITY AND FITNESS FOR A PARTICULAR PURPOSE ARE 
  24:u8glib_arm_v1.18.1\src/u8g_cursor.c ****   DISCLAIMED. IN NO EVENT SHALL THE COPYRIGHT HOLDER OR 
  25:u8glib_arm_v1.18.1\src/u8g_cursor.c ****   CONTRIBUTORS BE LIABLE FOR ANY DIRECT, INDIRECT, INCIDENTAL, 
  26:u8glib_arm_v1.18.1\src/u8g_cursor.c ****   SPECIAL, EXEMPLARY, OR CONSEQUENTIAL DAMAGES (INCLUDING, BUT 
  27:u8glib_arm_v1.18.1\src/u8g_cursor.c ****   NOT LIMITED TO, PROCUREMENT OF SUBSTITUTE GOODS OR SERVICES; 
  28:u8glib_arm_v1.18.1\src/u8g_cursor.c ****   LOSS OF USE, DATA, OR PROFITS; OR BUSINESS INTERRUPTION) HOWEVER 
  29:u8glib_arm_v1.18.1\src/u8g_cursor.c ****   CAUSED AND ON ANY THEORY OF LIABILITY, WHETHER IN CONTRACT, 
  30:u8glib_arm_v1.18.1\src/u8g_cursor.c ****   STRICT LIABILITY, OR TORT (INCLUDING NEGLIGENCE OR OTHERWISE) 
  31:u8glib_arm_v1.18.1\src/u8g_cursor.c ****   ARISING IN ANY WAY OUT OF THE USE OF THIS SOFTWARE, EVEN IF 
ARM GAS  C:\Users\KJA\AppData\Local\Temp\ccoeGM2A.s 			page 2


  32:u8glib_arm_v1.18.1\src/u8g_cursor.c ****   ADVISED OF THE POSSIBILITY OF SUCH DAMAGE.  
  33:u8glib_arm_v1.18.1\src/u8g_cursor.c ****   
  34:u8glib_arm_v1.18.1\src/u8g_cursor.c ****   
  35:u8glib_arm_v1.18.1\src/u8g_cursor.c **** */
  36:u8glib_arm_v1.18.1\src/u8g_cursor.c **** 
  37:u8glib_arm_v1.18.1\src/u8g_cursor.c **** #include "u8g.h"
  38:u8glib_arm_v1.18.1\src/u8g_cursor.c **** 
  39:u8glib_arm_v1.18.1\src/u8g_cursor.c **** void u8g_SetCursorFont(u8g_t *u8g, const u8g_pgm_uint8_t *cursor_font)
  40:u8glib_arm_v1.18.1\src/u8g_cursor.c **** {
  27              		.loc 1 40 0
  28              		.cfi_startproc
  29              		@ args = 0, pretend = 0, frame = 8
  30              		@ frame_needed = 1, uses_anonymous_args = 0
  31              		@ link register save eliminated.
  32 0000 80B4     		push	{r7}
  33              		.cfi_def_cfa_offset 4
  34              		.cfi_offset 7, -4
  35 0002 83B0     		sub	sp, sp, #12
  36              		.cfi_def_cfa_offset 16
  37 0004 00AF     		add	r7, sp, #0
  38              		.cfi_def_cfa_register 7
  39 0006 7860     		str	r0, [r7, #4]
  40 0008 3960     		str	r1, [r7]
  41:u8glib_arm_v1.18.1\src/u8g_cursor.c ****   u8g->cursor_font = cursor_font;
  41              		.loc 1 41 0
  42 000a 7B68     		ldr	r3, [r7, #4]
  43 000c 3A68     		ldr	r2, [r7]
  44 000e DA60     		str	r2, [r3, #12]
  42:u8glib_arm_v1.18.1\src/u8g_cursor.c **** }
  45              		.loc 1 42 0
  46 0010 0C37     		adds	r7, r7, #12
  47              		.cfi_def_cfa_offset 4
  48 0012 BD46     		mov	sp, r7
  49              		.cfi_def_cfa_register 13
  50              		@ sp needed
  51 0014 5DF8047B 		ldr	r7, [sp], #4
  52              		.cfi_restore 7
  53              		.cfi_def_cfa_offset 0
  54 0018 7047     		bx	lr
  55              		.cfi_endproc
  56              	.LFE0:
  57              		.size	u8g_SetCursorFont, .-u8g_SetCursorFont
  58 001a 00BF     		.section	.text.u8g_SetCursorStyle,"ax",%progbits
  59              		.align	2
  60              		.global	u8g_SetCursorStyle
  61              		.thumb
  62              		.thumb_func
  63              		.type	u8g_SetCursorStyle, %function
  64              	u8g_SetCursorStyle:
  65              	.LFB1:
  43:u8glib_arm_v1.18.1\src/u8g_cursor.c **** 
  44:u8glib_arm_v1.18.1\src/u8g_cursor.c **** void u8g_SetCursorStyle(u8g_t *u8g, uint8_t encoding)
  45:u8glib_arm_v1.18.1\src/u8g_cursor.c **** {
  66              		.loc 1 45 0
  67              		.cfi_startproc
  68              		@ args = 0, pretend = 0, frame = 8
  69              		@ frame_needed = 1, uses_anonymous_args = 0
ARM GAS  C:\Users\KJA\AppData\Local\Temp\ccoeGM2A.s 			page 3


  70              		@ link register save eliminated.
  71 0000 80B4     		push	{r7}
  72              		.cfi_def_cfa_offset 4
  73              		.cfi_offset 7, -4
  74 0002 83B0     		sub	sp, sp, #12
  75              		.cfi_def_cfa_offset 16
  76 0004 00AF     		add	r7, sp, #0
  77              		.cfi_def_cfa_register 7
  78 0006 7860     		str	r0, [r7, #4]
  79 0008 0B46     		mov	r3, r1
  80 000a FB70     		strb	r3, [r7, #3]
  46:u8glib_arm_v1.18.1\src/u8g_cursor.c ****   u8g->cursor_encoding = encoding;
  81              		.loc 1 46 0
  82 000c 7B68     		ldr	r3, [r7, #4]
  83 000e FA78     		ldrb	r2, [r7, #3]
  84 0010 9A74     		strb	r2, [r3, #18]
  47:u8glib_arm_v1.18.1\src/u8g_cursor.c **** }
  85              		.loc 1 47 0
  86 0012 0C37     		adds	r7, r7, #12
  87              		.cfi_def_cfa_offset 4
  88 0014 BD46     		mov	sp, r7
  89              		.cfi_def_cfa_register 13
  90              		@ sp needed
  91 0016 5DF8047B 		ldr	r7, [sp], #4
  92              		.cfi_restore 7
  93              		.cfi_def_cfa_offset 0
  94 001a 7047     		bx	lr
  95              		.cfi_endproc
  96              	.LFE1:
  97              		.size	u8g_SetCursorStyle, .-u8g_SetCursorStyle
  98              		.section	.text.u8g_SetCursorColor,"ax",%progbits
  99              		.align	2
 100              		.global	u8g_SetCursorColor
 101              		.thumb
 102              		.thumb_func
 103              		.type	u8g_SetCursorColor, %function
 104              	u8g_SetCursorColor:
 105              	.LFB2:
  48:u8glib_arm_v1.18.1\src/u8g_cursor.c **** 
  49:u8glib_arm_v1.18.1\src/u8g_cursor.c **** void u8g_SetCursorColor(u8g_t *u8g, uint8_t fg, uint8_t bg)
  50:u8glib_arm_v1.18.1\src/u8g_cursor.c **** {
 106              		.loc 1 50 0
 107              		.cfi_startproc
 108              		@ args = 0, pretend = 0, frame = 8
 109              		@ frame_needed = 1, uses_anonymous_args = 0
 110              		@ link register save eliminated.
 111 0000 80B4     		push	{r7}
 112              		.cfi_def_cfa_offset 4
 113              		.cfi_offset 7, -4
 114 0002 83B0     		sub	sp, sp, #12
 115              		.cfi_def_cfa_offset 16
 116 0004 00AF     		add	r7, sp, #0
 117              		.cfi_def_cfa_register 7
 118 0006 7860     		str	r0, [r7, #4]
 119 0008 0B46     		mov	r3, r1
 120 000a FB70     		strb	r3, [r7, #3]
 121 000c 1346     		mov	r3, r2
ARM GAS  C:\Users\KJA\AppData\Local\Temp\ccoeGM2A.s 			page 4


 122 000e BB70     		strb	r3, [r7, #2]
  51:u8glib_arm_v1.18.1\src/u8g_cursor.c ****   u8g->cursor_bg_color = bg;
 123              		.loc 1 51 0
 124 0010 7B68     		ldr	r3, [r7, #4]
 125 0012 BA78     		ldrb	r2, [r7, #2]
 126 0014 5A74     		strb	r2, [r3, #17]
  52:u8glib_arm_v1.18.1\src/u8g_cursor.c ****   u8g->cursor_fg_color = fg;
 127              		.loc 1 52 0
 128 0016 7B68     		ldr	r3, [r7, #4]
 129 0018 FA78     		ldrb	r2, [r7, #3]
 130 001a 1A74     		strb	r2, [r3, #16]
  53:u8glib_arm_v1.18.1\src/u8g_cursor.c **** }
 131              		.loc 1 53 0
 132 001c 0C37     		adds	r7, r7, #12
 133              		.cfi_def_cfa_offset 4
 134 001e BD46     		mov	sp, r7
 135              		.cfi_def_cfa_register 13
 136              		@ sp needed
 137 0020 5DF8047B 		ldr	r7, [sp], #4
 138              		.cfi_restore 7
 139              		.cfi_def_cfa_offset 0
 140 0024 7047     		bx	lr
 141              		.cfi_endproc
 142              	.LFE2:
 143              		.size	u8g_SetCursorColor, .-u8g_SetCursorColor
 144 0026 00BF     		.section	.text.u8g_SetCursorPos,"ax",%progbits
 145              		.align	2
 146              		.global	u8g_SetCursorPos
 147              		.thumb
 148              		.thumb_func
 149              		.type	u8g_SetCursorPos, %function
 150              	u8g_SetCursorPos:
 151              	.LFB3:
  54:u8glib_arm_v1.18.1\src/u8g_cursor.c **** 
  55:u8glib_arm_v1.18.1\src/u8g_cursor.c **** void u8g_SetCursorPos(u8g_t *u8g, u8g_uint_t cursor_x, u8g_uint_t cursor_y)
  56:u8glib_arm_v1.18.1\src/u8g_cursor.c **** {
 152              		.loc 1 56 0
 153              		.cfi_startproc
 154              		@ args = 0, pretend = 0, frame = 8
 155              		@ frame_needed = 1, uses_anonymous_args = 0
 156              		@ link register save eliminated.
 157 0000 80B4     		push	{r7}
 158              		.cfi_def_cfa_offset 4
 159              		.cfi_offset 7, -4
 160 0002 83B0     		sub	sp, sp, #12
 161              		.cfi_def_cfa_offset 16
 162 0004 00AF     		add	r7, sp, #0
 163              		.cfi_def_cfa_register 7
 164 0006 7860     		str	r0, [r7, #4]
 165 0008 0B46     		mov	r3, r1
 166 000a FB70     		strb	r3, [r7, #3]
 167 000c 1346     		mov	r3, r2
 168 000e BB70     		strb	r3, [r7, #2]
  57:u8glib_arm_v1.18.1\src/u8g_cursor.c ****   u8g->cursor_x = cursor_x;
 169              		.loc 1 57 0
 170 0010 7B68     		ldr	r3, [r7, #4]
 171 0012 FA78     		ldrb	r2, [r7, #3]
ARM GAS  C:\Users\KJA\AppData\Local\Temp\ccoeGM2A.s 			page 5


 172 0014 1A75     		strb	r2, [r3, #20]
  58:u8glib_arm_v1.18.1\src/u8g_cursor.c ****   u8g->cursor_y = cursor_y;
 173              		.loc 1 58 0
 174 0016 7B68     		ldr	r3, [r7, #4]
 175 0018 BA78     		ldrb	r2, [r7, #2]
 176 001a 5A75     		strb	r2, [r3, #21]
  59:u8glib_arm_v1.18.1\src/u8g_cursor.c **** }
 177              		.loc 1 59 0
 178 001c 0C37     		adds	r7, r7, #12
 179              		.cfi_def_cfa_offset 4
 180 001e BD46     		mov	sp, r7
 181              		.cfi_def_cfa_register 13
 182              		@ sp needed
 183 0020 5DF8047B 		ldr	r7, [sp], #4
 184              		.cfi_restore 7
 185              		.cfi_def_cfa_offset 0
 186 0024 7047     		bx	lr
 187              		.cfi_endproc
 188              	.LFE3:
 189              		.size	u8g_SetCursorPos, .-u8g_SetCursorPos
 190 0026 00BF     		.section	.text.u8g_EnableCursor,"ax",%progbits
 191              		.align	2
 192              		.global	u8g_EnableCursor
 193              		.thumb
 194              		.thumb_func
 195              		.type	u8g_EnableCursor, %function
 196              	u8g_EnableCursor:
 197              	.LFB4:
  60:u8glib_arm_v1.18.1\src/u8g_cursor.c **** 
  61:u8glib_arm_v1.18.1\src/u8g_cursor.c **** void u8g_EnableCursor(u8g_t *u8g)
  62:u8glib_arm_v1.18.1\src/u8g_cursor.c **** {
 198              		.loc 1 62 0
 199              		.cfi_startproc
 200              		@ args = 0, pretend = 0, frame = 8
 201              		@ frame_needed = 1, uses_anonymous_args = 0
 202              		@ link register save eliminated.
 203 0000 80B4     		push	{r7}
 204              		.cfi_def_cfa_offset 4
 205              		.cfi_offset 7, -4
 206 0002 83B0     		sub	sp, sp, #12
 207              		.cfi_def_cfa_offset 16
 208 0004 00AF     		add	r7, sp, #0
 209              		.cfi_def_cfa_register 7
 210 0006 7860     		str	r0, [r7, #4]
  63:u8glib_arm_v1.18.1\src/u8g_cursor.c ****     u8g->cursor_fn = u8g_DrawCursor;
 211              		.loc 1 63 0
 212 0008 7B68     		ldr	r3, [r7, #4]
 213 000a 034A     		ldr	r2, .L6
 214 000c 9A61     		str	r2, [r3, #24]
  64:u8glib_arm_v1.18.1\src/u8g_cursor.c **** }
 215              		.loc 1 64 0
 216 000e 0C37     		adds	r7, r7, #12
 217              		.cfi_def_cfa_offset 4
 218 0010 BD46     		mov	sp, r7
 219              		.cfi_def_cfa_register 13
 220              		@ sp needed
 221 0012 5DF8047B 		ldr	r7, [sp], #4
ARM GAS  C:\Users\KJA\AppData\Local\Temp\ccoeGM2A.s 			page 6


 222              		.cfi_restore 7
 223              		.cfi_def_cfa_offset 0
 224 0016 7047     		bx	lr
 225              	.L7:
 226              		.align	2
 227              	.L6:
 228 0018 00000000 		.word	u8g_DrawCursor
 229              		.cfi_endproc
 230              	.LFE4:
 231              		.size	u8g_EnableCursor, .-u8g_EnableCursor
 232              		.section	.text.u8g_DisableCursor,"ax",%progbits
 233              		.align	2
 234              		.global	u8g_DisableCursor
 235              		.thumb
 236              		.thumb_func
 237              		.type	u8g_DisableCursor, %function
 238              	u8g_DisableCursor:
 239              	.LFB5:
  65:u8glib_arm_v1.18.1\src/u8g_cursor.c **** 
  66:u8glib_arm_v1.18.1\src/u8g_cursor.c **** void u8g_DisableCursor(u8g_t *u8g)
  67:u8glib_arm_v1.18.1\src/u8g_cursor.c **** {
 240              		.loc 1 67 0
 241              		.cfi_startproc
 242              		@ args = 0, pretend = 0, frame = 8
 243              		@ frame_needed = 1, uses_anonymous_args = 0
 244              		@ link register save eliminated.
 245 0000 80B4     		push	{r7}
 246              		.cfi_def_cfa_offset 4
 247              		.cfi_offset 7, -4
 248 0002 83B0     		sub	sp, sp, #12
 249              		.cfi_def_cfa_offset 16
 250 0004 00AF     		add	r7, sp, #0
 251              		.cfi_def_cfa_register 7
 252 0006 7860     		str	r0, [r7, #4]
  68:u8glib_arm_v1.18.1\src/u8g_cursor.c ****     u8g->cursor_fn = (u8g_draw_cursor_fn)0;
 253              		.loc 1 68 0
 254 0008 7B68     		ldr	r3, [r7, #4]
 255 000a 0022     		movs	r2, #0
 256 000c 9A61     		str	r2, [r3, #24]
  69:u8glib_arm_v1.18.1\src/u8g_cursor.c **** }
 257              		.loc 1 69 0
 258 000e 0C37     		adds	r7, r7, #12
 259              		.cfi_def_cfa_offset 4
 260 0010 BD46     		mov	sp, r7
 261              		.cfi_def_cfa_register 13
 262              		@ sp needed
 263 0012 5DF8047B 		ldr	r7, [sp], #4
 264              		.cfi_restore 7
 265              		.cfi_def_cfa_offset 0
 266 0016 7047     		bx	lr
 267              		.cfi_endproc
 268              	.LFE5:
 269              		.size	u8g_DisableCursor, .-u8g_DisableCursor
 270              		.section	.text.u8g_DrawCursor,"ax",%progbits
 271              		.align	2
 272              		.global	u8g_DrawCursor
 273              		.thumb
ARM GAS  C:\Users\KJA\AppData\Local\Temp\ccoeGM2A.s 			page 7


 274              		.thumb_func
 275              		.type	u8g_DrawCursor, %function
 276              	u8g_DrawCursor:
 277              	.LFB6:
  70:u8glib_arm_v1.18.1\src/u8g_cursor.c **** 
  71:u8glib_arm_v1.18.1\src/u8g_cursor.c **** void u8g_DrawCursor(u8g_t *u8g)
  72:u8glib_arm_v1.18.1\src/u8g_cursor.c **** {
 278              		.loc 1 72 0
 279              		.cfi_startproc
 280              		@ args = 0, pretend = 0, frame = 16
 281              		@ frame_needed = 1, uses_anonymous_args = 0
 282 0000 80B5     		push	{r7, lr}
 283              		.cfi_def_cfa_offset 8
 284              		.cfi_offset 7, -8
 285              		.cfi_offset 14, -4
 286 0002 84B0     		sub	sp, sp, #16
 287              		.cfi_def_cfa_offset 24
 288 0004 00AF     		add	r7, sp, #0
 289              		.cfi_def_cfa_register 7
 290 0006 7860     		str	r0, [r7, #4]
  73:u8glib_arm_v1.18.1\src/u8g_cursor.c ****   const u8g_pgm_uint8_t *font;
  74:u8glib_arm_v1.18.1\src/u8g_cursor.c ****   uint8_t color;
  75:u8glib_arm_v1.18.1\src/u8g_cursor.c ****   uint8_t encoding = u8g->cursor_encoding;
 291              		.loc 1 75 0
 292 0008 7B68     		ldr	r3, [r7, #4]
 293 000a 9B7C     		ldrb	r3, [r3, #18]
 294 000c FB73     		strb	r3, [r7, #15]
  76:u8glib_arm_v1.18.1\src/u8g_cursor.c ****   
  77:u8glib_arm_v1.18.1\src/u8g_cursor.c ****   /* get current values */
  78:u8glib_arm_v1.18.1\src/u8g_cursor.c ****   color = u8g_GetColorIndex(u8g);
 295              		.loc 1 78 0
 296 000e 7868     		ldr	r0, [r7, #4]
 297 0010 FFF7FEFF 		bl	u8g_GetColorIndex
 298 0014 0346     		mov	r3, r0
 299 0016 BB73     		strb	r3, [r7, #14]
  79:u8glib_arm_v1.18.1\src/u8g_cursor.c ****   font = u8g->font;
 300              		.loc 1 79 0
 301 0018 7B68     		ldr	r3, [r7, #4]
 302 001a 9B68     		ldr	r3, [r3, #8]
 303 001c BB60     		str	r3, [r7, #8]
  80:u8glib_arm_v1.18.1\src/u8g_cursor.c ****   
  81:u8glib_arm_v1.18.1\src/u8g_cursor.c ****   /* draw cursor */
  82:u8glib_arm_v1.18.1\src/u8g_cursor.c ****   u8g->font = u8g->cursor_font;  
 304              		.loc 1 82 0
 305 001e 7B68     		ldr	r3, [r7, #4]
 306 0020 DA68     		ldr	r2, [r3, #12]
 307 0022 7B68     		ldr	r3, [r7, #4]
 308 0024 9A60     		str	r2, [r3, #8]
  83:u8glib_arm_v1.18.1\src/u8g_cursor.c ****   encoding++;
 309              		.loc 1 83 0
 310 0026 FB7B     		ldrb	r3, [r7, #15]	@ zero_extendqisi2
 311 0028 0133     		adds	r3, r3, #1
 312 002a FB73     		strb	r3, [r7, #15]
  84:u8glib_arm_v1.18.1\src/u8g_cursor.c ****   u8g_SetColorIndex(u8g, u8g->cursor_bg_color); 
 313              		.loc 1 84 0
 314 002c 7B68     		ldr	r3, [r7, #4]
 315 002e 5B7C     		ldrb	r3, [r3, #17]	@ zero_extendqisi2
ARM GAS  C:\Users\KJA\AppData\Local\Temp\ccoeGM2A.s 			page 8


 316 0030 7868     		ldr	r0, [r7, #4]
 317 0032 1946     		mov	r1, r3
 318 0034 FFF7FEFF 		bl	u8g_SetColorIndex
  85:u8glib_arm_v1.18.1\src/u8g_cursor.c ****   /* 27. Jan 2013: replaced call to u8g_DrawGlyph with call to u8g_draw_glyph */
  86:u8glib_arm_v1.18.1\src/u8g_cursor.c ****   /* required, because y adjustment should not happen to the cursor fonts */
  87:u8glib_arm_v1.18.1\src/u8g_cursor.c ****   u8g_draw_glyph(u8g, u8g->cursor_x, u8g->cursor_y, encoding);
 319              		.loc 1 87 0
 320 0038 7B68     		ldr	r3, [r7, #4]
 321 003a 197D     		ldrb	r1, [r3, #20]	@ zero_extendqisi2
 322 003c 7B68     		ldr	r3, [r7, #4]
 323 003e 5A7D     		ldrb	r2, [r3, #21]	@ zero_extendqisi2
 324 0040 FB7B     		ldrb	r3, [r7, #15]	@ zero_extendqisi2
 325 0042 7868     		ldr	r0, [r7, #4]
 326 0044 FFF7FEFF 		bl	u8g_draw_glyph
  88:u8glib_arm_v1.18.1\src/u8g_cursor.c ****   encoding--;
 327              		.loc 1 88 0
 328 0048 FB7B     		ldrb	r3, [r7, #15]	@ zero_extendqisi2
 329 004a 013B     		subs	r3, r3, #1
 330 004c FB73     		strb	r3, [r7, #15]
  89:u8glib_arm_v1.18.1\src/u8g_cursor.c ****   u8g_SetColorIndex(u8g, u8g->cursor_fg_color); 
 331              		.loc 1 89 0
 332 004e 7B68     		ldr	r3, [r7, #4]
 333 0050 1B7C     		ldrb	r3, [r3, #16]	@ zero_extendqisi2
 334 0052 7868     		ldr	r0, [r7, #4]
 335 0054 1946     		mov	r1, r3
 336 0056 FFF7FEFF 		bl	u8g_SetColorIndex
  90:u8glib_arm_v1.18.1\src/u8g_cursor.c ****   /* 27. Jan 2013: replaced call to u8g_DrawGlyph with call to u8g_draw_glyph */
  91:u8glib_arm_v1.18.1\src/u8g_cursor.c ****   /* required, because y adjustment should not happen to the cursor fonts */
  92:u8glib_arm_v1.18.1\src/u8g_cursor.c ****   /* u8g_DrawGlyph(u8g, u8g->cursor_x, u8g->cursor_y, encoding); */
  93:u8glib_arm_v1.18.1\src/u8g_cursor.c ****   u8g_draw_glyph(u8g, u8g->cursor_x, u8g->cursor_y, encoding);
 337              		.loc 1 93 0
 338 005a 7B68     		ldr	r3, [r7, #4]
 339 005c 197D     		ldrb	r1, [r3, #20]	@ zero_extendqisi2
 340 005e 7B68     		ldr	r3, [r7, #4]
 341 0060 5A7D     		ldrb	r2, [r3, #21]	@ zero_extendqisi2
 342 0062 FB7B     		ldrb	r3, [r7, #15]	@ zero_extendqisi2
 343 0064 7868     		ldr	r0, [r7, #4]
 344 0066 FFF7FEFF 		bl	u8g_draw_glyph
  94:u8glib_arm_v1.18.1\src/u8g_cursor.c ****   
  95:u8glib_arm_v1.18.1\src/u8g_cursor.c ****   /* restore previous values */
  96:u8glib_arm_v1.18.1\src/u8g_cursor.c ****   u8g->font = font;
 345              		.loc 1 96 0
 346 006a 7B68     		ldr	r3, [r7, #4]
 347 006c BA68     		ldr	r2, [r7, #8]
 348 006e 9A60     		str	r2, [r3, #8]
  97:u8glib_arm_v1.18.1\src/u8g_cursor.c ****   u8g_SetColorIndex(u8g, color); 
 349              		.loc 1 97 0
 350 0070 BB7B     		ldrb	r3, [r7, #14]	@ zero_extendqisi2
 351 0072 7868     		ldr	r0, [r7, #4]
 352 0074 1946     		mov	r1, r3
 353 0076 FFF7FEFF 		bl	u8g_SetColorIndex
  98:u8glib_arm_v1.18.1\src/u8g_cursor.c **** }
 354              		.loc 1 98 0
 355 007a 1037     		adds	r7, r7, #16
 356              		.cfi_def_cfa_offset 8
 357 007c BD46     		mov	sp, r7
 358              		.cfi_def_cfa_register 13
ARM GAS  C:\Users\KJA\AppData\Local\Temp\ccoeGM2A.s 			page 9


 359              		@ sp needed
 360 007e 80BD     		pop	{r7, pc}
 361              		.cfi_endproc
 362              	.LFE6:
 363              		.size	u8g_DrawCursor, .-u8g_DrawCursor
 364              		.text
 365              	.Letext0:
 366              		.file 2 "c:\\program files (x86)\\cypress\\psoc creator\\4.0\\psoc creator\\import\\gnu\\arm\\4.9.
 367              		.file 3 "c:\\program files (x86)\\cypress\\psoc creator\\4.0\\psoc creator\\import\\gnu\\arm\\4.9.
 368              		.file 4 "u8glib_arm_v1.18.1\\src\\u8g.h"