ARM GAS  C:\Users\Shiguruy\AppData\Local\Temp\ccXhuTPD.s 			page 1


   1              		.syntax unified
   2              		.cpu cortex-m3
   3              		.fpu softvfp
   4              		.eabi_attribute 20, 1
   5              		.eabi_attribute 21, 1
   6              		.eabi_attribute 23, 3
   7              		.eabi_attribute 24, 1
   8              		.eabi_attribute 25, 1
   9              		.eabi_attribute 26, 1
  10              		.eabi_attribute 30, 6
  11              		.eabi_attribute 34, 1
  12              		.eabi_attribute 18, 4
  13              		.thumb
  14              		.file	"u8g_dev_ssd1306_64x48.c"
  15              		.text
  16              	.Ltext0:
  17              		.cfi_sections	.debug_frame
  18              		.section	.rodata
  19              		.align	2
  20              		.type	u8g_dev_ssd1306_64x48_init_seq, %object
  21              		.size	u8g_dev_ssd1306_64x48_init_seq, 36
  22              	u8g_dev_ssd1306_64x48_init_seq:
  23 0000 FF       		.byte	-1
  24 0001 D0       		.byte	-48
  25 0002 FF       		.byte	-1
  26 0003 E0       		.byte	-32
  27 0004 FF       		.byte	-1
  28 0005 C1       		.byte	-63
  29 0006 FF       		.byte	-1
  30 0007 D1       		.byte	-47
  31 0008 AE       		.byte	-82
  32 0009 D5       		.byte	-43
  33 000a 80       		.byte	-128
  34 000b A8       		.byte	-88
  35 000c 2F       		.byte	47
  36 000d D3       		.byte	-45
  37 000e 00       		.byte	0
  38 000f 40       		.byte	64
  39 0010 8D       		.byte	-115
  40 0011 14       		.byte	20
  41 0012 A1       		.byte	-95
  42 0013 C8       		.byte	-56
  43 0014 DA       		.byte	-38
  44 0015 12       		.byte	18
  45 0016 81       		.byte	-127
  46 0017 CF       		.byte	-49
  47 0018 D9       		.byte	-39
  48 0019 22       		.byte	34
  49 001a DB       		.byte	-37
  50 001b 00       		.byte	0
  51 001c 2E       		.byte	46
  52 001d A4       		.byte	-92
  53 001e A6       		.byte	-90
  54 001f AF       		.byte	-81
  55 0020 FF       		.byte	-1
  56 0021 D0       		.byte	-48
  57 0022 FF       		.byte	-1
ARM GAS  C:\Users\Shiguruy\AppData\Local\Temp\ccXhuTPD.s 			page 2


  58 0023 FE       		.byte	-2
  59              		.align	2
  60              		.type	u8g_dev_ssd1306_64x48_data_start, %object
  61              		.size	u8g_dev_ssd1306_64x48_data_start, 8
  62              	u8g_dev_ssd1306_64x48_data_start:
  63 0024 FF       		.byte	-1
  64 0025 E0       		.byte	-32
  65 0026 FF       		.byte	-1
  66 0027 D1       		.byte	-47
  67 0028 12       		.byte	18
  68 0029 00       		.byte	0
  69 002a FF       		.byte	-1
  70 002b FE       		.byte	-2
  71              		.align	2
  72              		.type	u8g_dev_ssd13xx_sleep_on, %object
  73              		.size	u8g_dev_ssd13xx_sleep_on, 9
  74              	u8g_dev_ssd13xx_sleep_on:
  75 002c FF       		.byte	-1
  76 002d E0       		.byte	-32
  77 002e FF       		.byte	-1
  78 002f D1       		.byte	-47
  79 0030 AE       		.byte	-82
  80 0031 FF       		.byte	-1
  81 0032 D0       		.byte	-48
  82 0033 FF       		.byte	-1
  83 0034 FE       		.byte	-2
  84 0035 000000   		.align	2
  85              		.type	u8g_dev_ssd13xx_sleep_off, %object
  86              		.size	u8g_dev_ssd13xx_sleep_off, 11
  87              	u8g_dev_ssd13xx_sleep_off:
  88 0038 FF       		.byte	-1
  89 0039 E0       		.byte	-32
  90 003a FF       		.byte	-1
  91 003b D1       		.byte	-47
  92 003c AF       		.byte	-81
  93 003d FF       		.byte	-1
  94 003e 32       		.byte	50
  95 003f FF       		.byte	-1
  96 0040 D0       		.byte	-48
  97 0041 FF       		.byte	-1
  98 0042 FE       		.byte	-2
  99 0043 00       		.section	.text.u8g_dev_ssd1306_64x48_fn,"ax",%progbits
 100              		.align	2
 101              		.global	u8g_dev_ssd1306_64x48_fn
 102              		.thumb
 103              		.thumb_func
 104              		.type	u8g_dev_ssd1306_64x48_fn, %function
 105              	u8g_dev_ssd1306_64x48_fn:
 106              	.LFB0:
 107              		.file 1 ".\\u8glib_arm_v1.18.1\\src\\u8g_dev_ssd1306_64x48.c"
   1:.\u8glib_arm_v1.18.1\src/u8g_dev_ssd1306_64x48.c **** /*
   2:.\u8glib_arm_v1.18.1\src/u8g_dev_ssd1306_64x48.c **** 
   3:.\u8glib_arm_v1.18.1\src/u8g_dev_ssd1306_64x48.c ****   u8g_dev_ssd1306_64x48.c
   4:.\u8glib_arm_v1.18.1\src/u8g_dev_ssd1306_64x48.c **** 
   5:.\u8glib_arm_v1.18.1\src/u8g_dev_ssd1306_64x48.c ****   Universal 8bit Graphics Library
   6:.\u8glib_arm_v1.18.1\src/u8g_dev_ssd1306_64x48.c ****   
   7:.\u8glib_arm_v1.18.1\src/u8g_dev_ssd1306_64x48.c ****   Copyright (c) 2011, olikraus@gmail.com
ARM GAS  C:\Users\Shiguruy\AppData\Local\Temp\ccXhuTPD.s 			page 3


   8:.\u8glib_arm_v1.18.1\src/u8g_dev_ssd1306_64x48.c ****   All rights reserved.
   9:.\u8glib_arm_v1.18.1\src/u8g_dev_ssd1306_64x48.c **** 
  10:.\u8glib_arm_v1.18.1\src/u8g_dev_ssd1306_64x48.c ****   Redistribution and use in source and binary forms, with or without modification, 
  11:.\u8glib_arm_v1.18.1\src/u8g_dev_ssd1306_64x48.c ****   are permitted provided that the following conditions are met:
  12:.\u8glib_arm_v1.18.1\src/u8g_dev_ssd1306_64x48.c **** 
  13:.\u8glib_arm_v1.18.1\src/u8g_dev_ssd1306_64x48.c ****   * Redistributions of source code must retain the above copyright notice, this list 
  14:.\u8glib_arm_v1.18.1\src/u8g_dev_ssd1306_64x48.c ****     of conditions and the following disclaimer.
  15:.\u8glib_arm_v1.18.1\src/u8g_dev_ssd1306_64x48.c ****     
  16:.\u8glib_arm_v1.18.1\src/u8g_dev_ssd1306_64x48.c ****   * Redistributions in binary form must reproduce the above copyright notice, this 
  17:.\u8glib_arm_v1.18.1\src/u8g_dev_ssd1306_64x48.c ****     list of conditions and the following disclaimer in the documentation and/or other 
  18:.\u8glib_arm_v1.18.1\src/u8g_dev_ssd1306_64x48.c ****     materials provided with the distribution.
  19:.\u8glib_arm_v1.18.1\src/u8g_dev_ssd1306_64x48.c **** 
  20:.\u8glib_arm_v1.18.1\src/u8g_dev_ssd1306_64x48.c ****   THIS SOFTWARE IS PROVIDED BY THE COPYRIGHT HOLDERS AND 
  21:.\u8glib_arm_v1.18.1\src/u8g_dev_ssd1306_64x48.c ****   CONTRIBUTORS "AS IS" AND ANY EXPRESS OR IMPLIED WARRANTIES, 
  22:.\u8glib_arm_v1.18.1\src/u8g_dev_ssd1306_64x48.c ****   INCLUDING, BUT NOT LIMITED TO, THE IMPLIED WARRANTIES OF 
  23:.\u8glib_arm_v1.18.1\src/u8g_dev_ssd1306_64x48.c ****   MERCHANTABILITY AND FITNESS FOR A PARTICULAR PURPOSE ARE 
  24:.\u8glib_arm_v1.18.1\src/u8g_dev_ssd1306_64x48.c ****   DISCLAIMED. IN NO EVENT SHALL THE COPYRIGHT HOLDER OR 
  25:.\u8glib_arm_v1.18.1\src/u8g_dev_ssd1306_64x48.c ****   CONTRIBUTORS BE LIABLE FOR ANY DIRECT, INDIRECT, INCIDENTAL, 
  26:.\u8glib_arm_v1.18.1\src/u8g_dev_ssd1306_64x48.c ****   SPECIAL, EXEMPLARY, OR CONSEQUENTIAL DAMAGES (INCLUDING, BUT 
  27:.\u8glib_arm_v1.18.1\src/u8g_dev_ssd1306_64x48.c ****   NOT LIMITED TO, PROCUREMENT OF SUBSTITUTE GOODS OR SERVICES; 
  28:.\u8glib_arm_v1.18.1\src/u8g_dev_ssd1306_64x48.c ****   LOSS OF USE, DATA, OR PROFITS; OR BUSINESS INTERRUPTION) HOWEVER 
  29:.\u8glib_arm_v1.18.1\src/u8g_dev_ssd1306_64x48.c ****   CAUSED AND ON ANY THEORY OF LIABILITY, WHETHER IN CONTRACT, 
  30:.\u8glib_arm_v1.18.1\src/u8g_dev_ssd1306_64x48.c ****   STRICT LIABILITY, OR TORT (INCLUDING NEGLIGENCE OR OTHERWISE) 
  31:.\u8glib_arm_v1.18.1\src/u8g_dev_ssd1306_64x48.c ****   ARISING IN ANY WAY OUT OF THE USE OF THIS SOFTWARE, EVEN IF 
  32:.\u8glib_arm_v1.18.1\src/u8g_dev_ssd1306_64x48.c ****   ADVISED OF THE POSSIBILITY OF SUCH DAMAGE.  
  33:.\u8glib_arm_v1.18.1\src/u8g_dev_ssd1306_64x48.c **** 
  34:.\u8glib_arm_v1.18.1\src/u8g_dev_ssd1306_64x48.c ****   
  35:.\u8glib_arm_v1.18.1\src/u8g_dev_ssd1306_64x48.c **** 
  36:.\u8glib_arm_v1.18.1\src/u8g_dev_ssd1306_64x48.c **** */
  37:.\u8glib_arm_v1.18.1\src/u8g_dev_ssd1306_64x48.c **** 
  38:.\u8glib_arm_v1.18.1\src/u8g_dev_ssd1306_64x48.c **** 
  39:.\u8glib_arm_v1.18.1\src/u8g_dev_ssd1306_64x48.c **** #include "u8g.h"
  40:.\u8glib_arm_v1.18.1\src/u8g_dev_ssd1306_64x48.c **** 
  41:.\u8glib_arm_v1.18.1\src/u8g_dev_ssd1306_64x48.c **** #define WIDTH 64
  42:.\u8glib_arm_v1.18.1\src/u8g_dev_ssd1306_64x48.c **** #define HEIGHT 48
  43:.\u8glib_arm_v1.18.1\src/u8g_dev_ssd1306_64x48.c **** #define PAGE_HEIGHT 8
  44:.\u8glib_arm_v1.18.1\src/u8g_dev_ssd1306_64x48.c **** 
  45:.\u8glib_arm_v1.18.1\src/u8g_dev_ssd1306_64x48.c **** 
  46:.\u8glib_arm_v1.18.1\src/u8g_dev_ssd1306_64x48.c **** 
  47:.\u8glib_arm_v1.18.1\src/u8g_dev_ssd1306_64x48.c **** /* init sequence buydisplay.com 0.66" 64x48 OLED */
  48:.\u8glib_arm_v1.18.1\src/u8g_dev_ssd1306_64x48.c **** /* http://www.buydisplay.com/download/manual/ER-OLED0.66-1_Series_Datasheet.pdf */
  49:.\u8glib_arm_v1.18.1\src/u8g_dev_ssd1306_64x48.c **** static const uint8_t u8g_dev_ssd1306_64x48_init_seq[] PROGMEM = {
  50:.\u8glib_arm_v1.18.1\src/u8g_dev_ssd1306_64x48.c ****   U8G_ESC_CS(0),        /* disable chip */
  51:.\u8glib_arm_v1.18.1\src/u8g_dev_ssd1306_64x48.c ****   U8G_ESC_ADR(0),       /* instruction mode */
  52:.\u8glib_arm_v1.18.1\src/u8g_dev_ssd1306_64x48.c ****   U8G_ESC_RST(1),		/* do reset low pulse with (1*16)+2 milliseconds */
  53:.\u8glib_arm_v1.18.1\src/u8g_dev_ssd1306_64x48.c ****   U8G_ESC_CS(1),        /* enable chip */
  54:.\u8glib_arm_v1.18.1\src/u8g_dev_ssd1306_64x48.c **** 
  55:.\u8glib_arm_v1.18.1\src/u8g_dev_ssd1306_64x48.c ****   0x0ae,				/* display off, sleep mode */
  56:.\u8glib_arm_v1.18.1\src/u8g_dev_ssd1306_64x48.c ****   0x0d5, 0x080,			/* clock divide ratio (0x00=1) and oscillator frequency (0x8) */
  57:.\u8glib_arm_v1.18.1\src/u8g_dev_ssd1306_64x48.c ****   0x0a8, 0x02f,			/* Multiplex Ration, Jul 12, 2015: From 0.66" OLED datasheet */
  58:.\u8glib_arm_v1.18.1\src/u8g_dev_ssd1306_64x48.c **** 
  59:.\u8glib_arm_v1.18.1\src/u8g_dev_ssd1306_64x48.c ****   0x0d3, 0x000,			/*  */
  60:.\u8glib_arm_v1.18.1\src/u8g_dev_ssd1306_64x48.c **** 
  61:.\u8glib_arm_v1.18.1\src/u8g_dev_ssd1306_64x48.c ****   0x040,				/* start line */
  62:.\u8glib_arm_v1.18.1\src/u8g_dev_ssd1306_64x48.c ****   
  63:.\u8glib_arm_v1.18.1\src/u8g_dev_ssd1306_64x48.c ****   0x08d, 0x014,			/* charge pump setting (p62): 0x014 enable, 0x010 disable */ 
  64:.\u8glib_arm_v1.18.1\src/u8g_dev_ssd1306_64x48.c **** 
ARM GAS  C:\Users\Shiguruy\AppData\Local\Temp\ccXhuTPD.s 			page 4


  65:.\u8glib_arm_v1.18.1\src/u8g_dev_ssd1306_64x48.c ****   //0x020, 0x002,			/* com pin HW config, sequential com pin config (bit 4), disable left/right rem
  66:.\u8glib_arm_v1.18.1\src/u8g_dev_ssd1306_64x48.c ****   0x0a1,				/* segment remap a0/a1*/
  67:.\u8glib_arm_v1.18.1\src/u8g_dev_ssd1306_64x48.c ****   0x0c8,				/* c0: scan dir normal, c8: reverse */
  68:.\u8glib_arm_v1.18.1\src/u8g_dev_ssd1306_64x48.c ****   0x0da, 0x012,			/* com pin HW config, sequential com pin config (bit 4), disable left/right remap
  69:.\u8glib_arm_v1.18.1\src/u8g_dev_ssd1306_64x48.c ****   0x081, 0x0cf,			/* set contrast control */
  70:.\u8glib_arm_v1.18.1\src/u8g_dev_ssd1306_64x48.c ****   0x0d9, 0x022,			/* pre-charge period 0x022/f1, from 0.66" OLED datasheet */
  71:.\u8glib_arm_v1.18.1\src/u8g_dev_ssd1306_64x48.c ****   0x0db, 0x000,			/* vcomh deselect level, from 0.66" OLED datasheet */
  72:.\u8glib_arm_v1.18.1\src/u8g_dev_ssd1306_64x48.c ****   
  73:.\u8glib_arm_v1.18.1\src/u8g_dev_ssd1306_64x48.c ****   0x02e,				/* 2012-05-27: Deactivate scroll */ 
  74:.\u8glib_arm_v1.18.1\src/u8g_dev_ssd1306_64x48.c ****   0x0a4,				/* output ram to display */
  75:.\u8glib_arm_v1.18.1\src/u8g_dev_ssd1306_64x48.c ****   0x0a6,				/* none inverted normal display mode */
  76:.\u8glib_arm_v1.18.1\src/u8g_dev_ssd1306_64x48.c ****   0x0af,				/* display on */
  77:.\u8glib_arm_v1.18.1\src/u8g_dev_ssd1306_64x48.c **** 
  78:.\u8glib_arm_v1.18.1\src/u8g_dev_ssd1306_64x48.c ****   U8G_ESC_CS(0),        /* disable chip */
  79:.\u8glib_arm_v1.18.1\src/u8g_dev_ssd1306_64x48.c ****   U8G_ESC_END           /* end of sequence */
  80:.\u8glib_arm_v1.18.1\src/u8g_dev_ssd1306_64x48.c **** };
  81:.\u8glib_arm_v1.18.1\src/u8g_dev_ssd1306_64x48.c **** 
  82:.\u8glib_arm_v1.18.1\src/u8g_dev_ssd1306_64x48.c **** 
  83:.\u8glib_arm_v1.18.1\src/u8g_dev_ssd1306_64x48.c **** 
  84:.\u8glib_arm_v1.18.1\src/u8g_dev_ssd1306_64x48.c **** 
  85:.\u8glib_arm_v1.18.1\src/u8g_dev_ssd1306_64x48.c **** static const uint8_t u8g_dev_ssd1306_64x48_data_start[] PROGMEM = {
  86:.\u8glib_arm_v1.18.1\src/u8g_dev_ssd1306_64x48.c ****   U8G_ESC_ADR(0),       /* instruction mode */
  87:.\u8glib_arm_v1.18.1\src/u8g_dev_ssd1306_64x48.c ****   U8G_ESC_CS(1),        /* enable chip */
  88:.\u8glib_arm_v1.18.1\src/u8g_dev_ssd1306_64x48.c ****   0x010+2,				/* set upper 4 bit of the col adr. to 0, 0.66" OLED starts with offset 32 */
  89:.\u8glib_arm_v1.18.1\src/u8g_dev_ssd1306_64x48.c ****   0x000,				/* set lower 4 bit of the col adr. to 4  */
  90:.\u8glib_arm_v1.18.1\src/u8g_dev_ssd1306_64x48.c ****   U8G_ESC_END           /* end of sequence */
  91:.\u8glib_arm_v1.18.1\src/u8g_dev_ssd1306_64x48.c **** };
  92:.\u8glib_arm_v1.18.1\src/u8g_dev_ssd1306_64x48.c **** 
  93:.\u8glib_arm_v1.18.1\src/u8g_dev_ssd1306_64x48.c **** static const uint8_t u8g_dev_ssd13xx_sleep_on[] PROGMEM = {
  94:.\u8glib_arm_v1.18.1\src/u8g_dev_ssd1306_64x48.c ****   U8G_ESC_ADR(0),           /* instruction mode */
  95:.\u8glib_arm_v1.18.1\src/u8g_dev_ssd1306_64x48.c ****   U8G_ESC_CS(1),             /* enable chip */
  96:.\u8glib_arm_v1.18.1\src/u8g_dev_ssd1306_64x48.c ****   0x0ae,		/* display off */      
  97:.\u8glib_arm_v1.18.1\src/u8g_dev_ssd1306_64x48.c ****   U8G_ESC_CS(0),             /* disable chip, bugfix 12 nov 2014 */
  98:.\u8glib_arm_v1.18.1\src/u8g_dev_ssd1306_64x48.c ****   U8G_ESC_END                /* end of sequence */
  99:.\u8glib_arm_v1.18.1\src/u8g_dev_ssd1306_64x48.c **** };
 100:.\u8glib_arm_v1.18.1\src/u8g_dev_ssd1306_64x48.c **** 
 101:.\u8glib_arm_v1.18.1\src/u8g_dev_ssd1306_64x48.c **** static const uint8_t u8g_dev_ssd13xx_sleep_off[] PROGMEM = {
 102:.\u8glib_arm_v1.18.1\src/u8g_dev_ssd1306_64x48.c ****   U8G_ESC_ADR(0),           /* instruction mode */
 103:.\u8glib_arm_v1.18.1\src/u8g_dev_ssd1306_64x48.c ****   U8G_ESC_CS(1),             /* enable chip */
 104:.\u8glib_arm_v1.18.1\src/u8g_dev_ssd1306_64x48.c ****   0x0af,		/* display on */      
 105:.\u8glib_arm_v1.18.1\src/u8g_dev_ssd1306_64x48.c ****   U8G_ESC_DLY(50),       /* delay 50 ms */
 106:.\u8glib_arm_v1.18.1\src/u8g_dev_ssd1306_64x48.c ****   U8G_ESC_CS(0),             /* disable chip, bugfix 12 nov 2014 */
 107:.\u8glib_arm_v1.18.1\src/u8g_dev_ssd1306_64x48.c ****   U8G_ESC_END                /* end of sequence */
 108:.\u8glib_arm_v1.18.1\src/u8g_dev_ssd1306_64x48.c **** };
 109:.\u8glib_arm_v1.18.1\src/u8g_dev_ssd1306_64x48.c **** 
 110:.\u8glib_arm_v1.18.1\src/u8g_dev_ssd1306_64x48.c **** uint8_t u8g_dev_ssd1306_64x48_fn(u8g_t *u8g, u8g_dev_t *dev, uint8_t msg, void *arg)
 111:.\u8glib_arm_v1.18.1\src/u8g_dev_ssd1306_64x48.c **** {
 108              		.loc 1 111 0
 109              		.cfi_startproc
 110              		@ args = 0, pretend = 0, frame = 24
 111              		@ frame_needed = 1, uses_anonymous_args = 0
 112 0000 80B5     		push	{r7, lr}
 113              		.cfi_def_cfa_offset 8
 114              		.cfi_offset 7, -8
 115              		.cfi_offset 14, -4
 116 0002 86B0     		sub	sp, sp, #24
 117              		.cfi_def_cfa_offset 32
ARM GAS  C:\Users\Shiguruy\AppData\Local\Temp\ccXhuTPD.s 			page 5


 118 0004 00AF     		add	r7, sp, #0
 119              		.cfi_def_cfa_register 7
 120 0006 F860     		str	r0, [r7, #12]
 121 0008 B960     		str	r1, [r7, #8]
 122 000a 3B60     		str	r3, [r7]
 123 000c 1346     		mov	r3, r2
 124 000e FB71     		strb	r3, [r7, #7]
 112:.\u8glib_arm_v1.18.1\src/u8g_dev_ssd1306_64x48.c ****   switch(msg)
 125              		.loc 1 112 0
 126 0010 FB79     		ldrb	r3, [r7, #7]	@ zero_extendqisi2
 127 0012 0A3B     		subs	r3, r3, #10
 128 0014 0B2B     		cmp	r3, #11
 129 0016 5BD8     		bhi	.L2
 130 0018 01A2     		adr	r2, .L4
 131 001a 52F823F0 		ldr	pc, [r2, r3, lsl #2]
 132 001e 00BF     		.p2align 2
 133              	.L4:
 134 0020 51000000 		.word	.L3+1
 135 0024 D1000000 		.word	.L2+1
 136 0028 D1000000 		.word	.L2+1
 137 002c D1000000 		.word	.L2+1
 138 0030 D1000000 		.word	.L2+1
 139 0034 D1000000 		.word	.L2+1
 140 0038 B5000000 		.word	.L6+1
 141 003c C3000000 		.word	.L7+1
 142 0040 D1000000 		.word	.L2+1
 143 0044 D1000000 		.word	.L2+1
 144 0048 D1000000 		.word	.L2+1
 145 004c 67000000 		.word	.L8+1
 146              		.p2align 1
 147              	.L3:
 113:.\u8glib_arm_v1.18.1\src/u8g_dev_ssd1306_64x48.c ****   {
 114:.\u8glib_arm_v1.18.1\src/u8g_dev_ssd1306_64x48.c ****     case U8G_DEV_MSG_INIT:
 115:.\u8glib_arm_v1.18.1\src/u8g_dev_ssd1306_64x48.c ****       u8g_InitCom(u8g, dev, U8G_SPI_CLK_CYCLE_300NS);
 148              		.loc 1 115 0
 149 0050 F868     		ldr	r0, [r7, #12]
 150 0052 B968     		ldr	r1, [r7, #8]
 151 0054 0222     		movs	r2, #2
 152 0056 FFF7FEFF 		bl	u8g_InitCom
 116:.\u8glib_arm_v1.18.1\src/u8g_dev_ssd1306_64x48.c ****       u8g_WriteEscSeqP(u8g, dev, u8g_dev_ssd1306_64x48_init_seq);
 153              		.loc 1 116 0
 154 005a F868     		ldr	r0, [r7, #12]
 155 005c B968     		ldr	r1, [r7, #8]
 156 005e 224A     		ldr	r2, .L11
 157 0060 FFF7FEFF 		bl	u8g_WriteEscSeqP
 117:.\u8glib_arm_v1.18.1\src/u8g_dev_ssd1306_64x48.c ****       break;
 158              		.loc 1 117 0
 159 0064 34E0     		b	.L2
 160              	.L8:
 161              	.LBB2:
 118:.\u8glib_arm_v1.18.1\src/u8g_dev_ssd1306_64x48.c ****     case U8G_DEV_MSG_STOP:
 119:.\u8glib_arm_v1.18.1\src/u8g_dev_ssd1306_64x48.c ****       break;
 120:.\u8glib_arm_v1.18.1\src/u8g_dev_ssd1306_64x48.c ****     case U8G_DEV_MSG_PAGE_NEXT:
 121:.\u8glib_arm_v1.18.1\src/u8g_dev_ssd1306_64x48.c ****       {
 122:.\u8glib_arm_v1.18.1\src/u8g_dev_ssd1306_64x48.c ****         u8g_pb_t *pb = (u8g_pb_t *)(dev->dev_mem);
 162              		.loc 1 122 0
 163 0066 BB68     		ldr	r3, [r7, #8]
ARM GAS  C:\Users\Shiguruy\AppData\Local\Temp\ccXhuTPD.s 			page 6


 164 0068 5B68     		ldr	r3, [r3, #4]
 165 006a 7B61     		str	r3, [r7, #20]
 123:.\u8glib_arm_v1.18.1\src/u8g_dev_ssd1306_64x48.c ****         u8g_WriteEscSeqP(u8g, dev, u8g_dev_ssd1306_64x48_data_start);    
 166              		.loc 1 123 0
 167 006c F868     		ldr	r0, [r7, #12]
 168 006e B968     		ldr	r1, [r7, #8]
 169 0070 1E4A     		ldr	r2, .L11+4
 170 0072 FFF7FEFF 		bl	u8g_WriteEscSeqP
 124:.\u8glib_arm_v1.18.1\src/u8g_dev_ssd1306_64x48.c ****         u8g_WriteByte(u8g, dev, 0x0b0 | pb->p.page);	/* select current page (SSD1306) */
 171              		.loc 1 124 0
 172 0076 7B69     		ldr	r3, [r7, #20]
 173 0078 1B79     		ldrb	r3, [r3, #4]	@ zero_extendqisi2
 174 007a 63F04F03 		orn	r3, r3, #79
 175 007e DBB2     		uxtb	r3, r3
 176 0080 F868     		ldr	r0, [r7, #12]
 177 0082 B968     		ldr	r1, [r7, #8]
 178 0084 1A46     		mov	r2, r3
 179 0086 FFF7FEFF 		bl	u8g_WriteByte
 125:.\u8glib_arm_v1.18.1\src/u8g_dev_ssd1306_64x48.c ****         u8g_SetAddress(u8g, dev, 1);					/* data mode */
 180              		.loc 1 125 0
 181 008a F868     		ldr	r0, [r7, #12]
 182 008c B968     		ldr	r1, [r7, #8]
 183 008e 0122     		movs	r2, #1
 184 0090 FFF7FEFF 		bl	u8g_SetAddress
 126:.\u8glib_arm_v1.18.1\src/u8g_dev_ssd1306_64x48.c ****         if ( u8g_pb_WriteBuffer(pb, u8g, dev) == 0 )
 185              		.loc 1 126 0
 186 0094 7869     		ldr	r0, [r7, #20]
 187 0096 F968     		ldr	r1, [r7, #12]
 188 0098 BA68     		ldr	r2, [r7, #8]
 189 009a FFF7FEFF 		bl	u8g_pb_WriteBuffer
 190 009e 0346     		mov	r3, r0
 191 00a0 002B     		cmp	r3, #0
 192 00a2 01D1     		bne	.L9
 127:.\u8glib_arm_v1.18.1\src/u8g_dev_ssd1306_64x48.c ****           return 0;
 193              		.loc 1 127 0
 194 00a4 0023     		movs	r3, #0
 195 00a6 1BE0     		b	.L10
 196              	.L9:
 128:.\u8glib_arm_v1.18.1\src/u8g_dev_ssd1306_64x48.c ****         u8g_SetChipSelect(u8g, dev, 0);
 197              		.loc 1 128 0
 198 00a8 F868     		ldr	r0, [r7, #12]
 199 00aa B968     		ldr	r1, [r7, #8]
 200 00ac 0022     		movs	r2, #0
 201 00ae FFF7FEFF 		bl	u8g_SetChipSelect
 202              	.LBE2:
 129:.\u8glib_arm_v1.18.1\src/u8g_dev_ssd1306_64x48.c ****       }
 130:.\u8glib_arm_v1.18.1\src/u8g_dev_ssd1306_64x48.c ****       break;
 203              		.loc 1 130 0
 204 00b2 0DE0     		b	.L2
 205              	.L6:
 131:.\u8glib_arm_v1.18.1\src/u8g_dev_ssd1306_64x48.c ****     case U8G_DEV_MSG_SLEEP_ON:
 132:.\u8glib_arm_v1.18.1\src/u8g_dev_ssd1306_64x48.c ****       u8g_WriteEscSeqP(u8g, dev, u8g_dev_ssd13xx_sleep_on);    
 206              		.loc 1 132 0
 207 00b4 F868     		ldr	r0, [r7, #12]
 208 00b6 B968     		ldr	r1, [r7, #8]
 209 00b8 0D4A     		ldr	r2, .L11+8
 210 00ba FFF7FEFF 		bl	u8g_WriteEscSeqP
ARM GAS  C:\Users\Shiguruy\AppData\Local\Temp\ccXhuTPD.s 			page 7


 133:.\u8glib_arm_v1.18.1\src/u8g_dev_ssd1306_64x48.c ****       return 1;
 211              		.loc 1 133 0
 212 00be 0123     		movs	r3, #1
 213 00c0 0EE0     		b	.L10
 214              	.L7:
 134:.\u8glib_arm_v1.18.1\src/u8g_dev_ssd1306_64x48.c ****     case U8G_DEV_MSG_SLEEP_OFF:
 135:.\u8glib_arm_v1.18.1\src/u8g_dev_ssd1306_64x48.c ****       u8g_WriteEscSeqP(u8g, dev, u8g_dev_ssd13xx_sleep_off);    
 215              		.loc 1 135 0
 216 00c2 F868     		ldr	r0, [r7, #12]
 217 00c4 B968     		ldr	r1, [r7, #8]
 218 00c6 0B4A     		ldr	r2, .L11+12
 219 00c8 FFF7FEFF 		bl	u8g_WriteEscSeqP
 136:.\u8glib_arm_v1.18.1\src/u8g_dev_ssd1306_64x48.c ****       return 1;
 220              		.loc 1 136 0
 221 00cc 0123     		movs	r3, #1
 222 00ce 07E0     		b	.L10
 223              	.L2:
 137:.\u8glib_arm_v1.18.1\src/u8g_dev_ssd1306_64x48.c **** }
 138:.\u8glib_arm_v1.18.1\src/u8g_dev_ssd1306_64x48.c ****   
 139:.\u8glib_arm_v1.18.1\src/u8g_dev_ssd1306_64x48.c ****   return u8g_dev_pb8v1_base_fn(u8g, dev, msg, arg);
 224              		.loc 1 139 0
 225 00d0 FB79     		ldrb	r3, [r7, #7]	@ zero_extendqisi2
 226 00d2 F868     		ldr	r0, [r7, #12]
 227 00d4 B968     		ldr	r1, [r7, #8]
 228 00d6 1A46     		mov	r2, r3
 229 00d8 3B68     		ldr	r3, [r7]
 230 00da FFF7FEFF 		bl	u8g_dev_pb8v1_base_fn
 231 00de 0346     		mov	r3, r0
 232              	.L10:
 140:.\u8glib_arm_v1.18.1\src/u8g_dev_ssd1306_64x48.c **** }
 233              		.loc 1 140 0
 234 00e0 1846     		mov	r0, r3
 235 00e2 1837     		adds	r7, r7, #24
 236              		.cfi_def_cfa_offset 8
 237 00e4 BD46     		mov	sp, r7
 238              		.cfi_def_cfa_register 13
 239              		@ sp needed
 240 00e6 80BD     		pop	{r7, pc}
 241              	.L12:
 242              		.align	2
 243              	.L11:
 244 00e8 00000000 		.word	u8g_dev_ssd1306_64x48_init_seq
 245 00ec 24000000 		.word	u8g_dev_ssd1306_64x48_data_start
 246 00f0 2C000000 		.word	u8g_dev_ssd13xx_sleep_on
 247 00f4 38000000 		.word	u8g_dev_ssd13xx_sleep_off
 248              		.cfi_endproc
 249              	.LFE0:
 250              		.size	u8g_dev_ssd1306_64x48_fn, .-u8g_dev_ssd1306_64x48_fn
 251              		.section	.text.u8g_dev_ssd1306_64x48_2x_fn,"ax",%progbits
 252              		.align	2
 253              		.global	u8g_dev_ssd1306_64x48_2x_fn
 254              		.thumb
 255              		.thumb_func
 256              		.type	u8g_dev_ssd1306_64x48_2x_fn, %function
 257              	u8g_dev_ssd1306_64x48_2x_fn:
 258              	.LFB1:
 141:.\u8glib_arm_v1.18.1\src/u8g_dev_ssd1306_64x48.c **** 
ARM GAS  C:\Users\Shiguruy\AppData\Local\Temp\ccXhuTPD.s 			page 8


 142:.\u8glib_arm_v1.18.1\src/u8g_dev_ssd1306_64x48.c **** uint8_t u8g_dev_ssd1306_64x48_2x_fn(u8g_t *u8g, u8g_dev_t *dev, uint8_t msg, void *arg)
 143:.\u8glib_arm_v1.18.1\src/u8g_dev_ssd1306_64x48.c **** {
 259              		.loc 1 143 0
 260              		.cfi_startproc
 261              		@ args = 0, pretend = 0, frame = 24
 262              		@ frame_needed = 1, uses_anonymous_args = 0
 263 0000 90B5     		push	{r4, r7, lr}
 264              		.cfi_def_cfa_offset 12
 265              		.cfi_offset 4, -12
 266              		.cfi_offset 7, -8
 267              		.cfi_offset 14, -4
 268 0002 87B0     		sub	sp, sp, #28
 269              		.cfi_def_cfa_offset 40
 270 0004 00AF     		add	r7, sp, #0
 271              		.cfi_def_cfa_register 7
 272 0006 F860     		str	r0, [r7, #12]
 273 0008 B960     		str	r1, [r7, #8]
 274 000a 3B60     		str	r3, [r7]
 275 000c 1346     		mov	r3, r2
 276 000e FB71     		strb	r3, [r7, #7]
 144:.\u8glib_arm_v1.18.1\src/u8g_dev_ssd1306_64x48.c ****   switch(msg)
 277              		.loc 1 144 0
 278 0010 FB79     		ldrb	r3, [r7, #7]	@ zero_extendqisi2
 279 0012 0A3B     		subs	r3, r3, #10
 280 0014 0B2B     		cmp	r3, #11
 281 0016 00F28880 		bhi	.L14
 282 001a 01A2     		adr	r2, .L16
 283 001c 52F823F0 		ldr	pc, [r2, r3, lsl #2]
 284              		.p2align 2
 285              	.L16:
 286 0020 51000000 		.word	.L15+1
 287 0024 2B010000 		.word	.L14+1
 288 0028 2B010000 		.word	.L14+1
 289 002c 2B010000 		.word	.L14+1
 290 0030 2B010000 		.word	.L14+1
 291 0034 2B010000 		.word	.L14+1
 292 0038 0F010000 		.word	.L18+1
 293 003c 1D010000 		.word	.L19+1
 294 0040 2B010000 		.word	.L14+1
 295 0044 2B010000 		.word	.L14+1
 296 0048 2B010000 		.word	.L14+1
 297 004c 67000000 		.word	.L20+1
 298              		.p2align 1
 299              	.L15:
 145:.\u8glib_arm_v1.18.1\src/u8g_dev_ssd1306_64x48.c ****   {
 146:.\u8glib_arm_v1.18.1\src/u8g_dev_ssd1306_64x48.c ****     case U8G_DEV_MSG_INIT:
 147:.\u8glib_arm_v1.18.1\src/u8g_dev_ssd1306_64x48.c ****       u8g_InitCom(u8g, dev, U8G_SPI_CLK_CYCLE_300NS);
 300              		.loc 1 147 0
 301 0050 F868     		ldr	r0, [r7, #12]
 302 0052 B968     		ldr	r1, [r7, #8]
 303 0054 0222     		movs	r2, #2
 304 0056 FFF7FEFF 		bl	u8g_InitCom
 148:.\u8glib_arm_v1.18.1\src/u8g_dev_ssd1306_64x48.c ****       u8g_WriteEscSeqP(u8g, dev, u8g_dev_ssd1306_64x48_init_seq);
 305              		.loc 1 148 0
 306 005a F868     		ldr	r0, [r7, #12]
 307 005c B968     		ldr	r1, [r7, #8]
 308 005e 394A     		ldr	r2, .L22
ARM GAS  C:\Users\Shiguruy\AppData\Local\Temp\ccXhuTPD.s 			page 9


 309 0060 FFF7FEFF 		bl	u8g_WriteEscSeqP
 149:.\u8glib_arm_v1.18.1\src/u8g_dev_ssd1306_64x48.c ****       break;
 310              		.loc 1 149 0
 311 0064 61E0     		b	.L14
 312              	.L20:
 313              	.LBB3:
 150:.\u8glib_arm_v1.18.1\src/u8g_dev_ssd1306_64x48.c ****     case U8G_DEV_MSG_STOP:
 151:.\u8glib_arm_v1.18.1\src/u8g_dev_ssd1306_64x48.c ****       break;
 152:.\u8glib_arm_v1.18.1\src/u8g_dev_ssd1306_64x48.c ****     case U8G_DEV_MSG_PAGE_NEXT:
 153:.\u8glib_arm_v1.18.1\src/u8g_dev_ssd1306_64x48.c ****       {
 154:.\u8glib_arm_v1.18.1\src/u8g_dev_ssd1306_64x48.c ****         u8g_pb_t *pb = (u8g_pb_t *)(dev->dev_mem);
 314              		.loc 1 154 0
 315 0066 BB68     		ldr	r3, [r7, #8]
 316 0068 5B68     		ldr	r3, [r3, #4]
 317 006a 7B61     		str	r3, [r7, #20]
 155:.\u8glib_arm_v1.18.1\src/u8g_dev_ssd1306_64x48.c **** 	
 156:.\u8glib_arm_v1.18.1\src/u8g_dev_ssd1306_64x48.c ****         u8g_WriteEscSeqP(u8g, dev, u8g_dev_ssd1306_64x48_data_start);    
 318              		.loc 1 156 0
 319 006c F868     		ldr	r0, [r7, #12]
 320 006e B968     		ldr	r1, [r7, #8]
 321 0070 354A     		ldr	r2, .L22+4
 322 0072 FFF7FEFF 		bl	u8g_WriteEscSeqP
 157:.\u8glib_arm_v1.18.1\src/u8g_dev_ssd1306_64x48.c ****         u8g_WriteByte(u8g, dev, 0x0b0 | (pb->p.page*2));	/* select current page (SSD1306) */
 323              		.loc 1 157 0
 324 0076 7B69     		ldr	r3, [r7, #20]
 325 0078 1B79     		ldrb	r3, [r3, #4]	@ zero_extendqisi2
 326 007a 5B00     		lsls	r3, r3, #1
 327 007c DBB2     		uxtb	r3, r3
 328 007e DBB2     		uxtb	r3, r3
 329 0080 63F04F03 		orn	r3, r3, #79
 330 0084 DBB2     		uxtb	r3, r3
 331 0086 DBB2     		uxtb	r3, r3
 332 0088 F868     		ldr	r0, [r7, #12]
 333 008a B968     		ldr	r1, [r7, #8]
 334 008c 1A46     		mov	r2, r3
 335 008e FFF7FEFF 		bl	u8g_WriteByte
 158:.\u8glib_arm_v1.18.1\src/u8g_dev_ssd1306_64x48.c ****         u8g_SetAddress(u8g, dev, 1);					/* data mode */
 336              		.loc 1 158 0
 337 0092 F868     		ldr	r0, [r7, #12]
 338 0094 B968     		ldr	r1, [r7, #8]
 339 0096 0122     		movs	r2, #1
 340 0098 FFF7FEFF 		bl	u8g_SetAddress
 159:.\u8glib_arm_v1.18.1\src/u8g_dev_ssd1306_64x48.c **** 	u8g_WriteSequence(u8g, dev, pb->width, pb->buf); 
 341              		.loc 1 159 0
 342 009c 7B69     		ldr	r3, [r7, #20]
 343 009e 5A79     		ldrb	r2, [r3, #5]	@ zero_extendqisi2
 344 00a0 7B69     		ldr	r3, [r7, #20]
 345 00a2 9B68     		ldr	r3, [r3, #8]
 346 00a4 F868     		ldr	r0, [r7, #12]
 347 00a6 B968     		ldr	r1, [r7, #8]
 348 00a8 FFF7FEFF 		bl	u8g_WriteSequence
 160:.\u8glib_arm_v1.18.1\src/u8g_dev_ssd1306_64x48.c ****         u8g_SetChipSelect(u8g, dev, 0);
 349              		.loc 1 160 0
 350 00ac F868     		ldr	r0, [r7, #12]
 351 00ae B968     		ldr	r1, [r7, #8]
 352 00b0 0022     		movs	r2, #0
 353 00b2 FFF7FEFF 		bl	u8g_SetChipSelect
ARM GAS  C:\Users\Shiguruy\AppData\Local\Temp\ccXhuTPD.s 			page 10


 161:.\u8glib_arm_v1.18.1\src/u8g_dev_ssd1306_64x48.c **** 	
 162:.\u8glib_arm_v1.18.1\src/u8g_dev_ssd1306_64x48.c ****         u8g_WriteEscSeqP(u8g, dev, u8g_dev_ssd1306_64x48_data_start);    
 354              		.loc 1 162 0
 355 00b6 F868     		ldr	r0, [r7, #12]
 356 00b8 B968     		ldr	r1, [r7, #8]
 357 00ba 234A     		ldr	r2, .L22+4
 358 00bc FFF7FEFF 		bl	u8g_WriteEscSeqP
 163:.\u8glib_arm_v1.18.1\src/u8g_dev_ssd1306_64x48.c ****         u8g_WriteByte(u8g, dev, 0x0b0 | (pb->p.page*2+1));	/* select current page (SSD1306) */
 359              		.loc 1 163 0
 360 00c0 7B69     		ldr	r3, [r7, #20]
 361 00c2 1B79     		ldrb	r3, [r3, #4]	@ zero_extendqisi2
 362 00c4 5B00     		lsls	r3, r3, #1
 363 00c6 DBB2     		uxtb	r3, r3
 364 00c8 0133     		adds	r3, r3, #1
 365 00ca DBB2     		uxtb	r3, r3
 366 00cc DBB2     		uxtb	r3, r3
 367 00ce 63F04F03 		orn	r3, r3, #79
 368 00d2 DBB2     		uxtb	r3, r3
 369 00d4 DBB2     		uxtb	r3, r3
 370 00d6 F868     		ldr	r0, [r7, #12]
 371 00d8 B968     		ldr	r1, [r7, #8]
 372 00da 1A46     		mov	r2, r3
 373 00dc FFF7FEFF 		bl	u8g_WriteByte
 164:.\u8glib_arm_v1.18.1\src/u8g_dev_ssd1306_64x48.c ****         u8g_SetAddress(u8g, dev, 1);					/* data mode */
 374              		.loc 1 164 0
 375 00e0 F868     		ldr	r0, [r7, #12]
 376 00e2 B968     		ldr	r1, [r7, #8]
 377 00e4 0122     		movs	r2, #1
 378 00e6 FFF7FEFF 		bl	u8g_SetAddress
 165:.\u8glib_arm_v1.18.1\src/u8g_dev_ssd1306_64x48.c **** 	u8g_WriteSequence(u8g, dev, pb->width, (uint8_t *)(pb->buf)+pb->width); 
 379              		.loc 1 165 0
 380 00ea 7B69     		ldr	r3, [r7, #20]
 381 00ec 5C79     		ldrb	r4, [r3, #5]	@ zero_extendqisi2
 382 00ee 7B69     		ldr	r3, [r7, #20]
 383 00f0 9B68     		ldr	r3, [r3, #8]
 384 00f2 7A69     		ldr	r2, [r7, #20]
 385 00f4 5279     		ldrb	r2, [r2, #5]	@ zero_extendqisi2
 386 00f6 1344     		add	r3, r3, r2
 387 00f8 F868     		ldr	r0, [r7, #12]
 388 00fa B968     		ldr	r1, [r7, #8]
 389 00fc 2246     		mov	r2, r4
 390 00fe FFF7FEFF 		bl	u8g_WriteSequence
 166:.\u8glib_arm_v1.18.1\src/u8g_dev_ssd1306_64x48.c ****         u8g_SetChipSelect(u8g, dev, 0);
 391              		.loc 1 166 0
 392 0102 F868     		ldr	r0, [r7, #12]
 393 0104 B968     		ldr	r1, [r7, #8]
 394 0106 0022     		movs	r2, #0
 395 0108 FFF7FEFF 		bl	u8g_SetChipSelect
 396              	.LBE3:
 167:.\u8glib_arm_v1.18.1\src/u8g_dev_ssd1306_64x48.c ****       }
 168:.\u8glib_arm_v1.18.1\src/u8g_dev_ssd1306_64x48.c ****       break;
 397              		.loc 1 168 0
 398 010c 0DE0     		b	.L14
 399              	.L18:
 169:.\u8glib_arm_v1.18.1\src/u8g_dev_ssd1306_64x48.c ****     case U8G_DEV_MSG_SLEEP_ON:
 170:.\u8glib_arm_v1.18.1\src/u8g_dev_ssd1306_64x48.c ****       u8g_WriteEscSeqP(u8g, dev, u8g_dev_ssd13xx_sleep_on);    
 400              		.loc 1 170 0
ARM GAS  C:\Users\Shiguruy\AppData\Local\Temp\ccXhuTPD.s 			page 11


 401 010e F868     		ldr	r0, [r7, #12]
 402 0110 B968     		ldr	r1, [r7, #8]
 403 0112 0E4A     		ldr	r2, .L22+8
 404 0114 FFF7FEFF 		bl	u8g_WriteEscSeqP
 171:.\u8glib_arm_v1.18.1\src/u8g_dev_ssd1306_64x48.c ****       return 1;
 405              		.loc 1 171 0
 406 0118 0123     		movs	r3, #1
 407 011a 0EE0     		b	.L21
 408              	.L19:
 172:.\u8glib_arm_v1.18.1\src/u8g_dev_ssd1306_64x48.c ****     case U8G_DEV_MSG_SLEEP_OFF:
 173:.\u8glib_arm_v1.18.1\src/u8g_dev_ssd1306_64x48.c ****       u8g_WriteEscSeqP(u8g, dev, u8g_dev_ssd13xx_sleep_off);    
 409              		.loc 1 173 0
 410 011c F868     		ldr	r0, [r7, #12]
 411 011e B968     		ldr	r1, [r7, #8]
 412 0120 0B4A     		ldr	r2, .L22+12
 413 0122 FFF7FEFF 		bl	u8g_WriteEscSeqP
 174:.\u8glib_arm_v1.18.1\src/u8g_dev_ssd1306_64x48.c ****       return 1;
 414              		.loc 1 174 0
 415 0126 0123     		movs	r3, #1
 416 0128 07E0     		b	.L21
 417              	.L14:
 175:.\u8glib_arm_v1.18.1\src/u8g_dev_ssd1306_64x48.c ****   }
 176:.\u8glib_arm_v1.18.1\src/u8g_dev_ssd1306_64x48.c ****   return u8g_dev_pb16v1_base_fn(u8g, dev, msg, arg);
 418              		.loc 1 176 0
 419 012a FB79     		ldrb	r3, [r7, #7]	@ zero_extendqisi2
 420 012c F868     		ldr	r0, [r7, #12]
 421 012e B968     		ldr	r1, [r7, #8]
 422 0130 1A46     		mov	r2, r3
 423 0132 3B68     		ldr	r3, [r7]
 424 0134 FFF7FEFF 		bl	u8g_dev_pb16v1_base_fn
 425 0138 0346     		mov	r3, r0
 426              	.L21:
 177:.\u8glib_arm_v1.18.1\src/u8g_dev_ssd1306_64x48.c **** }
 427              		.loc 1 177 0
 428 013a 1846     		mov	r0, r3
 429 013c 1C37     		adds	r7, r7, #28
 430              		.cfi_def_cfa_offset 12
 431 013e BD46     		mov	sp, r7
 432              		.cfi_def_cfa_register 13
 433              		@ sp needed
 434 0140 90BD     		pop	{r4, r7, pc}
 435              	.L23:
 436 0142 00BF     		.align	2
 437              	.L22:
 438 0144 00000000 		.word	u8g_dev_ssd1306_64x48_init_seq
 439 0148 24000000 		.word	u8g_dev_ssd1306_64x48_data_start
 440 014c 2C000000 		.word	u8g_dev_ssd13xx_sleep_on
 441 0150 38000000 		.word	u8g_dev_ssd13xx_sleep_off
 442              		.cfi_endproc
 443              	.LFE1:
 444              		.size	u8g_dev_ssd1306_64x48_2x_fn, .-u8g_dev_ssd1306_64x48_2x_fn
 445              		.global	u8g_dev_ssd1306_64x48_sw_spi_buf
 446              		.bss
 447              		.align	2
 448              		.type	u8g_dev_ssd1306_64x48_sw_spi_buf, %object
 449              		.size	u8g_dev_ssd1306_64x48_sw_spi_buf, 64
 450              	u8g_dev_ssd1306_64x48_sw_spi_buf:
ARM GAS  C:\Users\Shiguruy\AppData\Local\Temp\ccXhuTPD.s 			page 12


 451 0000 00000000 		.space	64
 451      00000000 
 451      00000000 
 451      00000000 
 451      00000000 
 452              		.global	u8g_dev_ssd1306_64x48_sw_spi_pb
 453              		.data
 454              		.align	2
 455              		.type	u8g_dev_ssd1306_64x48_sw_spi_pb, %object
 456              		.size	u8g_dev_ssd1306_64x48_sw_spi_pb, 12
 457              	u8g_dev_ssd1306_64x48_sw_spi_pb:
 458 0000 08       		.byte	8
 459 0001 30       		.byte	48
 460 0002 00       		.byte	0
 461 0003 00       		.byte	0
 462 0004 00       		.byte	0
 463 0005 40       		.byte	64
 464 0006 0000     		.space	2
 465 0008 00000000 		.word	u8g_dev_ssd1306_64x48_sw_spi_buf
 466              		.global	u8g_dev_ssd1306_64x48_sw_spi
 467              		.align	2
 468              		.type	u8g_dev_ssd1306_64x48_sw_spi, %object
 469              		.size	u8g_dev_ssd1306_64x48_sw_spi, 12
 470              	u8g_dev_ssd1306_64x48_sw_spi:
 471 000c 00000000 		.word	u8g_dev_ssd1306_64x48_fn
 472 0010 00000000 		.word	u8g_dev_ssd1306_64x48_sw_spi_pb
 473 0014 00000000 		.word	u8g_com_null_fn
 474              		.global	u8g_dev_ssd1306_64x48_hw_spi_buf
 475              		.bss
 476              		.align	2
 477              		.type	u8g_dev_ssd1306_64x48_hw_spi_buf, %object
 478              		.size	u8g_dev_ssd1306_64x48_hw_spi_buf, 64
 479              	u8g_dev_ssd1306_64x48_hw_spi_buf:
 480 0040 00000000 		.space	64
 480      00000000 
 480      00000000 
 480      00000000 
 480      00000000 
 481              		.global	u8g_dev_ssd1306_64x48_hw_spi_pb
 482              		.data
 483              		.align	2
 484              		.type	u8g_dev_ssd1306_64x48_hw_spi_pb, %object
 485              		.size	u8g_dev_ssd1306_64x48_hw_spi_pb, 12
 486              	u8g_dev_ssd1306_64x48_hw_spi_pb:
 487 0018 08       		.byte	8
 488 0019 30       		.byte	48
 489 001a 00       		.byte	0
 490 001b 00       		.byte	0
 491 001c 00       		.byte	0
 492 001d 40       		.byte	64
 493 001e 0000     		.space	2
 494 0020 00000000 		.word	u8g_dev_ssd1306_64x48_hw_spi_buf
 495              		.global	u8g_dev_ssd1306_64x48_hw_spi
 496              		.align	2
 497              		.type	u8g_dev_ssd1306_64x48_hw_spi, %object
 498              		.size	u8g_dev_ssd1306_64x48_hw_spi, 12
 499              	u8g_dev_ssd1306_64x48_hw_spi:
ARM GAS  C:\Users\Shiguruy\AppData\Local\Temp\ccXhuTPD.s 			page 13


 500 0024 00000000 		.word	u8g_dev_ssd1306_64x48_fn
 501 0028 00000000 		.word	u8g_dev_ssd1306_64x48_hw_spi_pb
 502 002c 00000000 		.word	u8g_com_null_fn
 503              		.global	u8g_dev_ssd1306_64x48_i2c_buf
 504              		.bss
 505              		.align	2
 506              		.type	u8g_dev_ssd1306_64x48_i2c_buf, %object
 507              		.size	u8g_dev_ssd1306_64x48_i2c_buf, 64
 508              	u8g_dev_ssd1306_64x48_i2c_buf:
 509 0080 00000000 		.space	64
 509      00000000 
 509      00000000 
 509      00000000 
 509      00000000 
 510              		.global	u8g_dev_ssd1306_64x48_i2c_pb
 511              		.data
 512              		.align	2
 513              		.type	u8g_dev_ssd1306_64x48_i2c_pb, %object
 514              		.size	u8g_dev_ssd1306_64x48_i2c_pb, 12
 515              	u8g_dev_ssd1306_64x48_i2c_pb:
 516 0030 08       		.byte	8
 517 0031 30       		.byte	48
 518 0032 00       		.byte	0
 519 0033 00       		.byte	0
 520 0034 00       		.byte	0
 521 0035 40       		.byte	64
 522 0036 0000     		.space	2
 523 0038 00000000 		.word	u8g_dev_ssd1306_64x48_i2c_buf
 524              		.global	u8g_dev_ssd1306_64x48_i2c
 525              		.align	2
 526              		.type	u8g_dev_ssd1306_64x48_i2c, %object
 527              		.size	u8g_dev_ssd1306_64x48_i2c, 12
 528              	u8g_dev_ssd1306_64x48_i2c:
 529 003c 00000000 		.word	u8g_dev_ssd1306_64x48_fn
 530 0040 00000000 		.word	u8g_dev_ssd1306_64x48_i2c_pb
 531 0044 00000000 		.word	u8g_com_null_fn
 532              		.global	u8g_dev_ssd1306_64x48_2x_buf
 533              		.bss
 534              		.align	2
 535              		.type	u8g_dev_ssd1306_64x48_2x_buf, %object
 536              		.size	u8g_dev_ssd1306_64x48_2x_buf, 128
 537              	u8g_dev_ssd1306_64x48_2x_buf:
 538 00c0 00000000 		.space	128
 538      00000000 
 538      00000000 
 538      00000000 
 538      00000000 
 539              		.global	u8g_dev_ssd1306_64x48_2x_pb
 540              		.data
 541              		.align	2
 542              		.type	u8g_dev_ssd1306_64x48_2x_pb, %object
 543              		.size	u8g_dev_ssd1306_64x48_2x_pb, 12
 544              	u8g_dev_ssd1306_64x48_2x_pb:
 545 0048 10       		.byte	16
 546 0049 30       		.byte	48
 547 004a 00       		.byte	0
 548 004b 00       		.byte	0
ARM GAS  C:\Users\Shiguruy\AppData\Local\Temp\ccXhuTPD.s 			page 14


 549 004c 00       		.byte	0
 550 004d 40       		.byte	64
 551 004e 0000     		.space	2
 552 0050 00000000 		.word	u8g_dev_ssd1306_64x48_2x_buf
 553              		.global	u8g_dev_ssd1306_64x48_2x_sw_spi
 554              		.align	2
 555              		.type	u8g_dev_ssd1306_64x48_2x_sw_spi, %object
 556              		.size	u8g_dev_ssd1306_64x48_2x_sw_spi, 12
 557              	u8g_dev_ssd1306_64x48_2x_sw_spi:
 558 0054 00000000 		.word	u8g_dev_ssd1306_64x48_2x_fn
 559 0058 00000000 		.word	u8g_dev_ssd1306_64x48_2x_pb
 560 005c 00000000 		.word	u8g_com_null_fn
 561              		.global	u8g_dev_ssd1306_64x48_2x_hw_spi
 562              		.align	2
 563              		.type	u8g_dev_ssd1306_64x48_2x_hw_spi, %object
 564              		.size	u8g_dev_ssd1306_64x48_2x_hw_spi, 12
 565              	u8g_dev_ssd1306_64x48_2x_hw_spi:
 566 0060 00000000 		.word	u8g_dev_ssd1306_64x48_2x_fn
 567 0064 00000000 		.word	u8g_dev_ssd1306_64x48_2x_pb
 568 0068 00000000 		.word	u8g_com_null_fn
 569              		.global	u8g_dev_ssd1306_64x48_2x_i2c
 570              		.align	2
 571              		.type	u8g_dev_ssd1306_64x48_2x_i2c, %object
 572              		.size	u8g_dev_ssd1306_64x48_2x_i2c, 12
 573              	u8g_dev_ssd1306_64x48_2x_i2c:
 574 006c 00000000 		.word	u8g_dev_ssd1306_64x48_2x_fn
 575 0070 00000000 		.word	u8g_dev_ssd1306_64x48_2x_pb
 576 0074 00000000 		.word	u8g_com_null_fn
 577              		.text
 578              	.Letext0:
 579              		.file 2 "c:\\program files (x86)\\cypress\\psoc creator\\3.3\\psoc creator\\import\\gnu\\arm\\4.9.
 580              		.file 3 "c:\\program files (x86)\\cypress\\psoc creator\\3.3\\psoc creator\\import\\gnu\\arm\\4.9.
 581              		.file 4 ".\\u8glib_arm_v1.18.1\\src\\u8g.h"