ARM GAS  C:\Users\Shiguruy\AppData\Local\Temp\ccFU1zGd.s 			page 1


   1              		.syntax unified
   2              		.cpu cortex-m3
   3              		.fpu softvfp
   4              		.eabi_attribute 20, 1
   5              		.eabi_attribute 21, 1
   6              		.eabi_attribute 23, 3
   7              		.eabi_attribute 24, 1
   8              		.eabi_attribute 25, 1
   9              		.eabi_attribute 26, 1
  10              		.eabi_attribute 30, 6
  11              		.eabi_attribute 34, 1
  12              		.eabi_attribute 18, 4
  13              		.thumb
  14              		.file	"u8g_dev_pcf8812_96x65.c"
  15              		.text
  16              	.Ltext0:
  17              		.cfi_sections	.debug_frame
  18              		.section	.rodata
  19              		.align	2
  20              		.type	u8g_dev_pcf8812_init_seq, %object
  21              		.size	u8g_dev_pcf8812_init_seq, 30
  22              	u8g_dev_pcf8812_init_seq:
  23 0000 FF       		.byte	-1
  24 0001 D0       		.byte	-48
  25 0002 FF       		.byte	-1
  26 0003 E0       		.byte	-32
  27 0004 FF       		.byte	-1
  28 0005 C1       		.byte	-63
  29 0006 FF       		.byte	-1
  30 0007 D1       		.byte	-47
  31 0008 21       		.byte	33
  32 0009 06       		.byte	6
  33 000a 13       		.byte	19
  34 000b C0       		.byte	-64
  35 000c 20       		.byte	32
  36 000d 0C       		.byte	12
  37 000e FF       		.byte	-1
  38 000f 64       		.byte	100
  39 0010 20       		.byte	32
  40 0011 0D       		.byte	13
  41 0012 FF       		.byte	-1
  42 0013 64       		.byte	100
  43 0014 FF       		.byte	-1
  44 0015 64       		.byte	100
  45 0016 20       		.byte	32
  46 0017 0C       		.byte	12
  47 0018 FF       		.byte	-1
  48 0019 64       		.byte	100
  49 001a FF       		.byte	-1
  50 001b D0       		.byte	-48
  51 001c FF       		.byte	-1
  52 001d FE       		.byte	-2
  53 001e 0000     		.section	.text.u8g_dev_pcf8812_fn,"ax",%progbits
  54              		.align	2
  55              		.global	u8g_dev_pcf8812_fn
  56              		.thumb
  57              		.thumb_func
ARM GAS  C:\Users\Shiguruy\AppData\Local\Temp\ccFU1zGd.s 			page 2


  58              		.type	u8g_dev_pcf8812_fn, %function
  59              	u8g_dev_pcf8812_fn:
  60              	.LFB0:
  61              		.file 1 ".\\u8glib_arm_v1.18.1\\src\\u8g_dev_pcf8812_96x65.c"
   1:.\u8glib_arm_v1.18.1\src/u8g_dev_pcf8812_96x65.c **** /*
   2:.\u8glib_arm_v1.18.1\src/u8g_dev_pcf8812_96x65.c **** 
   3:.\u8glib_arm_v1.18.1\src/u8g_dev_pcf8812_96x65.c ****   u8g_dev_pcf8812_96x65.c
   4:.\u8glib_arm_v1.18.1\src/u8g_dev_pcf8812_96x65.c ****   
   5:.\u8glib_arm_v1.18.1\src/u8g_dev_pcf8812_96x65.c ****   Display: Nokia 96x65
   6:.\u8glib_arm_v1.18.1\src/u8g_dev_pcf8812_96x65.c **** 
   7:.\u8glib_arm_v1.18.1\src/u8g_dev_pcf8812_96x65.c ****   Universal 8bit Graphics Library
   8:.\u8glib_arm_v1.18.1\src/u8g_dev_pcf8812_96x65.c ****   
   9:.\u8glib_arm_v1.18.1\src/u8g_dev_pcf8812_96x65.c ****   Copyright (c) 2011, olikraus@gmail.com
  10:.\u8glib_arm_v1.18.1\src/u8g_dev_pcf8812_96x65.c ****   All rights reserved.
  11:.\u8glib_arm_v1.18.1\src/u8g_dev_pcf8812_96x65.c **** 
  12:.\u8glib_arm_v1.18.1\src/u8g_dev_pcf8812_96x65.c ****   Redistribution and use in source and binary forms, with or without modification, 
  13:.\u8glib_arm_v1.18.1\src/u8g_dev_pcf8812_96x65.c ****   are permitted provided that the following conditions are met:
  14:.\u8glib_arm_v1.18.1\src/u8g_dev_pcf8812_96x65.c **** 
  15:.\u8glib_arm_v1.18.1\src/u8g_dev_pcf8812_96x65.c ****   * Redistributions of source code must retain the above copyright notice, this list 
  16:.\u8glib_arm_v1.18.1\src/u8g_dev_pcf8812_96x65.c ****     of conditions and the following disclaimer.
  17:.\u8glib_arm_v1.18.1\src/u8g_dev_pcf8812_96x65.c ****     
  18:.\u8glib_arm_v1.18.1\src/u8g_dev_pcf8812_96x65.c ****   * Redistributions in binary form must reproduce the above copyright notice, this 
  19:.\u8glib_arm_v1.18.1\src/u8g_dev_pcf8812_96x65.c ****     list of conditions and the following disclaimer in the documentation and/or other 
  20:.\u8glib_arm_v1.18.1\src/u8g_dev_pcf8812_96x65.c ****     materials provided with the distribution.
  21:.\u8glib_arm_v1.18.1\src/u8g_dev_pcf8812_96x65.c **** 
  22:.\u8glib_arm_v1.18.1\src/u8g_dev_pcf8812_96x65.c ****   THIS SOFTWARE IS PROVIDED BY THE COPYRIGHT HOLDERS AND 
  23:.\u8glib_arm_v1.18.1\src/u8g_dev_pcf8812_96x65.c ****   CONTRIBUTORS "AS IS" AND ANY EXPRESS OR IMPLIED WARRANTIES, 
  24:.\u8glib_arm_v1.18.1\src/u8g_dev_pcf8812_96x65.c ****   INCLUDING, BUT NOT LIMITED TO, THE IMPLIED WARRANTIES OF 
  25:.\u8glib_arm_v1.18.1\src/u8g_dev_pcf8812_96x65.c ****   MERCHANTABILITY AND FITNESS FOR A PARTICULAR PURPOSE ARE 
  26:.\u8glib_arm_v1.18.1\src/u8g_dev_pcf8812_96x65.c ****   DISCLAIMED. IN NO EVENT SHALL THE COPYRIGHT HOLDER OR 
  27:.\u8glib_arm_v1.18.1\src/u8g_dev_pcf8812_96x65.c ****   CONTRIBUTORS BE LIABLE FOR ANY DIRECT, INDIRECT, INCIDENTAL, 
  28:.\u8glib_arm_v1.18.1\src/u8g_dev_pcf8812_96x65.c ****   SPECIAL, EXEMPLARY, OR CONSEQUENTIAL DAMAGES (INCLUDING, BUT 
  29:.\u8glib_arm_v1.18.1\src/u8g_dev_pcf8812_96x65.c ****   NOT LIMITED TO, PROCUREMENT OF SUBSTITUTE GOODS OR SERVICES; 
  30:.\u8glib_arm_v1.18.1\src/u8g_dev_pcf8812_96x65.c ****   LOSS OF USE, DATA, OR PROFITS; OR BUSINESS INTERRUPTION) HOWEVER 
  31:.\u8glib_arm_v1.18.1\src/u8g_dev_pcf8812_96x65.c ****   CAUSED AND ON ANY THEORY OF LIABILITY, WHETHER IN CONTRACT, 
  32:.\u8glib_arm_v1.18.1\src/u8g_dev_pcf8812_96x65.c ****   STRICT LIABILITY, OR TORT (INCLUDING NEGLIGENCE OR OTHERWISE) 
  33:.\u8glib_arm_v1.18.1\src/u8g_dev_pcf8812_96x65.c ****   ARISING IN ANY WAY OUT OF THE USE OF THIS SOFTWARE, EVEN IF 
  34:.\u8glib_arm_v1.18.1\src/u8g_dev_pcf8812_96x65.c ****   ADVISED OF THE POSSIBILITY OF SUCH DAMAGE.  
  35:.\u8glib_arm_v1.18.1\src/u8g_dev_pcf8812_96x65.c ****   
  36:.\u8glib_arm_v1.18.1\src/u8g_dev_pcf8812_96x65.c **** 
  37:.\u8glib_arm_v1.18.1\src/u8g_dev_pcf8812_96x65.c ****   
  38:.\u8glib_arm_v1.18.1\src/u8g_dev_pcf8812_96x65.c ****   om6206        comaptible to pcf8812 ?
  39:.\u8glib_arm_v1.18.1\src/u8g_dev_pcf8812_96x65.c ****   
  40:.\u8glib_arm_v1.18.1\src/u8g_dev_pcf8812_96x65.c ****   Status: Tested 
  41:.\u8glib_arm_v1.18.1\src/u8g_dev_pcf8812_96x65.c **** 
  42:.\u8glib_arm_v1.18.1\src/u8g_dev_pcf8812_96x65.c **** 
  43:.\u8glib_arm_v1.18.1\src/u8g_dev_pcf8812_96x65.c ****   Display                                               Controller              Seen in
  44:.\u8glib_arm_v1.18.1\src/u8g_dev_pcf8812_96x65.c ****   LPH7366 (9 pins, 84x48)                       PCD8544                Nokia 5110 / 5120 / 5130 / 5
  45:.\u8glib_arm_v1.18.1\src/u8g_dev_pcf8812_96x65.c ****   LPH7677 (8 pins, 84x48)                       PCD8544                         Nokia 3210
  46:.\u8glib_arm_v1.18.1\src/u8g_dev_pcf8812_96x65.c ****   LPH7779 (8 pins, 84x48)                       PCD8544                         Nokia 3310 / 3315 /
  47:.\u8glib_arm_v1.18.1\src/u8g_dev_pcf8812_96x65.c ****   ???                                                          PCD8544                          Nok
  48:.\u8glib_arm_v1.18.1\src/u8g_dev_pcf8812_96x65.c ****   LPH7690 ?  (96x65)                                 PCF8455/OM6202          Nokia 3410
  49:.\u8glib_arm_v1.18.1\src/u8g_dev_pcf8812_96x65.c ****   LPH7690 ? (96x65?)                               SED1565/S1D15605        Nokia 7110 / 3510?
  50:.\u8glib_arm_v1.18.1\src/u8g_dev_pcf8812_96x65.c ****   LPH7690                                                     ???                                  
  51:.\u8glib_arm_v1.18.1\src/u8g_dev_pcf8812_96x65.c **** 
  52:.\u8glib_arm_v1.18.1\src/u8g_dev_pcf8812_96x65.c **** 
  53:.\u8glib_arm_v1.18.1\src/u8g_dev_pcf8812_96x65.c ****   
ARM GAS  C:\Users\Shiguruy\AppData\Local\Temp\ccFU1zGd.s 			page 3


  54:.\u8glib_arm_v1.18.1\src/u8g_dev_pcf8812_96x65.c **** */
  55:.\u8glib_arm_v1.18.1\src/u8g_dev_pcf8812_96x65.c **** 
  56:.\u8glib_arm_v1.18.1\src/u8g_dev_pcf8812_96x65.c **** #include "u8g.h"
  57:.\u8glib_arm_v1.18.1\src/u8g_dev_pcf8812_96x65.c **** 
  58:.\u8glib_arm_v1.18.1\src/u8g_dev_pcf8812_96x65.c **** #define WIDTH 96
  59:.\u8glib_arm_v1.18.1\src/u8g_dev_pcf8812_96x65.c **** #define HEIGHT 65
  60:.\u8glib_arm_v1.18.1\src/u8g_dev_pcf8812_96x65.c **** #define PAGE_HEIGHT 8
  61:.\u8glib_arm_v1.18.1\src/u8g_dev_pcf8812_96x65.c **** 
  62:.\u8glib_arm_v1.18.1\src/u8g_dev_pcf8812_96x65.c **** 
  63:.\u8glib_arm_v1.18.1\src/u8g_dev_pcf8812_96x65.c **** static const uint8_t u8g_dev_pcf8812_init_seq[] PROGMEM = {
  64:.\u8glib_arm_v1.18.1\src/u8g_dev_pcf8812_96x65.c ****   U8G_ESC_CS(0),             /* disable chip */
  65:.\u8glib_arm_v1.18.1\src/u8g_dev_pcf8812_96x65.c ****   U8G_ESC_ADR(0),           /* instruction mode */
  66:.\u8glib_arm_v1.18.1\src/u8g_dev_pcf8812_96x65.c ****   U8G_ESC_RST(1),           /* do reset low pulse with (1*16)+2 milliseconds */
  67:.\u8glib_arm_v1.18.1\src/u8g_dev_pcf8812_96x65.c ****   U8G_ESC_CS(1),             /* enable chip */
  68:.\u8glib_arm_v1.18.1\src/u8g_dev_pcf8812_96x65.c ****   0x021,		                /* activate chip (PD=0), horizontal increment (V=0), enter extended comma
  69:.\u8glib_arm_v1.18.1\src/u8g_dev_pcf8812_96x65.c ****   0x006,		                /* temp. control: b10 = 2 */
  70:.\u8glib_arm_v1.18.1\src/u8g_dev_pcf8812_96x65.c ****   0x013,		                /* bias system 1:48 */
  71:.\u8glib_arm_v1.18.1\src/u8g_dev_pcf8812_96x65.c ****   0x080 | 0x040,		/* medium Vop */
  72:.\u8glib_arm_v1.18.1\src/u8g_dev_pcf8812_96x65.c ****   0x020,		                /* activate chip (PD=0), horizontal increment (V=0), enter normal command
  73:.\u8glib_arm_v1.18.1\src/u8g_dev_pcf8812_96x65.c ****   0x00c,		                /* display on, normal operation */
  74:.\u8glib_arm_v1.18.1\src/u8g_dev_pcf8812_96x65.c ****   U8G_ESC_DLY(100),       /* delay 100 ms */
  75:.\u8glib_arm_v1.18.1\src/u8g_dev_pcf8812_96x65.c ****   0x020,		                /* activate chip (PD=0), horizontal increment (V=0), enter normal command
  76:.\u8glib_arm_v1.18.1\src/u8g_dev_pcf8812_96x65.c ****   0x00d,		                /* display on, invert */
  77:.\u8glib_arm_v1.18.1\src/u8g_dev_pcf8812_96x65.c ****   U8G_ESC_DLY(100),       /* delay 100 ms */
  78:.\u8glib_arm_v1.18.1\src/u8g_dev_pcf8812_96x65.c ****   U8G_ESC_DLY(100),       /* delay 100 ms */
  79:.\u8glib_arm_v1.18.1\src/u8g_dev_pcf8812_96x65.c ****   0x020,		                /* activate chip (PD=0), horizontal increment (V=0), enter normal command
  80:.\u8glib_arm_v1.18.1\src/u8g_dev_pcf8812_96x65.c ****   0x00c,		                /* display on, normal */
  81:.\u8glib_arm_v1.18.1\src/u8g_dev_pcf8812_96x65.c ****   U8G_ESC_DLY(100),       /* delay 100 ms */
  82:.\u8glib_arm_v1.18.1\src/u8g_dev_pcf8812_96x65.c ****   U8G_ESC_CS(0),             /* disable chip */
  83:.\u8glib_arm_v1.18.1\src/u8g_dev_pcf8812_96x65.c ****   U8G_ESC_END                /* end of sequence */
  84:.\u8glib_arm_v1.18.1\src/u8g_dev_pcf8812_96x65.c **** };
  85:.\u8glib_arm_v1.18.1\src/u8g_dev_pcf8812_96x65.c **** 
  86:.\u8glib_arm_v1.18.1\src/u8g_dev_pcf8812_96x65.c **** uint8_t u8g_dev_pcf8812_fn(u8g_t *u8g, u8g_dev_t *dev, uint8_t msg, void *arg)
  87:.\u8glib_arm_v1.18.1\src/u8g_dev_pcf8812_96x65.c **** {
  62              		.loc 1 87 0
  63              		.cfi_startproc
  64              		@ args = 0, pretend = 0, frame = 24
  65              		@ frame_needed = 1, uses_anonymous_args = 0
  66 0000 80B5     		push	{r7, lr}
  67              		.cfi_def_cfa_offset 8
  68              		.cfi_offset 7, -8
  69              		.cfi_offset 14, -4
  70 0002 86B0     		sub	sp, sp, #24
  71              		.cfi_def_cfa_offset 32
  72 0004 00AF     		add	r7, sp, #0
  73              		.cfi_def_cfa_register 7
  74 0006 F860     		str	r0, [r7, #12]
  75 0008 B960     		str	r1, [r7, #8]
  76 000a 3B60     		str	r3, [r7]
  77 000c 1346     		mov	r3, r2
  78 000e FB71     		strb	r3, [r7, #7]
  88:.\u8glib_arm_v1.18.1\src/u8g_dev_pcf8812_96x65.c ****   switch(msg)
  79              		.loc 1 88 0
  80 0010 FB79     		ldrb	r3, [r7, #7]	@ zero_extendqisi2
  81 0012 0A3B     		subs	r3, r3, #10
  82 0014 0B2B     		cmp	r3, #11
  83 0016 7ED8     		bhi	.L2
ARM GAS  C:\Users\Shiguruy\AppData\Local\Temp\ccFU1zGd.s 			page 4


  84 0018 01A2     		adr	r2, .L4
  85 001a 52F823F0 		ldr	pc, [r2, r3, lsl #2]
  86 001e 00BF     		.p2align 2
  87              	.L4:
  88 0020 51000000 		.word	.L3+1
  89 0024 17010000 		.word	.L2+1
  90 0028 17010000 		.word	.L2+1
  91 002c 17010000 		.word	.L2+1
  92 0030 17010000 		.word	.L2+1
  93 0034 D3000000 		.word	.L6+1
  94 0038 17010000 		.word	.L2+1
  95 003c 17010000 		.word	.L2+1
  96 0040 17010000 		.word	.L2+1
  97 0044 17010000 		.word	.L2+1
  98 0048 17010000 		.word	.L2+1
  99 004c 67000000 		.word	.L7+1
 100              		.p2align 1
 101              	.L3:
  89:.\u8glib_arm_v1.18.1\src/u8g_dev_pcf8812_96x65.c ****   {
  90:.\u8glib_arm_v1.18.1\src/u8g_dev_pcf8812_96x65.c ****     case U8G_DEV_MSG_INIT:
  91:.\u8glib_arm_v1.18.1\src/u8g_dev_pcf8812_96x65.c ****       u8g_InitCom(u8g, dev, U8G_SPI_CLK_CYCLE_400NS);
 102              		.loc 1 91 0
 103 0050 F868     		ldr	r0, [r7, #12]
 104 0052 B968     		ldr	r1, [r7, #8]
 105 0054 0322     		movs	r2, #3
 106 0056 FFF7FEFF 		bl	u8g_InitCom
  92:.\u8glib_arm_v1.18.1\src/u8g_dev_pcf8812_96x65.c ****       u8g_WriteEscSeqP(u8g, dev, u8g_dev_pcf8812_init_seq);
 107              		.loc 1 92 0
 108 005a F868     		ldr	r0, [r7, #12]
 109 005c B968     		ldr	r1, [r7, #8]
 110 005e 344A     		ldr	r2, .L10
 111 0060 FFF7FEFF 		bl	u8g_WriteEscSeqP
  93:.\u8glib_arm_v1.18.1\src/u8g_dev_pcf8812_96x65.c ****       break;
 112              		.loc 1 93 0
 113 0064 57E0     		b	.L2
 114              	.L7:
 115              	.LBB2:
  94:.\u8glib_arm_v1.18.1\src/u8g_dev_pcf8812_96x65.c ****     case U8G_DEV_MSG_STOP:
  95:.\u8glib_arm_v1.18.1\src/u8g_dev_pcf8812_96x65.c ****       break;
  96:.\u8glib_arm_v1.18.1\src/u8g_dev_pcf8812_96x65.c ****     case U8G_DEV_MSG_PAGE_NEXT:
  97:.\u8glib_arm_v1.18.1\src/u8g_dev_pcf8812_96x65.c ****       {
  98:.\u8glib_arm_v1.18.1\src/u8g_dev_pcf8812_96x65.c ****         u8g_pb_t *pb = (u8g_pb_t *)(dev->dev_mem);
 116              		.loc 1 98 0
 117 0066 BB68     		ldr	r3, [r7, #8]
 118 0068 5B68     		ldr	r3, [r3, #4]
 119 006a 7B61     		str	r3, [r7, #20]
  99:.\u8glib_arm_v1.18.1\src/u8g_dev_pcf8812_96x65.c ****         u8g_SetAddress(u8g, dev, 0);           /* command mode */
 120              		.loc 1 99 0
 121 006c F868     		ldr	r0, [r7, #12]
 122 006e B968     		ldr	r1, [r7, #8]
 123 0070 0022     		movs	r2, #0
 124 0072 FFF7FEFF 		bl	u8g_SetAddress
 100:.\u8glib_arm_v1.18.1\src/u8g_dev_pcf8812_96x65.c ****         u8g_SetChipSelect(u8g, dev, 1);
 125              		.loc 1 100 0
 126 0076 F868     		ldr	r0, [r7, #12]
 127 0078 B968     		ldr	r1, [r7, #8]
 128 007a 0122     		movs	r2, #1
ARM GAS  C:\Users\Shiguruy\AppData\Local\Temp\ccFU1zGd.s 			page 5


 129 007c FFF7FEFF 		bl	u8g_SetChipSelect
 101:.\u8glib_arm_v1.18.1\src/u8g_dev_pcf8812_96x65.c ****         u8g_WriteByte(u8g, dev, 0x020 );		/* activate chip (PD=0), horizontal increment (V=0), ente
 130              		.loc 1 101 0
 131 0080 F868     		ldr	r0, [r7, #12]
 132 0082 B968     		ldr	r1, [r7, #8]
 133 0084 2022     		movs	r2, #32
 134 0086 FFF7FEFF 		bl	u8g_WriteByte
 102:.\u8glib_arm_v1.18.1\src/u8g_dev_pcf8812_96x65.c ****         u8g_WriteByte(u8g, dev, 0x080 );                        /* set X address */
 135              		.loc 1 102 0
 136 008a F868     		ldr	r0, [r7, #12]
 137 008c B968     		ldr	r1, [r7, #8]
 138 008e 8022     		movs	r2, #128
 139 0090 FFF7FEFF 		bl	u8g_WriteByte
 103:.\u8glib_arm_v1.18.1\src/u8g_dev_pcf8812_96x65.c ****         u8g_WriteByte(u8g, dev, 0x040 | pb->p.page); /* set Y address */
 140              		.loc 1 103 0
 141 0094 7B69     		ldr	r3, [r7, #20]
 142 0096 1B79     		ldrb	r3, [r3, #4]	@ zero_extendqisi2
 143 0098 43F04003 		orr	r3, r3, #64
 144 009c DBB2     		uxtb	r3, r3
 145 009e F868     		ldr	r0, [r7, #12]
 146 00a0 B968     		ldr	r1, [r7, #8]
 147 00a2 1A46     		mov	r2, r3
 148 00a4 FFF7FEFF 		bl	u8g_WriteByte
 104:.\u8glib_arm_v1.18.1\src/u8g_dev_pcf8812_96x65.c ****         u8g_SetAddress(u8g, dev, 1);           /* data mode */
 149              		.loc 1 104 0
 150 00a8 F868     		ldr	r0, [r7, #12]
 151 00aa B968     		ldr	r1, [r7, #8]
 152 00ac 0122     		movs	r2, #1
 153 00ae FFF7FEFF 		bl	u8g_SetAddress
 105:.\u8glib_arm_v1.18.1\src/u8g_dev_pcf8812_96x65.c ****         if ( u8g_pb_WriteBuffer(pb, u8g, dev) == 0 )
 154              		.loc 1 105 0
 155 00b2 7869     		ldr	r0, [r7, #20]
 156 00b4 F968     		ldr	r1, [r7, #12]
 157 00b6 BA68     		ldr	r2, [r7, #8]
 158 00b8 FFF7FEFF 		bl	u8g_pb_WriteBuffer
 159 00bc 0346     		mov	r3, r0
 160 00be 002B     		cmp	r3, #0
 161 00c0 01D1     		bne	.L8
 106:.\u8glib_arm_v1.18.1\src/u8g_dev_pcf8812_96x65.c ****           return 0;
 162              		.loc 1 106 0
 163 00c2 0023     		movs	r3, #0
 164 00c4 2FE0     		b	.L9
 165              	.L8:
 107:.\u8glib_arm_v1.18.1\src/u8g_dev_pcf8812_96x65.c **** 
 108:.\u8glib_arm_v1.18.1\src/u8g_dev_pcf8812_96x65.c **** 	  /*  mirrored output, not tested*/
 109:.\u8glib_arm_v1.18.1\src/u8g_dev_pcf8812_96x65.c **** 	/*
 110:.\u8glib_arm_v1.18.1\src/u8g_dev_pcf8812_96x65.c **** 	{
 111:.\u8glib_arm_v1.18.1\src/u8g_dev_pcf8812_96x65.c **** 	  uint8_t i = pb->width;
 112:.\u8glib_arm_v1.18.1\src/u8g_dev_pcf8812_96x65.c **** 	  while( i > 0 )
 113:.\u8glib_arm_v1.18.1\src/u8g_dev_pcf8812_96x65.c **** 	  {
 114:.\u8glib_arm_v1.18.1\src/u8g_dev_pcf8812_96x65.c **** 	    i--;
 115:.\u8glib_arm_v1.18.1\src/u8g_dev_pcf8812_96x65.c **** 	    u8g_WriteByte(u8g, dev, ((unsigned char *)pb->buf)[i] );
 116:.\u8glib_arm_v1.18.1\src/u8g_dev_pcf8812_96x65.c **** 	  }
 117:.\u8glib_arm_v1.18.1\src/u8g_dev_pcf8812_96x65.c **** 	}
 118:.\u8glib_arm_v1.18.1\src/u8g_dev_pcf8812_96x65.c **** 	*/
 119:.\u8glib_arm_v1.18.1\src/u8g_dev_pcf8812_96x65.c **** 	
 120:.\u8glib_arm_v1.18.1\src/u8g_dev_pcf8812_96x65.c **** 	
ARM GAS  C:\Users\Shiguruy\AppData\Local\Temp\ccFU1zGd.s 			page 6


 121:.\u8glib_arm_v1.18.1\src/u8g_dev_pcf8812_96x65.c ****         u8g_SetChipSelect(u8g, dev, 0);
 166              		.loc 1 121 0
 167 00c6 F868     		ldr	r0, [r7, #12]
 168 00c8 B968     		ldr	r1, [r7, #8]
 169 00ca 0022     		movs	r2, #0
 170 00cc FFF7FEFF 		bl	u8g_SetChipSelect
 171              	.LBE2:
 122:.\u8glib_arm_v1.18.1\src/u8g_dev_pcf8812_96x65.c ****       }
 123:.\u8glib_arm_v1.18.1\src/u8g_dev_pcf8812_96x65.c ****       break;
 172              		.loc 1 123 0
 173 00d0 21E0     		b	.L2
 174              	.L6:
 124:.\u8glib_arm_v1.18.1\src/u8g_dev_pcf8812_96x65.c ****     case U8G_DEV_MSG_CONTRAST:
 125:.\u8glib_arm_v1.18.1\src/u8g_dev_pcf8812_96x65.c ****       /* the contrast adjustment does not work, needs to be analysed */
 126:.\u8glib_arm_v1.18.1\src/u8g_dev_pcf8812_96x65.c ****       u8g_SetAddress(u8g, dev, 0);          /* instruction mode */
 175              		.loc 1 126 0
 176 00d2 F868     		ldr	r0, [r7, #12]
 177 00d4 B968     		ldr	r1, [r7, #8]
 178 00d6 0022     		movs	r2, #0
 179 00d8 FFF7FEFF 		bl	u8g_SetAddress
 127:.\u8glib_arm_v1.18.1\src/u8g_dev_pcf8812_96x65.c ****       u8g_SetChipSelect(u8g, dev, 1);
 180              		.loc 1 127 0
 181 00dc F868     		ldr	r0, [r7, #12]
 182 00de B968     		ldr	r1, [r7, #8]
 183 00e0 0122     		movs	r2, #1
 184 00e2 FFF7FEFF 		bl	u8g_SetChipSelect
 128:.\u8glib_arm_v1.18.1\src/u8g_dev_pcf8812_96x65.c ****       u8g_WriteByte(u8g, dev, 0x021);        /* command mode, extended function set */
 185              		.loc 1 128 0
 186 00e6 F868     		ldr	r0, [r7, #12]
 187 00e8 B968     		ldr	r1, [r7, #8]
 188 00ea 2122     		movs	r2, #33
 189 00ec FFF7FEFF 		bl	u8g_WriteByte
 129:.\u8glib_arm_v1.18.1\src/u8g_dev_pcf8812_96x65.c ****       u8g_WriteByte(u8g, dev, 0x080 | ( (*(uint8_t *)arg) >> 1 ) );
 190              		.loc 1 129 0
 191 00f0 3B68     		ldr	r3, [r7]
 192 00f2 1B78     		ldrb	r3, [r3]	@ zero_extendqisi2
 193 00f4 5B08     		lsrs	r3, r3, #1
 194 00f6 DBB2     		uxtb	r3, r3
 195 00f8 63F07F03 		orn	r3, r3, #127
 196 00fc DBB2     		uxtb	r3, r3
 197 00fe F868     		ldr	r0, [r7, #12]
 198 0100 B968     		ldr	r1, [r7, #8]
 199 0102 1A46     		mov	r2, r3
 200 0104 FFF7FEFF 		bl	u8g_WriteByte
 130:.\u8glib_arm_v1.18.1\src/u8g_dev_pcf8812_96x65.c ****       u8g_SetChipSelect(u8g, dev, 0);
 201              		.loc 1 130 0
 202 0108 F868     		ldr	r0, [r7, #12]
 203 010a B968     		ldr	r1, [r7, #8]
 204 010c 0022     		movs	r2, #0
 205 010e FFF7FEFF 		bl	u8g_SetChipSelect
 131:.\u8glib_arm_v1.18.1\src/u8g_dev_pcf8812_96x65.c ****       return 1;
 206              		.loc 1 131 0
 207 0112 0123     		movs	r3, #1
 208 0114 07E0     		b	.L9
 209              	.L2:
 132:.\u8glib_arm_v1.18.1\src/u8g_dev_pcf8812_96x65.c ****   }
 133:.\u8glib_arm_v1.18.1\src/u8g_dev_pcf8812_96x65.c ****   return u8g_dev_pb8v1_base_fn(u8g, dev, msg, arg);
ARM GAS  C:\Users\Shiguruy\AppData\Local\Temp\ccFU1zGd.s 			page 7


 210              		.loc 1 133 0
 211 0116 FB79     		ldrb	r3, [r7, #7]	@ zero_extendqisi2
 212 0118 F868     		ldr	r0, [r7, #12]
 213 011a B968     		ldr	r1, [r7, #8]
 214 011c 1A46     		mov	r2, r3
 215 011e 3B68     		ldr	r3, [r7]
 216 0120 FFF7FEFF 		bl	u8g_dev_pb8v1_base_fn
 217 0124 0346     		mov	r3, r0
 218              	.L9:
 134:.\u8glib_arm_v1.18.1\src/u8g_dev_pcf8812_96x65.c **** }
 219              		.loc 1 134 0
 220 0126 1846     		mov	r0, r3
 221 0128 1837     		adds	r7, r7, #24
 222              		.cfi_def_cfa_offset 8
 223 012a BD46     		mov	sp, r7
 224              		.cfi_def_cfa_register 13
 225              		@ sp needed
 226 012c 80BD     		pop	{r7, pc}
 227              	.L11:
 228 012e 00BF     		.align	2
 229              	.L10:
 230 0130 00000000 		.word	u8g_dev_pcf8812_init_seq
 231              		.cfi_endproc
 232              	.LFE0:
 233              		.size	u8g_dev_pcf8812_fn, .-u8g_dev_pcf8812_fn
 234              		.global	u8g_dev_pcf8812_96x65_sw_spi_buf
 235              		.bss
 236              		.align	2
 237              		.type	u8g_dev_pcf8812_96x65_sw_spi_buf, %object
 238              		.size	u8g_dev_pcf8812_96x65_sw_spi_buf, 96
 239              	u8g_dev_pcf8812_96x65_sw_spi_buf:
 240 0000 00000000 		.space	96
 240      00000000 
 240      00000000 
 240      00000000 
 240      00000000 
 241              		.global	u8g_dev_pcf8812_96x65_sw_spi_pb
 242              		.data
 243              		.align	2
 244              		.type	u8g_dev_pcf8812_96x65_sw_spi_pb, %object
 245              		.size	u8g_dev_pcf8812_96x65_sw_spi_pb, 12
 246              	u8g_dev_pcf8812_96x65_sw_spi_pb:
 247 0000 08       		.byte	8
 248 0001 41       		.byte	65
 249 0002 00       		.byte	0
 250 0003 00       		.byte	0
 251 0004 00       		.byte	0
 252 0005 60       		.byte	96
 253 0006 0000     		.space	2
 254 0008 00000000 		.word	u8g_dev_pcf8812_96x65_sw_spi_buf
 255              		.global	u8g_dev_pcf8812_96x65_sw_spi
 256              		.align	2
 257              		.type	u8g_dev_pcf8812_96x65_sw_spi, %object
 258              		.size	u8g_dev_pcf8812_96x65_sw_spi, 12
 259              	u8g_dev_pcf8812_96x65_sw_spi:
 260 000c 00000000 		.word	u8g_dev_pcf8812_fn
 261 0010 00000000 		.word	u8g_dev_pcf8812_96x65_sw_spi_pb
ARM GAS  C:\Users\Shiguruy\AppData\Local\Temp\ccFU1zGd.s 			page 8


 262 0014 00000000 		.word	u8g_com_null_fn
 263              		.global	u8g_dev_pcf8812_96x65_hw_spi_buf
 264              		.bss
 265              		.align	2
 266              		.type	u8g_dev_pcf8812_96x65_hw_spi_buf, %object
 267              		.size	u8g_dev_pcf8812_96x65_hw_spi_buf, 96
 268              	u8g_dev_pcf8812_96x65_hw_spi_buf:
 269 0060 00000000 		.space	96
 269      00000000 
 269      00000000 
 269      00000000 
 269      00000000 
 270              		.global	u8g_dev_pcf8812_96x65_hw_spi_pb
 271              		.data
 272              		.align	2
 273              		.type	u8g_dev_pcf8812_96x65_hw_spi_pb, %object
 274              		.size	u8g_dev_pcf8812_96x65_hw_spi_pb, 12
 275              	u8g_dev_pcf8812_96x65_hw_spi_pb:
 276 0018 08       		.byte	8
 277 0019 41       		.byte	65
 278 001a 00       		.byte	0
 279 001b 00       		.byte	0
 280 001c 00       		.byte	0
 281 001d 60       		.byte	96
 282 001e 0000     		.space	2
 283 0020 00000000 		.word	u8g_dev_pcf8812_96x65_hw_spi_buf
 284              		.global	u8g_dev_pcf8812_96x65_hw_spi
 285              		.align	2
 286              		.type	u8g_dev_pcf8812_96x65_hw_spi, %object
 287              		.size	u8g_dev_pcf8812_96x65_hw_spi, 12
 288              	u8g_dev_pcf8812_96x65_hw_spi:
 289 0024 00000000 		.word	u8g_dev_pcf8812_fn
 290 0028 00000000 		.word	u8g_dev_pcf8812_96x65_hw_spi_pb
 291 002c 00000000 		.word	u8g_com_null_fn
 292              		.text
 293              	.Letext0:
 294              		.file 2 "c:\\program files (x86)\\cypress\\psoc creator\\3.3\\psoc creator\\import\\gnu\\arm\\4.9.
 295              		.file 3 "c:\\program files (x86)\\cypress\\psoc creator\\3.3\\psoc creator\\import\\gnu\\arm\\4.9.
 296              		.file 4 ".\\u8glib_arm_v1.18.1\\src\\u8g.h"