ARM GAS  C:\Users\KJA\AppData\Local\Temp\cc5qKAoe.s 			page 1


   1              		.syntax unified
   2              		.cpu cortex-m3
   3              		.fpu softvfp
   4              		.eabi_attribute 20, 1
   5              		.eabi_attribute 21, 1
   6              		.eabi_attribute 23, 3
   7              		.eabi_attribute 24, 1
   8              		.eabi_attribute 25, 1
   9              		.eabi_attribute 26, 1
  10              		.eabi_attribute 30, 6
  11              		.eabi_attribute 34, 1
  12              		.eabi_attribute 18, 4
  13              		.thumb
  14              		.file	"u8g_com_io.c"
  15              		.text
  16              	.Ltext0:
  17              		.cfi_sections	.debug_frame
  18              		.section	.text.u8g_Pin,"ax",%progbits
  19              		.align	2
  20              		.global	u8g_Pin
  21              		.thumb
  22              		.thumb_func
  23              		.type	u8g_Pin, %function
  24              	u8g_Pin:
  25              	.LFB0:
  26              		.file 1 "u8glib_arm_v1.18.1\\src\\u8g_com_io.c"
   1:u8glib_arm_v1.18.1\src/u8g_com_io.c **** /*
   2:u8glib_arm_v1.18.1\src/u8g_com_io.c ****   
   3:u8glib_arm_v1.18.1\src/u8g_com_io.c ****   u8g_com_io.c
   4:u8glib_arm_v1.18.1\src/u8g_com_io.c ****   
   5:u8glib_arm_v1.18.1\src/u8g_com_io.c ****   abstraction layer for low level i/o 
   6:u8glib_arm_v1.18.1\src/u8g_com_io.c **** 
   7:u8glib_arm_v1.18.1\src/u8g_com_io.c ****   Universal 8bit Graphics Library
   8:u8glib_arm_v1.18.1\src/u8g_com_io.c ****   
   9:u8glib_arm_v1.18.1\src/u8g_com_io.c ****   Copyright (c) 2012, olikraus@gmail.com
  10:u8glib_arm_v1.18.1\src/u8g_com_io.c ****   All rights reserved.
  11:u8glib_arm_v1.18.1\src/u8g_com_io.c **** 
  12:u8glib_arm_v1.18.1\src/u8g_com_io.c ****   Redistribution and use in source and binary forms, with or without modification, 
  13:u8glib_arm_v1.18.1\src/u8g_com_io.c ****   are permitted provided that the following conditions are met:
  14:u8glib_arm_v1.18.1\src/u8g_com_io.c **** 
  15:u8glib_arm_v1.18.1\src/u8g_com_io.c ****   * Redistributions of source code must retain the above copyright notice, this list 
  16:u8glib_arm_v1.18.1\src/u8g_com_io.c ****     of conditions and the following disclaimer.
  17:u8glib_arm_v1.18.1\src/u8g_com_io.c ****     
  18:u8glib_arm_v1.18.1\src/u8g_com_io.c ****   * Redistributions in binary form must reproduce the above copyright notice, this 
  19:u8glib_arm_v1.18.1\src/u8g_com_io.c ****     list of conditions and the following disclaimer in the documentation and/or other 
  20:u8glib_arm_v1.18.1\src/u8g_com_io.c ****     materials provided with the distribution.
  21:u8glib_arm_v1.18.1\src/u8g_com_io.c **** 
  22:u8glib_arm_v1.18.1\src/u8g_com_io.c ****   THIS SOFTWARE IS PROVIDED BY THE COPYRIGHT HOLDERS AND 
  23:u8glib_arm_v1.18.1\src/u8g_com_io.c ****   CONTRIBUTORS "AS IS" AND ANY EXPRESS OR IMPLIED WARRANTIES, 
  24:u8glib_arm_v1.18.1\src/u8g_com_io.c ****   INCLUDING, BUT NOT LIMITED TO, THE IMPLIED WARRANTIES OF 
  25:u8glib_arm_v1.18.1\src/u8g_com_io.c ****   MERCHANTABILITY AND FITNESS FOR A PARTICULAR PURPOSE ARE 
  26:u8glib_arm_v1.18.1\src/u8g_com_io.c ****   DISCLAIMED. IN NO EVENT SHALL THE COPYRIGHT HOLDER OR 
  27:u8glib_arm_v1.18.1\src/u8g_com_io.c ****   CONTRIBUTORS BE LIABLE FOR ANY DIRECT, INDIRECT, INCIDENTAL, 
  28:u8glib_arm_v1.18.1\src/u8g_com_io.c ****   SPECIAL, EXEMPLARY, OR CONSEQUENTIAL DAMAGES (INCLUDING, BUT 
  29:u8glib_arm_v1.18.1\src/u8g_com_io.c ****   NOT LIMITED TO, PROCUREMENT OF SUBSTITUTE GOODS OR SERVICES; 
  30:u8glib_arm_v1.18.1\src/u8g_com_io.c ****   LOSS OF USE, DATA, OR PROFITS; OR BUSINESS INTERRUPTION) HOWEVER 
  31:u8glib_arm_v1.18.1\src/u8g_com_io.c ****   CAUSED AND ON ANY THEORY OF LIABILITY, WHETHER IN CONTRACT, 
ARM GAS  C:\Users\KJA\AppData\Local\Temp\cc5qKAoe.s 			page 2


  32:u8glib_arm_v1.18.1\src/u8g_com_io.c ****   STRICT LIABILITY, OR TORT (INCLUDING NEGLIGENCE OR OTHERWISE) 
  33:u8glib_arm_v1.18.1\src/u8g_com_io.c ****   ARISING IN ANY WAY OUT OF THE USE OF THIS SOFTWARE, EVEN IF 
  34:u8glib_arm_v1.18.1\src/u8g_com_io.c ****   ADVISED OF THE POSSIBILITY OF SUCH DAMAGE.  
  35:u8glib_arm_v1.18.1\src/u8g_com_io.c **** 
  36:u8glib_arm_v1.18.1\src/u8g_com_io.c ****   Update for ATOMIC operation done (01 Jun 2013)
  37:u8glib_arm_v1.18.1\src/u8g_com_io.c ****     U8G_ATOMIC_OR(ptr, val)
  38:u8glib_arm_v1.18.1\src/u8g_com_io.c ****     U8G_ATOMIC_AND(ptr, val)
  39:u8glib_arm_v1.18.1\src/u8g_com_io.c ****     U8G_ATOMIC_START();
  40:u8glib_arm_v1.18.1\src/u8g_com_io.c ****     U8G_ATOMIC_END();
  41:u8glib_arm_v1.18.1\src/u8g_com_io.c **** 
  42:u8glib_arm_v1.18.1\src/u8g_com_io.c ****   uint8_t u8g_Pin(uint8_t port, uint8_t bitpos)						Convert to internal number: AVR: port*8+bitpos
  43:u8glib_arm_v1.18.1\src/u8g_com_io.c ****   void u8g_SetPinOutput(uint8_t internal_pin_number)
  44:u8glib_arm_v1.18.1\src/u8g_com_io.c ****   void u8g_SetPinInput(uint8_t internal_pin_number)
  45:u8glib_arm_v1.18.1\src/u8g_com_io.c ****   void u8g_SetPinLevel(uint8_t internal_pin_number, uint8_t level)
  46:u8glib_arm_v1.18.1\src/u8g_com_io.c ****   uint8_t u8g_GetPinLevel(uint8_t internal_pin_number)
  47:u8glib_arm_v1.18.1\src/u8g_com_io.c **** 
  48:u8glib_arm_v1.18.1\src/u8g_com_io.c **** 
  49:u8glib_arm_v1.18.1\src/u8g_com_io.c **** */
  50:u8glib_arm_v1.18.1\src/u8g_com_io.c **** 
  51:u8glib_arm_v1.18.1\src/u8g_com_io.c **** #include "u8g.h"
  52:u8glib_arm_v1.18.1\src/u8g_com_io.c **** 
  53:u8glib_arm_v1.18.1\src/u8g_com_io.c **** #if defined(__AVR__)
  54:u8glib_arm_v1.18.1\src/u8g_com_io.c **** 
  55:u8glib_arm_v1.18.1\src/u8g_com_io.c **** #include <avr/interrupt.h>
  56:u8glib_arm_v1.18.1\src/u8g_com_io.c **** #include <avr/io.h>
  57:u8glib_arm_v1.18.1\src/u8g_com_io.c **** 
  58:u8glib_arm_v1.18.1\src/u8g_com_io.c **** typedef volatile uint8_t * IO_PTR;
  59:u8glib_arm_v1.18.1\src/u8g_com_io.c **** 
  60:u8glib_arm_v1.18.1\src/u8g_com_io.c **** /* create internal pin number */
  61:u8glib_arm_v1.18.1\src/u8g_com_io.c **** uint8_t u8g_Pin(uint8_t port, uint8_t bitpos)
  62:u8glib_arm_v1.18.1\src/u8g_com_io.c **** {
  63:u8glib_arm_v1.18.1\src/u8g_com_io.c ****   port <<= 3;
  64:u8glib_arm_v1.18.1\src/u8g_com_io.c ****   port += bitpos;
  65:u8glib_arm_v1.18.1\src/u8g_com_io.c ****   return port;
  66:u8glib_arm_v1.18.1\src/u8g_com_io.c **** }
  67:u8glib_arm_v1.18.1\src/u8g_com_io.c **** 
  68:u8glib_arm_v1.18.1\src/u8g_com_io.c **** const IO_PTR u8g_avr_ddr_P[] PROGMEM = {
  69:u8glib_arm_v1.18.1\src/u8g_com_io.c **** #ifdef DDRA
  70:u8glib_arm_v1.18.1\src/u8g_com_io.c ****   &DDRA,
  71:u8glib_arm_v1.18.1\src/u8g_com_io.c **** #else
  72:u8glib_arm_v1.18.1\src/u8g_com_io.c ****   0,
  73:u8glib_arm_v1.18.1\src/u8g_com_io.c **** #endif
  74:u8glib_arm_v1.18.1\src/u8g_com_io.c ****   &DDRB,
  75:u8glib_arm_v1.18.1\src/u8g_com_io.c **** #ifdef DDRC
  76:u8glib_arm_v1.18.1\src/u8g_com_io.c ****   &DDRC,
  77:u8glib_arm_v1.18.1\src/u8g_com_io.c **** #ifdef DDRD
  78:u8glib_arm_v1.18.1\src/u8g_com_io.c ****   &DDRD,
  79:u8glib_arm_v1.18.1\src/u8g_com_io.c **** #ifdef DDRE
  80:u8glib_arm_v1.18.1\src/u8g_com_io.c ****   &DDRE,
  81:u8glib_arm_v1.18.1\src/u8g_com_io.c **** #ifdef DDRF
  82:u8glib_arm_v1.18.1\src/u8g_com_io.c ****   &DDRF,
  83:u8glib_arm_v1.18.1\src/u8g_com_io.c **** #ifdef DDRG
  84:u8glib_arm_v1.18.1\src/u8g_com_io.c ****   &DDRG,
  85:u8glib_arm_v1.18.1\src/u8g_com_io.c **** #ifdef DDRH
  86:u8glib_arm_v1.18.1\src/u8g_com_io.c ****   &DDRH,
  87:u8glib_arm_v1.18.1\src/u8g_com_io.c **** #endif
  88:u8glib_arm_v1.18.1\src/u8g_com_io.c **** #endif
ARM GAS  C:\Users\KJA\AppData\Local\Temp\cc5qKAoe.s 			page 3


  89:u8glib_arm_v1.18.1\src/u8g_com_io.c **** #endif
  90:u8glib_arm_v1.18.1\src/u8g_com_io.c **** #endif
  91:u8glib_arm_v1.18.1\src/u8g_com_io.c **** #endif
  92:u8glib_arm_v1.18.1\src/u8g_com_io.c **** #endif
  93:u8glib_arm_v1.18.1\src/u8g_com_io.c **** };
  94:u8glib_arm_v1.18.1\src/u8g_com_io.c **** 
  95:u8glib_arm_v1.18.1\src/u8g_com_io.c **** 
  96:u8glib_arm_v1.18.1\src/u8g_com_io.c **** const IO_PTR u8g_avr_port_P[] PROGMEM = {
  97:u8glib_arm_v1.18.1\src/u8g_com_io.c **** #ifdef PORTA
  98:u8glib_arm_v1.18.1\src/u8g_com_io.c ****   &PORTA,
  99:u8glib_arm_v1.18.1\src/u8g_com_io.c **** #else
 100:u8glib_arm_v1.18.1\src/u8g_com_io.c ****   0,
 101:u8glib_arm_v1.18.1\src/u8g_com_io.c **** #endif
 102:u8glib_arm_v1.18.1\src/u8g_com_io.c ****   &PORTB,
 103:u8glib_arm_v1.18.1\src/u8g_com_io.c **** #ifdef PORTC
 104:u8glib_arm_v1.18.1\src/u8g_com_io.c ****   &PORTC,
 105:u8glib_arm_v1.18.1\src/u8g_com_io.c **** #ifdef PORTD
 106:u8glib_arm_v1.18.1\src/u8g_com_io.c ****   &PORTD,
 107:u8glib_arm_v1.18.1\src/u8g_com_io.c **** #ifdef PORTE
 108:u8glib_arm_v1.18.1\src/u8g_com_io.c ****   &PORTE,
 109:u8glib_arm_v1.18.1\src/u8g_com_io.c **** #ifdef PORTF
 110:u8glib_arm_v1.18.1\src/u8g_com_io.c ****   &PORTF,
 111:u8glib_arm_v1.18.1\src/u8g_com_io.c **** #ifdef PORTG
 112:u8glib_arm_v1.18.1\src/u8g_com_io.c ****   &PORTG,
 113:u8glib_arm_v1.18.1\src/u8g_com_io.c **** #ifdef PORTH
 114:u8glib_arm_v1.18.1\src/u8g_com_io.c ****   &PORTH,
 115:u8glib_arm_v1.18.1\src/u8g_com_io.c **** #endif
 116:u8glib_arm_v1.18.1\src/u8g_com_io.c **** #endif
 117:u8glib_arm_v1.18.1\src/u8g_com_io.c **** #endif
 118:u8glib_arm_v1.18.1\src/u8g_com_io.c **** #endif
 119:u8glib_arm_v1.18.1\src/u8g_com_io.c **** #endif
 120:u8glib_arm_v1.18.1\src/u8g_com_io.c **** #endif
 121:u8glib_arm_v1.18.1\src/u8g_com_io.c **** };
 122:u8glib_arm_v1.18.1\src/u8g_com_io.c **** 
 123:u8glib_arm_v1.18.1\src/u8g_com_io.c **** const IO_PTR u8g_avr_pin_P[] PROGMEM = {
 124:u8glib_arm_v1.18.1\src/u8g_com_io.c **** #ifdef PINA
 125:u8glib_arm_v1.18.1\src/u8g_com_io.c ****   &PINA,
 126:u8glib_arm_v1.18.1\src/u8g_com_io.c **** #else
 127:u8glib_arm_v1.18.1\src/u8g_com_io.c ****   0,
 128:u8glib_arm_v1.18.1\src/u8g_com_io.c **** #endif
 129:u8glib_arm_v1.18.1\src/u8g_com_io.c ****   &PINB,
 130:u8glib_arm_v1.18.1\src/u8g_com_io.c **** #ifdef PINC
 131:u8glib_arm_v1.18.1\src/u8g_com_io.c ****   &PINC,
 132:u8glib_arm_v1.18.1\src/u8g_com_io.c **** #ifdef PIND
 133:u8glib_arm_v1.18.1\src/u8g_com_io.c ****   &PIND,
 134:u8glib_arm_v1.18.1\src/u8g_com_io.c **** #ifdef PINE
 135:u8glib_arm_v1.18.1\src/u8g_com_io.c ****   &PINE,
 136:u8glib_arm_v1.18.1\src/u8g_com_io.c **** #ifdef PINF
 137:u8glib_arm_v1.18.1\src/u8g_com_io.c ****   &PINF,
 138:u8glib_arm_v1.18.1\src/u8g_com_io.c **** #ifdef PING
 139:u8glib_arm_v1.18.1\src/u8g_com_io.c ****   &PING,
 140:u8glib_arm_v1.18.1\src/u8g_com_io.c **** #ifdef PINH
 141:u8glib_arm_v1.18.1\src/u8g_com_io.c ****   &PINH,
 142:u8glib_arm_v1.18.1\src/u8g_com_io.c **** #endif
 143:u8glib_arm_v1.18.1\src/u8g_com_io.c **** #endif
 144:u8glib_arm_v1.18.1\src/u8g_com_io.c **** #endif
 145:u8glib_arm_v1.18.1\src/u8g_com_io.c **** #endif
ARM GAS  C:\Users\KJA\AppData\Local\Temp\cc5qKAoe.s 			page 4


 146:u8glib_arm_v1.18.1\src/u8g_com_io.c **** #endif
 147:u8glib_arm_v1.18.1\src/u8g_com_io.c **** #endif
 148:u8glib_arm_v1.18.1\src/u8g_com_io.c **** };
 149:u8glib_arm_v1.18.1\src/u8g_com_io.c **** 
 150:u8glib_arm_v1.18.1\src/u8g_com_io.c **** static volatile uint8_t *u8g_get_avr_io_ptr(const IO_PTR *base, uint8_t offset)
 151:u8glib_arm_v1.18.1\src/u8g_com_io.c **** {
 152:u8glib_arm_v1.18.1\src/u8g_com_io.c ****   volatile uint8_t * tmp;
 153:u8glib_arm_v1.18.1\src/u8g_com_io.c ****   base += offset;
 154:u8glib_arm_v1.18.1\src/u8g_com_io.c ****   memcpy_P(&tmp, base, sizeof(volatile uint8_t * PROGMEM));
 155:u8glib_arm_v1.18.1\src/u8g_com_io.c ****   return tmp; 
 156:u8glib_arm_v1.18.1\src/u8g_com_io.c **** }
 157:u8glib_arm_v1.18.1\src/u8g_com_io.c **** 
 158:u8glib_arm_v1.18.1\src/u8g_com_io.c **** /* set direction to output of the specified pin (internal pin number) */
 159:u8glib_arm_v1.18.1\src/u8g_com_io.c **** void u8g_SetPinOutput(uint8_t internal_pin_number)
 160:u8glib_arm_v1.18.1\src/u8g_com_io.c **** {
 161:u8glib_arm_v1.18.1\src/u8g_com_io.c ****   *u8g_get_avr_io_ptr(u8g_avr_ddr_P, internal_pin_number>>3) |= _BV(internal_pin_number&7);
 162:u8glib_arm_v1.18.1\src/u8g_com_io.c **** }
 163:u8glib_arm_v1.18.1\src/u8g_com_io.c **** 
 164:u8glib_arm_v1.18.1\src/u8g_com_io.c **** void u8g_SetPinInput(uint8_t internal_pin_number)
 165:u8glib_arm_v1.18.1\src/u8g_com_io.c **** {
 166:u8glib_arm_v1.18.1\src/u8g_com_io.c ****   *u8g_get_avr_io_ptr(u8g_avr_ddr_P, internal_pin_number>>3) &= ~_BV(internal_pin_number&7);
 167:u8glib_arm_v1.18.1\src/u8g_com_io.c **** }
 168:u8glib_arm_v1.18.1\src/u8g_com_io.c **** 
 169:u8glib_arm_v1.18.1\src/u8g_com_io.c **** void u8g_SetPinLevel(uint8_t internal_pin_number, uint8_t level)
 170:u8glib_arm_v1.18.1\src/u8g_com_io.c **** {
 171:u8glib_arm_v1.18.1\src/u8g_com_io.c ****   volatile uint8_t * tmp = u8g_get_avr_io_ptr(u8g_avr_port_P, internal_pin_number>>3);
 172:u8glib_arm_v1.18.1\src/u8g_com_io.c ****   
 173:u8glib_arm_v1.18.1\src/u8g_com_io.c ****   if ( level == 0 )
 174:u8glib_arm_v1.18.1\src/u8g_com_io.c ****   {
 175:u8glib_arm_v1.18.1\src/u8g_com_io.c ****     U8G_ATOMIC_AND(tmp, ~_BV(internal_pin_number&7));
 176:u8glib_arm_v1.18.1\src/u8g_com_io.c ****    // *tmp &= ~_BV(internal_pin_number&7);
 177:u8glib_arm_v1.18.1\src/u8g_com_io.c ****   }
 178:u8glib_arm_v1.18.1\src/u8g_com_io.c ****   else
 179:u8glib_arm_v1.18.1\src/u8g_com_io.c ****   {
 180:u8glib_arm_v1.18.1\src/u8g_com_io.c ****     U8G_ATOMIC_OR(tmp, _BV(internal_pin_number&7));
 181:u8glib_arm_v1.18.1\src/u8g_com_io.c ****     //*tmp |= _BV(internal_pin_number&7);
 182:u8glib_arm_v1.18.1\src/u8g_com_io.c ****   }
 183:u8glib_arm_v1.18.1\src/u8g_com_io.c ****   
 184:u8glib_arm_v1.18.1\src/u8g_com_io.c **** }
 185:u8glib_arm_v1.18.1\src/u8g_com_io.c **** 
 186:u8glib_arm_v1.18.1\src/u8g_com_io.c **** uint8_t u8g_GetPinLevel(uint8_t internal_pin_number)
 187:u8glib_arm_v1.18.1\src/u8g_com_io.c **** {
 188:u8glib_arm_v1.18.1\src/u8g_com_io.c ****   volatile uint8_t * tmp = u8g_get_avr_io_ptr(u8g_avr_pin_P, internal_pin_number>>3);
 189:u8glib_arm_v1.18.1\src/u8g_com_io.c ****   if ( ((*tmp) & _BV(internal_pin_number&7))  != 0 )
 190:u8glib_arm_v1.18.1\src/u8g_com_io.c ****     return 1;
 191:u8glib_arm_v1.18.1\src/u8g_com_io.c ****   return 0;
 192:u8glib_arm_v1.18.1\src/u8g_com_io.c **** }
 193:u8glib_arm_v1.18.1\src/u8g_com_io.c **** 
 194:u8glib_arm_v1.18.1\src/u8g_com_io.c **** #elif defined (__MSP430__)
 195:u8glib_arm_v1.18.1\src/u8g_com_io.c **** #include <msp430.h>
 196:u8glib_arm_v1.18.1\src/u8g_com_io.c **** 
 197:u8glib_arm_v1.18.1\src/u8g_com_io.c **** typedef volatile uint8_t * IO_PTR;
 198:u8glib_arm_v1.18.1\src/u8g_com_io.c **** 
 199:u8glib_arm_v1.18.1\src/u8g_com_io.c **** // MSP430 F5XXX / F6XXX series. 
 200:u8glib_arm_v1.18.1\src/u8g_com_io.c **** const IO_PTR u8g_msp_ddr_P[] PROGMEM = {
 201:u8glib_arm_v1.18.1\src/u8g_com_io.c **** 	&P1DIR
 202:u8glib_arm_v1.18.1\src/u8g_com_io.c **** 	,&P2DIR
ARM GAS  C:\Users\KJA\AppData\Local\Temp\cc5qKAoe.s 			page 5


 203:u8glib_arm_v1.18.1\src/u8g_com_io.c **** 	,&P3DIR
 204:u8glib_arm_v1.18.1\src/u8g_com_io.c **** 	,&P4DIR
 205:u8glib_arm_v1.18.1\src/u8g_com_io.c **** 	,&P5DIR
 206:u8glib_arm_v1.18.1\src/u8g_com_io.c **** 	,&P6DIR
 207:u8glib_arm_v1.18.1\src/u8g_com_io.c **** 	,&P7DIR
 208:u8glib_arm_v1.18.1\src/u8g_com_io.c **** 	,&P8DIR
 209:u8glib_arm_v1.18.1\src/u8g_com_io.c **** #if defined (__MSP430_HAS_PORT9_R__)
 210:u8glib_arm_v1.18.1\src/u8g_com_io.c **** 	,&P9DIR
 211:u8glib_arm_v1.18.1\src/u8g_com_io.c **** #if defined (__MSP430_HAS_PORT10_R__)
 212:u8glib_arm_v1.18.1\src/u8g_com_io.c **** 	,&P10DIR
 213:u8glib_arm_v1.18.1\src/u8g_com_io.c **** #endif
 214:u8glib_arm_v1.18.1\src/u8g_com_io.c **** #endif
 215:u8glib_arm_v1.18.1\src/u8g_com_io.c **** };
 216:u8glib_arm_v1.18.1\src/u8g_com_io.c **** 
 217:u8glib_arm_v1.18.1\src/u8g_com_io.c **** const IO_PTR u8g_msp_port_P[] PROGMEM = {
 218:u8glib_arm_v1.18.1\src/u8g_com_io.c **** 	&P1OUT
 219:u8glib_arm_v1.18.1\src/u8g_com_io.c **** 	,&P2OUT
 220:u8glib_arm_v1.18.1\src/u8g_com_io.c **** 	,&P3OUT
 221:u8glib_arm_v1.18.1\src/u8g_com_io.c **** 	,&P4OUT
 222:u8glib_arm_v1.18.1\src/u8g_com_io.c **** 	,&P5OUT
 223:u8glib_arm_v1.18.1\src/u8g_com_io.c **** 	,&P6OUT
 224:u8glib_arm_v1.18.1\src/u8g_com_io.c **** 	,&P7OUT
 225:u8glib_arm_v1.18.1\src/u8g_com_io.c **** 	,&P8OUT
 226:u8glib_arm_v1.18.1\src/u8g_com_io.c **** #if defined (__MSP430_HAS_PORT9_R__)
 227:u8glib_arm_v1.18.1\src/u8g_com_io.c **** 	,&P9OUT
 228:u8glib_arm_v1.18.1\src/u8g_com_io.c **** #if defined (__MSP430_HAS_PORT10_R__)
 229:u8glib_arm_v1.18.1\src/u8g_com_io.c **** 	,&P10OUT
 230:u8glib_arm_v1.18.1\src/u8g_com_io.c **** #endif
 231:u8glib_arm_v1.18.1\src/u8g_com_io.c **** #endif
 232:u8glib_arm_v1.18.1\src/u8g_com_io.c **** };
 233:u8glib_arm_v1.18.1\src/u8g_com_io.c **** 
 234:u8glib_arm_v1.18.1\src/u8g_com_io.c **** const IO_PTR u8g_msp_pin_P[] PROGMEM = {
 235:u8glib_arm_v1.18.1\src/u8g_com_io.c **** 	&P1IN
 236:u8glib_arm_v1.18.1\src/u8g_com_io.c **** 	,&P2IN
 237:u8glib_arm_v1.18.1\src/u8g_com_io.c **** 	,&P3IN
 238:u8glib_arm_v1.18.1\src/u8g_com_io.c **** 	,&P4IN
 239:u8glib_arm_v1.18.1\src/u8g_com_io.c **** 	,&P5IN
 240:u8glib_arm_v1.18.1\src/u8g_com_io.c **** 	,&P6IN
 241:u8glib_arm_v1.18.1\src/u8g_com_io.c **** 	,&P7IN
 242:u8glib_arm_v1.18.1\src/u8g_com_io.c **** 	,&P8IN
 243:u8glib_arm_v1.18.1\src/u8g_com_io.c **** #if defined (__MSP430_HAS_PORT9_R__)
 244:u8glib_arm_v1.18.1\src/u8g_com_io.c **** 	,&P9IN
 245:u8glib_arm_v1.18.1\src/u8g_com_io.c **** #if defined (__MSP430_HAS_PORT10_R__)
 246:u8glib_arm_v1.18.1\src/u8g_com_io.c **** 	,&P10IN
 247:u8glib_arm_v1.18.1\src/u8g_com_io.c **** #endif
 248:u8glib_arm_v1.18.1\src/u8g_com_io.c **** #endif
 249:u8glib_arm_v1.18.1\src/u8g_com_io.c **** };
 250:u8glib_arm_v1.18.1\src/u8g_com_io.c **** 
 251:u8glib_arm_v1.18.1\src/u8g_com_io.c **** uint8_t u8g_Pin(uint8_t port, uint8_t bitpos)
 252:u8glib_arm_v1.18.1\src/u8g_com_io.c **** {
 253:u8glib_arm_v1.18.1\src/u8g_com_io.c **** 	port <<= 3;
 254:u8glib_arm_v1.18.1\src/u8g_com_io.c **** 	port += bitpos;
 255:u8glib_arm_v1.18.1\src/u8g_com_io.c **** 	return port;
 256:u8glib_arm_v1.18.1\src/u8g_com_io.c **** }
 257:u8glib_arm_v1.18.1\src/u8g_com_io.c **** 
 258:u8glib_arm_v1.18.1\src/u8g_com_io.c **** void u8g_SetPinOutput(uint8_t internal_pin_number)
 259:u8glib_arm_v1.18.1\src/u8g_com_io.c **** {
ARM GAS  C:\Users\KJA\AppData\Local\Temp\cc5qKAoe.s 			page 6


 260:u8glib_arm_v1.18.1\src/u8g_com_io.c **** 	uint8_t port = (internal_pin_number >> 3)-1;
 261:u8glib_arm_v1.18.1\src/u8g_com_io.c **** 	uint8_t output = 1 << (internal_pin_number & 0x07);
 262:u8glib_arm_v1.18.1\src/u8g_com_io.c **** 	*u8g_msp_ddr_P[port] |= output;
 263:u8glib_arm_v1.18.1\src/u8g_com_io.c **** }
 264:u8glib_arm_v1.18.1\src/u8g_com_io.c **** 
 265:u8glib_arm_v1.18.1\src/u8g_com_io.c **** void u8g_SetPinInput(uint8_t internal_pin_number)
 266:u8glib_arm_v1.18.1\src/u8g_com_io.c **** {
 267:u8glib_arm_v1.18.1\src/u8g_com_io.c **** 	uint8_t port = (internal_pin_number >> 3)-1;
 268:u8glib_arm_v1.18.1\src/u8g_com_io.c **** 	*u8g_msp_ddr_P[port] &= ~(1 << (internal_pin_number & 0x07));
 269:u8glib_arm_v1.18.1\src/u8g_com_io.c **** }
 270:u8glib_arm_v1.18.1\src/u8g_com_io.c **** 
 271:u8glib_arm_v1.18.1\src/u8g_com_io.c **** void u8g_SetPinLevel(uint8_t internal_pin_number, uint8_t level)
 272:u8glib_arm_v1.18.1\src/u8g_com_io.c **** {
 273:u8glib_arm_v1.18.1\src/u8g_com_io.c **** 	uint8_t port = (internal_pin_number >> 3)-1;
 274:u8glib_arm_v1.18.1\src/u8g_com_io.c **** 	if (level == 0)
 275:u8glib_arm_v1.18.1\src/u8g_com_io.c **** 	{
 276:u8glib_arm_v1.18.1\src/u8g_com_io.c **** 		*u8g_msp_port_P[port] &= ~(1 << (internal_pin_number & 0x07));
 277:u8glib_arm_v1.18.1\src/u8g_com_io.c **** 	}
 278:u8glib_arm_v1.18.1\src/u8g_com_io.c **** 	else
 279:u8glib_arm_v1.18.1\src/u8g_com_io.c **** 	{
 280:u8glib_arm_v1.18.1\src/u8g_com_io.c **** 		*u8g_msp_port_P[port]|= (1 << (internal_pin_number & 0x07));
 281:u8glib_arm_v1.18.1\src/u8g_com_io.c **** 	}
 282:u8glib_arm_v1.18.1\src/u8g_com_io.c **** }
 283:u8glib_arm_v1.18.1\src/u8g_com_io.c **** 
 284:u8glib_arm_v1.18.1\src/u8g_com_io.c **** uint8_t u8g_GetPinLevel(uint8_t internal_pin_number)
 285:u8glib_arm_v1.18.1\src/u8g_com_io.c **** {
 286:u8glib_arm_v1.18.1\src/u8g_com_io.c **** 	uint8_t port = (internal_pin_number >> 3)-1;
 287:u8glib_arm_v1.18.1\src/u8g_com_io.c **** 	uint8_t tmp = *u8g_msp_pin_P[port];
 288:u8glib_arm_v1.18.1\src/u8g_com_io.c **** 	if (tmp & (1 << (internal_pin_number & 0x07)))
 289:u8glib_arm_v1.18.1\src/u8g_com_io.c **** 	{
 290:u8glib_arm_v1.18.1\src/u8g_com_io.c **** 		return 1;
 291:u8glib_arm_v1.18.1\src/u8g_com_io.c **** 	}
 292:u8glib_arm_v1.18.1\src/u8g_com_io.c **** 	return 0;
 293:u8glib_arm_v1.18.1\src/u8g_com_io.c **** }
 294:u8glib_arm_v1.18.1\src/u8g_com_io.c **** 
 295:u8glib_arm_v1.18.1\src/u8g_com_io.c **** #elif defined(U8G_RASPBERRY_PI)
 296:u8glib_arm_v1.18.1\src/u8g_com_io.c **** 
 297:u8glib_arm_v1.18.1\src/u8g_com_io.c **** #include <wiringPi.h>
 298:u8glib_arm_v1.18.1\src/u8g_com_io.c **** //#include "/usr/local/include/wiringPi.h"
 299:u8glib_arm_v1.18.1\src/u8g_com_io.c **** 
 300:u8glib_arm_v1.18.1\src/u8g_com_io.c **** void u8g_SetPinOutput(uint8_t internal_pin_number) {
 301:u8glib_arm_v1.18.1\src/u8g_com_io.c ****    pinMode(internal_pin_number, OUTPUT);
 302:u8glib_arm_v1.18.1\src/u8g_com_io.c **** }
 303:u8glib_arm_v1.18.1\src/u8g_com_io.c **** 
 304:u8glib_arm_v1.18.1\src/u8g_com_io.c **** void u8g_SetPinInput(uint8_t internal_pin_number) {
 305:u8glib_arm_v1.18.1\src/u8g_com_io.c ****    pinMode(internal_pin_number, INPUT);
 306:u8glib_arm_v1.18.1\src/u8g_com_io.c **** }
 307:u8glib_arm_v1.18.1\src/u8g_com_io.c **** 
 308:u8glib_arm_v1.18.1\src/u8g_com_io.c **** void u8g_SetPinLevel(uint8_t internal_pin_number, uint8_t level) {
 309:u8glib_arm_v1.18.1\src/u8g_com_io.c ****    digitalWrite(internal_pin_number, level);
 310:u8glib_arm_v1.18.1\src/u8g_com_io.c **** }
 311:u8glib_arm_v1.18.1\src/u8g_com_io.c **** 
 312:u8glib_arm_v1.18.1\src/u8g_com_io.c **** uint8_t u8g_GetPinLevel(uint8_t internal_pin_number) {
 313:u8glib_arm_v1.18.1\src/u8g_com_io.c ****    return digitalRead(internal_pin_number);
 314:u8glib_arm_v1.18.1\src/u8g_com_io.c **** }
 315:u8glib_arm_v1.18.1\src/u8g_com_io.c **** 
 316:u8glib_arm_v1.18.1\src/u8g_com_io.c **** 
ARM GAS  C:\Users\KJA\AppData\Local\Temp\cc5qKAoe.s 			page 7


 317:u8glib_arm_v1.18.1\src/u8g_com_io.c **** #else
 318:u8glib_arm_v1.18.1\src/u8g_com_io.c **** 
 319:u8glib_arm_v1.18.1\src/u8g_com_io.c **** /* convert "port" and "bitpos" to internal pin number */
 320:u8glib_arm_v1.18.1\src/u8g_com_io.c **** uint8_t u8g_Pin(uint8_t port, uint8_t bitpos)
 321:u8glib_arm_v1.18.1\src/u8g_com_io.c **** {
  27              		.loc 1 321 0
  28              		.cfi_startproc
  29              		@ args = 0, pretend = 0, frame = 8
  30              		@ frame_needed = 1, uses_anonymous_args = 0
  31              		@ link register save eliminated.
  32 0000 80B4     		push	{r7}
  33              		.cfi_def_cfa_offset 4
  34              		.cfi_offset 7, -4
  35 0002 83B0     		sub	sp, sp, #12
  36              		.cfi_def_cfa_offset 16
  37 0004 00AF     		add	r7, sp, #0
  38              		.cfi_def_cfa_register 7
  39 0006 0346     		mov	r3, r0
  40 0008 0A46     		mov	r2, r1
  41 000a FB71     		strb	r3, [r7, #7]
  42 000c 1346     		mov	r3, r2
  43 000e BB71     		strb	r3, [r7, #6]
 322:u8glib_arm_v1.18.1\src/u8g_com_io.c ****   port <<= 3;
  44              		.loc 1 322 0
  45 0010 FB79     		ldrb	r3, [r7, #7]
  46 0012 DB00     		lsls	r3, r3, #3
  47 0014 FB71     		strb	r3, [r7, #7]
 323:u8glib_arm_v1.18.1\src/u8g_com_io.c ****   port += bitpos;
  48              		.loc 1 323 0
  49 0016 FA79     		ldrb	r2, [r7, #7]
  50 0018 BB79     		ldrb	r3, [r7, #6]
  51 001a 1344     		add	r3, r3, r2
  52 001c FB71     		strb	r3, [r7, #7]
 324:u8glib_arm_v1.18.1\src/u8g_com_io.c ****   return port;
  53              		.loc 1 324 0
  54 001e FB79     		ldrb	r3, [r7, #7]	@ zero_extendqisi2
 325:u8glib_arm_v1.18.1\src/u8g_com_io.c **** }
  55              		.loc 1 325 0
  56 0020 1846     		mov	r0, r3
  57 0022 0C37     		adds	r7, r7, #12
  58              		.cfi_def_cfa_offset 4
  59 0024 BD46     		mov	sp, r7
  60              		.cfi_def_cfa_register 13
  61              		@ sp needed
  62 0026 5DF8047B 		ldr	r7, [sp], #4
  63              		.cfi_restore 7
  64              		.cfi_def_cfa_offset 0
  65 002a 7047     		bx	lr
  66              		.cfi_endproc
  67              	.LFE0:
  68              		.size	u8g_Pin, .-u8g_Pin
  69              		.section	.text.u8g_SetPinOutput,"ax",%progbits
  70              		.align	2
  71              		.global	u8g_SetPinOutput
  72              		.thumb
  73              		.thumb_func
  74              		.type	u8g_SetPinOutput, %function
ARM GAS  C:\Users\KJA\AppData\Local\Temp\cc5qKAoe.s 			page 8


  75              	u8g_SetPinOutput:
  76              	.LFB1:
 326:u8glib_arm_v1.18.1\src/u8g_com_io.c **** 
 327:u8glib_arm_v1.18.1\src/u8g_com_io.c **** void u8g_SetPinOutput(uint8_t internal_pin_number)
 328:u8glib_arm_v1.18.1\src/u8g_com_io.c **** {
  77              		.loc 1 328 0
  78              		.cfi_startproc
  79              		@ args = 0, pretend = 0, frame = 8
  80              		@ frame_needed = 1, uses_anonymous_args = 0
  81              		@ link register save eliminated.
  82 0000 80B4     		push	{r7}
  83              		.cfi_def_cfa_offset 4
  84              		.cfi_offset 7, -4
  85 0002 83B0     		sub	sp, sp, #12
  86              		.cfi_def_cfa_offset 16
  87 0004 00AF     		add	r7, sp, #0
  88              		.cfi_def_cfa_register 7
  89 0006 0346     		mov	r3, r0
  90 0008 FB71     		strb	r3, [r7, #7]
 329:u8glib_arm_v1.18.1\src/u8g_com_io.c **** }
  91              		.loc 1 329 0
  92 000a 0C37     		adds	r7, r7, #12
  93              		.cfi_def_cfa_offset 4
  94 000c BD46     		mov	sp, r7
  95              		.cfi_def_cfa_register 13
  96              		@ sp needed
  97 000e 5DF8047B 		ldr	r7, [sp], #4
  98              		.cfi_restore 7
  99              		.cfi_def_cfa_offset 0
 100 0012 7047     		bx	lr
 101              		.cfi_endproc
 102              	.LFE1:
 103              		.size	u8g_SetPinOutput, .-u8g_SetPinOutput
 104              		.section	.text.u8g_SetPinInput,"ax",%progbits
 105              		.align	2
 106              		.global	u8g_SetPinInput
 107              		.thumb
 108              		.thumb_func
 109              		.type	u8g_SetPinInput, %function
 110              	u8g_SetPinInput:
 111              	.LFB2:
 330:u8glib_arm_v1.18.1\src/u8g_com_io.c **** 
 331:u8glib_arm_v1.18.1\src/u8g_com_io.c **** void u8g_SetPinInput(uint8_t internal_pin_number)
 332:u8glib_arm_v1.18.1\src/u8g_com_io.c **** {
 112              		.loc 1 332 0
 113              		.cfi_startproc
 114              		@ args = 0, pretend = 0, frame = 8
 115              		@ frame_needed = 1, uses_anonymous_args = 0
 116              		@ link register save eliminated.
 117 0000 80B4     		push	{r7}
 118              		.cfi_def_cfa_offset 4
 119              		.cfi_offset 7, -4
 120 0002 83B0     		sub	sp, sp, #12
 121              		.cfi_def_cfa_offset 16
 122 0004 00AF     		add	r7, sp, #0
 123              		.cfi_def_cfa_register 7
 124 0006 0346     		mov	r3, r0
ARM GAS  C:\Users\KJA\AppData\Local\Temp\cc5qKAoe.s 			page 9


 125 0008 FB71     		strb	r3, [r7, #7]
 333:u8glib_arm_v1.18.1\src/u8g_com_io.c **** }
 126              		.loc 1 333 0
 127 000a 0C37     		adds	r7, r7, #12
 128              		.cfi_def_cfa_offset 4
 129 000c BD46     		mov	sp, r7
 130              		.cfi_def_cfa_register 13
 131              		@ sp needed
 132 000e 5DF8047B 		ldr	r7, [sp], #4
 133              		.cfi_restore 7
 134              		.cfi_def_cfa_offset 0
 135 0012 7047     		bx	lr
 136              		.cfi_endproc
 137              	.LFE2:
 138              		.size	u8g_SetPinInput, .-u8g_SetPinInput
 139              		.section	.text.u8g_SetPinLevel,"ax",%progbits
 140              		.align	2
 141              		.global	u8g_SetPinLevel
 142              		.thumb
 143              		.thumb_func
 144              		.type	u8g_SetPinLevel, %function
 145              	u8g_SetPinLevel:
 146              	.LFB3:
 334:u8glib_arm_v1.18.1\src/u8g_com_io.c **** 
 335:u8glib_arm_v1.18.1\src/u8g_com_io.c **** void u8g_SetPinLevel(uint8_t internal_pin_number, uint8_t level)
 336:u8glib_arm_v1.18.1\src/u8g_com_io.c **** {
 147              		.loc 1 336 0
 148              		.cfi_startproc
 149              		@ args = 0, pretend = 0, frame = 8
 150              		@ frame_needed = 1, uses_anonymous_args = 0
 151              		@ link register save eliminated.
 152 0000 80B4     		push	{r7}
 153              		.cfi_def_cfa_offset 4
 154              		.cfi_offset 7, -4
 155 0002 83B0     		sub	sp, sp, #12
 156              		.cfi_def_cfa_offset 16
 157 0004 00AF     		add	r7, sp, #0
 158              		.cfi_def_cfa_register 7
 159 0006 0346     		mov	r3, r0
 160 0008 0A46     		mov	r2, r1
 161 000a FB71     		strb	r3, [r7, #7]
 162 000c 1346     		mov	r3, r2
 163 000e BB71     		strb	r3, [r7, #6]
 337:u8glib_arm_v1.18.1\src/u8g_com_io.c **** }
 164              		.loc 1 337 0
 165 0010 0C37     		adds	r7, r7, #12
 166              		.cfi_def_cfa_offset 4
 167 0012 BD46     		mov	sp, r7
 168              		.cfi_def_cfa_register 13
 169              		@ sp needed
 170 0014 5DF8047B 		ldr	r7, [sp], #4
 171              		.cfi_restore 7
 172              		.cfi_def_cfa_offset 0
 173 0018 7047     		bx	lr
 174              		.cfi_endproc
 175              	.LFE3:
 176              		.size	u8g_SetPinLevel, .-u8g_SetPinLevel
ARM GAS  C:\Users\KJA\AppData\Local\Temp\cc5qKAoe.s 			page 10


 177 001a 00BF     		.section	.text.u8g_GetPinLevel,"ax",%progbits
 178              		.align	2
 179              		.global	u8g_GetPinLevel
 180              		.thumb
 181              		.thumb_func
 182              		.type	u8g_GetPinLevel, %function
 183              	u8g_GetPinLevel:
 184              	.LFB4:
 338:u8glib_arm_v1.18.1\src/u8g_com_io.c **** 
 339:u8glib_arm_v1.18.1\src/u8g_com_io.c **** uint8_t u8g_GetPinLevel(uint8_t internal_pin_number)
 340:u8glib_arm_v1.18.1\src/u8g_com_io.c **** {
 185              		.loc 1 340 0
 186              		.cfi_startproc
 187              		@ args = 0, pretend = 0, frame = 8
 188              		@ frame_needed = 1, uses_anonymous_args = 0
 189              		@ link register save eliminated.
 190 0000 80B4     		push	{r7}
 191              		.cfi_def_cfa_offset 4
 192              		.cfi_offset 7, -4
 193 0002 83B0     		sub	sp, sp, #12
 194              		.cfi_def_cfa_offset 16
 195 0004 00AF     		add	r7, sp, #0
 196              		.cfi_def_cfa_register 7
 197 0006 0346     		mov	r3, r0
 198 0008 FB71     		strb	r3, [r7, #7]
 341:u8glib_arm_v1.18.1\src/u8g_com_io.c ****   return 0;
 199              		.loc 1 341 0
 200 000a 0023     		movs	r3, #0
 342:u8glib_arm_v1.18.1\src/u8g_com_io.c **** }
 201              		.loc 1 342 0
 202 000c 1846     		mov	r0, r3
 203 000e 0C37     		adds	r7, r7, #12
 204              		.cfi_def_cfa_offset 4
 205 0010 BD46     		mov	sp, r7
 206              		.cfi_def_cfa_register 13
 207              		@ sp needed
 208 0012 5DF8047B 		ldr	r7, [sp], #4
 209              		.cfi_restore 7
 210              		.cfi_def_cfa_offset 0
 211 0016 7047     		bx	lr
 212              		.cfi_endproc
 213              	.LFE4:
 214              		.size	u8g_GetPinLevel, .-u8g_GetPinLevel
 215              		.section	.text.u8g_SetPIOutput,"ax",%progbits
 216              		.align	2
 217              		.global	u8g_SetPIOutput
 218              		.thumb
 219              		.thumb_func
 220              		.type	u8g_SetPIOutput, %function
 221              	u8g_SetPIOutput:
 222              	.LFB5:
 343:u8glib_arm_v1.18.1\src/u8g_com_io.c **** 
 344:u8glib_arm_v1.18.1\src/u8g_com_io.c **** #endif
 345:u8glib_arm_v1.18.1\src/u8g_com_io.c **** 
 346:u8glib_arm_v1.18.1\src/u8g_com_io.c **** 
 347:u8glib_arm_v1.18.1\src/u8g_com_io.c **** #if defined(U8G_WITH_PINLIST)
 348:u8glib_arm_v1.18.1\src/u8g_com_io.c **** 
ARM GAS  C:\Users\KJA\AppData\Local\Temp\cc5qKAoe.s 			page 11


 349:u8glib_arm_v1.18.1\src/u8g_com_io.c **** void u8g_SetPIOutput(u8g_t *u8g, uint8_t pi)
 350:u8glib_arm_v1.18.1\src/u8g_com_io.c **** {
 351:u8glib_arm_v1.18.1\src/u8g_com_io.c ****   uint8_t pin;
 352:u8glib_arm_v1.18.1\src/u8g_com_io.c ****   pin = u8g->pin_list[pi];
 353:u8glib_arm_v1.18.1\src/u8g_com_io.c ****   if ( pin != U8G_PIN_NONE )
 354:u8glib_arm_v1.18.1\src/u8g_com_io.c ****     u8g_SetPinOutput(pin);
 355:u8glib_arm_v1.18.1\src/u8g_com_io.c **** }
 356:u8glib_arm_v1.18.1\src/u8g_com_io.c **** 
 357:u8glib_arm_v1.18.1\src/u8g_com_io.c **** void u8g_SetPILevel(u8g_t *u8g, uint8_t pi, uint8_t level)
 358:u8glib_arm_v1.18.1\src/u8g_com_io.c **** {
 359:u8glib_arm_v1.18.1\src/u8g_com_io.c ****   uint8_t pin;
 360:u8glib_arm_v1.18.1\src/u8g_com_io.c ****   pin = u8g->pin_list[pi];
 361:u8glib_arm_v1.18.1\src/u8g_com_io.c ****   if ( pin != U8G_PIN_NONE )
 362:u8glib_arm_v1.18.1\src/u8g_com_io.c ****     u8g_SetPinLevel(pin, level);
 363:u8glib_arm_v1.18.1\src/u8g_com_io.c **** }
 364:u8glib_arm_v1.18.1\src/u8g_com_io.c **** 
 365:u8glib_arm_v1.18.1\src/u8g_com_io.c **** #else  /* defined(U8G_WITH_PINLIST) */
 366:u8glib_arm_v1.18.1\src/u8g_com_io.c **** void u8g_SetPIOutput(u8g_t *u8g, uint8_t pi)
 367:u8glib_arm_v1.18.1\src/u8g_com_io.c **** {
 223              		.loc 1 367 0
 224              		.cfi_startproc
 225              		@ args = 0, pretend = 0, frame = 8
 226              		@ frame_needed = 1, uses_anonymous_args = 0
 227              		@ link register save eliminated.
 228 0000 80B4     		push	{r7}
 229              		.cfi_def_cfa_offset 4
 230              		.cfi_offset 7, -4
 231 0002 83B0     		sub	sp, sp, #12
 232              		.cfi_def_cfa_offset 16
 233 0004 00AF     		add	r7, sp, #0
 234              		.cfi_def_cfa_register 7
 235 0006 7860     		str	r0, [r7, #4]
 236 0008 0B46     		mov	r3, r1
 237 000a FB70     		strb	r3, [r7, #3]
 368:u8glib_arm_v1.18.1\src/u8g_com_io.c **** }
 238              		.loc 1 368 0
 239 000c 0C37     		adds	r7, r7, #12
 240              		.cfi_def_cfa_offset 4
 241 000e BD46     		mov	sp, r7
 242              		.cfi_def_cfa_register 13
 243              		@ sp needed
 244 0010 5DF8047B 		ldr	r7, [sp], #4
 245              		.cfi_restore 7
 246              		.cfi_def_cfa_offset 0
 247 0014 7047     		bx	lr
 248              		.cfi_endproc
 249              	.LFE5:
 250              		.size	u8g_SetPIOutput, .-u8g_SetPIOutput
 251 0016 00BF     		.section	.text.u8g_SetPILevel,"ax",%progbits
 252              		.align	2
 253              		.global	u8g_SetPILevel
 254              		.thumb
 255              		.thumb_func
 256              		.type	u8g_SetPILevel, %function
 257              	u8g_SetPILevel:
 258              	.LFB6:
 369:u8glib_arm_v1.18.1\src/u8g_com_io.c **** 
ARM GAS  C:\Users\KJA\AppData\Local\Temp\cc5qKAoe.s 			page 12


 370:u8glib_arm_v1.18.1\src/u8g_com_io.c **** void u8g_SetPILevel(u8g_t *u8g, uint8_t pi, uint8_t level)
 371:u8glib_arm_v1.18.1\src/u8g_com_io.c **** {
 259              		.loc 1 371 0
 260              		.cfi_startproc
 261              		@ args = 0, pretend = 0, frame = 8
 262              		@ frame_needed = 1, uses_anonymous_args = 0
 263              		@ link register save eliminated.
 264 0000 80B4     		push	{r7}
 265              		.cfi_def_cfa_offset 4
 266              		.cfi_offset 7, -4
 267 0002 83B0     		sub	sp, sp, #12
 268              		.cfi_def_cfa_offset 16
 269 0004 00AF     		add	r7, sp, #0
 270              		.cfi_def_cfa_register 7
 271 0006 7860     		str	r0, [r7, #4]
 272 0008 0B46     		mov	r3, r1
 273 000a FB70     		strb	r3, [r7, #3]
 274 000c 1346     		mov	r3, r2
 275 000e BB70     		strb	r3, [r7, #2]
 372:u8glib_arm_v1.18.1\src/u8g_com_io.c **** }
 276              		.loc 1 372 0
 277 0010 0C37     		adds	r7, r7, #12
 278              		.cfi_def_cfa_offset 4
 279 0012 BD46     		mov	sp, r7
 280              		.cfi_def_cfa_register 13
 281              		@ sp needed
 282 0014 5DF8047B 		ldr	r7, [sp], #4
 283              		.cfi_restore 7
 284              		.cfi_def_cfa_offset 0
 285 0018 7047     		bx	lr
 286              		.cfi_endproc
 287              	.LFE6:
 288              		.size	u8g_SetPILevel, .-u8g_SetPILevel
 289 001a 00BF     		.text
 290              	.Letext0:
 291              		.file 2 "c:\\program files (x86)\\cypress\\psoc creator\\4.0\\psoc creator\\import\\gnu\\arm\\4.9.
 292              		.file 3 "c:\\program files (x86)\\cypress\\psoc creator\\4.0\\psoc creator\\import\\gnu\\arm\\4.9.
 293              		.file 4 "u8glib_arm_v1.18.1\\src\\u8g.h"