ARM GAS  C:\Users\Shiguruy\AppData\Local\Temp\ccdOWzje.s 			page 1


   1              		.syntax unified
   2              		.cpu cortex-m3
   3              		.fpu softvfp
   4              		.eabi_attribute 20, 1
   5              		.eabi_attribute 21, 1
   6              		.eabi_attribute 23, 3
   7              		.eabi_attribute 24, 1
   8              		.eabi_attribute 25, 1
   9              		.eabi_attribute 26, 1
  10              		.eabi_attribute 30, 6
  11              		.eabi_attribute 34, 1
  12              		.eabi_attribute 18, 4
  13              		.thumb
  14              		.file	"u8g_dev_st7565_nhd_c12864.c"
  15              		.text
  16              	.Ltext0:
  17              		.cfi_sections	.debug_frame
  18              		.global	u8g_dev_st7565_nhd_c12864_init_seq
  19              		.section	.rodata
  20              		.align	2
  21              		.type	u8g_dev_st7565_nhd_c12864_init_seq, %object
  22              		.size	u8g_dev_st7565_nhd_c12864_init_seq, 34
  23              	u8g_dev_st7565_nhd_c12864_init_seq:
  24 0000 FF       		.byte	-1
  25 0001 D0       		.byte	-48
  26 0002 FF       		.byte	-1
  27 0003 E0       		.byte	-32
  28 0004 FF       		.byte	-1
  29 0005 CA       		.byte	-54
  30 0006 FF       		.byte	-1
  31 0007 D1       		.byte	-47
  32 0008 40       		.byte	64
  33 0009 A1       		.byte	-95
  34 000a C0       		.byte	-64
  35 000b A6       		.byte	-90
  36 000c A2       		.byte	-94
  37 000d 2F       		.byte	47
  38 000e F8       		.byte	-8
  39 000f 00       		.byte	0
  40 0010 27       		.byte	39
  41 0011 81       		.byte	-127
  42 0012 08       		.byte	8
  43 0013 AC       		.byte	-84
  44 0014 00       		.byte	0
  45 0015 AF       		.byte	-81
  46 0016 FF       		.byte	-1
  47 0017 64       		.byte	100
  48 0018 A5       		.byte	-91
  49 0019 FF       		.byte	-1
  50 001a 64       		.byte	100
  51 001b FF       		.byte	-1
  52 001c 64       		.byte	100
  53 001d A4       		.byte	-92
  54 001e FF       		.byte	-1
  55 001f D0       		.byte	-48
  56 0020 FF       		.byte	-1
  57 0021 FE       		.byte	-2
ARM GAS  C:\Users\Shiguruy\AppData\Local\Temp\ccdOWzje.s 			page 2


  58 0022 0000     		.align	2
  59              		.type	u8g_dev_st7565_nhd_c12864_data_start, %object
  60              		.size	u8g_dev_st7565_nhd_c12864_data_start, 8
  61              	u8g_dev_st7565_nhd_c12864_data_start:
  62 0024 FF       		.byte	-1
  63 0025 E0       		.byte	-32
  64 0026 FF       		.byte	-1
  65 0027 D1       		.byte	-47
  66 0028 10       		.byte	16
  67 0029 04       		.byte	4
  68 002a FF       		.byte	-1
  69 002b FE       		.byte	-2
  70              		.align	2
  71              		.type	u8g_dev_st7565_c12864_sleep_on, %object
  72              		.size	u8g_dev_st7565_c12864_sleep_on, 12
  73              	u8g_dev_st7565_c12864_sleep_on:
  74 002c FF       		.byte	-1
  75 002d E0       		.byte	-32
  76 002e FF       		.byte	-1
  77 002f D1       		.byte	-47
  78 0030 AC       		.byte	-84
  79 0031 00       		.byte	0
  80 0032 AE       		.byte	-82
  81 0033 A5       		.byte	-91
  82 0034 FF       		.byte	-1
  83 0035 D0       		.byte	-48
  84 0036 FF       		.byte	-1
  85 0037 FE       		.byte	-2
  86              		.align	2
  87              		.type	u8g_dev_st7565_c12864_sleep_off, %object
  88              		.size	u8g_dev_st7565_c12864_sleep_off, 12
  89              	u8g_dev_st7565_c12864_sleep_off:
  90 0038 FF       		.byte	-1
  91 0039 E0       		.byte	-32
  92 003a FF       		.byte	-1
  93 003b D1       		.byte	-47
  94 003c A4       		.byte	-92
  95 003d AF       		.byte	-81
  96 003e FF       		.byte	-1
  97 003f 32       		.byte	50
  98 0040 FF       		.byte	-1
  99 0041 D0       		.byte	-48
 100 0042 FF       		.byte	-1
 101 0043 FE       		.byte	-2
 102              		.section	.text.u8g_dev_st7565_nhd_c12864_fn,"ax",%progbits
 103              		.align	2
 104              		.global	u8g_dev_st7565_nhd_c12864_fn
 105              		.thumb
 106              		.thumb_func
 107              		.type	u8g_dev_st7565_nhd_c12864_fn, %function
 108              	u8g_dev_st7565_nhd_c12864_fn:
 109              	.LFB0:
 110              		.file 1 ".\\u8glib_arm_v1.18.1\\src\\u8g_dev_st7565_nhd_c12864.c"
   1:.\u8glib_arm_v1.18.1\src/u8g_dev_st7565_nhd_c12864.c **** /*
   2:.\u8glib_arm_v1.18.1\src/u8g_dev_st7565_nhd_c12864.c **** 
   3:.\u8glib_arm_v1.18.1\src/u8g_dev_st7565_nhd_c12864.c ****   u8g_dev_st7565_nhd_c12864.c
   4:.\u8glib_arm_v1.18.1\src/u8g_dev_st7565_nhd_c12864.c **** 
ARM GAS  C:\Users\Shiguruy\AppData\Local\Temp\ccdOWzje.s 			page 3


   5:.\u8glib_arm_v1.18.1\src/u8g_dev_st7565_nhd_c12864.c ****   Support for the NHD-C12864A1Z-FSB-FBW (Newhaven Display)
   6:.\u8glib_arm_v1.18.1\src/u8g_dev_st7565_nhd_c12864.c **** 
   7:.\u8glib_arm_v1.18.1\src/u8g_dev_st7565_nhd_c12864.c ****   Universal 8bit Graphics Library
   8:.\u8glib_arm_v1.18.1\src/u8g_dev_st7565_nhd_c12864.c ****   
   9:.\u8glib_arm_v1.18.1\src/u8g_dev_st7565_nhd_c12864.c ****   Copyright (c) 2012, olikraus@gmail.com
  10:.\u8glib_arm_v1.18.1\src/u8g_dev_st7565_nhd_c12864.c ****   All rights reserved.
  11:.\u8glib_arm_v1.18.1\src/u8g_dev_st7565_nhd_c12864.c **** 
  12:.\u8glib_arm_v1.18.1\src/u8g_dev_st7565_nhd_c12864.c ****   Redistribution and use in source and binary forms, with or without modification, 
  13:.\u8glib_arm_v1.18.1\src/u8g_dev_st7565_nhd_c12864.c ****   are permitted provided that the following conditions are met:
  14:.\u8glib_arm_v1.18.1\src/u8g_dev_st7565_nhd_c12864.c **** 
  15:.\u8glib_arm_v1.18.1\src/u8g_dev_st7565_nhd_c12864.c ****   * Redistributions of source code must retain the above copyright notice, this list 
  16:.\u8glib_arm_v1.18.1\src/u8g_dev_st7565_nhd_c12864.c ****     of conditions and the following disclaimer.
  17:.\u8glib_arm_v1.18.1\src/u8g_dev_st7565_nhd_c12864.c ****     
  18:.\u8glib_arm_v1.18.1\src/u8g_dev_st7565_nhd_c12864.c ****   * Redistributions in binary form must reproduce the above copyright notice, this 
  19:.\u8glib_arm_v1.18.1\src/u8g_dev_st7565_nhd_c12864.c ****     list of conditions and the following disclaimer in the documentation and/or other 
  20:.\u8glib_arm_v1.18.1\src/u8g_dev_st7565_nhd_c12864.c ****     materials provided with the distribution.
  21:.\u8glib_arm_v1.18.1\src/u8g_dev_st7565_nhd_c12864.c **** 
  22:.\u8glib_arm_v1.18.1\src/u8g_dev_st7565_nhd_c12864.c ****   THIS SOFTWARE IS PROVIDED BY THE COPYRIGHT HOLDERS AND 
  23:.\u8glib_arm_v1.18.1\src/u8g_dev_st7565_nhd_c12864.c ****   CONTRIBUTORS "AS IS" AND ANY EXPRESS OR IMPLIED WARRANTIES, 
  24:.\u8glib_arm_v1.18.1\src/u8g_dev_st7565_nhd_c12864.c ****   INCLUDING, BUT NOT LIMITED TO, THE IMPLIED WARRANTIES OF 
  25:.\u8glib_arm_v1.18.1\src/u8g_dev_st7565_nhd_c12864.c ****   MERCHANTABILITY AND FITNESS FOR A PARTICULAR PURPOSE ARE 
  26:.\u8glib_arm_v1.18.1\src/u8g_dev_st7565_nhd_c12864.c ****   DISCLAIMED. IN NO EVENT SHALL THE COPYRIGHT HOLDER OR 
  27:.\u8glib_arm_v1.18.1\src/u8g_dev_st7565_nhd_c12864.c ****   CONTRIBUTORS BE LIABLE FOR ANY DIRECT, INDIRECT, INCIDENTAL, 
  28:.\u8glib_arm_v1.18.1\src/u8g_dev_st7565_nhd_c12864.c ****   SPECIAL, EXEMPLARY, OR CONSEQUENTIAL DAMAGES (INCLUDING, BUT 
  29:.\u8glib_arm_v1.18.1\src/u8g_dev_st7565_nhd_c12864.c ****   NOT LIMITED TO, PROCUREMENT OF SUBSTITUTE GOODS OR SERVICES; 
  30:.\u8glib_arm_v1.18.1\src/u8g_dev_st7565_nhd_c12864.c ****   LOSS OF USE, DATA, OR PROFITS; OR BUSINESS INTERRUPTION) HOWEVER 
  31:.\u8glib_arm_v1.18.1\src/u8g_dev_st7565_nhd_c12864.c ****   CAUSED AND ON ANY THEORY OF LIABILITY, WHETHER IN CONTRACT, 
  32:.\u8glib_arm_v1.18.1\src/u8g_dev_st7565_nhd_c12864.c ****   STRICT LIABILITY, OR TORT (INCLUDING NEGLIGENCE OR OTHERWISE) 
  33:.\u8glib_arm_v1.18.1\src/u8g_dev_st7565_nhd_c12864.c ****   ARISING IN ANY WAY OUT OF THE USE OF THIS SOFTWARE, EVEN IF 
  34:.\u8glib_arm_v1.18.1\src/u8g_dev_st7565_nhd_c12864.c ****   ADVISED OF THE POSSIBILITY OF SUCH DAMAGE.  
  35:.\u8glib_arm_v1.18.1\src/u8g_dev_st7565_nhd_c12864.c ****   
  36:.\u8glib_arm_v1.18.1\src/u8g_dev_st7565_nhd_c12864.c ****   
  37:.\u8glib_arm_v1.18.1\src/u8g_dev_st7565_nhd_c12864.c **** */
  38:.\u8glib_arm_v1.18.1\src/u8g_dev_st7565_nhd_c12864.c **** 
  39:.\u8glib_arm_v1.18.1\src/u8g_dev_st7565_nhd_c12864.c **** #include "u8g.h"
  40:.\u8glib_arm_v1.18.1\src/u8g_dev_st7565_nhd_c12864.c **** 
  41:.\u8glib_arm_v1.18.1\src/u8g_dev_st7565_nhd_c12864.c **** #define WIDTH 128
  42:.\u8glib_arm_v1.18.1\src/u8g_dev_st7565_nhd_c12864.c **** #define HEIGHT 64
  43:.\u8glib_arm_v1.18.1\src/u8g_dev_st7565_nhd_c12864.c **** #define PAGE_HEIGHT 8
  44:.\u8glib_arm_v1.18.1\src/u8g_dev_st7565_nhd_c12864.c **** 
  45:.\u8glib_arm_v1.18.1\src/u8g_dev_st7565_nhd_c12864.c **** const uint8_t u8g_dev_st7565_nhd_c12864_init_seq[] PROGMEM = {
  46:.\u8glib_arm_v1.18.1\src/u8g_dev_st7565_nhd_c12864.c ****   U8G_ESC_CS(0),             /* disable chip */
  47:.\u8glib_arm_v1.18.1\src/u8g_dev_st7565_nhd_c12864.c ****   U8G_ESC_ADR(0),           /* instruction mode */
  48:.\u8glib_arm_v1.18.1\src/u8g_dev_st7565_nhd_c12864.c ****   U8G_ESC_RST(10),           /* do reset low pulse with (10*16)+2 milliseconds */
  49:.\u8glib_arm_v1.18.1\src/u8g_dev_st7565_nhd_c12864.c ****   U8G_ESC_CS(1),             /* enable chip */
  50:.\u8glib_arm_v1.18.1\src/u8g_dev_st7565_nhd_c12864.c ****   
  51:.\u8glib_arm_v1.18.1\src/u8g_dev_st7565_nhd_c12864.c ****   0x040,		                /* set display start line */
  52:.\u8glib_arm_v1.18.1\src/u8g_dev_st7565_nhd_c12864.c ****   0x0a1,		                /* ADC set to reverse */
  53:.\u8glib_arm_v1.18.1\src/u8g_dev_st7565_nhd_c12864.c ****   0x0c0,		                /* common output mode: set scan direction normal operation */
  54:.\u8glib_arm_v1.18.1\src/u8g_dev_st7565_nhd_c12864.c ****   0x0a6,                           /* display normal, bit val 0: LCD pixel off. */
  55:.\u8glib_arm_v1.18.1\src/u8g_dev_st7565_nhd_c12864.c ****   0x0a2,		                /* LCD bias 1/9 */
  56:.\u8glib_arm_v1.18.1\src/u8g_dev_st7565_nhd_c12864.c ****   0x02f,		                /* all power  control circuits on */
  57:.\u8glib_arm_v1.18.1\src/u8g_dev_st7565_nhd_c12864.c ****   0x0f8,		                /* set booster ratio to */
  58:.\u8glib_arm_v1.18.1\src/u8g_dev_st7565_nhd_c12864.c ****   0x000,		                /* 4x */
  59:.\u8glib_arm_v1.18.1\src/u8g_dev_st7565_nhd_c12864.c ****   0x027,		                /* set V0 voltage resistor ratio to large */
  60:.\u8glib_arm_v1.18.1\src/u8g_dev_st7565_nhd_c12864.c ****   0x081,		                /* set contrast */
  61:.\u8glib_arm_v1.18.1\src/u8g_dev_st7565_nhd_c12864.c ****   0x008,		                /* contrast: 0x008 is a good value for NHD C12864, Nov 2012: User reports
ARM GAS  C:\Users\Shiguruy\AppData\Local\Temp\ccdOWzje.s 			page 4


  62:.\u8glib_arm_v1.18.1\src/u8g_dev_st7565_nhd_c12864.c ****   0x0ac,		                /* indicator */
  63:.\u8glib_arm_v1.18.1\src/u8g_dev_st7565_nhd_c12864.c ****   0x000,		                /* disable */
  64:.\u8glib_arm_v1.18.1\src/u8g_dev_st7565_nhd_c12864.c ****   0x0af,		                /* display on */
  65:.\u8glib_arm_v1.18.1\src/u8g_dev_st7565_nhd_c12864.c **** 
  66:.\u8glib_arm_v1.18.1\src/u8g_dev_st7565_nhd_c12864.c ****   U8G_ESC_DLY(100),       /* delay 100 ms */
  67:.\u8glib_arm_v1.18.1\src/u8g_dev_st7565_nhd_c12864.c ****   0x0a5,		                /* display all points, ST7565 */
  68:.\u8glib_arm_v1.18.1\src/u8g_dev_st7565_nhd_c12864.c ****   U8G_ESC_DLY(100),       /* delay 100 ms */
  69:.\u8glib_arm_v1.18.1\src/u8g_dev_st7565_nhd_c12864.c ****   U8G_ESC_DLY(100),       /* delay 100 ms */
  70:.\u8glib_arm_v1.18.1\src/u8g_dev_st7565_nhd_c12864.c ****   0x0a4,		                /* normal display */
  71:.\u8glib_arm_v1.18.1\src/u8g_dev_st7565_nhd_c12864.c ****   U8G_ESC_CS(0),             /* disable chip */
  72:.\u8glib_arm_v1.18.1\src/u8g_dev_st7565_nhd_c12864.c ****   U8G_ESC_END                /* end of sequence */
  73:.\u8glib_arm_v1.18.1\src/u8g_dev_st7565_nhd_c12864.c **** };
  74:.\u8glib_arm_v1.18.1\src/u8g_dev_st7565_nhd_c12864.c **** 
  75:.\u8glib_arm_v1.18.1\src/u8g_dev_st7565_nhd_c12864.c **** static const uint8_t u8g_dev_st7565_nhd_c12864_data_start[] PROGMEM = {
  76:.\u8glib_arm_v1.18.1\src/u8g_dev_st7565_nhd_c12864.c ****   U8G_ESC_ADR(0),           /* instruction mode */
  77:.\u8glib_arm_v1.18.1\src/u8g_dev_st7565_nhd_c12864.c ****   U8G_ESC_CS(1),             /* enable chip */
  78:.\u8glib_arm_v1.18.1\src/u8g_dev_st7565_nhd_c12864.c ****   0x010,		/* set upper 4 bit of the col adr to 0 */
  79:.\u8glib_arm_v1.18.1\src/u8g_dev_st7565_nhd_c12864.c ****   0x004,		/* set lower 4 bit of the col adr to 4 (NHD C12864) */  
  80:.\u8glib_arm_v1.18.1\src/u8g_dev_st7565_nhd_c12864.c ****   U8G_ESC_END                /* end of sequence */
  81:.\u8glib_arm_v1.18.1\src/u8g_dev_st7565_nhd_c12864.c **** };
  82:.\u8glib_arm_v1.18.1\src/u8g_dev_st7565_nhd_c12864.c **** 
  83:.\u8glib_arm_v1.18.1\src/u8g_dev_st7565_nhd_c12864.c **** static const uint8_t u8g_dev_st7565_c12864_sleep_on[] PROGMEM = {
  84:.\u8glib_arm_v1.18.1\src/u8g_dev_st7565_nhd_c12864.c ****   U8G_ESC_ADR(0),           /* instruction mode */
  85:.\u8glib_arm_v1.18.1\src/u8g_dev_st7565_nhd_c12864.c ****   U8G_ESC_CS(1),             /* enable chip */
  86:.\u8glib_arm_v1.18.1\src/u8g_dev_st7565_nhd_c12864.c ****   0x0ac,		/* static indicator off */
  87:.\u8glib_arm_v1.18.1\src/u8g_dev_st7565_nhd_c12864.c ****   0x000,		                /* indicator register set (not sure if this is required) */
  88:.\u8glib_arm_v1.18.1\src/u8g_dev_st7565_nhd_c12864.c ****   0x0ae,		/* display off */      
  89:.\u8glib_arm_v1.18.1\src/u8g_dev_st7565_nhd_c12864.c ****   0x0a5,		/* all points on */      
  90:.\u8glib_arm_v1.18.1\src/u8g_dev_st7565_nhd_c12864.c ****   U8G_ESC_CS(0),             /* disable chip, bugfix 12 nov 2014 */
  91:.\u8glib_arm_v1.18.1\src/u8g_dev_st7565_nhd_c12864.c ****   U8G_ESC_END                /* end of sequence */
  92:.\u8glib_arm_v1.18.1\src/u8g_dev_st7565_nhd_c12864.c **** };
  93:.\u8glib_arm_v1.18.1\src/u8g_dev_st7565_nhd_c12864.c **** 
  94:.\u8glib_arm_v1.18.1\src/u8g_dev_st7565_nhd_c12864.c **** static const uint8_t u8g_dev_st7565_c12864_sleep_off[] PROGMEM = {
  95:.\u8glib_arm_v1.18.1\src/u8g_dev_st7565_nhd_c12864.c ****   U8G_ESC_ADR(0),           /* instruction mode */
  96:.\u8glib_arm_v1.18.1\src/u8g_dev_st7565_nhd_c12864.c ****   U8G_ESC_CS(1),             /* enable chip */
  97:.\u8glib_arm_v1.18.1\src/u8g_dev_st7565_nhd_c12864.c ****   0x0a4,		/* all points off */      
  98:.\u8glib_arm_v1.18.1\src/u8g_dev_st7565_nhd_c12864.c ****   0x0af,		/* display on */      
  99:.\u8glib_arm_v1.18.1\src/u8g_dev_st7565_nhd_c12864.c ****   U8G_ESC_DLY(50),       /* delay 50 ms */
 100:.\u8glib_arm_v1.18.1\src/u8g_dev_st7565_nhd_c12864.c ****   U8G_ESC_CS(0),             /* disable chip, bugfix 12 nov 2014 */
 101:.\u8glib_arm_v1.18.1\src/u8g_dev_st7565_nhd_c12864.c ****   U8G_ESC_END                /* end of sequence */
 102:.\u8glib_arm_v1.18.1\src/u8g_dev_st7565_nhd_c12864.c **** };
 103:.\u8glib_arm_v1.18.1\src/u8g_dev_st7565_nhd_c12864.c **** 
 104:.\u8glib_arm_v1.18.1\src/u8g_dev_st7565_nhd_c12864.c **** uint8_t u8g_dev_st7565_nhd_c12864_fn(u8g_t *u8g, u8g_dev_t *dev, uint8_t msg, void *arg)
 105:.\u8glib_arm_v1.18.1\src/u8g_dev_st7565_nhd_c12864.c **** {
 111              		.loc 1 105 0
 112              		.cfi_startproc
 113              		@ args = 0, pretend = 0, frame = 24
 114              		@ frame_needed = 1, uses_anonymous_args = 0
 115 0000 80B5     		push	{r7, lr}
 116              		.cfi_def_cfa_offset 8
 117              		.cfi_offset 7, -8
 118              		.cfi_offset 14, -4
 119 0002 86B0     		sub	sp, sp, #24
 120              		.cfi_def_cfa_offset 32
 121 0004 00AF     		add	r7, sp, #0
 122              		.cfi_def_cfa_register 7
 123 0006 F860     		str	r0, [r7, #12]
ARM GAS  C:\Users\Shiguruy\AppData\Local\Temp\ccdOWzje.s 			page 5


 124 0008 B960     		str	r1, [r7, #8]
 125 000a 3B60     		str	r3, [r7]
 126 000c 1346     		mov	r3, r2
 127 000e FB71     		strb	r3, [r7, #7]
 106:.\u8glib_arm_v1.18.1\src/u8g_dev_st7565_nhd_c12864.c ****   switch(msg)
 128              		.loc 1 106 0
 129 0010 FB79     		ldrb	r3, [r7, #7]	@ zero_extendqisi2
 130 0012 0A3B     		subs	r3, r3, #10
 131 0014 0B2B     		cmp	r3, #11
 132 0016 7AD8     		bhi	.L2
 133 0018 01A2     		adr	r2, .L4
 134 001a 52F823F0 		ldr	pc, [r2, r3, lsl #2]
 135 001e 00BF     		.p2align 2
 136              	.L4:
 137 0020 51000000 		.word	.L3+1
 138 0024 0F010000 		.word	.L2+1
 139 0028 0F010000 		.word	.L2+1
 140 002c 0F010000 		.word	.L2+1
 141 0030 0F010000 		.word	.L2+1
 142 0034 B5000000 		.word	.L6+1
 143 0038 F3000000 		.word	.L7+1
 144 003c 01010000 		.word	.L8+1
 145 0040 0F010000 		.word	.L2+1
 146 0044 0F010000 		.word	.L2+1
 147 0048 0F010000 		.word	.L2+1
 148 004c 67000000 		.word	.L9+1
 149              		.p2align 1
 150              	.L3:
 107:.\u8glib_arm_v1.18.1\src/u8g_dev_st7565_nhd_c12864.c ****   {
 108:.\u8glib_arm_v1.18.1\src/u8g_dev_st7565_nhd_c12864.c ****     case U8G_DEV_MSG_INIT:
 109:.\u8glib_arm_v1.18.1\src/u8g_dev_st7565_nhd_c12864.c ****       u8g_InitCom(u8g, dev, U8G_SPI_CLK_CYCLE_400NS);
 151              		.loc 1 109 0
 152 0050 F868     		ldr	r0, [r7, #12]
 153 0052 B968     		ldr	r1, [r7, #8]
 154 0054 0322     		movs	r2, #3
 155 0056 FFF7FEFF 		bl	u8g_InitCom
 110:.\u8glib_arm_v1.18.1\src/u8g_dev_st7565_nhd_c12864.c ****       u8g_WriteEscSeqP(u8g, dev, u8g_dev_st7565_nhd_c12864_init_seq);
 156              		.loc 1 110 0
 157 005a F868     		ldr	r0, [r7, #12]
 158 005c B968     		ldr	r1, [r7, #8]
 159 005e 324A     		ldr	r2, .L12
 160 0060 FFF7FEFF 		bl	u8g_WriteEscSeqP
 111:.\u8glib_arm_v1.18.1\src/u8g_dev_st7565_nhd_c12864.c ****       break;
 161              		.loc 1 111 0
 162 0064 53E0     		b	.L2
 163              	.L9:
 164              	.LBB2:
 112:.\u8glib_arm_v1.18.1\src/u8g_dev_st7565_nhd_c12864.c ****     case U8G_DEV_MSG_STOP:
 113:.\u8glib_arm_v1.18.1\src/u8g_dev_st7565_nhd_c12864.c ****       break;
 114:.\u8glib_arm_v1.18.1\src/u8g_dev_st7565_nhd_c12864.c ****     case U8G_DEV_MSG_PAGE_NEXT:
 115:.\u8glib_arm_v1.18.1\src/u8g_dev_st7565_nhd_c12864.c ****       {
 116:.\u8glib_arm_v1.18.1\src/u8g_dev_st7565_nhd_c12864.c ****         u8g_pb_t *pb = (u8g_pb_t *)(dev->dev_mem);
 165              		.loc 1 116 0
 166 0066 BB68     		ldr	r3, [r7, #8]
 167 0068 5B68     		ldr	r3, [r3, #4]
 168 006a 7B61     		str	r3, [r7, #20]
 117:.\u8glib_arm_v1.18.1\src/u8g_dev_st7565_nhd_c12864.c ****         u8g_WriteEscSeqP(u8g, dev, u8g_dev_st7565_nhd_c12864_data_start);    
ARM GAS  C:\Users\Shiguruy\AppData\Local\Temp\ccdOWzje.s 			page 6


 169              		.loc 1 117 0
 170 006c F868     		ldr	r0, [r7, #12]
 171 006e B968     		ldr	r1, [r7, #8]
 172 0070 2E4A     		ldr	r2, .L12+4
 173 0072 FFF7FEFF 		bl	u8g_WriteEscSeqP
 118:.\u8glib_arm_v1.18.1\src/u8g_dev_st7565_nhd_c12864.c ****         u8g_WriteByte(u8g, dev, 0x0b0 | pb->p.page); /* select current page (ST7565R) */
 174              		.loc 1 118 0
 175 0076 7B69     		ldr	r3, [r7, #20]
 176 0078 1B79     		ldrb	r3, [r3, #4]	@ zero_extendqisi2
 177 007a 63F04F03 		orn	r3, r3, #79
 178 007e DBB2     		uxtb	r3, r3
 179 0080 F868     		ldr	r0, [r7, #12]
 180 0082 B968     		ldr	r1, [r7, #8]
 181 0084 1A46     		mov	r2, r3
 182 0086 FFF7FEFF 		bl	u8g_WriteByte
 119:.\u8glib_arm_v1.18.1\src/u8g_dev_st7565_nhd_c12864.c ****         u8g_SetAddress(u8g, dev, 1);           /* data mode */
 183              		.loc 1 119 0
 184 008a F868     		ldr	r0, [r7, #12]
 185 008c B968     		ldr	r1, [r7, #8]
 186 008e 0122     		movs	r2, #1
 187 0090 FFF7FEFF 		bl	u8g_SetAddress
 120:.\u8glib_arm_v1.18.1\src/u8g_dev_st7565_nhd_c12864.c ****         if ( u8g_pb_WriteBuffer(pb, u8g, dev) == 0 )
 188              		.loc 1 120 0
 189 0094 7869     		ldr	r0, [r7, #20]
 190 0096 F968     		ldr	r1, [r7, #12]
 191 0098 BA68     		ldr	r2, [r7, #8]
 192 009a FFF7FEFF 		bl	u8g_pb_WriteBuffer
 193 009e 0346     		mov	r3, r0
 194 00a0 002B     		cmp	r3, #0
 195 00a2 01D1     		bne	.L10
 121:.\u8glib_arm_v1.18.1\src/u8g_dev_st7565_nhd_c12864.c ****           return 0;
 196              		.loc 1 121 0
 197 00a4 0023     		movs	r3, #0
 198 00a6 3AE0     		b	.L11
 199              	.L10:
 122:.\u8glib_arm_v1.18.1\src/u8g_dev_st7565_nhd_c12864.c ****         u8g_SetChipSelect(u8g, dev, 0);
 200              		.loc 1 122 0
 201 00a8 F868     		ldr	r0, [r7, #12]
 202 00aa B968     		ldr	r1, [r7, #8]
 203 00ac 0022     		movs	r2, #0
 204 00ae FFF7FEFF 		bl	u8g_SetChipSelect
 205              	.LBE2:
 123:.\u8glib_arm_v1.18.1\src/u8g_dev_st7565_nhd_c12864.c ****       }
 124:.\u8glib_arm_v1.18.1\src/u8g_dev_st7565_nhd_c12864.c ****       break;
 206              		.loc 1 124 0
 207 00b2 2CE0     		b	.L2
 208              	.L6:
 125:.\u8glib_arm_v1.18.1\src/u8g_dev_st7565_nhd_c12864.c ****     case U8G_DEV_MSG_CONTRAST:
 126:.\u8glib_arm_v1.18.1\src/u8g_dev_st7565_nhd_c12864.c ****       u8g_SetChipSelect(u8g, dev, 1);
 209              		.loc 1 126 0
 210 00b4 F868     		ldr	r0, [r7, #12]
 211 00b6 B968     		ldr	r1, [r7, #8]
 212 00b8 0122     		movs	r2, #1
 213 00ba FFF7FEFF 		bl	u8g_SetChipSelect
 127:.\u8glib_arm_v1.18.1\src/u8g_dev_st7565_nhd_c12864.c ****       u8g_SetAddress(u8g, dev, 0);          /* instruction mode */
 214              		.loc 1 127 0
 215 00be F868     		ldr	r0, [r7, #12]
ARM GAS  C:\Users\Shiguruy\AppData\Local\Temp\ccdOWzje.s 			page 7


 216 00c0 B968     		ldr	r1, [r7, #8]
 217 00c2 0022     		movs	r2, #0
 218 00c4 FFF7FEFF 		bl	u8g_SetAddress
 128:.\u8glib_arm_v1.18.1\src/u8g_dev_st7565_nhd_c12864.c ****       u8g_WriteByte(u8g, dev, 0x081);
 219              		.loc 1 128 0
 220 00c8 F868     		ldr	r0, [r7, #12]
 221 00ca B968     		ldr	r1, [r7, #8]
 222 00cc 8122     		movs	r2, #129
 223 00ce FFF7FEFF 		bl	u8g_WriteByte
 129:.\u8glib_arm_v1.18.1\src/u8g_dev_st7565_nhd_c12864.c ****       u8g_WriteByte(u8g, dev, (*(uint8_t *)arg) >> 2);
 224              		.loc 1 129 0
 225 00d2 3B68     		ldr	r3, [r7]
 226 00d4 1B78     		ldrb	r3, [r3]	@ zero_extendqisi2
 227 00d6 9B08     		lsrs	r3, r3, #2
 228 00d8 DBB2     		uxtb	r3, r3
 229 00da F868     		ldr	r0, [r7, #12]
 230 00dc B968     		ldr	r1, [r7, #8]
 231 00de 1A46     		mov	r2, r3
 232 00e0 FFF7FEFF 		bl	u8g_WriteByte
 130:.\u8glib_arm_v1.18.1\src/u8g_dev_st7565_nhd_c12864.c ****       u8g_SetChipSelect(u8g, dev, 0);      
 233              		.loc 1 130 0
 234 00e4 F868     		ldr	r0, [r7, #12]
 235 00e6 B968     		ldr	r1, [r7, #8]
 236 00e8 0022     		movs	r2, #0
 237 00ea FFF7FEFF 		bl	u8g_SetChipSelect
 131:.\u8glib_arm_v1.18.1\src/u8g_dev_st7565_nhd_c12864.c ****       return 1;
 238              		.loc 1 131 0
 239 00ee 0123     		movs	r3, #1
 240 00f0 15E0     		b	.L11
 241              	.L7:
 132:.\u8glib_arm_v1.18.1\src/u8g_dev_st7565_nhd_c12864.c ****     case U8G_DEV_MSG_SLEEP_ON:
 133:.\u8glib_arm_v1.18.1\src/u8g_dev_st7565_nhd_c12864.c ****       u8g_WriteEscSeqP(u8g, dev, u8g_dev_st7565_c12864_sleep_on);    
 242              		.loc 1 133 0
 243 00f2 F868     		ldr	r0, [r7, #12]
 244 00f4 B968     		ldr	r1, [r7, #8]
 245 00f6 0E4A     		ldr	r2, .L12+8
 246 00f8 FFF7FEFF 		bl	u8g_WriteEscSeqP
 134:.\u8glib_arm_v1.18.1\src/u8g_dev_st7565_nhd_c12864.c ****       return 1;
 247              		.loc 1 134 0
 248 00fc 0123     		movs	r3, #1
 249 00fe 0EE0     		b	.L11
 250              	.L8:
 135:.\u8glib_arm_v1.18.1\src/u8g_dev_st7565_nhd_c12864.c ****     case U8G_DEV_MSG_SLEEP_OFF:
 136:.\u8glib_arm_v1.18.1\src/u8g_dev_st7565_nhd_c12864.c ****       u8g_WriteEscSeqP(u8g, dev, u8g_dev_st7565_c12864_sleep_off);    
 251              		.loc 1 136 0
 252 0100 F868     		ldr	r0, [r7, #12]
 253 0102 B968     		ldr	r1, [r7, #8]
 254 0104 0B4A     		ldr	r2, .L12+12
 255 0106 FFF7FEFF 		bl	u8g_WriteEscSeqP
 137:.\u8glib_arm_v1.18.1\src/u8g_dev_st7565_nhd_c12864.c ****       return 1;
 256              		.loc 1 137 0
 257 010a 0123     		movs	r3, #1
 258 010c 07E0     		b	.L11
 259              	.L2:
 138:.\u8glib_arm_v1.18.1\src/u8g_dev_st7565_nhd_c12864.c ****   }
 139:.\u8glib_arm_v1.18.1\src/u8g_dev_st7565_nhd_c12864.c ****   return u8g_dev_pb8v1_base_fn(u8g, dev, msg, arg);
 260              		.loc 1 139 0
ARM GAS  C:\Users\Shiguruy\AppData\Local\Temp\ccdOWzje.s 			page 8


 261 010e FB79     		ldrb	r3, [r7, #7]	@ zero_extendqisi2
 262 0110 F868     		ldr	r0, [r7, #12]
 263 0112 B968     		ldr	r1, [r7, #8]
 264 0114 1A46     		mov	r2, r3
 265 0116 3B68     		ldr	r3, [r7]
 266 0118 FFF7FEFF 		bl	u8g_dev_pb8v1_base_fn
 267 011c 0346     		mov	r3, r0
 268              	.L11:
 140:.\u8glib_arm_v1.18.1\src/u8g_dev_st7565_nhd_c12864.c **** }
 269              		.loc 1 140 0
 270 011e 1846     		mov	r0, r3
 271 0120 1837     		adds	r7, r7, #24
 272              		.cfi_def_cfa_offset 8
 273 0122 BD46     		mov	sp, r7
 274              		.cfi_def_cfa_register 13
 275              		@ sp needed
 276 0124 80BD     		pop	{r7, pc}
 277              	.L13:
 278 0126 00BF     		.align	2
 279              	.L12:
 280 0128 00000000 		.word	u8g_dev_st7565_nhd_c12864_init_seq
 281 012c 24000000 		.word	u8g_dev_st7565_nhd_c12864_data_start
 282 0130 2C000000 		.word	u8g_dev_st7565_c12864_sleep_on
 283 0134 38000000 		.word	u8g_dev_st7565_c12864_sleep_off
 284              		.cfi_endproc
 285              	.LFE0:
 286              		.size	u8g_dev_st7565_nhd_c12864_fn, .-u8g_dev_st7565_nhd_c12864_fn
 287              		.section	.text.u8g_dev_st7565_nhd_c12864_2x_fn,"ax",%progbits
 288              		.align	2
 289              		.global	u8g_dev_st7565_nhd_c12864_2x_fn
 290              		.thumb
 291              		.thumb_func
 292              		.type	u8g_dev_st7565_nhd_c12864_2x_fn, %function
 293              	u8g_dev_st7565_nhd_c12864_2x_fn:
 294              	.LFB1:
 141:.\u8glib_arm_v1.18.1\src/u8g_dev_st7565_nhd_c12864.c **** 
 142:.\u8glib_arm_v1.18.1\src/u8g_dev_st7565_nhd_c12864.c **** uint8_t u8g_dev_st7565_nhd_c12864_2x_fn(u8g_t *u8g, u8g_dev_t *dev, uint8_t msg, void *arg)
 143:.\u8glib_arm_v1.18.1\src/u8g_dev_st7565_nhd_c12864.c **** {
 295              		.loc 1 143 0
 296              		.cfi_startproc
 297              		@ args = 0, pretend = 0, frame = 24
 298              		@ frame_needed = 1, uses_anonymous_args = 0
 299 0000 90B5     		push	{r4, r7, lr}
 300              		.cfi_def_cfa_offset 12
 301              		.cfi_offset 4, -12
 302              		.cfi_offset 7, -8
 303              		.cfi_offset 14, -4
 304 0002 87B0     		sub	sp, sp, #28
 305              		.cfi_def_cfa_offset 40
 306 0004 00AF     		add	r7, sp, #0
 307              		.cfi_def_cfa_register 7
 308 0006 F860     		str	r0, [r7, #12]
 309 0008 B960     		str	r1, [r7, #8]
 310 000a 3B60     		str	r3, [r7]
 311 000c 1346     		mov	r3, r2
 312 000e FB71     		strb	r3, [r7, #7]
 144:.\u8glib_arm_v1.18.1\src/u8g_dev_st7565_nhd_c12864.c ****   switch(msg)
ARM GAS  C:\Users\Shiguruy\AppData\Local\Temp\ccdOWzje.s 			page 9


 313              		.loc 1 144 0
 314 0010 FB79     		ldrb	r3, [r7, #7]	@ zero_extendqisi2
 315 0012 0A3B     		subs	r3, r3, #10
 316 0014 0B2B     		cmp	r3, #11
 317 0016 00F2A780 		bhi	.L15
 318 001a 01A2     		adr	r2, .L17
 319 001c 52F823F0 		ldr	pc, [r2, r3, lsl #2]
 320              		.p2align 2
 321              	.L17:
 322 0020 51000000 		.word	.L16+1
 323 0024 69010000 		.word	.L15+1
 324 0028 69010000 		.word	.L15+1
 325 002c 69010000 		.word	.L15+1
 326 0030 69010000 		.word	.L15+1
 327 0034 0F010000 		.word	.L19+1
 328 0038 4D010000 		.word	.L20+1
 329 003c 5B010000 		.word	.L21+1
 330 0040 69010000 		.word	.L15+1
 331 0044 69010000 		.word	.L15+1
 332 0048 69010000 		.word	.L15+1
 333 004c 67000000 		.word	.L22+1
 334              		.p2align 1
 335              	.L16:
 145:.\u8glib_arm_v1.18.1\src/u8g_dev_st7565_nhd_c12864.c ****   {
 146:.\u8glib_arm_v1.18.1\src/u8g_dev_st7565_nhd_c12864.c ****     case U8G_DEV_MSG_INIT:
 147:.\u8glib_arm_v1.18.1\src/u8g_dev_st7565_nhd_c12864.c ****       u8g_InitCom(u8g, dev, U8G_SPI_CLK_CYCLE_400NS);
 336              		.loc 1 147 0
 337 0050 F868     		ldr	r0, [r7, #12]
 338 0052 B968     		ldr	r1, [r7, #8]
 339 0054 0322     		movs	r2, #3
 340 0056 FFF7FEFF 		bl	u8g_InitCom
 148:.\u8glib_arm_v1.18.1\src/u8g_dev_st7565_nhd_c12864.c ****       u8g_WriteEscSeqP(u8g, dev, u8g_dev_st7565_nhd_c12864_init_seq);
 341              		.loc 1 148 0
 342 005a F868     		ldr	r0, [r7, #12]
 343 005c B968     		ldr	r1, [r7, #8]
 344 005e 484A     		ldr	r2, .L24
 345 0060 FFF7FEFF 		bl	u8g_WriteEscSeqP
 149:.\u8glib_arm_v1.18.1\src/u8g_dev_st7565_nhd_c12864.c ****       break;
 346              		.loc 1 149 0
 347 0064 80E0     		b	.L15
 348              	.L22:
 349              	.LBB3:
 150:.\u8glib_arm_v1.18.1\src/u8g_dev_st7565_nhd_c12864.c ****     case U8G_DEV_MSG_STOP:
 151:.\u8glib_arm_v1.18.1\src/u8g_dev_st7565_nhd_c12864.c ****       break;
 152:.\u8glib_arm_v1.18.1\src/u8g_dev_st7565_nhd_c12864.c ****     case U8G_DEV_MSG_PAGE_NEXT:
 153:.\u8glib_arm_v1.18.1\src/u8g_dev_st7565_nhd_c12864.c ****       {
 154:.\u8glib_arm_v1.18.1\src/u8g_dev_st7565_nhd_c12864.c ****         u8g_pb_t *pb = (u8g_pb_t *)(dev->dev_mem);
 350              		.loc 1 154 0
 351 0066 BB68     		ldr	r3, [r7, #8]
 352 0068 5B68     		ldr	r3, [r3, #4]
 353 006a 7B61     		str	r3, [r7, #20]
 155:.\u8glib_arm_v1.18.1\src/u8g_dev_st7565_nhd_c12864.c **** 	
 156:.\u8glib_arm_v1.18.1\src/u8g_dev_st7565_nhd_c12864.c ****         u8g_WriteEscSeqP(u8g, dev, u8g_dev_st7565_nhd_c12864_data_start);    
 354              		.loc 1 156 0
 355 006c F868     		ldr	r0, [r7, #12]
 356 006e B968     		ldr	r1, [r7, #8]
 357 0070 444A     		ldr	r2, .L24+4
ARM GAS  C:\Users\Shiguruy\AppData\Local\Temp\ccdOWzje.s 			page 10


 358 0072 FFF7FEFF 		bl	u8g_WriteEscSeqP
 157:.\u8glib_arm_v1.18.1\src/u8g_dev_st7565_nhd_c12864.c ****         u8g_WriteByte(u8g, dev, 0x0b0 | (2*pb->p.page)); /* select current page (ST7565R) */
 359              		.loc 1 157 0
 360 0076 7B69     		ldr	r3, [r7, #20]
 361 0078 1B79     		ldrb	r3, [r3, #4]	@ zero_extendqisi2
 362 007a 5B00     		lsls	r3, r3, #1
 363 007c DBB2     		uxtb	r3, r3
 364 007e DBB2     		uxtb	r3, r3
 365 0080 63F04F03 		orn	r3, r3, #79
 366 0084 DBB2     		uxtb	r3, r3
 367 0086 DBB2     		uxtb	r3, r3
 368 0088 F868     		ldr	r0, [r7, #12]
 369 008a B968     		ldr	r1, [r7, #8]
 370 008c 1A46     		mov	r2, r3
 371 008e FFF7FEFF 		bl	u8g_WriteByte
 158:.\u8glib_arm_v1.18.1\src/u8g_dev_st7565_nhd_c12864.c ****         u8g_SetAddress(u8g, dev, 1);           /* data mode */
 372              		.loc 1 158 0
 373 0092 F868     		ldr	r0, [r7, #12]
 374 0094 B968     		ldr	r1, [r7, #8]
 375 0096 0122     		movs	r2, #1
 376 0098 FFF7FEFF 		bl	u8g_SetAddress
 159:.\u8glib_arm_v1.18.1\src/u8g_dev_st7565_nhd_c12864.c **** 	u8g_WriteSequence(u8g, dev, pb->width, pb->buf); 
 377              		.loc 1 159 0
 378 009c 7B69     		ldr	r3, [r7, #20]
 379 009e 5A79     		ldrb	r2, [r3, #5]	@ zero_extendqisi2
 380 00a0 7B69     		ldr	r3, [r7, #20]
 381 00a2 9B68     		ldr	r3, [r3, #8]
 382 00a4 F868     		ldr	r0, [r7, #12]
 383 00a6 B968     		ldr	r1, [r7, #8]
 384 00a8 FFF7FEFF 		bl	u8g_WriteSequence
 160:.\u8glib_arm_v1.18.1\src/u8g_dev_st7565_nhd_c12864.c ****         u8g_SetChipSelect(u8g, dev, 0);
 385              		.loc 1 160 0
 386 00ac F868     		ldr	r0, [r7, #12]
 387 00ae B968     		ldr	r1, [r7, #8]
 388 00b0 0022     		movs	r2, #0
 389 00b2 FFF7FEFF 		bl	u8g_SetChipSelect
 161:.\u8glib_arm_v1.18.1\src/u8g_dev_st7565_nhd_c12864.c **** 	
 162:.\u8glib_arm_v1.18.1\src/u8g_dev_st7565_nhd_c12864.c ****         u8g_WriteEscSeqP(u8g, dev, u8g_dev_st7565_nhd_c12864_data_start);    
 390              		.loc 1 162 0
 391 00b6 F868     		ldr	r0, [r7, #12]
 392 00b8 B968     		ldr	r1, [r7, #8]
 393 00ba 324A     		ldr	r2, .L24+4
 394 00bc FFF7FEFF 		bl	u8g_WriteEscSeqP
 163:.\u8glib_arm_v1.18.1\src/u8g_dev_st7565_nhd_c12864.c ****         u8g_WriteByte(u8g, dev, 0x0b0 | (2*pb->p.page+1)); /* select current page (ST7565R) */
 395              		.loc 1 163 0
 396 00c0 7B69     		ldr	r3, [r7, #20]
 397 00c2 1B79     		ldrb	r3, [r3, #4]	@ zero_extendqisi2
 398 00c4 5B00     		lsls	r3, r3, #1
 399 00c6 DBB2     		uxtb	r3, r3
 400 00c8 0133     		adds	r3, r3, #1
 401 00ca DBB2     		uxtb	r3, r3
 402 00cc DBB2     		uxtb	r3, r3
 403 00ce 63F04F03 		orn	r3, r3, #79
 404 00d2 DBB2     		uxtb	r3, r3
 405 00d4 DBB2     		uxtb	r3, r3
 406 00d6 F868     		ldr	r0, [r7, #12]
 407 00d8 B968     		ldr	r1, [r7, #8]
ARM GAS  C:\Users\Shiguruy\AppData\Local\Temp\ccdOWzje.s 			page 11


 408 00da 1A46     		mov	r2, r3
 409 00dc FFF7FEFF 		bl	u8g_WriteByte
 164:.\u8glib_arm_v1.18.1\src/u8g_dev_st7565_nhd_c12864.c ****         u8g_SetAddress(u8g, dev, 1);           /* data mode */
 410              		.loc 1 164 0
 411 00e0 F868     		ldr	r0, [r7, #12]
 412 00e2 B968     		ldr	r1, [r7, #8]
 413 00e4 0122     		movs	r2, #1
 414 00e6 FFF7FEFF 		bl	u8g_SetAddress
 165:.\u8glib_arm_v1.18.1\src/u8g_dev_st7565_nhd_c12864.c **** 	u8g_WriteSequence(u8g, dev, pb->width, (uint8_t *)(pb->buf)+pb->width);
 415              		.loc 1 165 0
 416 00ea 7B69     		ldr	r3, [r7, #20]
 417 00ec 5C79     		ldrb	r4, [r3, #5]	@ zero_extendqisi2
 418 00ee 7B69     		ldr	r3, [r7, #20]
 419 00f0 9B68     		ldr	r3, [r3, #8]
 420 00f2 7A69     		ldr	r2, [r7, #20]
 421 00f4 5279     		ldrb	r2, [r2, #5]	@ zero_extendqisi2
 422 00f6 1344     		add	r3, r3, r2
 423 00f8 F868     		ldr	r0, [r7, #12]
 424 00fa B968     		ldr	r1, [r7, #8]
 425 00fc 2246     		mov	r2, r4
 426 00fe FFF7FEFF 		bl	u8g_WriteSequence
 166:.\u8glib_arm_v1.18.1\src/u8g_dev_st7565_nhd_c12864.c ****         u8g_SetChipSelect(u8g, dev, 0);
 427              		.loc 1 166 0
 428 0102 F868     		ldr	r0, [r7, #12]
 429 0104 B968     		ldr	r1, [r7, #8]
 430 0106 0022     		movs	r2, #0
 431 0108 FFF7FEFF 		bl	u8g_SetChipSelect
 432              	.LBE3:
 167:.\u8glib_arm_v1.18.1\src/u8g_dev_st7565_nhd_c12864.c ****       }
 168:.\u8glib_arm_v1.18.1\src/u8g_dev_st7565_nhd_c12864.c ****       break;
 433              		.loc 1 168 0
 434 010c 2CE0     		b	.L15
 435              	.L19:
 169:.\u8glib_arm_v1.18.1\src/u8g_dev_st7565_nhd_c12864.c ****     case U8G_DEV_MSG_CONTRAST:
 170:.\u8glib_arm_v1.18.1\src/u8g_dev_st7565_nhd_c12864.c ****       u8g_SetChipSelect(u8g, dev, 1);
 436              		.loc 1 170 0
 437 010e F868     		ldr	r0, [r7, #12]
 438 0110 B968     		ldr	r1, [r7, #8]
 439 0112 0122     		movs	r2, #1
 440 0114 FFF7FEFF 		bl	u8g_SetChipSelect
 171:.\u8glib_arm_v1.18.1\src/u8g_dev_st7565_nhd_c12864.c ****       u8g_SetAddress(u8g, dev, 0);          /* instruction mode */
 441              		.loc 1 171 0
 442 0118 F868     		ldr	r0, [r7, #12]
 443 011a B968     		ldr	r1, [r7, #8]
 444 011c 0022     		movs	r2, #0
 445 011e FFF7FEFF 		bl	u8g_SetAddress
 172:.\u8glib_arm_v1.18.1\src/u8g_dev_st7565_nhd_c12864.c ****       u8g_WriteByte(u8g, dev, 0x081);
 446              		.loc 1 172 0
 447 0122 F868     		ldr	r0, [r7, #12]
 448 0124 B968     		ldr	r1, [r7, #8]
 449 0126 8122     		movs	r2, #129
 450 0128 FFF7FEFF 		bl	u8g_WriteByte
 173:.\u8glib_arm_v1.18.1\src/u8g_dev_st7565_nhd_c12864.c ****       u8g_WriteByte(u8g, dev, (*(uint8_t *)arg) >> 2);
 451              		.loc 1 173 0
 452 012c 3B68     		ldr	r3, [r7]
 453 012e 1B78     		ldrb	r3, [r3]	@ zero_extendqisi2
 454 0130 9B08     		lsrs	r3, r3, #2
ARM GAS  C:\Users\Shiguruy\AppData\Local\Temp\ccdOWzje.s 			page 12


 455 0132 DBB2     		uxtb	r3, r3
 456 0134 F868     		ldr	r0, [r7, #12]
 457 0136 B968     		ldr	r1, [r7, #8]
 458 0138 1A46     		mov	r2, r3
 459 013a FFF7FEFF 		bl	u8g_WriteByte
 174:.\u8glib_arm_v1.18.1\src/u8g_dev_st7565_nhd_c12864.c ****       u8g_SetChipSelect(u8g, dev, 0);      
 460              		.loc 1 174 0
 461 013e F868     		ldr	r0, [r7, #12]
 462 0140 B968     		ldr	r1, [r7, #8]
 463 0142 0022     		movs	r2, #0
 464 0144 FFF7FEFF 		bl	u8g_SetChipSelect
 175:.\u8glib_arm_v1.18.1\src/u8g_dev_st7565_nhd_c12864.c ****       return 1;
 465              		.loc 1 175 0
 466 0148 0123     		movs	r3, #1
 467 014a 15E0     		b	.L23
 468              	.L20:
 176:.\u8glib_arm_v1.18.1\src/u8g_dev_st7565_nhd_c12864.c ****     case U8G_DEV_MSG_SLEEP_ON:
 177:.\u8glib_arm_v1.18.1\src/u8g_dev_st7565_nhd_c12864.c ****       u8g_WriteEscSeqP(u8g, dev, u8g_dev_st7565_c12864_sleep_on);    
 469              		.loc 1 177 0
 470 014c F868     		ldr	r0, [r7, #12]
 471 014e B968     		ldr	r1, [r7, #8]
 472 0150 0D4A     		ldr	r2, .L24+8
 473 0152 FFF7FEFF 		bl	u8g_WriteEscSeqP
 178:.\u8glib_arm_v1.18.1\src/u8g_dev_st7565_nhd_c12864.c ****       return 1;
 474              		.loc 1 178 0
 475 0156 0123     		movs	r3, #1
 476 0158 0EE0     		b	.L23
 477              	.L21:
 179:.\u8glib_arm_v1.18.1\src/u8g_dev_st7565_nhd_c12864.c ****     case U8G_DEV_MSG_SLEEP_OFF:
 180:.\u8glib_arm_v1.18.1\src/u8g_dev_st7565_nhd_c12864.c ****       u8g_WriteEscSeqP(u8g, dev, u8g_dev_st7565_c12864_sleep_off);    
 478              		.loc 1 180 0
 479 015a F868     		ldr	r0, [r7, #12]
 480 015c B968     		ldr	r1, [r7, #8]
 481 015e 0B4A     		ldr	r2, .L24+12
 482 0160 FFF7FEFF 		bl	u8g_WriteEscSeqP
 181:.\u8glib_arm_v1.18.1\src/u8g_dev_st7565_nhd_c12864.c ****       return 1;
 483              		.loc 1 181 0
 484 0164 0123     		movs	r3, #1
 485 0166 07E0     		b	.L23
 486              	.L15:
 182:.\u8glib_arm_v1.18.1\src/u8g_dev_st7565_nhd_c12864.c ****   }
 183:.\u8glib_arm_v1.18.1\src/u8g_dev_st7565_nhd_c12864.c ****   return u8g_dev_pb16v1_base_fn(u8g, dev, msg, arg);
 487              		.loc 1 183 0
 488 0168 FB79     		ldrb	r3, [r7, #7]	@ zero_extendqisi2
 489 016a F868     		ldr	r0, [r7, #12]
 490 016c B968     		ldr	r1, [r7, #8]
 491 016e 1A46     		mov	r2, r3
 492 0170 3B68     		ldr	r3, [r7]
 493 0172 FFF7FEFF 		bl	u8g_dev_pb16v1_base_fn
 494 0176 0346     		mov	r3, r0
 495              	.L23:
 184:.\u8glib_arm_v1.18.1\src/u8g_dev_st7565_nhd_c12864.c **** }
 496              		.loc 1 184 0
 497 0178 1846     		mov	r0, r3
 498 017a 1C37     		adds	r7, r7, #28
 499              		.cfi_def_cfa_offset 12
 500 017c BD46     		mov	sp, r7
ARM GAS  C:\Users\Shiguruy\AppData\Local\Temp\ccdOWzje.s 			page 13


 501              		.cfi_def_cfa_register 13
 502              		@ sp needed
 503 017e 90BD     		pop	{r4, r7, pc}
 504              	.L25:
 505              		.align	2
 506              	.L24:
 507 0180 00000000 		.word	u8g_dev_st7565_nhd_c12864_init_seq
 508 0184 24000000 		.word	u8g_dev_st7565_nhd_c12864_data_start
 509 0188 2C000000 		.word	u8g_dev_st7565_c12864_sleep_on
 510 018c 38000000 		.word	u8g_dev_st7565_c12864_sleep_off
 511              		.cfi_endproc
 512              	.LFE1:
 513              		.size	u8g_dev_st7565_nhd_c12864_2x_fn, .-u8g_dev_st7565_nhd_c12864_2x_fn
 514              		.global	u8g_dev_st7565_nhd_c12864_sw_spi_buf
 515              		.bss
 516              		.align	2
 517              		.type	u8g_dev_st7565_nhd_c12864_sw_spi_buf, %object
 518              		.size	u8g_dev_st7565_nhd_c12864_sw_spi_buf, 128
 519              	u8g_dev_st7565_nhd_c12864_sw_spi_buf:
 520 0000 00000000 		.space	128
 520      00000000 
 520      00000000 
 520      00000000 
 520      00000000 
 521              		.global	u8g_dev_st7565_nhd_c12864_sw_spi_pb
 522              		.data
 523              		.align	2
 524              		.type	u8g_dev_st7565_nhd_c12864_sw_spi_pb, %object
 525              		.size	u8g_dev_st7565_nhd_c12864_sw_spi_pb, 12
 526              	u8g_dev_st7565_nhd_c12864_sw_spi_pb:
 527 0000 08       		.byte	8
 528 0001 40       		.byte	64
 529 0002 00       		.byte	0
 530 0003 00       		.byte	0
 531 0004 00       		.byte	0
 532 0005 80       		.byte	-128
 533 0006 0000     		.space	2
 534 0008 00000000 		.word	u8g_dev_st7565_nhd_c12864_sw_spi_buf
 535              		.global	u8g_dev_st7565_nhd_c12864_sw_spi
 536              		.align	2
 537              		.type	u8g_dev_st7565_nhd_c12864_sw_spi, %object
 538              		.size	u8g_dev_st7565_nhd_c12864_sw_spi, 12
 539              	u8g_dev_st7565_nhd_c12864_sw_spi:
 540 000c 00000000 		.word	u8g_dev_st7565_nhd_c12864_fn
 541 0010 00000000 		.word	u8g_dev_st7565_nhd_c12864_sw_spi_pb
 542 0014 00000000 		.word	u8g_com_null_fn
 543              		.global	u8g_dev_st7565_nhd_c12864_hw_spi_buf
 544              		.bss
 545              		.align	2
 546              		.type	u8g_dev_st7565_nhd_c12864_hw_spi_buf, %object
 547              		.size	u8g_dev_st7565_nhd_c12864_hw_spi_buf, 128
 548              	u8g_dev_st7565_nhd_c12864_hw_spi_buf:
 549 0080 00000000 		.space	128
 549      00000000 
 549      00000000 
 549      00000000 
 549      00000000 
ARM GAS  C:\Users\Shiguruy\AppData\Local\Temp\ccdOWzje.s 			page 14


 550              		.global	u8g_dev_st7565_nhd_c12864_hw_spi_pb
 551              		.data
 552              		.align	2
 553              		.type	u8g_dev_st7565_nhd_c12864_hw_spi_pb, %object
 554              		.size	u8g_dev_st7565_nhd_c12864_hw_spi_pb, 12
 555              	u8g_dev_st7565_nhd_c12864_hw_spi_pb:
 556 0018 08       		.byte	8
 557 0019 40       		.byte	64
 558 001a 00       		.byte	0
 559 001b 00       		.byte	0
 560 001c 00       		.byte	0
 561 001d 80       		.byte	-128
 562 001e 0000     		.space	2
 563 0020 00000000 		.word	u8g_dev_st7565_nhd_c12864_hw_spi_buf
 564              		.global	u8g_dev_st7565_nhd_c12864_hw_spi
 565              		.align	2
 566              		.type	u8g_dev_st7565_nhd_c12864_hw_spi, %object
 567              		.size	u8g_dev_st7565_nhd_c12864_hw_spi, 12
 568              	u8g_dev_st7565_nhd_c12864_hw_spi:
 569 0024 00000000 		.word	u8g_dev_st7565_nhd_c12864_fn
 570 0028 00000000 		.word	u8g_dev_st7565_nhd_c12864_hw_spi_pb
 571 002c 00000000 		.word	u8g_com_null_fn
 572              		.global	u8g_dev_st7565_nhd_c12864_2x_buf
 573              		.bss
 574              		.align	2
 575              		.type	u8g_dev_st7565_nhd_c12864_2x_buf, %object
 576              		.size	u8g_dev_st7565_nhd_c12864_2x_buf, 256
 577              	u8g_dev_st7565_nhd_c12864_2x_buf:
 578 0100 00000000 		.space	256
 578      00000000 
 578      00000000 
 578      00000000 
 578      00000000 
 579              		.global	u8g_dev_st7565_nhd_c12864_2x_pb
 580              		.data
 581              		.align	2
 582              		.type	u8g_dev_st7565_nhd_c12864_2x_pb, %object
 583              		.size	u8g_dev_st7565_nhd_c12864_2x_pb, 12
 584              	u8g_dev_st7565_nhd_c12864_2x_pb:
 585 0030 10       		.byte	16
 586 0031 40       		.byte	64
 587 0032 00       		.byte	0
 588 0033 00       		.byte	0
 589 0034 00       		.byte	0
 590 0035 80       		.byte	-128
 591 0036 0000     		.space	2
 592 0038 00000000 		.word	u8g_dev_st7565_nhd_c12864_2x_buf
 593              		.global	u8g_dev_st7565_nhd_c12864_2x_sw_spi
 594              		.align	2
 595              		.type	u8g_dev_st7565_nhd_c12864_2x_sw_spi, %object
 596              		.size	u8g_dev_st7565_nhd_c12864_2x_sw_spi, 12
 597              	u8g_dev_st7565_nhd_c12864_2x_sw_spi:
 598 003c 00000000 		.word	u8g_dev_st7565_nhd_c12864_2x_fn
 599 0040 00000000 		.word	u8g_dev_st7565_nhd_c12864_2x_pb
 600 0044 00000000 		.word	u8g_com_null_fn
 601              		.global	u8g_dev_st7565_nhd_c12864_2x_hw_spi
 602              		.align	2
ARM GAS  C:\Users\Shiguruy\AppData\Local\Temp\ccdOWzje.s 			page 15


 603              		.type	u8g_dev_st7565_nhd_c12864_2x_hw_spi, %object
 604              		.size	u8g_dev_st7565_nhd_c12864_2x_hw_spi, 12
 605              	u8g_dev_st7565_nhd_c12864_2x_hw_spi:
 606 0048 00000000 		.word	u8g_dev_st7565_nhd_c12864_2x_fn
 607 004c 00000000 		.word	u8g_dev_st7565_nhd_c12864_2x_pb
 608 0050 00000000 		.word	u8g_com_null_fn
 609              		.text
 610              	.Letext0:
 611              		.file 2 "c:\\program files (x86)\\cypress\\psoc creator\\3.3\\psoc creator\\import\\gnu\\arm\\4.9.
 612              		.file 3 "c:\\program files (x86)\\cypress\\psoc creator\\3.3\\psoc creator\\import\\gnu\\arm\\4.9.
 613              		.file 4 ".\\u8glib_arm_v1.18.1\\src\\u8g.h"