ARM GAS  C:\Users\Shiguruy\AppData\Local\Temp\ccZZafLW.s 			page 1


   1              		.syntax unified
   2              		.cpu cortex-m3
   3              		.fpu softvfp
   4              		.eabi_attribute 20, 1
   5              		.eabi_attribute 21, 1
   6              		.eabi_attribute 23, 3
   7              		.eabi_attribute 24, 1
   8              		.eabi_attribute 25, 1
   9              		.eabi_attribute 26, 1
  10              		.eabi_attribute 30, 6
  11              		.eabi_attribute 34, 1
  12              		.eabi_attribute 18, 4
  13              		.thumb
  14              		.file	"u8g_dev_ili9325d_320x240.c"
  15              		.text
  16              	.Ltext0:
  17              		.cfi_sections	.debug_frame
  18              		.section	.rodata
  19              		.align	2
  20              		.type	u8g_dev_ili9325d_320x240_init_seq, %object
  21              		.size	u8g_dev_ili9325d_320x240_init_seq, 480
  22              	u8g_dev_ili9325d_320x240_init_seq:
  23 0000 FF       		.byte	-1
  24 0001 D0       		.byte	-48
  25 0002 FF       		.byte	-1
  26 0003 32       		.byte	50
  27 0004 FF       		.byte	-1
  28 0005 CF       		.byte	-49
  29 0006 FF       		.byte	-1
  30 0007 32       		.byte	50
  31 0008 FF       		.byte	-1
  32 0009 CF       		.byte	-49
  33 000a FF       		.byte	-1
  34 000b 32       		.byte	50
  35 000c FF       		.byte	-1
  36 000d D1       		.byte	-47
  37 000e FF       		.byte	-1
  38 000f 32       		.byte	50
  39 0010 FF       		.byte	-1
  40 0011 E0       		.byte	-32
  41 0012 00       		.byte	0
  42 0013 01       		.byte	1
  43 0014 FF       		.byte	-1
  44 0015 E1       		.byte	-31
  45 0016 01       		.byte	1
  46 0017 00       		.byte	0
  47 0018 FF       		.byte	-1
  48 0019 E0       		.byte	-32
  49 001a 00       		.byte	0
  50 001b 02       		.byte	2
  51 001c FF       		.byte	-1
  52 001d E1       		.byte	-31
  53 001e 02       		.byte	2
  54 001f 00       		.byte	0
  55 0020 FF       		.byte	-1
  56 0021 E0       		.byte	-32
  57 0022 00       		.byte	0
ARM GAS  C:\Users\Shiguruy\AppData\Local\Temp\ccZZafLW.s 			page 2


  58 0023 03       		.byte	3
  59 0024 FF       		.byte	-1
  60 0025 E1       		.byte	-31
  61 0026 10       		.byte	16
  62 0027 30       		.byte	48
  63 0028 FF       		.byte	-1
  64 0029 E0       		.byte	-32
  65 002a 00       		.byte	0
  66 002b 04       		.byte	4
  67 002c FF       		.byte	-1
  68 002d E1       		.byte	-31
  69 002e 00       		.byte	0
  70 002f 00       		.byte	0
  71 0030 FF       		.byte	-1
  72 0031 E0       		.byte	-32
  73 0032 00       		.byte	0
  74 0033 08       		.byte	8
  75 0034 FF       		.byte	-1
  76 0035 E1       		.byte	-31
  77 0036 02       		.byte	2
  78 0037 07       		.byte	7
  79 0038 FF       		.byte	-1
  80 0039 E0       		.byte	-32
  81 003a 00       		.byte	0
  82 003b 09       		.byte	9
  83 003c FF       		.byte	-1
  84 003d E1       		.byte	-31
  85 003e 00       		.byte	0
  86 003f 00       		.byte	0
  87 0040 FF       		.byte	-1
  88 0041 E0       		.byte	-32
  89 0042 00       		.byte	0
  90 0043 0A       		.byte	10
  91 0044 FF       		.byte	-1
  92 0045 E1       		.byte	-31
  93 0046 00       		.byte	0
  94 0047 00       		.byte	0
  95 0048 FF       		.byte	-1
  96 0049 E0       		.byte	-32
  97 004a 00       		.byte	0
  98 004b 0C       		.byte	12
  99 004c FF       		.byte	-1
 100 004d E1       		.byte	-31
 101 004e 00       		.byte	0
 102 004f 00       		.byte	0
 103 0050 FF       		.byte	-1
 104 0051 E0       		.byte	-32
 105 0052 00       		.byte	0
 106 0053 0D       		.byte	13
 107 0054 FF       		.byte	-1
 108 0055 E1       		.byte	-31
 109 0056 00       		.byte	0
 110 0057 00       		.byte	0
 111 0058 FF       		.byte	-1
 112 0059 E0       		.byte	-32
 113 005a 00       		.byte	0
 114 005b 0F       		.byte	15
ARM GAS  C:\Users\Shiguruy\AppData\Local\Temp\ccZZafLW.s 			page 3


 115 005c FF       		.byte	-1
 116 005d E1       		.byte	-31
 117 005e 00       		.byte	0
 118 005f 00       		.byte	0
 119 0060 FF       		.byte	-1
 120 0061 E0       		.byte	-32
 121 0062 00       		.byte	0
 122 0063 10       		.byte	16
 123 0064 FF       		.byte	-1
 124 0065 E1       		.byte	-31
 125 0066 00       		.byte	0
 126 0067 00       		.byte	0
 127 0068 FF       		.byte	-1
 128 0069 E0       		.byte	-32
 129 006a 00       		.byte	0
 130 006b 11       		.byte	17
 131 006c FF       		.byte	-1
 132 006d E1       		.byte	-31
 133 006e 00       		.byte	0
 134 006f 07       		.byte	7
 135 0070 FF       		.byte	-1
 136 0071 E0       		.byte	-32
 137 0072 00       		.byte	0
 138 0073 12       		.byte	18
 139 0074 FF       		.byte	-1
 140 0075 E1       		.byte	-31
 141 0076 00       		.byte	0
 142 0077 00       		.byte	0
 143 0078 FF       		.byte	-1
 144 0079 E0       		.byte	-32
 145 007a 00       		.byte	0
 146 007b 13       		.byte	19
 147 007c FF       		.byte	-1
 148 007d E1       		.byte	-31
 149 007e 00       		.byte	0
 150 007f 00       		.byte	0
 151 0080 FF       		.byte	-1
 152 0081 E0       		.byte	-32
 153 0082 00       		.byte	0
 154 0083 07       		.byte	7
 155 0084 FF       		.byte	-1
 156 0085 E1       		.byte	-31
 157 0086 00       		.byte	0
 158 0087 01       		.byte	1
 159 0088 FF       		.byte	-1
 160 0089 64       		.byte	100
 161 008a FF       		.byte	-1
 162 008b 64       		.byte	100
 163 008c FF       		.byte	-1
 164 008d E0       		.byte	-32
 165 008e 00       		.byte	0
 166 008f 10       		.byte	16
 167 0090 FF       		.byte	-1
 168 0091 E1       		.byte	-31
 169 0092 16       		.byte	22
 170 0093 90       		.byte	-112
 171 0094 FF       		.byte	-1
ARM GAS  C:\Users\Shiguruy\AppData\Local\Temp\ccZZafLW.s 			page 4


 172 0095 E0       		.byte	-32
 173 0096 00       		.byte	0
 174 0097 11       		.byte	17
 175 0098 FF       		.byte	-1
 176 0099 E1       		.byte	-31
 177 009a 02       		.byte	2
 178 009b 27       		.byte	39
 179 009c FF       		.byte	-1
 180 009d 32       		.byte	50
 181 009e FF       		.byte	-1
 182 009f E0       		.byte	-32
 183 00a0 00       		.byte	0
 184 00a1 12       		.byte	18
 185 00a2 FF       		.byte	-1
 186 00a3 E1       		.byte	-31
 187 00a4 00       		.byte	0
 188 00a5 0D       		.byte	13
 189 00a6 FF       		.byte	-1
 190 00a7 32       		.byte	50
 191 00a8 FF       		.byte	-1
 192 00a9 E0       		.byte	-32
 193 00aa 00       		.byte	0
 194 00ab 13       		.byte	19
 195 00ac FF       		.byte	-1
 196 00ad E1       		.byte	-31
 197 00ae 12       		.byte	18
 198 00af 00       		.byte	0
 199 00b0 FF       		.byte	-1
 200 00b1 E0       		.byte	-32
 201 00b2 00       		.byte	0
 202 00b3 29       		.byte	41
 203 00b4 FF       		.byte	-1
 204 00b5 E1       		.byte	-31
 205 00b6 00       		.byte	0
 206 00b7 0A       		.byte	10
 207 00b8 FF       		.byte	-1
 208 00b9 E0       		.byte	-32
 209 00ba 00       		.byte	0
 210 00bb 2B       		.byte	43
 211 00bc FF       		.byte	-1
 212 00bd E1       		.byte	-31
 213 00be 00       		.byte	0
 214 00bf 0D       		.byte	13
 215 00c0 FF       		.byte	-1
 216 00c1 32       		.byte	50
 217 00c2 FF       		.byte	-1
 218 00c3 E0       		.byte	-32
 219 00c4 00       		.byte	0
 220 00c5 20       		.byte	32
 221 00c6 FF       		.byte	-1
 222 00c7 E1       		.byte	-31
 223 00c8 00       		.byte	0
 224 00c9 00       		.byte	0
 225 00ca FF       		.byte	-1
 226 00cb E0       		.byte	-32
 227 00cc 00       		.byte	0
 228 00cd 21       		.byte	33
ARM GAS  C:\Users\Shiguruy\AppData\Local\Temp\ccZZafLW.s 			page 5


 229 00ce FF       		.byte	-1
 230 00cf E1       		.byte	-31
 231 00d0 00       		.byte	0
 232 00d1 00       		.byte	0
 233 00d2 FF       		.byte	-1
 234 00d3 E0       		.byte	-32
 235 00d4 00       		.byte	0
 236 00d5 30       		.byte	48
 237 00d6 FF       		.byte	-1
 238 00d7 E1       		.byte	-31
 239 00d8 00       		.byte	0
 240 00d9 00       		.byte	0
 241 00da FF       		.byte	-1
 242 00db E0       		.byte	-32
 243 00dc 00       		.byte	0
 244 00dd 31       		.byte	49
 245 00de FF       		.byte	-1
 246 00df E1       		.byte	-31
 247 00e0 04       		.byte	4
 248 00e1 04       		.byte	4
 249 00e2 FF       		.byte	-1
 250 00e3 E0       		.byte	-32
 251 00e4 00       		.byte	0
 252 00e5 32       		.byte	50
 253 00e6 FF       		.byte	-1
 254 00e7 E1       		.byte	-31
 255 00e8 00       		.byte	0
 256 00e9 03       		.byte	3
 257 00ea FF       		.byte	-1
 258 00eb E0       		.byte	-32
 259 00ec 00       		.byte	0
 260 00ed 35       		.byte	53
 261 00ee FF       		.byte	-1
 262 00ef E1       		.byte	-31
 263 00f0 04       		.byte	4
 264 00f1 05       		.byte	5
 265 00f2 FF       		.byte	-1
 266 00f3 E0       		.byte	-32
 267 00f4 00       		.byte	0
 268 00f5 36       		.byte	54
 269 00f6 FF       		.byte	-1
 270 00f7 E1       		.byte	-31
 271 00f8 08       		.byte	8
 272 00f9 08       		.byte	8
 273 00fa FF       		.byte	-1
 274 00fb E0       		.byte	-32
 275 00fc 00       		.byte	0
 276 00fd 37       		.byte	55
 277 00fe FF       		.byte	-1
 278 00ff E1       		.byte	-31
 279 0100 04       		.byte	4
 280 0101 07       		.byte	7
 281 0102 FF       		.byte	-1
 282 0103 E0       		.byte	-32
 283 0104 00       		.byte	0
 284 0105 38       		.byte	56
 285 0106 FF       		.byte	-1
ARM GAS  C:\Users\Shiguruy\AppData\Local\Temp\ccZZafLW.s 			page 6


 286 0107 E1       		.byte	-31
 287 0108 03       		.byte	3
 288 0109 03       		.byte	3
 289 010a FF       		.byte	-1
 290 010b E0       		.byte	-32
 291 010c 00       		.byte	0
 292 010d 39       		.byte	57
 293 010e FF       		.byte	-1
 294 010f E1       		.byte	-31
 295 0110 07       		.byte	7
 296 0111 07       		.byte	7
 297 0112 FF       		.byte	-1
 298 0113 E0       		.byte	-32
 299 0114 00       		.byte	0
 300 0115 3C       		.byte	60
 301 0116 FF       		.byte	-1
 302 0117 E1       		.byte	-31
 303 0118 05       		.byte	5
 304 0119 04       		.byte	4
 305 011a FF       		.byte	-1
 306 011b E0       		.byte	-32
 307 011c 00       		.byte	0
 308 011d 3D       		.byte	61
 309 011e FF       		.byte	-1
 310 011f E1       		.byte	-31
 311 0120 08       		.byte	8
 312 0121 08       		.byte	8
 313 0122 FF       		.byte	-1
 314 0123 E0       		.byte	-32
 315 0124 00       		.byte	0
 316 0125 50       		.byte	80
 317 0126 FF       		.byte	-1
 318 0127 E1       		.byte	-31
 319 0128 00       		.byte	0
 320 0129 00       		.byte	0
 321 012a FF       		.byte	-1
 322 012b E0       		.byte	-32
 323 012c 00       		.byte	0
 324 012d 51       		.byte	81
 325 012e FF       		.byte	-1
 326 012f E1       		.byte	-31
 327 0130 00       		.byte	0
 328 0131 EF       		.byte	-17
 329 0132 FF       		.byte	-1
 330 0133 E0       		.byte	-32
 331 0134 00       		.byte	0
 332 0135 52       		.byte	82
 333 0136 FF       		.byte	-1
 334 0137 E1       		.byte	-31
 335 0138 00       		.byte	0
 336 0139 00       		.byte	0
 337 013a FF       		.byte	-1
 338 013b E0       		.byte	-32
 339 013c 00       		.byte	0
 340 013d 53       		.byte	83
 341 013e FF       		.byte	-1
 342 013f E1       		.byte	-31
ARM GAS  C:\Users\Shiguruy\AppData\Local\Temp\ccZZafLW.s 			page 7


 343 0140 01       		.byte	1
 344 0141 3F       		.byte	63
 345 0142 FF       		.byte	-1
 346 0143 E0       		.byte	-32
 347 0144 00       		.byte	0
 348 0145 60       		.byte	96
 349 0146 FF       		.byte	-1
 350 0147 E1       		.byte	-31
 351 0148 A7       		.byte	-89
 352 0149 00       		.byte	0
 353 014a FF       		.byte	-1
 354 014b E0       		.byte	-32
 355 014c 00       		.byte	0
 356 014d 61       		.byte	97
 357 014e FF       		.byte	-1
 358 014f E1       		.byte	-31
 359 0150 00       		.byte	0
 360 0151 01       		.byte	1
 361 0152 FF       		.byte	-1
 362 0153 E0       		.byte	-32
 363 0154 00       		.byte	0
 364 0155 6A       		.byte	106
 365 0156 FF       		.byte	-1
 366 0157 E1       		.byte	-31
 367 0158 00       		.byte	0
 368 0159 00       		.byte	0
 369 015a FF       		.byte	-1
 370 015b E0       		.byte	-32
 371 015c 00       		.byte	0
 372 015d 80       		.byte	-128
 373 015e FF       		.byte	-1
 374 015f E1       		.byte	-31
 375 0160 00       		.byte	0
 376 0161 00       		.byte	0
 377 0162 FF       		.byte	-1
 378 0163 E0       		.byte	-32
 379 0164 00       		.byte	0
 380 0165 81       		.byte	-127
 381 0166 FF       		.byte	-1
 382 0167 E1       		.byte	-31
 383 0168 00       		.byte	0
 384 0169 00       		.byte	0
 385 016a FF       		.byte	-1
 386 016b E0       		.byte	-32
 387 016c 00       		.byte	0
 388 016d 82       		.byte	-126
 389 016e FF       		.byte	-1
 390 016f E1       		.byte	-31
 391 0170 00       		.byte	0
 392 0171 00       		.byte	0
 393 0172 FF       		.byte	-1
 394 0173 E0       		.byte	-32
 395 0174 00       		.byte	0
 396 0175 83       		.byte	-125
 397 0176 FF       		.byte	-1
 398 0177 E1       		.byte	-31
 399 0178 00       		.byte	0
ARM GAS  C:\Users\Shiguruy\AppData\Local\Temp\ccZZafLW.s 			page 8


 400 0179 00       		.byte	0
 401 017a FF       		.byte	-1
 402 017b E0       		.byte	-32
 403 017c 00       		.byte	0
 404 017d 84       		.byte	-124
 405 017e FF       		.byte	-1
 406 017f E1       		.byte	-31
 407 0180 00       		.byte	0
 408 0181 00       		.byte	0
 409 0182 FF       		.byte	-1
 410 0183 E0       		.byte	-32
 411 0184 00       		.byte	0
 412 0185 85       		.byte	-123
 413 0186 FF       		.byte	-1
 414 0187 E1       		.byte	-31
 415 0188 00       		.byte	0
 416 0189 00       		.byte	0
 417 018a FF       		.byte	-1
 418 018b E0       		.byte	-32
 419 018c 00       		.byte	0
 420 018d 90       		.byte	-112
 421 018e FF       		.byte	-1
 422 018f E1       		.byte	-31
 423 0190 00       		.byte	0
 424 0191 10       		.byte	16
 425 0192 FF       		.byte	-1
 426 0193 E0       		.byte	-32
 427 0194 00       		.byte	0
 428 0195 92       		.byte	-110
 429 0196 FF       		.byte	-1
 430 0197 E1       		.byte	-31
 431 0198 00       		.byte	0
 432 0199 00       		.byte	0
 433 019a FF       		.byte	-1
 434 019b E0       		.byte	-32
 435 019c 00       		.byte	0
 436 019d 07       		.byte	7
 437 019e FF       		.byte	-1
 438 019f E1       		.byte	-31
 439 01a0 01       		.byte	1
 440 01a1 33       		.byte	51
 441 01a2 FF       		.byte	-1
 442 01a3 0A       		.byte	10
 443 01a4 FF       		.byte	-1
 444 01a5 E0       		.byte	-32
 445 01a6 00       		.byte	0
 446 01a7 20       		.byte	32
 447 01a8 FF       		.byte	-1
 448 01a9 E1       		.byte	-31
 449 01aa 00       		.byte	0
 450 01ab 00       		.byte	0
 451 01ac FF       		.byte	-1
 452 01ad E0       		.byte	-32
 453 01ae 00       		.byte	0
 454 01af 21       		.byte	33
 455 01b0 FF       		.byte	-1
 456 01b1 E1       		.byte	-31
ARM GAS  C:\Users\Shiguruy\AppData\Local\Temp\ccZZafLW.s 			page 9


 457 01b2 00       		.byte	0
 458 01b3 10       		.byte	16
 459 01b4 FF       		.byte	-1
 460 01b5 E0       		.byte	-32
 461 01b6 00       		.byte	0
 462 01b7 22       		.byte	34
 463 01b8 FF       		.byte	-1
 464 01b9 E1       		.byte	-31
 465 01ba FE       		.byte	-2
 466 01bb FE       		.byte	-2
 467 01bc 00       		.byte	0
 468 01bd 00       		.byte	0
 469 01be FE       		.byte	-2
 470 01bf FE       		.byte	-2
 471 01c0 00       		.byte	0
 472 01c1 00       		.byte	0
 473 01c2 FE       		.byte	-2
 474 01c3 FE       		.byte	-2
 475 01c4 00       		.byte	0
 476 01c5 00       		.byte	0
 477 01c6 FE       		.byte	-2
 478 01c7 FE       		.byte	-2
 479 01c8 00       		.byte	0
 480 01c9 00       		.byte	0
 481 01ca FE       		.byte	-2
 482 01cb FE       		.byte	-2
 483 01cc 00       		.byte	0
 484 01cd 00       		.byte	0
 485 01ce FE       		.byte	-2
 486 01cf FE       		.byte	-2
 487 01d0 00       		.byte	0
 488 01d1 00       		.byte	0
 489 01d2 FE       		.byte	-2
 490 01d3 FE       		.byte	-2
 491 01d4 00       		.byte	0
 492 01d5 00       		.byte	0
 493 01d6 FE       		.byte	-2
 494 01d7 FE       		.byte	-2
 495 01d8 00       		.byte	0
 496 01d9 00       		.byte	0
 497 01da FE       		.byte	-2
 498 01db FE       		.byte	-2
 499 01dc FF       		.byte	-1
 500 01dd D0       		.byte	-48
 501 01de FF       		.byte	-1
 502 01df FE       		.byte	-2
 503              		.align	2
 504              		.type	u8g_dev_ili9325d_320x240_page_seq, %object
 505              		.size	u8g_dev_ili9325d_320x240_page_seq, 18
 506              	u8g_dev_ili9325d_320x240_page_seq:
 507 01e0 FF       		.byte	-1
 508 01e1 D1       		.byte	-47
 509 01e2 FF       		.byte	-1
 510 01e3 E0       		.byte	-32
 511 01e4 00       		.byte	0
 512 01e5 20       		.byte	32
 513 01e6 FF       		.byte	-1
ARM GAS  C:\Users\Shiguruy\AppData\Local\Temp\ccZZafLW.s 			page 10


 514 01e7 E1       		.byte	-31
 515 01e8 00       		.byte	0
 516 01e9 00       		.byte	0
 517 01ea FF       		.byte	-1
 518 01eb E0       		.byte	-32
 519 01ec 00       		.byte	0
 520 01ed 21       		.byte	33
 521 01ee FF       		.byte	-1
 522 01ef E1       		.byte	-31
 523 01f0 FF       		.byte	-1
 524 01f1 FE       		.byte	-2
 525 01f2 0000     		.section	.text.u8g_dev_ili9325d_get_65K_high_byte,"ax",%progbits
 526              		.align	2
 527              		.thumb
 528              		.thumb_func
 529              		.type	u8g_dev_ili9325d_get_65K_high_byte, %function
 530              	u8g_dev_ili9325d_get_65K_high_byte:
 531              	.LFB0:
 532              		.file 1 ".\\u8glib_arm_v1.18.1\\src\\u8g_dev_ili9325d_320x240.c"
   1:.\u8glib_arm_v1.18.1\src/u8g_dev_ili9325d_320x240.c **** /*
   2:.\u8glib_arm_v1.18.1\src/u8g_dev_ili9325d_320x240.c **** 
   3:.\u8glib_arm_v1.18.1\src/u8g_dev_ili9325d_320x240.c ****   u8g_dev_ili9325d_320x240.c
   4:.\u8glib_arm_v1.18.1\src/u8g_dev_ili9325d_320x240.c ****   
   5:.\u8glib_arm_v1.18.1\src/u8g_dev_ili9325d_320x240.c ****   Universal 8bit Graphics Library
   6:.\u8glib_arm_v1.18.1\src/u8g_dev_ili9325d_320x240.c ****   
   7:.\u8glib_arm_v1.18.1\src/u8g_dev_ili9325d_320x240.c ****   Copyright (c) 2011, olikraus@gmail.com
   8:.\u8glib_arm_v1.18.1\src/u8g_dev_ili9325d_320x240.c ****   All rights reserved.
   9:.\u8glib_arm_v1.18.1\src/u8g_dev_ili9325d_320x240.c **** 
  10:.\u8glib_arm_v1.18.1\src/u8g_dev_ili9325d_320x240.c ****   Redistribution and use in source and binary forms, with or without modification, 
  11:.\u8glib_arm_v1.18.1\src/u8g_dev_ili9325d_320x240.c ****   are permitted provided that the following conditions are met:
  12:.\u8glib_arm_v1.18.1\src/u8g_dev_ili9325d_320x240.c **** 
  13:.\u8glib_arm_v1.18.1\src/u8g_dev_ili9325d_320x240.c ****   * Redistributions of source code must retain the above copyright notice, this list 
  14:.\u8glib_arm_v1.18.1\src/u8g_dev_ili9325d_320x240.c ****     of conditions and the following disclaimer.
  15:.\u8glib_arm_v1.18.1\src/u8g_dev_ili9325d_320x240.c ****     
  16:.\u8glib_arm_v1.18.1\src/u8g_dev_ili9325d_320x240.c ****   * Redistributions in binary form must reproduce the above copyright notice, this 
  17:.\u8glib_arm_v1.18.1\src/u8g_dev_ili9325d_320x240.c ****     list of conditions and the following disclaimer in the documentation and/or other 
  18:.\u8glib_arm_v1.18.1\src/u8g_dev_ili9325d_320x240.c ****     materials provided with the distribution.
  19:.\u8glib_arm_v1.18.1\src/u8g_dev_ili9325d_320x240.c **** 
  20:.\u8glib_arm_v1.18.1\src/u8g_dev_ili9325d_320x240.c ****   THIS SOFTWARE IS PROVIDED BY THE COPYRIGHT HOLDERS AND 
  21:.\u8glib_arm_v1.18.1\src/u8g_dev_ili9325d_320x240.c ****   CONTRIBUTORS "AS IS" AND ANY EXPRESS OR IMPLIED WARRANTIES, 
  22:.\u8glib_arm_v1.18.1\src/u8g_dev_ili9325d_320x240.c ****   INCLUDING, BUT NOT LIMITED TO, THE IMPLIED WARRANTIES OF 
  23:.\u8glib_arm_v1.18.1\src/u8g_dev_ili9325d_320x240.c ****   MERCHANTABILITY AND FITNESS FOR A PARTICULAR PURPOSE ARE 
  24:.\u8glib_arm_v1.18.1\src/u8g_dev_ili9325d_320x240.c ****   DISCLAIMED. IN NO EVENT SHALL THE COPYRIGHT HOLDER OR 
  25:.\u8glib_arm_v1.18.1\src/u8g_dev_ili9325d_320x240.c ****   CONTRIBUTORS BE LIABLE FOR ANY DIRECT, INDIRECT, INCIDENTAL, 
  26:.\u8glib_arm_v1.18.1\src/u8g_dev_ili9325d_320x240.c ****   SPECIAL, EXEMPLARY, OR CONSEQUENTIAL DAMAGES (INCLUDING, BUT 
  27:.\u8glib_arm_v1.18.1\src/u8g_dev_ili9325d_320x240.c ****   NOT LIMITED TO, PROCUREMENT OF SUBSTITUTE GOODS OR SERVICES; 
  28:.\u8glib_arm_v1.18.1\src/u8g_dev_ili9325d_320x240.c ****   LOSS OF USE, DATA, OR PROFITS; OR BUSINESS INTERRUPTION) HOWEVER 
  29:.\u8glib_arm_v1.18.1\src/u8g_dev_ili9325d_320x240.c ****   CAUSED AND ON ANY THEORY OF LIABILITY, WHETHER IN CONTRACT, 
  30:.\u8glib_arm_v1.18.1\src/u8g_dev_ili9325d_320x240.c ****   STRICT LIABILITY, OR TORT (INCLUDING NEGLIGENCE OR OTHERWISE) 
  31:.\u8glib_arm_v1.18.1\src/u8g_dev_ili9325d_320x240.c ****   ARISING IN ANY WAY OUT OF THE USE OF THIS SOFTWARE, EVEN IF 
  32:.\u8glib_arm_v1.18.1\src/u8g_dev_ili9325d_320x240.c ****   ADVISED OF THE POSSIBILITY OF SUCH DAMAGE.  
  33:.\u8glib_arm_v1.18.1\src/u8g_dev_ili9325d_320x240.c **** 
  34:.\u8glib_arm_v1.18.1\src/u8g_dev_ili9325d_320x240.c ****   Color format
  35:.\u8glib_arm_v1.18.1\src/u8g_dev_ili9325d_320x240.c ****     Red: 5 Bit
  36:.\u8glib_arm_v1.18.1\src/u8g_dev_ili9325d_320x240.c ****     Green: 6 Bit
  37:.\u8glib_arm_v1.18.1\src/u8g_dev_ili9325d_320x240.c ****     Blue: 5 Bit
  38:.\u8glib_arm_v1.18.1\src/u8g_dev_ili9325d_320x240.c ****   
ARM GAS  C:\Users\Shiguruy\AppData\Local\Temp\ccZZafLW.s 			page 11


  39:.\u8glib_arm_v1.18.1\src/u8g_dev_ili9325d_320x240.c ****     
  40:.\u8glib_arm_v1.18.1\src/u8g_dev_ili9325d_320x240.c **** */
  41:.\u8glib_arm_v1.18.1\src/u8g_dev_ili9325d_320x240.c **** 
  42:.\u8glib_arm_v1.18.1\src/u8g_dev_ili9325d_320x240.c **** #include "u8g.h"
  43:.\u8glib_arm_v1.18.1\src/u8g_dev_ili9325d_320x240.c **** 
  44:.\u8glib_arm_v1.18.1\src/u8g_dev_ili9325d_320x240.c **** #define WIDTH 240
  45:.\u8glib_arm_v1.18.1\src/u8g_dev_ili9325d_320x240.c **** 
  46:.\u8glib_arm_v1.18.1\src/u8g_dev_ili9325d_320x240.c **** #if defined(U8G_16BIT)
  47:.\u8glib_arm_v1.18.1\src/u8g_dev_ili9325d_320x240.c **** #define HEIGHT 320
  48:.\u8glib_arm_v1.18.1\src/u8g_dev_ili9325d_320x240.c **** #else
  49:.\u8glib_arm_v1.18.1\src/u8g_dev_ili9325d_320x240.c **** /* if the user tries to compile the 8Bit version of the lib, then restrict the height to something 
  50:.\u8glib_arm_v1.18.1\src/u8g_dev_ili9325d_320x240.c **** #define HEIGHT 240
  51:.\u8glib_arm_v1.18.1\src/u8g_dev_ili9325d_320x240.c **** #endif
  52:.\u8glib_arm_v1.18.1\src/u8g_dev_ili9325d_320x240.c **** #define PAGE_HEIGHT 4
  53:.\u8glib_arm_v1.18.1\src/u8g_dev_ili9325d_320x240.c **** 
  54:.\u8glib_arm_v1.18.1\src/u8g_dev_ili9325d_320x240.c **** 
  55:.\u8glib_arm_v1.18.1\src/u8g_dev_ili9325d_320x240.c **** /*
  56:.\u8glib_arm_v1.18.1\src/u8g_dev_ili9325d_320x240.c ****   reference board for this device:
  57:.\u8glib_arm_v1.18.1\src/u8g_dev_ili9325d_320x240.c ****     http://iteadstudio.com/store/index.php?main_page=product_info&cPath=57_58&products_id=55
  58:.\u8glib_arm_v1.18.1\src/u8g_dev_ili9325d_320x240.c ****   documentation:
  59:.\u8glib_arm_v1.18.1\src/u8g_dev_ili9325d_320x240.c ****     http://iteadstudio.com/Downloadfile/ITDB02_material.rar
  60:.\u8glib_arm_v1.18.1\src/u8g_dev_ili9325d_320x240.c ****   datasheet
  61:.\u8glib_arm_v1.18.1\src/u8g_dev_ili9325d_320x240.c ****     http://www.newhavendisplay.com/app_notes/ILI9325D.pdf
  62:.\u8glib_arm_v1.18.1\src/u8g_dev_ili9325d_320x240.c ****   other libs
  63:.\u8glib_arm_v1.18.1\src/u8g_dev_ili9325d_320x240.c ****     http://henningkarlsen.com/electronics/library.php
  64:.\u8glib_arm_v1.18.1\src/u8g_dev_ili9325d_320x240.c ****   init sequence
  65:.\u8glib_arm_v1.18.1\src/u8g_dev_ili9325d_320x240.c ****     http://code.google.com/p/itdb02/, ITDB02.cpp, iteadstudio.com
  66:.\u8glib_arm_v1.18.1\src/u8g_dev_ili9325d_320x240.c **** */
  67:.\u8glib_arm_v1.18.1\src/u8g_dev_ili9325d_320x240.c **** 
  68:.\u8glib_arm_v1.18.1\src/u8g_dev_ili9325d_320x240.c **** static const uint8_t u8g_dev_ili9325d_320x240_init_seq[] PROGMEM = {
  69:.\u8glib_arm_v1.18.1\src/u8g_dev_ili9325d_320x240.c ****   U8G_ESC_CS(0),             /* disable chip */
  70:.\u8glib_arm_v1.18.1\src/u8g_dev_ili9325d_320x240.c ****   U8G_ESC_DLY(50),         /* delay 50 ms */
  71:.\u8glib_arm_v1.18.1\src/u8g_dev_ili9325d_320x240.c ****   U8G_ESC_RST(15),           /* do reset low pulse with (15*16)+2 milliseconds (=maximum delay)*/
  72:.\u8glib_arm_v1.18.1\src/u8g_dev_ili9325d_320x240.c ****   U8G_ESC_DLY(50),         /* delay 50 ms */
  73:.\u8glib_arm_v1.18.1\src/u8g_dev_ili9325d_320x240.c ****   U8G_ESC_RST(15),           /* do reset low pulse with (15*16)+2 milliseconds (=maximum delay)*/
  74:.\u8glib_arm_v1.18.1\src/u8g_dev_ili9325d_320x240.c ****   U8G_ESC_DLY(50),         /* delay 50 ms */
  75:.\u8glib_arm_v1.18.1\src/u8g_dev_ili9325d_320x240.c ****   U8G_ESC_CS(1),             /* enable chip */
  76:.\u8glib_arm_v1.18.1\src/u8g_dev_ili9325d_320x240.c ****   U8G_ESC_DLY(50),         /* delay 50 ms */
  77:.\u8glib_arm_v1.18.1\src/u8g_dev_ili9325d_320x240.c **** 
  78:.\u8glib_arm_v1.18.1\src/u8g_dev_ili9325d_320x240.c ****   
  79:.\u8glib_arm_v1.18.1\src/u8g_dev_ili9325d_320x240.c ****   //U8G_ESC_ADR(0),  0x000, 0x0E5,               /* only used for none D version: set SRAM internal
  80:.\u8glib_arm_v1.18.1\src/u8g_dev_ili9325d_320x240.c ****   //U8G_ESC_ADR(1),  0x078, 0x0f0,             
  81:.\u8glib_arm_v1.18.1\src/u8g_dev_ili9325d_320x240.c ****   U8G_ESC_ADR(0),  0x000, 0x001,               /* Driver Output Control, bits 8 & 10 */
  82:.\u8glib_arm_v1.18.1\src/u8g_dev_ili9325d_320x240.c ****   U8G_ESC_ADR(1),  0x001, 0x000,           
  83:.\u8glib_arm_v1.18.1\src/u8g_dev_ili9325d_320x240.c ****   U8G_ESC_ADR(0),  0x000, 0x002,               /* LCD Driving Wave Control, bit 9: Set line inversi
  84:.\u8glib_arm_v1.18.1\src/u8g_dev_ili9325d_320x240.c ****   U8G_ESC_ADR(1),  0x002, 0x000,               /* ITDB02 none D verion: 0x007, 0x000 */        
  85:.\u8glib_arm_v1.18.1\src/u8g_dev_ili9325d_320x240.c ****   U8G_ESC_ADR(0),  0x000, 0x003,               /* Entry Mode, GRAM write direction and BGR=1 */
  86:.\u8glib_arm_v1.18.1\src/u8g_dev_ili9325d_320x240.c ****   U8G_ESC_ADR(1),  0x010, 0x030,           
  87:.\u8glib_arm_v1.18.1\src/u8g_dev_ili9325d_320x240.c ****   U8G_ESC_ADR(0),  0x000, 0x004,               /* Resize register */
  88:.\u8glib_arm_v1.18.1\src/u8g_dev_ili9325d_320x240.c ****   U8G_ESC_ADR(1),  0x000, 0x000,           
  89:.\u8glib_arm_v1.18.1\src/u8g_dev_ili9325d_320x240.c ****   U8G_ESC_ADR(0),  0x000, 0x008,               /* Display Control 2: set the back porch and front p
  90:.\u8glib_arm_v1.18.1\src/u8g_dev_ili9325d_320x240.c ****   U8G_ESC_ADR(1),  0x002, 0x007,           
  91:.\u8glib_arm_v1.18.1\src/u8g_dev_ili9325d_320x240.c ****   
  92:.\u8glib_arm_v1.18.1\src/u8g_dev_ili9325d_320x240.c ****   U8G_ESC_ADR(0),  0x000, 0x009,               /* Display Control 3 */
  93:.\u8glib_arm_v1.18.1\src/u8g_dev_ili9325d_320x240.c ****   U8G_ESC_ADR(1),  0x000, 0x000,           
  94:.\u8glib_arm_v1.18.1\src/u8g_dev_ili9325d_320x240.c **** 
  95:.\u8glib_arm_v1.18.1\src/u8g_dev_ili9325d_320x240.c ****   U8G_ESC_ADR(0),  0x000, 0x00a,               /* Display Control 4: FMARK */
ARM GAS  C:\Users\Shiguruy\AppData\Local\Temp\ccZZafLW.s 			page 12


  96:.\u8glib_arm_v1.18.1\src/u8g_dev_ili9325d_320x240.c ****   U8G_ESC_ADR(1),  0x000, 0x000,           
  97:.\u8glib_arm_v1.18.1\src/u8g_dev_ili9325d_320x240.c ****   U8G_ESC_ADR(0),  0x000, 0x00c,               /* RGB Display Interface Control 1 */
  98:.\u8glib_arm_v1.18.1\src/u8g_dev_ili9325d_320x240.c ****   U8G_ESC_ADR(1),  0x000, 0x000,           
  99:.\u8glib_arm_v1.18.1\src/u8g_dev_ili9325d_320x240.c ****   U8G_ESC_ADR(0),  0x000, 0x00d,               /* Frame Maker Position */
 100:.\u8glib_arm_v1.18.1\src/u8g_dev_ili9325d_320x240.c ****   U8G_ESC_ADR(1),  0x000, 0x000,           
 101:.\u8glib_arm_v1.18.1\src/u8g_dev_ili9325d_320x240.c ****   U8G_ESC_ADR(0),  0x000, 0x00f,                /* RGB Display Interface Control 2 */
 102:.\u8glib_arm_v1.18.1\src/u8g_dev_ili9325d_320x240.c ****   U8G_ESC_ADR(1),  0x000, 0x000,  
 103:.\u8glib_arm_v1.18.1\src/u8g_dev_ili9325d_320x240.c ****   U8G_ESC_ADR(0),  0x000, 0x010,               /* Power Control 1: SAP, BT[3:0], AP, DSTB, SLP, STB
 104:.\u8glib_arm_v1.18.1\src/u8g_dev_ili9325d_320x240.c ****   U8G_ESC_ADR(1),  0x000, 0x000,  
 105:.\u8glib_arm_v1.18.1\src/u8g_dev_ili9325d_320x240.c ****   U8G_ESC_ADR(0),  0x000, 0x011,               /* Power Control 2: DC1[2:0], DC0[2:0], VC[2:0] */
 106:.\u8glib_arm_v1.18.1\src/u8g_dev_ili9325d_320x240.c ****   U8G_ESC_ADR(1),  0x000, 0x007,  
 107:.\u8glib_arm_v1.18.1\src/u8g_dev_ili9325d_320x240.c ****   U8G_ESC_ADR(0),  0x000, 0x012,               /* Power Control 3: VREG1OUT voltage */
 108:.\u8glib_arm_v1.18.1\src/u8g_dev_ili9325d_320x240.c ****   U8G_ESC_ADR(1),  0x000, 0x000,  
 109:.\u8glib_arm_v1.18.1\src/u8g_dev_ili9325d_320x240.c ****   U8G_ESC_ADR(0),  0x000, 0x013,               /* Power Control 4: VDV[4:0] for VCOM amplitude */
 110:.\u8glib_arm_v1.18.1\src/u8g_dev_ili9325d_320x240.c ****   U8G_ESC_ADR(1),  0x000, 0x000,  
 111:.\u8glib_arm_v1.18.1\src/u8g_dev_ili9325d_320x240.c ****   U8G_ESC_ADR(0),  0x000, 0x007,               /* Display Control 1: Operate, but do not display */
 112:.\u8glib_arm_v1.18.1\src/u8g_dev_ili9325d_320x240.c ****   U8G_ESC_ADR(1),  0x000, 0x001,   
 113:.\u8glib_arm_v1.18.1\src/u8g_dev_ili9325d_320x240.c ****   
 114:.\u8glib_arm_v1.18.1\src/u8g_dev_ili9325d_320x240.c ****   U8G_ESC_DLY(100),         /* delay 100 ms */  /*  ITDB02 none D verion:  50ms */
 115:.\u8glib_arm_v1.18.1\src/u8g_dev_ili9325d_320x240.c ****   U8G_ESC_DLY(100),         /* delay 100 ms */
 116:.\u8glib_arm_v1.18.1\src/u8g_dev_ili9325d_320x240.c ****   
 117:.\u8glib_arm_v1.18.1\src/u8g_dev_ili9325d_320x240.c ****   U8G_ESC_ADR(0),  0x000, 0x010,               /* Power Control 1: SAP, BT[3:0], AP, DSTB, SLP, STB
 118:.\u8glib_arm_v1.18.1\src/u8g_dev_ili9325d_320x240.c ****   U8G_ESC_ADR(1),  0x016, 0x090,               /*  ITDB02 none D verion:  0x010, 0x090 */
 119:.\u8glib_arm_v1.18.1\src/u8g_dev_ili9325d_320x240.c ****   U8G_ESC_ADR(0),  0x000, 0x011,               /* Power Control 2: SAP, BT[3:0], AP, DSTB, SLP, STB
 120:.\u8glib_arm_v1.18.1\src/u8g_dev_ili9325d_320x240.c ****   U8G_ESC_ADR(1),  0x002, 0x027,
 121:.\u8glib_arm_v1.18.1\src/u8g_dev_ili9325d_320x240.c **** 
 122:.\u8glib_arm_v1.18.1\src/u8g_dev_ili9325d_320x240.c ****   U8G_ESC_DLY(50),         /* delay 50 ms */
 123:.\u8glib_arm_v1.18.1\src/u8g_dev_ili9325d_320x240.c ****   
 124:.\u8glib_arm_v1.18.1\src/u8g_dev_ili9325d_320x240.c ****   U8G_ESC_ADR(0),  0x000, 0x012,               /* Power Control 3: VCI: External, VCI*1.80 */
 125:.\u8glib_arm_v1.18.1\src/u8g_dev_ili9325d_320x240.c ****   U8G_ESC_ADR(1),  0x000, 0x00d,               /*  ITDB02 none D verion:  0x000, 0x01f */
 126:.\u8glib_arm_v1.18.1\src/u8g_dev_ili9325d_320x240.c **** 
 127:.\u8glib_arm_v1.18.1\src/u8g_dev_ili9325d_320x240.c ****   U8G_ESC_DLY(50),         /* delay 50 ms */
 128:.\u8glib_arm_v1.18.1\src/u8g_dev_ili9325d_320x240.c ****   
 129:.\u8glib_arm_v1.18.1\src/u8g_dev_ili9325d_320x240.c ****   U8G_ESC_ADR(0),  0x000, 0x013,               /* Power Control 4: VDV[4:0] for VCOM amplitude */
 130:.\u8glib_arm_v1.18.1\src/u8g_dev_ili9325d_320x240.c ****   U8G_ESC_ADR(1),  0x012, 0x000,               /*  ITDB02 none D verion:  0x015, 0x000 */
 131:.\u8glib_arm_v1.18.1\src/u8g_dev_ili9325d_320x240.c ****   U8G_ESC_ADR(0),  0x000, 0x029,               /* Power Control 7 */
 132:.\u8glib_arm_v1.18.1\src/u8g_dev_ili9325d_320x240.c ****   U8G_ESC_ADR(1),  0x000, 0x00a,               /*  ITDB02 none D verion:  0x000, 0x027 */
 133:.\u8glib_arm_v1.18.1\src/u8g_dev_ili9325d_320x240.c ****   U8G_ESC_ADR(0),  0x000, 0x02b,               /* Frame Rate: 83 */
 134:.\u8glib_arm_v1.18.1\src/u8g_dev_ili9325d_320x240.c ****   U8G_ESC_ADR(1),  0x000, 0x00d,
 135:.\u8glib_arm_v1.18.1\src/u8g_dev_ili9325d_320x240.c **** 
 136:.\u8glib_arm_v1.18.1\src/u8g_dev_ili9325d_320x240.c ****   U8G_ESC_DLY(50),         /* delay 50 ms */
 137:.\u8glib_arm_v1.18.1\src/u8g_dev_ili9325d_320x240.c ****   
 138:.\u8glib_arm_v1.18.1\src/u8g_dev_ili9325d_320x240.c ****   U8G_ESC_ADR(0),  0x000, 0x020,               /* Horizontal GRAM Address Set */
 139:.\u8glib_arm_v1.18.1\src/u8g_dev_ili9325d_320x240.c ****   U8G_ESC_ADR(1),  0x000, 0x000,
 140:.\u8glib_arm_v1.18.1\src/u8g_dev_ili9325d_320x240.c ****   U8G_ESC_ADR(0),  0x000, 0x021,               /* Vertical GRAM Address Set */
 141:.\u8glib_arm_v1.18.1\src/u8g_dev_ili9325d_320x240.c ****   U8G_ESC_ADR(1),  0x000, 0x000,
 142:.\u8glib_arm_v1.18.1\src/u8g_dev_ili9325d_320x240.c **** 
 143:.\u8glib_arm_v1.18.1\src/u8g_dev_ili9325d_320x240.c ****   /* gamma control */
 144:.\u8glib_arm_v1.18.1\src/u8g_dev_ili9325d_320x240.c ****   U8G_ESC_ADR(0),  0x000, 0x030,               
 145:.\u8glib_arm_v1.18.1\src/u8g_dev_ili9325d_320x240.c ****   U8G_ESC_ADR(1),  0x000, 0x000,
 146:.\u8glib_arm_v1.18.1\src/u8g_dev_ili9325d_320x240.c ****   U8G_ESC_ADR(0),  0x000, 0x031,
 147:.\u8glib_arm_v1.18.1\src/u8g_dev_ili9325d_320x240.c ****   U8G_ESC_ADR(1),  0x004, 0x004,
 148:.\u8glib_arm_v1.18.1\src/u8g_dev_ili9325d_320x240.c ****   U8G_ESC_ADR(0),  0x000, 0x032,
 149:.\u8glib_arm_v1.18.1\src/u8g_dev_ili9325d_320x240.c ****   U8G_ESC_ADR(1),  0x000, 0x003,
 150:.\u8glib_arm_v1.18.1\src/u8g_dev_ili9325d_320x240.c ****   U8G_ESC_ADR(0),  0x000, 0x035,               
 151:.\u8glib_arm_v1.18.1\src/u8g_dev_ili9325d_320x240.c ****   U8G_ESC_ADR(1),  0x004, 0x005,
 152:.\u8glib_arm_v1.18.1\src/u8g_dev_ili9325d_320x240.c ****   U8G_ESC_ADR(0),  0x000, 0x036,               
ARM GAS  C:\Users\Shiguruy\AppData\Local\Temp\ccZZafLW.s 			page 13


 153:.\u8glib_arm_v1.18.1\src/u8g_dev_ili9325d_320x240.c ****   U8G_ESC_ADR(1),  0x008, 0x008,
 154:.\u8glib_arm_v1.18.1\src/u8g_dev_ili9325d_320x240.c ****   U8G_ESC_ADR(0),  0x000, 0x037,               
 155:.\u8glib_arm_v1.18.1\src/u8g_dev_ili9325d_320x240.c ****   U8G_ESC_ADR(1),  0x004, 0x007,
 156:.\u8glib_arm_v1.18.1\src/u8g_dev_ili9325d_320x240.c ****   U8G_ESC_ADR(0),  0x000, 0x038,               
 157:.\u8glib_arm_v1.18.1\src/u8g_dev_ili9325d_320x240.c ****   U8G_ESC_ADR(1),  0x003, 0x003,
 158:.\u8glib_arm_v1.18.1\src/u8g_dev_ili9325d_320x240.c ****   U8G_ESC_ADR(0),  0x000, 0x039,               
 159:.\u8glib_arm_v1.18.1\src/u8g_dev_ili9325d_320x240.c ****   U8G_ESC_ADR(1),  0x007, 0x007,
 160:.\u8glib_arm_v1.18.1\src/u8g_dev_ili9325d_320x240.c ****   U8G_ESC_ADR(0),  0x000, 0x03c,               
 161:.\u8glib_arm_v1.18.1\src/u8g_dev_ili9325d_320x240.c ****   U8G_ESC_ADR(1),  0x005, 0x004,
 162:.\u8glib_arm_v1.18.1\src/u8g_dev_ili9325d_320x240.c ****   U8G_ESC_ADR(0),  0x000, 0x03d,               
 163:.\u8glib_arm_v1.18.1\src/u8g_dev_ili9325d_320x240.c ****   U8G_ESC_ADR(1),  0x008, 0x008,
 164:.\u8glib_arm_v1.18.1\src/u8g_dev_ili9325d_320x240.c ****   
 165:.\u8glib_arm_v1.18.1\src/u8g_dev_ili9325d_320x240.c ****   U8G_ESC_ADR(0),  0x000, 0x050,               /* Horizontal GRAM Start Address */
 166:.\u8glib_arm_v1.18.1\src/u8g_dev_ili9325d_320x240.c ****   U8G_ESC_ADR(1),  0x000, 0x000,
 167:.\u8glib_arm_v1.18.1\src/u8g_dev_ili9325d_320x240.c ****   U8G_ESC_ADR(0),  0x000, 0x051,               /* Horizontal GRAM End Address: 239 */
 168:.\u8glib_arm_v1.18.1\src/u8g_dev_ili9325d_320x240.c ****   U8G_ESC_ADR(1),  0x000, 0x0EF,
 169:.\u8glib_arm_v1.18.1\src/u8g_dev_ili9325d_320x240.c ****   U8G_ESC_ADR(0),  0x000, 0x052,               /* Vertical GRAM Start Address */
 170:.\u8glib_arm_v1.18.1\src/u8g_dev_ili9325d_320x240.c ****   U8G_ESC_ADR(1),  0x000, 0x000,
 171:.\u8glib_arm_v1.18.1\src/u8g_dev_ili9325d_320x240.c ****   U8G_ESC_ADR(0),  0x000, 0x053,               /* Vertical GRAM End Address: 319 */
 172:.\u8glib_arm_v1.18.1\src/u8g_dev_ili9325d_320x240.c ****   U8G_ESC_ADR(1),  0x001, 0x03F,
 173:.\u8glib_arm_v1.18.1\src/u8g_dev_ili9325d_320x240.c ****   
 174:.\u8glib_arm_v1.18.1\src/u8g_dev_ili9325d_320x240.c ****   U8G_ESC_ADR(0),  0x000, 0x060,               /* Driver Output Control 2 */
 175:.\u8glib_arm_v1.18.1\src/u8g_dev_ili9325d_320x240.c ****   U8G_ESC_ADR(1),  0x0a7, 0x000,
 176:.\u8glib_arm_v1.18.1\src/u8g_dev_ili9325d_320x240.c ****   U8G_ESC_ADR(0),  0x000, 0x061,               /* Base Image Display Control: NDL,VLE, REV */
 177:.\u8glib_arm_v1.18.1\src/u8g_dev_ili9325d_320x240.c ****   U8G_ESC_ADR(1),  0x000, 0x001,
 178:.\u8glib_arm_v1.18.1\src/u8g_dev_ili9325d_320x240.c ****   U8G_ESC_ADR(0),  0x000, 0x06a,               /* Vertical Scroll Control */
 179:.\u8glib_arm_v1.18.1\src/u8g_dev_ili9325d_320x240.c ****   U8G_ESC_ADR(1),  0x000, 0x000,
 180:.\u8glib_arm_v1.18.1\src/u8g_dev_ili9325d_320x240.c **** 
 181:.\u8glib_arm_v1.18.1\src/u8g_dev_ili9325d_320x240.c ****   U8G_ESC_ADR(0),  0x000, 0x080,               /* Partial Image 1 Display Position */
 182:.\u8glib_arm_v1.18.1\src/u8g_dev_ili9325d_320x240.c ****   U8G_ESC_ADR(1),  0x000, 0x000,
 183:.\u8glib_arm_v1.18.1\src/u8g_dev_ili9325d_320x240.c ****   U8G_ESC_ADR(0),  0x000, 0x081,               /* Partial Image 1 RAM Start Address */
 184:.\u8glib_arm_v1.18.1\src/u8g_dev_ili9325d_320x240.c ****   U8G_ESC_ADR(1),  0x000, 0x000,
 185:.\u8glib_arm_v1.18.1\src/u8g_dev_ili9325d_320x240.c ****   U8G_ESC_ADR(0),  0x000, 0x082,               /* Partial Image 1 RAM End Address */
 186:.\u8glib_arm_v1.18.1\src/u8g_dev_ili9325d_320x240.c ****   U8G_ESC_ADR(1),  0x000, 0x000,
 187:.\u8glib_arm_v1.18.1\src/u8g_dev_ili9325d_320x240.c ****   U8G_ESC_ADR(0),  0x000, 0x083,               /* Partial Image 2 Display Position */
 188:.\u8glib_arm_v1.18.1\src/u8g_dev_ili9325d_320x240.c ****   U8G_ESC_ADR(1),  0x000, 0x000,
 189:.\u8glib_arm_v1.18.1\src/u8g_dev_ili9325d_320x240.c ****   U8G_ESC_ADR(0),  0x000, 0x084,               /* Partial Image 2 RAM Start Address */
 190:.\u8glib_arm_v1.18.1\src/u8g_dev_ili9325d_320x240.c ****   U8G_ESC_ADR(1),  0x000, 0x000,
 191:.\u8glib_arm_v1.18.1\src/u8g_dev_ili9325d_320x240.c ****   U8G_ESC_ADR(0),  0x000, 0x085,               /* Partial Image 2 RAM End Address */
 192:.\u8glib_arm_v1.18.1\src/u8g_dev_ili9325d_320x240.c ****   U8G_ESC_ADR(1),  0x000, 0x000,
 193:.\u8glib_arm_v1.18.1\src/u8g_dev_ili9325d_320x240.c **** 
 194:.\u8glib_arm_v1.18.1\src/u8g_dev_ili9325d_320x240.c ****   U8G_ESC_ADR(0),  0x000, 0x090,               /* Panel Interface Control 1 */
 195:.\u8glib_arm_v1.18.1\src/u8g_dev_ili9325d_320x240.c ****   U8G_ESC_ADR(1),  0x000, 0x010,
 196:.\u8glib_arm_v1.18.1\src/u8g_dev_ili9325d_320x240.c ****   U8G_ESC_ADR(0),  0x000, 0x092,               /* Panel Interface Control 2 */
 197:.\u8glib_arm_v1.18.1\src/u8g_dev_ili9325d_320x240.c ****   U8G_ESC_ADR(1),  0x000, 0x000,        /* 0x006, 0x000 */
 198:.\u8glib_arm_v1.18.1\src/u8g_dev_ili9325d_320x240.c **** 
 199:.\u8glib_arm_v1.18.1\src/u8g_dev_ili9325d_320x240.c ****   U8G_ESC_ADR(0),  0x000, 0x007,               /* Display Control 1: Operate, display ON */
 200:.\u8glib_arm_v1.18.1\src/u8g_dev_ili9325d_320x240.c ****   U8G_ESC_ADR(1),  0x001, 0x033,   
 201:.\u8glib_arm_v1.18.1\src/u8g_dev_ili9325d_320x240.c **** 
 202:.\u8glib_arm_v1.18.1\src/u8g_dev_ili9325d_320x240.c ****   U8G_ESC_DLY(10),               /* delay 10 ms */
 203:.\u8glib_arm_v1.18.1\src/u8g_dev_ili9325d_320x240.c ****   
 204:.\u8glib_arm_v1.18.1\src/u8g_dev_ili9325d_320x240.c ****   /* write test pattern */  
 205:.\u8glib_arm_v1.18.1\src/u8g_dev_ili9325d_320x240.c ****   U8G_ESC_ADR(0),  0x000, 0x020,               /* Horizontal GRAM Address Set */
 206:.\u8glib_arm_v1.18.1\src/u8g_dev_ili9325d_320x240.c ****   U8G_ESC_ADR(1),  0x000, 0x000,
 207:.\u8glib_arm_v1.18.1\src/u8g_dev_ili9325d_320x240.c ****   U8G_ESC_ADR(0),  0x000, 0x021,               /* Vertical GRAM Address Set */
 208:.\u8glib_arm_v1.18.1\src/u8g_dev_ili9325d_320x240.c ****   U8G_ESC_ADR(1),  0x000, 0x010,
 209:.\u8glib_arm_v1.18.1\src/u8g_dev_ili9325d_320x240.c ****   U8G_ESC_ADR(0),  0x000, 0x022,               /* Write Data to GRAM */
ARM GAS  C:\Users\Shiguruy\AppData\Local\Temp\ccZZafLW.s 			page 14


 210:.\u8glib_arm_v1.18.1\src/u8g_dev_ili9325d_320x240.c ****   U8G_ESC_ADR(1),  0x0fe, 0x0fe,
 211:.\u8glib_arm_v1.18.1\src/u8g_dev_ili9325d_320x240.c ****   0x000, 0x000,
 212:.\u8glib_arm_v1.18.1\src/u8g_dev_ili9325d_320x240.c ****   0x0fe, 0x0fe,
 213:.\u8glib_arm_v1.18.1\src/u8g_dev_ili9325d_320x240.c ****   0x000, 0x000,
 214:.\u8glib_arm_v1.18.1\src/u8g_dev_ili9325d_320x240.c ****   0x0fe, 0x0fe,
 215:.\u8glib_arm_v1.18.1\src/u8g_dev_ili9325d_320x240.c ****   0x000, 0x000,
 216:.\u8glib_arm_v1.18.1\src/u8g_dev_ili9325d_320x240.c ****   0x0fe, 0x0fe,
 217:.\u8glib_arm_v1.18.1\src/u8g_dev_ili9325d_320x240.c ****   0x000, 0x000,
 218:.\u8glib_arm_v1.18.1\src/u8g_dev_ili9325d_320x240.c ****   0x0fe, 0x0fe,
 219:.\u8glib_arm_v1.18.1\src/u8g_dev_ili9325d_320x240.c ****   0x000, 0x000,
 220:.\u8glib_arm_v1.18.1\src/u8g_dev_ili9325d_320x240.c ****   0x0fe, 0x0fe,
 221:.\u8glib_arm_v1.18.1\src/u8g_dev_ili9325d_320x240.c ****   0x000, 0x000,
 222:.\u8glib_arm_v1.18.1\src/u8g_dev_ili9325d_320x240.c ****   0x0fe, 0x0fe,
 223:.\u8glib_arm_v1.18.1\src/u8g_dev_ili9325d_320x240.c ****   0x000, 0x000,
 224:.\u8glib_arm_v1.18.1\src/u8g_dev_ili9325d_320x240.c ****   0x0fe, 0x0fe,
 225:.\u8glib_arm_v1.18.1\src/u8g_dev_ili9325d_320x240.c ****   0x000, 0x000,
 226:.\u8glib_arm_v1.18.1\src/u8g_dev_ili9325d_320x240.c ****   0x0fe, 0x0fe,
 227:.\u8glib_arm_v1.18.1\src/u8g_dev_ili9325d_320x240.c ****   
 228:.\u8glib_arm_v1.18.1\src/u8g_dev_ili9325d_320x240.c ****   U8G_ESC_CS(0),             /* disable chip */
 229:.\u8glib_arm_v1.18.1\src/u8g_dev_ili9325d_320x240.c ****   U8G_ESC_END                /* end of sequence */
 230:.\u8glib_arm_v1.18.1\src/u8g_dev_ili9325d_320x240.c **** };
 231:.\u8glib_arm_v1.18.1\src/u8g_dev_ili9325d_320x240.c **** 
 232:.\u8glib_arm_v1.18.1\src/u8g_dev_ili9325d_320x240.c **** 
 233:.\u8glib_arm_v1.18.1\src/u8g_dev_ili9325d_320x240.c **** static const uint8_t u8g_dev_ili9325d_320x240_page_seq[] PROGMEM = {
 234:.\u8glib_arm_v1.18.1\src/u8g_dev_ili9325d_320x240.c ****   U8G_ESC_CS(1),             /* enable chip */
 235:.\u8glib_arm_v1.18.1\src/u8g_dev_ili9325d_320x240.c ****   U8G_ESC_ADR(0),  0x000, 0x020,               /* Horizontal GRAM Address Set */
 236:.\u8glib_arm_v1.18.1\src/u8g_dev_ili9325d_320x240.c ****   U8G_ESC_ADR(1),  0x000, 0x000,
 237:.\u8glib_arm_v1.18.1\src/u8g_dev_ili9325d_320x240.c ****   U8G_ESC_ADR(0),  0x000, 0x021,               /* Vertical GRAM Address Set */
 238:.\u8glib_arm_v1.18.1\src/u8g_dev_ili9325d_320x240.c ****   U8G_ESC_ADR(1), 
 239:.\u8glib_arm_v1.18.1\src/u8g_dev_ili9325d_320x240.c ****   U8G_ESC_END                /* end of sequence */
 240:.\u8glib_arm_v1.18.1\src/u8g_dev_ili9325d_320x240.c **** };
 241:.\u8glib_arm_v1.18.1\src/u8g_dev_ili9325d_320x240.c **** 
 242:.\u8glib_arm_v1.18.1\src/u8g_dev_ili9325d_320x240.c **** /* convert the internal RGB 332 to 65K high byte */
 243:.\u8glib_arm_v1.18.1\src/u8g_dev_ili9325d_320x240.c **** static uint8_t u8g_dev_ili9325d_get_65K_high_byte(uint8_t color)
 244:.\u8glib_arm_v1.18.1\src/u8g_dev_ili9325d_320x240.c **** {
 533              		.loc 1 244 0
 534              		.cfi_startproc
 535              		@ args = 0, pretend = 0, frame = 16
 536              		@ frame_needed = 1, uses_anonymous_args = 0
 537              		@ link register save eliminated.
 538 0000 80B4     		push	{r7}
 539              		.cfi_def_cfa_offset 4
 540              		.cfi_offset 7, -4
 541 0002 85B0     		sub	sp, sp, #20
 542              		.cfi_def_cfa_offset 24
 543 0004 00AF     		add	r7, sp, #0
 544              		.cfi_def_cfa_register 7
 545 0006 0346     		mov	r3, r0
 546 0008 FB71     		strb	r3, [r7, #7]
 245:.\u8glib_arm_v1.18.1\src/u8g_dev_ili9325d_320x240.c ****   uint8_t h;
 246:.\u8glib_arm_v1.18.1\src/u8g_dev_ili9325d_320x240.c ****   h = color;
 547              		.loc 1 246 0
 548 000a FB79     		ldrb	r3, [r7, #7]
 549 000c FB73     		strb	r3, [r7, #15]
 247:.\u8glib_arm_v1.18.1\src/u8g_dev_ili9325d_320x240.c ****   h &= 0x0e0;
 550              		.loc 1 247 0
 551 000e FB7B     		ldrb	r3, [r7, #15]
ARM GAS  C:\Users\Shiguruy\AppData\Local\Temp\ccZZafLW.s 			page 15


 552 0010 23F01F03 		bic	r3, r3, #31
 553 0014 FB73     		strb	r3, [r7, #15]
 248:.\u8glib_arm_v1.18.1\src/u8g_dev_ili9325d_320x240.c ****   h |= h>>3;
 554              		.loc 1 248 0
 555 0016 FB7B     		ldrb	r3, [r7, #15]	@ zero_extendqisi2
 556 0018 DB08     		lsrs	r3, r3, #3
 557 001a DAB2     		uxtb	r2, r3
 558 001c FB7B     		ldrb	r3, [r7, #15]
 559 001e 1343     		orrs	r3, r3, r2
 560 0020 FB73     		strb	r3, [r7, #15]
 249:.\u8glib_arm_v1.18.1\src/u8g_dev_ili9325d_320x240.c ****   h &= 0x0f8;
 561              		.loc 1 249 0
 562 0022 FB7B     		ldrb	r3, [r7, #15]
 563 0024 23F00703 		bic	r3, r3, #7
 564 0028 FB73     		strb	r3, [r7, #15]
 250:.\u8glib_arm_v1.18.1\src/u8g_dev_ili9325d_320x240.c ****   color>>=2;
 565              		.loc 1 250 0
 566 002a FB79     		ldrb	r3, [r7, #7]	@ zero_extendqisi2
 567 002c 9B08     		lsrs	r3, r3, #2
 568 002e FB71     		strb	r3, [r7, #7]
 251:.\u8glib_arm_v1.18.1\src/u8g_dev_ili9325d_320x240.c ****   color &= 7;
 569              		.loc 1 251 0
 570 0030 FB79     		ldrb	r3, [r7, #7]
 571 0032 03F00703 		and	r3, r3, #7
 572 0036 FB71     		strb	r3, [r7, #7]
 252:.\u8glib_arm_v1.18.1\src/u8g_dev_ili9325d_320x240.c ****   h |= color;
 573              		.loc 1 252 0
 574 0038 FA7B     		ldrb	r2, [r7, #15]
 575 003a FB79     		ldrb	r3, [r7, #7]
 576 003c 1343     		orrs	r3, r3, r2
 577 003e FB73     		strb	r3, [r7, #15]
 253:.\u8glib_arm_v1.18.1\src/u8g_dev_ili9325d_320x240.c ****   return h;  
 578              		.loc 1 253 0
 579 0040 FB7B     		ldrb	r3, [r7, #15]	@ zero_extendqisi2
 254:.\u8glib_arm_v1.18.1\src/u8g_dev_ili9325d_320x240.c **** }
 580              		.loc 1 254 0
 581 0042 1846     		mov	r0, r3
 582 0044 1437     		adds	r7, r7, #20
 583              		.cfi_def_cfa_offset 4
 584 0046 BD46     		mov	sp, r7
 585              		.cfi_def_cfa_register 13
 586              		@ sp needed
 587 0048 5DF8047B 		ldr	r7, [sp], #4
 588              		.cfi_restore 7
 589              		.cfi_def_cfa_offset 0
 590 004c 7047     		bx	lr
 591              		.cfi_endproc
 592              	.LFE0:
 593              		.size	u8g_dev_ili9325d_get_65K_high_byte, .-u8g_dev_ili9325d_get_65K_high_byte
 594 004e 00BF     		.section	.text.u8g_dev_ili9325d_get_65K_low_byte,"ax",%progbits
 595              		.align	2
 596              		.thumb
 597              		.thumb_func
 598              		.type	u8g_dev_ili9325d_get_65K_low_byte, %function
 599              	u8g_dev_ili9325d_get_65K_low_byte:
 600              	.LFB1:
 255:.\u8glib_arm_v1.18.1\src/u8g_dev_ili9325d_320x240.c **** 
ARM GAS  C:\Users\Shiguruy\AppData\Local\Temp\ccZZafLW.s 			page 16


 256:.\u8glib_arm_v1.18.1\src/u8g_dev_ili9325d_320x240.c **** /* convert the internal RGB 332 to 65K high byte */
 257:.\u8glib_arm_v1.18.1\src/u8g_dev_ili9325d_320x240.c **** static uint8_t u8g_dev_ili9325d_get_65K_low_byte(uint8_t color)
 258:.\u8glib_arm_v1.18.1\src/u8g_dev_ili9325d_320x240.c **** {
 601              		.loc 1 258 0
 602              		.cfi_startproc
 603              		@ args = 0, pretend = 0, frame = 16
 604              		@ frame_needed = 1, uses_anonymous_args = 0
 605              		@ link register save eliminated.
 606 0000 80B4     		push	{r7}
 607              		.cfi_def_cfa_offset 4
 608              		.cfi_offset 7, -4
 609 0002 85B0     		sub	sp, sp, #20
 610              		.cfi_def_cfa_offset 24
 611 0004 00AF     		add	r7, sp, #0
 612              		.cfi_def_cfa_register 7
 613 0006 0346     		mov	r3, r0
 614 0008 FB71     		strb	r3, [r7, #7]
 259:.\u8glib_arm_v1.18.1\src/u8g_dev_ili9325d_320x240.c ****   uint8_t l;
 260:.\u8glib_arm_v1.18.1\src/u8g_dev_ili9325d_320x240.c ****   l = color;
 615              		.loc 1 260 0
 616 000a FB79     		ldrb	r3, [r7, #7]
 617 000c FB73     		strb	r3, [r7, #15]
 261:.\u8glib_arm_v1.18.1\src/u8g_dev_ili9325d_320x240.c ****   l <<= 3;
 618              		.loc 1 261 0
 619 000e FB7B     		ldrb	r3, [r7, #15]
 620 0010 DB00     		lsls	r3, r3, #3
 621 0012 FB73     		strb	r3, [r7, #15]
 262:.\u8glib_arm_v1.18.1\src/u8g_dev_ili9325d_320x240.c ****   color &= 3;
 622              		.loc 1 262 0
 623 0014 FB79     		ldrb	r3, [r7, #7]
 624 0016 03F00303 		and	r3, r3, #3
 625 001a FB71     		strb	r3, [r7, #7]
 263:.\u8glib_arm_v1.18.1\src/u8g_dev_ili9325d_320x240.c ****   color <<= 1;
 626              		.loc 1 263 0
 627 001c FB79     		ldrb	r3, [r7, #7]
 628 001e 5B00     		lsls	r3, r3, #1
 629 0020 FB71     		strb	r3, [r7, #7]
 264:.\u8glib_arm_v1.18.1\src/u8g_dev_ili9325d_320x240.c ****   l |= color;
 630              		.loc 1 264 0
 631 0022 FA7B     		ldrb	r2, [r7, #15]
 632 0024 FB79     		ldrb	r3, [r7, #7]
 633 0026 1343     		orrs	r3, r3, r2
 634 0028 FB73     		strb	r3, [r7, #15]
 265:.\u8glib_arm_v1.18.1\src/u8g_dev_ili9325d_320x240.c ****   return l;  
 635              		.loc 1 265 0
 636 002a FB7B     		ldrb	r3, [r7, #15]	@ zero_extendqisi2
 266:.\u8glib_arm_v1.18.1\src/u8g_dev_ili9325d_320x240.c **** }
 637              		.loc 1 266 0
 638 002c 1846     		mov	r0, r3
 639 002e 1437     		adds	r7, r7, #20
 640              		.cfi_def_cfa_offset 4
 641 0030 BD46     		mov	sp, r7
 642              		.cfi_def_cfa_register 13
 643              		@ sp needed
 644 0032 5DF8047B 		ldr	r7, [sp], #4
 645              		.cfi_restore 7
 646              		.cfi_def_cfa_offset 0
ARM GAS  C:\Users\Shiguruy\AppData\Local\Temp\ccZZafLW.s 			page 17


 647 0036 7047     		bx	lr
 648              		.cfi_endproc
 649              	.LFE1:
 650              		.size	u8g_dev_ili9325d_get_65K_low_byte, .-u8g_dev_ili9325d_get_65K_low_byte
 651              		.section	.text.u8g_dev_ili9325d_320x240_fn,"ax",%progbits
 652              		.align	2
 653              		.global	u8g_dev_ili9325d_320x240_fn
 654              		.thumb
 655              		.thumb_func
 656              		.type	u8g_dev_ili9325d_320x240_fn, %function
 657              	u8g_dev_ili9325d_320x240_fn:
 658              	.LFB2:
 267:.\u8glib_arm_v1.18.1\src/u8g_dev_ili9325d_320x240.c **** 
 268:.\u8glib_arm_v1.18.1\src/u8g_dev_ili9325d_320x240.c **** 
 269:.\u8glib_arm_v1.18.1\src/u8g_dev_ili9325d_320x240.c **** uint8_t u8g_dev_ili9325d_320x240_fn(u8g_t *u8g, u8g_dev_t *dev, uint8_t msg, void *arg)
 270:.\u8glib_arm_v1.18.1\src/u8g_dev_ili9325d_320x240.c **** {
 659              		.loc 1 270 0
 660              		.cfi_startproc
 661              		@ args = 0, pretend = 0, frame = 32
 662              		@ frame_needed = 1, uses_anonymous_args = 0
 663 0000 80B5     		push	{r7, lr}
 664              		.cfi_def_cfa_offset 8
 665              		.cfi_offset 7, -8
 666              		.cfi_offset 14, -4
 667 0002 88B0     		sub	sp, sp, #32
 668              		.cfi_def_cfa_offset 40
 669 0004 00AF     		add	r7, sp, #0
 670              		.cfi_def_cfa_register 7
 671 0006 F860     		str	r0, [r7, #12]
 672 0008 B960     		str	r1, [r7, #8]
 673 000a 3B60     		str	r3, [r7]
 674 000c 1346     		mov	r3, r2
 675 000e FB71     		strb	r3, [r7, #7]
 271:.\u8glib_arm_v1.18.1\src/u8g_dev_ili9325d_320x240.c ****   
 272:.\u8glib_arm_v1.18.1\src/u8g_dev_ili9325d_320x240.c ****   switch(msg)
 676              		.loc 1 272 0
 677 0010 FB79     		ldrb	r3, [r7, #7]	@ zero_extendqisi2
 678 0012 0B2B     		cmp	r3, #11
 679 0014 79D0     		beq	.L15
 680 0016 152B     		cmp	r3, #21
 681 0018 0CD0     		beq	.L8
 682 001a 0A2B     		cmp	r3, #10
 683 001c 76D1     		bne	.L6
 273:.\u8glib_arm_v1.18.1\src/u8g_dev_ili9325d_320x240.c ****   {
 274:.\u8glib_arm_v1.18.1\src/u8g_dev_ili9325d_320x240.c ****     case U8G_DEV_MSG_INIT:
 275:.\u8glib_arm_v1.18.1\src/u8g_dev_ili9325d_320x240.c ****       u8g_InitCom(u8g, dev, U8G_SPI_CLK_CYCLE_50NS);
 684              		.loc 1 275 0
 685 001e F868     		ldr	r0, [r7, #12]
 686 0020 B968     		ldr	r1, [r7, #8]
 687 0022 0122     		movs	r2, #1
 688 0024 FFF7FEFF 		bl	u8g_InitCom
 276:.\u8glib_arm_v1.18.1\src/u8g_dev_ili9325d_320x240.c ****       //for(;;)
 277:.\u8glib_arm_v1.18.1\src/u8g_dev_ili9325d_320x240.c ****         u8g_WriteEscSeqP(u8g, dev, u8g_dev_ili9325d_320x240_init_seq);
 689              		.loc 1 277 0
 690 0028 F868     		ldr	r0, [r7, #12]
 691 002a B968     		ldr	r1, [r7, #8]
 692 002c 3D4A     		ldr	r2, .L16
ARM GAS  C:\Users\Shiguruy\AppData\Local\Temp\ccZZafLW.s 			page 18


 693 002e FFF7FEFF 		bl	u8g_WriteEscSeqP
 278:.\u8glib_arm_v1.18.1\src/u8g_dev_ili9325d_320x240.c ****     
 279:.\u8glib_arm_v1.18.1\src/u8g_dev_ili9325d_320x240.c ****       break;
 694              		.loc 1 279 0
 695 0032 6BE0     		b	.L6
 696              	.L8:
 697              	.LBB2:
 280:.\u8glib_arm_v1.18.1\src/u8g_dev_ili9325d_320x240.c ****     case U8G_DEV_MSG_STOP:
 281:.\u8glib_arm_v1.18.1\src/u8g_dev_ili9325d_320x240.c ****       break;
 282:.\u8glib_arm_v1.18.1\src/u8g_dev_ili9325d_320x240.c ****     case U8G_DEV_MSG_PAGE_NEXT:
 283:.\u8glib_arm_v1.18.1\src/u8g_dev_ili9325d_320x240.c ****       {
 284:.\u8glib_arm_v1.18.1\src/u8g_dev_ili9325d_320x240.c ****         uint8_t i;
 285:.\u8glib_arm_v1.18.1\src/u8g_dev_ili9325d_320x240.c ****         uint16_t y, j;
 286:.\u8glib_arm_v1.18.1\src/u8g_dev_ili9325d_320x240.c ****         uint8_t *ptr;
 287:.\u8glib_arm_v1.18.1\src/u8g_dev_ili9325d_320x240.c ****         u8g_pb_t *pb = (u8g_pb_t *)(dev->dev_mem);
 698              		.loc 1 287 0
 699 0034 BB68     		ldr	r3, [r7, #8]
 700 0036 5B68     		ldr	r3, [r3, #4]
 701 0038 3B61     		str	r3, [r7, #16]
 288:.\u8glib_arm_v1.18.1\src/u8g_dev_ili9325d_320x240.c ****         
 289:.\u8glib_arm_v1.18.1\src/u8g_dev_ili9325d_320x240.c ****         y = pb->p.page_y0;
 702              		.loc 1 289 0
 703 003a 3B69     		ldr	r3, [r7, #16]
 704 003c 9B78     		ldrb	r3, [r3, #2]	@ zero_extendqisi2
 705 003e BB83     		strh	r3, [r7, #28]	@ movhi
 290:.\u8glib_arm_v1.18.1\src/u8g_dev_ili9325d_320x240.c ****         ptr = pb->buf;
 706              		.loc 1 290 0
 707 0040 3B69     		ldr	r3, [r7, #16]
 708 0042 9B68     		ldr	r3, [r3, #8]
 709 0044 7B61     		str	r3, [r7, #20]
 291:.\u8glib_arm_v1.18.1\src/u8g_dev_ili9325d_320x240.c ****         for( i = 0; i < pb->p.page_height; i ++ )
 710              		.loc 1 291 0
 711 0046 0023     		movs	r3, #0
 712 0048 FB77     		strb	r3, [r7, #31]
 713 004a 53E0     		b	.L10
 714              	.L13:
 292:.\u8glib_arm_v1.18.1\src/u8g_dev_ili9325d_320x240.c ****         {
 293:.\u8glib_arm_v1.18.1\src/u8g_dev_ili9325d_320x240.c ****           u8g_WriteEscSeqP(u8g, dev, u8g_dev_ili9325d_320x240_page_seq);
 715              		.loc 1 293 0
 716 004c F868     		ldr	r0, [r7, #12]
 717 004e B968     		ldr	r1, [r7, #8]
 718 0050 354A     		ldr	r2, .L16+4
 719 0052 FFF7FEFF 		bl	u8g_WriteEscSeqP
 294:.\u8glib_arm_v1.18.1\src/u8g_dev_ili9325d_320x240.c ****           u8g_WriteByte(u8g, dev, y >> 8 );      /* display ram (cursor) address high byte */
 720              		.loc 1 294 0
 721 0056 BB8B     		ldrh	r3, [r7, #28]
 722 0058 1B0A     		lsrs	r3, r3, #8
 723 005a 9BB2     		uxth	r3, r3
 724 005c DBB2     		uxtb	r3, r3
 725 005e F868     		ldr	r0, [r7, #12]
 726 0060 B968     		ldr	r1, [r7, #8]
 727 0062 1A46     		mov	r2, r3
 728 0064 FFF7FEFF 		bl	u8g_WriteByte
 295:.\u8glib_arm_v1.18.1\src/u8g_dev_ili9325d_320x240.c ****           u8g_WriteByte(u8g, dev, y & 255 );      /* display ram (cursor) address low byte */
 729              		.loc 1 295 0
 730 0068 BB8B     		ldrh	r3, [r7, #28]	@ movhi
 731 006a DBB2     		uxtb	r3, r3
ARM GAS  C:\Users\Shiguruy\AppData\Local\Temp\ccZZafLW.s 			page 19


 732 006c F868     		ldr	r0, [r7, #12]
 733 006e B968     		ldr	r1, [r7, #8]
 734 0070 1A46     		mov	r2, r3
 735 0072 FFF7FEFF 		bl	u8g_WriteByte
 296:.\u8glib_arm_v1.18.1\src/u8g_dev_ili9325d_320x240.c **** 
 297:.\u8glib_arm_v1.18.1\src/u8g_dev_ili9325d_320x240.c ****           u8g_SetAddress(u8g, dev, 0);           /* cmd mode */
 736              		.loc 1 297 0
 737 0076 F868     		ldr	r0, [r7, #12]
 738 0078 B968     		ldr	r1, [r7, #8]
 739 007a 0022     		movs	r2, #0
 740 007c FFF7FEFF 		bl	u8g_SetAddress
 298:.\u8glib_arm_v1.18.1\src/u8g_dev_ili9325d_320x240.c ****           u8g_WriteByte(u8g, dev, 0 );  
 741              		.loc 1 298 0
 742 0080 F868     		ldr	r0, [r7, #12]
 743 0082 B968     		ldr	r1, [r7, #8]
 744 0084 0022     		movs	r2, #0
 745 0086 FFF7FEFF 		bl	u8g_WriteByte
 299:.\u8glib_arm_v1.18.1\src/u8g_dev_ili9325d_320x240.c ****           u8g_WriteByte(u8g, dev, 0x022 );      /* start gram data */  
 746              		.loc 1 299 0
 747 008a F868     		ldr	r0, [r7, #12]
 748 008c B968     		ldr	r1, [r7, #8]
 749 008e 2222     		movs	r2, #34
 750 0090 FFF7FEFF 		bl	u8g_WriteByte
 300:.\u8glib_arm_v1.18.1\src/u8g_dev_ili9325d_320x240.c ****           
 301:.\u8glib_arm_v1.18.1\src/u8g_dev_ili9325d_320x240.c ****           u8g_SetAddress(u8g, dev, 1);           /* data mode */
 751              		.loc 1 301 0
 752 0094 F868     		ldr	r0, [r7, #12]
 753 0096 B968     		ldr	r1, [r7, #8]
 754 0098 0122     		movs	r2, #1
 755 009a FFF7FEFF 		bl	u8g_SetAddress
 302:.\u8glib_arm_v1.18.1\src/u8g_dev_ili9325d_320x240.c ****           
 303:.\u8glib_arm_v1.18.1\src/u8g_dev_ili9325d_320x240.c ****           for( j = 0; j < pb->width; j++ )
 756              		.loc 1 303 0
 757 009e 0023     		movs	r3, #0
 758 00a0 7B83     		strh	r3, [r7, #26]	@ movhi
 759 00a2 1BE0     		b	.L11
 760              	.L12:
 304:.\u8glib_arm_v1.18.1\src/u8g_dev_ili9325d_320x240.c ****           {
 305:.\u8glib_arm_v1.18.1\src/u8g_dev_ili9325d_320x240.c ****             u8g_WriteByte(u8g, dev, u8g_dev_ili9325d_get_65K_high_byte(*ptr) );  
 761              		.loc 1 305 0 discriminator 3
 762 00a4 7B69     		ldr	r3, [r7, #20]
 763 00a6 1B78     		ldrb	r3, [r3]	@ zero_extendqisi2
 764 00a8 1846     		mov	r0, r3
 765 00aa FFF7FEFF 		bl	u8g_dev_ili9325d_get_65K_high_byte
 766 00ae 0346     		mov	r3, r0
 767 00b0 F868     		ldr	r0, [r7, #12]
 768 00b2 B968     		ldr	r1, [r7, #8]
 769 00b4 1A46     		mov	r2, r3
 770 00b6 FFF7FEFF 		bl	u8g_WriteByte
 306:.\u8glib_arm_v1.18.1\src/u8g_dev_ili9325d_320x240.c ****             u8g_WriteByte(u8g, dev, u8g_dev_ili9325d_get_65K_low_byte(*ptr) );  
 771              		.loc 1 306 0 discriminator 3
 772 00ba 7B69     		ldr	r3, [r7, #20]
 773 00bc 1B78     		ldrb	r3, [r3]	@ zero_extendqisi2
 774 00be 1846     		mov	r0, r3
 775 00c0 FFF7FEFF 		bl	u8g_dev_ili9325d_get_65K_low_byte
 776 00c4 0346     		mov	r3, r0
 777 00c6 F868     		ldr	r0, [r7, #12]
ARM GAS  C:\Users\Shiguruy\AppData\Local\Temp\ccZZafLW.s 			page 20


 778 00c8 B968     		ldr	r1, [r7, #8]
 779 00ca 1A46     		mov	r2, r3
 780 00cc FFF7FEFF 		bl	u8g_WriteByte
 307:.\u8glib_arm_v1.18.1\src/u8g_dev_ili9325d_320x240.c ****               
 308:.\u8glib_arm_v1.18.1\src/u8g_dev_ili9325d_320x240.c ****             ptr++;
 781              		.loc 1 308 0 discriminator 3
 782 00d0 7B69     		ldr	r3, [r7, #20]
 783 00d2 0133     		adds	r3, r3, #1
 784 00d4 7B61     		str	r3, [r7, #20]
 303:.\u8glib_arm_v1.18.1\src/u8g_dev_ili9325d_320x240.c ****           {
 785              		.loc 1 303 0 discriminator 3
 786 00d6 7B8B     		ldrh	r3, [r7, #26]
 787 00d8 0133     		adds	r3, r3, #1
 788 00da 7B83     		strh	r3, [r7, #26]	@ movhi
 789              	.L11:
 303:.\u8glib_arm_v1.18.1\src/u8g_dev_ili9325d_320x240.c ****           {
 790              		.loc 1 303 0 is_stmt 0 discriminator 1
 791 00dc 3B69     		ldr	r3, [r7, #16]
 792 00de 5B79     		ldrb	r3, [r3, #5]	@ zero_extendqisi2
 793 00e0 9BB2     		uxth	r3, r3
 794 00e2 7A8B     		ldrh	r2, [r7, #26]
 795 00e4 9A42     		cmp	r2, r3
 796 00e6 DDD3     		bcc	.L12
 309:.\u8glib_arm_v1.18.1\src/u8g_dev_ili9325d_320x240.c ****           }
 310:.\u8glib_arm_v1.18.1\src/u8g_dev_ili9325d_320x240.c ****           y++;
 797              		.loc 1 310 0 is_stmt 1 discriminator 2
 798 00e8 BB8B     		ldrh	r3, [r7, #28]
 799 00ea 0133     		adds	r3, r3, #1
 800 00ec BB83     		strh	r3, [r7, #28]	@ movhi
 291:.\u8glib_arm_v1.18.1\src/u8g_dev_ili9325d_320x240.c ****         {
 801              		.loc 1 291 0 discriminator 2
 802 00ee FB7F     		ldrb	r3, [r7, #31]	@ zero_extendqisi2
 803 00f0 0133     		adds	r3, r3, #1
 804 00f2 FB77     		strb	r3, [r7, #31]
 805              	.L10:
 291:.\u8glib_arm_v1.18.1\src/u8g_dev_ili9325d_320x240.c ****         {
 806              		.loc 1 291 0 is_stmt 0 discriminator 1
 807 00f4 3B69     		ldr	r3, [r7, #16]
 808 00f6 1B78     		ldrb	r3, [r3]	@ zero_extendqisi2
 809 00f8 FA7F     		ldrb	r2, [r7, #31]	@ zero_extendqisi2
 810 00fa 9A42     		cmp	r2, r3
 811 00fc A6D3     		bcc	.L13
 311:.\u8glib_arm_v1.18.1\src/u8g_dev_ili9325d_320x240.c ****         }
 312:.\u8glib_arm_v1.18.1\src/u8g_dev_ili9325d_320x240.c ****         u8g_SetChipSelect(u8g, dev, 0);
 812              		.loc 1 312 0 is_stmt 1
 813 00fe F868     		ldr	r0, [r7, #12]
 814 0100 B968     		ldr	r1, [r7, #8]
 815 0102 0022     		movs	r2, #0
 816 0104 FFF7FEFF 		bl	u8g_SetChipSelect
 817              	.LBE2:
 313:.\u8glib_arm_v1.18.1\src/u8g_dev_ili9325d_320x240.c ****       }
 314:.\u8glib_arm_v1.18.1\src/u8g_dev_ili9325d_320x240.c ****       break;
 818              		.loc 1 314 0
 819 0108 00E0     		b	.L6
 820              	.L15:
 281:.\u8glib_arm_v1.18.1\src/u8g_dev_ili9325d_320x240.c ****     case U8G_DEV_MSG_PAGE_NEXT:
 821              		.loc 1 281 0
ARM GAS  C:\Users\Shiguruy\AppData\Local\Temp\ccZZafLW.s 			page 21


 822 010a 00BF     		nop
 823              	.L6:
 315:.\u8glib_arm_v1.18.1\src/u8g_dev_ili9325d_320x240.c ****   }
 316:.\u8glib_arm_v1.18.1\src/u8g_dev_ili9325d_320x240.c ****   return u8g_dev_pb8h8_base_fn(u8g, dev, msg, arg);
 824              		.loc 1 316 0
 825 010c FB79     		ldrb	r3, [r7, #7]	@ zero_extendqisi2
 826 010e F868     		ldr	r0, [r7, #12]
 827 0110 B968     		ldr	r1, [r7, #8]
 828 0112 1A46     		mov	r2, r3
 829 0114 3B68     		ldr	r3, [r7]
 830 0116 FFF7FEFF 		bl	u8g_dev_pb8h8_base_fn
 831 011a 0346     		mov	r3, r0
 317:.\u8glib_arm_v1.18.1\src/u8g_dev_ili9325d_320x240.c **** }
 832              		.loc 1 317 0
 833 011c 1846     		mov	r0, r3
 834 011e 2037     		adds	r7, r7, #32
 835              		.cfi_def_cfa_offset 8
 836 0120 BD46     		mov	sp, r7
 837              		.cfi_def_cfa_register 13
 838              		@ sp needed
 839 0122 80BD     		pop	{r7, pc}
 840              	.L17:
 841              		.align	2
 842              	.L16:
 843 0124 00000000 		.word	u8g_dev_ili9325d_320x240_init_seq
 844 0128 E0010000 		.word	u8g_dev_ili9325d_320x240_page_seq
 845              		.cfi_endproc
 846              	.LFE2:
 847              		.size	u8g_dev_ili9325d_320x240_fn, .-u8g_dev_ili9325d_320x240_fn
 848              		.global	u8g_ili9325d_320x240_8h8_buf
 849              		.bss
 850              		.align	2
 851              		.type	u8g_ili9325d_320x240_8h8_buf, %object
 852              		.size	u8g_ili9325d_320x240_8h8_buf, 960
 853              	u8g_ili9325d_320x240_8h8_buf:
 854 0000 00000000 		.space	960
 854      00000000 
 854      00000000 
 854      00000000 
 854      00000000 
 855              		.global	u8g_ili9325d_320x240_8h8_pb
 856              		.data
 857              		.align	2
 858              		.type	u8g_ili9325d_320x240_8h8_pb, %object
 859              		.size	u8g_ili9325d_320x240_8h8_pb, 12
 860              	u8g_ili9325d_320x240_8h8_pb:
 861 0000 04       		.byte	4
 862 0001 F0       		.byte	-16
 863 0002 00       		.byte	0
 864 0003 00       		.byte	0
 865 0004 00       		.byte	0
 866 0005 F0       		.byte	-16
 867 0006 0000     		.space	2
 868 0008 00000000 		.word	u8g_ili9325d_320x240_8h8_buf
 869              		.global	u8g_dev_ili9325d_320x240_8bit
 870              		.align	2
 871              		.type	u8g_dev_ili9325d_320x240_8bit, %object
ARM GAS  C:\Users\Shiguruy\AppData\Local\Temp\ccZZafLW.s 			page 22


 872              		.size	u8g_dev_ili9325d_320x240_8bit, 12
 873              	u8g_dev_ili9325d_320x240_8bit:
 874 000c 00000000 		.word	u8g_dev_ili9325d_320x240_fn
 875 0010 00000000 		.word	u8g_ili9325d_320x240_8h8_pb
 876 0014 00000000 		.word	u8g_com_arduino_port_d_wr_fn
 877              		.text
 878              	.Letext0:
 879              		.file 2 "c:\\program files (x86)\\cypress\\psoc creator\\3.3\\psoc creator\\import\\gnu\\arm\\4.9.
 880              		.file 3 "c:\\program files (x86)\\cypress\\psoc creator\\3.3\\psoc creator\\import\\gnu\\arm\\4.9.
 881              		.file 4 ".\\u8glib_arm_v1.18.1\\src\\u8g.h"