ARM GAS  C:\Users\KJA\AppData\Local\Temp\ccqx3pqN.s 			page 1


   1              		.syntax unified
   2              		.cpu cortex-m3
   3              		.fpu softvfp
   4              		.eabi_attribute 20, 1
   5              		.eabi_attribute 21, 1
   6              		.eabi_attribute 23, 3
   7              		.eabi_attribute 24, 1
   8              		.eabi_attribute 25, 1
   9              		.eabi_attribute 26, 1
  10              		.eabi_attribute 30, 6
  11              		.eabi_attribute 34, 1
  12              		.eabi_attribute 18, 4
  13              		.thumb
  14              		.file	"u8g_arm.c"
  15              		.text
  16              	.Ltext0:
  17              		.cfi_sections	.debug_frame
  18              		.section	.text.u8g_Delay,"ax",%progbits
  19              		.align	2
  20              		.global	u8g_Delay
  21              		.thumb
  22              		.thumb_func
  23              		.type	u8g_Delay, %function
  24              	u8g_Delay:
  25              	.LFB63:
  26              		.file 1 "u8g_arm.c"
   1:u8g_arm.c     **** /*
   2:u8g_arm.c     ****   
   3:u8g_arm.c     ****   u8g_arm.c
   4:u8g_arm.c     ****   
   5:u8g_arm.c     **** 
   6:u8g_arm.c     ****   u8g utility procedures for LPC122x
   7:u8g_arm.c     **** 
   8:u8g_arm.c     ****   Universal 8bit Graphics Library
   9:u8g_arm.c     ****   
  10:u8g_arm.c     ****   Copyright (c) 2013, olikraus@gmail.com
  11:u8g_arm.c     ****   All rights reserved.
  12:u8g_arm.c     **** 
  13:u8g_arm.c     ****   Redistribution and use in source and binary forms, with or without modification, 
  14:u8g_arm.c     ****   are permitted provided that the following conditions are met:
  15:u8g_arm.c     **** 
  16:u8g_arm.c     ****   * Redistributions of source code must retain the above copyright notice, this list 
  17:u8g_arm.c     ****     of conditions and the following disclaimer.
  18:u8g_arm.c     ****     
  19:u8g_arm.c     ****   * Redistributions in binary form must reproduce the above copyright notice, this 
  20:u8g_arm.c     ****     list of conditions and the following disclaimer in the documentation and/or other 
  21:u8g_arm.c     ****     materials provided with the distribution.
  22:u8g_arm.c     **** 
  23:u8g_arm.c     ****   THIS SOFTWARE IS PROVIDED BY THE COPYRIGHT HOLDERS AND 
  24:u8g_arm.c     ****   CONTRIBUTORS "AS IS" AND ANY EXPRESS OR IMPLIED WARRANTIES, 
  25:u8g_arm.c     ****   INCLUDING, BUT NOT LIMITED TO, THE IMPLIED WARRANTIES OF 
  26:u8g_arm.c     ****   MERCHANTABILITY AND FITNESS FOR A PARTICULAR PURPOSE ARE 
  27:u8g_arm.c     ****   DISCLAIMED. IN NO EVENT SHALL THE COPYRIGHT HOLDER OR 
  28:u8g_arm.c     ****   CONTRIBUTORS BE LIABLE FOR ANY DIRECT, INDIRECT, INCIDENTAL, 
  29:u8g_arm.c     ****   SPECIAL, EXEMPLARY, OR CONSEQUENTIAL DAMAGES (INCLUDING, BUT 
  30:u8g_arm.c     ****   NOT LIMITED TO, PROCUREMENT OF SUBSTITUTE GOODS OR SERVICES; 
  31:u8g_arm.c     ****   LOSS OF USE, DATA, OR PROFITS; OR BUSINESS INTERRUPTION) HOWEVER 
ARM GAS  C:\Users\KJA\AppData\Local\Temp\ccqx3pqN.s 			page 2


  32:u8g_arm.c     ****   CAUSED AND ON ANY THEORY OF LIABILITY, WHETHER IN CONTRACT, 
  33:u8g_arm.c     ****   STRICT LIABILITY, OR TORT (INCLUDING NEGLIGENCE OR OTHERWISE) 
  34:u8g_arm.c     ****   ARISING IN ANY WAY OUT OF THE USE OF THIS SOFTWARE, EVEN IF 
  35:u8g_arm.c     ****   ADVISED OF THE POSSIBILITY OF SUCH DAMAGE.  
  36:u8g_arm.c     **** 
  37:u8g_arm.c     ****  
  38:u8g_arm.c     ****   The following delay procedures must be implemented for u8glib. This is done in this file:
  39:u8g_arm.c     **** 
  40:u8g_arm.c     ****   void u8g_Delay(uint16_t val)		Delay by "val" milliseconds
  41:u8g_arm.c     ****   void u8g_MicroDelay(void)		Delay be one microsecond
  42:u8g_arm.c     ****   void u8g_10MicroDelay(void)	Delay by 10 microseconds
  43:u8g_arm.c     ****   
  44:u8g_arm.c     ****   Additional requirements:
  45:u8g_arm.c     ****   
  46:u8g_arm.c     ****       SysTick must be enabled, but SysTick IRQ is not required. Any LOAD values are fine,
  47:u8g_arm.c     ****       it is prefered to have at least 1ms
  48:u8g_arm.c     ****       Example:
  49:u8g_arm.c     ****         SysTick->LOAD = (SystemCoreClock/1000UL*(unsigned long)SYS_TICK_PERIOD_IN_MS) - 1;
  50:u8g_arm.c     **** 	SysTick->VAL = 0;
  51:u8g_arm.c     **** 	SysTick->CTRL = 7;   // enable, generate interrupt (SysTick_Handler), do not divide by 2
  52:u8g_arm.c     **** */
  53:u8g_arm.c     **** #include <device.h>
  54:u8g_arm.c     **** #include <stdio.h>
  55:u8g_arm.c     **** #include "u8g_arm.h"
  56:u8g_arm.c     **** 
  57:u8g_arm.c     **** /*========================================================================*/
  58:u8g_arm.c     **** /* system clock setup for LPC122x */
  59:u8g_arm.c     **** 
  60:u8g_arm.c     **** // uint32_t SystemCoreClock = 12000000;
  61:u8g_arm.c     **** 
  62:u8g_arm.c     **** /*========================================================================*/
  63:u8g_arm.c     **** /* Generic ARM delay procedure, based on the system timer (SysTick) */
  64:u8g_arm.c     **** 
  65:u8g_arm.c     **** /*
  66:u8g_arm.c     ****   Delay by the provided number of system ticks.
  67:u8g_arm.c     ****   The delay must be smaller than the RELOAD value.
  68:u8g_arm.c     ****   This delay has an imprecision of about +/- 20 system ticks.   
  69:u8g_arm.c     **** */
  70:u8g_arm.c     **** 
  71:u8g_arm.c     **** /*========================================================================*/
  72:u8g_arm.c     **** /*
  73:u8g_arm.c     ****   The following delay procedures must be implemented for u8glib
  74:u8g_arm.c     **** 
  75:u8g_arm.c     ****   void u8g_Delay(uint16_t val)		Delay by "val" milliseconds
  76:u8g_arm.c     ****   void u8g_MicroDelay(void)		Delay be one microsecond
  77:u8g_arm.c     ****   void u8g_10MicroDelay(void)	Delay by 10 microseconds
  78:u8g_arm.c     **** 
  79:u8g_arm.c     **** */
  80:u8g_arm.c     **** 
  81:u8g_arm.c     **** void u8g_Delay(uint16_t val)
  82:u8g_arm.c     **** {
  27              		.loc 1 82 0
  28              		.cfi_startproc
  29              		@ args = 0, pretend = 0, frame = 8
  30              		@ frame_needed = 1, uses_anonymous_args = 0
  31 0000 80B5     		push	{r7, lr}
  32              		.cfi_def_cfa_offset 8
ARM GAS  C:\Users\KJA\AppData\Local\Temp\ccqx3pqN.s 			page 3


  33              		.cfi_offset 7, -8
  34              		.cfi_offset 14, -4
  35 0002 82B0     		sub	sp, sp, #8
  36              		.cfi_def_cfa_offset 16
  37 0004 00AF     		add	r7, sp, #0
  38              		.cfi_def_cfa_register 7
  39 0006 0346     		mov	r3, r0
  40 0008 FB80     		strh	r3, [r7, #6]	@ movhi
  83:u8g_arm.c     ****     
  84:u8g_arm.c     ****     CyDelay(val);
  41              		.loc 1 84 0
  42 000a FB88     		ldrh	r3, [r7, #6]
  43 000c 1846     		mov	r0, r3
  44 000e FFF7FEFF 		bl	CyDelay
  85:u8g_arm.c     **** }
  45              		.loc 1 85 0
  46 0012 0837     		adds	r7, r7, #8
  47              		.cfi_def_cfa_offset 8
  48 0014 BD46     		mov	sp, r7
  49              		.cfi_def_cfa_register 13
  50              		@ sp needed
  51 0016 80BD     		pop	{r7, pc}
  52              		.cfi_endproc
  53              	.LFE63:
  54              		.size	u8g_Delay, .-u8g_Delay
  55              		.section	.text.u8g_MicroDelay,"ax",%progbits
  56              		.align	2
  57              		.global	u8g_MicroDelay
  58              		.thumb
  59              		.thumb_func
  60              		.type	u8g_MicroDelay, %function
  61              	u8g_MicroDelay:
  62              	.LFB64:
  86:u8g_arm.c     **** 
  87:u8g_arm.c     **** void u8g_MicroDelay(void)
  88:u8g_arm.c     **** {
  63              		.loc 1 88 0
  64              		.cfi_startproc
  65              		@ args = 0, pretend = 0, frame = 0
  66              		@ frame_needed = 1, uses_anonymous_args = 0
  67 0000 80B5     		push	{r7, lr}
  68              		.cfi_def_cfa_offset 8
  69              		.cfi_offset 7, -8
  70              		.cfi_offset 14, -4
  71 0002 00AF     		add	r7, sp, #0
  72              		.cfi_def_cfa_register 7
  89:u8g_arm.c     ****     CyDelayUs(1);
  73              		.loc 1 89 0
  74 0004 0120     		movs	r0, #1
  75 0006 FFF7FEFF 		bl	CyDelayUs
  90:u8g_arm.c     **** }
  76              		.loc 1 90 0
  77 000a 80BD     		pop	{r7, pc}
  78              		.cfi_endproc
  79              	.LFE64:
  80              		.size	u8g_MicroDelay, .-u8g_MicroDelay
  81              		.section	.text.u8g_10MicroDelay,"ax",%progbits
ARM GAS  C:\Users\KJA\AppData\Local\Temp\ccqx3pqN.s 			page 4


  82              		.align	2
  83              		.global	u8g_10MicroDelay
  84              		.thumb
  85              		.thumb_func
  86              		.type	u8g_10MicroDelay, %function
  87              	u8g_10MicroDelay:
  88              	.LFB65:
  91:u8g_arm.c     **** 
  92:u8g_arm.c     **** void u8g_10MicroDelay(void)
  93:u8g_arm.c     **** {
  89              		.loc 1 93 0
  90              		.cfi_startproc
  91              		@ args = 0, pretend = 0, frame = 0
  92              		@ frame_needed = 1, uses_anonymous_args = 0
  93 0000 80B5     		push	{r7, lr}
  94              		.cfi_def_cfa_offset 8
  95              		.cfi_offset 7, -8
  96              		.cfi_offset 14, -4
  97 0002 00AF     		add	r7, sp, #0
  98              		.cfi_def_cfa_register 7
  94:u8g_arm.c     ****     CyDelayUs(10);
  99              		.loc 1 94 0
 100 0004 0A20     		movs	r0, #10
 101 0006 FFF7FEFF 		bl	CyDelayUs
  95:u8g_arm.c     **** }
 102              		.loc 1 95 0
 103 000a 80BD     		pop	{r7, pc}
 104              		.cfi_endproc
 105              	.LFE65:
 106              		.size	u8g_10MicroDelay, .-u8g_10MicroDelay
 107              		.global	u8g_pin_a0
 108              		.data
 109              		.align	1
 110              		.type	u8g_pin_a0, %object
 111              		.size	u8g_pin_a0, 2
 112              	u8g_pin_a0:
 113 0000 2100     		.short	33
 114              		.global	u8g_pin_cs
 115              		.align	1
 116              		.type	u8g_pin_cs, %object
 117              		.size	u8g_pin_cs, 2
 118              	u8g_pin_cs:
 119 0002 2200     		.short	34
 120              		.global	u8g_pin_rst
 121              		.align	1
 122              		.type	u8g_pin_rst, %object
 123              		.size	u8g_pin_rst, 2
 124              	u8g_pin_rst:
 125 0004 2000     		.short	32
 126              		.section	.text.u8g_com_hw_spi_fn,"ax",%progbits
 127              		.align	2
 128              		.global	u8g_com_hw_spi_fn
 129              		.thumb
 130              		.thumb_func
 131              		.type	u8g_com_hw_spi_fn, %function
 132              	u8g_com_hw_spi_fn:
 133              	.LFB66:
ARM GAS  C:\Users\KJA\AppData\Local\Temp\ccqx3pqN.s 			page 5


  96:u8g_arm.c     **** 
  97:u8g_arm.c     **** 
  98:u8g_arm.c     **** 
  99:u8g_arm.c     **** 
 100:u8g_arm.c     **** /*========================================================================*/
 101:u8g_arm.c     **** /* u8glib com procedure */
 102:u8g_arm.c     **** 
 103:u8g_arm.c     **** /* gps board */
 104:u8g_arm.c     **** /*
 105:u8g_arm.c     **** uint16_t u8g_pin_a0 = PIN(0,11);
 106:u8g_arm.c     **** uint16_t u8g_pin_cs = PIN(0,6);
 107:u8g_arm.c     **** uint16_t u8g_pin_rst = PIN(0,5);
 108:u8g_arm.c     **** */
 109:u8g_arm.c     **** 
 110:u8g_arm.c     **** /* eval board */
 111:u8g_arm.c     **** uint16_t u8g_pin_a0 = PIN(1,1);
 112:u8g_arm.c     **** uint16_t u8g_pin_cs = PIN(1,2);
 113:u8g_arm.c     **** uint16_t u8g_pin_rst = PIN(1,0);
 114:u8g_arm.c     **** 
 115:u8g_arm.c     **** 
 116:u8g_arm.c     **** uint8_t u8g_com_hw_spi_fn(u8g_t *u8g, uint8_t msg, uint8_t arg_val, void *arg_ptr)
 117:u8g_arm.c     **** {
 134              		.loc 1 117 0
 135              		.cfi_startproc
 136              		@ args = 0, pretend = 0, frame = 24
 137              		@ frame_needed = 1, uses_anonymous_args = 0
 138 0000 90B5     		push	{r4, r7, lr}
 139              		.cfi_def_cfa_offset 12
 140              		.cfi_offset 4, -12
 141              		.cfi_offset 7, -8
 142              		.cfi_offset 14, -4
 143 0002 87B0     		sub	sp, sp, #28
 144              		.cfi_def_cfa_offset 40
 145 0004 00AF     		add	r7, sp, #0
 146              		.cfi_def_cfa_register 7
 147 0006 F860     		str	r0, [r7, #12]
 148 0008 7B60     		str	r3, [r7, #4]
 149 000a 0B46     		mov	r3, r1
 150 000c FB72     		strb	r3, [r7, #11]
 151 000e 1346     		mov	r3, r2
 152 0010 BB72     		strb	r3, [r7, #10]
 118:u8g_arm.c     ****   switch(msg)
 153              		.loc 1 118 0
 154 0012 FB7A     		ldrb	r3, [r7, #11]	@ zero_extendqisi2
 155 0014 072B     		cmp	r3, #7
 156 0016 68D8     		bhi	.L5
 157 0018 01A2     		adr	r2, .L7
 158 001a 52F823F0 		ldr	pc, [r2, r3, lsl #2]
 159 001e 00BF     		.p2align 2
 160              	.L7:
 161 0020 EB000000 		.word	.L5+1
 162 0024 41000000 		.word	.L8+1
 163 0028 6F000000 		.word	.L9+1
 164 002c 81000000 		.word	.L10+1
 165 0030 B1000000 		.word	.L11+1
 166 0034 BF000000 		.word	.L12+1
 167 0038 CD000000 		.word	.L13+1
ARM GAS  C:\Users\KJA\AppData\Local\Temp\ccqx3pqN.s 			page 6


 168 003c CD000000 		.word	.L13+1
 169              		.p2align 1
 170              	.L8:
 119:u8g_arm.c     ****   {
 120:u8g_arm.c     ****     case U8G_COM_MSG_STOP:
 121:u8g_arm.c     ****       break;
 122:u8g_arm.c     ****     
 123:u8g_arm.c     ****     case U8G_COM_MSG_INIT:
 124:u8g_arm.c     **** 
 125:u8g_arm.c     ****        if ( arg_val <= U8G_SPI_CLK_CYCLE_50NS )
 171              		.loc 1 125 0
 172 0040 BB7A     		ldrb	r3, [r7, #10]	@ zero_extendqisi2
 173 0042 012B     		cmp	r3, #1
 174 0044 02D8     		bhi	.L14
 126:u8g_arm.c     ****       {
 127:u8g_arm.c     **** 	SPIM_Start();   // 50
 175              		.loc 1 127 0
 176 0046 FFF7FEFF 		bl	SPIM_Start
 177 004a 0DE0     		b	.L15
 178              	.L14:
 128:u8g_arm.c     ****       }
 129:u8g_arm.c     ****       else if ( arg_val <= U8G_SPI_CLK_CYCLE_300NS )
 179              		.loc 1 129 0
 180 004c BB7A     		ldrb	r3, [r7, #10]	@ zero_extendqisi2
 181 004e 022B     		cmp	r3, #2
 182 0050 02D8     		bhi	.L16
 130:u8g_arm.c     ****       {
 131:u8g_arm.c     **** 	SPIM_Start();   // 300
 183              		.loc 1 131 0
 184 0052 FFF7FEFF 		bl	SPIM_Start
 185 0056 07E0     		b	.L15
 186              	.L16:
 132:u8g_arm.c     ****       }
 133:u8g_arm.c     ****       else if ( arg_val <= U8G_SPI_CLK_CYCLE_400NS )
 187              		.loc 1 133 0
 188 0058 BB7A     		ldrb	r3, [r7, #10]	@ zero_extendqisi2
 189 005a 032B     		cmp	r3, #3
 190 005c 02D8     		bhi	.L17
 134:u8g_arm.c     ****       {
 135:u8g_arm.c     **** 	SPIM_Start();   // 400
 191              		.loc 1 135 0
 192 005e FFF7FEFF 		bl	SPIM_Start
 193 0062 01E0     		b	.L15
 194              	.L17:
 136:u8g_arm.c     ****       }
 137:u8g_arm.c     ****       else
 138:u8g_arm.c     ****       {
 139:u8g_arm.c     **** 	SPIM_Start();   // 1200
 195              		.loc 1 139 0
 196 0064 FFF7FEFF 		bl	SPIM_Start
 197              	.L15:
 140:u8g_arm.c     ****       }
 141:u8g_arm.c     **** 
 142:u8g_arm.c     **** //      set_gpio_mode(u8g_pin_rst, 1, 0);		/* output, no pullup */
 143:u8g_arm.c     **** //      set_gpio_mode(u8g_pin_cs, 1, 0);		/* output, no pullup */
 144:u8g_arm.c     **** //      set_gpio_mode(u8g_pin_a0, 1, 0);		/* output, no pullup */
 145:u8g_arm.c     **** 
ARM GAS  C:\Users\KJA\AppData\Local\Temp\ccqx3pqN.s 			page 7


 146:u8g_arm.c     ****       u8g_MicroDelay();      
 198              		.loc 1 146 0
 199 0068 FFF7FEFF 		bl	u8g_MicroDelay
 147:u8g_arm.c     ****       break;
 200              		.loc 1 147 0
 201 006c 3DE0     		b	.L5
 202              	.L9:
 148:u8g_arm.c     ****     
 149:u8g_arm.c     ****     case U8G_COM_MSG_ADDRESS:                     /* define cmd (arg_val = 0) or data mode (arg_val
 150:u8g_arm.c     ****       u8g_10MicroDelay();
 203              		.loc 1 150 0
 204 006e FFF7FEFF 		bl	u8g_10MicroDelay
 151:u8g_arm.c     ****       LCD_A0_Write(arg_val);
 205              		.loc 1 151 0
 206 0072 BB7A     		ldrb	r3, [r7, #10]	@ zero_extendqisi2
 207 0074 1846     		mov	r0, r3
 208 0076 FFF7FEFF 		bl	LCD_A0_Write
 152:u8g_arm.c     ****       u8g_10MicroDelay();
 209              		.loc 1 152 0
 210 007a FFF7FEFF 		bl	u8g_10MicroDelay
 153:u8g_arm.c     ****      break;
 211              		.loc 1 153 0
 212 007e 34E0     		b	.L5
 213              	.L10:
 154:u8g_arm.c     **** 
 155:u8g_arm.c     ****     case U8G_COM_MSG_CHIP_SELECT:
 156:u8g_arm.c     ****       if ( arg_val == 0 )
 214              		.loc 1 156 0
 215 0080 BB7A     		ldrb	r3, [r7, #10]	@ zero_extendqisi2
 216 0082 002B     		cmp	r3, #0
 217 0084 0ED1     		bne	.L18
 218              	.LBB2:
 157:u8g_arm.c     ****       {
 158:u8g_arm.c     ****         /* disable */
 159:u8g_arm.c     **** 	uint8_t i;
 160:u8g_arm.c     **** 	/* this delay is required to avoid that the display is switched off too early --> DOGS102 with LPC
 161:u8g_arm.c     **** 	for( i = 0; i < 5; i++ )
 219              		.loc 1 161 0
 220 0086 0023     		movs	r3, #0
 221 0088 FB75     		strb	r3, [r7, #23]
 222 008a 04E0     		b	.L19
 223              	.L20:
 162:u8g_arm.c     **** 	  u8g_10MicroDelay();
 224              		.loc 1 162 0 discriminator 3
 225 008c FFF7FEFF 		bl	u8g_10MicroDelay
 161:u8g_arm.c     **** 	  u8g_10MicroDelay();
 226              		.loc 1 161 0 discriminator 3
 227 0090 FB7D     		ldrb	r3, [r7, #23]	@ zero_extendqisi2
 228 0092 0133     		adds	r3, r3, #1
 229 0094 FB75     		strb	r3, [r7, #23]
 230              	.L19:
 161:u8g_arm.c     **** 	  u8g_10MicroDelay();
 231              		.loc 1 161 0 is_stmt 0 discriminator 1
 232 0096 FB7D     		ldrb	r3, [r7, #23]	@ zero_extendqisi2
 233 0098 042B     		cmp	r3, #4
 234 009a F7D9     		bls	.L20
 163:u8g_arm.c     ****         LCD_CS_Write(1);
ARM GAS  C:\Users\KJA\AppData\Local\Temp\ccqx3pqN.s 			page 8


 235              		.loc 1 163 0 is_stmt 1
 236 009c 0120     		movs	r0, #1
 237 009e FFF7FEFF 		bl	LCD_CS_Write
 238              	.LBE2:
 239 00a2 02E0     		b	.L21
 240              	.L18:
 164:u8g_arm.c     ****       }
 165:u8g_arm.c     ****       else
 166:u8g_arm.c     ****       {
 167:u8g_arm.c     ****         /* enable */
 168:u8g_arm.c     ****         LCD_CS_Write(0);
 241              		.loc 1 168 0
 242 00a4 0020     		movs	r0, #0
 243 00a6 FFF7FEFF 		bl	LCD_CS_Write
 244              	.L21:
 169:u8g_arm.c     ****       }
 170:u8g_arm.c     ****       u8g_MicroDelay();
 245              		.loc 1 170 0
 246 00aa FFF7FEFF 		bl	u8g_MicroDelay
 171:u8g_arm.c     ****       break;
 247              		.loc 1 171 0
 248 00ae 1CE0     		b	.L5
 249              	.L11:
 172:u8g_arm.c     ****       
 173:u8g_arm.c     ****     case U8G_COM_MSG_RESET:
 174:u8g_arm.c     ****         LCD_RESET_Write(arg_val);
 250              		.loc 1 174 0
 251 00b0 BB7A     		ldrb	r3, [r7, #10]	@ zero_extendqisi2
 252 00b2 1846     		mov	r0, r3
 253 00b4 FFF7FEFF 		bl	LCD_RESET_Write
 175:u8g_arm.c     ****       u8g_10MicroDelay();
 254              		.loc 1 175 0
 255 00b8 FFF7FEFF 		bl	u8g_10MicroDelay
 176:u8g_arm.c     ****       break;
 256              		.loc 1 176 0
 257 00bc 15E0     		b	.L5
 258              	.L12:
 177:u8g_arm.c     ****       
 178:u8g_arm.c     ****     case U8G_COM_MSG_WRITE_BYTE:
 179:u8g_arm.c     ****       SPIM_WriteTxData(arg_val);
 259              		.loc 1 179 0
 260 00be BB7A     		ldrb	r3, [r7, #10]	@ zero_extendqisi2
 261 00c0 1846     		mov	r0, r3
 262 00c2 FFF7FEFF 		bl	SPIM_WriteTxData
 180:u8g_arm.c     ****       u8g_MicroDelay();
 263              		.loc 1 180 0
 264 00c6 FFF7FEFF 		bl	u8g_MicroDelay
 181:u8g_arm.c     ****       break;
 265              		.loc 1 181 0
 266 00ca 0EE0     		b	.L5
 267              	.L13:
 268              	.LBB3:
 182:u8g_arm.c     ****     
 183:u8g_arm.c     ****     case U8G_COM_MSG_WRITE_SEQ:
 184:u8g_arm.c     ****     case U8G_COM_MSG_WRITE_SEQ_P:
 185:u8g_arm.c     ****       {
 186:u8g_arm.c     ****         register uint8_t *ptr = arg_ptr;
ARM GAS  C:\Users\KJA\AppData\Local\Temp\ccqx3pqN.s 			page 9


 269              		.loc 1 186 0
 270 00cc 7C68     		ldr	r4, [r7, #4]
 187:u8g_arm.c     ****         while( arg_val > 0 )
 271              		.loc 1 187 0
 272 00ce 08E0     		b	.L22
 273              	.L23:
 188:u8g_arm.c     ****         {
 189:u8g_arm.c     ****           SPIM_WriteTxData(*ptr++);
 274              		.loc 1 189 0
 275 00d0 2346     		mov	r3, r4
 276 00d2 5C1C     		adds	r4, r3, #1
 277 00d4 1B78     		ldrb	r3, [r3]	@ zero_extendqisi2
 278 00d6 1846     		mov	r0, r3
 279 00d8 FFF7FEFF 		bl	SPIM_WriteTxData
 190:u8g_arm.c     ****           arg_val--;
 280              		.loc 1 190 0
 281 00dc BB7A     		ldrb	r3, [r7, #10]	@ zero_extendqisi2
 282 00de 013B     		subs	r3, r3, #1
 283 00e0 BB72     		strb	r3, [r7, #10]
 284              	.L22:
 187:u8g_arm.c     ****         while( arg_val > 0 )
 285              		.loc 1 187 0
 286 00e2 BB7A     		ldrb	r3, [r7, #10]	@ zero_extendqisi2
 287 00e4 002B     		cmp	r3, #0
 288 00e6 F3D1     		bne	.L23
 289              	.LBE3:
 191:u8g_arm.c     ****         }
 192:u8g_arm.c     ****       }
 193:u8g_arm.c     ****       break;
 290              		.loc 1 193 0
 291 00e8 00BF     		nop
 292              	.L5:
 194:u8g_arm.c     ****   }
 195:u8g_arm.c     ****   return 1;
 293              		.loc 1 195 0
 294 00ea 0123     		movs	r3, #1
 196:u8g_arm.c     **** }
 295              		.loc 1 196 0
 296 00ec 1846     		mov	r0, r3
 297 00ee 1C37     		adds	r7, r7, #28
 298              		.cfi_def_cfa_offset 12
 299 00f0 BD46     		mov	sp, r7
 300              		.cfi_def_cfa_register 13
 301              		@ sp needed
 302 00f2 90BD     		pop	{r4, r7, pc}
 303              		.cfi_endproc
 304              	.LFE66:
 305              		.size	u8g_com_hw_spi_fn, .-u8g_com_hw_spi_fn
 306              		.text
 307              	.Letext0:
 308              		.file 2 "c:\\program files (x86)\\cypress\\psoc creator\\4.0\\psoc creator\\import\\gnu\\arm\\4.9.
 309              		.file 3 "c:\\program files (x86)\\cypress\\psoc creator\\4.0\\psoc creator\\import\\gnu\\arm\\4.9.
 310              		.file 4 "u8g.h"
 311              		.file 5 "Generated_Source\\PSoC5/core_cm3.h"