ARM GAS  C:\Users\Shiguruy\AppData\Local\Temp\ccx7nFDc.s 			page 1


   1              		.syntax unified
   2              		.cpu cortex-m3
   3              		.fpu softvfp
   4              		.eabi_attribute 20, 1
   5              		.eabi_attribute 21, 1
   6              		.eabi_attribute 23, 3
   7              		.eabi_attribute 24, 1
   8              		.eabi_attribute 25, 1
   9              		.eabi_attribute 26, 1
  10              		.eabi_attribute 30, 6
  11              		.eabi_attribute 34, 1
  12              		.eabi_attribute 18, 4
  13              		.thumb
  14              		.file	"u8g_dev_a2_micro_printer.c"
  15              		.text
  16              	.Ltext0:
  17              		.cfi_sections	.debug_frame
  18              		.section	.text.u8g_dev_a2_micro_printer_fn,"ax",%progbits
  19              		.align	2
  20              		.global	u8g_dev_a2_micro_printer_fn
  21              		.thumb
  22              		.thumb_func
  23              		.type	u8g_dev_a2_micro_printer_fn, %function
  24              	u8g_dev_a2_micro_printer_fn:
  25              	.LFB0:
  26              		.file 1 ".\\u8glib_arm_v1.18.1\\src\\u8g_dev_a2_micro_printer.c"
   1:.\u8glib_arm_v1.18.1\src/u8g_dev_a2_micro_printer.c **** /*
   2:.\u8glib_arm_v1.18.1\src/u8g_dev_a2_micro_printer.c **** 
   3:.\u8glib_arm_v1.18.1\src/u8g_dev_a2_micro_printer.c ****   u8g_dev_a2_micro_printer_ds.c
   4:.\u8glib_arm_v1.18.1\src/u8g_dev_a2_micro_printer.c **** 
   5:.\u8glib_arm_v1.18.1\src/u8g_dev_a2_micro_printer.c ****   Use DC2 bitmap command of the A2 Micro panel termal printer
   6:.\u8glib_arm_v1.18.1\src/u8g_dev_a2_micro_printer.c ****   double stroke
   7:.\u8glib_arm_v1.18.1\src/u8g_dev_a2_micro_printer.c **** 
   8:.\u8glib_arm_v1.18.1\src/u8g_dev_a2_micro_printer.c ****   Universal 8bit Graphics Library
   9:.\u8glib_arm_v1.18.1\src/u8g_dev_a2_micro_printer.c ****   
  10:.\u8glib_arm_v1.18.1\src/u8g_dev_a2_micro_printer.c ****   Copyright (c) 2013, olikraus@gmail.com
  11:.\u8glib_arm_v1.18.1\src/u8g_dev_a2_micro_printer.c ****   All rights reserved.
  12:.\u8glib_arm_v1.18.1\src/u8g_dev_a2_micro_printer.c **** 
  13:.\u8glib_arm_v1.18.1\src/u8g_dev_a2_micro_printer.c ****   Redistribution and use in source and binary forms, with or without modification, 
  14:.\u8glib_arm_v1.18.1\src/u8g_dev_a2_micro_printer.c ****   are permitted provided that the following conditions are met:
  15:.\u8glib_arm_v1.18.1\src/u8g_dev_a2_micro_printer.c **** 
  16:.\u8glib_arm_v1.18.1\src/u8g_dev_a2_micro_printer.c ****   * Redistributions of source code must retain the above copyright notice, this list 
  17:.\u8glib_arm_v1.18.1\src/u8g_dev_a2_micro_printer.c ****     of conditions and the following disclaimer.
  18:.\u8glib_arm_v1.18.1\src/u8g_dev_a2_micro_printer.c ****     
  19:.\u8glib_arm_v1.18.1\src/u8g_dev_a2_micro_printer.c ****   * Redistributions in binary form must reproduce the above copyright notice, this 
  20:.\u8glib_arm_v1.18.1\src/u8g_dev_a2_micro_printer.c ****     list of conditions and the following disclaimer in the documentation and/or other 
  21:.\u8glib_arm_v1.18.1\src/u8g_dev_a2_micro_printer.c ****     materials provided with the distribution.
  22:.\u8glib_arm_v1.18.1\src/u8g_dev_a2_micro_printer.c **** 
  23:.\u8glib_arm_v1.18.1\src/u8g_dev_a2_micro_printer.c ****   THIS SOFTWARE IS PROVIDED BY THE COPYRIGHT HOLDERS AND 
  24:.\u8glib_arm_v1.18.1\src/u8g_dev_a2_micro_printer.c ****   CONTRIBUTORS "AS IS" AND ANY EXPRESS OR IMPLIED WARRANTIES, 
  25:.\u8glib_arm_v1.18.1\src/u8g_dev_a2_micro_printer.c ****   INCLUDING, BUT NOT LIMITED TO, THE IMPLIED WARRANTIES OF 
  26:.\u8glib_arm_v1.18.1\src/u8g_dev_a2_micro_printer.c ****   MERCHANTABILITY AND FITNESS FOR A PARTICULAR PURPOSE ARE 
  27:.\u8glib_arm_v1.18.1\src/u8g_dev_a2_micro_printer.c ****   DISCLAIMED. IN NO EVENT SHALL THE COPYRIGHT HOLDER OR 
  28:.\u8glib_arm_v1.18.1\src/u8g_dev_a2_micro_printer.c ****   CONTRIBUTORS BE LIABLE FOR ANY DIRECT, INDIRECT, INCIDENTAL, 
  29:.\u8glib_arm_v1.18.1\src/u8g_dev_a2_micro_printer.c ****   SPECIAL, EXEMPLARY, OR CONSEQUENTIAL DAMAGES (INCLUDING, BUT 
  30:.\u8glib_arm_v1.18.1\src/u8g_dev_a2_micro_printer.c ****   NOT LIMITED TO, PROCUREMENT OF SUBSTITUTE GOODS OR SERVICES; 
  31:.\u8glib_arm_v1.18.1\src/u8g_dev_a2_micro_printer.c ****   LOSS OF USE, DATA, OR PROFITS; OR BUSINESS INTERRUPTION) HOWEVER 
ARM GAS  C:\Users\Shiguruy\AppData\Local\Temp\ccx7nFDc.s 			page 2


  32:.\u8glib_arm_v1.18.1\src/u8g_dev_a2_micro_printer.c ****   CAUSED AND ON ANY THEORY OF LIABILITY, WHETHER IN CONTRACT, 
  33:.\u8glib_arm_v1.18.1\src/u8g_dev_a2_micro_printer.c ****   STRICT LIABILITY, OR TORT (INCLUDING NEGLIGENCE OR OTHERWISE) 
  34:.\u8glib_arm_v1.18.1\src/u8g_dev_a2_micro_printer.c ****   ARISING IN ANY WAY OUT OF THE USE OF THIS SOFTWARE, EVEN IF 
  35:.\u8glib_arm_v1.18.1\src/u8g_dev_a2_micro_printer.c ****   ADVISED OF THE POSSIBILITY OF SUCH DAMAGE.  
  36:.\u8glib_arm_v1.18.1\src/u8g_dev_a2_micro_printer.c ****   
  37:.\u8glib_arm_v1.18.1\src/u8g_dev_a2_micro_printer.c ****   
  38:.\u8glib_arm_v1.18.1\src/u8g_dev_a2_micro_printer.c **** */
  39:.\u8glib_arm_v1.18.1\src/u8g_dev_a2_micro_printer.c **** 
  40:.\u8glib_arm_v1.18.1\src/u8g_dev_a2_micro_printer.c **** #include "u8g.h"
  41:.\u8glib_arm_v1.18.1\src/u8g_dev_a2_micro_printer.c **** 
  42:.\u8glib_arm_v1.18.1\src/u8g_dev_a2_micro_printer.c **** #define LINE_DELAY 40
  43:.\u8glib_arm_v1.18.1\src/u8g_dev_a2_micro_printer.c **** 
  44:.\u8glib_arm_v1.18.1\src/u8g_dev_a2_micro_printer.c **** 
  45:.\u8glib_arm_v1.18.1\src/u8g_dev_a2_micro_printer.c **** uint8_t u8g_dev_a2_micro_printer_fn(u8g_t *u8g, u8g_dev_t *dev, uint8_t msg, void *arg)
  46:.\u8glib_arm_v1.18.1\src/u8g_dev_a2_micro_printer.c **** {
  27              		.loc 1 46 0
  28              		.cfi_startproc
  29              		@ args = 0, pretend = 0, frame = 32
  30              		@ frame_needed = 1, uses_anonymous_args = 0
  31 0000 80B5     		push	{r7, lr}
  32              		.cfi_def_cfa_offset 8
  33              		.cfi_offset 7, -8
  34              		.cfi_offset 14, -4
  35 0002 88B0     		sub	sp, sp, #32
  36              		.cfi_def_cfa_offset 40
  37 0004 00AF     		add	r7, sp, #0
  38              		.cfi_def_cfa_register 7
  39 0006 F860     		str	r0, [r7, #12]
  40 0008 B960     		str	r1, [r7, #8]
  41 000a 3B60     		str	r3, [r7]
  42 000c 1346     		mov	r3, r2
  43 000e FB71     		strb	r3, [r7, #7]
  47:.\u8glib_arm_v1.18.1\src/u8g_dev_a2_micro_printer.c ****   switch(msg)
  44              		.loc 1 47 0
  45 0010 FB79     		ldrb	r3, [r7, #7]	@ zero_extendqisi2
  46 0012 0B2B     		cmp	r3, #11
  47 0014 00F08980 		beq	.L11
  48 0018 152B     		cmp	r3, #21
  49 001a 08D0     		beq	.L4
  50 001c 0A2B     		cmp	r3, #10
  51 001e 40F08580 		bne	.L2
  48:.\u8glib_arm_v1.18.1\src/u8g_dev_a2_micro_printer.c ****   {
  49:.\u8glib_arm_v1.18.1\src/u8g_dev_a2_micro_printer.c ****     case U8G_DEV_MSG_INIT:
  50:.\u8glib_arm_v1.18.1\src/u8g_dev_a2_micro_printer.c ****       u8g_InitCom(u8g, dev, U8G_SPI_CLK_CYCLE_NONE);
  52              		.loc 1 50 0
  53 0022 F868     		ldr	r0, [r7, #12]
  54 0024 B968     		ldr	r1, [r7, #8]
  55 0026 FF22     		movs	r2, #255
  56 0028 FFF7FEFF 		bl	u8g_InitCom
  51:.\u8glib_arm_v1.18.1\src/u8g_dev_a2_micro_printer.c ****       break;
  57              		.loc 1 51 0
  58 002c 7EE0     		b	.L2
  59              	.L4:
  60              	.LBB2:
  52:.\u8glib_arm_v1.18.1\src/u8g_dev_a2_micro_printer.c ****     case U8G_DEV_MSG_STOP:
  53:.\u8glib_arm_v1.18.1\src/u8g_dev_a2_micro_printer.c ****       break;
  54:.\u8glib_arm_v1.18.1\src/u8g_dev_a2_micro_printer.c ****     case U8G_DEV_MSG_PAGE_NEXT:
ARM GAS  C:\Users\Shiguruy\AppData\Local\Temp\ccx7nFDc.s 			page 3


  55:.\u8glib_arm_v1.18.1\src/u8g_dev_a2_micro_printer.c ****       {
  56:.\u8glib_arm_v1.18.1\src/u8g_dev_a2_micro_printer.c ****         uint8_t y, i, j;
  57:.\u8glib_arm_v1.18.1\src/u8g_dev_a2_micro_printer.c ****         uint8_t *ptr;
  58:.\u8glib_arm_v1.18.1\src/u8g_dev_a2_micro_printer.c ****         u8g_pb_t *pb = (u8g_pb_t *)(dev->dev_mem);
  61              		.loc 1 58 0
  62 002e BB68     		ldr	r3, [r7, #8]
  63 0030 5B68     		ldr	r3, [r3, #4]
  64 0032 7B61     		str	r3, [r7, #20]
  59:.\u8glib_arm_v1.18.1\src/u8g_dev_a2_micro_printer.c ****         
  60:.\u8glib_arm_v1.18.1\src/u8g_dev_a2_micro_printer.c ****         y = pb->p.page_y0;
  65              		.loc 1 60 0
  66 0034 7B69     		ldr	r3, [r7, #20]
  67 0036 9B78     		ldrb	r3, [r3, #2]
  68 0038 FB77     		strb	r3, [r7, #31]
  61:.\u8glib_arm_v1.18.1\src/u8g_dev_a2_micro_printer.c ****         ptr = pb->buf;
  69              		.loc 1 61 0
  70 003a 7B69     		ldr	r3, [r7, #20]
  71 003c 9B68     		ldr	r3, [r3, #8]
  72 003e BB61     		str	r3, [r7, #24]
  62:.\u8glib_arm_v1.18.1\src/u8g_dev_a2_micro_printer.c **** 
  63:.\u8glib_arm_v1.18.1\src/u8g_dev_a2_micro_printer.c **** 	u8g_WriteByte(u8g, dev, 27);      /* ESC */
  73              		.loc 1 63 0
  74 0040 F868     		ldr	r0, [r7, #12]
  75 0042 B968     		ldr	r1, [r7, #8]
  76 0044 1B22     		movs	r2, #27
  77 0046 FFF7FEFF 		bl	u8g_WriteByte
  64:.\u8glib_arm_v1.18.1\src/u8g_dev_a2_micro_printer.c **** 	u8g_WriteByte(u8g, dev, 55 );      /* parameter command */
  78              		.loc 1 64 0
  79 004a F868     		ldr	r0, [r7, #12]
  80 004c B968     		ldr	r1, [r7, #8]
  81 004e 3722     		movs	r2, #55
  82 0050 FFF7FEFF 		bl	u8g_WriteByte
  65:.\u8glib_arm_v1.18.1\src/u8g_dev_a2_micro_printer.c **** 	u8g_WriteByte(u8g, dev, 7);      /* Max printing dots,Unit(8dots),Default:7(64 dots) 8*(x+1)*/
  83              		.loc 1 65 0
  84 0054 F868     		ldr	r0, [r7, #12]
  85 0056 B968     		ldr	r1, [r7, #8]
  86 0058 0722     		movs	r2, #7
  87 005a FFF7FEFF 		bl	u8g_WriteByte
  66:.\u8glib_arm_v1.18.1\src/u8g_dev_a2_micro_printer.c **** 	u8g_WriteByte(u8g, dev, 160);      /* 3-255 Heating time,Unit(10us),Default:80(800us) */
  88              		.loc 1 66 0
  89 005e F868     		ldr	r0, [r7, #12]
  90 0060 B968     		ldr	r1, [r7, #8]
  91 0062 A022     		movs	r2, #160
  92 0064 FFF7FEFF 		bl	u8g_WriteByte
  67:.\u8glib_arm_v1.18.1\src/u8g_dev_a2_micro_printer.c **** 	u8g_WriteByte(u8g, dev, 20);      /* 0-255 Heating interval,Unit(10us),Default:2(20us)*/
  93              		.loc 1 67 0
  94 0068 F868     		ldr	r0, [r7, #12]
  95 006a B968     		ldr	r1, [r7, #8]
  96 006c 1422     		movs	r2, #20
  97 006e FFF7FEFF 		bl	u8g_WriteByte
  68:.\u8glib_arm_v1.18.1\src/u8g_dev_a2_micro_printer.c **** 	
  69:.\u8glib_arm_v1.18.1\src/u8g_dev_a2_micro_printer.c **** 	u8g_WriteByte(u8g, dev, 18);      /* DC2 */
  98              		.loc 1 69 0
  99 0072 F868     		ldr	r0, [r7, #12]
 100 0074 B968     		ldr	r1, [r7, #8]
 101 0076 1222     		movs	r2, #18
 102 0078 FFF7FEFF 		bl	u8g_WriteByte
ARM GAS  C:\Users\Shiguruy\AppData\Local\Temp\ccx7nFDc.s 			page 4


  70:.\u8glib_arm_v1.18.1\src/u8g_dev_a2_micro_printer.c **** 	u8g_WriteByte(u8g, dev, 42 );      /* *  */
 103              		.loc 1 70 0
 104 007c F868     		ldr	r0, [r7, #12]
 105 007e B968     		ldr	r1, [r7, #8]
 106 0080 2A22     		movs	r2, #42
 107 0082 FFF7FEFF 		bl	u8g_WriteByte
  71:.\u8glib_arm_v1.18.1\src/u8g_dev_a2_micro_printer.c **** 	u8g_WriteByte(u8g, dev, pb->p.page_height ); 
 108              		.loc 1 71 0
 109 0086 7B69     		ldr	r3, [r7, #20]
 110 0088 1B78     		ldrb	r3, [r3]	@ zero_extendqisi2
 111 008a F868     		ldr	r0, [r7, #12]
 112 008c B968     		ldr	r1, [r7, #8]
 113 008e 1A46     		mov	r2, r3
 114 0090 FFF7FEFF 		bl	u8g_WriteByte
  72:.\u8glib_arm_v1.18.1\src/u8g_dev_a2_micro_printer.c **** 	u8g_WriteByte(u8g, dev, pb->width/8 ); 
 115              		.loc 1 72 0
 116 0094 7B69     		ldr	r3, [r7, #20]
 117 0096 5B79     		ldrb	r3, [r3, #5]	@ zero_extendqisi2
 118 0098 DB08     		lsrs	r3, r3, #3
 119 009a DBB2     		uxtb	r3, r3
 120 009c F868     		ldr	r0, [r7, #12]
 121 009e B968     		ldr	r1, [r7, #8]
 122 00a0 1A46     		mov	r2, r3
 123 00a2 FFF7FEFF 		bl	u8g_WriteByte
  73:.\u8glib_arm_v1.18.1\src/u8g_dev_a2_micro_printer.c **** 	
  74:.\u8glib_arm_v1.18.1\src/u8g_dev_a2_micro_printer.c ****         for( i = 0; i < pb->p.page_height; i ++ )
 124              		.loc 1 74 0
 125 00a6 0023     		movs	r3, #0
 126 00a8 BB77     		strb	r3, [r7, #30]
 127 00aa 1FE0     		b	.L6
 128              	.L9:
  75:.\u8glib_arm_v1.18.1\src/u8g_dev_a2_micro_printer.c ****         {
  76:.\u8glib_arm_v1.18.1\src/u8g_dev_a2_micro_printer.c **** 	  for( j = 0; j < pb->width/8; j++ )
 129              		.loc 1 76 0
 130 00ac 0023     		movs	r3, #0
 131 00ae 7B77     		strb	r3, [r7, #29]
 132 00b0 0CE0     		b	.L7
 133              	.L8:
  77:.\u8glib_arm_v1.18.1\src/u8g_dev_a2_micro_printer.c **** 	  {
  78:.\u8glib_arm_v1.18.1\src/u8g_dev_a2_micro_printer.c **** 	    u8g_WriteByte(u8g, dev, *ptr);
 134              		.loc 1 78 0 discriminator 3
 135 00b2 BB69     		ldr	r3, [r7, #24]
 136 00b4 1B78     		ldrb	r3, [r3]	@ zero_extendqisi2
 137 00b6 F868     		ldr	r0, [r7, #12]
 138 00b8 B968     		ldr	r1, [r7, #8]
 139 00ba 1A46     		mov	r2, r3
 140 00bc FFF7FEFF 		bl	u8g_WriteByte
  79:.\u8glib_arm_v1.18.1\src/u8g_dev_a2_micro_printer.c **** 	    ptr++;
 141              		.loc 1 79 0 discriminator 3
 142 00c0 BB69     		ldr	r3, [r7, #24]
 143 00c2 0133     		adds	r3, r3, #1
 144 00c4 BB61     		str	r3, [r7, #24]
  76:.\u8glib_arm_v1.18.1\src/u8g_dev_a2_micro_printer.c **** 	  {
 145              		.loc 1 76 0 discriminator 3
 146 00c6 7B7F     		ldrb	r3, [r7, #29]	@ zero_extendqisi2
 147 00c8 0133     		adds	r3, r3, #1
 148 00ca 7B77     		strb	r3, [r7, #29]
ARM GAS  C:\Users\Shiguruy\AppData\Local\Temp\ccx7nFDc.s 			page 5


 149              	.L7:
  76:.\u8glib_arm_v1.18.1\src/u8g_dev_a2_micro_printer.c **** 	  {
 150              		.loc 1 76 0 is_stmt 0 discriminator 1
 151 00cc 7B69     		ldr	r3, [r7, #20]
 152 00ce 5B79     		ldrb	r3, [r3, #5]	@ zero_extendqisi2
 153 00d0 DB08     		lsrs	r3, r3, #3
 154 00d2 DBB2     		uxtb	r3, r3
 155 00d4 7A7F     		ldrb	r2, [r7, #29]	@ zero_extendqisi2
 156 00d6 9A42     		cmp	r2, r3
 157 00d8 EBD3     		bcc	.L8
  80:.\u8glib_arm_v1.18.1\src/u8g_dev_a2_micro_printer.c **** 	  }
  81:.\u8glib_arm_v1.18.1\src/u8g_dev_a2_micro_printer.c **** 	  u8g_Delay(LINE_DELAY);
 158              		.loc 1 81 0 is_stmt 1 discriminator 2
 159 00da 2820     		movs	r0, #40
 160 00dc FFF7FEFF 		bl	u8g_Delay
  82:.\u8glib_arm_v1.18.1\src/u8g_dev_a2_micro_printer.c ****           y++;
 161              		.loc 1 82 0 discriminator 2
 162 00e0 FB7F     		ldrb	r3, [r7, #31]	@ zero_extendqisi2
 163 00e2 0133     		adds	r3, r3, #1
 164 00e4 FB77     		strb	r3, [r7, #31]
  74:.\u8glib_arm_v1.18.1\src/u8g_dev_a2_micro_printer.c ****         {
 165              		.loc 1 74 0 discriminator 2
 166 00e6 BB7F     		ldrb	r3, [r7, #30]	@ zero_extendqisi2
 167 00e8 0133     		adds	r3, r3, #1
 168 00ea BB77     		strb	r3, [r7, #30]
 169              	.L6:
  74:.\u8glib_arm_v1.18.1\src/u8g_dev_a2_micro_printer.c ****         {
 170              		.loc 1 74 0 is_stmt 0 discriminator 1
 171 00ec 7B69     		ldr	r3, [r7, #20]
 172 00ee 1B78     		ldrb	r3, [r3]	@ zero_extendqisi2
 173 00f0 BA7F     		ldrb	r2, [r7, #30]	@ zero_extendqisi2
 174 00f2 9A42     		cmp	r2, r3
 175 00f4 DAD3     		bcc	.L9
  83:.\u8glib_arm_v1.18.1\src/u8g_dev_a2_micro_printer.c ****         }
  84:.\u8glib_arm_v1.18.1\src/u8g_dev_a2_micro_printer.c **** 
  85:.\u8glib_arm_v1.18.1\src/u8g_dev_a2_micro_printer.c **** 	/* set parameters back to their default values */
  86:.\u8glib_arm_v1.18.1\src/u8g_dev_a2_micro_printer.c **** 	u8g_WriteByte(u8g, dev, 27);      /* ESC */
 176              		.loc 1 86 0 is_stmt 1
 177 00f6 F868     		ldr	r0, [r7, #12]
 178 00f8 B968     		ldr	r1, [r7, #8]
 179 00fa 1B22     		movs	r2, #27
 180 00fc FFF7FEFF 		bl	u8g_WriteByte
  87:.\u8glib_arm_v1.18.1\src/u8g_dev_a2_micro_printer.c **** 	u8g_WriteByte(u8g, dev, 55 );      /* parameter command */
 181              		.loc 1 87 0
 182 0100 F868     		ldr	r0, [r7, #12]
 183 0102 B968     		ldr	r1, [r7, #8]
 184 0104 3722     		movs	r2, #55
 185 0106 FFF7FEFF 		bl	u8g_WriteByte
  88:.\u8glib_arm_v1.18.1\src/u8g_dev_a2_micro_printer.c **** 	u8g_WriteByte(u8g, dev, 7);      /* Max printing dots,Unit(8dots),Default:7(64 dots) 8*(x+1)*/
 186              		.loc 1 88 0
 187 010a F868     		ldr	r0, [r7, #12]
 188 010c B968     		ldr	r1, [r7, #8]
 189 010e 0722     		movs	r2, #7
 190 0110 FFF7FEFF 		bl	u8g_WriteByte
  89:.\u8glib_arm_v1.18.1\src/u8g_dev_a2_micro_printer.c **** 	u8g_WriteByte(u8g, dev, 80);      /* 3-255 Heating time,Unit(10us),Default:80(800us) */
 191              		.loc 1 89 0
 192 0114 F868     		ldr	r0, [r7, #12]
ARM GAS  C:\Users\Shiguruy\AppData\Local\Temp\ccx7nFDc.s 			page 6


 193 0116 B968     		ldr	r1, [r7, #8]
 194 0118 5022     		movs	r2, #80
 195 011a FFF7FEFF 		bl	u8g_WriteByte
  90:.\u8glib_arm_v1.18.1\src/u8g_dev_a2_micro_printer.c **** 	u8g_WriteByte(u8g, dev, 2);      /* 0-255 Heating interval,Unit(10us),Default:2(20us)*/
 196              		.loc 1 90 0
 197 011e F868     		ldr	r0, [r7, #12]
 198 0120 B968     		ldr	r1, [r7, #8]
 199 0122 0222     		movs	r2, #2
 200 0124 FFF7FEFF 		bl	u8g_WriteByte
 201              	.LBE2:
  91:.\u8glib_arm_v1.18.1\src/u8g_dev_a2_micro_printer.c **** 	
  92:.\u8glib_arm_v1.18.1\src/u8g_dev_a2_micro_printer.c ****       }
  93:.\u8glib_arm_v1.18.1\src/u8g_dev_a2_micro_printer.c ****       break;
 202              		.loc 1 93 0
 203 0128 00E0     		b	.L2
 204              	.L11:
  53:.\u8glib_arm_v1.18.1\src/u8g_dev_a2_micro_printer.c ****     case U8G_DEV_MSG_PAGE_NEXT:
 205              		.loc 1 53 0
 206 012a 00BF     		nop
 207              	.L2:
  94:.\u8glib_arm_v1.18.1\src/u8g_dev_a2_micro_printer.c ****   }
  95:.\u8glib_arm_v1.18.1\src/u8g_dev_a2_micro_printer.c ****   return u8g_dev_pb8h1_base_fn(u8g, dev, msg, arg);
 208              		.loc 1 95 0
 209 012c FB79     		ldrb	r3, [r7, #7]	@ zero_extendqisi2
 210 012e F868     		ldr	r0, [r7, #12]
 211 0130 B968     		ldr	r1, [r7, #8]
 212 0132 1A46     		mov	r2, r3
 213 0134 3B68     		ldr	r3, [r7]
 214 0136 FFF7FEFF 		bl	u8g_dev_pb8h1_base_fn
 215 013a 0346     		mov	r3, r0
  96:.\u8glib_arm_v1.18.1\src/u8g_dev_a2_micro_printer.c **** }
 216              		.loc 1 96 0
 217 013c 1846     		mov	r0, r3
 218 013e 2037     		adds	r7, r7, #32
 219              		.cfi_def_cfa_offset 8
 220 0140 BD46     		mov	sp, r7
 221              		.cfi_def_cfa_register 13
 222              		@ sp needed
 223 0142 80BD     		pop	{r7, pc}
 224              		.cfi_endproc
 225              	.LFE0:
 226              		.size	u8g_dev_a2_micro_printer_fn, .-u8g_dev_a2_micro_printer_fn
 227              		.section	.text.u8g_dev_expand4,"ax",%progbits
 228              		.align	2
 229              		.thumb
 230              		.thumb_func
 231              		.type	u8g_dev_expand4, %function
 232              	u8g_dev_expand4:
 233              	.LFB1:
  97:.\u8glib_arm_v1.18.1\src/u8g_dev_a2_micro_printer.c **** 
  98:.\u8glib_arm_v1.18.1\src/u8g_dev_a2_micro_printer.c **** static uint8_t u8g_dev_expand4(uint8_t val)
  99:.\u8glib_arm_v1.18.1\src/u8g_dev_a2_micro_printer.c **** {
 234              		.loc 1 99 0
 235              		.cfi_startproc
 236              		@ args = 0, pretend = 0, frame = 16
 237              		@ frame_needed = 1, uses_anonymous_args = 0
 238              		@ link register save eliminated.
ARM GAS  C:\Users\Shiguruy\AppData\Local\Temp\ccx7nFDc.s 			page 7


 239 0000 80B4     		push	{r7}
 240              		.cfi_def_cfa_offset 4
 241              		.cfi_offset 7, -4
 242 0002 85B0     		sub	sp, sp, #20
 243              		.cfi_def_cfa_offset 24
 244 0004 00AF     		add	r7, sp, #0
 245              		.cfi_def_cfa_register 7
 246 0006 0346     		mov	r3, r0
 247 0008 FB71     		strb	r3, [r7, #7]
 100:.\u8glib_arm_v1.18.1\src/u8g_dev_a2_micro_printer.c ****   uint8_t a,b,c,d;
 101:.\u8glib_arm_v1.18.1\src/u8g_dev_a2_micro_printer.c ****   a = val&1;
 248              		.loc 1 101 0
 249 000a FB79     		ldrb	r3, [r7, #7]
 250 000c 03F00103 		and	r3, r3, #1
 251 0010 FB73     		strb	r3, [r7, #15]
 102:.\u8glib_arm_v1.18.1\src/u8g_dev_a2_micro_printer.c ****   b = (val&2)<<1;
 252              		.loc 1 102 0
 253 0012 FB79     		ldrb	r3, [r7, #7]
 254 0014 03F00203 		and	r3, r3, #2
 255 0018 DBB2     		uxtb	r3, r3
 256 001a 5B00     		lsls	r3, r3, #1
 257 001c BB73     		strb	r3, [r7, #14]
 103:.\u8glib_arm_v1.18.1\src/u8g_dev_a2_micro_printer.c ****   c = (val&4)<<2;
 258              		.loc 1 103 0
 259 001e FB79     		ldrb	r3, [r7, #7]
 260 0020 03F00403 		and	r3, r3, #4
 261 0024 DBB2     		uxtb	r3, r3
 262 0026 9B00     		lsls	r3, r3, #2
 263 0028 7B73     		strb	r3, [r7, #13]
 104:.\u8glib_arm_v1.18.1\src/u8g_dev_a2_micro_printer.c ****   d = (val&8)<<3;
 264              		.loc 1 104 0
 265 002a FB79     		ldrb	r3, [r7, #7]
 266 002c 03F00803 		and	r3, r3, #8
 267 0030 DBB2     		uxtb	r3, r3
 268 0032 DB00     		lsls	r3, r3, #3
 269 0034 3B73     		strb	r3, [r7, #12]
 105:.\u8glib_arm_v1.18.1\src/u8g_dev_a2_micro_printer.c ****   a |=b;
 270              		.loc 1 105 0
 271 0036 FA7B     		ldrb	r2, [r7, #15]
 272 0038 BB7B     		ldrb	r3, [r7, #14]
 273 003a 1343     		orrs	r3, r3, r2
 274 003c FB73     		strb	r3, [r7, #15]
 106:.\u8glib_arm_v1.18.1\src/u8g_dev_a2_micro_printer.c ****   a |=c;
 275              		.loc 1 106 0
 276 003e FA7B     		ldrb	r2, [r7, #15]
 277 0040 7B7B     		ldrb	r3, [r7, #13]
 278 0042 1343     		orrs	r3, r3, r2
 279 0044 FB73     		strb	r3, [r7, #15]
 107:.\u8glib_arm_v1.18.1\src/u8g_dev_a2_micro_printer.c ****   a |=d;
 280              		.loc 1 107 0
 281 0046 FA7B     		ldrb	r2, [r7, #15]
 282 0048 3B7B     		ldrb	r3, [r7, #12]
 283 004a 1343     		orrs	r3, r3, r2
 284 004c FB73     		strb	r3, [r7, #15]
 108:.\u8glib_arm_v1.18.1\src/u8g_dev_a2_micro_printer.c ****   a |= a<<1;
 285              		.loc 1 108 0
 286 004e FB7B     		ldrb	r3, [r7, #15]	@ zero_extendqisi2
ARM GAS  C:\Users\Shiguruy\AppData\Local\Temp\ccx7nFDc.s 			page 8


 287 0050 5B00     		lsls	r3, r3, #1
 288 0052 DAB2     		uxtb	r2, r3
 289 0054 FB7B     		ldrb	r3, [r7, #15]	@ zero_extendqisi2
 290 0056 1343     		orrs	r3, r3, r2
 291 0058 DBB2     		uxtb	r3, r3
 292 005a FB73     		strb	r3, [r7, #15]
 109:.\u8glib_arm_v1.18.1\src/u8g_dev_a2_micro_printer.c ****   return a;
 293              		.loc 1 109 0
 294 005c FB7B     		ldrb	r3, [r7, #15]	@ zero_extendqisi2
 110:.\u8glib_arm_v1.18.1\src/u8g_dev_a2_micro_printer.c **** }
 295              		.loc 1 110 0
 296 005e 1846     		mov	r0, r3
 297 0060 1437     		adds	r7, r7, #20
 298              		.cfi_def_cfa_offset 4
 299 0062 BD46     		mov	sp, r7
 300              		.cfi_def_cfa_register 13
 301              		@ sp needed
 302 0064 5DF8047B 		ldr	r7, [sp], #4
 303              		.cfi_restore 7
 304              		.cfi_def_cfa_offset 0
 305 0068 7047     		bx	lr
 306              		.cfi_endproc
 307              	.LFE1:
 308              		.size	u8g_dev_expand4, .-u8g_dev_expand4
 309 006a 00BF     		.section	.text.u8g_dev_a2_micro_printer_double_fn,"ax",%progbits
 310              		.align	2
 311              		.global	u8g_dev_a2_micro_printer_double_fn
 312              		.thumb
 313              		.thumb_func
 314              		.type	u8g_dev_a2_micro_printer_double_fn, %function
 315              	u8g_dev_a2_micro_printer_double_fn:
 316              	.LFB2:
 111:.\u8glib_arm_v1.18.1\src/u8g_dev_a2_micro_printer.c **** 
 112:.\u8glib_arm_v1.18.1\src/u8g_dev_a2_micro_printer.c **** uint8_t u8g_dev_a2_micro_printer_double_fn(u8g_t *u8g, u8g_dev_t *dev, uint8_t msg, void *arg)
 113:.\u8glib_arm_v1.18.1\src/u8g_dev_a2_micro_printer.c **** {
 317              		.loc 1 113 0
 318              		.cfi_startproc
 319              		@ args = 0, pretend = 0, frame = 32
 320              		@ frame_needed = 1, uses_anonymous_args = 0
 321 0000 80B5     		push	{r7, lr}
 322              		.cfi_def_cfa_offset 8
 323              		.cfi_offset 7, -8
 324              		.cfi_offset 14, -4
 325 0002 88B0     		sub	sp, sp, #32
 326              		.cfi_def_cfa_offset 40
 327 0004 00AF     		add	r7, sp, #0
 328              		.cfi_def_cfa_register 7
 329 0006 F860     		str	r0, [r7, #12]
 330 0008 B960     		str	r1, [r7, #8]
 331 000a 3B60     		str	r3, [r7]
 332 000c 1346     		mov	r3, r2
 333 000e FB71     		strb	r3, [r7, #7]
 114:.\u8glib_arm_v1.18.1\src/u8g_dev_a2_micro_printer.c ****   switch(msg)
 334              		.loc 1 114 0
 335 0010 FB79     		ldrb	r3, [r7, #7]	@ zero_extendqisi2
 336 0012 0A3B     		subs	r3, r3, #10
 337 0014 0B2B     		cmp	r3, #11
ARM GAS  C:\Users\Shiguruy\AppData\Local\Temp\ccx7nFDc.s 			page 9


 338 0016 00F2F180 		bhi	.L15
 339 001a 01A2     		adr	r2, .L17
 340 001c 52F823F0 		ldr	pc, [r2, r3, lsl #2]
 341              		.p2align 2
 342              	.L17:
 343 0020 51000000 		.word	.L16+1
 344 0024 FD010000 		.word	.L15+1
 345 0028 FD010000 		.word	.L15+1
 346 002c FD010000 		.word	.L15+1
 347 0030 FD010000 		.word	.L15+1
 348 0034 FD010000 		.word	.L15+1
 349 0038 FD010000 		.word	.L15+1
 350 003c FD010000 		.word	.L15+1
 351 0040 FD010000 		.word	.L15+1
 352 0044 FD010000 		.word	.L15+1
 353 0048 FD010000 		.word	.L15+1
 354 004c 5D000000 		.word	.L20+1
 355              		.p2align 1
 356              	.L16:
 115:.\u8glib_arm_v1.18.1\src/u8g_dev_a2_micro_printer.c ****   {
 116:.\u8glib_arm_v1.18.1\src/u8g_dev_a2_micro_printer.c ****     case U8G_DEV_MSG_INIT:
 117:.\u8glib_arm_v1.18.1\src/u8g_dev_a2_micro_printer.c ****       u8g_InitCom(u8g, dev, U8G_SPI_CLK_CYCLE_NONE);
 357              		.loc 1 117 0
 358 0050 F868     		ldr	r0, [r7, #12]
 359 0052 B968     		ldr	r1, [r7, #8]
 360 0054 FF22     		movs	r2, #255
 361 0056 FFF7FEFF 		bl	u8g_InitCom
 118:.\u8glib_arm_v1.18.1\src/u8g_dev_a2_micro_printer.c ****       break;
 362              		.loc 1 118 0
 363 005a CFE0     		b	.L15
 364              	.L20:
 365              	.LBB3:
 119:.\u8glib_arm_v1.18.1\src/u8g_dev_a2_micro_printer.c ****     case U8G_DEV_MSG_STOP:
 120:.\u8glib_arm_v1.18.1\src/u8g_dev_a2_micro_printer.c ****       break;
 121:.\u8glib_arm_v1.18.1\src/u8g_dev_a2_micro_printer.c ****     case U8G_DEV_MSG_PAGE_FIRST:
 122:.\u8glib_arm_v1.18.1\src/u8g_dev_a2_micro_printer.c ****       {
 123:.\u8glib_arm_v1.18.1\src/u8g_dev_a2_micro_printer.c ****         //u8g_pb_t *pb = (u8g_pb_t *)(dev->dev_mem);
 124:.\u8glib_arm_v1.18.1\src/u8g_dev_a2_micro_printer.c **** 	//u8g_WriteByte(u8g, dev, 18);      /* DC2 */
 125:.\u8glib_arm_v1.18.1\src/u8g_dev_a2_micro_printer.c **** 	//u8g_WriteByte(u8g, dev, 42 );      /* *  */
 126:.\u8glib_arm_v1.18.1\src/u8g_dev_a2_micro_printer.c **** 	//u8g_WriteByte(u8g, dev, pb->p.total_height*2 ); 
 127:.\u8glib_arm_v1.18.1\src/u8g_dev_a2_micro_printer.c **** 	//u8g_WriteByte(u8g, dev, pb->width/8*2 ); 
 128:.\u8glib_arm_v1.18.1\src/u8g_dev_a2_micro_printer.c ****       }
 129:.\u8glib_arm_v1.18.1\src/u8g_dev_a2_micro_printer.c ****       break;
 130:.\u8glib_arm_v1.18.1\src/u8g_dev_a2_micro_printer.c ****     case U8G_DEV_MSG_PAGE_NEXT:
 131:.\u8glib_arm_v1.18.1\src/u8g_dev_a2_micro_printer.c ****       {
 132:.\u8glib_arm_v1.18.1\src/u8g_dev_a2_micro_printer.c ****         uint8_t y, i, j;
 133:.\u8glib_arm_v1.18.1\src/u8g_dev_a2_micro_printer.c ****         uint8_t *ptr;
 134:.\u8glib_arm_v1.18.1\src/u8g_dev_a2_micro_printer.c ****         uint8_t *p2;
 135:.\u8glib_arm_v1.18.1\src/u8g_dev_a2_micro_printer.c ****         u8g_pb_t *pb = (u8g_pb_t *)(dev->dev_mem);
 366              		.loc 1 135 0
 367 005c BB68     		ldr	r3, [r7, #8]
 368 005e 5B68     		ldr	r3, [r3, #4]
 369 0060 3B61     		str	r3, [r7, #16]
 136:.\u8glib_arm_v1.18.1\src/u8g_dev_a2_micro_printer.c ****         
 137:.\u8glib_arm_v1.18.1\src/u8g_dev_a2_micro_printer.c ****         y = pb->p.page_y0;
 370              		.loc 1 137 0
 371 0062 3B69     		ldr	r3, [r7, #16]
ARM GAS  C:\Users\Shiguruy\AppData\Local\Temp\ccx7nFDc.s 			page 10


 372 0064 9B78     		ldrb	r3, [r3, #2]
 373 0066 FB77     		strb	r3, [r7, #31]
 138:.\u8glib_arm_v1.18.1\src/u8g_dev_a2_micro_printer.c ****         ptr = pb->buf;
 374              		.loc 1 138 0
 375 0068 3B69     		ldr	r3, [r7, #16]
 376 006a 9B68     		ldr	r3, [r3, #8]
 377 006c BB61     		str	r3, [r7, #24]
 139:.\u8glib_arm_v1.18.1\src/u8g_dev_a2_micro_printer.c **** 	//u8g_WriteByte(u8g, dev, 18);      /* DC2 */
 140:.\u8glib_arm_v1.18.1\src/u8g_dev_a2_micro_printer.c **** 	//u8g_WriteByte(u8g, dev, 35 );      /* #  */
 141:.\u8glib_arm_v1.18.1\src/u8g_dev_a2_micro_printer.c **** 	//u8g_WriteByte(u8g, dev, 0x0ff );      /* max  */
 142:.\u8glib_arm_v1.18.1\src/u8g_dev_a2_micro_printer.c **** 
 143:.\u8glib_arm_v1.18.1\src/u8g_dev_a2_micro_printer.c **** 	u8g_WriteByte(u8g, dev, 27);      /* ESC */
 378              		.loc 1 143 0
 379 006e F868     		ldr	r0, [r7, #12]
 380 0070 B968     		ldr	r1, [r7, #8]
 381 0072 1B22     		movs	r2, #27
 382 0074 FFF7FEFF 		bl	u8g_WriteByte
 144:.\u8glib_arm_v1.18.1\src/u8g_dev_a2_micro_printer.c **** 	u8g_WriteByte(u8g, dev, 55 );      /* parameter command */
 383              		.loc 1 144 0
 384 0078 F868     		ldr	r0, [r7, #12]
 385 007a B968     		ldr	r1, [r7, #8]
 386 007c 3722     		movs	r2, #55
 387 007e FFF7FEFF 		bl	u8g_WriteByte
 145:.\u8glib_arm_v1.18.1\src/u8g_dev_a2_micro_printer.c **** 	u8g_WriteByte(u8g, dev, 7);      /* Max printing dots,Unit(8dots),Default:7(64 dots) 8*(x+1)*/
 388              		.loc 1 145 0
 389 0082 F868     		ldr	r0, [r7, #12]
 390 0084 B968     		ldr	r1, [r7, #8]
 391 0086 0722     		movs	r2, #7
 392 0088 FFF7FEFF 		bl	u8g_WriteByte
 146:.\u8glib_arm_v1.18.1\src/u8g_dev_a2_micro_printer.c **** 	u8g_WriteByte(u8g, dev, 160);      /* 3-255 Heating time,Unit(10us),Default:80(800us) */
 393              		.loc 1 146 0
 394 008c F868     		ldr	r0, [r7, #12]
 395 008e B968     		ldr	r1, [r7, #8]
 396 0090 A022     		movs	r2, #160
 397 0092 FFF7FEFF 		bl	u8g_WriteByte
 147:.\u8glib_arm_v1.18.1\src/u8g_dev_a2_micro_printer.c **** 	u8g_WriteByte(u8g, dev, 20);      /* 0-255 Heating interval,Unit(10us),Default:2(20us)*/
 398              		.loc 1 147 0
 399 0096 F868     		ldr	r0, [r7, #12]
 400 0098 B968     		ldr	r1, [r7, #8]
 401 009a 1422     		movs	r2, #20
 402 009c FFF7FEFF 		bl	u8g_WriteByte
 148:.\u8glib_arm_v1.18.1\src/u8g_dev_a2_micro_printer.c **** 	
 149:.\u8glib_arm_v1.18.1\src/u8g_dev_a2_micro_printer.c **** 	u8g_WriteByte(u8g, dev, 18);      /* DC2 */
 403              		.loc 1 149 0
 404 00a0 F868     		ldr	r0, [r7, #12]
 405 00a2 B968     		ldr	r1, [r7, #8]
 406 00a4 1222     		movs	r2, #18
 407 00a6 FFF7FEFF 		bl	u8g_WriteByte
 150:.\u8glib_arm_v1.18.1\src/u8g_dev_a2_micro_printer.c **** 	u8g_WriteByte(u8g, dev, 42 );      /* *  */
 408              		.loc 1 150 0
 409 00aa F868     		ldr	r0, [r7, #12]
 410 00ac B968     		ldr	r1, [r7, #8]
 411 00ae 2A22     		movs	r2, #42
 412 00b0 FFF7FEFF 		bl	u8g_WriteByte
 151:.\u8glib_arm_v1.18.1\src/u8g_dev_a2_micro_printer.c **** 	u8g_WriteByte(u8g, dev, pb->p.page_height*2 ); 
 413              		.loc 1 151 0
 414 00b4 3B69     		ldr	r3, [r7, #16]
ARM GAS  C:\Users\Shiguruy\AppData\Local\Temp\ccx7nFDc.s 			page 11


 415 00b6 1B78     		ldrb	r3, [r3]	@ zero_extendqisi2
 416 00b8 5B00     		lsls	r3, r3, #1
 417 00ba DBB2     		uxtb	r3, r3
 418 00bc F868     		ldr	r0, [r7, #12]
 419 00be B968     		ldr	r1, [r7, #8]
 420 00c0 1A46     		mov	r2, r3
 421 00c2 FFF7FEFF 		bl	u8g_WriteByte
 152:.\u8glib_arm_v1.18.1\src/u8g_dev_a2_micro_printer.c **** 	u8g_WriteByte(u8g, dev, pb->width/8*2 ); 
 422              		.loc 1 152 0
 423 00c6 3B69     		ldr	r3, [r7, #16]
 424 00c8 5B79     		ldrb	r3, [r3, #5]	@ zero_extendqisi2
 425 00ca DB08     		lsrs	r3, r3, #3
 426 00cc DBB2     		uxtb	r3, r3
 427 00ce 5B00     		lsls	r3, r3, #1
 428 00d0 DBB2     		uxtb	r3, r3
 429 00d2 F868     		ldr	r0, [r7, #12]
 430 00d4 B968     		ldr	r1, [r7, #8]
 431 00d6 1A46     		mov	r2, r3
 432 00d8 FFF7FEFF 		bl	u8g_WriteByte
 153:.\u8glib_arm_v1.18.1\src/u8g_dev_a2_micro_printer.c **** 	
 154:.\u8glib_arm_v1.18.1\src/u8g_dev_a2_micro_printer.c ****         for( i = 0; i < pb->p.page_height; i ++ )
 433              		.loc 1 154 0
 434 00dc 0023     		movs	r3, #0
 435 00de BB77     		strb	r3, [r7, #30]
 436 00e0 6DE0     		b	.L21
 437              	.L26:
 155:.\u8glib_arm_v1.18.1\src/u8g_dev_a2_micro_printer.c ****         {
 156:.\u8glib_arm_v1.18.1\src/u8g_dev_a2_micro_printer.c **** 	  p2 = ptr;
 438              		.loc 1 156 0
 439 00e2 BB69     		ldr	r3, [r7, #24]
 440 00e4 7B61     		str	r3, [r7, #20]
 157:.\u8glib_arm_v1.18.1\src/u8g_dev_a2_micro_printer.c **** 	  for( j = 0; j < pb->width/8; j++ )
 441              		.loc 1 157 0
 442 00e6 0023     		movs	r3, #0
 443 00e8 7B77     		strb	r3, [r7, #29]
 444 00ea 20E0     		b	.L22
 445              	.L23:
 158:.\u8glib_arm_v1.18.1\src/u8g_dev_a2_micro_printer.c **** 	  {
 159:.\u8glib_arm_v1.18.1\src/u8g_dev_a2_micro_printer.c **** 	    u8g_WriteByte(u8g, dev, u8g_dev_expand4(*p2 >> 4));
 446              		.loc 1 159 0 discriminator 3
 447 00ec 7B69     		ldr	r3, [r7, #20]
 448 00ee 1B78     		ldrb	r3, [r3]	@ zero_extendqisi2
 449 00f0 1B09     		lsrs	r3, r3, #4
 450 00f2 DBB2     		uxtb	r3, r3
 451 00f4 1846     		mov	r0, r3
 452 00f6 FFF7FEFF 		bl	u8g_dev_expand4
 453 00fa 0346     		mov	r3, r0
 454 00fc F868     		ldr	r0, [r7, #12]
 455 00fe B968     		ldr	r1, [r7, #8]
 456 0100 1A46     		mov	r2, r3
 457 0102 FFF7FEFF 		bl	u8g_WriteByte
 160:.\u8glib_arm_v1.18.1\src/u8g_dev_a2_micro_printer.c **** 	    u8g_WriteByte(u8g, dev, u8g_dev_expand4(*p2 & 15));
 458              		.loc 1 160 0 discriminator 3
 459 0106 7B69     		ldr	r3, [r7, #20]
 460 0108 1B78     		ldrb	r3, [r3]	@ zero_extendqisi2
 461 010a 03F00F03 		and	r3, r3, #15
 462 010e DBB2     		uxtb	r3, r3
ARM GAS  C:\Users\Shiguruy\AppData\Local\Temp\ccx7nFDc.s 			page 12


 463 0110 1846     		mov	r0, r3
 464 0112 FFF7FEFF 		bl	u8g_dev_expand4
 465 0116 0346     		mov	r3, r0
 466 0118 F868     		ldr	r0, [r7, #12]
 467 011a B968     		ldr	r1, [r7, #8]
 468 011c 1A46     		mov	r2, r3
 469 011e FFF7FEFF 		bl	u8g_WriteByte
 161:.\u8glib_arm_v1.18.1\src/u8g_dev_a2_micro_printer.c **** 	    p2++;
 470              		.loc 1 161 0 discriminator 3
 471 0122 7B69     		ldr	r3, [r7, #20]
 472 0124 0133     		adds	r3, r3, #1
 473 0126 7B61     		str	r3, [r7, #20]
 157:.\u8glib_arm_v1.18.1\src/u8g_dev_a2_micro_printer.c **** 	  {
 474              		.loc 1 157 0 discriminator 3
 475 0128 7B7F     		ldrb	r3, [r7, #29]	@ zero_extendqisi2
 476 012a 0133     		adds	r3, r3, #1
 477 012c 7B77     		strb	r3, [r7, #29]
 478              	.L22:
 157:.\u8glib_arm_v1.18.1\src/u8g_dev_a2_micro_printer.c **** 	  {
 479              		.loc 1 157 0 is_stmt 0 discriminator 1
 480 012e 3B69     		ldr	r3, [r7, #16]
 481 0130 5B79     		ldrb	r3, [r3, #5]	@ zero_extendqisi2
 482 0132 DB08     		lsrs	r3, r3, #3
 483 0134 DBB2     		uxtb	r3, r3
 484 0136 7A7F     		ldrb	r2, [r7, #29]	@ zero_extendqisi2
 485 0138 9A42     		cmp	r2, r3
 486 013a D7D3     		bcc	.L23
 162:.\u8glib_arm_v1.18.1\src/u8g_dev_a2_micro_printer.c **** 	  }
 163:.\u8glib_arm_v1.18.1\src/u8g_dev_a2_micro_printer.c **** 	  u8g_Delay(LINE_DELAY);
 487              		.loc 1 163 0 is_stmt 1
 488 013c 2820     		movs	r0, #40
 489 013e FFF7FEFF 		bl	u8g_Delay
 164:.\u8glib_arm_v1.18.1\src/u8g_dev_a2_micro_printer.c **** 	  p2 = ptr;
 490              		.loc 1 164 0
 491 0142 BB69     		ldr	r3, [r7, #24]
 492 0144 7B61     		str	r3, [r7, #20]
 165:.\u8glib_arm_v1.18.1\src/u8g_dev_a2_micro_printer.c **** 	  for( j = 0; j < pb->width/8; j++ )
 493              		.loc 1 165 0
 494 0146 0023     		movs	r3, #0
 495 0148 7B77     		strb	r3, [r7, #29]
 496 014a 20E0     		b	.L24
 497              	.L25:
 166:.\u8glib_arm_v1.18.1\src/u8g_dev_a2_micro_printer.c **** 	  {
 167:.\u8glib_arm_v1.18.1\src/u8g_dev_a2_micro_printer.c **** 	    u8g_WriteByte(u8g, dev, u8g_dev_expand4(*p2 >> 4));
 498              		.loc 1 167 0 discriminator 3
 499 014c 7B69     		ldr	r3, [r7, #20]
 500 014e 1B78     		ldrb	r3, [r3]	@ zero_extendqisi2
 501 0150 1B09     		lsrs	r3, r3, #4
 502 0152 DBB2     		uxtb	r3, r3
 503 0154 1846     		mov	r0, r3
 504 0156 FFF7FEFF 		bl	u8g_dev_expand4
 505 015a 0346     		mov	r3, r0
 506 015c F868     		ldr	r0, [r7, #12]
 507 015e B968     		ldr	r1, [r7, #8]
 508 0160 1A46     		mov	r2, r3
 509 0162 FFF7FEFF 		bl	u8g_WriteByte
 168:.\u8glib_arm_v1.18.1\src/u8g_dev_a2_micro_printer.c **** 	    u8g_WriteByte(u8g, dev, u8g_dev_expand4(*p2 & 15));
ARM GAS  C:\Users\Shiguruy\AppData\Local\Temp\ccx7nFDc.s 			page 13


 510              		.loc 1 168 0 discriminator 3
 511 0166 7B69     		ldr	r3, [r7, #20]
 512 0168 1B78     		ldrb	r3, [r3]	@ zero_extendqisi2
 513 016a 03F00F03 		and	r3, r3, #15
 514 016e DBB2     		uxtb	r3, r3
 515 0170 1846     		mov	r0, r3
 516 0172 FFF7FEFF 		bl	u8g_dev_expand4
 517 0176 0346     		mov	r3, r0
 518 0178 F868     		ldr	r0, [r7, #12]
 519 017a B968     		ldr	r1, [r7, #8]
 520 017c 1A46     		mov	r2, r3
 521 017e FFF7FEFF 		bl	u8g_WriteByte
 169:.\u8glib_arm_v1.18.1\src/u8g_dev_a2_micro_printer.c **** 	    p2++;
 522              		.loc 1 169 0 discriminator 3
 523 0182 7B69     		ldr	r3, [r7, #20]
 524 0184 0133     		adds	r3, r3, #1
 525 0186 7B61     		str	r3, [r7, #20]
 165:.\u8glib_arm_v1.18.1\src/u8g_dev_a2_micro_printer.c **** 	  {
 526              		.loc 1 165 0 discriminator 3
 527 0188 7B7F     		ldrb	r3, [r7, #29]	@ zero_extendqisi2
 528 018a 0133     		adds	r3, r3, #1
 529 018c 7B77     		strb	r3, [r7, #29]
 530              	.L24:
 165:.\u8glib_arm_v1.18.1\src/u8g_dev_a2_micro_printer.c **** 	  {
 531              		.loc 1 165 0 is_stmt 0 discriminator 1
 532 018e 3B69     		ldr	r3, [r7, #16]
 533 0190 5B79     		ldrb	r3, [r3, #5]	@ zero_extendqisi2
 534 0192 DB08     		lsrs	r3, r3, #3
 535 0194 DBB2     		uxtb	r3, r3
 536 0196 7A7F     		ldrb	r2, [r7, #29]	@ zero_extendqisi2
 537 0198 9A42     		cmp	r2, r3
 538 019a D7D3     		bcc	.L25
 170:.\u8glib_arm_v1.18.1\src/u8g_dev_a2_micro_printer.c **** 	  }
 171:.\u8glib_arm_v1.18.1\src/u8g_dev_a2_micro_printer.c **** 	  u8g_Delay(LINE_DELAY);
 539              		.loc 1 171 0 is_stmt 1 discriminator 2
 540 019c 2820     		movs	r0, #40
 541 019e FFF7FEFF 		bl	u8g_Delay
 172:.\u8glib_arm_v1.18.1\src/u8g_dev_a2_micro_printer.c **** 	  ptr += pb->width/8;
 542              		.loc 1 172 0 discriminator 2
 543 01a2 3B69     		ldr	r3, [r7, #16]
 544 01a4 5B79     		ldrb	r3, [r3, #5]	@ zero_extendqisi2
 545 01a6 DB08     		lsrs	r3, r3, #3
 546 01a8 DBB2     		uxtb	r3, r3
 547 01aa 1A46     		mov	r2, r3
 548 01ac BB69     		ldr	r3, [r7, #24]
 549 01ae 1344     		add	r3, r3, r2
 550 01b0 BB61     		str	r3, [r7, #24]
 173:.\u8glib_arm_v1.18.1\src/u8g_dev_a2_micro_printer.c ****           y++;
 551              		.loc 1 173 0 discriminator 2
 552 01b2 FB7F     		ldrb	r3, [r7, #31]	@ zero_extendqisi2
 553 01b4 0133     		adds	r3, r3, #1
 554 01b6 FB77     		strb	r3, [r7, #31]
 154:.\u8glib_arm_v1.18.1\src/u8g_dev_a2_micro_printer.c ****         {
 555              		.loc 1 154 0 discriminator 2
 556 01b8 BB7F     		ldrb	r3, [r7, #30]	@ zero_extendqisi2
 557 01ba 0133     		adds	r3, r3, #1
 558 01bc BB77     		strb	r3, [r7, #30]
ARM GAS  C:\Users\Shiguruy\AppData\Local\Temp\ccx7nFDc.s 			page 14


 559              	.L21:
 154:.\u8glib_arm_v1.18.1\src/u8g_dev_a2_micro_printer.c ****         {
 560              		.loc 1 154 0 is_stmt 0 discriminator 1
 561 01be 3B69     		ldr	r3, [r7, #16]
 562 01c0 1B78     		ldrb	r3, [r3]	@ zero_extendqisi2
 563 01c2 BA7F     		ldrb	r2, [r7, #30]	@ zero_extendqisi2
 564 01c4 9A42     		cmp	r2, r3
 565 01c6 8CD3     		bcc	.L26
 174:.\u8glib_arm_v1.18.1\src/u8g_dev_a2_micro_printer.c ****         }
 175:.\u8glib_arm_v1.18.1\src/u8g_dev_a2_micro_printer.c **** 	
 176:.\u8glib_arm_v1.18.1\src/u8g_dev_a2_micro_printer.c **** 	/* set parameters back to their default values */
 177:.\u8glib_arm_v1.18.1\src/u8g_dev_a2_micro_printer.c **** 	u8g_WriteByte(u8g, dev, 27);      /* ESC */
 566              		.loc 1 177 0 is_stmt 1
 567 01c8 F868     		ldr	r0, [r7, #12]
 568 01ca B968     		ldr	r1, [r7, #8]
 569 01cc 1B22     		movs	r2, #27
 570 01ce FFF7FEFF 		bl	u8g_WriteByte
 178:.\u8glib_arm_v1.18.1\src/u8g_dev_a2_micro_printer.c **** 	u8g_WriteByte(u8g, dev, 55 );      /* parameter command */
 571              		.loc 1 178 0
 572 01d2 F868     		ldr	r0, [r7, #12]
 573 01d4 B968     		ldr	r1, [r7, #8]
 574 01d6 3722     		movs	r2, #55
 575 01d8 FFF7FEFF 		bl	u8g_WriteByte
 179:.\u8glib_arm_v1.18.1\src/u8g_dev_a2_micro_printer.c **** 	u8g_WriteByte(u8g, dev, 7);      /* Max printing dots,Unit(8dots),Default:7(64 dots) 8*(x+1)*/
 576              		.loc 1 179 0
 577 01dc F868     		ldr	r0, [r7, #12]
 578 01de B968     		ldr	r1, [r7, #8]
 579 01e0 0722     		movs	r2, #7
 580 01e2 FFF7FEFF 		bl	u8g_WriteByte
 180:.\u8glib_arm_v1.18.1\src/u8g_dev_a2_micro_printer.c **** 	u8g_WriteByte(u8g, dev, 80);      /* 3-255 Heating time,Unit(10us),Default:80(800us) */
 581              		.loc 1 180 0
 582 01e6 F868     		ldr	r0, [r7, #12]
 583 01e8 B968     		ldr	r1, [r7, #8]
 584 01ea 5022     		movs	r2, #80
 585 01ec FFF7FEFF 		bl	u8g_WriteByte
 181:.\u8glib_arm_v1.18.1\src/u8g_dev_a2_micro_printer.c **** 	u8g_WriteByte(u8g, dev, 2);      /* 0-255 Heating interval,Unit(10us),Default:2(20us)*/
 586              		.loc 1 181 0
 587 01f0 F868     		ldr	r0, [r7, #12]
 588 01f2 B968     		ldr	r1, [r7, #8]
 589 01f4 0222     		movs	r2, #2
 590 01f6 FFF7FEFF 		bl	u8g_WriteByte
 591              	.LBE3:
 182:.\u8glib_arm_v1.18.1\src/u8g_dev_a2_micro_printer.c **** 	
 183:.\u8glib_arm_v1.18.1\src/u8g_dev_a2_micro_printer.c ****       }
 184:.\u8glib_arm_v1.18.1\src/u8g_dev_a2_micro_printer.c ****       break;
 592              		.loc 1 184 0
 593 01fa 00BF     		nop
 594              	.L15:
 185:.\u8glib_arm_v1.18.1\src/u8g_dev_a2_micro_printer.c ****   }
 186:.\u8glib_arm_v1.18.1\src/u8g_dev_a2_micro_printer.c ****   return u8g_dev_pb8h1_base_fn(u8g, dev, msg, arg);
 595              		.loc 1 186 0
 596 01fc FB79     		ldrb	r3, [r7, #7]	@ zero_extendqisi2
 597 01fe F868     		ldr	r0, [r7, #12]
 598 0200 B968     		ldr	r1, [r7, #8]
 599 0202 1A46     		mov	r2, r3
 600 0204 3B68     		ldr	r3, [r7]
 601 0206 FFF7FEFF 		bl	u8g_dev_pb8h1_base_fn
ARM GAS  C:\Users\Shiguruy\AppData\Local\Temp\ccx7nFDc.s 			page 15


 602 020a 0346     		mov	r3, r0
 187:.\u8glib_arm_v1.18.1\src/u8g_dev_a2_micro_printer.c **** }
 603              		.loc 1 187 0
 604 020c 1846     		mov	r0, r3
 605 020e 2037     		adds	r7, r7, #32
 606              		.cfi_def_cfa_offset 8
 607 0210 BD46     		mov	sp, r7
 608              		.cfi_def_cfa_register 13
 609              		@ sp needed
 610 0212 80BD     		pop	{r7, pc}
 611              		.cfi_endproc
 612              	.LFE2:
 613              		.size	u8g_dev_a2_micro_printer_double_fn, .-u8g_dev_a2_micro_printer_double_fn
 614              		.global	u8g_dev_a2_micro_printer_384x240_buf
 615              		.bss
 616              		.align	2
 617              		.type	u8g_dev_a2_micro_printer_384x240_buf, %object
 618              		.size	u8g_dev_a2_micro_printer_384x240_buf, 240
 619              	u8g_dev_a2_micro_printer_384x240_buf:
 620 0000 00000000 		.space	240
 620      00000000 
 620      00000000 
 620      00000000 
 620      00000000 
 621              		.global	u8g_dev_a2_micro_printer_384x240_pb
 622              		.data
 623              		.align	2
 624              		.type	u8g_dev_a2_micro_printer_384x240_pb, %object
 625              		.size	u8g_dev_a2_micro_printer_384x240_pb, 12
 626              	u8g_dev_a2_micro_printer_384x240_pb:
 627 0000 08       		.byte	8
 628 0001 F0       		.byte	-16
 629 0002 00       		.byte	0
 630 0003 00       		.byte	0
 631 0004 00       		.byte	0
 632 0005 F0       		.byte	-16
 633 0006 0000     		.space	2
 634 0008 00000000 		.word	u8g_dev_a2_micro_printer_384x240_buf
 635              		.global	u8g_dev_a2_micro_printer_384x240
 636              		.align	2
 637              		.type	u8g_dev_a2_micro_printer_384x240, %object
 638              		.size	u8g_dev_a2_micro_printer_384x240, 12
 639              	u8g_dev_a2_micro_printer_384x240:
 640 000c 00000000 		.word	u8g_dev_a2_micro_printer_fn
 641 0010 00000000 		.word	u8g_dev_a2_micro_printer_384x240_pb
 642 0014 00000000 		.word	u8g_com_null_fn
 643              		.global	u8g_dev_a2_micro_printer_192x360_ds_buf
 644              		.bss
 645              		.align	2
 646              		.type	u8g_dev_a2_micro_printer_192x360_ds_buf, %object
 647              		.size	u8g_dev_a2_micro_printer_192x360_ds_buf, 192
 648              	u8g_dev_a2_micro_printer_192x360_ds_buf:
 649 00f0 00000000 		.space	192
 649      00000000 
 649      00000000 
 649      00000000 
 649      00000000 
ARM GAS  C:\Users\Shiguruy\AppData\Local\Temp\ccx7nFDc.s 			page 16


 650              		.global	u8g_dev_a2_micro_printer_192x360_ds_pb
 651              		.data
 652              		.align	2
 653              		.type	u8g_dev_a2_micro_printer_192x360_ds_pb, %object
 654              		.size	u8g_dev_a2_micro_printer_192x360_ds_pb, 12
 655              	u8g_dev_a2_micro_printer_192x360_ds_pb:
 656 0018 08       		.byte	8
 657 0019 F0       		.byte	-16
 658 001a 00       		.byte	0
 659 001b 00       		.byte	0
 660 001c 00       		.byte	0
 661 001d C0       		.byte	-64
 662 001e 0000     		.space	2
 663 0020 00000000 		.word	u8g_dev_a2_micro_printer_192x360_ds_buf
 664              		.global	u8g_dev_a2_micro_printer_192x360_ds
 665              		.align	2
 666              		.type	u8g_dev_a2_micro_printer_192x360_ds, %object
 667              		.size	u8g_dev_a2_micro_printer_192x360_ds, 12
 668              	u8g_dev_a2_micro_printer_192x360_ds:
 669 0024 00000000 		.word	u8g_dev_a2_micro_printer_double_fn
 670 0028 00000000 		.word	u8g_dev_a2_micro_printer_192x360_ds_pb
 671 002c 00000000 		.word	u8g_com_null_fn
 672              		.global	u8g_dev_a2_micro_printer_192x720_ds_buf
 673              		.bss
 674              		.align	2
 675              		.type	u8g_dev_a2_micro_printer_192x720_ds_buf, %object
 676              		.size	u8g_dev_a2_micro_printer_192x720_ds_buf, 192
 677              	u8g_dev_a2_micro_printer_192x720_ds_buf:
 678 01b0 00000000 		.space	192
 678      00000000 
 678      00000000 
 678      00000000 
 678      00000000 
 679              		.global	u8g_dev_a2_micro_printer_192x720_ds_pb
 680              		.data
 681              		.align	2
 682              		.type	u8g_dev_a2_micro_printer_192x720_ds_pb, %object
 683              		.size	u8g_dev_a2_micro_printer_192x720_ds_pb, 12
 684              	u8g_dev_a2_micro_printer_192x720_ds_pb:
 685 0030 08       		.byte	8
 686 0031 F0       		.byte	-16
 687 0032 00       		.byte	0
 688 0033 00       		.byte	0
 689 0034 00       		.byte	0
 690 0035 C0       		.byte	-64
 691 0036 0000     		.space	2
 692 0038 00000000 		.word	u8g_dev_a2_micro_printer_192x720_ds_buf
 693              		.global	u8g_dev_a2_micro_printer_192x720_ds
 694              		.align	2
 695              		.type	u8g_dev_a2_micro_printer_192x720_ds, %object
 696              		.size	u8g_dev_a2_micro_printer_192x720_ds, 12
 697              	u8g_dev_a2_micro_printer_192x720_ds:
 698 003c 00000000 		.word	u8g_dev_a2_micro_printer_double_fn
 699 0040 00000000 		.word	u8g_dev_a2_micro_printer_192x720_ds_pb
 700 0044 00000000 		.word	u8g_com_null_fn
 701              		.global	u8g_dev_a2_micro_printer_192x120_ds_buf
 702              		.bss
ARM GAS  C:\Users\Shiguruy\AppData\Local\Temp\ccx7nFDc.s 			page 17


 703              		.align	2
 704              		.type	u8g_dev_a2_micro_printer_192x120_ds_buf, %object
 705              		.size	u8g_dev_a2_micro_printer_192x120_ds_buf, 192
 706              	u8g_dev_a2_micro_printer_192x120_ds_buf:
 707 0270 00000000 		.space	192
 707      00000000 
 707      00000000 
 707      00000000 
 707      00000000 
 708              		.global	u8g_dev_a2_micro_printer_192x120_ds_pb
 709              		.data
 710              		.align	2
 711              		.type	u8g_dev_a2_micro_printer_192x120_ds_pb, %object
 712              		.size	u8g_dev_a2_micro_printer_192x120_ds_pb, 12
 713              	u8g_dev_a2_micro_printer_192x120_ds_pb:
 714 0048 08       		.byte	8
 715 0049 78       		.byte	120
 716 004a 00       		.byte	0
 717 004b 00       		.byte	0
 718 004c 00       		.byte	0
 719 004d C0       		.byte	-64
 720 004e 0000     		.space	2
 721 0050 00000000 		.word	u8g_dev_a2_micro_printer_192x120_ds_buf
 722              		.global	u8g_dev_a2_micro_printer_192x120_ds
 723              		.align	2
 724              		.type	u8g_dev_a2_micro_printer_192x120_ds, %object
 725              		.size	u8g_dev_a2_micro_printer_192x120_ds, 12
 726              	u8g_dev_a2_micro_printer_192x120_ds:
 727 0054 00000000 		.word	u8g_dev_a2_micro_printer_double_fn
 728 0058 00000000 		.word	u8g_dev_a2_micro_printer_192x120_ds_pb
 729 005c 00000000 		.word	u8g_com_null_fn
 730              		.text
 731              	.Letext0:
 732              		.file 2 "c:\\program files (x86)\\cypress\\psoc creator\\3.3\\psoc creator\\import\\gnu\\arm\\4.9.
 733              		.file 3 "c:\\program files (x86)\\cypress\\psoc creator\\3.3\\psoc creator\\import\\gnu\\arm\\4.9.
 734              		.file 4 ".\\u8glib_arm_v1.18.1\\src\\u8g.h"