ARM GAS  C:\Users\KJA\AppData\Local\Temp\ccg29s4a.s 			page 1


   1              		.syntax unified
   2              		.cpu cortex-m3
   3              		.fpu softvfp
   4              		.eabi_attribute 20, 1
   5              		.eabi_attribute 21, 1
   6              		.eabi_attribute 23, 3
   7              		.eabi_attribute 24, 1
   8              		.eabi_attribute 25, 1
   9              		.eabi_attribute 26, 1
  10              		.eabi_attribute 30, 6
  11              		.eabi_attribute 34, 1
  12              		.eabi_attribute 18, 4
  13              		.thumb
  14              		.file	"u8g_com_msp430_hw_spi.c"
  15              		.text
  16              	.Ltext0:
  17              		.cfi_sections	.debug_frame
  18              		.section	.text.u8g_com_msp430_hw_spi_fn,"ax",%progbits
  19              		.align	2
  20              		.global	u8g_com_msp430_hw_spi_fn
  21              		.thumb
  22              		.thumb_func
  23              		.type	u8g_com_msp430_hw_spi_fn, %function
  24              	u8g_com_msp430_hw_spi_fn:
  25              	.LFB0:
  26              		.file 1 "u8glib_arm_v1.18.1\\src\\u8g_com_msp430_hw_spi.c"
   1:u8glib_arm_v1.18.1\src/u8g_com_msp430_hw_spi.c **** /*
   2:u8glib_arm_v1.18.1\src/u8g_com_msp430_hw_spi.c ****   
   3:u8glib_arm_v1.18.1\src/u8g_com_msp430_hw_spi.c ****   u8g_com_msp430_hw_spi.c
   4:u8glib_arm_v1.18.1\src/u8g_com_msp430_hw_spi.c **** 
   5:u8glib_arm_v1.18.1\src/u8g_com_msp430_hw_spi.c ****   Universal 8bit Graphics Library
   6:u8glib_arm_v1.18.1\src/u8g_com_msp430_hw_spi.c ****   
   7:u8glib_arm_v1.18.1\src/u8g_com_msp430_hw_spi.c ****   Copyright (c) 2012, olikraus@gmail.com
   8:u8glib_arm_v1.18.1\src/u8g_com_msp430_hw_spi.c ****   All rights reserved.
   9:u8glib_arm_v1.18.1\src/u8g_com_msp430_hw_spi.c **** 
  10:u8glib_arm_v1.18.1\src/u8g_com_msp430_hw_spi.c ****   Redistribution and use in source and binary forms, with or without modification, 
  11:u8glib_arm_v1.18.1\src/u8g_com_msp430_hw_spi.c ****   are permitted provided that the following conditions are met:
  12:u8glib_arm_v1.18.1\src/u8g_com_msp430_hw_spi.c **** 
  13:u8glib_arm_v1.18.1\src/u8g_com_msp430_hw_spi.c ****   * Redistributions of source code must retain the above copyright notice, this list 
  14:u8glib_arm_v1.18.1\src/u8g_com_msp430_hw_spi.c ****     of conditions and the following disclaimer.
  15:u8glib_arm_v1.18.1\src/u8g_com_msp430_hw_spi.c ****     
  16:u8glib_arm_v1.18.1\src/u8g_com_msp430_hw_spi.c ****   * Redistributions in binary form must reproduce the above copyright notice, this 
  17:u8glib_arm_v1.18.1\src/u8g_com_msp430_hw_spi.c ****     list of conditions and the following disclaimer in the documentation and/or other 
  18:u8glib_arm_v1.18.1\src/u8g_com_msp430_hw_spi.c ****     materials provided with the distribution.
  19:u8glib_arm_v1.18.1\src/u8g_com_msp430_hw_spi.c **** 
  20:u8glib_arm_v1.18.1\src/u8g_com_msp430_hw_spi.c ****   THIS SOFTWARE IS PROVIDED BY THE COPYRIGHT HOLDERS AND 
  21:u8glib_arm_v1.18.1\src/u8g_com_msp430_hw_spi.c ****   CONTRIBUTORS "AS IS" AND ANY EXPRESS OR IMPLIED WARRANTIES, 
  22:u8glib_arm_v1.18.1\src/u8g_com_msp430_hw_spi.c ****   INCLUDING, BUT NOT LIMITED TO, THE IMPLIED WARRANTIES OF 
  23:u8glib_arm_v1.18.1\src/u8g_com_msp430_hw_spi.c ****   MERCHANTABILITY AND FITNESS FOR A PARTICULAR PURPOSE ARE 
  24:u8glib_arm_v1.18.1\src/u8g_com_msp430_hw_spi.c ****   DISCLAIMED. IN NO EVENT SHALL THE COPYRIGHT HOLDER OR 
  25:u8glib_arm_v1.18.1\src/u8g_com_msp430_hw_spi.c ****   CONTRIBUTORS BE LIABLE FOR ANY DIRECT, INDIRECT, INCIDENTAL, 
  26:u8glib_arm_v1.18.1\src/u8g_com_msp430_hw_spi.c ****   SPECIAL, EXEMPLARY, OR CONSEQUENTIAL DAMAGES (INCLUDING, BUT 
  27:u8glib_arm_v1.18.1\src/u8g_com_msp430_hw_spi.c ****   NOT LIMITED TO, PROCUREMENT OF SUBSTITUTE GOODS OR SERVICES; 
  28:u8glib_arm_v1.18.1\src/u8g_com_msp430_hw_spi.c ****   LOSS OF USE, DATA, OR PROFITS; OR BUSINESS INTERRUPTION) HOWEVER 
  29:u8glib_arm_v1.18.1\src/u8g_com_msp430_hw_spi.c ****   CAUSED AND ON ANY THEORY OF LIABILITY, WHETHER IN CONTRACT, 
  30:u8glib_arm_v1.18.1\src/u8g_com_msp430_hw_spi.c ****   STRICT LIABILITY, OR TORT (INCLUDING NEGLIGENCE OR OTHERWISE) 
  31:u8glib_arm_v1.18.1\src/u8g_com_msp430_hw_spi.c ****   ARISING IN ANY WAY OUT OF THE USE OF THIS SOFTWARE, EVEN IF 
ARM GAS  C:\Users\KJA\AppData\Local\Temp\ccg29s4a.s 			page 2


  32:u8glib_arm_v1.18.1\src/u8g_com_msp430_hw_spi.c ****   ADVISED OF THE POSSIBILITY OF SUCH DAMAGE.  
  33:u8glib_arm_v1.18.1\src/u8g_com_msp430_hw_spi.c ****  
  34:u8glib_arm_v1.18.1\src/u8g_com_msp430_hw_spi.c **** */ 
  35:u8glib_arm_v1.18.1\src/u8g_com_msp430_hw_spi.c ****  
  36:u8glib_arm_v1.18.1\src/u8g_com_msp430_hw_spi.c **** #include "u8g.h"
  37:u8glib_arm_v1.18.1\src/u8g_com_msp430_hw_spi.c **** 
  38:u8glib_arm_v1.18.1\src/u8g_com_msp430_hw_spi.c **** #if defined(__MSP430__)
  39:u8glib_arm_v1.18.1\src/u8g_com_msp430_hw_spi.c **** #define U8G_MSP430_HW_SPI
  40:u8glib_arm_v1.18.1\src/u8g_com_msp430_hw_spi.c **** #endif
  41:u8glib_arm_v1.18.1\src/u8g_com_msp430_hw_spi.c **** 
  42:u8glib_arm_v1.18.1\src/u8g_com_msp430_hw_spi.c **** #if defined(U8G_MSP430_HW_SPI)
  43:u8glib_arm_v1.18.1\src/u8g_com_msp430_hw_spi.c **** 
  44:u8glib_arm_v1.18.1\src/u8g_com_msp430_hw_spi.c **** #include <msp430.h>
  45:u8glib_arm_v1.18.1\src/u8g_com_msp430_hw_spi.c **** 
  46:u8glib_arm_v1.18.1\src/u8g_com_msp430_hw_spi.c **** #ifndef F_CPU
  47:u8glib_arm_v1.18.1\src/u8g_com_msp430_hw_spi.c **** #error "Please specifiy actual master clock using F_CPU in HZ"
  48:u8glib_arm_v1.18.1\src/u8g_com_msp430_hw_spi.c **** #endif
  49:u8glib_arm_v1.18.1\src/u8g_com_msp430_hw_spi.c **** #ifndef F_SPI
  50:u8glib_arm_v1.18.1\src/u8g_com_msp430_hw_spi.c **** #define F_SPI  1000000UL
  51:u8glib_arm_v1.18.1\src/u8g_com_msp430_hw_spi.c **** #endif
  52:u8glib_arm_v1.18.1\src/u8g_com_msp430_hw_spi.c **** 
  53:u8glib_arm_v1.18.1\src/u8g_com_msp430_hw_spi.c **** #define U8G_USE_USCIA0	1
  54:u8glib_arm_v1.18.1\src/u8g_com_msp430_hw_spi.c **** #define U8G_USE_USCIB0	2
  55:u8glib_arm_v1.18.1\src/u8g_com_msp430_hw_spi.c **** #define U8G_USE_USCIA1	3
  56:u8glib_arm_v1.18.1\src/u8g_com_msp430_hw_spi.c **** #define U8G_USE_USCIB1	4
  57:u8glib_arm_v1.18.1\src/u8g_com_msp430_hw_spi.c **** #define U8G_USE_USCIA2	5
  58:u8glib_arm_v1.18.1\src/u8g_com_msp430_hw_spi.c **** #define U8G_USE_USCIB2	6
  59:u8glib_arm_v1.18.1\src/u8g_com_msp430_hw_spi.c **** #define U8G_USE_USCIA3	7
  60:u8glib_arm_v1.18.1\src/u8g_com_msp430_hw_spi.c **** #define U8G_USE_USCIB3	8
  61:u8glib_arm_v1.18.1\src/u8g_com_msp430_hw_spi.c **** 
  62:u8glib_arm_v1.18.1\src/u8g_com_msp430_hw_spi.c **** #ifndef U8G_USE_USCI
  63:u8glib_arm_v1.18.1\src/u8g_com_msp430_hw_spi.c **** #define U8G_USE_USCI	U8G_USE_USCIB0
  64:u8glib_arm_v1.18.1\src/u8g_com_msp430_hw_spi.c **** #endif
  65:u8glib_arm_v1.18.1\src/u8g_com_msp430_hw_spi.c **** 
  66:u8glib_arm_v1.18.1\src/u8g_com_msp430_hw_spi.c **** #if U8G_USE_USCI == 1
  67:u8glib_arm_v1.18.1\src/u8g_com_msp430_hw_spi.c **** #define UCIFG	UCA0IFG
  68:u8glib_arm_v1.18.1\src/u8g_com_msp430_hw_spi.c **** #define UCTXBUF UCA0TXBUF
  69:u8glib_arm_v1.18.1\src/u8g_com_msp430_hw_spi.c **** #define UCSTAT  UCA0STAT
  70:u8glib_arm_v1.18.1\src/u8g_com_msp430_hw_spi.c **** #define UCCTL0  UCA0CTL0
  71:u8glib_arm_v1.18.1\src/u8g_com_msp430_hw_spi.c **** #define UCCTL1  UCA0CTL1
  72:u8glib_arm_v1.18.1\src/u8g_com_msp430_hw_spi.c **** #define UCBR0   UCA0BR0
  73:u8glib_arm_v1.18.1\src/u8g_com_msp430_hw_spi.c **** #define UCBR1   UCA0BR1
  74:u8glib_arm_v1.18.1\src/u8g_com_msp430_hw_spi.c **** #elif U8G_USE_USCI == 2
  75:u8glib_arm_v1.18.1\src/u8g_com_msp430_hw_spi.c **** #define UCIFG	UCB0IFG
  76:u8glib_arm_v1.18.1\src/u8g_com_msp430_hw_spi.c **** #define UCTXBUF UCB0TXBUF
  77:u8glib_arm_v1.18.1\src/u8g_com_msp430_hw_spi.c **** #define UCSTAT  UCB0STAT
  78:u8glib_arm_v1.18.1\src/u8g_com_msp430_hw_spi.c **** #define UCCTL0  UCB0CTL0
  79:u8glib_arm_v1.18.1\src/u8g_com_msp430_hw_spi.c **** #define UCCTL1  UCB0CTL1
  80:u8glib_arm_v1.18.1\src/u8g_com_msp430_hw_spi.c **** #define UCBR0   UCB0BR0
  81:u8glib_arm_v1.18.1\src/u8g_com_msp430_hw_spi.c **** #define UCBR1   UCB0BR1
  82:u8glib_arm_v1.18.1\src/u8g_com_msp430_hw_spi.c **** #elif U8G_USE_USCI == 3
  83:u8glib_arm_v1.18.1\src/u8g_com_msp430_hw_spi.c **** #define UCIFG	UCA1IFG
  84:u8glib_arm_v1.18.1\src/u8g_com_msp430_hw_spi.c **** #define UCTXBUF UCA1TXBUF
  85:u8glib_arm_v1.18.1\src/u8g_com_msp430_hw_spi.c **** #define UCSTAT  UCA1STAT
  86:u8glib_arm_v1.18.1\src/u8g_com_msp430_hw_spi.c **** #define UCCTL0  UCA1CTL0
  87:u8glib_arm_v1.18.1\src/u8g_com_msp430_hw_spi.c **** #define UCCTL1  UCA1CTL1
  88:u8glib_arm_v1.18.1\src/u8g_com_msp430_hw_spi.c **** #define UCBR0   UCA1BR0
ARM GAS  C:\Users\KJA\AppData\Local\Temp\ccg29s4a.s 			page 3


  89:u8glib_arm_v1.18.1\src/u8g_com_msp430_hw_spi.c **** #define UCBR1   UCA1BR1
  90:u8glib_arm_v1.18.1\src/u8g_com_msp430_hw_spi.c **** #elif U8G_USE_USCI == 4
  91:u8glib_arm_v1.18.1\src/u8g_com_msp430_hw_spi.c **** #define UCIFG	UCB1IFG
  92:u8glib_arm_v1.18.1\src/u8g_com_msp430_hw_spi.c **** #define UCTXBUF UCB1TXBUF
  93:u8glib_arm_v1.18.1\src/u8g_com_msp430_hw_spi.c **** #define UCSTAT  UCB1STAT
  94:u8glib_arm_v1.18.1\src/u8g_com_msp430_hw_spi.c **** #define UCCTL0  UCB1CTL0
  95:u8glib_arm_v1.18.1\src/u8g_com_msp430_hw_spi.c **** #define UCCTL1  UCB1CTL1
  96:u8glib_arm_v1.18.1\src/u8g_com_msp430_hw_spi.c **** #define UCBR0   UCB1BR0
  97:u8glib_arm_v1.18.1\src/u8g_com_msp430_hw_spi.c **** #define UCBR1   UCB1BR1
  98:u8glib_arm_v1.18.1\src/u8g_com_msp430_hw_spi.c **** #elif U8G_USE_USCI == 5
  99:u8glib_arm_v1.18.1\src/u8g_com_msp430_hw_spi.c **** #define UCIFG	UCA2IFG
 100:u8glib_arm_v1.18.1\src/u8g_com_msp430_hw_spi.c **** #define UCTXBUF UCA2TXBUF
 101:u8glib_arm_v1.18.1\src/u8g_com_msp430_hw_spi.c **** #define UCSTAT  UCA2STAT
 102:u8glib_arm_v1.18.1\src/u8g_com_msp430_hw_spi.c **** #define UCCTL0  UCA2CTL0
 103:u8glib_arm_v1.18.1\src/u8g_com_msp430_hw_spi.c **** #define UCCTL1  UCA2CTL1
 104:u8glib_arm_v1.18.1\src/u8g_com_msp430_hw_spi.c **** #define UCBR0   UCA2BR0
 105:u8glib_arm_v1.18.1\src/u8g_com_msp430_hw_spi.c **** #define UCBR1   UCA2BR1
 106:u8glib_arm_v1.18.1\src/u8g_com_msp430_hw_spi.c **** #elif U8G_USE_USCI == 6
 107:u8glib_arm_v1.18.1\src/u8g_com_msp430_hw_spi.c **** #define UCIFG	UCB2IFG
 108:u8glib_arm_v1.18.1\src/u8g_com_msp430_hw_spi.c **** #define UCTXBUF UCB2TXBUF
 109:u8glib_arm_v1.18.1\src/u8g_com_msp430_hw_spi.c **** #define UCSTAT  UCB2STAT
 110:u8glib_arm_v1.18.1\src/u8g_com_msp430_hw_spi.c **** #define UCCTL0  UCB2CTL0
 111:u8glib_arm_v1.18.1\src/u8g_com_msp430_hw_spi.c **** #define UCCTL1  UCB2CTL1
 112:u8glib_arm_v1.18.1\src/u8g_com_msp430_hw_spi.c **** #define UCBR0   UCB2BR0
 113:u8glib_arm_v1.18.1\src/u8g_com_msp430_hw_spi.c **** #define UCBR1   UCB2BR1
 114:u8glib_arm_v1.18.1\src/u8g_com_msp430_hw_spi.c **** #elif U8G_USE_USCI == 7
 115:u8glib_arm_v1.18.1\src/u8g_com_msp430_hw_spi.c **** #define UCIFG	UCA3IFG
 116:u8glib_arm_v1.18.1\src/u8g_com_msp430_hw_spi.c **** #define UCTXBUF UCA3TXBUF
 117:u8glib_arm_v1.18.1\src/u8g_com_msp430_hw_spi.c **** #define UCSTAT  UCA3STAT
 118:u8glib_arm_v1.18.1\src/u8g_com_msp430_hw_spi.c **** #define UCCTL0  UCA3CTL0
 119:u8glib_arm_v1.18.1\src/u8g_com_msp430_hw_spi.c **** #define UCCTL1  UCA3CTL1
 120:u8glib_arm_v1.18.1\src/u8g_com_msp430_hw_spi.c **** #define UCBR0   UCA3BR0
 121:u8glib_arm_v1.18.1\src/u8g_com_msp430_hw_spi.c **** #define UCBR1   UCA3BR1
 122:u8glib_arm_v1.18.1\src/u8g_com_msp430_hw_spi.c **** #elif U8G_USE_USCI == 8
 123:u8glib_arm_v1.18.1\src/u8g_com_msp430_hw_spi.c **** #define UCIFG	UCB3IFG
 124:u8glib_arm_v1.18.1\src/u8g_com_msp430_hw_spi.c **** #define UCTXBUF UCB3TXBUF
 125:u8glib_arm_v1.18.1\src/u8g_com_msp430_hw_spi.c **** #define UCSTAT  UCB3STAT
 126:u8glib_arm_v1.18.1\src/u8g_com_msp430_hw_spi.c **** #define UCCTL0  UCB3CTL0
 127:u8glib_arm_v1.18.1\src/u8g_com_msp430_hw_spi.c **** #define UCCTL1  UCB3CTL1
 128:u8glib_arm_v1.18.1\src/u8g_com_msp430_hw_spi.c **** #define UCBR0   UCB3BR0
 129:u8glib_arm_v1.18.1\src/u8g_com_msp430_hw_spi.c **** #define UCBR1   UCB3BR1
 130:u8glib_arm_v1.18.1\src/u8g_com_msp430_hw_spi.c **** #endif
 131:u8glib_arm_v1.18.1\src/u8g_com_msp430_hw_spi.c **** 
 132:u8glib_arm_v1.18.1\src/u8g_com_msp430_hw_spi.c **** inline void u8g_msp430_spi_out(uint8_t data)
 133:u8glib_arm_v1.18.1\src/u8g_com_msp430_hw_spi.c **** {
 134:u8glib_arm_v1.18.1\src/u8g_com_msp430_hw_spi.c ****   while (!(UCIFG&UCTXIFG));
 135:u8glib_arm_v1.18.1\src/u8g_com_msp430_hw_spi.c ****   UCTXBUF = data;
 136:u8glib_arm_v1.18.1\src/u8g_com_msp430_hw_spi.c **** }
 137:u8glib_arm_v1.18.1\src/u8g_com_msp430_hw_spi.c **** 
 138:u8glib_arm_v1.18.1\src/u8g_com_msp430_hw_spi.c **** uint8_t u8g_com_msp430_hw_spi_fn(u8g_t *u8g, uint8_t msg, uint8_t arg_val, void *arg_ptr)
 139:u8glib_arm_v1.18.1\src/u8g_com_msp430_hw_spi.c **** {
 140:u8glib_arm_v1.18.1\src/u8g_com_msp430_hw_spi.c ****   switch(msg)
 141:u8glib_arm_v1.18.1\src/u8g_com_msp430_hw_spi.c ****   {
 142:u8glib_arm_v1.18.1\src/u8g_com_msp430_hw_spi.c ****     case U8G_COM_MSG_STOP:
 143:u8glib_arm_v1.18.1\src/u8g_com_msp430_hw_spi.c ****       break;
 144:u8glib_arm_v1.18.1\src/u8g_com_msp430_hw_spi.c ****     
 145:u8glib_arm_v1.18.1\src/u8g_com_msp430_hw_spi.c ****     case U8G_COM_MSG_INIT:
ARM GAS  C:\Users\KJA\AppData\Local\Temp\ccg29s4a.s 			page 4


 146:u8glib_arm_v1.18.1\src/u8g_com_msp430_hw_spi.c **** 	/*
 147:u8glib_arm_v1.18.1\src/u8g_com_msp430_hw_spi.c ****  	 * on MSP430 you need to set PSEL alternative function which
 148:u8glib_arm_v1.18.1\src/u8g_com_msp430_hw_spi.c ****  	 * may not be required on other MCU's - should be handled
 149:u8glib_arm_v1.18.1\src/u8g_com_msp430_hw_spi.c ****  	 * by a low level u8g_SetPinAlternate(pin_number)...
 150:u8glib_arm_v1.18.1\src/u8g_com_msp430_hw_spi.c ****  	 */
 151:u8glib_arm_v1.18.1\src/u8g_com_msp430_hw_spi.c ****       UCCTL1 |= UCSWRST;                      // **Put state machine in reset**
 152:u8glib_arm_v1.18.1\src/u8g_com_msp430_hw_spi.c ****       UCCTL0 |= UCMST|UCSYNC|UCCKPL|UCMSB;    // 3-pin, 8-bit SPI master Clock polarity high, MSB
 153:u8glib_arm_v1.18.1\src/u8g_com_msp430_hw_spi.c ****       UCCTL1 |= UCSSEL_2;                     // SMCLK
 154:u8glib_arm_v1.18.1\src/u8g_com_msp430_hw_spi.c ****       UCBR0 = (unsigned char)(F_CPU/F_SPI);   // 
 155:u8glib_arm_v1.18.1\src/u8g_com_msp430_hw_spi.c ****       UCBR1 = 0;                              //
 156:u8glib_arm_v1.18.1\src/u8g_com_msp430_hw_spi.c ****       UCCTL1 &= ~UCSWRST;                     // **Initialize USCI state machine**
 157:u8glib_arm_v1.18.1\src/u8g_com_msp430_hw_spi.c ****       u8g_SetPILevel(u8g, U8G_PI_CS, 1);
 158:u8glib_arm_v1.18.1\src/u8g_com_msp430_hw_spi.c ****       u8g_SetPILevel(u8g, U8G_PI_A0, 1);
 159:u8glib_arm_v1.18.1\src/u8g_com_msp430_hw_spi.c ****       u8g_SetPILevel(u8g, U8G_PI_RESET, 1);
 160:u8glib_arm_v1.18.1\src/u8g_com_msp430_hw_spi.c ****       u8g_SetPIOutput(u8g, U8G_PI_CS);
 161:u8glib_arm_v1.18.1\src/u8g_com_msp430_hw_spi.c ****       u8g_SetPIOutput(u8g, U8G_PI_A0);
 162:u8glib_arm_v1.18.1\src/u8g_com_msp430_hw_spi.c ****       u8g_SetPIOutput(u8g, U8G_PI_RESET);
 163:u8glib_arm_v1.18.1\src/u8g_com_msp430_hw_spi.c **** 
 164:u8glib_arm_v1.18.1\src/u8g_com_msp430_hw_spi.c ****       break;
 165:u8glib_arm_v1.18.1\src/u8g_com_msp430_hw_spi.c ****     
 166:u8glib_arm_v1.18.1\src/u8g_com_msp430_hw_spi.c ****     case U8G_COM_MSG_ADDRESS:                     /* define cmd (arg_val = 0) or data mode (arg_val
 167:u8glib_arm_v1.18.1\src/u8g_com_msp430_hw_spi.c ****       u8g_SetPILevel(u8g, U8G_PI_A0, arg_val);
 168:u8glib_arm_v1.18.1\src/u8g_com_msp430_hw_spi.c ****       break;
 169:u8glib_arm_v1.18.1\src/u8g_com_msp430_hw_spi.c **** 
 170:u8glib_arm_v1.18.1\src/u8g_com_msp430_hw_spi.c ****     case U8G_COM_MSG_CHIP_SELECT:
 171:u8glib_arm_v1.18.1\src/u8g_com_msp430_hw_spi.c ****       
 172:u8glib_arm_v1.18.1\src/u8g_com_msp430_hw_spi.c ****        u8g_SetPILevel(u8g, U8G_PI_CS, (arg_val ? 0 : 1));
 173:u8glib_arm_v1.18.1\src/u8g_com_msp430_hw_spi.c ****       break;
 174:u8glib_arm_v1.18.1\src/u8g_com_msp430_hw_spi.c ****       
 175:u8glib_arm_v1.18.1\src/u8g_com_msp430_hw_spi.c ****     case U8G_COM_MSG_RESET:
 176:u8glib_arm_v1.18.1\src/u8g_com_msp430_hw_spi.c **** 
 177:u8glib_arm_v1.18.1\src/u8g_com_msp430_hw_spi.c ****       u8g_SetPILevel(u8g, U8G_PI_RESET, arg_val);
 178:u8glib_arm_v1.18.1\src/u8g_com_msp430_hw_spi.c ****       break;
 179:u8glib_arm_v1.18.1\src/u8g_com_msp430_hw_spi.c ****     
 180:u8glib_arm_v1.18.1\src/u8g_com_msp430_hw_spi.c ****     case U8G_COM_MSG_WRITE_BYTE:
 181:u8glib_arm_v1.18.1\src/u8g_com_msp430_hw_spi.c ****       u8g_msp430_spi_out(arg_val);
 182:u8glib_arm_v1.18.1\src/u8g_com_msp430_hw_spi.c ****       while ((UCSTAT&UCBUSY));
 183:u8glib_arm_v1.18.1\src/u8g_com_msp430_hw_spi.c ****       break;
 184:u8glib_arm_v1.18.1\src/u8g_com_msp430_hw_spi.c ****     
 185:u8glib_arm_v1.18.1\src/u8g_com_msp430_hw_spi.c ****     case U8G_COM_MSG_WRITE_SEQ:
 186:u8glib_arm_v1.18.1\src/u8g_com_msp430_hw_spi.c ****       {
 187:u8glib_arm_v1.18.1\src/u8g_com_msp430_hw_spi.c ****         register uint8_t *ptr = arg_ptr;
 188:u8glib_arm_v1.18.1\src/u8g_com_msp430_hw_spi.c ****         while( arg_val > 0 )
 189:u8glib_arm_v1.18.1\src/u8g_com_msp430_hw_spi.c ****         {
 190:u8glib_arm_v1.18.1\src/u8g_com_msp430_hw_spi.c ****           u8g_msp430_spi_out(*ptr++);
 191:u8glib_arm_v1.18.1\src/u8g_com_msp430_hw_spi.c ****           arg_val--;
 192:u8glib_arm_v1.18.1\src/u8g_com_msp430_hw_spi.c ****         }
 193:u8glib_arm_v1.18.1\src/u8g_com_msp430_hw_spi.c ****         while ((UCSTAT&UCBUSY));
 194:u8glib_arm_v1.18.1\src/u8g_com_msp430_hw_spi.c ****       }
 195:u8glib_arm_v1.18.1\src/u8g_com_msp430_hw_spi.c ****       break;
 196:u8glib_arm_v1.18.1\src/u8g_com_msp430_hw_spi.c ****     case U8G_COM_MSG_WRITE_SEQ_P:
 197:u8glib_arm_v1.18.1\src/u8g_com_msp430_hw_spi.c ****       {
 198:u8glib_arm_v1.18.1\src/u8g_com_msp430_hw_spi.c ****         register uint8_t *ptr = arg_ptr;
 199:u8glib_arm_v1.18.1\src/u8g_com_msp430_hw_spi.c ****         while( arg_val > 0 )
 200:u8glib_arm_v1.18.1\src/u8g_com_msp430_hw_spi.c ****         {
 201:u8glib_arm_v1.18.1\src/u8g_com_msp430_hw_spi.c ****           u8g_msp430_spi_out(u8g_pgm_read(ptr));
 202:u8glib_arm_v1.18.1\src/u8g_com_msp430_hw_spi.c ****           ptr++;
ARM GAS  C:\Users\KJA\AppData\Local\Temp\ccg29s4a.s 			page 5


 203:u8glib_arm_v1.18.1\src/u8g_com_msp430_hw_spi.c ****           arg_val--;
 204:u8glib_arm_v1.18.1\src/u8g_com_msp430_hw_spi.c ****         }
 205:u8glib_arm_v1.18.1\src/u8g_com_msp430_hw_spi.c ****         while ((UCSTAT&UCBUSY));
 206:u8glib_arm_v1.18.1\src/u8g_com_msp430_hw_spi.c ****       }
 207:u8glib_arm_v1.18.1\src/u8g_com_msp430_hw_spi.c ****       break;
 208:u8glib_arm_v1.18.1\src/u8g_com_msp430_hw_spi.c ****   }
 209:u8glib_arm_v1.18.1\src/u8g_com_msp430_hw_spi.c ****   return 1;
 210:u8glib_arm_v1.18.1\src/u8g_com_msp430_hw_spi.c **** }
 211:u8glib_arm_v1.18.1\src/u8g_com_msp430_hw_spi.c **** 
 212:u8glib_arm_v1.18.1\src/u8g_com_msp430_hw_spi.c **** #else
 213:u8glib_arm_v1.18.1\src/u8g_com_msp430_hw_spi.c **** 
 214:u8glib_arm_v1.18.1\src/u8g_com_msp430_hw_spi.c **** uint8_t u8g_com_msp430_hw_spi_fn(u8g_t *u8g, uint8_t msg, uint8_t arg_val, void *arg_ptr)
 215:u8glib_arm_v1.18.1\src/u8g_com_msp430_hw_spi.c **** {
  27              		.loc 1 215 0
  28              		.cfi_startproc
  29              		@ args = 0, pretend = 0, frame = 16
  30              		@ frame_needed = 1, uses_anonymous_args = 0
  31              		@ link register save eliminated.
  32 0000 80B4     		push	{r7}
  33              		.cfi_def_cfa_offset 4
  34              		.cfi_offset 7, -4
  35 0002 85B0     		sub	sp, sp, #20
  36              		.cfi_def_cfa_offset 24
  37 0004 00AF     		add	r7, sp, #0
  38              		.cfi_def_cfa_register 7
  39 0006 F860     		str	r0, [r7, #12]
  40 0008 7B60     		str	r3, [r7, #4]
  41 000a 0B46     		mov	r3, r1
  42 000c FB72     		strb	r3, [r7, #11]
  43 000e 1346     		mov	r3, r2
  44 0010 BB72     		strb	r3, [r7, #10]
 216:u8glib_arm_v1.18.1\src/u8g_com_msp430_hw_spi.c ****   return 1;
  45              		.loc 1 216 0
  46 0012 0123     		movs	r3, #1
 217:u8glib_arm_v1.18.1\src/u8g_com_msp430_hw_spi.c **** }
  47              		.loc 1 217 0
  48 0014 1846     		mov	r0, r3
  49 0016 1437     		adds	r7, r7, #20
  50              		.cfi_def_cfa_offset 4
  51 0018 BD46     		mov	sp, r7
  52              		.cfi_def_cfa_register 13
  53              		@ sp needed
  54 001a 5DF8047B 		ldr	r7, [sp], #4
  55              		.cfi_restore 7
  56              		.cfi_def_cfa_offset 0
  57 001e 7047     		bx	lr
  58              		.cfi_endproc
  59              	.LFE0:
  60              		.size	u8g_com_msp430_hw_spi_fn, .-u8g_com_msp430_hw_spi_fn
  61              		.text
  62              	.Letext0:
  63              		.file 2 "c:\\program files (x86)\\cypress\\psoc creator\\4.0\\psoc creator\\import\\gnu\\arm\\4.9.
  64              		.file 3 "c:\\program files (x86)\\cypress\\psoc creator\\4.0\\psoc creator\\import\\gnu\\arm\\4.9.
  65              		.file 4 "u8glib_arm_v1.18.1\\src\\u8g.h"