ARM GAS  C:\Users\KJA\AppData\Local\Temp\cc1GqkPK.s 			page 1


   1              		.syntax unified
   2              		.cpu cortex-m3
   3              		.fpu softvfp
   4              		.eabi_attribute 20, 1
   5              		.eabi_attribute 21, 1
   6              		.eabi_attribute 23, 3
   7              		.eabi_attribute 24, 1
   8              		.eabi_attribute 25, 1
   9              		.eabi_attribute 26, 1
  10              		.eabi_attribute 30, 6
  11              		.eabi_attribute 34, 1
  12              		.eabi_attribute 18, 4
  13              		.thumb
  14              		.file	"u8g_circle.c"
  15              		.text
  16              	.Ltext0:
  17              		.cfi_sections	.debug_frame
  18              		.section	.text.u8g_draw_circle_section,"ax",%progbits
  19              		.align	2
  20              		.thumb
  21              		.thumb_func
  22              		.type	u8g_draw_circle_section, %function
  23              	u8g_draw_circle_section:
  24              	.LFB0:
  25              		.file 1 "u8glib_arm_v1.18.1\\src\\u8g_circle.c"
   1:u8glib_arm_v1.18.1\src/u8g_circle.c **** /*
   2:u8glib_arm_v1.18.1\src/u8g_circle.c **** 
   3:u8glib_arm_v1.18.1\src/u8g_circle.c ****   u8g_circle.c
   4:u8glib_arm_v1.18.1\src/u8g_circle.c **** 
   5:u8glib_arm_v1.18.1\src/u8g_circle.c ****   Utility to draw empty and filled circles.
   6:u8glib_arm_v1.18.1\src/u8g_circle.c ****   
   7:u8glib_arm_v1.18.1\src/u8g_circle.c ****   Universal 8bit Graphics Library
   8:u8glib_arm_v1.18.1\src/u8g_circle.c ****   
   9:u8glib_arm_v1.18.1\src/u8g_circle.c ****   Copyright (c) 2011, bjthom@gmail.com
  10:u8glib_arm_v1.18.1\src/u8g_circle.c ****   u8g_DrawCircle & u8g_DrawDisc by olikraus@gmail.com
  11:u8glib_arm_v1.18.1\src/u8g_circle.c ****   
  12:u8glib_arm_v1.18.1\src/u8g_circle.c ****   All rights reserved.
  13:u8glib_arm_v1.18.1\src/u8g_circle.c **** 
  14:u8glib_arm_v1.18.1\src/u8g_circle.c ****   Redistribution and use in source and binary forms, with or without modification, 
  15:u8glib_arm_v1.18.1\src/u8g_circle.c ****   are permitted provided that the following conditions are met:
  16:u8glib_arm_v1.18.1\src/u8g_circle.c **** 
  17:u8glib_arm_v1.18.1\src/u8g_circle.c ****   * Redistributions of source code must retain the above copyright notice, this list 
  18:u8glib_arm_v1.18.1\src/u8g_circle.c ****     of conditions and the following disclaimer.
  19:u8glib_arm_v1.18.1\src/u8g_circle.c ****     
  20:u8glib_arm_v1.18.1\src/u8g_circle.c ****   * Redistributions in binary form must reproduce the above copyright notice, this 
  21:u8glib_arm_v1.18.1\src/u8g_circle.c ****     list of conditions and the following disclaimer in the documentation and/or other 
  22:u8glib_arm_v1.18.1\src/u8g_circle.c ****     materials provided with the distribution.
  23:u8glib_arm_v1.18.1\src/u8g_circle.c **** 
  24:u8glib_arm_v1.18.1\src/u8g_circle.c ****   THIS SOFTWARE IS PROVIDED BY THE COPYRIGHT HOLDERS AND 
  25:u8glib_arm_v1.18.1\src/u8g_circle.c ****   CONTRIBUTORS "AS IS" AND ANY EXPRESS OR IMPLIED WARRANTIES, 
  26:u8glib_arm_v1.18.1\src/u8g_circle.c ****   INCLUDING, BUT NOT LIMITED TO, THE IMPLIED WARRANTIES OF 
  27:u8glib_arm_v1.18.1\src/u8g_circle.c ****   MERCHANTABILITY AND FITNESS FOR A PARTICULAR PURPOSE ARE 
  28:u8glib_arm_v1.18.1\src/u8g_circle.c ****   DISCLAIMED. IN NO EVENT SHALL THE COPYRIGHT HOLDER OR 
  29:u8glib_arm_v1.18.1\src/u8g_circle.c ****   CONTRIBUTORS BE LIABLE FOR ANY DIRECT, INDIRECT, INCIDENTAL, 
  30:u8glib_arm_v1.18.1\src/u8g_circle.c ****   SPECIAL, EXEMPLARY, OR CONSEQUENTIAL DAMAGES (INCLUDING, BUT 
  31:u8glib_arm_v1.18.1\src/u8g_circle.c ****   NOT LIMITED TO, PROCUREMENT OF SUBSTITUTE GOODS OR SERVICES; 
  32:u8glib_arm_v1.18.1\src/u8g_circle.c ****   LOSS OF USE, DATA, OR PROFITS; OR BUSINESS INTERRUPTION) HOWEVER 
ARM GAS  C:\Users\KJA\AppData\Local\Temp\cc1GqkPK.s 			page 2


  33:u8glib_arm_v1.18.1\src/u8g_circle.c ****   CAUSED AND ON ANY THEORY OF LIABILITY, WHETHER IN CONTRACT, 
  34:u8glib_arm_v1.18.1\src/u8g_circle.c ****   STRICT LIABILITY, OR TORT (INCLUDING NEGLIGENCE OR OTHERWISE) 
  35:u8glib_arm_v1.18.1\src/u8g_circle.c ****   ARISING IN ANY WAY OUT OF THE USE OF THIS SOFTWARE, EVEN IF 
  36:u8glib_arm_v1.18.1\src/u8g_circle.c ****   ADVISED OF THE POSSIBILITY OF SUCH DAMAGE.  
  37:u8glib_arm_v1.18.1\src/u8g_circle.c ****   
  38:u8glib_arm_v1.18.1\src/u8g_circle.c ****   Addition to the U8G Library 02/25/12
  39:u8glib_arm_v1.18.1\src/u8g_circle.c ****   
  40:u8glib_arm_v1.18.1\src/u8g_circle.c ****   
  41:u8glib_arm_v1.18.1\src/u8g_circle.c **** */
  42:u8glib_arm_v1.18.1\src/u8g_circle.c **** 
  43:u8glib_arm_v1.18.1\src/u8g_circle.c **** #include "u8g.h"
  44:u8glib_arm_v1.18.1\src/u8g_circle.c **** 
  45:u8glib_arm_v1.18.1\src/u8g_circle.c **** #ifdef OLD_CODE
  46:u8glib_arm_v1.18.1\src/u8g_circle.c **** 
  47:u8glib_arm_v1.18.1\src/u8g_circle.c **** void circ_upperRight(u8g_t *u8g, u8g_uint_t x, u8g_uint_t y, u8g_uint_t x0, u8g_uint_t y0) {
  48:u8glib_arm_v1.18.1\src/u8g_circle.c ****   u8g_DrawPixel(u8g, x0 + x, y0 - y);
  49:u8glib_arm_v1.18.1\src/u8g_circle.c ****   u8g_DrawPixel(u8g, x0 + y, y0 - x);
  50:u8glib_arm_v1.18.1\src/u8g_circle.c **** }
  51:u8glib_arm_v1.18.1\src/u8g_circle.c **** 		
  52:u8glib_arm_v1.18.1\src/u8g_circle.c **** void circ_upperLeft(u8g_t *u8g, u8g_uint_t x, u8g_uint_t y, u8g_uint_t x0, u8g_uint_t y0) {
  53:u8glib_arm_v1.18.1\src/u8g_circle.c ****   u8g_DrawPixel(u8g, x0 - x, y0 - y);
  54:u8glib_arm_v1.18.1\src/u8g_circle.c ****   u8g_DrawPixel(u8g, x0 - y, y0 - x);
  55:u8glib_arm_v1.18.1\src/u8g_circle.c **** }
  56:u8glib_arm_v1.18.1\src/u8g_circle.c **** 		
  57:u8glib_arm_v1.18.1\src/u8g_circle.c **** void circ_lowerRight(u8g_t *u8g, u8g_uint_t x, u8g_uint_t y, u8g_uint_t x0, u8g_uint_t y0) {
  58:u8glib_arm_v1.18.1\src/u8g_circle.c ****   u8g_DrawPixel(u8g, x0 + x, y0 + y);
  59:u8glib_arm_v1.18.1\src/u8g_circle.c ****   u8g_DrawPixel(u8g, x0 + y, y0 + x);
  60:u8glib_arm_v1.18.1\src/u8g_circle.c **** }
  61:u8glib_arm_v1.18.1\src/u8g_circle.c **** 		
  62:u8glib_arm_v1.18.1\src/u8g_circle.c **** void circ_lowerLeft(u8g_t *u8g, u8g_uint_t x, u8g_uint_t y, u8g_uint_t x0, u8g_uint_t y0) {
  63:u8glib_arm_v1.18.1\src/u8g_circle.c ****   u8g_DrawPixel(u8g, x0 - x, y0 + y);
  64:u8glib_arm_v1.18.1\src/u8g_circle.c ****   u8g_DrawPixel(u8g, x0 - y, y0 + x);
  65:u8glib_arm_v1.18.1\src/u8g_circle.c **** }
  66:u8glib_arm_v1.18.1\src/u8g_circle.c **** 			
  67:u8glib_arm_v1.18.1\src/u8g_circle.c **** void circ_all(u8g_t *u8g, u8g_uint_t x, u8g_uint_t y, u8g_uint_t x0, u8g_uint_t y0) {
  68:u8glib_arm_v1.18.1\src/u8g_circle.c ****   circ_upperRight(u8g, x, y, x0, y0);
  69:u8glib_arm_v1.18.1\src/u8g_circle.c ****   circ_upperLeft(u8g, x, y, x0, y0);
  70:u8glib_arm_v1.18.1\src/u8g_circle.c ****   circ_lowerRight(u8g, x, y, x0, y0);
  71:u8glib_arm_v1.18.1\src/u8g_circle.c ****   circ_lowerLeft(u8g, x, y, x0, y0);
  72:u8glib_arm_v1.18.1\src/u8g_circle.c **** }
  73:u8glib_arm_v1.18.1\src/u8g_circle.c **** 
  74:u8glib_arm_v1.18.1\src/u8g_circle.c **** void u8g_DrawEmpCirc(u8g_t *u8g, u8g_uint_t x0, u8g_uint_t y0, u8g_uint_t rad, uint8_t option)
  75:u8glib_arm_v1.18.1\src/u8g_circle.c **** {
  76:u8glib_arm_v1.18.1\src/u8g_circle.c ****   if ( u8g_IsBBXIntersection(u8g, x0-rad-1, y0-rad-1, 2*rad+1, 2*rad+1) == 0)
  77:u8glib_arm_v1.18.1\src/u8g_circle.c ****     return;
  78:u8glib_arm_v1.18.1\src/u8g_circle.c **** 
  79:u8glib_arm_v1.18.1\src/u8g_circle.c ****   int f = 1 - rad;
  80:u8glib_arm_v1.18.1\src/u8g_circle.c ****   int ddF_x = 1;
  81:u8glib_arm_v1.18.1\src/u8g_circle.c ****   int ddF_y = -2*rad;
  82:u8glib_arm_v1.18.1\src/u8g_circle.c ****   uint8_t x = 0;
  83:u8glib_arm_v1.18.1\src/u8g_circle.c ****   uint8_t y = rad;
  84:u8glib_arm_v1.18.1\src/u8g_circle.c **** 
  85:u8glib_arm_v1.18.1\src/u8g_circle.c ****   void ( *circ_util )(u8g_t *, u8g_uint_t, u8g_uint_t, u8g_uint_t, u8g_uint_t);
  86:u8glib_arm_v1.18.1\src/u8g_circle.c ****   
  87:u8glib_arm_v1.18.1\src/u8g_circle.c ****   switch (option)
  88:u8glib_arm_v1.18.1\src/u8g_circle.c ****   {
  89:u8glib_arm_v1.18.1\src/u8g_circle.c **** 	case U8G_CIRC_UPPER_RIGHT:
ARM GAS  C:\Users\KJA\AppData\Local\Temp\cc1GqkPK.s 			page 3


  90:u8glib_arm_v1.18.1\src/u8g_circle.c **** 		u8g_DrawPixel(u8g, x0, y0 - rad);
  91:u8glib_arm_v1.18.1\src/u8g_circle.c **** 		u8g_DrawPixel(u8g, x0 + rad, y0);
  92:u8glib_arm_v1.18.1\src/u8g_circle.c **** 		circ_util = circ_upperRight;
  93:u8glib_arm_v1.18.1\src/u8g_circle.c **** 		break;
  94:u8glib_arm_v1.18.1\src/u8g_circle.c **** 	case U8G_CIRC_UPPER_LEFT:
  95:u8glib_arm_v1.18.1\src/u8g_circle.c **** 		u8g_DrawPixel(u8g, x0, y0 - rad);
  96:u8glib_arm_v1.18.1\src/u8g_circle.c **** 		u8g_DrawPixel(u8g, x0 - rad, y0);
  97:u8glib_arm_v1.18.1\src/u8g_circle.c **** 		circ_util = circ_upperLeft;
  98:u8glib_arm_v1.18.1\src/u8g_circle.c **** 		break;
  99:u8glib_arm_v1.18.1\src/u8g_circle.c **** 	case U8G_CIRC_LOWER_RIGHT:
 100:u8glib_arm_v1.18.1\src/u8g_circle.c **** 		u8g_DrawPixel(u8g, x0, y0 + rad);
 101:u8glib_arm_v1.18.1\src/u8g_circle.c **** 		u8g_DrawPixel(u8g, x0 + rad, y0);
 102:u8glib_arm_v1.18.1\src/u8g_circle.c **** 		circ_util = circ_lowerRight;
 103:u8glib_arm_v1.18.1\src/u8g_circle.c **** 		break;
 104:u8glib_arm_v1.18.1\src/u8g_circle.c **** 	case U8G_CIRC_LOWER_LEFT:
 105:u8glib_arm_v1.18.1\src/u8g_circle.c **** 		u8g_DrawPixel(u8g, x0, y0 + rad);
 106:u8glib_arm_v1.18.1\src/u8g_circle.c **** 		u8g_DrawPixel(u8g, x0 - rad, y0);
 107:u8glib_arm_v1.18.1\src/u8g_circle.c **** 		circ_util = circ_lowerLeft;
 108:u8glib_arm_v1.18.1\src/u8g_circle.c **** 		break;
 109:u8glib_arm_v1.18.1\src/u8g_circle.c ****         default:
 110:u8glib_arm_v1.18.1\src/u8g_circle.c **** 	case U8G_CIRC_ALL:
 111:u8glib_arm_v1.18.1\src/u8g_circle.c **** 		u8g_DrawPixel(u8g, x0, y0 + rad);
 112:u8glib_arm_v1.18.1\src/u8g_circle.c **** 		u8g_DrawPixel(u8g, x0, y0 - rad);
 113:u8glib_arm_v1.18.1\src/u8g_circle.c **** 		u8g_DrawPixel(u8g, x0 + rad, y0);
 114:u8glib_arm_v1.18.1\src/u8g_circle.c **** 		u8g_DrawPixel(u8g, x0 - rad, y0);
 115:u8glib_arm_v1.18.1\src/u8g_circle.c **** 		circ_util = circ_all;
 116:u8glib_arm_v1.18.1\src/u8g_circle.c **** 		break;
 117:u8glib_arm_v1.18.1\src/u8g_circle.c ****   }
 118:u8glib_arm_v1.18.1\src/u8g_circle.c ****   
 119:u8glib_arm_v1.18.1\src/u8g_circle.c ****   while( x < y )
 120:u8glib_arm_v1.18.1\src/u8g_circle.c ****   {
 121:u8glib_arm_v1.18.1\src/u8g_circle.c ****     if(f >= 0) 
 122:u8glib_arm_v1.18.1\src/u8g_circle.c ****     {
 123:u8glib_arm_v1.18.1\src/u8g_circle.c ****       y--;
 124:u8glib_arm_v1.18.1\src/u8g_circle.c ****       ddF_y += 2;
 125:u8glib_arm_v1.18.1\src/u8g_circle.c ****       f += ddF_y;
 126:u8glib_arm_v1.18.1\src/u8g_circle.c ****     }
 127:u8glib_arm_v1.18.1\src/u8g_circle.c ****     x++;
 128:u8glib_arm_v1.18.1\src/u8g_circle.c ****     ddF_x += 2;
 129:u8glib_arm_v1.18.1\src/u8g_circle.c ****     f += ddF_x;
 130:u8glib_arm_v1.18.1\src/u8g_circle.c ****     
 131:u8glib_arm_v1.18.1\src/u8g_circle.c ****     circ_util(u8g, x, y, x0, y0);
 132:u8glib_arm_v1.18.1\src/u8g_circle.c ****   }
 133:u8glib_arm_v1.18.1\src/u8g_circle.c **** }
 134:u8glib_arm_v1.18.1\src/u8g_circle.c **** 
 135:u8glib_arm_v1.18.1\src/u8g_circle.c **** 
 136:u8glib_arm_v1.18.1\src/u8g_circle.c **** void u8g_DrawFillCirc(u8g_t *u8g, u8g_uint_t x0, u8g_uint_t y0, u8g_uint_t rad, uint8_t option)
 137:u8glib_arm_v1.18.1\src/u8g_circle.c **** {
 138:u8glib_arm_v1.18.1\src/u8g_circle.c ****   if ( u8g_IsBBXIntersection(u8g, x0-rad-1, y0-rad-1, 2*rad+1, 2*rad+1) == 0)
 139:u8glib_arm_v1.18.1\src/u8g_circle.c ****     return;
 140:u8glib_arm_v1.18.1\src/u8g_circle.c **** 
 141:u8glib_arm_v1.18.1\src/u8g_circle.c ****   int f = 1 - rad;
 142:u8glib_arm_v1.18.1\src/u8g_circle.c ****   int ddF_x = 1;
 143:u8glib_arm_v1.18.1\src/u8g_circle.c ****   int ddF_y = -2*rad;
 144:u8glib_arm_v1.18.1\src/u8g_circle.c ****   uint8_t x = 0;
 145:u8glib_arm_v1.18.1\src/u8g_circle.c ****   uint8_t y = rad;
 146:u8glib_arm_v1.18.1\src/u8g_circle.c ****   
ARM GAS  C:\Users\KJA\AppData\Local\Temp\cc1GqkPK.s 			page 4


 147:u8glib_arm_v1.18.1\src/u8g_circle.c ****   // Draw vertical diameter at the horiz. center
 148:u8glib_arm_v1.18.1\src/u8g_circle.c ****   // u8g_DrawVLine(u8g, x0, y0 - rad, 2*rad+1);
 149:u8glib_arm_v1.18.1\src/u8g_circle.c **** 
 150:u8glib_arm_v1.18.1\src/u8g_circle.c ****   if (option == U8G_CIRC_UPPER_LEFT || option == U8G_CIRC_UPPER_RIGHT) {
 151:u8glib_arm_v1.18.1\src/u8g_circle.c **** 	u8g_DrawVLine(u8g, x0, y0 - rad, rad+1);
 152:u8glib_arm_v1.18.1\src/u8g_circle.c ****   }
 153:u8glib_arm_v1.18.1\src/u8g_circle.c ****   else if (option == U8G_CIRC_LOWER_LEFT || option == U8G_CIRC_LOWER_RIGHT) {
 154:u8glib_arm_v1.18.1\src/u8g_circle.c **** 	u8g_DrawVLine(u8g, x0, y0, rad+1);
 155:u8glib_arm_v1.18.1\src/u8g_circle.c ****   }
 156:u8glib_arm_v1.18.1\src/u8g_circle.c ****   else {
 157:u8glib_arm_v1.18.1\src/u8g_circle.c **** 	u8g_DrawVLine(u8g, x0, y0 - rad, 2*rad+1);
 158:u8glib_arm_v1.18.1\src/u8g_circle.c ****   }
 159:u8glib_arm_v1.18.1\src/u8g_circle.c ****   
 160:u8glib_arm_v1.18.1\src/u8g_circle.c ****   while( x < y )
 161:u8glib_arm_v1.18.1\src/u8g_circle.c ****   {
 162:u8glib_arm_v1.18.1\src/u8g_circle.c ****     if(f >= 0) 
 163:u8glib_arm_v1.18.1\src/u8g_circle.c ****     {
 164:u8glib_arm_v1.18.1\src/u8g_circle.c ****       y--;
 165:u8glib_arm_v1.18.1\src/u8g_circle.c ****       ddF_y += 2;
 166:u8glib_arm_v1.18.1\src/u8g_circle.c ****       f += ddF_y;
 167:u8glib_arm_v1.18.1\src/u8g_circle.c ****     }
 168:u8glib_arm_v1.18.1\src/u8g_circle.c ****     x++;
 169:u8glib_arm_v1.18.1\src/u8g_circle.c ****     ddF_x += 2;
 170:u8glib_arm_v1.18.1\src/u8g_circle.c ****     f += ddF_x;
 171:u8glib_arm_v1.18.1\src/u8g_circle.c ****     
 172:u8glib_arm_v1.18.1\src/u8g_circle.c **** 	//Draw vertical lines from one point to another
 173:u8glib_arm_v1.18.1\src/u8g_circle.c **** 	
 174:u8glib_arm_v1.18.1\src/u8g_circle.c **** 	switch (option)
 175:u8glib_arm_v1.18.1\src/u8g_circle.c **** 	{
 176:u8glib_arm_v1.18.1\src/u8g_circle.c **** 		case U8G_CIRC_UPPER_RIGHT:
 177:u8glib_arm_v1.18.1\src/u8g_circle.c **** 			u8g_DrawVLine(u8g, x0+x, y0-y, y+1);
 178:u8glib_arm_v1.18.1\src/u8g_circle.c **** 			u8g_DrawVLine(u8g, x0+y, y0-x, x+1);
 179:u8glib_arm_v1.18.1\src/u8g_circle.c **** 			break;
 180:u8glib_arm_v1.18.1\src/u8g_circle.c **** 		case U8G_CIRC_UPPER_LEFT:
 181:u8glib_arm_v1.18.1\src/u8g_circle.c **** 			u8g_DrawVLine(u8g, x0-x, y0-y, y+1);
 182:u8glib_arm_v1.18.1\src/u8g_circle.c **** 			u8g_DrawVLine(u8g, x0-y, y0-x, x+1);
 183:u8glib_arm_v1.18.1\src/u8g_circle.c **** 			break;
 184:u8glib_arm_v1.18.1\src/u8g_circle.c **** 		case U8G_CIRC_LOWER_RIGHT:
 185:u8glib_arm_v1.18.1\src/u8g_circle.c **** 			u8g_DrawVLine(u8g, x0+x, y0, y+1);
 186:u8glib_arm_v1.18.1\src/u8g_circle.c **** 			u8g_DrawVLine(u8g, x0+y, y0, x+1);
 187:u8glib_arm_v1.18.1\src/u8g_circle.c **** 			break;
 188:u8glib_arm_v1.18.1\src/u8g_circle.c **** 		case U8G_CIRC_LOWER_LEFT:
 189:u8glib_arm_v1.18.1\src/u8g_circle.c **** 			u8g_DrawVLine(u8g, x0-x, y0, y+1);
 190:u8glib_arm_v1.18.1\src/u8g_circle.c **** 			u8g_DrawVLine(u8g, x0-y, y0, x+1);
 191:u8glib_arm_v1.18.1\src/u8g_circle.c **** 			break;
 192:u8glib_arm_v1.18.1\src/u8g_circle.c **** 		case U8G_CIRC_ALL:
 193:u8glib_arm_v1.18.1\src/u8g_circle.c **** 			u8g_DrawVLine(u8g, x0+x, y0-y, 2*y+1);
 194:u8glib_arm_v1.18.1\src/u8g_circle.c **** 			u8g_DrawVLine(u8g, x0-x, y0-y, 2*y+1);
 195:u8glib_arm_v1.18.1\src/u8g_circle.c **** 			u8g_DrawVLine(u8g, x0+y, y0-x, 2*x+1);
 196:u8glib_arm_v1.18.1\src/u8g_circle.c **** 			u8g_DrawVLine(u8g, x0-y, y0-x, 2*x+1);
 197:u8glib_arm_v1.18.1\src/u8g_circle.c **** 			break;
 198:u8glib_arm_v1.18.1\src/u8g_circle.c **** 	}
 199:u8glib_arm_v1.18.1\src/u8g_circle.c ****   }
 200:u8glib_arm_v1.18.1\src/u8g_circle.c **** }
 201:u8glib_arm_v1.18.1\src/u8g_circle.c **** 
 202:u8glib_arm_v1.18.1\src/u8g_circle.c **** #endif 
 203:u8glib_arm_v1.18.1\src/u8g_circle.c **** 
ARM GAS  C:\Users\KJA\AppData\Local\Temp\cc1GqkPK.s 			page 5


 204:u8glib_arm_v1.18.1\src/u8g_circle.c **** /*=========================================================================*/
 205:u8glib_arm_v1.18.1\src/u8g_circle.c **** 
 206:u8glib_arm_v1.18.1\src/u8g_circle.c **** static void u8g_draw_circle_section(u8g_t *u8g, u8g_uint_t x, u8g_uint_t y, u8g_uint_t x0, u8g_uint
 207:u8glib_arm_v1.18.1\src/u8g_circle.c **** 
 208:u8glib_arm_v1.18.1\src/u8g_circle.c **** static void u8g_draw_circle_section(u8g_t *u8g, u8g_uint_t x, u8g_uint_t y, u8g_uint_t x0, u8g_uint
 209:u8glib_arm_v1.18.1\src/u8g_circle.c **** {
  26              		.loc 1 209 0
  27              		.cfi_startproc
  28              		@ args = 8, pretend = 0, frame = 8
  29              		@ frame_needed = 1, uses_anonymous_args = 0
  30 0000 80B5     		push	{r7, lr}
  31              		.cfi_def_cfa_offset 8
  32              		.cfi_offset 7, -8
  33              		.cfi_offset 14, -4
  34 0002 82B0     		sub	sp, sp, #8
  35              		.cfi_def_cfa_offset 16
  36 0004 00AF     		add	r7, sp, #0
  37              		.cfi_def_cfa_register 7
  38 0006 7860     		str	r0, [r7, #4]
  39 0008 0846     		mov	r0, r1
  40 000a 1146     		mov	r1, r2
  41 000c 1A46     		mov	r2, r3
  42 000e 0346     		mov	r3, r0
  43 0010 FB70     		strb	r3, [r7, #3]
  44 0012 0B46     		mov	r3, r1
  45 0014 BB70     		strb	r3, [r7, #2]
  46 0016 1346     		mov	r3, r2
  47 0018 7B70     		strb	r3, [r7, #1]
 210:u8glib_arm_v1.18.1\src/u8g_circle.c ****     /* upper right */
 211:u8glib_arm_v1.18.1\src/u8g_circle.c ****     if ( option & U8G_DRAW_UPPER_RIGHT )
  48              		.loc 1 211 0
  49 001a 3B7D     		ldrb	r3, [r7, #20]	@ zero_extendqisi2
  50 001c 03F00103 		and	r3, r3, #1
  51 0020 002B     		cmp	r3, #0
  52 0022 17D0     		beq	.L2
 212:u8glib_arm_v1.18.1\src/u8g_circle.c ****     {
 213:u8glib_arm_v1.18.1\src/u8g_circle.c ****       u8g_DrawPixel(u8g, x0 + x, y0 - y);
  53              		.loc 1 213 0
  54 0024 7A78     		ldrb	r2, [r7, #1]
  55 0026 FB78     		ldrb	r3, [r7, #3]
  56 0028 1344     		add	r3, r3, r2
  57 002a D9B2     		uxtb	r1, r3
  58 002c 3A7C     		ldrb	r2, [r7, #16]
  59 002e BB78     		ldrb	r3, [r7, #2]
  60 0030 D31A     		subs	r3, r2, r3
  61 0032 DBB2     		uxtb	r3, r3
  62 0034 7868     		ldr	r0, [r7, #4]
  63 0036 1A46     		mov	r2, r3
  64 0038 FFF7FEFF 		bl	u8g_DrawPixel
 214:u8glib_arm_v1.18.1\src/u8g_circle.c ****       u8g_DrawPixel(u8g, x0 + y, y0 - x);
  65              		.loc 1 214 0
  66 003c 7A78     		ldrb	r2, [r7, #1]
  67 003e BB78     		ldrb	r3, [r7, #2]
  68 0040 1344     		add	r3, r3, r2
  69 0042 D9B2     		uxtb	r1, r3
  70 0044 3A7C     		ldrb	r2, [r7, #16]
  71 0046 FB78     		ldrb	r3, [r7, #3]
ARM GAS  C:\Users\KJA\AppData\Local\Temp\cc1GqkPK.s 			page 6


  72 0048 D31A     		subs	r3, r2, r3
  73 004a DBB2     		uxtb	r3, r3
  74 004c 7868     		ldr	r0, [r7, #4]
  75 004e 1A46     		mov	r2, r3
  76 0050 FFF7FEFF 		bl	u8g_DrawPixel
  77              	.L2:
 215:u8glib_arm_v1.18.1\src/u8g_circle.c ****     }
 216:u8glib_arm_v1.18.1\src/u8g_circle.c ****     
 217:u8glib_arm_v1.18.1\src/u8g_circle.c ****     /* upper left */
 218:u8glib_arm_v1.18.1\src/u8g_circle.c ****     if ( option & U8G_DRAW_UPPER_LEFT )
  78              		.loc 1 218 0
  79 0054 3B7D     		ldrb	r3, [r7, #20]	@ zero_extendqisi2
  80 0056 03F00203 		and	r3, r3, #2
  81 005a 002B     		cmp	r3, #0
  82 005c 17D0     		beq	.L3
 219:u8glib_arm_v1.18.1\src/u8g_circle.c ****     {
 220:u8glib_arm_v1.18.1\src/u8g_circle.c ****       u8g_DrawPixel(u8g, x0 - x, y0 - y);
  83              		.loc 1 220 0
  84 005e 7A78     		ldrb	r2, [r7, #1]
  85 0060 FB78     		ldrb	r3, [r7, #3]
  86 0062 D31A     		subs	r3, r2, r3
  87 0064 D9B2     		uxtb	r1, r3
  88 0066 3A7C     		ldrb	r2, [r7, #16]
  89 0068 BB78     		ldrb	r3, [r7, #2]
  90 006a D31A     		subs	r3, r2, r3
  91 006c DBB2     		uxtb	r3, r3
  92 006e 7868     		ldr	r0, [r7, #4]
  93 0070 1A46     		mov	r2, r3
  94 0072 FFF7FEFF 		bl	u8g_DrawPixel
 221:u8glib_arm_v1.18.1\src/u8g_circle.c ****       u8g_DrawPixel(u8g, x0 - y, y0 - x);
  95              		.loc 1 221 0
  96 0076 7A78     		ldrb	r2, [r7, #1]
  97 0078 BB78     		ldrb	r3, [r7, #2]
  98 007a D31A     		subs	r3, r2, r3
  99 007c D9B2     		uxtb	r1, r3
 100 007e 3A7C     		ldrb	r2, [r7, #16]
 101 0080 FB78     		ldrb	r3, [r7, #3]
 102 0082 D31A     		subs	r3, r2, r3
 103 0084 DBB2     		uxtb	r3, r3
 104 0086 7868     		ldr	r0, [r7, #4]
 105 0088 1A46     		mov	r2, r3
 106 008a FFF7FEFF 		bl	u8g_DrawPixel
 107              	.L3:
 222:u8glib_arm_v1.18.1\src/u8g_circle.c ****     }
 223:u8glib_arm_v1.18.1\src/u8g_circle.c ****     
 224:u8glib_arm_v1.18.1\src/u8g_circle.c ****     /* lower right */
 225:u8glib_arm_v1.18.1\src/u8g_circle.c ****     if ( option & U8G_DRAW_LOWER_RIGHT )
 108              		.loc 1 225 0
 109 008e 3B7D     		ldrb	r3, [r7, #20]	@ zero_extendqisi2
 110 0090 03F00803 		and	r3, r3, #8
 111 0094 002B     		cmp	r3, #0
 112 0096 17D0     		beq	.L4
 226:u8glib_arm_v1.18.1\src/u8g_circle.c ****     {
 227:u8glib_arm_v1.18.1\src/u8g_circle.c ****       u8g_DrawPixel(u8g, x0 + x, y0 + y);
 113              		.loc 1 227 0
 114 0098 7A78     		ldrb	r2, [r7, #1]
 115 009a FB78     		ldrb	r3, [r7, #3]
ARM GAS  C:\Users\KJA\AppData\Local\Temp\cc1GqkPK.s 			page 7


 116 009c 1344     		add	r3, r3, r2
 117 009e D9B2     		uxtb	r1, r3
 118 00a0 3A7C     		ldrb	r2, [r7, #16]
 119 00a2 BB78     		ldrb	r3, [r7, #2]
 120 00a4 1344     		add	r3, r3, r2
 121 00a6 DBB2     		uxtb	r3, r3
 122 00a8 7868     		ldr	r0, [r7, #4]
 123 00aa 1A46     		mov	r2, r3
 124 00ac FFF7FEFF 		bl	u8g_DrawPixel
 228:u8glib_arm_v1.18.1\src/u8g_circle.c ****       u8g_DrawPixel(u8g, x0 + y, y0 + x);
 125              		.loc 1 228 0
 126 00b0 7A78     		ldrb	r2, [r7, #1]
 127 00b2 BB78     		ldrb	r3, [r7, #2]
 128 00b4 1344     		add	r3, r3, r2
 129 00b6 D9B2     		uxtb	r1, r3
 130 00b8 3A7C     		ldrb	r2, [r7, #16]
 131 00ba FB78     		ldrb	r3, [r7, #3]
 132 00bc 1344     		add	r3, r3, r2
 133 00be DBB2     		uxtb	r3, r3
 134 00c0 7868     		ldr	r0, [r7, #4]
 135 00c2 1A46     		mov	r2, r3
 136 00c4 FFF7FEFF 		bl	u8g_DrawPixel
 137              	.L4:
 229:u8glib_arm_v1.18.1\src/u8g_circle.c ****     }
 230:u8glib_arm_v1.18.1\src/u8g_circle.c ****     
 231:u8glib_arm_v1.18.1\src/u8g_circle.c ****     /* lower left */
 232:u8glib_arm_v1.18.1\src/u8g_circle.c ****     if ( option & U8G_DRAW_LOWER_LEFT )
 138              		.loc 1 232 0
 139 00c8 3B7D     		ldrb	r3, [r7, #20]	@ zero_extendqisi2
 140 00ca 03F00403 		and	r3, r3, #4
 141 00ce 002B     		cmp	r3, #0
 142 00d0 17D0     		beq	.L1
 233:u8glib_arm_v1.18.1\src/u8g_circle.c ****     {
 234:u8glib_arm_v1.18.1\src/u8g_circle.c ****       u8g_DrawPixel(u8g, x0 - x, y0 + y);
 143              		.loc 1 234 0
 144 00d2 7A78     		ldrb	r2, [r7, #1]
 145 00d4 FB78     		ldrb	r3, [r7, #3]
 146 00d6 D31A     		subs	r3, r2, r3
 147 00d8 D9B2     		uxtb	r1, r3
 148 00da 3A7C     		ldrb	r2, [r7, #16]
 149 00dc BB78     		ldrb	r3, [r7, #2]
 150 00de 1344     		add	r3, r3, r2
 151 00e0 DBB2     		uxtb	r3, r3
 152 00e2 7868     		ldr	r0, [r7, #4]
 153 00e4 1A46     		mov	r2, r3
 154 00e6 FFF7FEFF 		bl	u8g_DrawPixel
 235:u8glib_arm_v1.18.1\src/u8g_circle.c ****       u8g_DrawPixel(u8g, x0 - y, y0 + x);
 155              		.loc 1 235 0
 156 00ea 7A78     		ldrb	r2, [r7, #1]
 157 00ec BB78     		ldrb	r3, [r7, #2]
 158 00ee D31A     		subs	r3, r2, r3
 159 00f0 D9B2     		uxtb	r1, r3
 160 00f2 3A7C     		ldrb	r2, [r7, #16]
 161 00f4 FB78     		ldrb	r3, [r7, #3]
 162 00f6 1344     		add	r3, r3, r2
 163 00f8 DBB2     		uxtb	r3, r3
 164 00fa 7868     		ldr	r0, [r7, #4]
ARM GAS  C:\Users\KJA\AppData\Local\Temp\cc1GqkPK.s 			page 8


 165 00fc 1A46     		mov	r2, r3
 166 00fe FFF7FEFF 		bl	u8g_DrawPixel
 167              	.L1:
 236:u8glib_arm_v1.18.1\src/u8g_circle.c ****     }
 237:u8glib_arm_v1.18.1\src/u8g_circle.c **** }
 168              		.loc 1 237 0
 169 0102 0837     		adds	r7, r7, #8
 170              		.cfi_def_cfa_offset 8
 171 0104 BD46     		mov	sp, r7
 172              		.cfi_def_cfa_register 13
 173              		@ sp needed
 174 0106 80BD     		pop	{r7, pc}
 175              		.cfi_endproc
 176              	.LFE0:
 177              		.size	u8g_draw_circle_section, .-u8g_draw_circle_section
 178              		.section	.text.u8g_draw_circle,"ax",%progbits
 179              		.align	2
 180              		.global	u8g_draw_circle
 181              		.thumb
 182              		.thumb_func
 183              		.type	u8g_draw_circle, %function
 184              	u8g_draw_circle:
 185              	.LFB1:
 238:u8glib_arm_v1.18.1\src/u8g_circle.c **** 
 239:u8glib_arm_v1.18.1\src/u8g_circle.c **** void u8g_draw_circle(u8g_t *u8g, u8g_uint_t x0, u8g_uint_t y0, u8g_uint_t rad, uint8_t option)
 240:u8glib_arm_v1.18.1\src/u8g_circle.c **** {
 186              		.loc 1 240 0
 187              		.cfi_startproc
 188              		@ args = 4, pretend = 0, frame = 16
 189              		@ frame_needed = 1, uses_anonymous_args = 0
 190 0000 90B5     		push	{r4, r7, lr}
 191              		.cfi_def_cfa_offset 12
 192              		.cfi_offset 4, -12
 193              		.cfi_offset 7, -8
 194              		.cfi_offset 14, -4
 195 0002 87B0     		sub	sp, sp, #28
 196              		.cfi_def_cfa_offset 40
 197 0004 02AF     		add	r7, sp, #8
 198              		.cfi_def_cfa 7, 32
 199 0006 7860     		str	r0, [r7, #4]
 200 0008 0846     		mov	r0, r1
 201 000a 1146     		mov	r1, r2
 202 000c 1A46     		mov	r2, r3
 203 000e 0346     		mov	r3, r0
 204 0010 FB70     		strb	r3, [r7, #3]
 205 0012 0B46     		mov	r3, r1
 206 0014 BB70     		strb	r3, [r7, #2]
 207 0016 1346     		mov	r3, r2
 208 0018 7B70     		strb	r3, [r7, #1]
 241:u8glib_arm_v1.18.1\src/u8g_circle.c ****     u8g_int_t f;
 242:u8glib_arm_v1.18.1\src/u8g_circle.c ****     u8g_int_t ddF_x;
 243:u8glib_arm_v1.18.1\src/u8g_circle.c ****     u8g_int_t ddF_y;
 244:u8glib_arm_v1.18.1\src/u8g_circle.c ****     u8g_uint_t x;
 245:u8glib_arm_v1.18.1\src/u8g_circle.c ****     u8g_uint_t y;
 246:u8glib_arm_v1.18.1\src/u8g_circle.c **** 
 247:u8glib_arm_v1.18.1\src/u8g_circle.c ****     f = 1;
 209              		.loc 1 247 0
ARM GAS  C:\Users\KJA\AppData\Local\Temp\cc1GqkPK.s 			page 9


 210 001a 0123     		movs	r3, #1
 211 001c FB73     		strb	r3, [r7, #15]
 248:u8glib_arm_v1.18.1\src/u8g_circle.c ****     f -= rad;
 212              		.loc 1 248 0
 213 001e FA7B     		ldrb	r2, [r7, #15]	@ zero_extendqisi2
 214 0020 7B78     		ldrb	r3, [r7, #1]
 215 0022 D31A     		subs	r3, r2, r3
 216 0024 DBB2     		uxtb	r3, r3
 217 0026 FB73     		strb	r3, [r7, #15]
 249:u8glib_arm_v1.18.1\src/u8g_circle.c ****     ddF_x = 1;
 218              		.loc 1 249 0
 219 0028 0123     		movs	r3, #1
 220 002a BB73     		strb	r3, [r7, #14]
 250:u8glib_arm_v1.18.1\src/u8g_circle.c ****     ddF_y = 0;
 221              		.loc 1 250 0
 222 002c 0023     		movs	r3, #0
 223 002e 7B73     		strb	r3, [r7, #13]
 251:u8glib_arm_v1.18.1\src/u8g_circle.c ****     ddF_y -= rad;
 224              		.loc 1 251 0
 225 0030 7A7B     		ldrb	r2, [r7, #13]	@ zero_extendqisi2
 226 0032 7B78     		ldrb	r3, [r7, #1]
 227 0034 D31A     		subs	r3, r2, r3
 228 0036 DBB2     		uxtb	r3, r3
 229 0038 7B73     		strb	r3, [r7, #13]
 252:u8glib_arm_v1.18.1\src/u8g_circle.c ****     ddF_y *= 2;
 230              		.loc 1 252 0
 231 003a 7B7B     		ldrb	r3, [r7, #13]	@ zero_extendqisi2
 232 003c 5B00     		lsls	r3, r3, #1
 233 003e DBB2     		uxtb	r3, r3
 234 0040 7B73     		strb	r3, [r7, #13]
 253:u8glib_arm_v1.18.1\src/u8g_circle.c ****     x = 0;
 235              		.loc 1 253 0
 236 0042 0023     		movs	r3, #0
 237 0044 3B73     		strb	r3, [r7, #12]
 254:u8glib_arm_v1.18.1\src/u8g_circle.c ****     y = rad;
 238              		.loc 1 254 0
 239 0046 7B78     		ldrb	r3, [r7, #1]
 240 0048 FB72     		strb	r3, [r7, #11]
 255:u8glib_arm_v1.18.1\src/u8g_circle.c **** 
 256:u8glib_arm_v1.18.1\src/u8g_circle.c ****     u8g_draw_circle_section(u8g, x, y, x0, y0, option);
 241              		.loc 1 256 0
 242 004a 397B     		ldrb	r1, [r7, #12]	@ zero_extendqisi2
 243 004c FA7A     		ldrb	r2, [r7, #11]	@ zero_extendqisi2
 244 004e FC78     		ldrb	r4, [r7, #3]	@ zero_extendqisi2
 245 0050 BB78     		ldrb	r3, [r7, #2]	@ zero_extendqisi2
 246 0052 0093     		str	r3, [sp]
 247 0054 97F82030 		ldrb	r3, [r7, #32]	@ zero_extendqisi2
 248 0058 0193     		str	r3, [sp, #4]
 249 005a 7868     		ldr	r0, [r7, #4]
 250 005c 2346     		mov	r3, r4
 251 005e FFF7FEFF 		bl	u8g_draw_circle_section
 257:u8glib_arm_v1.18.1\src/u8g_circle.c ****     
 258:u8glib_arm_v1.18.1\src/u8g_circle.c ****     while ( x < y )
 252              		.loc 1 258 0
 253 0062 27E0     		b	.L7
 254              	.L9:
 259:u8glib_arm_v1.18.1\src/u8g_circle.c ****     {
ARM GAS  C:\Users\KJA\AppData\Local\Temp\cc1GqkPK.s 			page 10


 260:u8glib_arm_v1.18.1\src/u8g_circle.c ****       if (f >= 0) 
 255              		.loc 1 260 0
 256 0064 97F90F30 		ldrsb	r3, [r7, #15]
 257 0068 002B     		cmp	r3, #0
 258 006a 0BDB     		blt	.L8
 261:u8glib_arm_v1.18.1\src/u8g_circle.c ****       {
 262:u8glib_arm_v1.18.1\src/u8g_circle.c ****         y--;
 259              		.loc 1 262 0
 260 006c FB7A     		ldrb	r3, [r7, #11]	@ zero_extendqisi2
 261 006e 013B     		subs	r3, r3, #1
 262 0070 FB72     		strb	r3, [r7, #11]
 263:u8glib_arm_v1.18.1\src/u8g_circle.c ****         ddF_y += 2;
 263              		.loc 1 263 0
 264 0072 7B7B     		ldrb	r3, [r7, #13]	@ zero_extendqisi2
 265 0074 0233     		adds	r3, r3, #2
 266 0076 DBB2     		uxtb	r3, r3
 267 0078 7B73     		strb	r3, [r7, #13]
 264:u8glib_arm_v1.18.1\src/u8g_circle.c ****         f += ddF_y;
 268              		.loc 1 264 0
 269 007a FA7B     		ldrb	r2, [r7, #15]	@ zero_extendqisi2
 270 007c 7B7B     		ldrb	r3, [r7, #13]	@ zero_extendqisi2
 271 007e 1344     		add	r3, r3, r2
 272 0080 DBB2     		uxtb	r3, r3
 273 0082 FB73     		strb	r3, [r7, #15]
 274              	.L8:
 265:u8glib_arm_v1.18.1\src/u8g_circle.c ****       }
 266:u8glib_arm_v1.18.1\src/u8g_circle.c ****       x++;
 275              		.loc 1 266 0
 276 0084 3B7B     		ldrb	r3, [r7, #12]	@ zero_extendqisi2
 277 0086 0133     		adds	r3, r3, #1
 278 0088 3B73     		strb	r3, [r7, #12]
 267:u8glib_arm_v1.18.1\src/u8g_circle.c ****       ddF_x += 2;
 279              		.loc 1 267 0
 280 008a BB7B     		ldrb	r3, [r7, #14]	@ zero_extendqisi2
 281 008c 0233     		adds	r3, r3, #2
 282 008e DBB2     		uxtb	r3, r3
 283 0090 BB73     		strb	r3, [r7, #14]
 268:u8glib_arm_v1.18.1\src/u8g_circle.c ****       f += ddF_x;
 284              		.loc 1 268 0
 285 0092 FA7B     		ldrb	r2, [r7, #15]	@ zero_extendqisi2
 286 0094 BB7B     		ldrb	r3, [r7, #14]	@ zero_extendqisi2
 287 0096 1344     		add	r3, r3, r2
 288 0098 DBB2     		uxtb	r3, r3
 289 009a FB73     		strb	r3, [r7, #15]
 269:u8glib_arm_v1.18.1\src/u8g_circle.c **** 
 270:u8glib_arm_v1.18.1\src/u8g_circle.c ****       u8g_draw_circle_section(u8g, x, y, x0, y0, option);    
 290              		.loc 1 270 0
 291 009c 397B     		ldrb	r1, [r7, #12]	@ zero_extendqisi2
 292 009e FA7A     		ldrb	r2, [r7, #11]	@ zero_extendqisi2
 293 00a0 FC78     		ldrb	r4, [r7, #3]	@ zero_extendqisi2
 294 00a2 BB78     		ldrb	r3, [r7, #2]	@ zero_extendqisi2
 295 00a4 0093     		str	r3, [sp]
 296 00a6 97F82030 		ldrb	r3, [r7, #32]	@ zero_extendqisi2
 297 00aa 0193     		str	r3, [sp, #4]
 298 00ac 7868     		ldr	r0, [r7, #4]
 299 00ae 2346     		mov	r3, r4
 300 00b0 FFF7FEFF 		bl	u8g_draw_circle_section
ARM GAS  C:\Users\KJA\AppData\Local\Temp\cc1GqkPK.s 			page 11


 301              	.L7:
 258:u8glib_arm_v1.18.1\src/u8g_circle.c ****     {
 302              		.loc 1 258 0
 303 00b4 3A7B     		ldrb	r2, [r7, #12]	@ zero_extendqisi2
 304 00b6 FB7A     		ldrb	r3, [r7, #11]	@ zero_extendqisi2
 305 00b8 9A42     		cmp	r2, r3
 306 00ba D3D3     		bcc	.L9
 271:u8glib_arm_v1.18.1\src/u8g_circle.c ****     }
 272:u8glib_arm_v1.18.1\src/u8g_circle.c **** }
 307              		.loc 1 272 0
 308 00bc 1437     		adds	r7, r7, #20
 309              		.cfi_def_cfa_offset 12
 310 00be BD46     		mov	sp, r7
 311              		.cfi_def_cfa_register 13
 312              		@ sp needed
 313 00c0 90BD     		pop	{r4, r7, pc}
 314              		.cfi_endproc
 315              	.LFE1:
 316              		.size	u8g_draw_circle, .-u8g_draw_circle
 317 00c2 00BF     		.section	.text.u8g_DrawCircle,"ax",%progbits
 318              		.align	2
 319              		.global	u8g_DrawCircle
 320              		.thumb
 321              		.thumb_func
 322              		.type	u8g_DrawCircle, %function
 323              	u8g_DrawCircle:
 324              	.LFB2:
 273:u8glib_arm_v1.18.1\src/u8g_circle.c **** 
 274:u8glib_arm_v1.18.1\src/u8g_circle.c **** void u8g_DrawCircle(u8g_t *u8g, u8g_uint_t x0, u8g_uint_t y0, u8g_uint_t rad, uint8_t option)
 275:u8glib_arm_v1.18.1\src/u8g_circle.c **** {
 325              		.loc 1 275 0
 326              		.cfi_startproc
 327              		@ args = 4, pretend = 0, frame = 16
 328              		@ frame_needed = 1, uses_anonymous_args = 0
 329 0000 90B5     		push	{r4, r7, lr}
 330              		.cfi_def_cfa_offset 12
 331              		.cfi_offset 4, -12
 332              		.cfi_offset 7, -8
 333              		.cfi_offset 14, -4
 334 0002 87B0     		sub	sp, sp, #28
 335              		.cfi_def_cfa_offset 40
 336 0004 02AF     		add	r7, sp, #8
 337              		.cfi_def_cfa 7, 32
 338 0006 7860     		str	r0, [r7, #4]
 339 0008 0846     		mov	r0, r1
 340 000a 1146     		mov	r1, r2
 341 000c 1A46     		mov	r2, r3
 342 000e 0346     		mov	r3, r0
 343 0010 FB70     		strb	r3, [r7, #3]
 344 0012 0B46     		mov	r3, r1
 345 0014 BB70     		strb	r3, [r7, #2]
 346 0016 1346     		mov	r3, r2
 347 0018 7B70     		strb	r3, [r7, #1]
 348              	.LBB2:
 276:u8glib_arm_v1.18.1\src/u8g_circle.c ****   /* check for bounding box */
 277:u8glib_arm_v1.18.1\src/u8g_circle.c ****   {
 278:u8glib_arm_v1.18.1\src/u8g_circle.c ****     u8g_uint_t radp, radp2;
ARM GAS  C:\Users\KJA\AppData\Local\Temp\cc1GqkPK.s 			page 12


 279:u8glib_arm_v1.18.1\src/u8g_circle.c ****     
 280:u8glib_arm_v1.18.1\src/u8g_circle.c ****     radp = rad;
 349              		.loc 1 280 0
 350 001a 7B78     		ldrb	r3, [r7, #1]
 351 001c FB73     		strb	r3, [r7, #15]
 281:u8glib_arm_v1.18.1\src/u8g_circle.c ****     radp++;
 352              		.loc 1 281 0
 353 001e FB7B     		ldrb	r3, [r7, #15]	@ zero_extendqisi2
 354 0020 0133     		adds	r3, r3, #1
 355 0022 FB73     		strb	r3, [r7, #15]
 282:u8glib_arm_v1.18.1\src/u8g_circle.c ****     radp2 = radp;
 356              		.loc 1 282 0
 357 0024 FB7B     		ldrb	r3, [r7, #15]
 358 0026 BB73     		strb	r3, [r7, #14]
 283:u8glib_arm_v1.18.1\src/u8g_circle.c ****     radp2 *= 2;
 359              		.loc 1 283 0
 360 0028 BB7B     		ldrb	r3, [r7, #14]
 361 002a 5B00     		lsls	r3, r3, #1
 362 002c BB73     		strb	r3, [r7, #14]
 284:u8glib_arm_v1.18.1\src/u8g_circle.c ****     
 285:u8glib_arm_v1.18.1\src/u8g_circle.c ****     if ( u8g_IsBBXIntersection(u8g, x0-radp, y0-radp, radp2, radp2) == 0)
 363              		.loc 1 285 0
 364 002e FA78     		ldrb	r2, [r7, #3]
 365 0030 FB7B     		ldrb	r3, [r7, #15]
 366 0032 D31A     		subs	r3, r2, r3
 367 0034 D9B2     		uxtb	r1, r3
 368 0036 BA78     		ldrb	r2, [r7, #2]
 369 0038 FB7B     		ldrb	r3, [r7, #15]
 370 003a D31A     		subs	r3, r2, r3
 371 003c DAB2     		uxtb	r2, r3
 372 003e BC7B     		ldrb	r4, [r7, #14]	@ zero_extendqisi2
 373 0040 BB7B     		ldrb	r3, [r7, #14]	@ zero_extendqisi2
 374 0042 0093     		str	r3, [sp]
 375 0044 7868     		ldr	r0, [r7, #4]
 376 0046 2346     		mov	r3, r4
 377 0048 FFF7FEFF 		bl	u8g_IsBBXIntersection
 378 004c 0346     		mov	r3, r0
 379 004e 002B     		cmp	r3, #0
 380 0050 00D1     		bne	.L11
 286:u8glib_arm_v1.18.1\src/u8g_circle.c ****       return;    
 381              		.loc 1 286 0
 382 0052 09E0     		b	.L10
 383              	.L11:
 384              	.LBE2:
 287:u8glib_arm_v1.18.1\src/u8g_circle.c ****   }
 288:u8glib_arm_v1.18.1\src/u8g_circle.c ****   
 289:u8glib_arm_v1.18.1\src/u8g_circle.c ****   /* draw circle */
 290:u8glib_arm_v1.18.1\src/u8g_circle.c ****   u8g_draw_circle(u8g, x0, y0, rad, option);
 385              		.loc 1 290 0
 386 0054 F978     		ldrb	r1, [r7, #3]	@ zero_extendqisi2
 387 0056 BA78     		ldrb	r2, [r7, #2]	@ zero_extendqisi2
 388 0058 7C78     		ldrb	r4, [r7, #1]	@ zero_extendqisi2
 389 005a 97F82030 		ldrb	r3, [r7, #32]	@ zero_extendqisi2
 390 005e 0093     		str	r3, [sp]
 391 0060 7868     		ldr	r0, [r7, #4]
 392 0062 2346     		mov	r3, r4
 393 0064 FFF7FEFF 		bl	u8g_draw_circle
ARM GAS  C:\Users\KJA\AppData\Local\Temp\cc1GqkPK.s 			page 13


 394              	.L10:
 291:u8glib_arm_v1.18.1\src/u8g_circle.c **** }
 395              		.loc 1 291 0
 396 0068 1437     		adds	r7, r7, #20
 397              		.cfi_def_cfa_offset 12
 398 006a BD46     		mov	sp, r7
 399              		.cfi_def_cfa_register 13
 400              		@ sp needed
 401 006c 90BD     		pop	{r4, r7, pc}
 402              		.cfi_endproc
 403              	.LFE2:
 404              		.size	u8g_DrawCircle, .-u8g_DrawCircle
 405 006e 00BF     		.section	.text.u8g_draw_disc_section,"ax",%progbits
 406              		.align	2
 407              		.thumb
 408              		.thumb_func
 409              		.type	u8g_draw_disc_section, %function
 410              	u8g_draw_disc_section:
 411              	.LFB3:
 292:u8glib_arm_v1.18.1\src/u8g_circle.c **** 
 293:u8glib_arm_v1.18.1\src/u8g_circle.c **** static void u8g_draw_disc_section(u8g_t *u8g, u8g_uint_t x, u8g_uint_t y, u8g_uint_t x0, u8g_uint_t
 294:u8glib_arm_v1.18.1\src/u8g_circle.c **** 
 295:u8glib_arm_v1.18.1\src/u8g_circle.c **** static void u8g_draw_disc_section(u8g_t *u8g, u8g_uint_t x, u8g_uint_t y, u8g_uint_t x0, u8g_uint_t
 296:u8glib_arm_v1.18.1\src/u8g_circle.c **** {
 412              		.loc 1 296 0
 413              		.cfi_startproc
 414              		@ args = 8, pretend = 0, frame = 8
 415              		@ frame_needed = 1, uses_anonymous_args = 0
 416 0000 80B5     		push	{r7, lr}
 417              		.cfi_def_cfa_offset 8
 418              		.cfi_offset 7, -8
 419              		.cfi_offset 14, -4
 420 0002 82B0     		sub	sp, sp, #8
 421              		.cfi_def_cfa_offset 16
 422 0004 00AF     		add	r7, sp, #0
 423              		.cfi_def_cfa_register 7
 424 0006 7860     		str	r0, [r7, #4]
 425 0008 0846     		mov	r0, r1
 426 000a 1146     		mov	r1, r2
 427 000c 1A46     		mov	r2, r3
 428 000e 0346     		mov	r3, r0
 429 0010 FB70     		strb	r3, [r7, #3]
 430 0012 0B46     		mov	r3, r1
 431 0014 BB70     		strb	r3, [r7, #2]
 432 0016 1346     		mov	r3, r2
 433 0018 7B70     		strb	r3, [r7, #1]
 297:u8glib_arm_v1.18.1\src/u8g_circle.c ****     /* upper right */
 298:u8glib_arm_v1.18.1\src/u8g_circle.c ****     if ( option & U8G_DRAW_UPPER_RIGHT )
 434              		.loc 1 298 0
 435 001a 3B7D     		ldrb	r3, [r7, #20]	@ zero_extendqisi2
 436 001c 03F00103 		and	r3, r3, #1
 437 0020 002B     		cmp	r3, #0
 438 0022 1BD0     		beq	.L14
 299:u8glib_arm_v1.18.1\src/u8g_circle.c ****     {
 300:u8glib_arm_v1.18.1\src/u8g_circle.c ****       u8g_DrawVLine(u8g, x0+x, y0-y, y+1);
 439              		.loc 1 300 0
 440 0024 7A78     		ldrb	r2, [r7, #1]
ARM GAS  C:\Users\KJA\AppData\Local\Temp\cc1GqkPK.s 			page 14


 441 0026 FB78     		ldrb	r3, [r7, #3]
 442 0028 1344     		add	r3, r3, r2
 443 002a D9B2     		uxtb	r1, r3
 444 002c 3A7C     		ldrb	r2, [r7, #16]
 445 002e BB78     		ldrb	r3, [r7, #2]
 446 0030 D31A     		subs	r3, r2, r3
 447 0032 DAB2     		uxtb	r2, r3
 448 0034 BB78     		ldrb	r3, [r7, #2]
 449 0036 0133     		adds	r3, r3, #1
 450 0038 DBB2     		uxtb	r3, r3
 451 003a 7868     		ldr	r0, [r7, #4]
 452 003c FFF7FEFF 		bl	u8g_DrawVLine
 301:u8glib_arm_v1.18.1\src/u8g_circle.c ****       u8g_DrawVLine(u8g, x0+y, y0-x, x+1);
 453              		.loc 1 301 0
 454 0040 7A78     		ldrb	r2, [r7, #1]
 455 0042 BB78     		ldrb	r3, [r7, #2]
 456 0044 1344     		add	r3, r3, r2
 457 0046 D9B2     		uxtb	r1, r3
 458 0048 3A7C     		ldrb	r2, [r7, #16]
 459 004a FB78     		ldrb	r3, [r7, #3]
 460 004c D31A     		subs	r3, r2, r3
 461 004e DAB2     		uxtb	r2, r3
 462 0050 FB78     		ldrb	r3, [r7, #3]
 463 0052 0133     		adds	r3, r3, #1
 464 0054 DBB2     		uxtb	r3, r3
 465 0056 7868     		ldr	r0, [r7, #4]
 466 0058 FFF7FEFF 		bl	u8g_DrawVLine
 467              	.L14:
 302:u8glib_arm_v1.18.1\src/u8g_circle.c ****     }
 303:u8glib_arm_v1.18.1\src/u8g_circle.c ****     
 304:u8glib_arm_v1.18.1\src/u8g_circle.c ****     /* upper left */
 305:u8glib_arm_v1.18.1\src/u8g_circle.c ****     if ( option & U8G_DRAW_UPPER_LEFT )
 468              		.loc 1 305 0
 469 005c 3B7D     		ldrb	r3, [r7, #20]	@ zero_extendqisi2
 470 005e 03F00203 		and	r3, r3, #2
 471 0062 002B     		cmp	r3, #0
 472 0064 1BD0     		beq	.L15
 306:u8glib_arm_v1.18.1\src/u8g_circle.c ****     {
 307:u8glib_arm_v1.18.1\src/u8g_circle.c ****       u8g_DrawVLine(u8g, x0-x, y0-y, y+1);
 473              		.loc 1 307 0
 474 0066 7A78     		ldrb	r2, [r7, #1]
 475 0068 FB78     		ldrb	r3, [r7, #3]
 476 006a D31A     		subs	r3, r2, r3
 477 006c D9B2     		uxtb	r1, r3
 478 006e 3A7C     		ldrb	r2, [r7, #16]
 479 0070 BB78     		ldrb	r3, [r7, #2]
 480 0072 D31A     		subs	r3, r2, r3
 481 0074 DAB2     		uxtb	r2, r3
 482 0076 BB78     		ldrb	r3, [r7, #2]
 483 0078 0133     		adds	r3, r3, #1
 484 007a DBB2     		uxtb	r3, r3
 485 007c 7868     		ldr	r0, [r7, #4]
 486 007e FFF7FEFF 		bl	u8g_DrawVLine
 308:u8glib_arm_v1.18.1\src/u8g_circle.c ****       u8g_DrawVLine(u8g, x0-y, y0-x, x+1);
 487              		.loc 1 308 0
 488 0082 7A78     		ldrb	r2, [r7, #1]
 489 0084 BB78     		ldrb	r3, [r7, #2]
ARM GAS  C:\Users\KJA\AppData\Local\Temp\cc1GqkPK.s 			page 15


 490 0086 D31A     		subs	r3, r2, r3
 491 0088 D9B2     		uxtb	r1, r3
 492 008a 3A7C     		ldrb	r2, [r7, #16]
 493 008c FB78     		ldrb	r3, [r7, #3]
 494 008e D31A     		subs	r3, r2, r3
 495 0090 DAB2     		uxtb	r2, r3
 496 0092 FB78     		ldrb	r3, [r7, #3]
 497 0094 0133     		adds	r3, r3, #1
 498 0096 DBB2     		uxtb	r3, r3
 499 0098 7868     		ldr	r0, [r7, #4]
 500 009a FFF7FEFF 		bl	u8g_DrawVLine
 501              	.L15:
 309:u8glib_arm_v1.18.1\src/u8g_circle.c ****     }
 310:u8glib_arm_v1.18.1\src/u8g_circle.c ****     
 311:u8glib_arm_v1.18.1\src/u8g_circle.c ****     /* lower right */
 312:u8glib_arm_v1.18.1\src/u8g_circle.c ****     if ( option & U8G_DRAW_LOWER_RIGHT )
 502              		.loc 1 312 0
 503 009e 3B7D     		ldrb	r3, [r7, #20]	@ zero_extendqisi2
 504 00a0 03F00803 		and	r3, r3, #8
 505 00a4 002B     		cmp	r3, #0
 506 00a6 15D0     		beq	.L16
 313:u8glib_arm_v1.18.1\src/u8g_circle.c ****     {
 314:u8glib_arm_v1.18.1\src/u8g_circle.c ****       u8g_DrawVLine(u8g, x0+x, y0, y+1);
 507              		.loc 1 314 0
 508 00a8 7A78     		ldrb	r2, [r7, #1]
 509 00aa FB78     		ldrb	r3, [r7, #3]
 510 00ac 1344     		add	r3, r3, r2
 511 00ae D9B2     		uxtb	r1, r3
 512 00b0 BB78     		ldrb	r3, [r7, #2]
 513 00b2 0133     		adds	r3, r3, #1
 514 00b4 DBB2     		uxtb	r3, r3
 515 00b6 3A7C     		ldrb	r2, [r7, #16]	@ zero_extendqisi2
 516 00b8 7868     		ldr	r0, [r7, #4]
 517 00ba FFF7FEFF 		bl	u8g_DrawVLine
 315:u8glib_arm_v1.18.1\src/u8g_circle.c ****       u8g_DrawVLine(u8g, x0+y, y0, x+1);
 518              		.loc 1 315 0
 519 00be 7A78     		ldrb	r2, [r7, #1]
 520 00c0 BB78     		ldrb	r3, [r7, #2]
 521 00c2 1344     		add	r3, r3, r2
 522 00c4 D9B2     		uxtb	r1, r3
 523 00c6 FB78     		ldrb	r3, [r7, #3]
 524 00c8 0133     		adds	r3, r3, #1
 525 00ca DBB2     		uxtb	r3, r3
 526 00cc 3A7C     		ldrb	r2, [r7, #16]	@ zero_extendqisi2
 527 00ce 7868     		ldr	r0, [r7, #4]
 528 00d0 FFF7FEFF 		bl	u8g_DrawVLine
 529              	.L16:
 316:u8glib_arm_v1.18.1\src/u8g_circle.c ****     }
 317:u8glib_arm_v1.18.1\src/u8g_circle.c ****     
 318:u8glib_arm_v1.18.1\src/u8g_circle.c ****     /* lower left */
 319:u8glib_arm_v1.18.1\src/u8g_circle.c ****     if ( option & U8G_DRAW_LOWER_LEFT )
 530              		.loc 1 319 0
 531 00d4 3B7D     		ldrb	r3, [r7, #20]	@ zero_extendqisi2
 532 00d6 03F00403 		and	r3, r3, #4
 533 00da 002B     		cmp	r3, #0
 534 00dc 15D0     		beq	.L13
 320:u8glib_arm_v1.18.1\src/u8g_circle.c ****     {
ARM GAS  C:\Users\KJA\AppData\Local\Temp\cc1GqkPK.s 			page 16


 321:u8glib_arm_v1.18.1\src/u8g_circle.c ****       u8g_DrawVLine(u8g, x0-x, y0, y+1);
 535              		.loc 1 321 0
 536 00de 7A78     		ldrb	r2, [r7, #1]
 537 00e0 FB78     		ldrb	r3, [r7, #3]
 538 00e2 D31A     		subs	r3, r2, r3
 539 00e4 D9B2     		uxtb	r1, r3
 540 00e6 BB78     		ldrb	r3, [r7, #2]
 541 00e8 0133     		adds	r3, r3, #1
 542 00ea DBB2     		uxtb	r3, r3
 543 00ec 3A7C     		ldrb	r2, [r7, #16]	@ zero_extendqisi2
 544 00ee 7868     		ldr	r0, [r7, #4]
 545 00f0 FFF7FEFF 		bl	u8g_DrawVLine
 322:u8glib_arm_v1.18.1\src/u8g_circle.c ****       u8g_DrawVLine(u8g, x0-y, y0, x+1);
 546              		.loc 1 322 0
 547 00f4 7A78     		ldrb	r2, [r7, #1]
 548 00f6 BB78     		ldrb	r3, [r7, #2]
 549 00f8 D31A     		subs	r3, r2, r3
 550 00fa D9B2     		uxtb	r1, r3
 551 00fc FB78     		ldrb	r3, [r7, #3]
 552 00fe 0133     		adds	r3, r3, #1
 553 0100 DBB2     		uxtb	r3, r3
 554 0102 3A7C     		ldrb	r2, [r7, #16]	@ zero_extendqisi2
 555 0104 7868     		ldr	r0, [r7, #4]
 556 0106 FFF7FEFF 		bl	u8g_DrawVLine
 557              	.L13:
 323:u8glib_arm_v1.18.1\src/u8g_circle.c ****     }
 324:u8glib_arm_v1.18.1\src/u8g_circle.c **** }
 558              		.loc 1 324 0
 559 010a 0837     		adds	r7, r7, #8
 560              		.cfi_def_cfa_offset 8
 561 010c BD46     		mov	sp, r7
 562              		.cfi_def_cfa_register 13
 563              		@ sp needed
 564 010e 80BD     		pop	{r7, pc}
 565              		.cfi_endproc
 566              	.LFE3:
 567              		.size	u8g_draw_disc_section, .-u8g_draw_disc_section
 568              		.section	.text.u8g_draw_disc,"ax",%progbits
 569              		.align	2
 570              		.global	u8g_draw_disc
 571              		.thumb
 572              		.thumb_func
 573              		.type	u8g_draw_disc, %function
 574              	u8g_draw_disc:
 575              	.LFB4:
 325:u8glib_arm_v1.18.1\src/u8g_circle.c **** 
 326:u8glib_arm_v1.18.1\src/u8g_circle.c **** void u8g_draw_disc(u8g_t *u8g, u8g_uint_t x0, u8g_uint_t y0, u8g_uint_t rad, uint8_t option)
 327:u8glib_arm_v1.18.1\src/u8g_circle.c **** {
 576              		.loc 1 327 0
 577              		.cfi_startproc
 578              		@ args = 4, pretend = 0, frame = 16
 579              		@ frame_needed = 1, uses_anonymous_args = 0
 580 0000 90B5     		push	{r4, r7, lr}
 581              		.cfi_def_cfa_offset 12
 582              		.cfi_offset 4, -12
 583              		.cfi_offset 7, -8
 584              		.cfi_offset 14, -4
ARM GAS  C:\Users\KJA\AppData\Local\Temp\cc1GqkPK.s 			page 17


 585 0002 87B0     		sub	sp, sp, #28
 586              		.cfi_def_cfa_offset 40
 587 0004 02AF     		add	r7, sp, #8
 588              		.cfi_def_cfa 7, 32
 589 0006 7860     		str	r0, [r7, #4]
 590 0008 0846     		mov	r0, r1
 591 000a 1146     		mov	r1, r2
 592 000c 1A46     		mov	r2, r3
 593 000e 0346     		mov	r3, r0
 594 0010 FB70     		strb	r3, [r7, #3]
 595 0012 0B46     		mov	r3, r1
 596 0014 BB70     		strb	r3, [r7, #2]
 597 0016 1346     		mov	r3, r2
 598 0018 7B70     		strb	r3, [r7, #1]
 328:u8glib_arm_v1.18.1\src/u8g_circle.c ****   u8g_int_t f;
 329:u8glib_arm_v1.18.1\src/u8g_circle.c ****   u8g_int_t ddF_x;
 330:u8glib_arm_v1.18.1\src/u8g_circle.c ****   u8g_int_t ddF_y;
 331:u8glib_arm_v1.18.1\src/u8g_circle.c ****   u8g_uint_t x;
 332:u8glib_arm_v1.18.1\src/u8g_circle.c ****   u8g_uint_t y;
 333:u8glib_arm_v1.18.1\src/u8g_circle.c **** 
 334:u8glib_arm_v1.18.1\src/u8g_circle.c ****   f = 1;
 599              		.loc 1 334 0
 600 001a 0123     		movs	r3, #1
 601 001c FB73     		strb	r3, [r7, #15]
 335:u8glib_arm_v1.18.1\src/u8g_circle.c ****   f -= rad;
 602              		.loc 1 335 0
 603 001e FA7B     		ldrb	r2, [r7, #15]	@ zero_extendqisi2
 604 0020 7B78     		ldrb	r3, [r7, #1]
 605 0022 D31A     		subs	r3, r2, r3
 606 0024 DBB2     		uxtb	r3, r3
 607 0026 FB73     		strb	r3, [r7, #15]
 336:u8glib_arm_v1.18.1\src/u8g_circle.c ****   ddF_x = 1;
 608              		.loc 1 336 0
 609 0028 0123     		movs	r3, #1
 610 002a BB73     		strb	r3, [r7, #14]
 337:u8glib_arm_v1.18.1\src/u8g_circle.c ****   ddF_y = 0;
 611              		.loc 1 337 0
 612 002c 0023     		movs	r3, #0
 613 002e 7B73     		strb	r3, [r7, #13]
 338:u8glib_arm_v1.18.1\src/u8g_circle.c ****   ddF_y -= rad;
 614              		.loc 1 338 0
 615 0030 7A7B     		ldrb	r2, [r7, #13]	@ zero_extendqisi2
 616 0032 7B78     		ldrb	r3, [r7, #1]
 617 0034 D31A     		subs	r3, r2, r3
 618 0036 DBB2     		uxtb	r3, r3
 619 0038 7B73     		strb	r3, [r7, #13]
 339:u8glib_arm_v1.18.1\src/u8g_circle.c ****   ddF_y *= 2;
 620              		.loc 1 339 0
 621 003a 7B7B     		ldrb	r3, [r7, #13]	@ zero_extendqisi2
 622 003c 5B00     		lsls	r3, r3, #1
 623 003e DBB2     		uxtb	r3, r3
 624 0040 7B73     		strb	r3, [r7, #13]
 340:u8glib_arm_v1.18.1\src/u8g_circle.c ****   x = 0;
 625              		.loc 1 340 0
 626 0042 0023     		movs	r3, #0
 627 0044 3B73     		strb	r3, [r7, #12]
 341:u8glib_arm_v1.18.1\src/u8g_circle.c ****   y = rad;
ARM GAS  C:\Users\KJA\AppData\Local\Temp\cc1GqkPK.s 			page 18


 628              		.loc 1 341 0
 629 0046 7B78     		ldrb	r3, [r7, #1]
 630 0048 FB72     		strb	r3, [r7, #11]
 342:u8glib_arm_v1.18.1\src/u8g_circle.c **** 
 343:u8glib_arm_v1.18.1\src/u8g_circle.c ****   u8g_draw_disc_section(u8g, x, y, x0, y0, option);
 631              		.loc 1 343 0
 632 004a 397B     		ldrb	r1, [r7, #12]	@ zero_extendqisi2
 633 004c FA7A     		ldrb	r2, [r7, #11]	@ zero_extendqisi2
 634 004e FC78     		ldrb	r4, [r7, #3]	@ zero_extendqisi2
 635 0050 BB78     		ldrb	r3, [r7, #2]	@ zero_extendqisi2
 636 0052 0093     		str	r3, [sp]
 637 0054 97F82030 		ldrb	r3, [r7, #32]	@ zero_extendqisi2
 638 0058 0193     		str	r3, [sp, #4]
 639 005a 7868     		ldr	r0, [r7, #4]
 640 005c 2346     		mov	r3, r4
 641 005e FFF7FEFF 		bl	u8g_draw_disc_section
 344:u8glib_arm_v1.18.1\src/u8g_circle.c ****   
 345:u8glib_arm_v1.18.1\src/u8g_circle.c ****   while ( x < y )
 642              		.loc 1 345 0
 643 0062 27E0     		b	.L19
 644              	.L21:
 346:u8glib_arm_v1.18.1\src/u8g_circle.c ****   {
 347:u8glib_arm_v1.18.1\src/u8g_circle.c ****     if (f >= 0) 
 645              		.loc 1 347 0
 646 0064 97F90F30 		ldrsb	r3, [r7, #15]
 647 0068 002B     		cmp	r3, #0
 648 006a 0BDB     		blt	.L20
 348:u8glib_arm_v1.18.1\src/u8g_circle.c ****     {
 349:u8glib_arm_v1.18.1\src/u8g_circle.c ****       y--;
 649              		.loc 1 349 0
 650 006c FB7A     		ldrb	r3, [r7, #11]	@ zero_extendqisi2
 651 006e 013B     		subs	r3, r3, #1
 652 0070 FB72     		strb	r3, [r7, #11]
 350:u8glib_arm_v1.18.1\src/u8g_circle.c ****       ddF_y += 2;
 653              		.loc 1 350 0
 654 0072 7B7B     		ldrb	r3, [r7, #13]	@ zero_extendqisi2
 655 0074 0233     		adds	r3, r3, #2
 656 0076 DBB2     		uxtb	r3, r3
 657 0078 7B73     		strb	r3, [r7, #13]
 351:u8glib_arm_v1.18.1\src/u8g_circle.c ****       f += ddF_y;
 658              		.loc 1 351 0
 659 007a FA7B     		ldrb	r2, [r7, #15]	@ zero_extendqisi2
 660 007c 7B7B     		ldrb	r3, [r7, #13]	@ zero_extendqisi2
 661 007e 1344     		add	r3, r3, r2
 662 0080 DBB2     		uxtb	r3, r3
 663 0082 FB73     		strb	r3, [r7, #15]
 664              	.L20:
 352:u8glib_arm_v1.18.1\src/u8g_circle.c ****     }
 353:u8glib_arm_v1.18.1\src/u8g_circle.c ****     x++;
 665              		.loc 1 353 0
 666 0084 3B7B     		ldrb	r3, [r7, #12]	@ zero_extendqisi2
 667 0086 0133     		adds	r3, r3, #1
 668 0088 3B73     		strb	r3, [r7, #12]
 354:u8glib_arm_v1.18.1\src/u8g_circle.c ****     ddF_x += 2;
 669              		.loc 1 354 0
 670 008a BB7B     		ldrb	r3, [r7, #14]	@ zero_extendqisi2
 671 008c 0233     		adds	r3, r3, #2
ARM GAS  C:\Users\KJA\AppData\Local\Temp\cc1GqkPK.s 			page 19


 672 008e DBB2     		uxtb	r3, r3
 673 0090 BB73     		strb	r3, [r7, #14]
 355:u8glib_arm_v1.18.1\src/u8g_circle.c ****     f += ddF_x;
 674              		.loc 1 355 0
 675 0092 FA7B     		ldrb	r2, [r7, #15]	@ zero_extendqisi2
 676 0094 BB7B     		ldrb	r3, [r7, #14]	@ zero_extendqisi2
 677 0096 1344     		add	r3, r3, r2
 678 0098 DBB2     		uxtb	r3, r3
 679 009a FB73     		strb	r3, [r7, #15]
 356:u8glib_arm_v1.18.1\src/u8g_circle.c **** 
 357:u8glib_arm_v1.18.1\src/u8g_circle.c ****     u8g_draw_disc_section(u8g, x, y, x0, y0, option);    
 680              		.loc 1 357 0
 681 009c 397B     		ldrb	r1, [r7, #12]	@ zero_extendqisi2
 682 009e FA7A     		ldrb	r2, [r7, #11]	@ zero_extendqisi2
 683 00a0 FC78     		ldrb	r4, [r7, #3]	@ zero_extendqisi2
 684 00a2 BB78     		ldrb	r3, [r7, #2]	@ zero_extendqisi2
 685 00a4 0093     		str	r3, [sp]
 686 00a6 97F82030 		ldrb	r3, [r7, #32]	@ zero_extendqisi2
 687 00aa 0193     		str	r3, [sp, #4]
 688 00ac 7868     		ldr	r0, [r7, #4]
 689 00ae 2346     		mov	r3, r4
 690 00b0 FFF7FEFF 		bl	u8g_draw_disc_section
 691              	.L19:
 345:u8glib_arm_v1.18.1\src/u8g_circle.c ****   {
 692              		.loc 1 345 0
 693 00b4 3A7B     		ldrb	r2, [r7, #12]	@ zero_extendqisi2
 694 00b6 FB7A     		ldrb	r3, [r7, #11]	@ zero_extendqisi2
 695 00b8 9A42     		cmp	r2, r3
 696 00ba D3D3     		bcc	.L21
 358:u8glib_arm_v1.18.1\src/u8g_circle.c ****   }
 359:u8glib_arm_v1.18.1\src/u8g_circle.c **** }
 697              		.loc 1 359 0
 698 00bc 1437     		adds	r7, r7, #20
 699              		.cfi_def_cfa_offset 12
 700 00be BD46     		mov	sp, r7
 701              		.cfi_def_cfa_register 13
 702              		@ sp needed
 703 00c0 90BD     		pop	{r4, r7, pc}
 704              		.cfi_endproc
 705              	.LFE4:
 706              		.size	u8g_draw_disc, .-u8g_draw_disc
 707 00c2 00BF     		.section	.text.u8g_DrawDisc,"ax",%progbits
 708              		.align	2
 709              		.global	u8g_DrawDisc
 710              		.thumb
 711              		.thumb_func
 712              		.type	u8g_DrawDisc, %function
 713              	u8g_DrawDisc:
 714              	.LFB5:
 360:u8glib_arm_v1.18.1\src/u8g_circle.c **** 
 361:u8glib_arm_v1.18.1\src/u8g_circle.c **** void u8g_DrawDisc(u8g_t *u8g, u8g_uint_t x0, u8g_uint_t y0, u8g_uint_t rad, uint8_t option)
 362:u8glib_arm_v1.18.1\src/u8g_circle.c **** {
 715              		.loc 1 362 0
 716              		.cfi_startproc
 717              		@ args = 4, pretend = 0, frame = 16
 718              		@ frame_needed = 1, uses_anonymous_args = 0
 719 0000 90B5     		push	{r4, r7, lr}
ARM GAS  C:\Users\KJA\AppData\Local\Temp\cc1GqkPK.s 			page 20


 720              		.cfi_def_cfa_offset 12
 721              		.cfi_offset 4, -12
 722              		.cfi_offset 7, -8
 723              		.cfi_offset 14, -4
 724 0002 87B0     		sub	sp, sp, #28
 725              		.cfi_def_cfa_offset 40
 726 0004 02AF     		add	r7, sp, #8
 727              		.cfi_def_cfa 7, 32
 728 0006 7860     		str	r0, [r7, #4]
 729 0008 0846     		mov	r0, r1
 730 000a 1146     		mov	r1, r2
 731 000c 1A46     		mov	r2, r3
 732 000e 0346     		mov	r3, r0
 733 0010 FB70     		strb	r3, [r7, #3]
 734 0012 0B46     		mov	r3, r1
 735 0014 BB70     		strb	r3, [r7, #2]
 736 0016 1346     		mov	r3, r2
 737 0018 7B70     		strb	r3, [r7, #1]
 738              	.LBB3:
 363:u8glib_arm_v1.18.1\src/u8g_circle.c ****   /* check for bounding box */
 364:u8glib_arm_v1.18.1\src/u8g_circle.c ****   {
 365:u8glib_arm_v1.18.1\src/u8g_circle.c ****     u8g_uint_t radp, radp2;
 366:u8glib_arm_v1.18.1\src/u8g_circle.c ****     
 367:u8glib_arm_v1.18.1\src/u8g_circle.c ****     radp = rad;
 739              		.loc 1 367 0
 740 001a 7B78     		ldrb	r3, [r7, #1]
 741 001c FB73     		strb	r3, [r7, #15]
 368:u8glib_arm_v1.18.1\src/u8g_circle.c ****     radp++;
 742              		.loc 1 368 0
 743 001e FB7B     		ldrb	r3, [r7, #15]	@ zero_extendqisi2
 744 0020 0133     		adds	r3, r3, #1
 745 0022 FB73     		strb	r3, [r7, #15]
 369:u8glib_arm_v1.18.1\src/u8g_circle.c ****     radp2 = radp;
 746              		.loc 1 369 0
 747 0024 FB7B     		ldrb	r3, [r7, #15]
 748 0026 BB73     		strb	r3, [r7, #14]
 370:u8glib_arm_v1.18.1\src/u8g_circle.c ****     radp2 *= 2;
 749              		.loc 1 370 0
 750 0028 BB7B     		ldrb	r3, [r7, #14]
 751 002a 5B00     		lsls	r3, r3, #1
 752 002c BB73     		strb	r3, [r7, #14]
 371:u8glib_arm_v1.18.1\src/u8g_circle.c ****     
 372:u8glib_arm_v1.18.1\src/u8g_circle.c ****     if ( u8g_IsBBXIntersection(u8g, x0-radp, y0-radp, radp2, radp2) == 0)
 753              		.loc 1 372 0
 754 002e FA78     		ldrb	r2, [r7, #3]
 755 0030 FB7B     		ldrb	r3, [r7, #15]
 756 0032 D31A     		subs	r3, r2, r3
 757 0034 D9B2     		uxtb	r1, r3
 758 0036 BA78     		ldrb	r2, [r7, #2]
 759 0038 FB7B     		ldrb	r3, [r7, #15]
 760 003a D31A     		subs	r3, r2, r3
 761 003c DAB2     		uxtb	r2, r3
 762 003e BC7B     		ldrb	r4, [r7, #14]	@ zero_extendqisi2
 763 0040 BB7B     		ldrb	r3, [r7, #14]	@ zero_extendqisi2
 764 0042 0093     		str	r3, [sp]
 765 0044 7868     		ldr	r0, [r7, #4]
 766 0046 2346     		mov	r3, r4
ARM GAS  C:\Users\KJA\AppData\Local\Temp\cc1GqkPK.s 			page 21


 767 0048 FFF7FEFF 		bl	u8g_IsBBXIntersection
 768 004c 0346     		mov	r3, r0
 769 004e 002B     		cmp	r3, #0
 770 0050 00D1     		bne	.L23
 373:u8glib_arm_v1.18.1\src/u8g_circle.c ****       return;    
 771              		.loc 1 373 0
 772 0052 09E0     		b	.L22
 773              	.L23:
 774              	.LBE3:
 374:u8glib_arm_v1.18.1\src/u8g_circle.c ****   }
 375:u8glib_arm_v1.18.1\src/u8g_circle.c ****   
 376:u8glib_arm_v1.18.1\src/u8g_circle.c ****   /* draw disc */
 377:u8glib_arm_v1.18.1\src/u8g_circle.c ****   u8g_draw_disc(u8g, x0, y0, rad, option);
 775              		.loc 1 377 0
 776 0054 F978     		ldrb	r1, [r7, #3]	@ zero_extendqisi2
 777 0056 BA78     		ldrb	r2, [r7, #2]	@ zero_extendqisi2
 778 0058 7C78     		ldrb	r4, [r7, #1]	@ zero_extendqisi2
 779 005a 97F82030 		ldrb	r3, [r7, #32]	@ zero_extendqisi2
 780 005e 0093     		str	r3, [sp]
 781 0060 7868     		ldr	r0, [r7, #4]
 782 0062 2346     		mov	r3, r4
 783 0064 FFF7FEFF 		bl	u8g_draw_disc
 784              	.L22:
 378:u8glib_arm_v1.18.1\src/u8g_circle.c **** }
 785              		.loc 1 378 0
 786 0068 1437     		adds	r7, r7, #20
 787              		.cfi_def_cfa_offset 12
 788 006a BD46     		mov	sp, r7
 789              		.cfi_def_cfa_register 13
 790              		@ sp needed
 791 006c 90BD     		pop	{r4, r7, pc}
 792              		.cfi_endproc
 793              	.LFE5:
 794              		.size	u8g_DrawDisc, .-u8g_DrawDisc
 795 006e 00BF     		.text
 796              	.Letext0:
 797              		.file 2 "c:\\program files (x86)\\cypress\\psoc creator\\4.0\\psoc creator\\import\\gnu\\arm\\4.9.
 798              		.file 3 "c:\\program files (x86)\\cypress\\psoc creator\\4.0\\psoc creator\\import\\gnu\\arm\\4.9.
 799              		.file 4 "u8glib_arm_v1.18.1\\src\\u8g.h"