ARM GAS  C:\Users\Shiguruy\AppData\Local\Temp\cc5ve5Dp.s 			page 1


   1              		.syntax unified
   2              		.cpu cortex-m3
   3              		.fpu softvfp
   4              		.eabi_attribute 20, 1
   5              		.eabi_attribute 21, 1
   6              		.eabi_attribute 23, 3
   7              		.eabi_attribute 24, 1
   8              		.eabi_attribute 25, 1
   9              		.eabi_attribute 26, 1
  10              		.eabi_attribute 30, 6
  11              		.eabi_attribute 34, 1
  12              		.eabi_attribute 18, 4
  13              		.thumb
  14              		.file	"u8g_dev_sbn1661_122x32.c"
  15              		.text
  16              	.Ltext0:
  17              		.cfi_sections	.debug_frame
  18              		.section	.rodata
  19              		.align	2
  20              		.type	u8g_dev_sbn1661_122x32_init_seq, %object
  21              		.size	u8g_dev_sbn1661_122x32_init_seq, 22
  22              	u8g_dev_sbn1661_122x32_init_seq:
  23 0000 FF       		.byte	-1
  24 0001 D0       		.byte	-48
  25 0002 FF       		.byte	-1
  26 0003 E0       		.byte	-32
  27 0004 FF       		.byte	-1
  28 0005 CF       		.byte	-49
  29 0006 FF       		.byte	-1
  30 0007 D1       		.byte	-47
  31 0008 AF       		.byte	-81
  32 0009 C0       		.byte	-64
  33 000a A0       		.byte	-96
  34 000b A9       		.byte	-87
  35 000c FF       		.byte	-1
  36 000d D2       		.byte	-46
  37 000e AF       		.byte	-81
  38 000f C0       		.byte	-64
  39 0010 A0       		.byte	-96
  40 0011 A9       		.byte	-87
  41 0012 FF       		.byte	-1
  42 0013 D0       		.byte	-48
  43 0014 FF       		.byte	-1
  44 0015 FE       		.byte	-2
  45 0016 0000     		.section	.text.u8g_dev_sbn1661_122x32_fn,"ax",%progbits
  46              		.align	2
  47              		.global	u8g_dev_sbn1661_122x32_fn
  48              		.thumb
  49              		.thumb_func
  50              		.type	u8g_dev_sbn1661_122x32_fn, %function
  51              	u8g_dev_sbn1661_122x32_fn:
  52              	.LFB0:
  53              		.file 1 ".\\u8glib_arm_v1.18.1\\src\\u8g_dev_sbn1661_122x32.c"
   1:.\u8glib_arm_v1.18.1\src/u8g_dev_sbn1661_122x32.c **** /*
   2:.\u8glib_arm_v1.18.1\src/u8g_dev_sbn1661_122x32.c **** 
   3:.\u8glib_arm_v1.18.1\src/u8g_dev_sbn1661_122x32.c ****   u8g_dev_sbn1661_122x32.c
   4:.\u8glib_arm_v1.18.1\src/u8g_dev_sbn1661_122x32.c ****   
ARM GAS  C:\Users\Shiguruy\AppData\Local\Temp\cc5ve5Dp.s 			page 2


   5:.\u8glib_arm_v1.18.1\src/u8g_dev_sbn1661_122x32.c ****   WG12232 display with 2xSBN1661 / SED1520 controller (122x32 display)
   6:.\u8glib_arm_v1.18.1\src/u8g_dev_sbn1661_122x32.c ****   At the moment only available in the Arduino Environment
   7:.\u8glib_arm_v1.18.1\src/u8g_dev_sbn1661_122x32.c **** 
   8:.\u8glib_arm_v1.18.1\src/u8g_dev_sbn1661_122x32.c ****   Universal 8bit Graphics Library
   9:.\u8glib_arm_v1.18.1\src/u8g_dev_sbn1661_122x32.c ****   
  10:.\u8glib_arm_v1.18.1\src/u8g_dev_sbn1661_122x32.c ****   Copyright (c) 2011, olikraus@gmail.com
  11:.\u8glib_arm_v1.18.1\src/u8g_dev_sbn1661_122x32.c ****   All rights reserved.
  12:.\u8glib_arm_v1.18.1\src/u8g_dev_sbn1661_122x32.c **** 
  13:.\u8glib_arm_v1.18.1\src/u8g_dev_sbn1661_122x32.c ****   Redistribution and use in source and binary forms, with or without modification, 
  14:.\u8glib_arm_v1.18.1\src/u8g_dev_sbn1661_122x32.c ****   are permitted provided that the following conditions are met:
  15:.\u8glib_arm_v1.18.1\src/u8g_dev_sbn1661_122x32.c **** 
  16:.\u8glib_arm_v1.18.1\src/u8g_dev_sbn1661_122x32.c ****   * Redistributions of source code must retain the above copyright notice, this list 
  17:.\u8glib_arm_v1.18.1\src/u8g_dev_sbn1661_122x32.c ****     of conditions and the following disclaimer.
  18:.\u8glib_arm_v1.18.1\src/u8g_dev_sbn1661_122x32.c ****     
  19:.\u8glib_arm_v1.18.1\src/u8g_dev_sbn1661_122x32.c ****   * Redistributions in binary form must reproduce the above copyright notice, this 
  20:.\u8glib_arm_v1.18.1\src/u8g_dev_sbn1661_122x32.c ****     list of conditions and the following disclaimer in the documentation and/or other 
  21:.\u8glib_arm_v1.18.1\src/u8g_dev_sbn1661_122x32.c ****     materials provided with the distribution.
  22:.\u8glib_arm_v1.18.1\src/u8g_dev_sbn1661_122x32.c **** 
  23:.\u8glib_arm_v1.18.1\src/u8g_dev_sbn1661_122x32.c ****   THIS SOFTWARE IS PROVIDED BY THE COPYRIGHT HOLDERS AND 
  24:.\u8glib_arm_v1.18.1\src/u8g_dev_sbn1661_122x32.c ****   CONTRIBUTORS "AS IS" AND ANY EXPRESS OR IMPLIED WARRANTIES, 
  25:.\u8glib_arm_v1.18.1\src/u8g_dev_sbn1661_122x32.c ****   INCLUDING, BUT NOT LIMITED TO, THE IMPLIED WARRANTIES OF 
  26:.\u8glib_arm_v1.18.1\src/u8g_dev_sbn1661_122x32.c ****   MERCHANTABILITY AND FITNESS FOR A PARTICULAR PURPOSE ARE 
  27:.\u8glib_arm_v1.18.1\src/u8g_dev_sbn1661_122x32.c ****   DISCLAIMED. IN NO EVENT SHALL THE COPYRIGHT HOLDER OR 
  28:.\u8glib_arm_v1.18.1\src/u8g_dev_sbn1661_122x32.c ****   CONTRIBUTORS BE LIABLE FOR ANY DIRECT, INDIRECT, INCIDENTAL, 
  29:.\u8glib_arm_v1.18.1\src/u8g_dev_sbn1661_122x32.c ****   SPECIAL, EXEMPLARY, OR CONSEQUENTIAL DAMAGES (INCLUDING, BUT 
  30:.\u8glib_arm_v1.18.1\src/u8g_dev_sbn1661_122x32.c ****   NOT LIMITED TO, PROCUREMENT OF SUBSTITUTE GOODS OR SERVICES; 
  31:.\u8glib_arm_v1.18.1\src/u8g_dev_sbn1661_122x32.c ****   LOSS OF USE, DATA, OR PROFITS; OR BUSINESS INTERRUPTION) HOWEVER 
  32:.\u8glib_arm_v1.18.1\src/u8g_dev_sbn1661_122x32.c ****   CAUSED AND ON ANY THEORY OF LIABILITY, WHETHER IN CONTRACT, 
  33:.\u8glib_arm_v1.18.1\src/u8g_dev_sbn1661_122x32.c ****   STRICT LIABILITY, OR TORT (INCLUDING NEGLIGENCE OR OTHERWISE) 
  34:.\u8glib_arm_v1.18.1\src/u8g_dev_sbn1661_122x32.c ****   ARISING IN ANY WAY OUT OF THE USE OF THIS SOFTWARE, EVEN IF 
  35:.\u8glib_arm_v1.18.1\src/u8g_dev_sbn1661_122x32.c ****   ADVISED OF THE POSSIBILITY OF SUCH DAMAGE.  
  36:.\u8glib_arm_v1.18.1\src/u8g_dev_sbn1661_122x32.c ****   
  37:.\u8glib_arm_v1.18.1\src/u8g_dev_sbn1661_122x32.c ****   
  38:.\u8glib_arm_v1.18.1\src/u8g_dev_sbn1661_122x32.c **** */
  39:.\u8glib_arm_v1.18.1\src/u8g_dev_sbn1661_122x32.c **** 
  40:.\u8glib_arm_v1.18.1\src/u8g_dev_sbn1661_122x32.c **** #include "u8g.h"
  41:.\u8glib_arm_v1.18.1\src/u8g_dev_sbn1661_122x32.c **** 
  42:.\u8glib_arm_v1.18.1\src/u8g_dev_sbn1661_122x32.c **** #define WIDTH 122
  43:.\u8glib_arm_v1.18.1\src/u8g_dev_sbn1661_122x32.c **** #define HEIGHT 32
  44:.\u8glib_arm_v1.18.1\src/u8g_dev_sbn1661_122x32.c **** #define PAGE_HEIGHT 8
  45:.\u8glib_arm_v1.18.1\src/u8g_dev_sbn1661_122x32.c **** 
  46:.\u8glib_arm_v1.18.1\src/u8g_dev_sbn1661_122x32.c **** 
  47:.\u8glib_arm_v1.18.1\src/u8g_dev_sbn1661_122x32.c **** static const uint8_t u8g_dev_sbn1661_122x32_init_seq[] PROGMEM = {
  48:.\u8glib_arm_v1.18.1\src/u8g_dev_sbn1661_122x32.c ****   U8G_ESC_CS(0),             /* disable chip */
  49:.\u8glib_arm_v1.18.1\src/u8g_dev_sbn1661_122x32.c ****   U8G_ESC_ADR(0),           /* instruction mode */
  50:.\u8glib_arm_v1.18.1\src/u8g_dev_sbn1661_122x32.c ****   U8G_ESC_RST(15),           /* do reset low pulse with (15*16)+2 milliseconds */
  51:.\u8glib_arm_v1.18.1\src/u8g_dev_sbn1661_122x32.c ****   U8G_ESC_CS(1),             /* enable chip 1 */
  52:.\u8glib_arm_v1.18.1\src/u8g_dev_sbn1661_122x32.c ****   0x0af,				/* display on */
  53:.\u8glib_arm_v1.18.1\src/u8g_dev_sbn1661_122x32.c ****   0x0c0,				/* display start at line 0 */
  54:.\u8glib_arm_v1.18.1\src/u8g_dev_sbn1661_122x32.c ****   0x0a0,				/* a0: ADC forward, a1: ADC reverse */
  55:.\u8glib_arm_v1.18.1\src/u8g_dev_sbn1661_122x32.c ****   0x0a9,				/* a8: 1/16, a9: 1/32 duty */
  56:.\u8glib_arm_v1.18.1\src/u8g_dev_sbn1661_122x32.c ****   U8G_ESC_CS(2),             /* enable chip 2 */
  57:.\u8glib_arm_v1.18.1\src/u8g_dev_sbn1661_122x32.c ****   0x0af,				/* display on */
  58:.\u8glib_arm_v1.18.1\src/u8g_dev_sbn1661_122x32.c ****   0x0c0,				/* display start at line 0 */
  59:.\u8glib_arm_v1.18.1\src/u8g_dev_sbn1661_122x32.c ****   0x0a0,				/* a0: ADC forward, a1: ADC reverse */
  60:.\u8glib_arm_v1.18.1\src/u8g_dev_sbn1661_122x32.c ****   0x0a9,				/* a8: 1/16, a9: 1/32 duty */
  61:.\u8glib_arm_v1.18.1\src/u8g_dev_sbn1661_122x32.c ****   
ARM GAS  C:\Users\Shiguruy\AppData\Local\Temp\cc5ve5Dp.s 			page 3


  62:.\u8glib_arm_v1.18.1\src/u8g_dev_sbn1661_122x32.c ****   U8G_ESC_CS(0),             /* disable chip */
  63:.\u8glib_arm_v1.18.1\src/u8g_dev_sbn1661_122x32.c ****   
  64:.\u8glib_arm_v1.18.1\src/u8g_dev_sbn1661_122x32.c ****   
  65:.\u8glib_arm_v1.18.1\src/u8g_dev_sbn1661_122x32.c ****   U8G_ESC_END                /* end of sequence */
  66:.\u8glib_arm_v1.18.1\src/u8g_dev_sbn1661_122x32.c **** };
  67:.\u8glib_arm_v1.18.1\src/u8g_dev_sbn1661_122x32.c **** 
  68:.\u8glib_arm_v1.18.1\src/u8g_dev_sbn1661_122x32.c **** uint8_t u8g_dev_sbn1661_122x32_fn(u8g_t *u8g, u8g_dev_t *dev, uint8_t msg, void *arg)
  69:.\u8glib_arm_v1.18.1\src/u8g_dev_sbn1661_122x32.c **** {
  54              		.loc 1 69 0
  55              		.cfi_startproc
  56              		@ args = 0, pretend = 0, frame = 24
  57              		@ frame_needed = 1, uses_anonymous_args = 0
  58 0000 80B5     		push	{r7, lr}
  59              		.cfi_def_cfa_offset 8
  60              		.cfi_offset 7, -8
  61              		.cfi_offset 14, -4
  62 0002 86B0     		sub	sp, sp, #24
  63              		.cfi_def_cfa_offset 32
  64 0004 00AF     		add	r7, sp, #0
  65              		.cfi_def_cfa_register 7
  66 0006 F860     		str	r0, [r7, #12]
  67 0008 B960     		str	r1, [r7, #8]
  68 000a 3B60     		str	r3, [r7]
  69 000c 1346     		mov	r3, r2
  70 000e FB71     		strb	r3, [r7, #7]
  70:.\u8glib_arm_v1.18.1\src/u8g_dev_sbn1661_122x32.c ****   switch(msg)
  71              		.loc 1 70 0
  72 0010 FB79     		ldrb	r3, [r7, #7]	@ zero_extendqisi2
  73 0012 0A3B     		subs	r3, r3, #10
  74 0014 0B2B     		cmp	r3, #11
  75 0016 7AD8     		bhi	.L2
  76 0018 01A2     		adr	r2, .L4
  77 001a 52F823F0 		ldr	pc, [r2, r3, lsl #2]
  78 001e 00BF     		.p2align 2
  79              	.L4:
  80 0020 51000000 		.word	.L3+1
  81 0024 0F010000 		.word	.L2+1
  82 0028 0F010000 		.word	.L2+1
  83 002c 0F010000 		.word	.L2+1
  84 0030 0F010000 		.word	.L2+1
  85 0034 0F010000 		.word	.L2+1
  86 0038 0F010000 		.word	.L2+1
  87 003c 0F010000 		.word	.L2+1
  88 0040 0F010000 		.word	.L2+1
  89 0044 0F010000 		.word	.L2+1
  90 0048 0F010000 		.word	.L2+1
  91 004c 67000000 		.word	.L7+1
  92              		.p2align 1
  93              	.L3:
  71:.\u8glib_arm_v1.18.1\src/u8g_dev_sbn1661_122x32.c ****   {
  72:.\u8glib_arm_v1.18.1\src/u8g_dev_sbn1661_122x32.c ****     case U8G_DEV_MSG_INIT:
  73:.\u8glib_arm_v1.18.1\src/u8g_dev_sbn1661_122x32.c ****       u8g_InitCom(u8g, dev, U8G_SPI_CLK_CYCLE_NONE);
  94              		.loc 1 73 0
  95 0050 F868     		ldr	r0, [r7, #12]
  96 0052 B968     		ldr	r1, [r7, #8]
  97 0054 FF22     		movs	r2, #255
  98 0056 FFF7FEFF 		bl	u8g_InitCom
ARM GAS  C:\Users\Shiguruy\AppData\Local\Temp\cc5ve5Dp.s 			page 4


  74:.\u8glib_arm_v1.18.1\src/u8g_dev_sbn1661_122x32.c ****       u8g_WriteEscSeqP(u8g, dev, u8g_dev_sbn1661_122x32_init_seq);
  99              		.loc 1 74 0
 100 005a F868     		ldr	r0, [r7, #12]
 101 005c B968     		ldr	r1, [r7, #8]
 102 005e 324A     		ldr	r2, .L9
 103 0060 FFF7FEFF 		bl	u8g_WriteEscSeqP
  75:.\u8glib_arm_v1.18.1\src/u8g_dev_sbn1661_122x32.c ****       break;
 104              		.loc 1 75 0
 105 0064 53E0     		b	.L2
 106              	.L7:
 107              	.LBB2:
  76:.\u8glib_arm_v1.18.1\src/u8g_dev_sbn1661_122x32.c ****     case U8G_DEV_MSG_STOP:
  77:.\u8glib_arm_v1.18.1\src/u8g_dev_sbn1661_122x32.c ****       break;
  78:.\u8glib_arm_v1.18.1\src/u8g_dev_sbn1661_122x32.c ****     case U8G_DEV_MSG_PAGE_NEXT:
  79:.\u8glib_arm_v1.18.1\src/u8g_dev_sbn1661_122x32.c ****       {
  80:.\u8glib_arm_v1.18.1\src/u8g_dev_sbn1661_122x32.c ****         u8g_pb_t *pb = (u8g_pb_t *)(dev->dev_mem);
 108              		.loc 1 80 0
 109 0066 BB68     		ldr	r3, [r7, #8]
 110 0068 5B68     		ldr	r3, [r3, #4]
 111 006a 7B61     		str	r3, [r7, #20]
  81:.\u8glib_arm_v1.18.1\src/u8g_dev_sbn1661_122x32.c **** 	
  82:.\u8glib_arm_v1.18.1\src/u8g_dev_sbn1661_122x32.c ****         u8g_SetAddress(u8g, dev, 0);           /* command mode */
 112              		.loc 1 82 0
 113 006c F868     		ldr	r0, [r7, #12]
 114 006e B968     		ldr	r1, [r7, #8]
 115 0070 0022     		movs	r2, #0
 116 0072 FFF7FEFF 		bl	u8g_SetAddress
  83:.\u8glib_arm_v1.18.1\src/u8g_dev_sbn1661_122x32.c ****         u8g_SetChipSelect(u8g, dev, 1);
 117              		.loc 1 83 0
 118 0076 F868     		ldr	r0, [r7, #12]
 119 0078 B968     		ldr	r1, [r7, #8]
 120 007a 0122     		movs	r2, #1
 121 007c FFF7FEFF 		bl	u8g_SetChipSelect
  84:.\u8glib_arm_v1.18.1\src/u8g_dev_sbn1661_122x32.c ****         u8g_WriteByte(u8g, dev, 0x0b8 | pb->p.page); /* select current page (SBN1661/SED1520) */
 122              		.loc 1 84 0
 123 0080 7B69     		ldr	r3, [r7, #20]
 124 0082 1B79     		ldrb	r3, [r3, #4]	@ zero_extendqisi2
 125 0084 63F04703 		orn	r3, r3, #71
 126 0088 DBB2     		uxtb	r3, r3
 127 008a F868     		ldr	r0, [r7, #12]
 128 008c B968     		ldr	r1, [r7, #8]
 129 008e 1A46     		mov	r2, r3
 130 0090 FFF7FEFF 		bl	u8g_WriteByte
  85:.\u8glib_arm_v1.18.1\src/u8g_dev_sbn1661_122x32.c ****         u8g_WriteByte(u8g, dev, 0x000 ); /* set X address */
 131              		.loc 1 85 0
 132 0094 F868     		ldr	r0, [r7, #12]
 133 0096 B968     		ldr	r1, [r7, #8]
 134 0098 0022     		movs	r2, #0
 135 009a FFF7FEFF 		bl	u8g_WriteByte
  86:.\u8glib_arm_v1.18.1\src/u8g_dev_sbn1661_122x32.c ****         u8g_SetAddress(u8g, dev, 1);           /* data mode */
 136              		.loc 1 86 0
 137 009e F868     		ldr	r0, [r7, #12]
 138 00a0 B968     		ldr	r1, [r7, #8]
 139 00a2 0122     		movs	r2, #1
 140 00a4 FFF7FEFF 		bl	u8g_SetAddress
  87:.\u8glib_arm_v1.18.1\src/u8g_dev_sbn1661_122x32.c ****         u8g_WriteSequence(u8g, dev, WIDTH/2, pb->buf);
 141              		.loc 1 87 0
ARM GAS  C:\Users\Shiguruy\AppData\Local\Temp\cc5ve5Dp.s 			page 5


 142 00a8 7B69     		ldr	r3, [r7, #20]
 143 00aa 9B68     		ldr	r3, [r3, #8]
 144 00ac F868     		ldr	r0, [r7, #12]
 145 00ae B968     		ldr	r1, [r7, #8]
 146 00b0 3D22     		movs	r2, #61
 147 00b2 FFF7FEFF 		bl	u8g_WriteSequence
  88:.\u8glib_arm_v1.18.1\src/u8g_dev_sbn1661_122x32.c **** 	
  89:.\u8glib_arm_v1.18.1\src/u8g_dev_sbn1661_122x32.c ****         u8g_SetAddress(u8g, dev, 0);           /* command mode */
 148              		.loc 1 89 0
 149 00b6 F868     		ldr	r0, [r7, #12]
 150 00b8 B968     		ldr	r1, [r7, #8]
 151 00ba 0022     		movs	r2, #0
 152 00bc FFF7FEFF 		bl	u8g_SetAddress
  90:.\u8glib_arm_v1.18.1\src/u8g_dev_sbn1661_122x32.c ****         u8g_SetChipSelect(u8g, dev, 2);
 153              		.loc 1 90 0
 154 00c0 F868     		ldr	r0, [r7, #12]
 155 00c2 B968     		ldr	r1, [r7, #8]
 156 00c4 0222     		movs	r2, #2
 157 00c6 FFF7FEFF 		bl	u8g_SetChipSelect
  91:.\u8glib_arm_v1.18.1\src/u8g_dev_sbn1661_122x32.c ****         u8g_WriteByte(u8g, dev, 0x0b8 | pb->p.page); /* select current page (SBN1661/SED1520) */
 158              		.loc 1 91 0
 159 00ca 7B69     		ldr	r3, [r7, #20]
 160 00cc 1B79     		ldrb	r3, [r3, #4]	@ zero_extendqisi2
 161 00ce 63F04703 		orn	r3, r3, #71
 162 00d2 DBB2     		uxtb	r3, r3
 163 00d4 F868     		ldr	r0, [r7, #12]
 164 00d6 B968     		ldr	r1, [r7, #8]
 165 00d8 1A46     		mov	r2, r3
 166 00da FFF7FEFF 		bl	u8g_WriteByte
  92:.\u8glib_arm_v1.18.1\src/u8g_dev_sbn1661_122x32.c ****         u8g_WriteByte(u8g, dev, 0x000 ); /* set X address */
 167              		.loc 1 92 0
 168 00de F868     		ldr	r0, [r7, #12]
 169 00e0 B968     		ldr	r1, [r7, #8]
 170 00e2 0022     		movs	r2, #0
 171 00e4 FFF7FEFF 		bl	u8g_WriteByte
  93:.\u8glib_arm_v1.18.1\src/u8g_dev_sbn1661_122x32.c ****         u8g_SetAddress(u8g, dev, 1);           /* data mode */
 172              		.loc 1 93 0
 173 00e8 F868     		ldr	r0, [r7, #12]
 174 00ea B968     		ldr	r1, [r7, #8]
 175 00ec 0122     		movs	r2, #1
 176 00ee FFF7FEFF 		bl	u8g_SetAddress
  94:.\u8glib_arm_v1.18.1\src/u8g_dev_sbn1661_122x32.c ****         u8g_WriteSequence(u8g, dev, WIDTH/2, WIDTH/2+(uint8_t *)pb->buf);
 177              		.loc 1 94 0
 178 00f2 7B69     		ldr	r3, [r7, #20]
 179 00f4 9B68     		ldr	r3, [r3, #8]
 180 00f6 3D33     		adds	r3, r3, #61
 181 00f8 F868     		ldr	r0, [r7, #12]
 182 00fa B968     		ldr	r1, [r7, #8]
 183 00fc 3D22     		movs	r2, #61
 184 00fe FFF7FEFF 		bl	u8g_WriteSequence
  95:.\u8glib_arm_v1.18.1\src/u8g_dev_sbn1661_122x32.c **** 	
  96:.\u8glib_arm_v1.18.1\src/u8g_dev_sbn1661_122x32.c ****         u8g_SetChipSelect(u8g, dev, 0);
 185              		.loc 1 96 0
 186 0102 F868     		ldr	r0, [r7, #12]
 187 0104 B968     		ldr	r1, [r7, #8]
 188 0106 0022     		movs	r2, #0
 189 0108 FFF7FEFF 		bl	u8g_SetChipSelect
ARM GAS  C:\Users\Shiguruy\AppData\Local\Temp\cc5ve5Dp.s 			page 6


 190              	.LBE2:
  97:.\u8glib_arm_v1.18.1\src/u8g_dev_sbn1661_122x32.c **** 	
  98:.\u8glib_arm_v1.18.1\src/u8g_dev_sbn1661_122x32.c ****       }
  99:.\u8glib_arm_v1.18.1\src/u8g_dev_sbn1661_122x32.c ****       break;
 191              		.loc 1 99 0
 192 010c 00BF     		nop
 193              	.L2:
 100:.\u8glib_arm_v1.18.1\src/u8g_dev_sbn1661_122x32.c ****     case U8G_DEV_MSG_CONTRAST:
 101:.\u8glib_arm_v1.18.1\src/u8g_dev_sbn1661_122x32.c ****       break;
 102:.\u8glib_arm_v1.18.1\src/u8g_dev_sbn1661_122x32.c ****   }
 103:.\u8glib_arm_v1.18.1\src/u8g_dev_sbn1661_122x32.c ****   return u8g_dev_pb8v1_base_fn(u8g, dev, msg, arg);
 194              		.loc 1 103 0
 195 010e FB79     		ldrb	r3, [r7, #7]	@ zero_extendqisi2
 196 0110 F868     		ldr	r0, [r7, #12]
 197 0112 B968     		ldr	r1, [r7, #8]
 198 0114 1A46     		mov	r2, r3
 199 0116 3B68     		ldr	r3, [r7]
 200 0118 FFF7FEFF 		bl	u8g_dev_pb8v1_base_fn
 201 011c 0346     		mov	r3, r0
 104:.\u8glib_arm_v1.18.1\src/u8g_dev_sbn1661_122x32.c **** }
 202              		.loc 1 104 0
 203 011e 1846     		mov	r0, r3
 204 0120 1837     		adds	r7, r7, #24
 205              		.cfi_def_cfa_offset 8
 206 0122 BD46     		mov	sp, r7
 207              		.cfi_def_cfa_register 13
 208              		@ sp needed
 209 0124 80BD     		pop	{r7, pc}
 210              	.L10:
 211 0126 00BF     		.align	2
 212              	.L9:
 213 0128 00000000 		.word	u8g_dev_sbn1661_122x32_init_seq
 214              		.cfi_endproc
 215              	.LFE0:
 216              		.size	u8g_dev_sbn1661_122x32_fn, .-u8g_dev_sbn1661_122x32_fn
 217              		.global	u8g_dev_sbn1661_122x32_buf
 218              		.bss
 219              		.align	2
 220              		.type	u8g_dev_sbn1661_122x32_buf, %object
 221              		.size	u8g_dev_sbn1661_122x32_buf, 122
 222              	u8g_dev_sbn1661_122x32_buf:
 223 0000 00000000 		.space	122
 223      00000000 
 223      00000000 
 223      00000000 
 223      00000000 
 224              		.global	u8g_dev_sbn1661_122x32_pb
 225 007a 0000     		.data
 226              		.align	2
 227              		.type	u8g_dev_sbn1661_122x32_pb, %object
 228              		.size	u8g_dev_sbn1661_122x32_pb, 12
 229              	u8g_dev_sbn1661_122x32_pb:
 230 0000 08       		.byte	8
 231 0001 20       		.byte	32
 232 0002 00       		.byte	0
 233 0003 00       		.byte	0
 234 0004 00       		.byte	0
ARM GAS  C:\Users\Shiguruy\AppData\Local\Temp\cc5ve5Dp.s 			page 7


 235 0005 7A       		.byte	122
 236 0006 0000     		.space	2
 237 0008 00000000 		.word	u8g_dev_sbn1661_122x32_buf
 238              		.global	u8g_dev_sbn1661_122x32
 239              		.align	2
 240              		.type	u8g_dev_sbn1661_122x32, %object
 241              		.size	u8g_dev_sbn1661_122x32, 12
 242              	u8g_dev_sbn1661_122x32:
 243 000c 00000000 		.word	u8g_dev_sbn1661_122x32_fn
 244 0010 00000000 		.word	u8g_dev_sbn1661_122x32_pb
 245 0014 00000000 		.word	u8g_com_arduino_no_en_parallel_fn
 246              		.text
 247              	.Letext0:
 248              		.file 2 "c:\\program files (x86)\\cypress\\psoc creator\\3.3\\psoc creator\\import\\gnu\\arm\\4.9.
 249              		.file 3 "c:\\program files (x86)\\cypress\\psoc creator\\3.3\\psoc creator\\import\\gnu\\arm\\4.9.
 250              		.file 4 ".\\u8glib_arm_v1.18.1\\src\\u8g.h"