ARM GAS  C:\Users\Shiguruy\AppData\Local\Temp\cc8ndPh9.s 			page 1


   1              		.syntax unified
   2              		.cpu cortex-m3
   3              		.fpu softvfp
   4              		.eabi_attribute 20, 1
   5              		.eabi_attribute 21, 1
   6              		.eabi_attribute 23, 3
   7              		.eabi_attribute 24, 1
   8              		.eabi_attribute 25, 1
   9              		.eabi_attribute 26, 1
  10              		.eabi_attribute 30, 6
  11              		.eabi_attribute 34, 1
  12              		.eabi_attribute 18, 4
  13              		.thumb
  14              		.file	"u8g_dev_pcd8544_84x48.c"
  15              		.text
  16              	.Ltext0:
  17              		.cfi_sections	.debug_frame
  18              		.section	.rodata
  19              		.align	2
  20              		.type	u8g_dev_pcd8544_init_seq, %object
  21              		.size	u8g_dev_pcd8544_init_seq, 30
  22              	u8g_dev_pcd8544_init_seq:
  23 0000 FF       		.byte	-1
  24 0001 D0       		.byte	-48
  25 0002 FF       		.byte	-1
  26 0003 E0       		.byte	-32
  27 0004 FF       		.byte	-1
  28 0005 C1       		.byte	-63
  29 0006 FF       		.byte	-1
  30 0007 D1       		.byte	-47
  31 0008 21       		.byte	33
  32 0009 06       		.byte	6
  33 000a 13       		.byte	19
  34 000b C0       		.byte	-64
  35 000c 20       		.byte	32
  36 000d 0C       		.byte	12
  37 000e FF       		.byte	-1
  38 000f 64       		.byte	100
  39 0010 20       		.byte	32
  40 0011 0D       		.byte	13
  41 0012 FF       		.byte	-1
  42 0013 64       		.byte	100
  43 0014 FF       		.byte	-1
  44 0015 64       		.byte	100
  45 0016 20       		.byte	32
  46 0017 0C       		.byte	12
  47 0018 FF       		.byte	-1
  48 0019 64       		.byte	100
  49 001a FF       		.byte	-1
  50 001b D0       		.byte	-48
  51 001c FF       		.byte	-1
  52 001d FE       		.byte	-2
  53 001e 0000     		.align	2
  54              		.type	u8g_dev_pcd8544_sleep_on, %object
  55              		.size	u8g_dev_pcd8544_sleep_on, 10
  56              	u8g_dev_pcd8544_sleep_on:
  57 0020 FF       		.byte	-1
ARM GAS  C:\Users\Shiguruy\AppData\Local\Temp\cc8ndPh9.s 			page 2


  58 0021 E0       		.byte	-32
  59 0022 FF       		.byte	-1
  60 0023 D1       		.byte	-47
  61 0024 20       		.byte	32
  62 0025 0C       		.byte	12
  63 0026 FF       		.byte	-1
  64 0027 D0       		.byte	-48
  65 0028 FF       		.byte	-1
  66 0029 FE       		.byte	-2
  67 002a 0000     		.align	2
  68              		.type	u8g_dev_pcd8544_sleep_off, %object
  69              		.size	u8g_dev_pcd8544_sleep_off, 13
  70              	u8g_dev_pcd8544_sleep_off:
  71 002c FF       		.byte	-1
  72 002d E0       		.byte	-32
  73 002e FF       		.byte	-1
  74 002f D1       		.byte	-47
  75 0030 20       		.byte	32
  76 0031 08       		.byte	8
  77 0032 24       		.byte	36
  78 0033 FF       		.byte	-1
  79 0034 32       		.byte	50
  80 0035 FF       		.byte	-1
  81 0036 D0       		.byte	-48
  82 0037 FF       		.byte	-1
  83 0038 FE       		.byte	-2
  84 0039 000000   		.section	.text.u8g_dev_pcd8544_fn,"ax",%progbits
  85              		.align	2
  86              		.global	u8g_dev_pcd8544_fn
  87              		.thumb
  88              		.thumb_func
  89              		.type	u8g_dev_pcd8544_fn, %function
  90              	u8g_dev_pcd8544_fn:
  91              	.LFB0:
  92              		.file 1 ".\\u8glib_arm_v1.18.1\\src\\u8g_dev_pcd8544_84x48.c"
   1:.\u8glib_arm_v1.18.1\src/u8g_dev_pcd8544_84x48.c **** /*
   2:.\u8glib_arm_v1.18.1\src/u8g_dev_pcd8544_84x48.c **** 
   3:.\u8glib_arm_v1.18.1\src/u8g_dev_pcd8544_84x48.c ****   u8g_dev_pcd8544_84x48.c
   4:.\u8glib_arm_v1.18.1\src/u8g_dev_pcd8544_84x48.c ****   
   5:.\u8glib_arm_v1.18.1\src/u8g_dev_pcd8544_84x48.c ****   Display: Nokia 84x48
   6:.\u8glib_arm_v1.18.1\src/u8g_dev_pcd8544_84x48.c ****   
   7:.\u8glib_arm_v1.18.1\src/u8g_dev_pcd8544_84x48.c ****   Status: Tested with PCF8812 Display
   8:.\u8glib_arm_v1.18.1\src/u8g_dev_pcd8544_84x48.c ****   
   9:.\u8glib_arm_v1.18.1\src/u8g_dev_pcd8544_84x48.c **** 
  10:.\u8glib_arm_v1.18.1\src/u8g_dev_pcd8544_84x48.c ****   Universal 8bit Graphics Library
  11:.\u8glib_arm_v1.18.1\src/u8g_dev_pcd8544_84x48.c ****   
  12:.\u8glib_arm_v1.18.1\src/u8g_dev_pcd8544_84x48.c ****   Copyright (c) 2011, olikraus@gmail.com
  13:.\u8glib_arm_v1.18.1\src/u8g_dev_pcd8544_84x48.c ****   All rights reserved.
  14:.\u8glib_arm_v1.18.1\src/u8g_dev_pcd8544_84x48.c **** 
  15:.\u8glib_arm_v1.18.1\src/u8g_dev_pcd8544_84x48.c ****   Redistribution and use in source and binary forms, with or without modification, 
  16:.\u8glib_arm_v1.18.1\src/u8g_dev_pcd8544_84x48.c ****   are permitted provided that the following conditions are met:
  17:.\u8glib_arm_v1.18.1\src/u8g_dev_pcd8544_84x48.c **** 
  18:.\u8glib_arm_v1.18.1\src/u8g_dev_pcd8544_84x48.c ****   * Redistributions of source code must retain the above copyright notice, this list 
  19:.\u8glib_arm_v1.18.1\src/u8g_dev_pcd8544_84x48.c ****     of conditions and the following disclaimer.
  20:.\u8glib_arm_v1.18.1\src/u8g_dev_pcd8544_84x48.c ****     
  21:.\u8glib_arm_v1.18.1\src/u8g_dev_pcd8544_84x48.c ****   * Redistributions in binary form must reproduce the above copyright notice, this 
  22:.\u8glib_arm_v1.18.1\src/u8g_dev_pcd8544_84x48.c ****     list of conditions and the following disclaimer in the documentation and/or other 
ARM GAS  C:\Users\Shiguruy\AppData\Local\Temp\cc8ndPh9.s 			page 3


  23:.\u8glib_arm_v1.18.1\src/u8g_dev_pcd8544_84x48.c ****     materials provided with the distribution.
  24:.\u8glib_arm_v1.18.1\src/u8g_dev_pcd8544_84x48.c **** 
  25:.\u8glib_arm_v1.18.1\src/u8g_dev_pcd8544_84x48.c ****   THIS SOFTWARE IS PROVIDED BY THE COPYRIGHT HOLDERS AND 
  26:.\u8glib_arm_v1.18.1\src/u8g_dev_pcd8544_84x48.c ****   CONTRIBUTORS "AS IS" AND ANY EXPRESS OR IMPLIED WARRANTIES, 
  27:.\u8glib_arm_v1.18.1\src/u8g_dev_pcd8544_84x48.c ****   INCLUDING, BUT NOT LIMITED TO, THE IMPLIED WARRANTIES OF 
  28:.\u8glib_arm_v1.18.1\src/u8g_dev_pcd8544_84x48.c ****   MERCHANTABILITY AND FITNESS FOR A PARTICULAR PURPOSE ARE 
  29:.\u8glib_arm_v1.18.1\src/u8g_dev_pcd8544_84x48.c ****   DISCLAIMED. IN NO EVENT SHALL THE COPYRIGHT HOLDER OR 
  30:.\u8glib_arm_v1.18.1\src/u8g_dev_pcd8544_84x48.c ****   CONTRIBUTORS BE LIABLE FOR ANY DIRECT, INDIRECT, INCIDENTAL, 
  31:.\u8glib_arm_v1.18.1\src/u8g_dev_pcd8544_84x48.c ****   SPECIAL, EXEMPLARY, OR CONSEQUENTIAL DAMAGES (INCLUDING, BUT 
  32:.\u8glib_arm_v1.18.1\src/u8g_dev_pcd8544_84x48.c ****   NOT LIMITED TO, PROCUREMENT OF SUBSTITUTE GOODS OR SERVICES; 
  33:.\u8glib_arm_v1.18.1\src/u8g_dev_pcd8544_84x48.c ****   LOSS OF USE, DATA, OR PROFITS; OR BUSINESS INTERRUPTION) HOWEVER 
  34:.\u8glib_arm_v1.18.1\src/u8g_dev_pcd8544_84x48.c ****   CAUSED AND ON ANY THEORY OF LIABILITY, WHETHER IN CONTRACT, 
  35:.\u8glib_arm_v1.18.1\src/u8g_dev_pcd8544_84x48.c ****   STRICT LIABILITY, OR TORT (INCLUDING NEGLIGENCE OR OTHERWISE) 
  36:.\u8glib_arm_v1.18.1\src/u8g_dev_pcd8544_84x48.c ****   ARISING IN ANY WAY OUT OF THE USE OF THIS SOFTWARE, EVEN IF 
  37:.\u8glib_arm_v1.18.1\src/u8g_dev_pcd8544_84x48.c ****   ADVISED OF THE POSSIBILITY OF SUCH DAMAGE.  
  38:.\u8glib_arm_v1.18.1\src/u8g_dev_pcd8544_84x48.c ****   
  39:.\u8glib_arm_v1.18.1\src/u8g_dev_pcd8544_84x48.c ****   
  40:.\u8glib_arm_v1.18.1\src/u8g_dev_pcd8544_84x48.c **** */
  41:.\u8glib_arm_v1.18.1\src/u8g_dev_pcd8544_84x48.c **** 
  42:.\u8glib_arm_v1.18.1\src/u8g_dev_pcd8544_84x48.c **** #include "u8g.h"
  43:.\u8glib_arm_v1.18.1\src/u8g_dev_pcd8544_84x48.c **** 
  44:.\u8glib_arm_v1.18.1\src/u8g_dev_pcd8544_84x48.c **** #define WIDTH 84
  45:.\u8glib_arm_v1.18.1\src/u8g_dev_pcd8544_84x48.c **** #define HEIGHT 48
  46:.\u8glib_arm_v1.18.1\src/u8g_dev_pcd8544_84x48.c **** #define PAGE_HEIGHT 8
  47:.\u8glib_arm_v1.18.1\src/u8g_dev_pcd8544_84x48.c **** 
  48:.\u8glib_arm_v1.18.1\src/u8g_dev_pcd8544_84x48.c **** 
  49:.\u8glib_arm_v1.18.1\src/u8g_dev_pcd8544_84x48.c **** static const uint8_t u8g_dev_pcd8544_init_seq[] PROGMEM = {
  50:.\u8glib_arm_v1.18.1\src/u8g_dev_pcd8544_84x48.c ****   U8G_ESC_CS(0),             /* disable chip */
  51:.\u8glib_arm_v1.18.1\src/u8g_dev_pcd8544_84x48.c ****   U8G_ESC_ADR(0),           /* instruction mode */
  52:.\u8glib_arm_v1.18.1\src/u8g_dev_pcd8544_84x48.c ****   U8G_ESC_RST(1),           /* do reset low pulse with (1*16)+2 milliseconds */
  53:.\u8glib_arm_v1.18.1\src/u8g_dev_pcd8544_84x48.c ****   U8G_ESC_CS(1),             /* enable chip */
  54:.\u8glib_arm_v1.18.1\src/u8g_dev_pcd8544_84x48.c ****   0x021,		/* activate chip (PD=0), horizontal increment (V=0), enter extended command set (H=1) */
  55:.\u8glib_arm_v1.18.1\src/u8g_dev_pcd8544_84x48.c ****   0x006,		/* temp. control: b10 = 2 */
  56:.\u8glib_arm_v1.18.1\src/u8g_dev_pcd8544_84x48.c ****   0x013,		/* bias system 1:48 */
  57:.\u8glib_arm_v1.18.1\src/u8g_dev_pcd8544_84x48.c ****   0x0c0,		/* medium Vop */
  58:.\u8glib_arm_v1.18.1\src/u8g_dev_pcd8544_84x48.c ****   0x020,		/* activate chip (PD=0), horizontal increment (V=0), enter normal command set (H=0) */
  59:.\u8glib_arm_v1.18.1\src/u8g_dev_pcd8544_84x48.c ****   0x00c,		/* display on, normal operation */
  60:.\u8glib_arm_v1.18.1\src/u8g_dev_pcd8544_84x48.c ****   U8G_ESC_DLY(100),       /* delay 100 ms */
  61:.\u8glib_arm_v1.18.1\src/u8g_dev_pcd8544_84x48.c ****   0x020,		                /* activate chip (PD=0), horizontal increment (V=0), enter normal command
  62:.\u8glib_arm_v1.18.1\src/u8g_dev_pcd8544_84x48.c ****   0x00d,		                /* display on, invert */
  63:.\u8glib_arm_v1.18.1\src/u8g_dev_pcd8544_84x48.c ****   U8G_ESC_DLY(100),       /* delay 100 ms */
  64:.\u8glib_arm_v1.18.1\src/u8g_dev_pcd8544_84x48.c ****   U8G_ESC_DLY(100),       /* delay 100 ms */
  65:.\u8glib_arm_v1.18.1\src/u8g_dev_pcd8544_84x48.c ****   0x020,		                /* activate chip (PD=0), horizontal increment (V=0), enter normal command
  66:.\u8glib_arm_v1.18.1\src/u8g_dev_pcd8544_84x48.c ****   0x00c,		                /* display on, normal */
  67:.\u8glib_arm_v1.18.1\src/u8g_dev_pcd8544_84x48.c ****   U8G_ESC_DLY(100),       /* delay 100 ms */
  68:.\u8glib_arm_v1.18.1\src/u8g_dev_pcd8544_84x48.c ****   U8G_ESC_CS(0),             /* disable chip */
  69:.\u8glib_arm_v1.18.1\src/u8g_dev_pcd8544_84x48.c ****   U8G_ESC_END                /* end of sequence */
  70:.\u8glib_arm_v1.18.1\src/u8g_dev_pcd8544_84x48.c **** };
  71:.\u8glib_arm_v1.18.1\src/u8g_dev_pcd8544_84x48.c **** 
  72:.\u8glib_arm_v1.18.1\src/u8g_dev_pcd8544_84x48.c **** 
  73:.\u8glib_arm_v1.18.1\src/u8g_dev_pcd8544_84x48.c **** static const uint8_t u8g_dev_pcd8544_sleep_on[] PROGMEM = {
  74:.\u8glib_arm_v1.18.1\src/u8g_dev_pcd8544_84x48.c ****   U8G_ESC_ADR(0),           	/* instruction mode */
  75:.\u8glib_arm_v1.18.1\src/u8g_dev_pcd8544_84x48.c ****   U8G_ESC_CS(1),             	/* enable chip */
  76:.\u8glib_arm_v1.18.1\src/u8g_dev_pcd8544_84x48.c ****   
  77:.\u8glib_arm_v1.18.1\src/u8g_dev_pcd8544_84x48.c ****   0x020,		                /* activate chip (PD=0), horizontal increment (V=0), enter normal command
  78:.\u8glib_arm_v1.18.1\src/u8g_dev_pcd8544_84x48.c ****   0x00c,		                /* display on, normal */
  79:.\u8glib_arm_v1.18.1\src/u8g_dev_pcd8544_84x48.c ****   U8G_ESC_CS(0),             	/* disable chip, bugfix 12 nov 2014 */
ARM GAS  C:\Users\Shiguruy\AppData\Local\Temp\cc8ndPh9.s 			page 4


  80:.\u8glib_arm_v1.18.1\src/u8g_dev_pcd8544_84x48.c ****   U8G_ESC_END                	/* end of sequence */
  81:.\u8glib_arm_v1.18.1\src/u8g_dev_pcd8544_84x48.c **** };
  82:.\u8glib_arm_v1.18.1\src/u8g_dev_pcd8544_84x48.c **** 
  83:.\u8glib_arm_v1.18.1\src/u8g_dev_pcd8544_84x48.c **** static const uint8_t u8g_dev_pcd8544_sleep_off[] PROGMEM = {
  84:.\u8glib_arm_v1.18.1\src/u8g_dev_pcd8544_84x48.c ****   U8G_ESC_ADR(0),           	/* instruction mode */
  85:.\u8glib_arm_v1.18.1\src/u8g_dev_pcd8544_84x48.c ****   U8G_ESC_CS(1),             	/* enable chip */
  86:.\u8glib_arm_v1.18.1\src/u8g_dev_pcd8544_84x48.c ****   0x020,		                /* activate chip (PD=0), horizontal increment (V=0), enter normal command
  87:.\u8glib_arm_v1.18.1\src/u8g_dev_pcd8544_84x48.c ****   0x008,		                /* display blank */
  88:.\u8glib_arm_v1.18.1\src/u8g_dev_pcd8544_84x48.c ****   0x024,		                /* power down (PD=1), horizontal increment (V=0), enter normal command se
  89:.\u8glib_arm_v1.18.1\src/u8g_dev_pcd8544_84x48.c ****   
  90:.\u8glib_arm_v1.18.1\src/u8g_dev_pcd8544_84x48.c ****   U8G_ESC_DLY(50),       	/* delay 50 ms */
  91:.\u8glib_arm_v1.18.1\src/u8g_dev_pcd8544_84x48.c ****   U8G_ESC_CS(0),             	/* disable chip, bugfix 12 nov 2014 */
  92:.\u8glib_arm_v1.18.1\src/u8g_dev_pcd8544_84x48.c ****   U8G_ESC_END                	/* end of sequence */
  93:.\u8glib_arm_v1.18.1\src/u8g_dev_pcd8544_84x48.c **** };
  94:.\u8glib_arm_v1.18.1\src/u8g_dev_pcd8544_84x48.c **** 
  95:.\u8glib_arm_v1.18.1\src/u8g_dev_pcd8544_84x48.c **** 
  96:.\u8glib_arm_v1.18.1\src/u8g_dev_pcd8544_84x48.c **** uint8_t u8g_dev_pcd8544_fn(u8g_t *u8g, u8g_dev_t *dev, uint8_t msg, void *arg)
  97:.\u8glib_arm_v1.18.1\src/u8g_dev_pcd8544_84x48.c **** {
  93              		.loc 1 97 0
  94              		.cfi_startproc
  95              		@ args = 0, pretend = 0, frame = 24
  96              		@ frame_needed = 1, uses_anonymous_args = 0
  97 0000 80B5     		push	{r7, lr}
  98              		.cfi_def_cfa_offset 8
  99              		.cfi_offset 7, -8
 100              		.cfi_offset 14, -4
 101 0002 86B0     		sub	sp, sp, #24
 102              		.cfi_def_cfa_offset 32
 103 0004 00AF     		add	r7, sp, #0
 104              		.cfi_def_cfa_register 7
 105 0006 F860     		str	r0, [r7, #12]
 106 0008 B960     		str	r1, [r7, #8]
 107 000a 3B60     		str	r3, [r7]
 108 000c 1346     		mov	r3, r2
 109 000e FB71     		strb	r3, [r7, #7]
  98:.\u8glib_arm_v1.18.1\src/u8g_dev_pcd8544_84x48.c ****   switch(msg)
 110              		.loc 1 98 0
 111 0010 FB79     		ldrb	r3, [r7, #7]	@ zero_extendqisi2
 112 0012 0A3B     		subs	r3, r3, #10
 113 0014 0B2B     		cmp	r3, #11
 114 0016 00F28C80 		bhi	.L2
 115 001a 01A2     		adr	r2, .L4
 116 001c 52F823F0 		ldr	pc, [r2, r3, lsl #2]
 117              		.p2align 2
 118              	.L4:
 119 0020 51000000 		.word	.L3+1
 120 0024 33010000 		.word	.L2+1
 121 0028 33010000 		.word	.L2+1
 122 002c 33010000 		.word	.L2+1
 123 0030 33010000 		.word	.L2+1
 124 0034 D3000000 		.word	.L6+1
 125 0038 17010000 		.word	.L7+1
 126 003c 25010000 		.word	.L8+1
 127 0040 33010000 		.word	.L2+1
 128 0044 33010000 		.word	.L2+1
 129 0048 33010000 		.word	.L2+1
 130 004c 67000000 		.word	.L9+1
ARM GAS  C:\Users\Shiguruy\AppData\Local\Temp\cc8ndPh9.s 			page 5


 131              		.p2align 1
 132              	.L3:
  99:.\u8glib_arm_v1.18.1\src/u8g_dev_pcd8544_84x48.c ****   {
 100:.\u8glib_arm_v1.18.1\src/u8g_dev_pcd8544_84x48.c ****     case U8G_DEV_MSG_INIT:
 101:.\u8glib_arm_v1.18.1\src/u8g_dev_pcd8544_84x48.c ****       u8g_InitCom(u8g, dev, U8G_SPI_CLK_CYCLE_400NS);
 133              		.loc 1 101 0
 134 0050 F868     		ldr	r0, [r7, #12]
 135 0052 B968     		ldr	r1, [r7, #8]
 136 0054 0322     		movs	r2, #3
 137 0056 FFF7FEFF 		bl	u8g_InitCom
 102:.\u8glib_arm_v1.18.1\src/u8g_dev_pcd8544_84x48.c ****       u8g_WriteEscSeqP(u8g, dev, u8g_dev_pcd8544_init_seq);
 138              		.loc 1 102 0
 139 005a F868     		ldr	r0, [r7, #12]
 140 005c B968     		ldr	r1, [r7, #8]
 141 005e 3B4A     		ldr	r2, .L12
 142 0060 FFF7FEFF 		bl	u8g_WriteEscSeqP
 103:.\u8glib_arm_v1.18.1\src/u8g_dev_pcd8544_84x48.c ****       break;
 143              		.loc 1 103 0
 144 0064 65E0     		b	.L2
 145              	.L9:
 146              	.LBB2:
 104:.\u8glib_arm_v1.18.1\src/u8g_dev_pcd8544_84x48.c ****     case U8G_DEV_MSG_STOP:
 105:.\u8glib_arm_v1.18.1\src/u8g_dev_pcd8544_84x48.c ****       break;
 106:.\u8glib_arm_v1.18.1\src/u8g_dev_pcd8544_84x48.c ****     case U8G_DEV_MSG_PAGE_NEXT:
 107:.\u8glib_arm_v1.18.1\src/u8g_dev_pcd8544_84x48.c ****       {
 108:.\u8glib_arm_v1.18.1\src/u8g_dev_pcd8544_84x48.c ****         u8g_pb_t *pb = (u8g_pb_t *)(dev->dev_mem);
 147              		.loc 1 108 0
 148 0066 BB68     		ldr	r3, [r7, #8]
 149 0068 5B68     		ldr	r3, [r3, #4]
 150 006a 7B61     		str	r3, [r7, #20]
 109:.\u8glib_arm_v1.18.1\src/u8g_dev_pcd8544_84x48.c ****         u8g_SetAddress(u8g, dev, 0);           /* command mode */
 151              		.loc 1 109 0
 152 006c F868     		ldr	r0, [r7, #12]
 153 006e B968     		ldr	r1, [r7, #8]
 154 0070 0022     		movs	r2, #0
 155 0072 FFF7FEFF 		bl	u8g_SetAddress
 110:.\u8glib_arm_v1.18.1\src/u8g_dev_pcd8544_84x48.c ****         u8g_SetChipSelect(u8g, dev, 1);
 156              		.loc 1 110 0
 157 0076 F868     		ldr	r0, [r7, #12]
 158 0078 B968     		ldr	r1, [r7, #8]
 159 007a 0122     		movs	r2, #1
 160 007c FFF7FEFF 		bl	u8g_SetChipSelect
 111:.\u8glib_arm_v1.18.1\src/u8g_dev_pcd8544_84x48.c ****         u8g_WriteByte(u8g, dev, 0x020 );		/* activate chip (PD=0), horizontal increment (V=0), ente
 161              		.loc 1 111 0
 162 0080 F868     		ldr	r0, [r7, #12]
 163 0082 B968     		ldr	r1, [r7, #8]
 164 0084 2022     		movs	r2, #32
 165 0086 FFF7FEFF 		bl	u8g_WriteByte
 112:.\u8glib_arm_v1.18.1\src/u8g_dev_pcd8544_84x48.c ****         u8g_WriteByte(u8g, dev, 0x080 );                        /* set X address */
 166              		.loc 1 112 0
 167 008a F868     		ldr	r0, [r7, #12]
 168 008c B968     		ldr	r1, [r7, #8]
 169 008e 8022     		movs	r2, #128
 170 0090 FFF7FEFF 		bl	u8g_WriteByte
 113:.\u8glib_arm_v1.18.1\src/u8g_dev_pcd8544_84x48.c ****         u8g_WriteByte(u8g, dev, 0x040 | pb->p.page); /* set Y address */
 171              		.loc 1 113 0
 172 0094 7B69     		ldr	r3, [r7, #20]
ARM GAS  C:\Users\Shiguruy\AppData\Local\Temp\cc8ndPh9.s 			page 6


 173 0096 1B79     		ldrb	r3, [r3, #4]	@ zero_extendqisi2
 174 0098 43F04003 		orr	r3, r3, #64
 175 009c DBB2     		uxtb	r3, r3
 176 009e F868     		ldr	r0, [r7, #12]
 177 00a0 B968     		ldr	r1, [r7, #8]
 178 00a2 1A46     		mov	r2, r3
 179 00a4 FFF7FEFF 		bl	u8g_WriteByte
 114:.\u8glib_arm_v1.18.1\src/u8g_dev_pcd8544_84x48.c ****         u8g_SetAddress(u8g, dev, 1);           /* data mode */
 180              		.loc 1 114 0
 181 00a8 F868     		ldr	r0, [r7, #12]
 182 00aa B968     		ldr	r1, [r7, #8]
 183 00ac 0122     		movs	r2, #1
 184 00ae FFF7FEFF 		bl	u8g_SetAddress
 115:.\u8glib_arm_v1.18.1\src/u8g_dev_pcd8544_84x48.c ****         if ( u8g_pb_WriteBuffer(pb, u8g, dev) == 0 )
 185              		.loc 1 115 0
 186 00b2 7869     		ldr	r0, [r7, #20]
 187 00b4 F968     		ldr	r1, [r7, #12]
 188 00b6 BA68     		ldr	r2, [r7, #8]
 189 00b8 FFF7FEFF 		bl	u8g_pb_WriteBuffer
 190 00bc 0346     		mov	r3, r0
 191 00be 002B     		cmp	r3, #0
 192 00c0 01D1     		bne	.L10
 116:.\u8glib_arm_v1.18.1\src/u8g_dev_pcd8544_84x48.c ****           return 0;
 193              		.loc 1 116 0
 194 00c2 0023     		movs	r3, #0
 195 00c4 3DE0     		b	.L11
 196              	.L10:
 117:.\u8glib_arm_v1.18.1\src/u8g_dev_pcd8544_84x48.c ****         u8g_SetChipSelect(u8g, dev, 0);
 197              		.loc 1 117 0
 198 00c6 F868     		ldr	r0, [r7, #12]
 199 00c8 B968     		ldr	r1, [r7, #8]
 200 00ca 0022     		movs	r2, #0
 201 00cc FFF7FEFF 		bl	u8g_SetChipSelect
 202              	.LBE2:
 118:.\u8glib_arm_v1.18.1\src/u8g_dev_pcd8544_84x48.c ****       }
 119:.\u8glib_arm_v1.18.1\src/u8g_dev_pcd8544_84x48.c ****       break;
 203              		.loc 1 119 0
 204 00d0 2FE0     		b	.L2
 205              	.L6:
 120:.\u8glib_arm_v1.18.1\src/u8g_dev_pcd8544_84x48.c ****     case U8G_DEV_MSG_CONTRAST:
 121:.\u8glib_arm_v1.18.1\src/u8g_dev_pcd8544_84x48.c ****       /* the contrast adjustment does not work, needs to be analysed */
 122:.\u8glib_arm_v1.18.1\src/u8g_dev_pcd8544_84x48.c ****       u8g_SetAddress(u8g, dev, 0);          /* instruction mode */
 206              		.loc 1 122 0
 207 00d2 F868     		ldr	r0, [r7, #12]
 208 00d4 B968     		ldr	r1, [r7, #8]
 209 00d6 0022     		movs	r2, #0
 210 00d8 FFF7FEFF 		bl	u8g_SetAddress
 123:.\u8glib_arm_v1.18.1\src/u8g_dev_pcd8544_84x48.c ****       u8g_SetChipSelect(u8g, dev, 1);
 211              		.loc 1 123 0
 212 00dc F868     		ldr	r0, [r7, #12]
 213 00de B968     		ldr	r1, [r7, #8]
 214 00e0 0122     		movs	r2, #1
 215 00e2 FFF7FEFF 		bl	u8g_SetChipSelect
 124:.\u8glib_arm_v1.18.1\src/u8g_dev_pcd8544_84x48.c ****       u8g_WriteByte(u8g, dev, 0x021);        /* command mode, extended function set */
 216              		.loc 1 124 0
 217 00e6 F868     		ldr	r0, [r7, #12]
 218 00e8 B968     		ldr	r1, [r7, #8]
ARM GAS  C:\Users\Shiguruy\AppData\Local\Temp\cc8ndPh9.s 			page 7


 219 00ea 2122     		movs	r2, #33
 220 00ec FFF7FEFF 		bl	u8g_WriteByte
 125:.\u8glib_arm_v1.18.1\src/u8g_dev_pcd8544_84x48.c ****       u8g_WriteByte(u8g, dev, 0x080 | ( (*(uint8_t *)arg) >> 1 ) );
 221              		.loc 1 125 0
 222 00f0 3B68     		ldr	r3, [r7]
 223 00f2 1B78     		ldrb	r3, [r3]	@ zero_extendqisi2
 224 00f4 5B08     		lsrs	r3, r3, #1
 225 00f6 DBB2     		uxtb	r3, r3
 226 00f8 63F07F03 		orn	r3, r3, #127
 227 00fc DBB2     		uxtb	r3, r3
 228 00fe F868     		ldr	r0, [r7, #12]
 229 0100 B968     		ldr	r1, [r7, #8]
 230 0102 1A46     		mov	r2, r3
 231 0104 FFF7FEFF 		bl	u8g_WriteByte
 126:.\u8glib_arm_v1.18.1\src/u8g_dev_pcd8544_84x48.c ****       u8g_SetChipSelect(u8g, dev, 0);
 232              		.loc 1 126 0
 233 0108 F868     		ldr	r0, [r7, #12]
 234 010a B968     		ldr	r1, [r7, #8]
 235 010c 0022     		movs	r2, #0
 236 010e FFF7FEFF 		bl	u8g_SetChipSelect
 127:.\u8glib_arm_v1.18.1\src/u8g_dev_pcd8544_84x48.c ****       return 1;
 237              		.loc 1 127 0
 238 0112 0123     		movs	r3, #1
 239 0114 15E0     		b	.L11
 240              	.L7:
 128:.\u8glib_arm_v1.18.1\src/u8g_dev_pcd8544_84x48.c ****     case U8G_DEV_MSG_SLEEP_ON:
 129:.\u8glib_arm_v1.18.1\src/u8g_dev_pcd8544_84x48.c ****       u8g_WriteEscSeqP(u8g, dev, u8g_dev_pcd8544_sleep_on);    
 241              		.loc 1 129 0
 242 0116 F868     		ldr	r0, [r7, #12]
 243 0118 B968     		ldr	r1, [r7, #8]
 244 011a 0D4A     		ldr	r2, .L12+4
 245 011c FFF7FEFF 		bl	u8g_WriteEscSeqP
 130:.\u8glib_arm_v1.18.1\src/u8g_dev_pcd8544_84x48.c ****       return 1;
 246              		.loc 1 130 0
 247 0120 0123     		movs	r3, #1
 248 0122 0EE0     		b	.L11
 249              	.L8:
 131:.\u8glib_arm_v1.18.1\src/u8g_dev_pcd8544_84x48.c ****     case U8G_DEV_MSG_SLEEP_OFF:
 132:.\u8glib_arm_v1.18.1\src/u8g_dev_pcd8544_84x48.c ****       u8g_WriteEscSeqP(u8g, dev, u8g_dev_pcd8544_sleep_off);    
 250              		.loc 1 132 0
 251 0124 F868     		ldr	r0, [r7, #12]
 252 0126 B968     		ldr	r1, [r7, #8]
 253 0128 0A4A     		ldr	r2, .L12+8
 254 012a FFF7FEFF 		bl	u8g_WriteEscSeqP
 133:.\u8glib_arm_v1.18.1\src/u8g_dev_pcd8544_84x48.c ****       return 1;
 255              		.loc 1 133 0
 256 012e 0123     		movs	r3, #1
 257 0130 07E0     		b	.L11
 258              	.L2:
 134:.\u8glib_arm_v1.18.1\src/u8g_dev_pcd8544_84x48.c ****   }
 135:.\u8glib_arm_v1.18.1\src/u8g_dev_pcd8544_84x48.c ****   return u8g_dev_pb8v1_base_fn(u8g, dev, msg, arg);
 259              		.loc 1 135 0
 260 0132 FB79     		ldrb	r3, [r7, #7]	@ zero_extendqisi2
 261 0134 F868     		ldr	r0, [r7, #12]
 262 0136 B968     		ldr	r1, [r7, #8]
 263 0138 1A46     		mov	r2, r3
 264 013a 3B68     		ldr	r3, [r7]
ARM GAS  C:\Users\Shiguruy\AppData\Local\Temp\cc8ndPh9.s 			page 8


 265 013c FFF7FEFF 		bl	u8g_dev_pb8v1_base_fn
 266 0140 0346     		mov	r3, r0
 267              	.L11:
 136:.\u8glib_arm_v1.18.1\src/u8g_dev_pcd8544_84x48.c **** }
 268              		.loc 1 136 0
 269 0142 1846     		mov	r0, r3
 270 0144 1837     		adds	r7, r7, #24
 271              		.cfi_def_cfa_offset 8
 272 0146 BD46     		mov	sp, r7
 273              		.cfi_def_cfa_register 13
 274              		@ sp needed
 275 0148 80BD     		pop	{r7, pc}
 276              	.L13:
 277 014a 00BF     		.align	2
 278              	.L12:
 279 014c 00000000 		.word	u8g_dev_pcd8544_init_seq
 280 0150 20000000 		.word	u8g_dev_pcd8544_sleep_on
 281 0154 2C000000 		.word	u8g_dev_pcd8544_sleep_off
 282              		.cfi_endproc
 283              	.LFE0:
 284              		.size	u8g_dev_pcd8544_fn, .-u8g_dev_pcd8544_fn
 285              		.global	u8g_dev_pcd8544_84x48_sw_spi_buf
 286              		.bss
 287              		.align	2
 288              		.type	u8g_dev_pcd8544_84x48_sw_spi_buf, %object
 289              		.size	u8g_dev_pcd8544_84x48_sw_spi_buf, 84
 290              	u8g_dev_pcd8544_84x48_sw_spi_buf:
 291 0000 00000000 		.space	84
 291      00000000 
 291      00000000 
 291      00000000 
 291      00000000 
 292              		.global	u8g_dev_pcd8544_84x48_sw_spi_pb
 293              		.data
 294              		.align	2
 295              		.type	u8g_dev_pcd8544_84x48_sw_spi_pb, %object
 296              		.size	u8g_dev_pcd8544_84x48_sw_spi_pb, 12
 297              	u8g_dev_pcd8544_84x48_sw_spi_pb:
 298 0000 08       		.byte	8
 299 0001 30       		.byte	48
 300 0002 00       		.byte	0
 301 0003 00       		.byte	0
 302 0004 00       		.byte	0
 303 0005 54       		.byte	84
 304 0006 0000     		.space	2
 305 0008 00000000 		.word	u8g_dev_pcd8544_84x48_sw_spi_buf
 306              		.global	u8g_dev_pcd8544_84x48_sw_spi
 307              		.align	2
 308              		.type	u8g_dev_pcd8544_84x48_sw_spi, %object
 309              		.size	u8g_dev_pcd8544_84x48_sw_spi, 12
 310              	u8g_dev_pcd8544_84x48_sw_spi:
 311 000c 00000000 		.word	u8g_dev_pcd8544_fn
 312 0010 00000000 		.word	u8g_dev_pcd8544_84x48_sw_spi_pb
 313 0014 00000000 		.word	u8g_com_null_fn
 314              		.global	u8g_dev_pcd8544_84x48_hw_spi_buf
 315              		.bss
 316              		.align	2
ARM GAS  C:\Users\Shiguruy\AppData\Local\Temp\cc8ndPh9.s 			page 9


 317              		.type	u8g_dev_pcd8544_84x48_hw_spi_buf, %object
 318              		.size	u8g_dev_pcd8544_84x48_hw_spi_buf, 84
 319              	u8g_dev_pcd8544_84x48_hw_spi_buf:
 320 0054 00000000 		.space	84
 320      00000000 
 320      00000000 
 320      00000000 
 320      00000000 
 321              		.global	u8g_dev_pcd8544_84x48_hw_spi_pb
 322              		.data
 323              		.align	2
 324              		.type	u8g_dev_pcd8544_84x48_hw_spi_pb, %object
 325              		.size	u8g_dev_pcd8544_84x48_hw_spi_pb, 12
 326              	u8g_dev_pcd8544_84x48_hw_spi_pb:
 327 0018 08       		.byte	8
 328 0019 30       		.byte	48
 329 001a 00       		.byte	0
 330 001b 00       		.byte	0
 331 001c 00       		.byte	0
 332 001d 54       		.byte	84
 333 001e 0000     		.space	2
 334 0020 00000000 		.word	u8g_dev_pcd8544_84x48_hw_spi_buf
 335              		.global	u8g_dev_pcd8544_84x48_hw_spi
 336              		.align	2
 337              		.type	u8g_dev_pcd8544_84x48_hw_spi, %object
 338              		.size	u8g_dev_pcd8544_84x48_hw_spi, 12
 339              	u8g_dev_pcd8544_84x48_hw_spi:
 340 0024 00000000 		.word	u8g_dev_pcd8544_fn
 341 0028 00000000 		.word	u8g_dev_pcd8544_84x48_hw_spi_pb
 342 002c 00000000 		.word	u8g_com_null_fn
 343              		.text
 344              	.Letext0:
 345              		.file 2 "c:\\program files (x86)\\cypress\\psoc creator\\3.3\\psoc creator\\import\\gnu\\arm\\4.9.
 346              		.file 3 "c:\\program files (x86)\\cypress\\psoc creator\\3.3\\psoc creator\\import\\gnu\\arm\\4.9.
 347              		.file 4 ".\\u8glib_arm_v1.18.1\\src\\u8g.h"