ARM GAS  C:\Users\KJA\AppData\Local\Temp\cciK04DB.s 			page 1


   1              		.syntax unified
   2              		.cpu cortex-m3
   3              		.fpu softvfp
   4              		.eabi_attribute 20, 1
   5              		.eabi_attribute 21, 1
   6              		.eabi_attribute 23, 3
   7              		.eabi_attribute 24, 1
   8              		.eabi_attribute 25, 1
   9              		.eabi_attribute 26, 1
  10              		.eabi_attribute 30, 6
  11              		.eabi_attribute 34, 1
  12              		.eabi_attribute 18, 4
  13              		.thumb
  14              		.file	"u8g_pb32h1.c"
  15              		.text
  16              	.Ltext0:
  17              		.cfi_sections	.debug_frame
  18              		.section	.text.u8g_pb32h1_Clear,"ax",%progbits
  19              		.align	2
  20              		.global	u8g_pb32h1_Clear
  21              		.thumb
  22              		.thumb_func
  23              		.type	u8g_pb32h1_Clear, %function
  24              	u8g_pb32h1_Clear:
  25              	.LFB0:
  26              		.file 1 "u8glib_arm_v1.18.1\\src\\u8g_pb32h1.c"
   1:u8glib_arm_v1.18.1\src/u8g_pb32h1.c **** /*
   2:u8glib_arm_v1.18.1\src/u8g_pb32h1.c **** 
   3:u8glib_arm_v1.18.1\src/u8g_pb32h1.c ****   u8g_pb32h1.c
   4:u8glib_arm_v1.18.1\src/u8g_pb32h1.c ****   
   5:u8glib_arm_v1.18.1\src/u8g_pb32h1.c ****   2x 8bit height monochrom (1 bit) page buffer
   6:u8glib_arm_v1.18.1\src/u8g_pb32h1.c ****   byte has horizontal orientation
   7:u8glib_arm_v1.18.1\src/u8g_pb32h1.c **** 
   8:u8glib_arm_v1.18.1\src/u8g_pb32h1.c ****   Universal 8bit Graphics Library
   9:u8glib_arm_v1.18.1\src/u8g_pb32h1.c ****   
  10:u8glib_arm_v1.18.1\src/u8g_pb32h1.c ****   Copyright (c) 2012, olikraus@gmail.com
  11:u8glib_arm_v1.18.1\src/u8g_pb32h1.c ****   All rights reserved.
  12:u8glib_arm_v1.18.1\src/u8g_pb32h1.c **** 
  13:u8glib_arm_v1.18.1\src/u8g_pb32h1.c ****   Redistribution and use in source and binary forms, with or without modification, 
  14:u8glib_arm_v1.18.1\src/u8g_pb32h1.c ****   are permitted provided that the following conditions are met:
  15:u8glib_arm_v1.18.1\src/u8g_pb32h1.c **** 
  16:u8glib_arm_v1.18.1\src/u8g_pb32h1.c ****   * Redistributions of source code must retain the above copyright notice, this list 
  17:u8glib_arm_v1.18.1\src/u8g_pb32h1.c ****     of conditions and the following disclaimer.
  18:u8glib_arm_v1.18.1\src/u8g_pb32h1.c ****     
  19:u8glib_arm_v1.18.1\src/u8g_pb32h1.c ****   * Redistributions in binary form must reproduce the above copyright notice, this 
  20:u8glib_arm_v1.18.1\src/u8g_pb32h1.c ****     list of conditions and the following disclaimer in the documentation and/or other 
  21:u8glib_arm_v1.18.1\src/u8g_pb32h1.c ****     materials provided with the distribution.
  22:u8glib_arm_v1.18.1\src/u8g_pb32h1.c **** 
  23:u8glib_arm_v1.18.1\src/u8g_pb32h1.c ****   THIS SOFTWARE IS PROVIDED BY THE COPYRIGHT HOLDERS AND 
  24:u8glib_arm_v1.18.1\src/u8g_pb32h1.c ****   CONTRIBUTORS "AS IS" AND ANY EXPRESS OR IMPLIED WARRANTIES, 
  25:u8glib_arm_v1.18.1\src/u8g_pb32h1.c ****   INCLUDING, BUT NOT LIMITED TO, THE IMPLIED WARRANTIES OF 
  26:u8glib_arm_v1.18.1\src/u8g_pb32h1.c ****   MERCHANTABILITY AND FITNESS FOR A PARTICULAR PURPOSE ARE 
  27:u8glib_arm_v1.18.1\src/u8g_pb32h1.c ****   DISCLAIMED. IN NO EVENT SHALL THE COPYRIGHT HOLDER OR 
  28:u8glib_arm_v1.18.1\src/u8g_pb32h1.c ****   CONTRIBUTORS BE LIABLE FOR ANY DIRECT, INDIRECT, INCIDENTAL, 
  29:u8glib_arm_v1.18.1\src/u8g_pb32h1.c ****   SPECIAL, EXEMPLARY, OR CONSEQUENTIAL DAMAGES (INCLUDING, BUT 
  30:u8glib_arm_v1.18.1\src/u8g_pb32h1.c ****   NOT LIMITED TO, PROCUREMENT OF SUBSTITUTE GOODS OR SERVICES; 
  31:u8glib_arm_v1.18.1\src/u8g_pb32h1.c ****   LOSS OF USE, DATA, OR PROFITS; OR BUSINESS INTERRUPTION) HOWEVER 
ARM GAS  C:\Users\KJA\AppData\Local\Temp\cciK04DB.s 			page 2


  32:u8glib_arm_v1.18.1\src/u8g_pb32h1.c ****   CAUSED AND ON ANY THEORY OF LIABILITY, WHETHER IN CONTRACT, 
  33:u8glib_arm_v1.18.1\src/u8g_pb32h1.c ****   STRICT LIABILITY, OR TORT (INCLUDING NEGLIGENCE OR OTHERWISE) 
  34:u8glib_arm_v1.18.1\src/u8g_pb32h1.c ****   ARISING IN ANY WAY OUT OF THE USE OF THIS SOFTWARE, EVEN IF 
  35:u8glib_arm_v1.18.1\src/u8g_pb32h1.c ****   ADVISED OF THE POSSIBILITY OF SUCH DAMAGE.  
  36:u8glib_arm_v1.18.1\src/u8g_pb32h1.c **** 
  37:u8glib_arm_v1.18.1\src/u8g_pb32h1.c **** 
  38:u8glib_arm_v1.18.1\src/u8g_pb32h1.c ****   total buffer size is limited to 2*256 bytes because of the calculation inside the set pixel proce
  39:u8glib_arm_v1.18.1\src/u8g_pb32h1.c **** 
  40:u8glib_arm_v1.18.1\src/u8g_pb32h1.c **** 
  41:u8glib_arm_v1.18.1\src/u8g_pb32h1.c **** */
  42:u8glib_arm_v1.18.1\src/u8g_pb32h1.c **** 
  43:u8glib_arm_v1.18.1\src/u8g_pb32h1.c **** #include "u8g.h"
  44:u8glib_arm_v1.18.1\src/u8g_pb32h1.c **** #include <string.h>
  45:u8glib_arm_v1.18.1\src/u8g_pb32h1.c **** 
  46:u8glib_arm_v1.18.1\src/u8g_pb32h1.c **** 
  47:u8glib_arm_v1.18.1\src/u8g_pb32h1.c **** void u8g_pb32h1_Init(u8g_pb_t *b, void *buf, u8g_uint_t width) U8G_NOINLINE;
  48:u8glib_arm_v1.18.1\src/u8g_pb32h1.c **** void u8g_pb32h1_set_pixel(u8g_pb_t *b, u8g_uint_t x, u8g_uint_t y, uint8_t color_index) U8G_NOINLIN
  49:u8glib_arm_v1.18.1\src/u8g_pb32h1.c **** void u8g_pb32h1_SetPixel(u8g_pb_t *b, const u8g_dev_arg_pixel_t * const arg_pixel) U8G_NOINLINE ;
  50:u8glib_arm_v1.18.1\src/u8g_pb32h1.c **** void u8g_pb32h1_Set8PixelStd(u8g_pb_t *b, u8g_dev_arg_pixel_t *arg_pixel) U8G_NOINLINE;
  51:u8glib_arm_v1.18.1\src/u8g_pb32h1.c **** uint8_t u8g_dev_pb8h1_base_fn(u8g_t *u8g, u8g_dev_t *dev, uint8_t msg, void *arg);
  52:u8glib_arm_v1.18.1\src/u8g_pb32h1.c **** 
  53:u8glib_arm_v1.18.1\src/u8g_pb32h1.c **** void u8g_pb32h1_Clear(u8g_pb_t *b)
  54:u8glib_arm_v1.18.1\src/u8g_pb32h1.c **** {
  27              		.loc 1 54 0
  28              		.cfi_startproc
  29              		@ args = 0, pretend = 0, frame = 16
  30              		@ frame_needed = 1, uses_anonymous_args = 0
  31              		@ link register save eliminated.
  32 0000 80B4     		push	{r7}
  33              		.cfi_def_cfa_offset 4
  34              		.cfi_offset 7, -4
  35 0002 85B0     		sub	sp, sp, #20
  36              		.cfi_def_cfa_offset 24
  37 0004 00AF     		add	r7, sp, #0
  38              		.cfi_def_cfa_register 7
  39 0006 7860     		str	r0, [r7, #4]
  55:u8glib_arm_v1.18.1\src/u8g_pb32h1.c ****   uint8_t *ptr = (uint8_t *)b->buf;
  40              		.loc 1 55 0
  41 0008 7B68     		ldr	r3, [r7, #4]
  42 000a 9B68     		ldr	r3, [r3, #8]
  43 000c FB60     		str	r3, [r7, #12]
  56:u8glib_arm_v1.18.1\src/u8g_pb32h1.c ****   uint8_t *end_ptr = ptr;
  44              		.loc 1 56 0
  45 000e FB68     		ldr	r3, [r7, #12]
  46 0010 BB60     		str	r3, [r7, #8]
  57:u8glib_arm_v1.18.1\src/u8g_pb32h1.c ****   end_ptr += b->width*4;
  47              		.loc 1 57 0
  48 0012 7B68     		ldr	r3, [r7, #4]
  49 0014 5B79     		ldrb	r3, [r3, #5]	@ zero_extendqisi2
  50 0016 9B00     		lsls	r3, r3, #2
  51 0018 1A46     		mov	r2, r3
  52 001a BB68     		ldr	r3, [r7, #8]
  53 001c 1344     		add	r3, r3, r2
  54 001e BB60     		str	r3, [r7, #8]
  55              	.L2:
  58:u8glib_arm_v1.18.1\src/u8g_pb32h1.c ****   do
  59:u8glib_arm_v1.18.1\src/u8g_pb32h1.c ****   {
ARM GAS  C:\Users\KJA\AppData\Local\Temp\cciK04DB.s 			page 3


  60:u8glib_arm_v1.18.1\src/u8g_pb32h1.c ****     *ptr++ = 0;
  56              		.loc 1 60 0 discriminator 1
  57 0020 FB68     		ldr	r3, [r7, #12]
  58 0022 5A1C     		adds	r2, r3, #1
  59 0024 FA60     		str	r2, [r7, #12]
  60 0026 0022     		movs	r2, #0
  61 0028 1A70     		strb	r2, [r3]
  61:u8glib_arm_v1.18.1\src/u8g_pb32h1.c ****   } while( ptr != end_ptr );
  62              		.loc 1 61 0 discriminator 1
  63 002a FA68     		ldr	r2, [r7, #12]
  64 002c BB68     		ldr	r3, [r7, #8]
  65 002e 9A42     		cmp	r2, r3
  66 0030 F6D1     		bne	.L2
  62:u8glib_arm_v1.18.1\src/u8g_pb32h1.c **** }
  67              		.loc 1 62 0
  68 0032 1437     		adds	r7, r7, #20
  69              		.cfi_def_cfa_offset 4
  70 0034 BD46     		mov	sp, r7
  71              		.cfi_def_cfa_register 13
  72              		@ sp needed
  73 0036 5DF8047B 		ldr	r7, [sp], #4
  74              		.cfi_restore 7
  75              		.cfi_def_cfa_offset 0
  76 003a 7047     		bx	lr
  77              		.cfi_endproc
  78              	.LFE0:
  79              		.size	u8g_pb32h1_Clear, .-u8g_pb32h1_Clear
  80              		.section	.text.u8g_pb32h1_Init,"ax",%progbits
  81              		.align	2
  82              		.global	u8g_pb32h1_Init
  83              		.thumb
  84              		.thumb_func
  85              		.type	u8g_pb32h1_Init, %function
  86              	u8g_pb32h1_Init:
  87              	.LFB1:
  63:u8glib_arm_v1.18.1\src/u8g_pb32h1.c **** 
  64:u8glib_arm_v1.18.1\src/u8g_pb32h1.c **** 
  65:u8glib_arm_v1.18.1\src/u8g_pb32h1.c **** 
  66:u8glib_arm_v1.18.1\src/u8g_pb32h1.c **** void u8g_pb32h1_Init(u8g_pb_t *b, void *buf, u8g_uint_t width)
  67:u8glib_arm_v1.18.1\src/u8g_pb32h1.c **** {
  88              		.loc 1 67 0
  89              		.cfi_startproc
  90              		@ args = 0, pretend = 0, frame = 16
  91              		@ frame_needed = 1, uses_anonymous_args = 0
  92 0000 80B5     		push	{r7, lr}
  93              		.cfi_def_cfa_offset 8
  94              		.cfi_offset 7, -8
  95              		.cfi_offset 14, -4
  96 0002 84B0     		sub	sp, sp, #16
  97              		.cfi_def_cfa_offset 24
  98 0004 00AF     		add	r7, sp, #0
  99              		.cfi_def_cfa_register 7
 100 0006 F860     		str	r0, [r7, #12]
 101 0008 B960     		str	r1, [r7, #8]
 102 000a 1346     		mov	r3, r2
 103 000c FB71     		strb	r3, [r7, #7]
  68:u8glib_arm_v1.18.1\src/u8g_pb32h1.c ****   b->buf = buf;
ARM GAS  C:\Users\KJA\AppData\Local\Temp\cciK04DB.s 			page 4


 104              		.loc 1 68 0
 105 000e FB68     		ldr	r3, [r7, #12]
 106 0010 BA68     		ldr	r2, [r7, #8]
 107 0012 9A60     		str	r2, [r3, #8]
  69:u8glib_arm_v1.18.1\src/u8g_pb32h1.c ****   b->width = width;
 108              		.loc 1 69 0
 109 0014 FB68     		ldr	r3, [r7, #12]
 110 0016 FA79     		ldrb	r2, [r7, #7]
 111 0018 5A71     		strb	r2, [r3, #5]
  70:u8glib_arm_v1.18.1\src/u8g_pb32h1.c ****   u8g_pb32h1_Clear(b);
 112              		.loc 1 70 0
 113 001a F868     		ldr	r0, [r7, #12]
 114 001c FFF7FEFF 		bl	u8g_pb32h1_Clear
  71:u8glib_arm_v1.18.1\src/u8g_pb32h1.c **** }
 115              		.loc 1 71 0
 116 0020 1037     		adds	r7, r7, #16
 117              		.cfi_def_cfa_offset 8
 118 0022 BD46     		mov	sp, r7
 119              		.cfi_def_cfa_register 13
 120              		@ sp needed
 121 0024 80BD     		pop	{r7, pc}
 122              		.cfi_endproc
 123              	.LFE1:
 124              		.size	u8g_pb32h1_Init, .-u8g_pb32h1_Init
 125 0026 00BF     		.section	.text.u8g_pb32h1_set_pixel,"ax",%progbits
 126              		.align	2
 127              		.global	u8g_pb32h1_set_pixel
 128              		.thumb
 129              		.thumb_func
 130              		.type	u8g_pb32h1_set_pixel, %function
 131              	u8g_pb32h1_set_pixel:
 132              	.LFB2:
  72:u8glib_arm_v1.18.1\src/u8g_pb32h1.c **** 
  73:u8glib_arm_v1.18.1\src/u8g_pb32h1.c **** 
  74:u8glib_arm_v1.18.1\src/u8g_pb32h1.c **** /* limitation: total buffer must not exceed 2*256 bytes */
  75:u8glib_arm_v1.18.1\src/u8g_pb32h1.c **** void u8g_pb32h1_set_pixel(u8g_pb_t *b, u8g_uint_t x, u8g_uint_t y, uint8_t color_index)
  76:u8glib_arm_v1.18.1\src/u8g_pb32h1.c **** {
 133              		.loc 1 76 0
 134              		.cfi_startproc
 135              		@ args = 0, pretend = 0, frame = 16
 136              		@ frame_needed = 1, uses_anonymous_args = 0
 137              		@ link register save eliminated.
 138 0000 90B4     		push	{r4, r7}
 139              		.cfi_def_cfa_offset 8
 140              		.cfi_offset 4, -8
 141              		.cfi_offset 7, -4
 142 0002 84B0     		sub	sp, sp, #16
 143              		.cfi_def_cfa_offset 24
 144 0004 00AF     		add	r7, sp, #0
 145              		.cfi_def_cfa_register 7
 146 0006 7860     		str	r0, [r7, #4]
 147 0008 0846     		mov	r0, r1
 148 000a 1146     		mov	r1, r2
 149 000c 1A46     		mov	r2, r3
 150 000e 0346     		mov	r3, r0
 151 0010 FB70     		strb	r3, [r7, #3]
 152 0012 0B46     		mov	r3, r1
ARM GAS  C:\Users\KJA\AppData\Local\Temp\cciK04DB.s 			page 5


 153 0014 BB70     		strb	r3, [r7, #2]
 154 0016 1346     		mov	r3, r2
 155 0018 7B70     		strb	r3, [r7, #1]
  77:u8glib_arm_v1.18.1\src/u8g_pb32h1.c ****   register uint8_t mask;
  78:u8glib_arm_v1.18.1\src/u8g_pb32h1.c ****   uint16_t tmp;
  79:u8glib_arm_v1.18.1\src/u8g_pb32h1.c ****   uint8_t *ptr = b->buf;
 156              		.loc 1 79 0
 157 001a 7B68     		ldr	r3, [r7, #4]
 158 001c 9B68     		ldr	r3, [r3, #8]
 159 001e FB60     		str	r3, [r7, #12]
  80:u8glib_arm_v1.18.1\src/u8g_pb32h1.c ****   
  81:u8glib_arm_v1.18.1\src/u8g_pb32h1.c ****   y -= b->p.page_y0;
 160              		.loc 1 81 0
 161 0020 7B68     		ldr	r3, [r7, #4]
 162 0022 9B78     		ldrb	r3, [r3, #2]	@ zero_extendqisi2
 163 0024 BA78     		ldrb	r2, [r7, #2]
 164 0026 D31A     		subs	r3, r2, r3
 165 0028 BB70     		strb	r3, [r7, #2]
  82:u8glib_arm_v1.18.1\src/u8g_pb32h1.c ****   tmp = b->width;
 166              		.loc 1 82 0
 167 002a 7B68     		ldr	r3, [r7, #4]
 168 002c 5B79     		ldrb	r3, [r3, #5]	@ zero_extendqisi2
 169 002e 7B81     		strh	r3, [r7, #10]	@ movhi
  83:u8glib_arm_v1.18.1\src/u8g_pb32h1.c ****   tmp >>= 3;
 170              		.loc 1 83 0
 171 0030 7B89     		ldrh	r3, [r7, #10]
 172 0032 DB08     		lsrs	r3, r3, #3
 173 0034 7B81     		strh	r3, [r7, #10]	@ movhi
  84:u8glib_arm_v1.18.1\src/u8g_pb32h1.c ****   tmp *= y;
 174              		.loc 1 84 0
 175 0036 BB78     		ldrb	r3, [r7, #2]	@ zero_extendqisi2
 176 0038 9BB2     		uxth	r3, r3
 177 003a 7A89     		ldrh	r2, [r7, #10]	@ movhi
 178 003c 02FB03F3 		mul	r3, r2, r3
 179 0040 7B81     		strh	r3, [r7, #10]	@ movhi
  85:u8glib_arm_v1.18.1\src/u8g_pb32h1.c ****   ptr += tmp;
 180              		.loc 1 85 0
 181 0042 7B89     		ldrh	r3, [r7, #10]
 182 0044 FA68     		ldr	r2, [r7, #12]
 183 0046 1344     		add	r3, r3, r2
 184 0048 FB60     		str	r3, [r7, #12]
  86:u8glib_arm_v1.18.1\src/u8g_pb32h1.c ****   
  87:u8glib_arm_v1.18.1\src/u8g_pb32h1.c ****   mask = 0x080;
 185              		.loc 1 87 0
 186 004a 8024     		movs	r4, #128
  88:u8glib_arm_v1.18.1\src/u8g_pb32h1.c ****   mask >>= x & 7;
 187              		.loc 1 88 0
 188 004c 2246     		mov	r2, r4
 189 004e FB78     		ldrb	r3, [r7, #3]	@ zero_extendqisi2
 190 0050 03F00703 		and	r3, r3, #7
 191 0054 42FA03F3 		asr	r3, r2, r3
 192 0058 DCB2     		uxtb	r4, r3
  89:u8glib_arm_v1.18.1\src/u8g_pb32h1.c ****   x >>= 3;
 193              		.loc 1 89 0
 194 005a FB78     		ldrb	r3, [r7, #3]	@ zero_extendqisi2
 195 005c DB08     		lsrs	r3, r3, #3
 196 005e FB70     		strb	r3, [r7, #3]
ARM GAS  C:\Users\KJA\AppData\Local\Temp\cciK04DB.s 			page 6


  90:u8glib_arm_v1.18.1\src/u8g_pb32h1.c ****   ptr += x;
 197              		.loc 1 90 0
 198 0060 FB78     		ldrb	r3, [r7, #3]	@ zero_extendqisi2
 199 0062 FA68     		ldr	r2, [r7, #12]
 200 0064 1344     		add	r3, r3, r2
 201 0066 FB60     		str	r3, [r7, #12]
  91:u8glib_arm_v1.18.1\src/u8g_pb32h1.c ****   if ( color_index )
 202              		.loc 1 91 0
 203 0068 7B78     		ldrb	r3, [r7, #1]	@ zero_extendqisi2
 204 006a 002B     		cmp	r3, #0
 205 006c 06D0     		beq	.L5
  92:u8glib_arm_v1.18.1\src/u8g_pb32h1.c ****   {
  93:u8glib_arm_v1.18.1\src/u8g_pb32h1.c ****     *ptr |= mask;
 206              		.loc 1 93 0
 207 006e FB68     		ldr	r3, [r7, #12]
 208 0070 1B78     		ldrb	r3, [r3]	@ zero_extendqisi2
 209 0072 2343     		orrs	r3, r3, r4
 210 0074 DAB2     		uxtb	r2, r3
 211 0076 FB68     		ldr	r3, [r7, #12]
 212 0078 1A70     		strb	r2, [r3]
 213 007a 07E0     		b	.L4
 214              	.L5:
  94:u8glib_arm_v1.18.1\src/u8g_pb32h1.c ****   }
  95:u8glib_arm_v1.18.1\src/u8g_pb32h1.c ****   else
  96:u8glib_arm_v1.18.1\src/u8g_pb32h1.c ****   {
  97:u8glib_arm_v1.18.1\src/u8g_pb32h1.c ****     mask ^=0xff;
 215              		.loc 1 97 0
 216 007c E343     		mvns	r3, r4
 217 007e DCB2     		uxtb	r4, r3
  98:u8glib_arm_v1.18.1\src/u8g_pb32h1.c ****     *ptr &= mask;
 218              		.loc 1 98 0
 219 0080 FB68     		ldr	r3, [r7, #12]
 220 0082 1B78     		ldrb	r3, [r3]	@ zero_extendqisi2
 221 0084 2340     		ands	r3, r3, r4
 222 0086 DAB2     		uxtb	r2, r3
 223 0088 FB68     		ldr	r3, [r7, #12]
 224 008a 1A70     		strb	r2, [r3]
 225              	.L4:
  99:u8glib_arm_v1.18.1\src/u8g_pb32h1.c ****   }
 100:u8glib_arm_v1.18.1\src/u8g_pb32h1.c ****   
 101:u8glib_arm_v1.18.1\src/u8g_pb32h1.c **** }
 226              		.loc 1 101 0
 227 008c 1037     		adds	r7, r7, #16
 228              		.cfi_def_cfa_offset 8
 229 008e BD46     		mov	sp, r7
 230              		.cfi_def_cfa_register 13
 231              		@ sp needed
 232 0090 90BC     		pop	{r4, r7}
 233              		.cfi_restore 7
 234              		.cfi_restore 4
 235              		.cfi_def_cfa_offset 0
 236 0092 7047     		bx	lr
 237              		.cfi_endproc
 238              	.LFE2:
 239              		.size	u8g_pb32h1_set_pixel, .-u8g_pb32h1_set_pixel
 240              		.section	.text.u8g_pb32h1_SetPixel,"ax",%progbits
 241              		.align	2
ARM GAS  C:\Users\KJA\AppData\Local\Temp\cciK04DB.s 			page 7


 242              		.global	u8g_pb32h1_SetPixel
 243              		.thumb
 244              		.thumb_func
 245              		.type	u8g_pb32h1_SetPixel, %function
 246              	u8g_pb32h1_SetPixel:
 247              	.LFB3:
 102:u8glib_arm_v1.18.1\src/u8g_pb32h1.c **** 
 103:u8glib_arm_v1.18.1\src/u8g_pb32h1.c **** 
 104:u8glib_arm_v1.18.1\src/u8g_pb32h1.c **** void u8g_pb32h1_SetPixel(u8g_pb_t *b, const u8g_dev_arg_pixel_t * const arg_pixel)
 105:u8glib_arm_v1.18.1\src/u8g_pb32h1.c **** {
 248              		.loc 1 105 0
 249              		.cfi_startproc
 250              		@ args = 0, pretend = 0, frame = 8
 251              		@ frame_needed = 1, uses_anonymous_args = 0
 252 0000 80B5     		push	{r7, lr}
 253              		.cfi_def_cfa_offset 8
 254              		.cfi_offset 7, -8
 255              		.cfi_offset 14, -4
 256 0002 82B0     		sub	sp, sp, #8
 257              		.cfi_def_cfa_offset 16
 258 0004 00AF     		add	r7, sp, #0
 259              		.cfi_def_cfa_register 7
 260 0006 7860     		str	r0, [r7, #4]
 261 0008 3960     		str	r1, [r7]
 106:u8glib_arm_v1.18.1\src/u8g_pb32h1.c ****   if ( arg_pixel->y < b->p.page_y0 )
 262              		.loc 1 106 0
 263 000a 3B68     		ldr	r3, [r7]
 264 000c 5A78     		ldrb	r2, [r3, #1]	@ zero_extendqisi2
 265 000e 7B68     		ldr	r3, [r7, #4]
 266 0010 9B78     		ldrb	r3, [r3, #2]	@ zero_extendqisi2
 267 0012 9A42     		cmp	r2, r3
 268 0014 00D2     		bcs	.L8
 107:u8glib_arm_v1.18.1\src/u8g_pb32h1.c ****     return;
 269              		.loc 1 107 0
 270 0016 16E0     		b	.L7
 271              	.L8:
 108:u8glib_arm_v1.18.1\src/u8g_pb32h1.c ****   if ( arg_pixel->y > b->p.page_y1 )
 272              		.loc 1 108 0
 273 0018 3B68     		ldr	r3, [r7]
 274 001a 5A78     		ldrb	r2, [r3, #1]	@ zero_extendqisi2
 275 001c 7B68     		ldr	r3, [r7, #4]
 276 001e DB78     		ldrb	r3, [r3, #3]	@ zero_extendqisi2
 277 0020 9A42     		cmp	r2, r3
 278 0022 00D9     		bls	.L10
 109:u8glib_arm_v1.18.1\src/u8g_pb32h1.c ****     return;
 279              		.loc 1 109 0 discriminator 2
 280 0024 0FE0     		b	.L7
 281              	.L10:
 110:u8glib_arm_v1.18.1\src/u8g_pb32h1.c ****   if ( arg_pixel->x >= b->width )
 282              		.loc 1 110 0
 283 0026 3B68     		ldr	r3, [r7]
 284 0028 1A78     		ldrb	r2, [r3]	@ zero_extendqisi2
 285 002a 7B68     		ldr	r3, [r7, #4]
 286 002c 5B79     		ldrb	r3, [r3, #5]	@ zero_extendqisi2
 287 002e 9A42     		cmp	r2, r3
 288 0030 00D3     		bcc	.L11
 111:u8glib_arm_v1.18.1\src/u8g_pb32h1.c ****     return;
ARM GAS  C:\Users\KJA\AppData\Local\Temp\cciK04DB.s 			page 8


 289              		.loc 1 111 0 discriminator 3
 290 0032 08E0     		b	.L7
 291              	.L11:
 112:u8glib_arm_v1.18.1\src/u8g_pb32h1.c ****   u8g_pb32h1_set_pixel(b, arg_pixel->x, arg_pixel->y, arg_pixel->color);
 292              		.loc 1 112 0
 293 0034 3B68     		ldr	r3, [r7]
 294 0036 1978     		ldrb	r1, [r3]	@ zero_extendqisi2
 295 0038 3B68     		ldr	r3, [r7]
 296 003a 5A78     		ldrb	r2, [r3, #1]	@ zero_extendqisi2
 297 003c 3B68     		ldr	r3, [r7]
 298 003e 1B79     		ldrb	r3, [r3, #4]	@ zero_extendqisi2
 299 0040 7868     		ldr	r0, [r7, #4]
 300 0042 FFF7FEFF 		bl	u8g_pb32h1_set_pixel
 301              	.L7:
 113:u8glib_arm_v1.18.1\src/u8g_pb32h1.c **** }
 302              		.loc 1 113 0
 303 0046 0837     		adds	r7, r7, #8
 304              		.cfi_def_cfa_offset 8
 305 0048 BD46     		mov	sp, r7
 306              		.cfi_def_cfa_register 13
 307              		@ sp needed
 308 004a 80BD     		pop	{r7, pc}
 309              		.cfi_endproc
 310              	.LFE3:
 311              		.size	u8g_pb32h1_SetPixel, .-u8g_pb32h1_SetPixel
 312              		.section	.text.u8g_pb32h1_Set8PixelStd,"ax",%progbits
 313              		.align	2
 314              		.global	u8g_pb32h1_Set8PixelStd
 315              		.thumb
 316              		.thumb_func
 317              		.type	u8g_pb32h1_Set8PixelStd, %function
 318              	u8g_pb32h1_Set8PixelStd:
 319              	.LFB4:
 114:u8glib_arm_v1.18.1\src/u8g_pb32h1.c **** 
 115:u8glib_arm_v1.18.1\src/u8g_pb32h1.c **** void u8g_pb32h1_Set8PixelStd(u8g_pb_t *b, u8g_dev_arg_pixel_t *arg_pixel)
 116:u8glib_arm_v1.18.1\src/u8g_pb32h1.c **** {
 320              		.loc 1 116 0
 321              		.cfi_startproc
 322              		@ args = 0, pretend = 0, frame = 8
 323              		@ frame_needed = 1, uses_anonymous_args = 0
 324 0000 90B5     		push	{r4, r7, lr}
 325              		.cfi_def_cfa_offset 12
 326              		.cfi_offset 4, -12
 327              		.cfi_offset 7, -8
 328              		.cfi_offset 14, -4
 329 0002 83B0     		sub	sp, sp, #12
 330              		.cfi_def_cfa_offset 24
 331 0004 00AF     		add	r7, sp, #0
 332              		.cfi_def_cfa_register 7
 333 0006 7860     		str	r0, [r7, #4]
 334 0008 3960     		str	r1, [r7]
 117:u8glib_arm_v1.18.1\src/u8g_pb32h1.c ****   register uint8_t pixel = arg_pixel->pixel;
 335              		.loc 1 117 0
 336 000a 3B68     		ldr	r3, [r7]
 337 000c 9C78     		ldrb	r4, [r3, #2]	@ zero_extendqisi2
 338              	.L20:
 118:u8glib_arm_v1.18.1\src/u8g_pb32h1.c ****   do
ARM GAS  C:\Users\KJA\AppData\Local\Temp\cciK04DB.s 			page 9


 119:u8glib_arm_v1.18.1\src/u8g_pb32h1.c ****   {
 120:u8glib_arm_v1.18.1\src/u8g_pb32h1.c ****     if ( pixel & 128 )
 339              		.loc 1 120 0
 340 000e E3B2     		uxtb	r3, r4
 341 0010 5BB2     		sxtb	r3, r3
 342 0012 002B     		cmp	r3, #0
 343 0014 03DA     		bge	.L13
 121:u8glib_arm_v1.18.1\src/u8g_pb32h1.c ****     {
 122:u8glib_arm_v1.18.1\src/u8g_pb32h1.c ****       u8g_pb32h1_SetPixel(b, arg_pixel);
 344              		.loc 1 122 0
 345 0016 7868     		ldr	r0, [r7, #4]
 346 0018 3968     		ldr	r1, [r7]
 347 001a FFF7FEFF 		bl	u8g_pb32h1_SetPixel
 348              	.L13:
 123:u8glib_arm_v1.18.1\src/u8g_pb32h1.c ****     }
 124:u8glib_arm_v1.18.1\src/u8g_pb32h1.c ****     switch( arg_pixel->dir )
 349              		.loc 1 124 0
 350 001e 3B68     		ldr	r3, [r7]
 351 0020 DB78     		ldrb	r3, [r3, #3]	@ zero_extendqisi2
 352 0022 032B     		cmp	r3, #3
 353 0024 26D8     		bhi	.L14
 354 0026 01A2     		adr	r2, .L16
 355 0028 52F823F0 		ldr	pc, [r2, r3, lsl #2]
 356              		.p2align 2
 357              	.L16:
 358 002c 3D000000 		.word	.L15+1
 359 0030 4B000000 		.word	.L17+1
 360 0034 59000000 		.word	.L18+1
 361 0038 67000000 		.word	.L19+1
 362              		.p2align 1
 363              	.L15:
 125:u8glib_arm_v1.18.1\src/u8g_pb32h1.c ****     {
 126:u8glib_arm_v1.18.1\src/u8g_pb32h1.c ****       case 0: arg_pixel->x++; break;
 364              		.loc 1 126 0
 365 003c 3B68     		ldr	r3, [r7]
 366 003e 1B78     		ldrb	r3, [r3]	@ zero_extendqisi2
 367 0040 0133     		adds	r3, r3, #1
 368 0042 DAB2     		uxtb	r2, r3
 369 0044 3B68     		ldr	r3, [r7]
 370 0046 1A70     		strb	r2, [r3]
 371 0048 14E0     		b	.L14
 372              	.L17:
 127:u8glib_arm_v1.18.1\src/u8g_pb32h1.c ****       case 1: arg_pixel->y++; break;
 373              		.loc 1 127 0
 374 004a 3B68     		ldr	r3, [r7]
 375 004c 5B78     		ldrb	r3, [r3, #1]	@ zero_extendqisi2
 376 004e 0133     		adds	r3, r3, #1
 377 0050 DAB2     		uxtb	r2, r3
 378 0052 3B68     		ldr	r3, [r7]
 379 0054 5A70     		strb	r2, [r3, #1]
 380 0056 0DE0     		b	.L14
 381              	.L18:
 128:u8glib_arm_v1.18.1\src/u8g_pb32h1.c ****       case 2: arg_pixel->x--; break;
 382              		.loc 1 128 0
 383 0058 3B68     		ldr	r3, [r7]
 384 005a 1B78     		ldrb	r3, [r3]	@ zero_extendqisi2
 385 005c 013B     		subs	r3, r3, #1
ARM GAS  C:\Users\KJA\AppData\Local\Temp\cciK04DB.s 			page 10


 386 005e DAB2     		uxtb	r2, r3
 387 0060 3B68     		ldr	r3, [r7]
 388 0062 1A70     		strb	r2, [r3]
 389 0064 06E0     		b	.L14
 390              	.L19:
 129:u8glib_arm_v1.18.1\src/u8g_pb32h1.c ****       case 3: arg_pixel->y--; break;
 391              		.loc 1 129 0
 392 0066 3B68     		ldr	r3, [r7]
 393 0068 5B78     		ldrb	r3, [r3, #1]	@ zero_extendqisi2
 394 006a 013B     		subs	r3, r3, #1
 395 006c DAB2     		uxtb	r2, r3
 396 006e 3B68     		ldr	r3, [r7]
 397 0070 5A70     		strb	r2, [r3, #1]
 398 0072 00BF     		nop
 399              	.L14:
 130:u8glib_arm_v1.18.1\src/u8g_pb32h1.c ****     }
 131:u8glib_arm_v1.18.1\src/u8g_pb32h1.c ****     pixel <<= 1;
 400              		.loc 1 131 0
 401 0074 6300     		lsls	r3, r4, #1
 402 0076 DCB2     		uxtb	r4, r3
 132:u8glib_arm_v1.18.1\src/u8g_pb32h1.c ****   } while( pixel != 0  );
 403              		.loc 1 132 0
 404 0078 002C     		cmp	r4, #0
 405 007a C8D1     		bne	.L20
 133:u8glib_arm_v1.18.1\src/u8g_pb32h1.c **** }
 406              		.loc 1 133 0
 407 007c 0C37     		adds	r7, r7, #12
 408              		.cfi_def_cfa_offset 12
 409 007e BD46     		mov	sp, r7
 410              		.cfi_def_cfa_register 13
 411              		@ sp needed
 412 0080 90BD     		pop	{r4, r7, pc}
 413              		.cfi_endproc
 414              	.LFE4:
 415              		.size	u8g_pb32h1_Set8PixelStd, .-u8g_pb32h1_Set8PixelStd
 416 0082 00BF     		.section	.text.u8g_pb32h1_Set8PixelOpt2,"ax",%progbits
 417              		.align	2
 418              		.global	u8g_pb32h1_Set8PixelOpt2
 419              		.thumb
 420              		.thumb_func
 421              		.type	u8g_pb32h1_Set8PixelOpt2, %function
 422              	u8g_pb32h1_Set8PixelOpt2:
 423              	.LFB5:
 134:u8glib_arm_v1.18.1\src/u8g_pb32h1.c **** 
 135:u8glib_arm_v1.18.1\src/u8g_pb32h1.c **** void u8g_pb32h1_Set8PixelOpt2(u8g_pb_t *b, u8g_dev_arg_pixel_t *arg_pixel)
 136:u8glib_arm_v1.18.1\src/u8g_pb32h1.c **** {
 424              		.loc 1 136 0
 425              		.cfi_startproc
 426              		@ args = 0, pretend = 0, frame = 16
 427              		@ frame_needed = 1, uses_anonymous_args = 0
 428 0000 90B5     		push	{r4, r7, lr}
 429              		.cfi_def_cfa_offset 12
 430              		.cfi_offset 4, -12
 431              		.cfi_offset 7, -8
 432              		.cfi_offset 14, -4
 433 0002 85B0     		sub	sp, sp, #20
 434              		.cfi_def_cfa_offset 32
ARM GAS  C:\Users\KJA\AppData\Local\Temp\cciK04DB.s 			page 11


 435 0004 00AF     		add	r7, sp, #0
 436              		.cfi_def_cfa_register 7
 437 0006 7860     		str	r0, [r7, #4]
 438 0008 3960     		str	r1, [r7]
 137:u8glib_arm_v1.18.1\src/u8g_pb32h1.c ****   register uint8_t pixel = arg_pixel->pixel;
 439              		.loc 1 137 0
 440 000a 3B68     		ldr	r3, [r7]
 441 000c 9C78     		ldrb	r4, [r3, #2]	@ zero_extendqisi2
 138:u8glib_arm_v1.18.1\src/u8g_pb32h1.c ****   u8g_uint_t dx = 0;
 442              		.loc 1 138 0
 443 000e 0023     		movs	r3, #0
 444 0010 FB73     		strb	r3, [r7, #15]
 139:u8glib_arm_v1.18.1\src/u8g_pb32h1.c ****   u8g_uint_t dy = 0;
 445              		.loc 1 139 0
 446 0012 0023     		movs	r3, #0
 447 0014 BB73     		strb	r3, [r7, #14]
 140:u8glib_arm_v1.18.1\src/u8g_pb32h1.c ****   
 141:u8glib_arm_v1.18.1\src/u8g_pb32h1.c ****   switch( arg_pixel->dir )
 448              		.loc 1 141 0
 449 0016 3B68     		ldr	r3, [r7]
 450 0018 DB78     		ldrb	r3, [r3, #3]	@ zero_extendqisi2
 451 001a 032B     		cmp	r3, #3
 452 001c 1AD8     		bhi	.L22
 453 001e 01A2     		adr	r2, .L24
 454 0020 52F823F0 		ldr	pc, [r2, r3, lsl #2]
 455              		.p2align 2
 456              	.L24:
 457 0024 35000000 		.word	.L23+1
 458 0028 3D000000 		.word	.L25+1
 459 002c 45000000 		.word	.L26+1
 460 0030 4D000000 		.word	.L27+1
 461              		.p2align 1
 462              	.L23:
 142:u8glib_arm_v1.18.1\src/u8g_pb32h1.c ****   {
 143:u8glib_arm_v1.18.1\src/u8g_pb32h1.c ****     case 0: dx++; break;
 463              		.loc 1 143 0
 464 0034 FB7B     		ldrb	r3, [r7, #15]	@ zero_extendqisi2
 465 0036 0133     		adds	r3, r3, #1
 466 0038 FB73     		strb	r3, [r7, #15]
 467 003a 0BE0     		b	.L22
 468              	.L25:
 144:u8glib_arm_v1.18.1\src/u8g_pb32h1.c ****     case 1: dy++; break;
 469              		.loc 1 144 0
 470 003c BB7B     		ldrb	r3, [r7, #14]	@ zero_extendqisi2
 471 003e 0133     		adds	r3, r3, #1
 472 0040 BB73     		strb	r3, [r7, #14]
 473 0042 07E0     		b	.L22
 474              	.L26:
 145:u8glib_arm_v1.18.1\src/u8g_pb32h1.c ****     case 2: dx--; break;
 475              		.loc 1 145 0
 476 0044 FB7B     		ldrb	r3, [r7, #15]	@ zero_extendqisi2
 477 0046 013B     		subs	r3, r3, #1
 478 0048 FB73     		strb	r3, [r7, #15]
 479 004a 03E0     		b	.L22
 480              	.L27:
 146:u8glib_arm_v1.18.1\src/u8g_pb32h1.c ****     case 3: dy--; break;
 481              		.loc 1 146 0
ARM GAS  C:\Users\KJA\AppData\Local\Temp\cciK04DB.s 			page 12


 482 004c BB7B     		ldrb	r3, [r7, #14]	@ zero_extendqisi2
 483 004e 013B     		subs	r3, r3, #1
 484 0050 BB73     		strb	r3, [r7, #14]
 485 0052 00BF     		nop
 486              	.L22:
 147:u8glib_arm_v1.18.1\src/u8g_pb32h1.c ****   }
 148:u8glib_arm_v1.18.1\src/u8g_pb32h1.c ****   
 149:u8glib_arm_v1.18.1\src/u8g_pb32h1.c ****   do
 150:u8glib_arm_v1.18.1\src/u8g_pb32h1.c ****   {
 151:u8glib_arm_v1.18.1\src/u8g_pb32h1.c ****     if ( pixel & 128 )
 487              		.loc 1 151 0
 488 0054 E3B2     		uxtb	r3, r4
 489 0056 5BB2     		sxtb	r3, r3
 490 0058 002B     		cmp	r3, #0
 491 005a 03DA     		bge	.L28
 152:u8glib_arm_v1.18.1\src/u8g_pb32h1.c ****       u8g_pb32h1_SetPixel(b, arg_pixel);
 492              		.loc 1 152 0
 493 005c 7868     		ldr	r0, [r7, #4]
 494 005e 3968     		ldr	r1, [r7]
 495 0060 FFF7FEFF 		bl	u8g_pb32h1_SetPixel
 496              	.L28:
 153:u8glib_arm_v1.18.1\src/u8g_pb32h1.c ****     arg_pixel->x += dx;
 497              		.loc 1 153 0
 498 0064 3B68     		ldr	r3, [r7]
 499 0066 1A78     		ldrb	r2, [r3]	@ zero_extendqisi2
 500 0068 FB7B     		ldrb	r3, [r7, #15]
 501 006a 1344     		add	r3, r3, r2
 502 006c DAB2     		uxtb	r2, r3
 503 006e 3B68     		ldr	r3, [r7]
 504 0070 1A70     		strb	r2, [r3]
 154:u8glib_arm_v1.18.1\src/u8g_pb32h1.c ****     arg_pixel->y += dy;
 505              		.loc 1 154 0
 506 0072 3B68     		ldr	r3, [r7]
 507 0074 5A78     		ldrb	r2, [r3, #1]	@ zero_extendqisi2
 508 0076 BB7B     		ldrb	r3, [r7, #14]
 509 0078 1344     		add	r3, r3, r2
 510 007a DAB2     		uxtb	r2, r3
 511 007c 3B68     		ldr	r3, [r7]
 512 007e 5A70     		strb	r2, [r3, #1]
 155:u8glib_arm_v1.18.1\src/u8g_pb32h1.c ****     pixel <<= 1;
 513              		.loc 1 155 0
 514 0080 6300     		lsls	r3, r4, #1
 515 0082 DCB2     		uxtb	r4, r3
 156:u8glib_arm_v1.18.1\src/u8g_pb32h1.c ****   } while( pixel != 0  );  
 516              		.loc 1 156 0
 517 0084 002C     		cmp	r4, #0
 518 0086 E5D1     		bne	.L22
 157:u8glib_arm_v1.18.1\src/u8g_pb32h1.c **** }
 519              		.loc 1 157 0
 520 0088 1437     		adds	r7, r7, #20
 521              		.cfi_def_cfa_offset 12
 522 008a BD46     		mov	sp, r7
 523              		.cfi_def_cfa_register 13
 524              		@ sp needed
 525 008c 90BD     		pop	{r4, r7, pc}
 526              		.cfi_endproc
 527              	.LFE5:
ARM GAS  C:\Users\KJA\AppData\Local\Temp\cciK04DB.s 			page 13


 528              		.size	u8g_pb32h1_Set8PixelOpt2, .-u8g_pb32h1_Set8PixelOpt2
 529 008e 00BF     		.section	.text.u8g_dev_pb32h1_base_fn,"ax",%progbits
 530              		.align	2
 531              		.global	u8g_dev_pb32h1_base_fn
 532              		.thumb
 533              		.thumb_func
 534              		.type	u8g_dev_pb32h1_base_fn, %function
 535              	u8g_dev_pb32h1_base_fn:
 536              	.LFB6:
 158:u8glib_arm_v1.18.1\src/u8g_pb32h1.c **** 
 159:u8glib_arm_v1.18.1\src/u8g_pb32h1.c **** 
 160:u8glib_arm_v1.18.1\src/u8g_pb32h1.c **** uint8_t u8g_dev_pb32h1_base_fn(u8g_t *u8g, u8g_dev_t *dev, uint8_t msg, void *arg)
 161:u8glib_arm_v1.18.1\src/u8g_pb32h1.c **** {
 537              		.loc 1 161 0
 538              		.cfi_startproc
 539              		@ args = 0, pretend = 0, frame = 24
 540              		@ frame_needed = 1, uses_anonymous_args = 0
 541 0000 80B5     		push	{r7, lr}
 542              		.cfi_def_cfa_offset 8
 543              		.cfi_offset 7, -8
 544              		.cfi_offset 14, -4
 545 0002 86B0     		sub	sp, sp, #24
 546              		.cfi_def_cfa_offset 32
 547 0004 00AF     		add	r7, sp, #0
 548              		.cfi_def_cfa_register 7
 549 0006 F860     		str	r0, [r7, #12]
 550 0008 B960     		str	r1, [r7, #8]
 551 000a 3B60     		str	r3, [r7]
 552 000c 1346     		mov	r3, r2
 553 000e FB71     		strb	r3, [r7, #7]
 162:u8glib_arm_v1.18.1\src/u8g_pb32h1.c ****   u8g_pb_t *pb = (u8g_pb_t *)(dev->dev_mem);
 554              		.loc 1 162 0
 555 0010 BB68     		ldr	r3, [r7, #8]
 556 0012 5B68     		ldr	r3, [r3, #4]
 557 0014 7B61     		str	r3, [r7, #20]
 163:u8glib_arm_v1.18.1\src/u8g_pb32h1.c ****   switch(msg)
 558              		.loc 1 163 0
 559 0016 FB79     		ldrb	r3, [r7, #7]	@ zero_extendqisi2
 560 0018 0A3B     		subs	r3, r3, #10
 561 001a 3E2B     		cmp	r3, #62
 562 001c 00F2BA80 		bhi	.L30
 563 0020 01A2     		adr	r2, .L32
 564 0022 52F823F0 		ldr	pc, [r2, r3, lsl #2]
 565 0026 00BF     		.p2align 2
 566              	.L32:
 567 0028 95010000 		.word	.L30+1
 568 002c 95010000 		.word	.L30+1
 569 0030 95010000 		.word	.L30+1
 570 0034 95010000 		.word	.L30+1
 571 0038 95010000 		.word	.L30+1
 572 003c 95010000 		.word	.L30+1
 573 0040 95010000 		.word	.L30+1
 574 0044 95010000 		.word	.L30+1
 575 0048 95010000 		.word	.L30+1
 576 004c 95010000 		.word	.L30+1
 577 0050 49010000 		.word	.L34+1
 578 0054 59010000 		.word	.L35+1
ARM GAS  C:\Users\KJA\AppData\Local\Temp\cciK04DB.s 			page 14


 579 0058 95010000 		.word	.L30+1
 580 005c 73010000 		.word	.L36+1
 581 0060 95010000 		.word	.L30+1
 582 0064 95010000 		.word	.L30+1
 583 0068 95010000 		.word	.L30+1
 584 006c 95010000 		.word	.L30+1
 585 0070 95010000 		.word	.L30+1
 586 0074 95010000 		.word	.L30+1
 587 0078 95010000 		.word	.L30+1
 588 007c 95010000 		.word	.L30+1
 589 0080 95010000 		.word	.L30+1
 590 0084 95010000 		.word	.L30+1
 591 0088 95010000 		.word	.L30+1
 592 008c 95010000 		.word	.L30+1
 593 0090 95010000 		.word	.L30+1
 594 0094 95010000 		.word	.L30+1
 595 0098 95010000 		.word	.L30+1
 596 009c 95010000 		.word	.L30+1
 597 00a0 95010000 		.word	.L30+1
 598 00a4 95010000 		.word	.L30+1
 599 00a8 95010000 		.word	.L30+1
 600 00ac 95010000 		.word	.L30+1
 601 00b0 95010000 		.word	.L30+1
 602 00b4 95010000 		.word	.L30+1
 603 00b8 95010000 		.word	.L30+1
 604 00bc 95010000 		.word	.L30+1
 605 00c0 95010000 		.word	.L30+1
 606 00c4 95010000 		.word	.L30+1
 607 00c8 3F010000 		.word	.L37+1
 608 00cc 95010000 		.word	.L30+1
 609 00d0 95010000 		.word	.L30+1
 610 00d4 95010000 		.word	.L30+1
 611 00d8 95010000 		.word	.L30+1
 612 00dc 95010000 		.word	.L30+1
 613 00e0 95010000 		.word	.L30+1
 614 00e4 95010000 		.word	.L30+1
 615 00e8 95010000 		.word	.L30+1
 616 00ec 25010000 		.word	.L38+1
 617 00f0 95010000 		.word	.L30+1
 618 00f4 95010000 		.word	.L30+1
 619 00f8 95010000 		.word	.L30+1
 620 00fc 95010000 		.word	.L30+1
 621 0100 95010000 		.word	.L30+1
 622 0104 95010000 		.word	.L30+1
 623 0108 95010000 		.word	.L30+1
 624 010c 95010000 		.word	.L30+1
 625 0110 95010000 		.word	.L30+1
 626 0114 95010000 		.word	.L30+1
 627 0118 7D010000 		.word	.L41+1
 628 011c 87010000 		.word	.L42+1
 629 0120 91010000 		.word	.L43+1
 630              		.p2align 1
 631              	.L38:
 164:u8glib_arm_v1.18.1\src/u8g_pb32h1.c ****   {
 165:u8glib_arm_v1.18.1\src/u8g_pb32h1.c ****     case U8G_DEV_MSG_SET_8PIXEL:
 166:u8glib_arm_v1.18.1\src/u8g_pb32h1.c ****       if ( u8g_pb_Is8PixelVisible(pb, (u8g_dev_arg_pixel_t *)arg) )
 632              		.loc 1 166 0
ARM GAS  C:\Users\KJA\AppData\Local\Temp\cciK04DB.s 			page 15


 633 0124 7869     		ldr	r0, [r7, #20]
 634 0126 3968     		ldr	r1, [r7]
 635 0128 FFF7FEFF 		bl	u8g_pb_Is8PixelVisible
 636 012c 0346     		mov	r3, r0
 637 012e 002B     		cmp	r3, #0
 638 0130 04D0     		beq	.L44
 167:u8glib_arm_v1.18.1\src/u8g_pb32h1.c ****         u8g_pb32h1_Set8PixelOpt2(pb, (u8g_dev_arg_pixel_t *)arg);
 639              		.loc 1 167 0
 640 0132 7869     		ldr	r0, [r7, #20]
 641 0134 3968     		ldr	r1, [r7]
 642 0136 FFF7FEFF 		bl	u8g_pb32h1_Set8PixelOpt2
 168:u8glib_arm_v1.18.1\src/u8g_pb32h1.c ****       break;
 643              		.loc 1 168 0
 644 013a 2BE0     		b	.L30
 645              	.L44:
 646 013c 2AE0     		b	.L30
 647              	.L37:
 169:u8glib_arm_v1.18.1\src/u8g_pb32h1.c ****     case U8G_DEV_MSG_SET_PIXEL:
 170:u8glib_arm_v1.18.1\src/u8g_pb32h1.c ****       u8g_pb32h1_SetPixel(pb, (u8g_dev_arg_pixel_t *)arg);
 648              		.loc 1 170 0
 649 013e 7869     		ldr	r0, [r7, #20]
 650 0140 3968     		ldr	r1, [r7]
 651 0142 FFF7FEFF 		bl	u8g_pb32h1_SetPixel
 171:u8glib_arm_v1.18.1\src/u8g_pb32h1.c ****       break;
 652              		.loc 1 171 0
 653 0146 25E0     		b	.L30
 654              	.L34:
 172:u8glib_arm_v1.18.1\src/u8g_pb32h1.c ****     case U8G_DEV_MSG_INIT:
 173:u8glib_arm_v1.18.1\src/u8g_pb32h1.c ****       break;
 174:u8glib_arm_v1.18.1\src/u8g_pb32h1.c ****     case U8G_DEV_MSG_STOP:
 175:u8glib_arm_v1.18.1\src/u8g_pb32h1.c ****       break;
 176:u8glib_arm_v1.18.1\src/u8g_pb32h1.c ****     case U8G_DEV_MSG_PAGE_FIRST:
 177:u8glib_arm_v1.18.1\src/u8g_pb32h1.c ****       u8g_pb32h1_Clear(pb);
 655              		.loc 1 177 0
 656 0148 7869     		ldr	r0, [r7, #20]
 657 014a FFF7FEFF 		bl	u8g_pb32h1_Clear
 178:u8glib_arm_v1.18.1\src/u8g_pb32h1.c ****       u8g_page_First(&(pb->p));
 658              		.loc 1 178 0
 659 014e 7B69     		ldr	r3, [r7, #20]
 660 0150 1846     		mov	r0, r3
 661 0152 FFF7FEFF 		bl	u8g_page_First
 179:u8glib_arm_v1.18.1\src/u8g_pb32h1.c ****       break;
 662              		.loc 1 179 0
 663 0156 1DE0     		b	.L30
 664              	.L35:
 180:u8glib_arm_v1.18.1\src/u8g_pb32h1.c ****     case U8G_DEV_MSG_PAGE_NEXT:
 181:u8glib_arm_v1.18.1\src/u8g_pb32h1.c ****       if ( u8g_page_Next(&(pb->p)) == 0 )
 665              		.loc 1 181 0
 666 0158 7B69     		ldr	r3, [r7, #20]
 667 015a 1846     		mov	r0, r3
 668 015c FFF7FEFF 		bl	u8g_page_Next
 669 0160 0346     		mov	r3, r0
 670 0162 002B     		cmp	r3, #0
 671 0164 01D1     		bne	.L45
 182:u8glib_arm_v1.18.1\src/u8g_pb32h1.c ****         return 0;
 672              		.loc 1 182 0
 673 0166 0023     		movs	r3, #0
ARM GAS  C:\Users\KJA\AppData\Local\Temp\cciK04DB.s 			page 16


 674 0168 15E0     		b	.L46
 675              	.L45:
 183:u8glib_arm_v1.18.1\src/u8g_pb32h1.c ****       u8g_pb32h1_Clear(pb);
 676              		.loc 1 183 0
 677 016a 7869     		ldr	r0, [r7, #20]
 678 016c FFF7FEFF 		bl	u8g_pb32h1_Clear
 184:u8glib_arm_v1.18.1\src/u8g_pb32h1.c ****       break;
 679              		.loc 1 184 0
 680 0170 10E0     		b	.L30
 681              	.L36:
 185:u8glib_arm_v1.18.1\src/u8g_pb32h1.c **** #ifdef U8G_DEV_MSG_IS_BBX_INTERSECTION
 186:u8glib_arm_v1.18.1\src/u8g_pb32h1.c ****     case U8G_DEV_MSG_IS_BBX_INTERSECTION:
 187:u8glib_arm_v1.18.1\src/u8g_pb32h1.c ****       return u8g_pb_IsIntersection(pb, (u8g_dev_arg_bbx_t *)arg);
 188:u8glib_arm_v1.18.1\src/u8g_pb32h1.c **** #endif
 189:u8glib_arm_v1.18.1\src/u8g_pb32h1.c ****     case U8G_DEV_MSG_GET_PAGE_BOX:
 190:u8glib_arm_v1.18.1\src/u8g_pb32h1.c ****       u8g_pb_GetPageBox(pb, (u8g_box_t *)arg);
 682              		.loc 1 190 0
 683 0172 7869     		ldr	r0, [r7, #20]
 684 0174 3968     		ldr	r1, [r7]
 685 0176 FFF7FEFF 		bl	u8g_pb_GetPageBox
 191:u8glib_arm_v1.18.1\src/u8g_pb32h1.c ****       break;
 686              		.loc 1 191 0
 687 017a 0BE0     		b	.L30
 688              	.L41:
 192:u8glib_arm_v1.18.1\src/u8g_pb32h1.c ****     case U8G_DEV_MSG_GET_WIDTH:
 193:u8glib_arm_v1.18.1\src/u8g_pb32h1.c ****       *((u8g_uint_t *)arg) = pb->width;
 689              		.loc 1 193 0
 690 017c 7B69     		ldr	r3, [r7, #20]
 691 017e 5A79     		ldrb	r2, [r3, #5]	@ zero_extendqisi2
 692 0180 3B68     		ldr	r3, [r7]
 693 0182 1A70     		strb	r2, [r3]
 194:u8glib_arm_v1.18.1\src/u8g_pb32h1.c ****       break;
 694              		.loc 1 194 0
 695 0184 06E0     		b	.L30
 696              	.L42:
 195:u8glib_arm_v1.18.1\src/u8g_pb32h1.c ****     case U8G_DEV_MSG_GET_HEIGHT:
 196:u8glib_arm_v1.18.1\src/u8g_pb32h1.c ****       *((u8g_uint_t *)arg) = pb->p.total_height;
 697              		.loc 1 196 0
 698 0186 7B69     		ldr	r3, [r7, #20]
 699 0188 5A78     		ldrb	r2, [r3, #1]	@ zero_extendqisi2
 700 018a 3B68     		ldr	r3, [r7]
 701 018c 1A70     		strb	r2, [r3]
 197:u8glib_arm_v1.18.1\src/u8g_pb32h1.c ****       break;
 702              		.loc 1 197 0
 703 018e 01E0     		b	.L30
 704              	.L43:
 198:u8glib_arm_v1.18.1\src/u8g_pb32h1.c ****     case U8G_DEV_MSG_SET_COLOR_ENTRY:
 199:u8glib_arm_v1.18.1\src/u8g_pb32h1.c ****       break;
 200:u8glib_arm_v1.18.1\src/u8g_pb32h1.c ****     case U8G_DEV_MSG_SET_XY_CB:
 201:u8glib_arm_v1.18.1\src/u8g_pb32h1.c ****       break;
 202:u8glib_arm_v1.18.1\src/u8g_pb32h1.c ****     case U8G_DEV_MSG_GET_MODE:
 203:u8glib_arm_v1.18.1\src/u8g_pb32h1.c ****       return U8G_MODE_BW;
 705              		.loc 1 203 0
 706 0190 0123     		movs	r3, #1
 707 0192 00E0     		b	.L46
 708              	.L30:
 204:u8glib_arm_v1.18.1\src/u8g_pb32h1.c ****   }
ARM GAS  C:\Users\KJA\AppData\Local\Temp\cciK04DB.s 			page 17


 205:u8glib_arm_v1.18.1\src/u8g_pb32h1.c ****   return 1;
 709              		.loc 1 205 0
 710 0194 0123     		movs	r3, #1
 711              	.L46:
 206:u8glib_arm_v1.18.1\src/u8g_pb32h1.c **** }
 712              		.loc 1 206 0
 713 0196 1846     		mov	r0, r3
 714 0198 1837     		adds	r7, r7, #24
 715              		.cfi_def_cfa_offset 8
 716 019a BD46     		mov	sp, r7
 717              		.cfi_def_cfa_register 13
 718              		@ sp needed
 719 019c 80BD     		pop	{r7, pc}
 720              		.cfi_endproc
 721              	.LFE6:
 722              		.size	u8g_dev_pb32h1_base_fn, .-u8g_dev_pb32h1_base_fn
 723 019e 00BF     		.text
 724              	.Letext0:
 725              		.file 2 "c:\\program files (x86)\\cypress\\psoc creator\\4.0\\psoc creator\\import\\gnu\\arm\\4.9.
 726              		.file 3 "c:\\program files (x86)\\cypress\\psoc creator\\4.0\\psoc creator\\import\\gnu\\arm\\4.9.
 727              		.file 4 "u8glib_arm_v1.18.1\\src\\u8g.h"