ARM GAS  C:\Users\Shiguruy\AppData\Local\Temp\ccD0h7re.s 			page 1


   1              		.syntax unified
   2              		.cpu cortex-m3
   3              		.fpu softvfp
   4              		.eabi_attribute 20, 1
   5              		.eabi_attribute 21, 1
   6              		.eabi_attribute 23, 3
   7              		.eabi_attribute 24, 1
   8              		.eabi_attribute 25, 1
   9              		.eabi_attribute 26, 1
  10              		.eabi_attribute 30, 6
  11              		.eabi_attribute 34, 1
  12              		.eabi_attribute 18, 4
  13              		.thumb
  14              		.file	"u8g_dev_ssd1325_nhd27oled_gr_new.c"
  15              		.text
  16              	.Ltext0:
  17              		.cfi_sections	.debug_frame
  18              		.section	.rodata
  19              		.align	2
  20              		.type	u8g_dev_ssd1325_2bit_nhd_27_12864ucy3_init_seq, %object
  21              		.size	u8g_dev_ssd1325_2bit_nhd_27_12864ucy3_init_seq, 57
  22              	u8g_dev_ssd1325_2bit_nhd_27_12864ucy3_init_seq:
  23 0000 FF       		.byte	-1
  24 0001 0A       		.byte	10
  25 0002 FF       		.byte	-1
  26 0003 D0       		.byte	-48
  27 0004 FF       		.byte	-1
  28 0005 E0       		.byte	-32
  29 0006 FF       		.byte	-1
  30 0007 C1       		.byte	-63
  31 0008 FF       		.byte	-1
  32 0009 D1       		.byte	-47
  33 000a AE       		.byte	-82
  34 000b B3       		.byte	-77
  35 000c 91       		.byte	-111
  36 000d A8       		.byte	-88
  37 000e 3F       		.byte	63
  38 000f A2       		.byte	-94
  39 0010 4C       		.byte	76
  40 0011 A1       		.byte	-95
  41 0012 00       		.byte	0
  42 0013 AD       		.byte	-83
  43 0014 02       		.byte	2
  44 0015 A0       		.byte	-96
  45 0016 52       		.byte	82
  46 0017 86       		.byte	-122
  47 0018 B8       		.byte	-72
  48 0019 01       		.byte	1
  49 001a 11       		.byte	17
  50 001b 22       		.byte	34
  51 001c 32       		.byte	50
  52 001d 43       		.byte	67
  53 001e 54       		.byte	84
  54 001f 77       		.byte	119
  55 0020 77       		.byte	119
  56 0021 81       		.byte	-127
  57 0022 70       		.byte	112
ARM GAS  C:\Users\Shiguruy\AppData\Local\Temp\ccD0h7re.s 			page 2


  58 0023 B2       		.byte	-78
  59 0024 51       		.byte	81
  60 0025 B1       		.byte	-79
  61 0026 55       		.byte	85
  62 0027 BC       		.byte	-68
  63 0028 10       		.byte	16
  64 0029 B4       		.byte	-76
  65 002a 02       		.byte	2
  66 002b B0       		.byte	-80
  67 002c 28       		.byte	40
  68 002d BE       		.byte	-66
  69 002e 1C       		.byte	28
  70 002f BF       		.byte	-65
  71 0030 0F       		.byte	15
  72 0031 A4       		.byte	-92
  73 0032 AF       		.byte	-81
  74 0033 FF       		.byte	-1
  75 0034 32       		.byte	50
  76 0035 FF       		.byte	-1
  77 0036 D0       		.byte	-48
  78 0037 FF       		.byte	-1
  79 0038 FE       		.byte	-2
  80 0039 000000   		.align	2
  81              		.type	u8g_dev_ssd1325_2bit_nhd_27_12864ucy3_prepare_page_seq, %object
  82              		.size	u8g_dev_ssd1325_2bit_nhd_27_12864ucy3_prepare_page_seq, 10
  83              	u8g_dev_ssd1325_2bit_nhd_27_12864ucy3_prepare_page_seq:
  84 003c FF       		.byte	-1
  85 003d E0       		.byte	-32
  86 003e FF       		.byte	-1
  87 003f D1       		.byte	-47
  88 0040 15       		.byte	21
  89 0041 00       		.byte	0
  90 0042 3F       		.byte	63
  91 0043 75       		.byte	117
  92 0044 FF       		.byte	-1
  93 0045 FE       		.byte	-2
  94              		.section	.text.u8g_dev_ssd1325_gr_prepare_row,"ax",%progbits
  95              		.align	2
  96              		.thumb
  97              		.thumb_func
  98              		.type	u8g_dev_ssd1325_gr_prepare_row, %function
  99              	u8g_dev_ssd1325_gr_prepare_row:
 100              	.LFB0:
 101              		.file 1 ".\\u8glib_arm_v1.18.1\\src\\u8g_dev_ssd1325_nhd27oled_gr_new.c"
   1:.\u8glib_arm_v1.18.1\src/u8g_dev_ssd1325_nhd27oled_gr_new.c **** /*
   2:.\u8glib_arm_v1.18.1\src/u8g_dev_ssd1325_nhd27oled_gr_new.c **** 
   3:.\u8glib_arm_v1.18.1\src/u8g_dev_ssd1325_nhd27oled_gr_new.c ****   u8g_dev_ssd1325_nhd27oled_gr.c
   4:.\u8glib_arm_v1.18.1\src/u8g_dev_ssd1325_nhd27oled_gr_new.c ****   
   5:.\u8glib_arm_v1.18.1\src/u8g_dev_ssd1325_nhd27oled_gr_new.c ****   2-Bit (gray level) Driver for SSD1325 Controller (OLED Display)
   6:.\u8glib_arm_v1.18.1\src/u8g_dev_ssd1325_nhd27oled_gr_new.c ****   Rewritten with new architecture
   7:.\u8glib_arm_v1.18.1\src/u8g_dev_ssd1325_nhd27oled_gr_new.c ****   Tested with NHD-2.7-12864UCY3
   8:.\u8glib_arm_v1.18.1\src/u8g_dev_ssd1325_nhd27oled_gr_new.c **** 
   9:.\u8glib_arm_v1.18.1\src/u8g_dev_ssd1325_nhd27oled_gr_new.c ****   Universal 8bit Graphics Library
  10:.\u8glib_arm_v1.18.1\src/u8g_dev_ssd1325_nhd27oled_gr_new.c ****   
  11:.\u8glib_arm_v1.18.1\src/u8g_dev_ssd1325_nhd27oled_gr_new.c ****   Copyright (c) 2011, olikraus@gmail.com
  12:.\u8glib_arm_v1.18.1\src/u8g_dev_ssd1325_nhd27oled_gr_new.c ****   All rights reserved.
  13:.\u8glib_arm_v1.18.1\src/u8g_dev_ssd1325_nhd27oled_gr_new.c **** 
ARM GAS  C:\Users\Shiguruy\AppData\Local\Temp\ccD0h7re.s 			page 3


  14:.\u8glib_arm_v1.18.1\src/u8g_dev_ssd1325_nhd27oled_gr_new.c ****   Redistribution and use in source and binary forms, with or without modification, 
  15:.\u8glib_arm_v1.18.1\src/u8g_dev_ssd1325_nhd27oled_gr_new.c ****   are permitted provided that the following conditions are met:
  16:.\u8glib_arm_v1.18.1\src/u8g_dev_ssd1325_nhd27oled_gr_new.c **** 
  17:.\u8glib_arm_v1.18.1\src/u8g_dev_ssd1325_nhd27oled_gr_new.c ****   * Redistributions of source code must retain the above copyright notice, this list 
  18:.\u8glib_arm_v1.18.1\src/u8g_dev_ssd1325_nhd27oled_gr_new.c ****     of conditions and the following disclaimer.
  19:.\u8glib_arm_v1.18.1\src/u8g_dev_ssd1325_nhd27oled_gr_new.c ****     
  20:.\u8glib_arm_v1.18.1\src/u8g_dev_ssd1325_nhd27oled_gr_new.c ****   * Redistributions in binary form must reproduce the above copyright notice, this 
  21:.\u8glib_arm_v1.18.1\src/u8g_dev_ssd1325_nhd27oled_gr_new.c ****     list of conditions and the following disclaimer in the documentation and/or other 
  22:.\u8glib_arm_v1.18.1\src/u8g_dev_ssd1325_nhd27oled_gr_new.c ****     materials provided with the distribution.
  23:.\u8glib_arm_v1.18.1\src/u8g_dev_ssd1325_nhd27oled_gr_new.c **** 
  24:.\u8glib_arm_v1.18.1\src/u8g_dev_ssd1325_nhd27oled_gr_new.c ****   THIS SOFTWARE IS PROVIDED BY THE COPYRIGHT HOLDERS AND 
  25:.\u8glib_arm_v1.18.1\src/u8g_dev_ssd1325_nhd27oled_gr_new.c ****   CONTRIBUTORS "AS IS" AND ANY EXPRESS OR IMPLIED WARRANTIES, 
  26:.\u8glib_arm_v1.18.1\src/u8g_dev_ssd1325_nhd27oled_gr_new.c ****   INCLUDING, BUT NOT LIMITED TO, THE IMPLIED WARRANTIES OF 
  27:.\u8glib_arm_v1.18.1\src/u8g_dev_ssd1325_nhd27oled_gr_new.c ****   MERCHANTABILITY AND FITNESS FOR A PARTICULAR PURPOSE ARE 
  28:.\u8glib_arm_v1.18.1\src/u8g_dev_ssd1325_nhd27oled_gr_new.c ****   DISCLAIMED. IN NO EVENT SHALL THE COPYRIGHT HOLDER OR 
  29:.\u8glib_arm_v1.18.1\src/u8g_dev_ssd1325_nhd27oled_gr_new.c ****   CONTRIBUTORS BE LIABLE FOR ANY DIRECT, INDIRECT, INCIDENTAL, 
  30:.\u8glib_arm_v1.18.1\src/u8g_dev_ssd1325_nhd27oled_gr_new.c ****   SPECIAL, EXEMPLARY, OR CONSEQUENTIAL DAMAGES (INCLUDING, BUT 
  31:.\u8glib_arm_v1.18.1\src/u8g_dev_ssd1325_nhd27oled_gr_new.c ****   NOT LIMITED TO, PROCUREMENT OF SUBSTITUTE GOODS OR SERVICES; 
  32:.\u8glib_arm_v1.18.1\src/u8g_dev_ssd1325_nhd27oled_gr_new.c ****   LOSS OF USE, DATA, OR PROFITS; OR BUSINESS INTERRUPTION) HOWEVER 
  33:.\u8glib_arm_v1.18.1\src/u8g_dev_ssd1325_nhd27oled_gr_new.c ****   CAUSED AND ON ANY THEORY OF LIABILITY, WHETHER IN CONTRACT, 
  34:.\u8glib_arm_v1.18.1\src/u8g_dev_ssd1325_nhd27oled_gr_new.c ****   STRICT LIABILITY, OR TORT (INCLUDING NEGLIGENCE OR OTHERWISE) 
  35:.\u8glib_arm_v1.18.1\src/u8g_dev_ssd1325_nhd27oled_gr_new.c ****   ARISING IN ANY WAY OUT OF THE USE OF THIS SOFTWARE, EVEN IF 
  36:.\u8glib_arm_v1.18.1\src/u8g_dev_ssd1325_nhd27oled_gr_new.c ****   ADVISED OF THE POSSIBILITY OF SUCH DAMAGE.  
  37:.\u8glib_arm_v1.18.1\src/u8g_dev_ssd1325_nhd27oled_gr_new.c ****   
  38:.\u8glib_arm_v1.18.1\src/u8g_dev_ssd1325_nhd27oled_gr_new.c ****   SSD130x       Monochrom OLED Controller
  39:.\u8glib_arm_v1.18.1\src/u8g_dev_ssd1325_nhd27oled_gr_new.c ****   SSD131x       Character OLED Controller
  40:.\u8glib_arm_v1.18.1\src/u8g_dev_ssd1325_nhd27oled_gr_new.c ****   SSD132x       Graylevel OLED Controller
  41:.\u8glib_arm_v1.18.1\src/u8g_dev_ssd1325_nhd27oled_gr_new.c ****   SSD1331       Color OLED Controller       
  42:.\u8glib_arm_v1.18.1\src/u8g_dev_ssd1325_nhd27oled_gr_new.c **** 
  43:.\u8glib_arm_v1.18.1\src/u8g_dev_ssd1325_nhd27oled_gr_new.c **** */
  44:.\u8glib_arm_v1.18.1\src/u8g_dev_ssd1325_nhd27oled_gr_new.c **** 
  45:.\u8glib_arm_v1.18.1\src/u8g_dev_ssd1325_nhd27oled_gr_new.c **** #include "u8g.h"
  46:.\u8glib_arm_v1.18.1\src/u8g_dev_ssd1325_nhd27oled_gr_new.c **** 
  47:.\u8glib_arm_v1.18.1\src/u8g_dev_ssd1325_nhd27oled_gr_new.c **** #define WIDTH 128
  48:.\u8glib_arm_v1.18.1\src/u8g_dev_ssd1325_nhd27oled_gr_new.c **** #define HEIGHT 64
  49:.\u8glib_arm_v1.18.1\src/u8g_dev_ssd1325_nhd27oled_gr_new.c **** 
  50:.\u8glib_arm_v1.18.1\src/u8g_dev_ssd1325_nhd27oled_gr_new.c **** /* http://www.newhavendisplay.com/app_notes/OLED_2_7_12864.txt */
  51:.\u8glib_arm_v1.18.1\src/u8g_dev_ssd1325_nhd27oled_gr_new.c **** static const uint8_t u8g_dev_ssd1325_2bit_nhd_27_12864ucy3_init_seq[] PROGMEM = {
  52:.\u8glib_arm_v1.18.1\src/u8g_dev_ssd1325_nhd27oled_gr_new.c ****   U8G_ESC_DLY(10),              /* delay 10 ms */
  53:.\u8glib_arm_v1.18.1\src/u8g_dev_ssd1325_nhd27oled_gr_new.c ****   U8G_ESC_CS(0),                 /* disable chip */
  54:.\u8glib_arm_v1.18.1\src/u8g_dev_ssd1325_nhd27oled_gr_new.c ****   U8G_ESC_ADR(0),               /* instruction mode */
  55:.\u8glib_arm_v1.18.1\src/u8g_dev_ssd1325_nhd27oled_gr_new.c ****   U8G_ESC_RST(1),               /* do reset low pulse with (1*16)+2 milliseconds */
  56:.\u8glib_arm_v1.18.1\src/u8g_dev_ssd1325_nhd27oled_gr_new.c ****   U8G_ESC_CS(1),                /* enable chip */
  57:.\u8glib_arm_v1.18.1\src/u8g_dev_ssd1325_nhd27oled_gr_new.c ****   0x0ae,                                /* display off, sleep mode */
  58:.\u8glib_arm_v1.18.1\src/u8g_dev_ssd1325_nhd27oled_gr_new.c ****   0x0b3, 0x091,                    /* set display clock divide ratio/oscillator frequency (set cloc
  59:.\u8glib_arm_v1.18.1\src/u8g_dev_ssd1325_nhd27oled_gr_new.c ****   0x0a8, 0x03f,                     /* multiplex ratio: 0x03f * 1/64 duty */
  60:.\u8glib_arm_v1.18.1\src/u8g_dev_ssd1325_nhd27oled_gr_new.c ****   0x0a2, 0x04c,                     /* display offset, shift mapping ram counter */
  61:.\u8glib_arm_v1.18.1\src/u8g_dev_ssd1325_nhd27oled_gr_new.c ****   0x0a1, 0x000,                     /* display start line */
  62:.\u8glib_arm_v1.18.1\src/u8g_dev_ssd1325_nhd27oled_gr_new.c ****   0x0ad, 0x002,                     /* master configuration: disable embedded DC-DC, enable interna
  63:.\u8glib_arm_v1.18.1\src/u8g_dev_ssd1325_nhd27oled_gr_new.c ****   0x0a0, 0x052,                     /* remap configuration, horizontal address increment (bit 2 = 0
  64:.\u8glib_arm_v1.18.1\src/u8g_dev_ssd1325_nhd27oled_gr_new.c ****   0x086,                                /* full current range (0x084, 0x085, 0x086) */
  65:.\u8glib_arm_v1.18.1\src/u8g_dev_ssd1325_nhd27oled_gr_new.c ****   0x0b8,                                /* set gray scale table */
  66:.\u8glib_arm_v1.18.1\src/u8g_dev_ssd1325_nhd27oled_gr_new.c ****       //0x01, 0x011, 0x022, 0x032, 0x043, 0x054, 0x065, 0x076,
  67:.\u8glib_arm_v1.18.1\src/u8g_dev_ssd1325_nhd27oled_gr_new.c ****       0x01, 0x011, 0x022, 0x032, 0x043, 0x054, 0x077, 0x077,            // 4L mode uses 0, 2, 4, 7
  68:.\u8glib_arm_v1.18.1\src/u8g_dev_ssd1325_nhd27oled_gr_new.c ****   0x081, 0x070,                    /* contrast, brightness, 0..128, Newhaven: 0x040 */
  69:.\u8glib_arm_v1.18.1\src/u8g_dev_ssd1325_nhd27oled_gr_new.c ****   0x0b2, 0x051,                    /* frame frequency (row period) */
  70:.\u8glib_arm_v1.18.1\src/u8g_dev_ssd1325_nhd27oled_gr_new.c ****   0x0b1, 0x055,                    /* phase length */
ARM GAS  C:\Users\Shiguruy\AppData\Local\Temp\ccD0h7re.s 			page 4


  71:.\u8glib_arm_v1.18.1\src/u8g_dev_ssd1325_nhd27oled_gr_new.c ****   0x0bc, 0x010,                    /* pre-charge voltage level */
  72:.\u8glib_arm_v1.18.1\src/u8g_dev_ssd1325_nhd27oled_gr_new.c ****   0x0b4, 0x002,                    /* set pre-charge compensation level (not documented in the SDD1
  73:.\u8glib_arm_v1.18.1\src/u8g_dev_ssd1325_nhd27oled_gr_new.c ****   0x0b0, 0x028,                    /* enable pre-charge compensation (not documented in the SDD1325
  74:.\u8glib_arm_v1.18.1\src/u8g_dev_ssd1325_nhd27oled_gr_new.c ****   0x0be, 0x01c,                     /* VCOMH voltage */
  75:.\u8glib_arm_v1.18.1\src/u8g_dev_ssd1325_nhd27oled_gr_new.c ****   0x0bf, 0x002|0x00d,           /* VSL voltage level (not documented in the SDD1325 datasheet, but 
  76:.\u8glib_arm_v1.18.1\src/u8g_dev_ssd1325_nhd27oled_gr_new.c ****   0x0a4,                                 /* normal display mode */
  77:.\u8glib_arm_v1.18.1\src/u8g_dev_ssd1325_nhd27oled_gr_new.c ****   0x0af,                                  /* display on */
  78:.\u8glib_arm_v1.18.1\src/u8g_dev_ssd1325_nhd27oled_gr_new.c ****   U8G_ESC_DLY(50),             /* delay 50 ms */
  79:.\u8glib_arm_v1.18.1\src/u8g_dev_ssd1325_nhd27oled_gr_new.c ****   U8G_ESC_CS(0),             /* disable chip */
  80:.\u8glib_arm_v1.18.1\src/u8g_dev_ssd1325_nhd27oled_gr_new.c ****   U8G_ESC_END                /* end of sequence */
  81:.\u8glib_arm_v1.18.1\src/u8g_dev_ssd1325_nhd27oled_gr_new.c **** };
  82:.\u8glib_arm_v1.18.1\src/u8g_dev_ssd1325_nhd27oled_gr_new.c **** 
  83:.\u8glib_arm_v1.18.1\src/u8g_dev_ssd1325_nhd27oled_gr_new.c **** static const uint8_t u8g_dev_ssd1325_2bit_nhd_27_12864ucy3_prepare_page_seq[] PROGMEM = {
  84:.\u8glib_arm_v1.18.1\src/u8g_dev_ssd1325_nhd27oled_gr_new.c ****   U8G_ESC_ADR(0),               /* instruction mode */
  85:.\u8glib_arm_v1.18.1\src/u8g_dev_ssd1325_nhd27oled_gr_new.c ****   U8G_ESC_CS(1),                /* enable chip */
  86:.\u8glib_arm_v1.18.1\src/u8g_dev_ssd1325_nhd27oled_gr_new.c ****   0x015,       /* column address... */
  87:.\u8glib_arm_v1.18.1\src/u8g_dev_ssd1325_nhd27oled_gr_new.c ****   0x000,       /* start at column 0 */
  88:.\u8glib_arm_v1.18.1\src/u8g_dev_ssd1325_nhd27oled_gr_new.c ****   0x03f,       /* end at column 63 (which is y == 127), because there are two pixel in one column *
  89:.\u8glib_arm_v1.18.1\src/u8g_dev_ssd1325_nhd27oled_gr_new.c ****   0x075,       /* row address... */
  90:.\u8glib_arm_v1.18.1\src/u8g_dev_ssd1325_nhd27oled_gr_new.c ****   U8G_ESC_END                /* end of sequence */
  91:.\u8glib_arm_v1.18.1\src/u8g_dev_ssd1325_nhd27oled_gr_new.c **** };
  92:.\u8glib_arm_v1.18.1\src/u8g_dev_ssd1325_nhd27oled_gr_new.c **** 
  93:.\u8glib_arm_v1.18.1\src/u8g_dev_ssd1325_nhd27oled_gr_new.c **** static void u8g_dev_ssd1325_gr_prepare_row(u8g_t *u8g, u8g_dev_t *dev, uint8_t delta_row)
  94:.\u8glib_arm_v1.18.1\src/u8g_dev_ssd1325_nhd27oled_gr_new.c **** {
 102              		.loc 1 94 0
 103              		.cfi_startproc
 104              		@ args = 0, pretend = 0, frame = 24
 105              		@ frame_needed = 1, uses_anonymous_args = 0
 106 0000 80B5     		push	{r7, lr}
 107              		.cfi_def_cfa_offset 8
 108              		.cfi_offset 7, -8
 109              		.cfi_offset 14, -4
 110 0002 86B0     		sub	sp, sp, #24
 111              		.cfi_def_cfa_offset 32
 112 0004 00AF     		add	r7, sp, #0
 113              		.cfi_def_cfa_register 7
 114 0006 F860     		str	r0, [r7, #12]
 115 0008 B960     		str	r1, [r7, #8]
 116 000a 1346     		mov	r3, r2
 117 000c FB71     		strb	r3, [r7, #7]
  95:.\u8glib_arm_v1.18.1\src/u8g_dev_ssd1325_nhd27oled_gr_new.c ****   uint8_t row = ((u8g_pb_t *)(dev->dev_mem))->p.page;
 118              		.loc 1 95 0
 119 000e BB68     		ldr	r3, [r7, #8]
 120 0010 5B68     		ldr	r3, [r3, #4]
 121 0012 1B79     		ldrb	r3, [r3, #4]
 122 0014 FB75     		strb	r3, [r7, #23]
  96:.\u8glib_arm_v1.18.1\src/u8g_dev_ssd1325_nhd27oled_gr_new.c ****   
  97:.\u8glib_arm_v1.18.1\src/u8g_dev_ssd1325_nhd27oled_gr_new.c ****   row *= ((u8g_pb_t *)(dev->dev_mem))->p.page_height;
 123              		.loc 1 97 0
 124 0016 BB68     		ldr	r3, [r7, #8]
 125 0018 5B68     		ldr	r3, [r3, #4]
 126 001a 1B78     		ldrb	r3, [r3]	@ zero_extendqisi2
 127 001c FA7D     		ldrb	r2, [r7, #23]
 128 001e 02FB03F3 		mul	r3, r2, r3
 129 0022 FB75     		strb	r3, [r7, #23]
  98:.\u8glib_arm_v1.18.1\src/u8g_dev_ssd1325_nhd27oled_gr_new.c ****   row += delta_row;
 130              		.loc 1 98 0
ARM GAS  C:\Users\Shiguruy\AppData\Local\Temp\ccD0h7re.s 			page 5


 131 0024 FA7D     		ldrb	r2, [r7, #23]
 132 0026 FB79     		ldrb	r3, [r7, #7]
 133 0028 1344     		add	r3, r3, r2
 134 002a FB75     		strb	r3, [r7, #23]
  99:.\u8glib_arm_v1.18.1\src/u8g_dev_ssd1325_nhd27oled_gr_new.c ****   
 100:.\u8glib_arm_v1.18.1\src/u8g_dev_ssd1325_nhd27oled_gr_new.c ****   u8g_WriteEscSeqP(u8g, dev, u8g_dev_ssd1325_2bit_nhd_27_12864ucy3_prepare_page_seq);
 135              		.loc 1 100 0
 136 002c F868     		ldr	r0, [r7, #12]
 137 002e B968     		ldr	r1, [r7, #8]
 138 0030 0C4A     		ldr	r2, .L2
 139 0032 FFF7FEFF 		bl	u8g_WriteEscSeqP
 101:.\u8glib_arm_v1.18.1\src/u8g_dev_ssd1325_nhd27oled_gr_new.c ****   
 102:.\u8glib_arm_v1.18.1\src/u8g_dev_ssd1325_nhd27oled_gr_new.c ****   u8g_WriteByte(u8g, dev, row);       /* start at the selected row */
 140              		.loc 1 102 0
 141 0036 FB7D     		ldrb	r3, [r7, #23]	@ zero_extendqisi2
 142 0038 F868     		ldr	r0, [r7, #12]
 143 003a B968     		ldr	r1, [r7, #8]
 144 003c 1A46     		mov	r2, r3
 145 003e FFF7FEFF 		bl	u8g_WriteByte
 103:.\u8glib_arm_v1.18.1\src/u8g_dev_ssd1325_nhd27oled_gr_new.c ****   u8g_WriteByte(u8g, dev, row+1);       /* end within the selected row */  
 146              		.loc 1 103 0
 147 0042 FB7D     		ldrb	r3, [r7, #23]
 148 0044 0133     		adds	r3, r3, #1
 149 0046 DBB2     		uxtb	r3, r3
 150 0048 F868     		ldr	r0, [r7, #12]
 151 004a B968     		ldr	r1, [r7, #8]
 152 004c 1A46     		mov	r2, r3
 153 004e FFF7FEFF 		bl	u8g_WriteByte
 104:.\u8glib_arm_v1.18.1\src/u8g_dev_ssd1325_nhd27oled_gr_new.c ****   
 105:.\u8glib_arm_v1.18.1\src/u8g_dev_ssd1325_nhd27oled_gr_new.c ****   //u8g_SetAddress(u8g, dev, 0);          /* instruction mode mode */
 106:.\u8glib_arm_v1.18.1\src/u8g_dev_ssd1325_nhd27oled_gr_new.c ****   //u8g_WriteByte(u8g, dev, 0x05c);       /* write to ram */  
 107:.\u8glib_arm_v1.18.1\src/u8g_dev_ssd1325_nhd27oled_gr_new.c ****   u8g_SetAddress(u8g, dev, 1);          /* data mode */
 154              		.loc 1 107 0
 155 0052 F868     		ldr	r0, [r7, #12]
 156 0054 B968     		ldr	r1, [r7, #8]
 157 0056 0122     		movs	r2, #1
 158 0058 FFF7FEFF 		bl	u8g_SetAddress
 108:.\u8glib_arm_v1.18.1\src/u8g_dev_ssd1325_nhd27oled_gr_new.c **** }
 159              		.loc 1 108 0
 160 005c 1837     		adds	r7, r7, #24
 161              		.cfi_def_cfa_offset 8
 162 005e BD46     		mov	sp, r7
 163              		.cfi_def_cfa_register 13
 164              		@ sp needed
 165 0060 80BD     		pop	{r7, pc}
 166              	.L3:
 167 0062 00BF     		.align	2
 168              	.L2:
 169 0064 3C000000 		.word	u8g_dev_ssd1325_2bit_nhd_27_12864ucy3_prepare_page_seq
 170              		.cfi_endproc
 171              	.LFE0:
 172              		.size	u8g_dev_ssd1325_gr_prepare_row, .-u8g_dev_ssd1325_gr_prepare_row
 173              		.section	.rodata
 174 0046 0000     		.align	2
 175              		.type	u8g_dev_ssd13xx_sleep_on, %object
 176              		.size	u8g_dev_ssd13xx_sleep_on, 9
 177              	u8g_dev_ssd13xx_sleep_on:
ARM GAS  C:\Users\Shiguruy\AppData\Local\Temp\ccD0h7re.s 			page 6


 178 0048 FF       		.byte	-1
 179 0049 E0       		.byte	-32
 180 004a FF       		.byte	-1
 181 004b D1       		.byte	-47
 182 004c AE       		.byte	-82
 183 004d FF       		.byte	-1
 184 004e D0       		.byte	-48
 185 004f FF       		.byte	-1
 186 0050 FE       		.byte	-2
 187 0051 000000   		.align	2
 188              		.type	u8g_dev_ssd13xx_sleep_off, %object
 189              		.size	u8g_dev_ssd13xx_sleep_off, 11
 190              	u8g_dev_ssd13xx_sleep_off:
 191 0054 FF       		.byte	-1
 192 0055 E0       		.byte	-32
 193 0056 FF       		.byte	-1
 194 0057 D1       		.byte	-47
 195 0058 AF       		.byte	-81
 196 0059 FF       		.byte	-1
 197 005a 32       		.byte	50
 198 005b FF       		.byte	-1
 199 005c D0       		.byte	-48
 200 005d FF       		.byte	-1
 201 005e FE       		.byte	-2
 202 005f 00       		.section	.text.u8g_dev_ssd1325_nhd27oled_gr_fn,"ax",%progbits
 203              		.align	2
 204              		.thumb
 205              		.thumb_func
 206              		.type	u8g_dev_ssd1325_nhd27oled_gr_fn, %function
 207              	u8g_dev_ssd1325_nhd27oled_gr_fn:
 208              	.LFB1:
 109:.\u8glib_arm_v1.18.1\src/u8g_dev_ssd1325_nhd27oled_gr_new.c **** 
 110:.\u8glib_arm_v1.18.1\src/u8g_dev_ssd1325_nhd27oled_gr_new.c **** static const uint8_t u8g_dev_ssd13xx_sleep_on[] PROGMEM = {
 111:.\u8glib_arm_v1.18.1\src/u8g_dev_ssd1325_nhd27oled_gr_new.c ****   U8G_ESC_ADR(0),           /* instruction mode */
 112:.\u8glib_arm_v1.18.1\src/u8g_dev_ssd1325_nhd27oled_gr_new.c ****   U8G_ESC_CS(1),             /* enable chip */
 113:.\u8glib_arm_v1.18.1\src/u8g_dev_ssd1325_nhd27oled_gr_new.c ****   0x0ae,		/* display off */      
 114:.\u8glib_arm_v1.18.1\src/u8g_dev_ssd1325_nhd27oled_gr_new.c ****   U8G_ESC_CS(0),             /* disable chip, bugfix 12 nov 2014 */
 115:.\u8glib_arm_v1.18.1\src/u8g_dev_ssd1325_nhd27oled_gr_new.c ****   U8G_ESC_END                /* end of sequence */
 116:.\u8glib_arm_v1.18.1\src/u8g_dev_ssd1325_nhd27oled_gr_new.c **** };
 117:.\u8glib_arm_v1.18.1\src/u8g_dev_ssd1325_nhd27oled_gr_new.c **** 
 118:.\u8glib_arm_v1.18.1\src/u8g_dev_ssd1325_nhd27oled_gr_new.c **** static const uint8_t u8g_dev_ssd13xx_sleep_off[] PROGMEM = {
 119:.\u8glib_arm_v1.18.1\src/u8g_dev_ssd1325_nhd27oled_gr_new.c ****   U8G_ESC_ADR(0),           /* instruction mode */
 120:.\u8glib_arm_v1.18.1\src/u8g_dev_ssd1325_nhd27oled_gr_new.c ****   U8G_ESC_CS(1),             /* enable chip */
 121:.\u8glib_arm_v1.18.1\src/u8g_dev_ssd1325_nhd27oled_gr_new.c ****   0x0af,		/* display on */      
 122:.\u8glib_arm_v1.18.1\src/u8g_dev_ssd1325_nhd27oled_gr_new.c ****   U8G_ESC_DLY(50),       /* delay 50 ms */
 123:.\u8glib_arm_v1.18.1\src/u8g_dev_ssd1325_nhd27oled_gr_new.c ****   U8G_ESC_CS(0),             /* disable chip, bugfix 12 nov 2014 */
 124:.\u8glib_arm_v1.18.1\src/u8g_dev_ssd1325_nhd27oled_gr_new.c ****   U8G_ESC_END                /* end of sequence */
 125:.\u8glib_arm_v1.18.1\src/u8g_dev_ssd1325_nhd27oled_gr_new.c **** };
 126:.\u8glib_arm_v1.18.1\src/u8g_dev_ssd1325_nhd27oled_gr_new.c **** 
 127:.\u8glib_arm_v1.18.1\src/u8g_dev_ssd1325_nhd27oled_gr_new.c **** 
 128:.\u8glib_arm_v1.18.1\src/u8g_dev_ssd1325_nhd27oled_gr_new.c **** 
 129:.\u8glib_arm_v1.18.1\src/u8g_dev_ssd1325_nhd27oled_gr_new.c **** static uint8_t u8g_dev_ssd1325_nhd27oled_gr_fn(u8g_t *u8g, u8g_dev_t *dev, uint8_t msg, void *arg)
 130:.\u8glib_arm_v1.18.1\src/u8g_dev_ssd1325_nhd27oled_gr_new.c **** {
 209              		.loc 1 130 0
 210              		.cfi_startproc
 211              		@ args = 0, pretend = 0, frame = 32
 212              		@ frame_needed = 1, uses_anonymous_args = 0
ARM GAS  C:\Users\Shiguruy\AppData\Local\Temp\ccD0h7re.s 			page 7


 213 0000 80B5     		push	{r7, lr}
 214              		.cfi_def_cfa_offset 8
 215              		.cfi_offset 7, -8
 216              		.cfi_offset 14, -4
 217 0002 88B0     		sub	sp, sp, #32
 218              		.cfi_def_cfa_offset 40
 219 0004 00AF     		add	r7, sp, #0
 220              		.cfi_def_cfa_register 7
 221 0006 F860     		str	r0, [r7, #12]
 222 0008 B960     		str	r1, [r7, #8]
 223 000a 3B60     		str	r3, [r7]
 224 000c 1346     		mov	r3, r2
 225 000e FB71     		strb	r3, [r7, #7]
 131:.\u8glib_arm_v1.18.1\src/u8g_dev_ssd1325_nhd27oled_gr_new.c ****   switch(msg)
 226              		.loc 1 131 0
 227 0010 FB79     		ldrb	r3, [r7, #7]	@ zero_extendqisi2
 228 0012 0A3B     		subs	r3, r3, #10
 229 0014 0B2B     		cmp	r3, #11
 230 0016 00F28180 		bhi	.L5
 231 001a 01A2     		adr	r2, .L7
 232 001c 52F823F0 		ldr	pc, [r2, r3, lsl #2]
 233              		.p2align 2
 234              	.L7:
 235 0020 51000000 		.word	.L6+1
 236 0024 1D010000 		.word	.L5+1
 237 0028 1D010000 		.word	.L5+1
 238 002c 1D010000 		.word	.L5+1
 239 0030 1D010000 		.word	.L5+1
 240 0034 C3000000 		.word	.L9+1
 241 0038 01010000 		.word	.L10+1
 242 003c 0F010000 		.word	.L11+1
 243 0040 1D010000 		.word	.L5+1
 244 0044 1D010000 		.word	.L5+1
 245 0048 1D010000 		.word	.L5+1
 246 004c 67000000 		.word	.L12+1
 247              		.p2align 1
 248              	.L6:
 132:.\u8glib_arm_v1.18.1\src/u8g_dev_ssd1325_nhd27oled_gr_new.c ****   {
 133:.\u8glib_arm_v1.18.1\src/u8g_dev_ssd1325_nhd27oled_gr_new.c ****     case U8G_DEV_MSG_INIT:
 134:.\u8glib_arm_v1.18.1\src/u8g_dev_ssd1325_nhd27oled_gr_new.c ****       u8g_InitCom(u8g, dev, U8G_SPI_CLK_CYCLE_300NS);
 249              		.loc 1 134 0
 250 0050 F868     		ldr	r0, [r7, #12]
 251 0052 B968     		ldr	r1, [r7, #8]
 252 0054 0222     		movs	r2, #2
 253 0056 FFF7FEFF 		bl	u8g_InitCom
 135:.\u8glib_arm_v1.18.1\src/u8g_dev_ssd1325_nhd27oled_gr_new.c ****       u8g_WriteEscSeqP(u8g, dev, u8g_dev_ssd1325_2bit_nhd_27_12864ucy3_init_seq);
 254              		.loc 1 135 0
 255 005a F868     		ldr	r0, [r7, #12]
 256 005c B968     		ldr	r1, [r7, #8]
 257 005e 354A     		ldr	r2, .L16
 258 0060 FFF7FEFF 		bl	u8g_WriteEscSeqP
 136:.\u8glib_arm_v1.18.1\src/u8g_dev_ssd1325_nhd27oled_gr_new.c ****       break;
 259              		.loc 1 136 0
 260 0064 5AE0     		b	.L5
 261              	.L12:
 262              	.LBB2:
 137:.\u8glib_arm_v1.18.1\src/u8g_dev_ssd1325_nhd27oled_gr_new.c ****     case U8G_DEV_MSG_STOP:
ARM GAS  C:\Users\Shiguruy\AppData\Local\Temp\ccD0h7re.s 			page 8


 138:.\u8glib_arm_v1.18.1\src/u8g_dev_ssd1325_nhd27oled_gr_new.c ****       break;
 139:.\u8glib_arm_v1.18.1\src/u8g_dev_ssd1325_nhd27oled_gr_new.c ****     case U8G_DEV_MSG_PAGE_NEXT:
 140:.\u8glib_arm_v1.18.1\src/u8g_dev_ssd1325_nhd27oled_gr_new.c ****       {
 141:.\u8glib_arm_v1.18.1\src/u8g_dev_ssd1325_nhd27oled_gr_new.c **** 	uint8_t i;
 142:.\u8glib_arm_v1.18.1\src/u8g_dev_ssd1325_nhd27oled_gr_new.c **** 	u8g_pb_t *pb = (u8g_pb_t *)(dev->dev_mem);
 263              		.loc 1 142 0
 264 0066 BB68     		ldr	r3, [r7, #8]
 265 0068 5B68     		ldr	r3, [r3, #4]
 266 006a 7B61     		str	r3, [r7, #20]
 143:.\u8glib_arm_v1.18.1\src/u8g_dev_ssd1325_nhd27oled_gr_new.c **** 	uint8_t *p = pb->buf;
 267              		.loc 1 143 0
 268 006c 7B69     		ldr	r3, [r7, #20]
 269 006e 9B68     		ldr	r3, [r3, #8]
 270 0070 BB61     		str	r3, [r7, #24]
 144:.\u8glib_arm_v1.18.1\src/u8g_dev_ssd1325_nhd27oled_gr_new.c **** 	u8g_uint_t cnt;
 145:.\u8glib_arm_v1.18.1\src/u8g_dev_ssd1325_nhd27oled_gr_new.c **** 	cnt = pb->width;
 271              		.loc 1 145 0
 272 0072 7B69     		ldr	r3, [r7, #20]
 273 0074 5B79     		ldrb	r3, [r3, #5]
 274 0076 FB74     		strb	r3, [r7, #19]
 146:.\u8glib_arm_v1.18.1\src/u8g_dev_ssd1325_nhd27oled_gr_new.c **** 	cnt >>= 2;
 275              		.loc 1 146 0
 276 0078 FB7C     		ldrb	r3, [r7, #19]	@ zero_extendqisi2
 277 007a 9B08     		lsrs	r3, r3, #2
 278 007c FB74     		strb	r3, [r7, #19]
 147:.\u8glib_arm_v1.18.1\src/u8g_dev_ssd1325_nhd27oled_gr_new.c **** 
 148:.\u8glib_arm_v1.18.1\src/u8g_dev_ssd1325_nhd27oled_gr_new.c **** 	for( i = 0; i < pb->p.page_height; i++ )
 279              		.loc 1 148 0
 280 007e 0023     		movs	r3, #0
 281 0080 FB77     		strb	r3, [r7, #31]
 282 0082 18E0     		b	.L13
 283              	.L14:
 149:.\u8glib_arm_v1.18.1\src/u8g_dev_ssd1325_nhd27oled_gr_new.c **** 	{
 150:.\u8glib_arm_v1.18.1\src/u8g_dev_ssd1325_nhd27oled_gr_new.c **** 	  u8g_dev_ssd1325_gr_prepare_row(u8g, dev, i);		/* this will also enable chip select */
 284              		.loc 1 150 0 discriminator 3
 285 0084 FB7F     		ldrb	r3, [r7, #31]	@ zero_extendqisi2
 286 0086 F868     		ldr	r0, [r7, #12]
 287 0088 B968     		ldr	r1, [r7, #8]
 288 008a 1A46     		mov	r2, r3
 289 008c FFF7FEFF 		bl	u8g_dev_ssd1325_gr_prepare_row
 151:.\u8glib_arm_v1.18.1\src/u8g_dev_ssd1325_nhd27oled_gr_new.c **** 	  u8g_WriteSequence4LTo16GrDevice(u8g, dev, cnt, p);
 290              		.loc 1 151 0 discriminator 3
 291 0090 FB7C     		ldrb	r3, [r7, #19]	@ zero_extendqisi2
 292 0092 F868     		ldr	r0, [r7, #12]
 293 0094 B968     		ldr	r1, [r7, #8]
 294 0096 1A46     		mov	r2, r3
 295 0098 BB69     		ldr	r3, [r7, #24]
 296 009a FFF7FEFF 		bl	u8g_WriteSequence4LTo16GrDevice
 152:.\u8glib_arm_v1.18.1\src/u8g_dev_ssd1325_nhd27oled_gr_new.c **** 	  u8g_SetChipSelect(u8g, dev, 0);        
 297              		.loc 1 152 0 discriminator 3
 298 009e F868     		ldr	r0, [r7, #12]
 299 00a0 B968     		ldr	r1, [r7, #8]
 300 00a2 0022     		movs	r2, #0
 301 00a4 FFF7FEFF 		bl	u8g_SetChipSelect
 153:.\u8glib_arm_v1.18.1\src/u8g_dev_ssd1325_nhd27oled_gr_new.c **** 	  p+=cnt;
 302              		.loc 1 153 0 discriminator 3
 303 00a8 FB7C     		ldrb	r3, [r7, #19]	@ zero_extendqisi2
ARM GAS  C:\Users\Shiguruy\AppData\Local\Temp\ccD0h7re.s 			page 9


 304 00aa BA69     		ldr	r2, [r7, #24]
 305 00ac 1344     		add	r3, r3, r2
 306 00ae BB61     		str	r3, [r7, #24]
 148:.\u8glib_arm_v1.18.1\src/u8g_dev_ssd1325_nhd27oled_gr_new.c **** 	{
 307              		.loc 1 148 0 discriminator 3
 308 00b0 FB7F     		ldrb	r3, [r7, #31]	@ zero_extendqisi2
 309 00b2 0133     		adds	r3, r3, #1
 310 00b4 FB77     		strb	r3, [r7, #31]
 311              	.L13:
 148:.\u8glib_arm_v1.18.1\src/u8g_dev_ssd1325_nhd27oled_gr_new.c **** 	{
 312              		.loc 1 148 0 is_stmt 0 discriminator 1
 313 00b6 7B69     		ldr	r3, [r7, #20]
 314 00b8 1B78     		ldrb	r3, [r3]	@ zero_extendqisi2
 315 00ba FA7F     		ldrb	r2, [r7, #31]	@ zero_extendqisi2
 316 00bc 9A42     		cmp	r2, r3
 317 00be E1D3     		bcc	.L14
 318              	.LBE2:
 154:.\u8glib_arm_v1.18.1\src/u8g_dev_ssd1325_nhd27oled_gr_new.c **** 	}
 155:.\u8glib_arm_v1.18.1\src/u8g_dev_ssd1325_nhd27oled_gr_new.c ****       }
 156:.\u8glib_arm_v1.18.1\src/u8g_dev_ssd1325_nhd27oled_gr_new.c ****       break;
 319              		.loc 1 156 0 is_stmt 1
 320 00c0 2CE0     		b	.L5
 321              	.L9:
 157:.\u8glib_arm_v1.18.1\src/u8g_dev_ssd1325_nhd27oled_gr_new.c ****     case U8G_DEV_MSG_CONTRAST:
 158:.\u8glib_arm_v1.18.1\src/u8g_dev_ssd1325_nhd27oled_gr_new.c ****       u8g_SetChipSelect(u8g, dev, 1);
 322              		.loc 1 158 0
 323 00c2 F868     		ldr	r0, [r7, #12]
 324 00c4 B968     		ldr	r1, [r7, #8]
 325 00c6 0122     		movs	r2, #1
 326 00c8 FFF7FEFF 		bl	u8g_SetChipSelect
 159:.\u8glib_arm_v1.18.1\src/u8g_dev_ssd1325_nhd27oled_gr_new.c ****       u8g_SetAddress(u8g, dev, 0);          /* instruction mode */
 327              		.loc 1 159 0
 328 00cc F868     		ldr	r0, [r7, #12]
 329 00ce B968     		ldr	r1, [r7, #8]
 330 00d0 0022     		movs	r2, #0
 331 00d2 FFF7FEFF 		bl	u8g_SetAddress
 160:.\u8glib_arm_v1.18.1\src/u8g_dev_ssd1325_nhd27oled_gr_new.c ****       u8g_WriteByte(u8g, dev, 0x081);
 332              		.loc 1 160 0
 333 00d6 F868     		ldr	r0, [r7, #12]
 334 00d8 B968     		ldr	r1, [r7, #8]
 335 00da 8122     		movs	r2, #129
 336 00dc FFF7FEFF 		bl	u8g_WriteByte
 161:.\u8glib_arm_v1.18.1\src/u8g_dev_ssd1325_nhd27oled_gr_new.c ****       u8g_WriteByte(u8g, dev, (*(uint8_t *)arg) >> 1);
 337              		.loc 1 161 0
 338 00e0 3B68     		ldr	r3, [r7]
 339 00e2 1B78     		ldrb	r3, [r3]	@ zero_extendqisi2
 340 00e4 5B08     		lsrs	r3, r3, #1
 341 00e6 DBB2     		uxtb	r3, r3
 342 00e8 F868     		ldr	r0, [r7, #12]
 343 00ea B968     		ldr	r1, [r7, #8]
 344 00ec 1A46     		mov	r2, r3
 345 00ee FFF7FEFF 		bl	u8g_WriteByte
 162:.\u8glib_arm_v1.18.1\src/u8g_dev_ssd1325_nhd27oled_gr_new.c ****       u8g_SetChipSelect(u8g, dev, 0);      
 346              		.loc 1 162 0
 347 00f2 F868     		ldr	r0, [r7, #12]
 348 00f4 B968     		ldr	r1, [r7, #8]
 349 00f6 0022     		movs	r2, #0
ARM GAS  C:\Users\Shiguruy\AppData\Local\Temp\ccD0h7re.s 			page 10


 350 00f8 FFF7FEFF 		bl	u8g_SetChipSelect
 163:.\u8glib_arm_v1.18.1\src/u8g_dev_ssd1325_nhd27oled_gr_new.c ****       return 1;
 351              		.loc 1 163 0
 352 00fc 0123     		movs	r3, #1
 353 00fe 15E0     		b	.L15
 354              	.L10:
 164:.\u8glib_arm_v1.18.1\src/u8g_dev_ssd1325_nhd27oled_gr_new.c ****     case U8G_DEV_MSG_SLEEP_ON:
 165:.\u8glib_arm_v1.18.1\src/u8g_dev_ssd1325_nhd27oled_gr_new.c ****       u8g_WriteEscSeqP(u8g, dev, u8g_dev_ssd13xx_sleep_on);    
 355              		.loc 1 165 0
 356 0100 F868     		ldr	r0, [r7, #12]
 357 0102 B968     		ldr	r1, [r7, #8]
 358 0104 0C4A     		ldr	r2, .L16+4
 359 0106 FFF7FEFF 		bl	u8g_WriteEscSeqP
 166:.\u8glib_arm_v1.18.1\src/u8g_dev_ssd1325_nhd27oled_gr_new.c ****       return 1;
 360              		.loc 1 166 0
 361 010a 0123     		movs	r3, #1
 362 010c 0EE0     		b	.L15
 363              	.L11:
 167:.\u8glib_arm_v1.18.1\src/u8g_dev_ssd1325_nhd27oled_gr_new.c ****     case U8G_DEV_MSG_SLEEP_OFF:
 168:.\u8glib_arm_v1.18.1\src/u8g_dev_ssd1325_nhd27oled_gr_new.c ****       u8g_WriteEscSeqP(u8g, dev, u8g_dev_ssd13xx_sleep_off);    
 364              		.loc 1 168 0
 365 010e F868     		ldr	r0, [r7, #12]
 366 0110 B968     		ldr	r1, [r7, #8]
 367 0112 0A4A     		ldr	r2, .L16+8
 368 0114 FFF7FEFF 		bl	u8g_WriteEscSeqP
 169:.\u8glib_arm_v1.18.1\src/u8g_dev_ssd1325_nhd27oled_gr_new.c ****       return 1;
 369              		.loc 1 169 0
 370 0118 0123     		movs	r3, #1
 371 011a 07E0     		b	.L15
 372              	.L5:
 170:.\u8glib_arm_v1.18.1\src/u8g_dev_ssd1325_nhd27oled_gr_new.c ****   }
 171:.\u8glib_arm_v1.18.1\src/u8g_dev_ssd1325_nhd27oled_gr_new.c ****   return u8g_dev_pb8h2_base_fn(u8g, dev, msg, arg);
 373              		.loc 1 171 0
 374 011c FB79     		ldrb	r3, [r7, #7]	@ zero_extendqisi2
 375 011e F868     		ldr	r0, [r7, #12]
 376 0120 B968     		ldr	r1, [r7, #8]
 377 0122 1A46     		mov	r2, r3
 378 0124 3B68     		ldr	r3, [r7]
 379 0126 FFF7FEFF 		bl	u8g_dev_pb8h2_base_fn
 380 012a 0346     		mov	r3, r0
 381              	.L15:
 172:.\u8glib_arm_v1.18.1\src/u8g_dev_ssd1325_nhd27oled_gr_new.c **** }
 382              		.loc 1 172 0
 383 012c 1846     		mov	r0, r3
 384 012e 2037     		adds	r7, r7, #32
 385              		.cfi_def_cfa_offset 8
 386 0130 BD46     		mov	sp, r7
 387              		.cfi_def_cfa_register 13
 388              		@ sp needed
 389 0132 80BD     		pop	{r7, pc}
 390              	.L17:
 391              		.align	2
 392              	.L16:
 393 0134 00000000 		.word	u8g_dev_ssd1325_2bit_nhd_27_12864ucy3_init_seq
 394 0138 48000000 		.word	u8g_dev_ssd13xx_sleep_on
 395 013c 54000000 		.word	u8g_dev_ssd13xx_sleep_off
 396              		.cfi_endproc
ARM GAS  C:\Users\Shiguruy\AppData\Local\Temp\ccD0h7re.s 			page 11


 397              	.LFE1:
 398              		.size	u8g_dev_ssd1325_nhd27oled_gr_fn, .-u8g_dev_ssd1325_nhd27oled_gr_fn
 399              		.section	.text.u8g_dev_ssd1325_nhd27oled_2x_gr_fn,"ax",%progbits
 400              		.align	2
 401              		.thumb
 402              		.thumb_func
 403              		.type	u8g_dev_ssd1325_nhd27oled_2x_gr_fn, %function
 404              	u8g_dev_ssd1325_nhd27oled_2x_gr_fn:
 405              	.LFB2:
 173:.\u8glib_arm_v1.18.1\src/u8g_dev_ssd1325_nhd27oled_gr_new.c **** 
 174:.\u8glib_arm_v1.18.1\src/u8g_dev_ssd1325_nhd27oled_gr_new.c **** 
 175:.\u8glib_arm_v1.18.1\src/u8g_dev_ssd1325_nhd27oled_gr_new.c **** 
 176:.\u8glib_arm_v1.18.1\src/u8g_dev_ssd1325_nhd27oled_gr_new.c **** static uint8_t u8g_dev_ssd1325_nhd27oled_2x_gr_fn(u8g_t *u8g, u8g_dev_t *dev, uint8_t msg, void *ar
 177:.\u8glib_arm_v1.18.1\src/u8g_dev_ssd1325_nhd27oled_gr_new.c **** {
 406              		.loc 1 177 0
 407              		.cfi_startproc
 408              		@ args = 0, pretend = 0, frame = 32
 409              		@ frame_needed = 1, uses_anonymous_args = 0
 410 0000 80B5     		push	{r7, lr}
 411              		.cfi_def_cfa_offset 8
 412              		.cfi_offset 7, -8
 413              		.cfi_offset 14, -4
 414 0002 88B0     		sub	sp, sp, #32
 415              		.cfi_def_cfa_offset 40
 416 0004 00AF     		add	r7, sp, #0
 417              		.cfi_def_cfa_register 7
 418 0006 F860     		str	r0, [r7, #12]
 419 0008 B960     		str	r1, [r7, #8]
 420 000a 3B60     		str	r3, [r7]
 421 000c 1346     		mov	r3, r2
 422 000e FB71     		strb	r3, [r7, #7]
 178:.\u8glib_arm_v1.18.1\src/u8g_dev_ssd1325_nhd27oled_gr_new.c ****   switch(msg)
 423              		.loc 1 178 0
 424 0010 FB79     		ldrb	r3, [r7, #7]	@ zero_extendqisi2
 425 0012 0A3B     		subs	r3, r3, #10
 426 0014 0B2B     		cmp	r3, #11
 427 0016 00F28180 		bhi	.L19
 428 001a 01A2     		adr	r2, .L21
 429 001c 52F823F0 		ldr	pc, [r2, r3, lsl #2]
 430              		.p2align 2
 431              	.L21:
 432 0020 51000000 		.word	.L20+1
 433 0024 1D010000 		.word	.L19+1
 434 0028 1D010000 		.word	.L19+1
 435 002c 1D010000 		.word	.L19+1
 436 0030 1D010000 		.word	.L19+1
 437 0034 C3000000 		.word	.L23+1
 438 0038 01010000 		.word	.L24+1
 439 003c 0F010000 		.word	.L25+1
 440 0040 1D010000 		.word	.L19+1
 441 0044 1D010000 		.word	.L19+1
 442 0048 1D010000 		.word	.L19+1
 443 004c 67000000 		.word	.L26+1
 444              		.p2align 1
 445              	.L20:
 179:.\u8glib_arm_v1.18.1\src/u8g_dev_ssd1325_nhd27oled_gr_new.c ****   {
 180:.\u8glib_arm_v1.18.1\src/u8g_dev_ssd1325_nhd27oled_gr_new.c ****     case U8G_DEV_MSG_INIT:
ARM GAS  C:\Users\Shiguruy\AppData\Local\Temp\ccD0h7re.s 			page 12


 181:.\u8glib_arm_v1.18.1\src/u8g_dev_ssd1325_nhd27oled_gr_new.c ****       u8g_InitCom(u8g, dev, U8G_SPI_CLK_CYCLE_300NS);
 446              		.loc 1 181 0
 447 0050 F868     		ldr	r0, [r7, #12]
 448 0052 B968     		ldr	r1, [r7, #8]
 449 0054 0222     		movs	r2, #2
 450 0056 FFF7FEFF 		bl	u8g_InitCom
 182:.\u8glib_arm_v1.18.1\src/u8g_dev_ssd1325_nhd27oled_gr_new.c ****       u8g_WriteEscSeqP(u8g, dev, u8g_dev_ssd1325_2bit_nhd_27_12864ucy3_init_seq);
 451              		.loc 1 182 0
 452 005a F868     		ldr	r0, [r7, #12]
 453 005c B968     		ldr	r1, [r7, #8]
 454 005e 354A     		ldr	r2, .L30
 455 0060 FFF7FEFF 		bl	u8g_WriteEscSeqP
 183:.\u8glib_arm_v1.18.1\src/u8g_dev_ssd1325_nhd27oled_gr_new.c ****       break;
 456              		.loc 1 183 0
 457 0064 5AE0     		b	.L19
 458              	.L26:
 459              	.LBB3:
 184:.\u8glib_arm_v1.18.1\src/u8g_dev_ssd1325_nhd27oled_gr_new.c ****     case U8G_DEV_MSG_STOP:
 185:.\u8glib_arm_v1.18.1\src/u8g_dev_ssd1325_nhd27oled_gr_new.c ****       break;
 186:.\u8glib_arm_v1.18.1\src/u8g_dev_ssd1325_nhd27oled_gr_new.c ****     case U8G_DEV_MSG_PAGE_NEXT:
 187:.\u8glib_arm_v1.18.1\src/u8g_dev_ssd1325_nhd27oled_gr_new.c ****       {
 188:.\u8glib_arm_v1.18.1\src/u8g_dev_ssd1325_nhd27oled_gr_new.c **** 	uint8_t i;
 189:.\u8glib_arm_v1.18.1\src/u8g_dev_ssd1325_nhd27oled_gr_new.c **** 	u8g_pb_t *pb = (u8g_pb_t *)(dev->dev_mem);
 460              		.loc 1 189 0
 461 0066 BB68     		ldr	r3, [r7, #8]
 462 0068 5B68     		ldr	r3, [r3, #4]
 463 006a 7B61     		str	r3, [r7, #20]
 190:.\u8glib_arm_v1.18.1\src/u8g_dev_ssd1325_nhd27oled_gr_new.c **** 	uint8_t *p = pb->buf;
 464              		.loc 1 190 0
 465 006c 7B69     		ldr	r3, [r7, #20]
 466 006e 9B68     		ldr	r3, [r3, #8]
 467 0070 BB61     		str	r3, [r7, #24]
 191:.\u8glib_arm_v1.18.1\src/u8g_dev_ssd1325_nhd27oled_gr_new.c **** 	u8g_uint_t cnt;
 192:.\u8glib_arm_v1.18.1\src/u8g_dev_ssd1325_nhd27oled_gr_new.c **** 	cnt = pb->width;
 468              		.loc 1 192 0
 469 0072 7B69     		ldr	r3, [r7, #20]
 470 0074 5B79     		ldrb	r3, [r3, #5]
 471 0076 FB74     		strb	r3, [r7, #19]
 193:.\u8glib_arm_v1.18.1\src/u8g_dev_ssd1325_nhd27oled_gr_new.c **** 	cnt >>= 2;
 472              		.loc 1 193 0
 473 0078 FB7C     		ldrb	r3, [r7, #19]	@ zero_extendqisi2
 474 007a 9B08     		lsrs	r3, r3, #2
 475 007c FB74     		strb	r3, [r7, #19]
 194:.\u8glib_arm_v1.18.1\src/u8g_dev_ssd1325_nhd27oled_gr_new.c **** 
 195:.\u8glib_arm_v1.18.1\src/u8g_dev_ssd1325_nhd27oled_gr_new.c **** 	for( i = 0; i < pb->p.page_height; i++ )
 476              		.loc 1 195 0
 477 007e 0023     		movs	r3, #0
 478 0080 FB77     		strb	r3, [r7, #31]
 479 0082 18E0     		b	.L27
 480              	.L28:
 196:.\u8glib_arm_v1.18.1\src/u8g_dev_ssd1325_nhd27oled_gr_new.c **** 	{
 197:.\u8glib_arm_v1.18.1\src/u8g_dev_ssd1325_nhd27oled_gr_new.c **** 	  u8g_dev_ssd1325_gr_prepare_row(u8g, dev, i);		/* this will also enable chip select */
 481              		.loc 1 197 0 discriminator 3
 482 0084 FB7F     		ldrb	r3, [r7, #31]	@ zero_extendqisi2
 483 0086 F868     		ldr	r0, [r7, #12]
 484 0088 B968     		ldr	r1, [r7, #8]
 485 008a 1A46     		mov	r2, r3
ARM GAS  C:\Users\Shiguruy\AppData\Local\Temp\ccD0h7re.s 			page 13


 486 008c FFF7FEFF 		bl	u8g_dev_ssd1325_gr_prepare_row
 198:.\u8glib_arm_v1.18.1\src/u8g_dev_ssd1325_nhd27oled_gr_new.c **** 	  u8g_WriteSequence4LTo16GrDevice(u8g, dev, cnt, p);
 487              		.loc 1 198 0 discriminator 3
 488 0090 FB7C     		ldrb	r3, [r7, #19]	@ zero_extendqisi2
 489 0092 F868     		ldr	r0, [r7, #12]
 490 0094 B968     		ldr	r1, [r7, #8]
 491 0096 1A46     		mov	r2, r3
 492 0098 BB69     		ldr	r3, [r7, #24]
 493 009a FFF7FEFF 		bl	u8g_WriteSequence4LTo16GrDevice
 199:.\u8glib_arm_v1.18.1\src/u8g_dev_ssd1325_nhd27oled_gr_new.c **** 	  u8g_SetChipSelect(u8g, dev, 0);        
 494              		.loc 1 199 0 discriminator 3
 495 009e F868     		ldr	r0, [r7, #12]
 496 00a0 B968     		ldr	r1, [r7, #8]
 497 00a2 0022     		movs	r2, #0
 498 00a4 FFF7FEFF 		bl	u8g_SetChipSelect
 200:.\u8glib_arm_v1.18.1\src/u8g_dev_ssd1325_nhd27oled_gr_new.c **** 	  p+=cnt;
 499              		.loc 1 200 0 discriminator 3
 500 00a8 FB7C     		ldrb	r3, [r7, #19]	@ zero_extendqisi2
 501 00aa BA69     		ldr	r2, [r7, #24]
 502 00ac 1344     		add	r3, r3, r2
 503 00ae BB61     		str	r3, [r7, #24]
 195:.\u8glib_arm_v1.18.1\src/u8g_dev_ssd1325_nhd27oled_gr_new.c **** 	{
 504              		.loc 1 195 0 discriminator 3
 505 00b0 FB7F     		ldrb	r3, [r7, #31]	@ zero_extendqisi2
 506 00b2 0133     		adds	r3, r3, #1
 507 00b4 FB77     		strb	r3, [r7, #31]
 508              	.L27:
 195:.\u8glib_arm_v1.18.1\src/u8g_dev_ssd1325_nhd27oled_gr_new.c **** 	{
 509              		.loc 1 195 0 is_stmt 0 discriminator 1
 510 00b6 7B69     		ldr	r3, [r7, #20]
 511 00b8 1B78     		ldrb	r3, [r3]	@ zero_extendqisi2
 512 00ba FA7F     		ldrb	r2, [r7, #31]	@ zero_extendqisi2
 513 00bc 9A42     		cmp	r2, r3
 514 00be E1D3     		bcc	.L28
 515              	.LBE3:
 201:.\u8glib_arm_v1.18.1\src/u8g_dev_ssd1325_nhd27oled_gr_new.c **** 	}
 202:.\u8glib_arm_v1.18.1\src/u8g_dev_ssd1325_nhd27oled_gr_new.c ****       }
 203:.\u8glib_arm_v1.18.1\src/u8g_dev_ssd1325_nhd27oled_gr_new.c ****       break;
 516              		.loc 1 203 0 is_stmt 1
 517 00c0 2CE0     		b	.L19
 518              	.L23:
 204:.\u8glib_arm_v1.18.1\src/u8g_dev_ssd1325_nhd27oled_gr_new.c ****     case U8G_DEV_MSG_CONTRAST:
 205:.\u8glib_arm_v1.18.1\src/u8g_dev_ssd1325_nhd27oled_gr_new.c ****       u8g_SetChipSelect(u8g, dev, 1);
 519              		.loc 1 205 0
 520 00c2 F868     		ldr	r0, [r7, #12]
 521 00c4 B968     		ldr	r1, [r7, #8]
 522 00c6 0122     		movs	r2, #1
 523 00c8 FFF7FEFF 		bl	u8g_SetChipSelect
 206:.\u8glib_arm_v1.18.1\src/u8g_dev_ssd1325_nhd27oled_gr_new.c ****       u8g_SetAddress(u8g, dev, 0);          /* instruction mode */
 524              		.loc 1 206 0
 525 00cc F868     		ldr	r0, [r7, #12]
 526 00ce B968     		ldr	r1, [r7, #8]
 527 00d0 0022     		movs	r2, #0
 528 00d2 FFF7FEFF 		bl	u8g_SetAddress
 207:.\u8glib_arm_v1.18.1\src/u8g_dev_ssd1325_nhd27oled_gr_new.c ****       u8g_WriteByte(u8g, dev, 0x081);
 529              		.loc 1 207 0
 530 00d6 F868     		ldr	r0, [r7, #12]
ARM GAS  C:\Users\Shiguruy\AppData\Local\Temp\ccD0h7re.s 			page 14


 531 00d8 B968     		ldr	r1, [r7, #8]
 532 00da 8122     		movs	r2, #129
 533 00dc FFF7FEFF 		bl	u8g_WriteByte
 208:.\u8glib_arm_v1.18.1\src/u8g_dev_ssd1325_nhd27oled_gr_new.c ****       u8g_WriteByte(u8g, dev, (*(uint8_t *)arg) >> 1);
 534              		.loc 1 208 0
 535 00e0 3B68     		ldr	r3, [r7]
 536 00e2 1B78     		ldrb	r3, [r3]	@ zero_extendqisi2
 537 00e4 5B08     		lsrs	r3, r3, #1
 538 00e6 DBB2     		uxtb	r3, r3
 539 00e8 F868     		ldr	r0, [r7, #12]
 540 00ea B968     		ldr	r1, [r7, #8]
 541 00ec 1A46     		mov	r2, r3
 542 00ee FFF7FEFF 		bl	u8g_WriteByte
 209:.\u8glib_arm_v1.18.1\src/u8g_dev_ssd1325_nhd27oled_gr_new.c ****       u8g_SetChipSelect(u8g, dev, 0);      
 543              		.loc 1 209 0
 544 00f2 F868     		ldr	r0, [r7, #12]
 545 00f4 B968     		ldr	r1, [r7, #8]
 546 00f6 0022     		movs	r2, #0
 547 00f8 FFF7FEFF 		bl	u8g_SetChipSelect
 210:.\u8glib_arm_v1.18.1\src/u8g_dev_ssd1325_nhd27oled_gr_new.c ****       return 1;
 548              		.loc 1 210 0
 549 00fc 0123     		movs	r3, #1
 550 00fe 15E0     		b	.L29
 551              	.L24:
 211:.\u8glib_arm_v1.18.1\src/u8g_dev_ssd1325_nhd27oled_gr_new.c ****     case U8G_DEV_MSG_SLEEP_ON:
 212:.\u8glib_arm_v1.18.1\src/u8g_dev_ssd1325_nhd27oled_gr_new.c ****       u8g_WriteEscSeqP(u8g, dev, u8g_dev_ssd13xx_sleep_on);    
 552              		.loc 1 212 0
 553 0100 F868     		ldr	r0, [r7, #12]
 554 0102 B968     		ldr	r1, [r7, #8]
 555 0104 0C4A     		ldr	r2, .L30+4
 556 0106 FFF7FEFF 		bl	u8g_WriteEscSeqP
 213:.\u8glib_arm_v1.18.1\src/u8g_dev_ssd1325_nhd27oled_gr_new.c ****       return 1;
 557              		.loc 1 213 0
 558 010a 0123     		movs	r3, #1
 559 010c 0EE0     		b	.L29
 560              	.L25:
 214:.\u8glib_arm_v1.18.1\src/u8g_dev_ssd1325_nhd27oled_gr_new.c ****     case U8G_DEV_MSG_SLEEP_OFF:
 215:.\u8glib_arm_v1.18.1\src/u8g_dev_ssd1325_nhd27oled_gr_new.c ****       u8g_WriteEscSeqP(u8g, dev, u8g_dev_ssd13xx_sleep_off);    
 561              		.loc 1 215 0
 562 010e F868     		ldr	r0, [r7, #12]
 563 0110 B968     		ldr	r1, [r7, #8]
 564 0112 0A4A     		ldr	r2, .L30+8
 565 0114 FFF7FEFF 		bl	u8g_WriteEscSeqP
 216:.\u8glib_arm_v1.18.1\src/u8g_dev_ssd1325_nhd27oled_gr_new.c ****       return 1;
 566              		.loc 1 216 0
 567 0118 0123     		movs	r3, #1
 568 011a 07E0     		b	.L29
 569              	.L19:
 217:.\u8glib_arm_v1.18.1\src/u8g_dev_ssd1325_nhd27oled_gr_new.c ****   }
 218:.\u8glib_arm_v1.18.1\src/u8g_dev_ssd1325_nhd27oled_gr_new.c ****   return u8g_dev_pb16h2_base_fn(u8g, dev, msg, arg);
 570              		.loc 1 218 0
 571 011c FB79     		ldrb	r3, [r7, #7]	@ zero_extendqisi2
 572 011e F868     		ldr	r0, [r7, #12]
 573 0120 B968     		ldr	r1, [r7, #8]
 574 0122 1A46     		mov	r2, r3
 575 0124 3B68     		ldr	r3, [r7]
 576 0126 FFF7FEFF 		bl	u8g_dev_pb16h2_base_fn
ARM GAS  C:\Users\Shiguruy\AppData\Local\Temp\ccD0h7re.s 			page 15


 577 012a 0346     		mov	r3, r0
 578              	.L29:
 219:.\u8glib_arm_v1.18.1\src/u8g_dev_ssd1325_nhd27oled_gr_new.c **** }
 579              		.loc 1 219 0
 580 012c 1846     		mov	r0, r3
 581 012e 2037     		adds	r7, r7, #32
 582              		.cfi_def_cfa_offset 8
 583 0130 BD46     		mov	sp, r7
 584              		.cfi_def_cfa_register 13
 585              		@ sp needed
 586 0132 80BD     		pop	{r7, pc}
 587              	.L31:
 588              		.align	2
 589              	.L30:
 590 0134 00000000 		.word	u8g_dev_ssd1325_2bit_nhd_27_12864ucy3_init_seq
 591 0138 48000000 		.word	u8g_dev_ssd13xx_sleep_on
 592 013c 54000000 		.word	u8g_dev_ssd13xx_sleep_off
 593              		.cfi_endproc
 594              	.LFE2:
 595              		.size	u8g_dev_ssd1325_nhd27oled_2x_gr_fn, .-u8g_dev_ssd1325_nhd27oled_2x_gr_fn
 596              		.global	u8g_dev_ssd1325_nhd27oled_gr_sw_spi_buf
 597              		.bss
 598              		.align	2
 599              		.type	u8g_dev_ssd1325_nhd27oled_gr_sw_spi_buf, %object
 600              		.size	u8g_dev_ssd1325_nhd27oled_gr_sw_spi_buf, 128
 601              	u8g_dev_ssd1325_nhd27oled_gr_sw_spi_buf:
 602 0000 00000000 		.space	128
 602      00000000 
 602      00000000 
 602      00000000 
 602      00000000 
 603              		.global	u8g_dev_ssd1325_nhd27oled_gr_sw_spi_pb
 604              		.data
 605              		.align	2
 606              		.type	u8g_dev_ssd1325_nhd27oled_gr_sw_spi_pb, %object
 607              		.size	u8g_dev_ssd1325_nhd27oled_gr_sw_spi_pb, 12
 608              	u8g_dev_ssd1325_nhd27oled_gr_sw_spi_pb:
 609 0000 04       		.byte	4
 610 0001 40       		.byte	64
 611 0002 00       		.byte	0
 612 0003 00       		.byte	0
 613 0004 00       		.byte	0
 614 0005 80       		.byte	-128
 615 0006 0000     		.space	2
 616 0008 00000000 		.word	u8g_dev_ssd1325_nhd27oled_gr_sw_spi_buf
 617              		.global	u8g_dev_ssd1325_nhd27oled_gr_sw_spi
 618              		.align	2
 619              		.type	u8g_dev_ssd1325_nhd27oled_gr_sw_spi, %object
 620              		.size	u8g_dev_ssd1325_nhd27oled_gr_sw_spi, 12
 621              	u8g_dev_ssd1325_nhd27oled_gr_sw_spi:
 622 000c 00000000 		.word	u8g_dev_ssd1325_nhd27oled_gr_fn
 623 0010 00000000 		.word	u8g_dev_ssd1325_nhd27oled_gr_sw_spi_pb
 624 0014 00000000 		.word	u8g_com_null_fn
 625              		.global	u8g_dev_ssd1325_nhd27oled_gr_hw_spi_buf
 626              		.bss
 627              		.align	2
 628              		.type	u8g_dev_ssd1325_nhd27oled_gr_hw_spi_buf, %object
ARM GAS  C:\Users\Shiguruy\AppData\Local\Temp\ccD0h7re.s 			page 16


 629              		.size	u8g_dev_ssd1325_nhd27oled_gr_hw_spi_buf, 128
 630              	u8g_dev_ssd1325_nhd27oled_gr_hw_spi_buf:
 631 0080 00000000 		.space	128
 631      00000000 
 631      00000000 
 631      00000000 
 631      00000000 
 632              		.global	u8g_dev_ssd1325_nhd27oled_gr_hw_spi_pb
 633              		.data
 634              		.align	2
 635              		.type	u8g_dev_ssd1325_nhd27oled_gr_hw_spi_pb, %object
 636              		.size	u8g_dev_ssd1325_nhd27oled_gr_hw_spi_pb, 12
 637              	u8g_dev_ssd1325_nhd27oled_gr_hw_spi_pb:
 638 0018 04       		.byte	4
 639 0019 40       		.byte	64
 640 001a 00       		.byte	0
 641 001b 00       		.byte	0
 642 001c 00       		.byte	0
 643 001d 80       		.byte	-128
 644 001e 0000     		.space	2
 645 0020 00000000 		.word	u8g_dev_ssd1325_nhd27oled_gr_hw_spi_buf
 646              		.global	u8g_dev_ssd1325_nhd27oled_gr_hw_spi
 647              		.align	2
 648              		.type	u8g_dev_ssd1325_nhd27oled_gr_hw_spi, %object
 649              		.size	u8g_dev_ssd1325_nhd27oled_gr_hw_spi, 12
 650              	u8g_dev_ssd1325_nhd27oled_gr_hw_spi:
 651 0024 00000000 		.word	u8g_dev_ssd1325_nhd27oled_gr_fn
 652 0028 00000000 		.word	u8g_dev_ssd1325_nhd27oled_gr_hw_spi_pb
 653 002c 00000000 		.word	u8g_com_null_fn
 654              		.global	u8g_dev_ssd1325_nhd27oled_2x_buf
 655              		.bss
 656              		.align	2
 657              		.type	u8g_dev_ssd1325_nhd27oled_2x_buf, %object
 658              		.size	u8g_dev_ssd1325_nhd27oled_2x_buf, 256
 659              	u8g_dev_ssd1325_nhd27oled_2x_buf:
 660 0100 00000000 		.space	256
 660      00000000 
 660      00000000 
 660      00000000 
 660      00000000 
 661              		.global	u8g_dev_ssd1325_nhd27oled_2x_pb
 662              		.data
 663              		.align	2
 664              		.type	u8g_dev_ssd1325_nhd27oled_2x_pb, %object
 665              		.size	u8g_dev_ssd1325_nhd27oled_2x_pb, 12
 666              	u8g_dev_ssd1325_nhd27oled_2x_pb:
 667 0030 08       		.byte	8
 668 0031 40       		.byte	64
 669 0032 00       		.byte	0
 670 0033 00       		.byte	0
 671 0034 00       		.byte	0
 672 0035 80       		.byte	-128
 673 0036 0000     		.space	2
 674 0038 00000000 		.word	u8g_dev_ssd1325_nhd27oled_2x_buf
 675              		.global	u8g_dev_ssd1325_nhd27oled_2x_gr_sw_spi
 676              		.align	2
 677              		.type	u8g_dev_ssd1325_nhd27oled_2x_gr_sw_spi, %object
ARM GAS  C:\Users\Shiguruy\AppData\Local\Temp\ccD0h7re.s 			page 17


 678              		.size	u8g_dev_ssd1325_nhd27oled_2x_gr_sw_spi, 12
 679              	u8g_dev_ssd1325_nhd27oled_2x_gr_sw_spi:
 680 003c 00000000 		.word	u8g_dev_ssd1325_nhd27oled_2x_gr_fn
 681 0040 00000000 		.word	u8g_dev_ssd1325_nhd27oled_2x_pb
 682 0044 00000000 		.word	u8g_com_null_fn
 683              		.global	u8g_dev_ssd1325_nhd27oled_2x_gr_hw_spi
 684              		.align	2
 685              		.type	u8g_dev_ssd1325_nhd27oled_2x_gr_hw_spi, %object
 686              		.size	u8g_dev_ssd1325_nhd27oled_2x_gr_hw_spi, 12
 687              	u8g_dev_ssd1325_nhd27oled_2x_gr_hw_spi:
 688 0048 00000000 		.word	u8g_dev_ssd1325_nhd27oled_2x_gr_fn
 689 004c 00000000 		.word	u8g_dev_ssd1325_nhd27oled_2x_pb
 690 0050 00000000 		.word	u8g_com_null_fn
 691              		.text
 692              	.Letext0:
 693              		.file 2 "c:\\program files (x86)\\cypress\\psoc creator\\3.3\\psoc creator\\import\\gnu\\arm\\4.9.
 694              		.file 3 "c:\\program files (x86)\\cypress\\psoc creator\\3.3\\psoc creator\\import\\gnu\\arm\\4.9.
 695              		.file 4 ".\\u8glib_arm_v1.18.1\\src\\u8g.h"