ARM GAS  C:\Users\Shiguruy\AppData\Local\Temp\ccBNuIe7.s 			page 1


   1              		.syntax unified
   2              		.cpu cortex-m3
   3              		.fpu softvfp
   4              		.eabi_attribute 20, 1
   5              		.eabi_attribute 21, 1
   6              		.eabi_attribute 23, 3
   7              		.eabi_attribute 24, 1
   8              		.eabi_attribute 25, 1
   9              		.eabi_attribute 26, 1
  10              		.eabi_attribute 30, 6
  11              		.eabi_attribute 34, 1
  12              		.eabi_attribute 18, 4
  13              		.thumb
  14              		.file	"u8g_dev_ks0108_128x64.c"
  15              		.text
  16              	.Ltext0:
  17              		.cfi_sections	.debug_frame
  18              		.section	.rodata
  19              		.align	2
  20              		.type	u8g_dev_ks0108_128x64_init_seq, %object
  21              		.size	u8g_dev_ks0108_128x64_init_seq, 22
  22              	u8g_dev_ks0108_128x64_init_seq:
  23 0000 FF       		.byte	-1
  24 0001 D0       		.byte	-48
  25 0002 FF       		.byte	-1
  26 0003 E0       		.byte	-32
  27 0004 FF       		.byte	-1
  28 0005 C1       		.byte	-63
  29 0006 FF       		.byte	-1
  30 0007 D1       		.byte	-47
  31 0008 3F       		.byte	63
  32 0009 C0       		.byte	-64
  33 000a FF       		.byte	-1
  34 000b 14       		.byte	20
  35 000c FF       		.byte	-1
  36 000d D2       		.byte	-46
  37 000e 3F       		.byte	63
  38 000f C0       		.byte	-64
  39 0010 FF       		.byte	-1
  40 0011 14       		.byte	20
  41 0012 FF       		.byte	-1
  42 0013 D0       		.byte	-48
  43 0014 FF       		.byte	-1
  44 0015 FE       		.byte	-2
  45 0016 0000     		.section	.text.u8g_dev_ks0108_128x64_fn,"ax",%progbits
  46              		.align	2
  47              		.global	u8g_dev_ks0108_128x64_fn
  48              		.thumb
  49              		.thumb_func
  50              		.type	u8g_dev_ks0108_128x64_fn, %function
  51              	u8g_dev_ks0108_128x64_fn:
  52              	.LFB0:
  53              		.file 1 ".\\u8glib_arm_v1.18.1\\src\\u8g_dev_ks0108_128x64.c"
   1:.\u8glib_arm_v1.18.1\src/u8g_dev_ks0108_128x64.c **** /*
   2:.\u8glib_arm_v1.18.1\src/u8g_dev_ks0108_128x64.c **** 
   3:.\u8glib_arm_v1.18.1\src/u8g_dev_ks0108_128x64.c ****   u8g_dev_ks0108_128x64.c
   4:.\u8glib_arm_v1.18.1\src/u8g_dev_ks0108_128x64.c **** 
ARM GAS  C:\Users\Shiguruy\AppData\Local\Temp\ccBNuIe7.s 			page 2


   5:.\u8glib_arm_v1.18.1\src/u8g_dev_ks0108_128x64.c ****   Universal 8bit Graphics Library
   6:.\u8glib_arm_v1.18.1\src/u8g_dev_ks0108_128x64.c ****   
   7:.\u8glib_arm_v1.18.1\src/u8g_dev_ks0108_128x64.c ****   Copyright (c) 2011, olikraus@gmail.com
   8:.\u8glib_arm_v1.18.1\src/u8g_dev_ks0108_128x64.c ****   All rights reserved.
   9:.\u8glib_arm_v1.18.1\src/u8g_dev_ks0108_128x64.c **** 
  10:.\u8glib_arm_v1.18.1\src/u8g_dev_ks0108_128x64.c ****   Redistribution and use in source and binary forms, with or without modification, 
  11:.\u8glib_arm_v1.18.1\src/u8g_dev_ks0108_128x64.c ****   are permitted provided that the following conditions are met:
  12:.\u8glib_arm_v1.18.1\src/u8g_dev_ks0108_128x64.c **** 
  13:.\u8glib_arm_v1.18.1\src/u8g_dev_ks0108_128x64.c ****   * Redistributions of source code must retain the above copyright notice, this list 
  14:.\u8glib_arm_v1.18.1\src/u8g_dev_ks0108_128x64.c ****     of conditions and the following disclaimer.
  15:.\u8glib_arm_v1.18.1\src/u8g_dev_ks0108_128x64.c ****     
  16:.\u8glib_arm_v1.18.1\src/u8g_dev_ks0108_128x64.c ****   * Redistributions in binary form must reproduce the above copyright notice, this 
  17:.\u8glib_arm_v1.18.1\src/u8g_dev_ks0108_128x64.c ****     list of conditions and the following disclaimer in the documentation and/or other 
  18:.\u8glib_arm_v1.18.1\src/u8g_dev_ks0108_128x64.c ****     materials provided with the distribution.
  19:.\u8glib_arm_v1.18.1\src/u8g_dev_ks0108_128x64.c **** 
  20:.\u8glib_arm_v1.18.1\src/u8g_dev_ks0108_128x64.c ****   THIS SOFTWARE IS PROVIDED BY THE COPYRIGHT HOLDERS AND 
  21:.\u8glib_arm_v1.18.1\src/u8g_dev_ks0108_128x64.c ****   CONTRIBUTORS "AS IS" AND ANY EXPRESS OR IMPLIED WARRANTIES, 
  22:.\u8glib_arm_v1.18.1\src/u8g_dev_ks0108_128x64.c ****   INCLUDING, BUT NOT LIMITED TO, THE IMPLIED WARRANTIES OF 
  23:.\u8glib_arm_v1.18.1\src/u8g_dev_ks0108_128x64.c ****   MERCHANTABILITY AND FITNESS FOR A PARTICULAR PURPOSE ARE 
  24:.\u8glib_arm_v1.18.1\src/u8g_dev_ks0108_128x64.c ****   DISCLAIMED. IN NO EVENT SHALL THE COPYRIGHT HOLDER OR 
  25:.\u8glib_arm_v1.18.1\src/u8g_dev_ks0108_128x64.c ****   CONTRIBUTORS BE LIABLE FOR ANY DIRECT, INDIRECT, INCIDENTAL, 
  26:.\u8glib_arm_v1.18.1\src/u8g_dev_ks0108_128x64.c ****   SPECIAL, EXEMPLARY, OR CONSEQUENTIAL DAMAGES (INCLUDING, BUT 
  27:.\u8glib_arm_v1.18.1\src/u8g_dev_ks0108_128x64.c ****   NOT LIMITED TO, PROCUREMENT OF SUBSTITUTE GOODS OR SERVICES; 
  28:.\u8glib_arm_v1.18.1\src/u8g_dev_ks0108_128x64.c ****   LOSS OF USE, DATA, OR PROFITS; OR BUSINESS INTERRUPTION) HOWEVER 
  29:.\u8glib_arm_v1.18.1\src/u8g_dev_ks0108_128x64.c ****   CAUSED AND ON ANY THEORY OF LIABILITY, WHETHER IN CONTRACT, 
  30:.\u8glib_arm_v1.18.1\src/u8g_dev_ks0108_128x64.c ****   STRICT LIABILITY, OR TORT (INCLUDING NEGLIGENCE OR OTHERWISE) 
  31:.\u8glib_arm_v1.18.1\src/u8g_dev_ks0108_128x64.c ****   ARISING IN ANY WAY OUT OF THE USE OF THIS SOFTWARE, EVEN IF 
  32:.\u8glib_arm_v1.18.1\src/u8g_dev_ks0108_128x64.c ****   ADVISED OF THE POSSIBILITY OF SUCH DAMAGE.  
  33:.\u8glib_arm_v1.18.1\src/u8g_dev_ks0108_128x64.c ****   
  34:.\u8glib_arm_v1.18.1\src/u8g_dev_ks0108_128x64.c **** 
  35:.\u8glib_arm_v1.18.1\src/u8g_dev_ks0108_128x64.c ****   ADDRESS = 0   (Command Mode)
  36:.\u8glib_arm_v1.18.1\src/u8g_dev_ks0108_128x64.c ****     0x03f       Display On
  37:.\u8glib_arm_v1.18.1\src/u8g_dev_ks0108_128x64.c ****     0x0c0       Start Display at line 0
  38:.\u8glib_arm_v1.18.1\src/u8g_dev_ks0108_128x64.c ****     0x040 | y   write to y address (y:0..63)
  39:.\u8glib_arm_v1.18.1\src/u8g_dev_ks0108_128x64.c ****     0x0b8 | x   write to page [0..7]
  40:.\u8glib_arm_v1.18.1\src/u8g_dev_ks0108_128x64.c **** 
  41:.\u8glib_arm_v1.18.1\src/u8g_dev_ks0108_128x64.c **** 
  42:.\u8glib_arm_v1.18.1\src/u8g_dev_ks0108_128x64.c ****   u8g_Init8Bit(u8g, dev, d0, d1, d2, d3, d4, d5, d6, d7, en, cs1, cs2, di, rw, reset)
  43:.\u8glib_arm_v1.18.1\src/u8g_dev_ks0108_128x64.c ****   u8g_Init8Bit(u8g, dev,  8,    9, 10, 11,   4,   5,   6,   7, 18, 14, 15, 17, 16, U8G_PIN_NONE)
  44:.\u8glib_arm_v1.18.1\src/u8g_dev_ks0108_128x64.c ****   
  45:.\u8glib_arm_v1.18.1\src/u8g_dev_ks0108_128x64.c **** */
  46:.\u8glib_arm_v1.18.1\src/u8g_dev_ks0108_128x64.c **** 
  47:.\u8glib_arm_v1.18.1\src/u8g_dev_ks0108_128x64.c **** #include "u8g.h"
  48:.\u8glib_arm_v1.18.1\src/u8g_dev_ks0108_128x64.c **** 
  49:.\u8glib_arm_v1.18.1\src/u8g_dev_ks0108_128x64.c **** #define WIDTH 128
  50:.\u8glib_arm_v1.18.1\src/u8g_dev_ks0108_128x64.c **** #define HEIGHT 64
  51:.\u8glib_arm_v1.18.1\src/u8g_dev_ks0108_128x64.c **** #define PAGE_HEIGHT 8
  52:.\u8glib_arm_v1.18.1\src/u8g_dev_ks0108_128x64.c **** 
  53:.\u8glib_arm_v1.18.1\src/u8g_dev_ks0108_128x64.c **** static const uint8_t u8g_dev_ks0108_128x64_init_seq[] PROGMEM = {
  54:.\u8glib_arm_v1.18.1\src/u8g_dev_ks0108_128x64.c ****   U8G_ESC_CS(0),             /* disable chip */
  55:.\u8glib_arm_v1.18.1\src/u8g_dev_ks0108_128x64.c ****   U8G_ESC_ADR(0),           /* instruction mode */
  56:.\u8glib_arm_v1.18.1\src/u8g_dev_ks0108_128x64.c ****   U8G_ESC_RST(1),           /* do reset low pulse with (1*16)+2 milliseconds */
  57:.\u8glib_arm_v1.18.1\src/u8g_dev_ks0108_128x64.c ****   U8G_ESC_CS(1),             /* enable chip 1 */
  58:.\u8glib_arm_v1.18.1\src/u8g_dev_ks0108_128x64.c ****   0x03f,		                /* display on */
  59:.\u8glib_arm_v1.18.1\src/u8g_dev_ks0108_128x64.c ****   0x0c0,		                /* start at line 0 */
  60:.\u8glib_arm_v1.18.1\src/u8g_dev_ks0108_128x64.c ****   U8G_ESC_DLY(20),         /* delay 20 ms */
  61:.\u8glib_arm_v1.18.1\src/u8g_dev_ks0108_128x64.c ****   U8G_ESC_CS(2),             /* enable chip 2 */
ARM GAS  C:\Users\Shiguruy\AppData\Local\Temp\ccBNuIe7.s 			page 3


  62:.\u8glib_arm_v1.18.1\src/u8g_dev_ks0108_128x64.c ****   0x03f,		                /* display on */
  63:.\u8glib_arm_v1.18.1\src/u8g_dev_ks0108_128x64.c ****   0x0c0,		                /* start at line 0 */
  64:.\u8glib_arm_v1.18.1\src/u8g_dev_ks0108_128x64.c ****   U8G_ESC_DLY(20),         /* delay 20 ms */
  65:.\u8glib_arm_v1.18.1\src/u8g_dev_ks0108_128x64.c ****   U8G_ESC_CS(0),             /* disable all chips */
  66:.\u8glib_arm_v1.18.1\src/u8g_dev_ks0108_128x64.c ****   U8G_ESC_END                /* end of sequence */
  67:.\u8glib_arm_v1.18.1\src/u8g_dev_ks0108_128x64.c **** };
  68:.\u8glib_arm_v1.18.1\src/u8g_dev_ks0108_128x64.c **** 
  69:.\u8glib_arm_v1.18.1\src/u8g_dev_ks0108_128x64.c **** 
  70:.\u8glib_arm_v1.18.1\src/u8g_dev_ks0108_128x64.c **** uint8_t u8g_dev_ks0108_128x64_fn(u8g_t *u8g, u8g_dev_t *dev, uint8_t msg, void *arg)
  71:.\u8glib_arm_v1.18.1\src/u8g_dev_ks0108_128x64.c **** {
  54              		.loc 1 71 0
  55              		.cfi_startproc
  56              		@ args = 0, pretend = 0, frame = 24
  57              		@ frame_needed = 1, uses_anonymous_args = 0
  58 0000 80B5     		push	{r7, lr}
  59              		.cfi_def_cfa_offset 8
  60              		.cfi_offset 7, -8
  61              		.cfi_offset 14, -4
  62 0002 86B0     		sub	sp, sp, #24
  63              		.cfi_def_cfa_offset 32
  64 0004 00AF     		add	r7, sp, #0
  65              		.cfi_def_cfa_register 7
  66 0006 F860     		str	r0, [r7, #12]
  67 0008 B960     		str	r1, [r7, #8]
  68 000a 3B60     		str	r3, [r7]
  69 000c 1346     		mov	r3, r2
  70 000e FB71     		strb	r3, [r7, #7]
  72:.\u8glib_arm_v1.18.1\src/u8g_dev_ks0108_128x64.c ****   
  73:.\u8glib_arm_v1.18.1\src/u8g_dev_ks0108_128x64.c ****   switch(msg)
  71              		.loc 1 73 0
  72 0010 FB79     		ldrb	r3, [r7, #7]	@ zero_extendqisi2
  73 0012 0B2B     		cmp	r3, #11
  74 0014 67D0     		beq	.L7
  75 0016 152B     		cmp	r3, #21
  76 0018 0CD0     		beq	.L4
  77 001a 0A2B     		cmp	r3, #10
  78 001c 64D1     		bne	.L2
  74:.\u8glib_arm_v1.18.1\src/u8g_dev_ks0108_128x64.c ****   {
  75:.\u8glib_arm_v1.18.1\src/u8g_dev_ks0108_128x64.c ****     case U8G_DEV_MSG_INIT:
  76:.\u8glib_arm_v1.18.1\src/u8g_dev_ks0108_128x64.c ****       u8g_InitCom(u8g, dev, U8G_SPI_CLK_CYCLE_NONE);
  79              		.loc 1 76 0
  80 001e F868     		ldr	r0, [r7, #12]
  81 0020 B968     		ldr	r1, [r7, #8]
  82 0022 FF22     		movs	r2, #255
  83 0024 FFF7FEFF 		bl	u8g_InitCom
  77:.\u8glib_arm_v1.18.1\src/u8g_dev_ks0108_128x64.c ****       u8g_WriteEscSeqP(u8g, dev, u8g_dev_ks0108_128x64_init_seq);
  84              		.loc 1 77 0
  85 0028 F868     		ldr	r0, [r7, #12]
  86 002a B968     		ldr	r1, [r7, #8]
  87 002c 344A     		ldr	r2, .L8
  88 002e FFF7FEFF 		bl	u8g_WriteEscSeqP
  78:.\u8glib_arm_v1.18.1\src/u8g_dev_ks0108_128x64.c ****       break;
  89              		.loc 1 78 0
  90 0032 59E0     		b	.L2
  91              	.L4:
  92              	.LBB2:
  79:.\u8glib_arm_v1.18.1\src/u8g_dev_ks0108_128x64.c ****     case U8G_DEV_MSG_STOP:
ARM GAS  C:\Users\Shiguruy\AppData\Local\Temp\ccBNuIe7.s 			page 4


  80:.\u8glib_arm_v1.18.1\src/u8g_dev_ks0108_128x64.c ****       break;
  81:.\u8glib_arm_v1.18.1\src/u8g_dev_ks0108_128x64.c ****     case U8G_DEV_MSG_PAGE_NEXT:
  82:.\u8glib_arm_v1.18.1\src/u8g_dev_ks0108_128x64.c ****       {
  83:.\u8glib_arm_v1.18.1\src/u8g_dev_ks0108_128x64.c ****         u8g_pb_t *pb = (u8g_pb_t *)(dev->dev_mem);
  93              		.loc 1 83 0
  94 0034 BB68     		ldr	r3, [r7, #8]
  95 0036 5B68     		ldr	r3, [r3, #4]
  96 0038 7B61     		str	r3, [r7, #20]
  84:.\u8glib_arm_v1.18.1\src/u8g_dev_ks0108_128x64.c ****         
  85:.\u8glib_arm_v1.18.1\src/u8g_dev_ks0108_128x64.c ****         u8g_SetAddress(u8g, dev, 0);           /* command mode */
  97              		.loc 1 85 0
  98 003a F868     		ldr	r0, [r7, #12]
  99 003c B968     		ldr	r1, [r7, #8]
 100 003e 0022     		movs	r2, #0
 101 0040 FFF7FEFF 		bl	u8g_SetAddress
  86:.\u8glib_arm_v1.18.1\src/u8g_dev_ks0108_128x64.c ****         u8g_SetChipSelect(u8g, dev, 2);
 102              		.loc 1 86 0
 103 0044 F868     		ldr	r0, [r7, #12]
 104 0046 B968     		ldr	r1, [r7, #8]
 105 0048 0222     		movs	r2, #2
 106 004a FFF7FEFF 		bl	u8g_SetChipSelect
  87:.\u8glib_arm_v1.18.1\src/u8g_dev_ks0108_128x64.c ****         u8g_WriteByte(u8g, dev, 0x0b8 | pb->p.page); /* select current page (KS0108b) */
 107              		.loc 1 87 0
 108 004e 7B69     		ldr	r3, [r7, #20]
 109 0050 1B79     		ldrb	r3, [r3, #4]	@ zero_extendqisi2
 110 0052 63F04703 		orn	r3, r3, #71
 111 0056 DBB2     		uxtb	r3, r3
 112 0058 F868     		ldr	r0, [r7, #12]
 113 005a B968     		ldr	r1, [r7, #8]
 114 005c 1A46     		mov	r2, r3
 115 005e FFF7FEFF 		bl	u8g_WriteByte
  88:.\u8glib_arm_v1.18.1\src/u8g_dev_ks0108_128x64.c ****         u8g_WriteByte(u8g, dev, 0x040 );		/* set address 0 */
 116              		.loc 1 88 0
 117 0062 F868     		ldr	r0, [r7, #12]
 118 0064 B968     		ldr	r1, [r7, #8]
 119 0066 4022     		movs	r2, #64
 120 0068 FFF7FEFF 		bl	u8g_WriteByte
  89:.\u8glib_arm_v1.18.1\src/u8g_dev_ks0108_128x64.c ****         u8g_SetAddress(u8g, dev, 1);           /* data mode */
 121              		.loc 1 89 0
 122 006c F868     		ldr	r0, [r7, #12]
 123 006e B968     		ldr	r1, [r7, #8]
 124 0070 0122     		movs	r2, #1
 125 0072 FFF7FEFF 		bl	u8g_SetAddress
  90:.\u8glib_arm_v1.18.1\src/u8g_dev_ks0108_128x64.c ****         u8g_WriteSequence(u8g, dev, 64, pb->buf);
 126              		.loc 1 90 0
 127 0076 7B69     		ldr	r3, [r7, #20]
 128 0078 9B68     		ldr	r3, [r3, #8]
 129 007a F868     		ldr	r0, [r7, #12]
 130 007c B968     		ldr	r1, [r7, #8]
 131 007e 4022     		movs	r2, #64
 132 0080 FFF7FEFF 		bl	u8g_WriteSequence
  91:.\u8glib_arm_v1.18.1\src/u8g_dev_ks0108_128x64.c ****         u8g_SetChipSelect(u8g, dev, 0);
 133              		.loc 1 91 0
 134 0084 F868     		ldr	r0, [r7, #12]
 135 0086 B968     		ldr	r1, [r7, #8]
 136 0088 0022     		movs	r2, #0
 137 008a FFF7FEFF 		bl	u8g_SetChipSelect
ARM GAS  C:\Users\Shiguruy\AppData\Local\Temp\ccBNuIe7.s 			page 5


  92:.\u8glib_arm_v1.18.1\src/u8g_dev_ks0108_128x64.c ****         
  93:.\u8glib_arm_v1.18.1\src/u8g_dev_ks0108_128x64.c ****         u8g_SetAddress(u8g, dev, 0);           /* command mode */
 138              		.loc 1 93 0
 139 008e F868     		ldr	r0, [r7, #12]
 140 0090 B968     		ldr	r1, [r7, #8]
 141 0092 0022     		movs	r2, #0
 142 0094 FFF7FEFF 		bl	u8g_SetAddress
  94:.\u8glib_arm_v1.18.1\src/u8g_dev_ks0108_128x64.c ****         u8g_SetChipSelect(u8g, dev, 1);
 143              		.loc 1 94 0
 144 0098 F868     		ldr	r0, [r7, #12]
 145 009a B968     		ldr	r1, [r7, #8]
 146 009c 0122     		movs	r2, #1
 147 009e FFF7FEFF 		bl	u8g_SetChipSelect
  95:.\u8glib_arm_v1.18.1\src/u8g_dev_ks0108_128x64.c ****         u8g_WriteByte(u8g, dev, 0x0b8 | pb->p.page); /* select current page (KS0108b) */
 148              		.loc 1 95 0
 149 00a2 7B69     		ldr	r3, [r7, #20]
 150 00a4 1B79     		ldrb	r3, [r3, #4]	@ zero_extendqisi2
 151 00a6 63F04703 		orn	r3, r3, #71
 152 00aa DBB2     		uxtb	r3, r3
 153 00ac F868     		ldr	r0, [r7, #12]
 154 00ae B968     		ldr	r1, [r7, #8]
 155 00b0 1A46     		mov	r2, r3
 156 00b2 FFF7FEFF 		bl	u8g_WriteByte
  96:.\u8glib_arm_v1.18.1\src/u8g_dev_ks0108_128x64.c ****         u8g_WriteByte(u8g, dev, 0x040 );		/* set address 0 */
 157              		.loc 1 96 0
 158 00b6 F868     		ldr	r0, [r7, #12]
 159 00b8 B968     		ldr	r1, [r7, #8]
 160 00ba 4022     		movs	r2, #64
 161 00bc FFF7FEFF 		bl	u8g_WriteByte
  97:.\u8glib_arm_v1.18.1\src/u8g_dev_ks0108_128x64.c ****         u8g_SetAddress(u8g, dev, 1);           /* data mode */
 162              		.loc 1 97 0
 163 00c0 F868     		ldr	r0, [r7, #12]
 164 00c2 B968     		ldr	r1, [r7, #8]
 165 00c4 0122     		movs	r2, #1
 166 00c6 FFF7FEFF 		bl	u8g_SetAddress
  98:.\u8glib_arm_v1.18.1\src/u8g_dev_ks0108_128x64.c ****         u8g_WriteSequence(u8g, dev, 64, 64+(uint8_t *)pb->buf);
 167              		.loc 1 98 0
 168 00ca 7B69     		ldr	r3, [r7, #20]
 169 00cc 9B68     		ldr	r3, [r3, #8]
 170 00ce 4033     		adds	r3, r3, #64
 171 00d0 F868     		ldr	r0, [r7, #12]
 172 00d2 B968     		ldr	r1, [r7, #8]
 173 00d4 4022     		movs	r2, #64
 174 00d6 FFF7FEFF 		bl	u8g_WriteSequence
  99:.\u8glib_arm_v1.18.1\src/u8g_dev_ks0108_128x64.c ****         u8g_SetChipSelect(u8g, dev, 0);
 175              		.loc 1 99 0
 176 00da F868     		ldr	r0, [r7, #12]
 177 00dc B968     		ldr	r1, [r7, #8]
 178 00de 0022     		movs	r2, #0
 179 00e0 FFF7FEFF 		bl	u8g_SetChipSelect
 180              	.LBE2:
 100:.\u8glib_arm_v1.18.1\src/u8g_dev_ks0108_128x64.c ****         
 101:.\u8glib_arm_v1.18.1\src/u8g_dev_ks0108_128x64.c ****       }
 102:.\u8glib_arm_v1.18.1\src/u8g_dev_ks0108_128x64.c ****       break;
 181              		.loc 1 102 0
 182 00e4 00E0     		b	.L2
 183              	.L7:
ARM GAS  C:\Users\Shiguruy\AppData\Local\Temp\ccBNuIe7.s 			page 6


  80:.\u8glib_arm_v1.18.1\src/u8g_dev_ks0108_128x64.c ****     case U8G_DEV_MSG_PAGE_NEXT:
 184              		.loc 1 80 0
 185 00e6 00BF     		nop
 186              	.L2:
 103:.\u8glib_arm_v1.18.1\src/u8g_dev_ks0108_128x64.c ****   }
 104:.\u8glib_arm_v1.18.1\src/u8g_dev_ks0108_128x64.c ****   return u8g_dev_pb8v1_base_fn(u8g, dev, msg, arg);
 187              		.loc 1 104 0
 188 00e8 FB79     		ldrb	r3, [r7, #7]	@ zero_extendqisi2
 189 00ea F868     		ldr	r0, [r7, #12]
 190 00ec B968     		ldr	r1, [r7, #8]
 191 00ee 1A46     		mov	r2, r3
 192 00f0 3B68     		ldr	r3, [r7]
 193 00f2 FFF7FEFF 		bl	u8g_dev_pb8v1_base_fn
 194 00f6 0346     		mov	r3, r0
 105:.\u8glib_arm_v1.18.1\src/u8g_dev_ks0108_128x64.c **** }
 195              		.loc 1 105 0
 196 00f8 1846     		mov	r0, r3
 197 00fa 1837     		adds	r7, r7, #24
 198              		.cfi_def_cfa_offset 8
 199 00fc BD46     		mov	sp, r7
 200              		.cfi_def_cfa_register 13
 201              		@ sp needed
 202 00fe 80BD     		pop	{r7, pc}
 203              	.L9:
 204              		.align	2
 205              	.L8:
 206 0100 00000000 		.word	u8g_dev_ks0108_128x64_init_seq
 207              		.cfi_endproc
 208              	.LFE0:
 209              		.size	u8g_dev_ks0108_128x64_fn, .-u8g_dev_ks0108_128x64_fn
 210              		.global	u8g_dev_ks0108_128x64_buf
 211              		.bss
 212              		.align	2
 213              		.type	u8g_dev_ks0108_128x64_buf, %object
 214              		.size	u8g_dev_ks0108_128x64_buf, 128
 215              	u8g_dev_ks0108_128x64_buf:
 216 0000 00000000 		.space	128
 216      00000000 
 216      00000000 
 216      00000000 
 216      00000000 
 217              		.global	u8g_dev_ks0108_128x64_pb
 218              		.data
 219              		.align	2
 220              		.type	u8g_dev_ks0108_128x64_pb, %object
 221              		.size	u8g_dev_ks0108_128x64_pb, 12
 222              	u8g_dev_ks0108_128x64_pb:
 223 0000 08       		.byte	8
 224 0001 40       		.byte	64
 225 0002 00       		.byte	0
 226 0003 00       		.byte	0
 227 0004 00       		.byte	0
 228 0005 80       		.byte	-128
 229 0006 0000     		.space	2
 230 0008 00000000 		.word	u8g_dev_ks0108_128x64_buf
 231              		.global	u8g_dev_ks0108_128x64
 232              		.align	2
ARM GAS  C:\Users\Shiguruy\AppData\Local\Temp\ccBNuIe7.s 			page 7


 233              		.type	u8g_dev_ks0108_128x64, %object
 234              		.size	u8g_dev_ks0108_128x64, 12
 235              	u8g_dev_ks0108_128x64:
 236 000c 00000000 		.word	u8g_dev_ks0108_128x64_fn
 237 0010 00000000 		.word	u8g_dev_ks0108_128x64_pb
 238 0014 00000000 		.word	u8g_com_null_fn
 239              		.global	u8g_dev_ks0108_128x64_fast_buf
 240              		.bss
 241              		.align	2
 242              		.type	u8g_dev_ks0108_128x64_fast_buf, %object
 243              		.size	u8g_dev_ks0108_128x64_fast_buf, 128
 244              	u8g_dev_ks0108_128x64_fast_buf:
 245 0080 00000000 		.space	128
 245      00000000 
 245      00000000 
 245      00000000 
 245      00000000 
 246              		.global	u8g_dev_ks0108_128x64_fast_pb
 247              		.data
 248              		.align	2
 249              		.type	u8g_dev_ks0108_128x64_fast_pb, %object
 250              		.size	u8g_dev_ks0108_128x64_fast_pb, 12
 251              	u8g_dev_ks0108_128x64_fast_pb:
 252 0018 08       		.byte	8
 253 0019 40       		.byte	64
 254 001a 00       		.byte	0
 255 001b 00       		.byte	0
 256 001c 00       		.byte	0
 257 001d 80       		.byte	-128
 258 001e 0000     		.space	2
 259 0020 00000000 		.word	u8g_dev_ks0108_128x64_fast_buf
 260              		.global	u8g_dev_ks0108_128x64_fast
 261              		.align	2
 262              		.type	u8g_dev_ks0108_128x64_fast, %object
 263              		.size	u8g_dev_ks0108_128x64_fast, 12
 264              	u8g_dev_ks0108_128x64_fast:
 265 0024 00000000 		.word	u8g_dev_ks0108_128x64_fn
 266 0028 00000000 		.word	u8g_dev_ks0108_128x64_fast_pb
 267 002c 00000000 		.word	u8g_com_null_fn
 268              		.text
 269              	.Letext0:
 270              		.file 2 "c:\\program files (x86)\\cypress\\psoc creator\\3.3\\psoc creator\\import\\gnu\\arm\\4.9.
 271              		.file 3 "c:\\program files (x86)\\cypress\\psoc creator\\3.3\\psoc creator\\import\\gnu\\arm\\4.9.
 272              		.file 4 ".\\u8glib_arm_v1.18.1\\src\\u8g.h"