ARM GAS  C:\Users\KJA\AppData\Local\Temp\cc0gOkPj.s 			page 1


   1              		.syntax unified
   2              		.cpu cortex-m3
   3              		.fpu softvfp
   4              		.eabi_attribute 20, 1
   5              		.eabi_attribute 21, 1
   6              		.eabi_attribute 23, 3
   7              		.eabi_attribute 24, 1
   8              		.eabi_attribute 25, 1
   9              		.eabi_attribute 26, 1
  10              		.eabi_attribute 30, 6
  11              		.eabi_attribute 34, 1
  12              		.eabi_attribute 18, 4
  13              		.thumb
  14              		.file	"u8g_scale.c"
  15              		.text
  16              	.Ltext0:
  17              		.cfi_sections	.debug_frame
  18              		.global	u8g_dev_scale
  19              		.data
  20              		.align	2
  21              		.type	u8g_dev_scale, %object
  22              		.size	u8g_dev_scale, 12
  23              	u8g_dev_scale:
  24 0000 00000000 		.word	u8g_dev_scale_2x2_fn
  25 0004 00000000 		.word	0
  26 0008 00000000 		.word	0
  27              		.section	.text.u8g_UndoScale,"ax",%progbits
  28              		.align	2
  29              		.global	u8g_UndoScale
  30              		.thumb
  31              		.thumb_func
  32              		.type	u8g_UndoScale, %function
  33              	u8g_UndoScale:
  34              	.LFB0:
  35              		.file 1 "u8glib_arm_v1.18.1\\src\\u8g_scale.c"
   1:u8glib_arm_v1.18.1\src/u8g_scale.c **** /*
   2:u8glib_arm_v1.18.1\src/u8g_scale.c **** 
   3:u8glib_arm_v1.18.1\src/u8g_scale.c ****   u8g_scale.c
   4:u8glib_arm_v1.18.1\src/u8g_scale.c **** 
   5:u8glib_arm_v1.18.1\src/u8g_scale.c ****   Universal 8bit Graphics Library
   6:u8glib_arm_v1.18.1\src/u8g_scale.c ****   
   7:u8glib_arm_v1.18.1\src/u8g_scale.c ****   Copyright (c) 2012, olikraus@gmail.com
   8:u8glib_arm_v1.18.1\src/u8g_scale.c ****   All rights reserved.
   9:u8glib_arm_v1.18.1\src/u8g_scale.c **** 
  10:u8glib_arm_v1.18.1\src/u8g_scale.c ****   Redistribution and use in source and binary forms, with or without modification, 
  11:u8glib_arm_v1.18.1\src/u8g_scale.c ****   are permitted provided that the following conditions are met:
  12:u8glib_arm_v1.18.1\src/u8g_scale.c **** 
  13:u8glib_arm_v1.18.1\src/u8g_scale.c ****   * Redistributions of source code must retain the above copyright notice, this list 
  14:u8glib_arm_v1.18.1\src/u8g_scale.c ****     of conditions and the following disclaimer.
  15:u8glib_arm_v1.18.1\src/u8g_scale.c ****     
  16:u8glib_arm_v1.18.1\src/u8g_scale.c ****   * Redistributions in binary form must reproduce the above copyright notice, this 
  17:u8glib_arm_v1.18.1\src/u8g_scale.c ****     list of conditions and the following disclaimer in the documentation and/or other 
  18:u8glib_arm_v1.18.1\src/u8g_scale.c ****     materials provided with the distribution.
  19:u8glib_arm_v1.18.1\src/u8g_scale.c **** 
  20:u8glib_arm_v1.18.1\src/u8g_scale.c ****   THIS SOFTWARE IS PROVIDED BY THE COPYRIGHT HOLDERS AND 
  21:u8glib_arm_v1.18.1\src/u8g_scale.c ****   CONTRIBUTORS "AS IS" AND ANY EXPRESS OR IMPLIED WARRANTIES, 
  22:u8glib_arm_v1.18.1\src/u8g_scale.c ****   INCLUDING, BUT NOT LIMITED TO, THE IMPLIED WARRANTIES OF 
ARM GAS  C:\Users\KJA\AppData\Local\Temp\cc0gOkPj.s 			page 2


  23:u8glib_arm_v1.18.1\src/u8g_scale.c ****   MERCHANTABILITY AND FITNESS FOR A PARTICULAR PURPOSE ARE 
  24:u8glib_arm_v1.18.1\src/u8g_scale.c ****   DISCLAIMED. IN NO EVENT SHALL THE COPYRIGHT HOLDER OR 
  25:u8glib_arm_v1.18.1\src/u8g_scale.c ****   CONTRIBUTORS BE LIABLE FOR ANY DIRECT, INDIRECT, INCIDENTAL, 
  26:u8glib_arm_v1.18.1\src/u8g_scale.c ****   SPECIAL, EXEMPLARY, OR CONSEQUENTIAL DAMAGES (INCLUDING, BUT 
  27:u8glib_arm_v1.18.1\src/u8g_scale.c ****   NOT LIMITED TO, PROCUREMENT OF SUBSTITUTE GOODS OR SERVICES; 
  28:u8glib_arm_v1.18.1\src/u8g_scale.c ****   LOSS OF USE, DATA, OR PROFITS; OR BUSINESS INTERRUPTION) HOWEVER 
  29:u8glib_arm_v1.18.1\src/u8g_scale.c ****   CAUSED AND ON ANY THEORY OF LIABILITY, WHETHER IN CONTRACT, 
  30:u8glib_arm_v1.18.1\src/u8g_scale.c ****   STRICT LIABILITY, OR TORT (INCLUDING NEGLIGENCE OR OTHERWISE) 
  31:u8glib_arm_v1.18.1\src/u8g_scale.c ****   ARISING IN ANY WAY OUT OF THE USE OF THIS SOFTWARE, EVEN IF 
  32:u8glib_arm_v1.18.1\src/u8g_scale.c ****   ADVISED OF THE POSSIBILITY OF SUCH DAMAGE.  
  33:u8glib_arm_v1.18.1\src/u8g_scale.c **** 
  34:u8glib_arm_v1.18.1\src/u8g_scale.c ****   Scale screen by some constant factors. Usefull for making bigger fonts wiht less
  35:u8glib_arm_v1.18.1\src/u8g_scale.c ****   memory consumption
  36:u8glib_arm_v1.18.1\src/u8g_scale.c ****     
  37:u8glib_arm_v1.18.1\src/u8g_scale.c **** */
  38:u8glib_arm_v1.18.1\src/u8g_scale.c **** 
  39:u8glib_arm_v1.18.1\src/u8g_scale.c **** #include "u8g.h"
  40:u8glib_arm_v1.18.1\src/u8g_scale.c **** 
  41:u8glib_arm_v1.18.1\src/u8g_scale.c **** uint8_t u8g_dev_scale_2x2_fn(u8g_t *u8g, u8g_dev_t *dev, uint8_t msg, void *arg);
  42:u8glib_arm_v1.18.1\src/u8g_scale.c **** 
  43:u8glib_arm_v1.18.1\src/u8g_scale.c **** 
  44:u8glib_arm_v1.18.1\src/u8g_scale.c **** u8g_dev_t u8g_dev_scale = { u8g_dev_scale_2x2_fn, NULL, NULL };
  45:u8glib_arm_v1.18.1\src/u8g_scale.c **** 
  46:u8glib_arm_v1.18.1\src/u8g_scale.c **** void u8g_UndoScale(u8g_t *u8g)
  47:u8glib_arm_v1.18.1\src/u8g_scale.c **** {
  36              		.loc 1 47 0
  37              		.cfi_startproc
  38              		@ args = 0, pretend = 0, frame = 8
  39              		@ frame_needed = 1, uses_anonymous_args = 0
  40 0000 80B5     		push	{r7, lr}
  41              		.cfi_def_cfa_offset 8
  42              		.cfi_offset 7, -8
  43              		.cfi_offset 14, -4
  44 0002 82B0     		sub	sp, sp, #8
  45              		.cfi_def_cfa_offset 16
  46 0004 00AF     		add	r7, sp, #0
  47              		.cfi_def_cfa_register 7
  48 0006 7860     		str	r0, [r7, #4]
  48:u8glib_arm_v1.18.1\src/u8g_scale.c ****   if ( u8g->dev != &u8g_dev_scale )
  49              		.loc 1 48 0
  50 0008 7B68     		ldr	r3, [r7, #4]
  51 000a 5B68     		ldr	r3, [r3, #4]
  52 000c 064A     		ldr	r2, .L4
  53 000e 9342     		cmp	r3, r2
  54 0010 00D0     		beq	.L2
  49:u8glib_arm_v1.18.1\src/u8g_scale.c ****     return;
  55              		.loc 1 49 0
  56 0012 06E0     		b	.L1
  57              	.L2:
  50:u8glib_arm_v1.18.1\src/u8g_scale.c ****   u8g->dev = u8g_dev_scale.dev_mem;
  58              		.loc 1 50 0
  59 0014 044B     		ldr	r3, .L4
  60 0016 5A68     		ldr	r2, [r3, #4]
  61 0018 7B68     		ldr	r3, [r7, #4]
  62 001a 5A60     		str	r2, [r3, #4]
  51:u8glib_arm_v1.18.1\src/u8g_scale.c ****   u8g_UpdateDimension(u8g);
  63              		.loc 1 51 0
ARM GAS  C:\Users\KJA\AppData\Local\Temp\cc0gOkPj.s 			page 3


  64 001c 7868     		ldr	r0, [r7, #4]
  65 001e FFF7FEFF 		bl	u8g_UpdateDimension
  66              	.L1:
  52:u8glib_arm_v1.18.1\src/u8g_scale.c **** }
  67              		.loc 1 52 0
  68 0022 0837     		adds	r7, r7, #8
  69              		.cfi_def_cfa_offset 8
  70 0024 BD46     		mov	sp, r7
  71              		.cfi_def_cfa_register 13
  72              		@ sp needed
  73 0026 80BD     		pop	{r7, pc}
  74              	.L5:
  75              		.align	2
  76              	.L4:
  77 0028 00000000 		.word	u8g_dev_scale
  78              		.cfi_endproc
  79              	.LFE0:
  80              		.size	u8g_UndoScale, .-u8g_UndoScale
  81              		.section	.text.u8g_SetScale2x2,"ax",%progbits
  82              		.align	2
  83              		.global	u8g_SetScale2x2
  84              		.thumb
  85              		.thumb_func
  86              		.type	u8g_SetScale2x2, %function
  87              	u8g_SetScale2x2:
  88              	.LFB1:
  53:u8glib_arm_v1.18.1\src/u8g_scale.c **** 
  54:u8glib_arm_v1.18.1\src/u8g_scale.c **** void u8g_SetScale2x2(u8g_t *u8g)
  55:u8glib_arm_v1.18.1\src/u8g_scale.c **** {
  89              		.loc 1 55 0
  90              		.cfi_startproc
  91              		@ args = 0, pretend = 0, frame = 8
  92              		@ frame_needed = 1, uses_anonymous_args = 0
  93 0000 80B5     		push	{r7, lr}
  94              		.cfi_def_cfa_offset 8
  95              		.cfi_offset 7, -8
  96              		.cfi_offset 14, -4
  97 0002 82B0     		sub	sp, sp, #8
  98              		.cfi_def_cfa_offset 16
  99 0004 00AF     		add	r7, sp, #0
 100              		.cfi_def_cfa_register 7
 101 0006 7860     		str	r0, [r7, #4]
  56:u8glib_arm_v1.18.1\src/u8g_scale.c ****   if ( u8g->dev != &u8g_dev_scale )
 102              		.loc 1 56 0
 103 0008 7B68     		ldr	r3, [r7, #4]
 104 000a 5B68     		ldr	r3, [r3, #4]
 105 000c 094A     		ldr	r2, .L8
 106 000e 9342     		cmp	r3, r2
 107 0010 06D0     		beq	.L7
  57:u8glib_arm_v1.18.1\src/u8g_scale.c ****   {
  58:u8glib_arm_v1.18.1\src/u8g_scale.c ****     u8g_dev_scale.dev_mem = u8g->dev;
 108              		.loc 1 58 0
 109 0012 7B68     		ldr	r3, [r7, #4]
 110 0014 5B68     		ldr	r3, [r3, #4]
 111 0016 074A     		ldr	r2, .L8
 112 0018 5360     		str	r3, [r2, #4]
  59:u8glib_arm_v1.18.1\src/u8g_scale.c ****     u8g->dev = &u8g_dev_scale;
ARM GAS  C:\Users\KJA\AppData\Local\Temp\cc0gOkPj.s 			page 4


 113              		.loc 1 59 0
 114 001a 7B68     		ldr	r3, [r7, #4]
 115 001c 054A     		ldr	r2, .L8
 116 001e 5A60     		str	r2, [r3, #4]
 117              	.L7:
  60:u8glib_arm_v1.18.1\src/u8g_scale.c ****   }
  61:u8glib_arm_v1.18.1\src/u8g_scale.c ****   u8g_dev_scale.dev_fn = u8g_dev_scale_2x2_fn;
 118              		.loc 1 61 0
 119 0020 044B     		ldr	r3, .L8
 120 0022 054A     		ldr	r2, .L8+4
 121 0024 1A60     		str	r2, [r3]
  62:u8glib_arm_v1.18.1\src/u8g_scale.c ****   u8g_UpdateDimension(u8g);
 122              		.loc 1 62 0
 123 0026 7868     		ldr	r0, [r7, #4]
 124 0028 FFF7FEFF 		bl	u8g_UpdateDimension
  63:u8glib_arm_v1.18.1\src/u8g_scale.c **** }
 125              		.loc 1 63 0
 126 002c 0837     		adds	r7, r7, #8
 127              		.cfi_def_cfa_offset 8
 128 002e BD46     		mov	sp, r7
 129              		.cfi_def_cfa_register 13
 130              		@ sp needed
 131 0030 80BD     		pop	{r7, pc}
 132              	.L9:
 133 0032 00BF     		.align	2
 134              	.L8:
 135 0034 00000000 		.word	u8g_dev_scale
 136 0038 00000000 		.word	u8g_dev_scale_2x2_fn
 137              		.cfi_endproc
 138              	.LFE1:
 139              		.size	u8g_SetScale2x2, .-u8g_SetScale2x2
 140              		.section	.text.u8g_dev_scale_2x2_fn,"ax",%progbits
 141              		.align	2
 142              		.global	u8g_dev_scale_2x2_fn
 143              		.thumb
 144              		.thumb_func
 145              		.type	u8g_dev_scale_2x2_fn, %function
 146              	u8g_dev_scale_2x2_fn:
 147              	.LFB2:
  64:u8glib_arm_v1.18.1\src/u8g_scale.c **** 
  65:u8glib_arm_v1.18.1\src/u8g_scale.c **** 
  66:u8glib_arm_v1.18.1\src/u8g_scale.c **** uint8_t u8g_dev_scale_2x2_fn(u8g_t *u8g, u8g_dev_t *dev, uint8_t msg, void *arg)
  67:u8glib_arm_v1.18.1\src/u8g_scale.c **** {
 148              		.loc 1 67 0
 149              		.cfi_startproc
 150              		@ args = 0, pretend = 0, frame = 40
 151              		@ frame_needed = 1, uses_anonymous_args = 0
 152 0000 80B5     		push	{r7, lr}
 153              		.cfi_def_cfa_offset 8
 154              		.cfi_offset 7, -8
 155              		.cfi_offset 14, -4
 156 0002 8AB0     		sub	sp, sp, #40
 157              		.cfi_def_cfa_offset 48
 158 0004 00AF     		add	r7, sp, #0
 159              		.cfi_def_cfa_register 7
 160 0006 F860     		str	r0, [r7, #12]
 161 0008 B960     		str	r1, [r7, #8]
ARM GAS  C:\Users\KJA\AppData\Local\Temp\cc0gOkPj.s 			page 5


 162 000a 3B60     		str	r3, [r7]
 163 000c 1346     		mov	r3, r2
 164 000e FB71     		strb	r3, [r7, #7]
  68:u8glib_arm_v1.18.1\src/u8g_scale.c ****   u8g_dev_t *chain = (u8g_dev_t *)(dev->dev_mem);
 165              		.loc 1 68 0
 166 0010 BB68     		ldr	r3, [r7, #8]
 167 0012 5B68     		ldr	r3, [r3, #4]
 168 0014 BB61     		str	r3, [r7, #24]
  69:u8glib_arm_v1.18.1\src/u8g_scale.c ****   uint8_t pixel;
  70:u8glib_arm_v1.18.1\src/u8g_scale.c ****   uint16_t scaled_pixel;
  71:u8glib_arm_v1.18.1\src/u8g_scale.c ****   uint8_t i;
  72:u8glib_arm_v1.18.1\src/u8g_scale.c ****   uint8_t dir;
  73:u8glib_arm_v1.18.1\src/u8g_scale.c ****   u8g_uint_t x, y, xx,yy;
  74:u8glib_arm_v1.18.1\src/u8g_scale.c ****   
  75:u8glib_arm_v1.18.1\src/u8g_scale.c ****   switch(msg)
 169              		.loc 1 75 0
 170 0016 FB79     		ldrb	r3, [r7, #7]	@ zero_extendqisi2
 171 0018 173B     		subs	r3, r3, #23
 172 001a 302B     		cmp	r3, #48
 173 001c 64D8     		bhi	.L11
 174 001e 01A2     		adr	r2, .L13
 175 0020 52F823F0 		ldr	pc, [r2, r3, lsl #2]
 176              		.p2align 2
 177              	.L13:
 178 0024 23010000 		.word	.L12+1
 179 0028 E9000000 		.word	.L11+1
 180 002c E9000000 		.word	.L11+1
 181 0030 E9000000 		.word	.L11+1
 182 0034 E9000000 		.word	.L11+1
 183 0038 E9000000 		.word	.L11+1
 184 003c E9000000 		.word	.L11+1
 185 0040 E9000000 		.word	.L11+1
 186 0044 E9000000 		.word	.L11+1
 187 0048 E9000000 		.word	.L11+1
 188 004c E9000000 		.word	.L11+1
 189 0050 E9000000 		.word	.L11+1
 190 0054 E9000000 		.word	.L11+1
 191 0058 E9000000 		.word	.L11+1
 192 005c E9000000 		.word	.L11+1
 193 0060 E9000000 		.word	.L11+1
 194 0064 E9000000 		.word	.L11+1
 195 0068 E9000000 		.word	.L11+1
 196 006c E9000000 		.word	.L11+1
 197 0070 E9000000 		.word	.L11+1
 198 0074 E9000000 		.word	.L11+1
 199 0078 E9000000 		.word	.L11+1
 200 007c E9000000 		.word	.L11+1
 201 0080 E9000000 		.word	.L11+1
 202 0084 E9000000 		.word	.L11+1
 203 0088 E9000000 		.word	.L11+1
 204 008c E9000000 		.word	.L11+1
 205 0090 65010000 		.word	.L14+1
 206 0094 E9000000 		.word	.L11+1
 207 0098 E9000000 		.word	.L11+1
 208 009c E9000000 		.word	.L11+1
 209 00a0 E9000000 		.word	.L11+1
 210 00a4 E9000000 		.word	.L11+1
ARM GAS  C:\Users\KJA\AppData\Local\Temp\cc0gOkPj.s 			page 6


 211 00a8 E9000000 		.word	.L11+1
 212 00ac E9000000 		.word	.L11+1
 213 00b0 E9000000 		.word	.L11+1
 214 00b4 21020000 		.word	.L15+1
 215 00b8 E9000000 		.word	.L11+1
 216 00bc E9000000 		.word	.L11+1
 217 00c0 E9000000 		.word	.L11+1
 218 00c4 E9000000 		.word	.L11+1
 219 00c8 E9000000 		.word	.L11+1
 220 00cc E9000000 		.word	.L11+1
 221 00d0 E9000000 		.word	.L11+1
 222 00d4 E9000000 		.word	.L11+1
 223 00d8 E9000000 		.word	.L11+1
 224 00dc E9000000 		.word	.L11+1
 225 00e0 FB000000 		.word	.L16+1
 226 00e4 0F010000 		.word	.L17+1
 227              		.p2align 1
 228              	.L11:
  76:u8glib_arm_v1.18.1\src/u8g_scale.c ****   {
  77:u8glib_arm_v1.18.1\src/u8g_scale.c ****     default:
  78:u8glib_arm_v1.18.1\src/u8g_scale.c ****       return u8g_call_dev_fn(u8g, chain, msg, arg);
 229              		.loc 1 78 0
 230 00e8 FB79     		ldrb	r3, [r7, #7]	@ zero_extendqisi2
 231 00ea F868     		ldr	r0, [r7, #12]
 232 00ec B969     		ldr	r1, [r7, #24]
 233 00ee 1A46     		mov	r2, r3
 234 00f0 3B68     		ldr	r3, [r7]
 235 00f2 FFF7FEFF 		bl	u8g_call_dev_fn
 236 00f6 0346     		mov	r3, r0
 237 00f8 69E1     		b	.L18
 238              	.L16:
  79:u8glib_arm_v1.18.1\src/u8g_scale.c ****     case U8G_DEV_MSG_GET_WIDTH:
  80:u8glib_arm_v1.18.1\src/u8g_scale.c ****       *((u8g_uint_t *)arg) = u8g_GetWidthLL(u8g, chain) / 2;
 239              		.loc 1 80 0
 240 00fa F868     		ldr	r0, [r7, #12]
 241 00fc B969     		ldr	r1, [r7, #24]
 242 00fe FFF7FEFF 		bl	u8g_GetWidthLL
 243 0102 0346     		mov	r3, r0
 244 0104 5B08     		lsrs	r3, r3, #1
 245 0106 DAB2     		uxtb	r2, r3
 246 0108 3B68     		ldr	r3, [r7]
 247 010a 1A70     		strb	r2, [r3]
  81:u8glib_arm_v1.18.1\src/u8g_scale.c ****       break;
 248              		.loc 1 81 0
 249 010c 5EE1     		b	.L19
 250              	.L17:
  82:u8glib_arm_v1.18.1\src/u8g_scale.c ****     case U8G_DEV_MSG_GET_HEIGHT:
  83:u8glib_arm_v1.18.1\src/u8g_scale.c ****       *((u8g_uint_t *)arg) = u8g_GetHeightLL(u8g, chain) / 2;
 251              		.loc 1 83 0
 252 010e F868     		ldr	r0, [r7, #12]
 253 0110 B969     		ldr	r1, [r7, #24]
 254 0112 FFF7FEFF 		bl	u8g_GetHeightLL
 255 0116 0346     		mov	r3, r0
 256 0118 5B08     		lsrs	r3, r3, #1
 257 011a DAB2     		uxtb	r2, r3
 258 011c 3B68     		ldr	r3, [r7]
 259 011e 1A70     		strb	r2, [r3]
ARM GAS  C:\Users\KJA\AppData\Local\Temp\cc0gOkPj.s 			page 7


  84:u8glib_arm_v1.18.1\src/u8g_scale.c ****       break;
 260              		.loc 1 84 0
 261 0120 54E1     		b	.L19
 262              	.L12:
  85:u8glib_arm_v1.18.1\src/u8g_scale.c ****     case U8G_DEV_MSG_GET_PAGE_BOX:
  86:u8glib_arm_v1.18.1\src/u8g_scale.c ****       /* get page size from next device in the chain */
  87:u8glib_arm_v1.18.1\src/u8g_scale.c ****       u8g_call_dev_fn(u8g, chain, msg, arg);
 263              		.loc 1 87 0
 264 0122 FB79     		ldrb	r3, [r7, #7]	@ zero_extendqisi2
 265 0124 F868     		ldr	r0, [r7, #12]
 266 0126 B969     		ldr	r1, [r7, #24]
 267 0128 1A46     		mov	r2, r3
 268 012a 3B68     		ldr	r3, [r7]
 269 012c FFF7FEFF 		bl	u8g_call_dev_fn
  88:u8glib_arm_v1.18.1\src/u8g_scale.c ****       ((u8g_box_t *)arg)->x0 /= 2;
 270              		.loc 1 88 0
 271 0130 3B68     		ldr	r3, [r7]
 272 0132 1B78     		ldrb	r3, [r3]	@ zero_extendqisi2
 273 0134 5B08     		lsrs	r3, r3, #1
 274 0136 DAB2     		uxtb	r2, r3
 275 0138 3B68     		ldr	r3, [r7]
 276 013a 1A70     		strb	r2, [r3]
  89:u8glib_arm_v1.18.1\src/u8g_scale.c ****       ((u8g_box_t *)arg)->x1 /= 2;
 277              		.loc 1 89 0
 278 013c 3B68     		ldr	r3, [r7]
 279 013e 9B78     		ldrb	r3, [r3, #2]	@ zero_extendqisi2
 280 0140 5B08     		lsrs	r3, r3, #1
 281 0142 DAB2     		uxtb	r2, r3
 282 0144 3B68     		ldr	r3, [r7]
 283 0146 9A70     		strb	r2, [r3, #2]
  90:u8glib_arm_v1.18.1\src/u8g_scale.c ****       ((u8g_box_t *)arg)->y0 /= 2;
 284              		.loc 1 90 0
 285 0148 3B68     		ldr	r3, [r7]
 286 014a 5B78     		ldrb	r3, [r3, #1]	@ zero_extendqisi2
 287 014c 5B08     		lsrs	r3, r3, #1
 288 014e DAB2     		uxtb	r2, r3
 289 0150 3B68     		ldr	r3, [r7]
 290 0152 5A70     		strb	r2, [r3, #1]
  91:u8glib_arm_v1.18.1\src/u8g_scale.c ****       ((u8g_box_t *)arg)->y1 /= 2;
 291              		.loc 1 91 0
 292 0154 3B68     		ldr	r3, [r7]
 293 0156 DB78     		ldrb	r3, [r3, #3]	@ zero_extendqisi2
 294 0158 5B08     		lsrs	r3, r3, #1
 295 015a DAB2     		uxtb	r2, r3
 296 015c 3B68     		ldr	r3, [r7]
 297 015e DA70     		strb	r2, [r3, #3]
  92:u8glib_arm_v1.18.1\src/u8g_scale.c ****       return 1;
 298              		.loc 1 92 0
 299 0160 0123     		movs	r3, #1
 300 0162 34E1     		b	.L18
 301              	.L14:
  93:u8glib_arm_v1.18.1\src/u8g_scale.c ****     case U8G_DEV_MSG_SET_PIXEL:
  94:u8glib_arm_v1.18.1\src/u8g_scale.c ****       x = ((u8g_dev_arg_pixel_t *)arg)->x;
 302              		.loc 1 94 0
 303 0164 3B68     		ldr	r3, [r7]
 304 0166 1B78     		ldrb	r3, [r3]
 305 0168 87F82230 		strb	r3, [r7, #34]
ARM GAS  C:\Users\KJA\AppData\Local\Temp\cc0gOkPj.s 			page 8


  95:u8glib_arm_v1.18.1\src/u8g_scale.c ****       x *= 2;
 306              		.loc 1 95 0
 307 016c 97F82230 		ldrb	r3, [r7, #34]
 308 0170 5B00     		lsls	r3, r3, #1
 309 0172 87F82230 		strb	r3, [r7, #34]
  96:u8glib_arm_v1.18.1\src/u8g_scale.c ****       y = ((u8g_dev_arg_pixel_t *)arg)->y;
 310              		.loc 1 96 0
 311 0176 3B68     		ldr	r3, [r7]
 312 0178 5B78     		ldrb	r3, [r3, #1]
 313 017a 87F82130 		strb	r3, [r7, #33]
  97:u8glib_arm_v1.18.1\src/u8g_scale.c ****       y *= 2;
 314              		.loc 1 97 0
 315 017e 97F82130 		ldrb	r3, [r7, #33]
 316 0182 5B00     		lsls	r3, r3, #1
 317 0184 87F82130 		strb	r3, [r7, #33]
  98:u8glib_arm_v1.18.1\src/u8g_scale.c ****       ((u8g_dev_arg_pixel_t *)arg)->x = x;
 318              		.loc 1 98 0
 319 0188 3B68     		ldr	r3, [r7]
 320 018a 97F82220 		ldrb	r2, [r7, #34]
 321 018e 1A70     		strb	r2, [r3]
  99:u8glib_arm_v1.18.1\src/u8g_scale.c ****       ((u8g_dev_arg_pixel_t *)arg)->y = y;
 322              		.loc 1 99 0
 323 0190 3B68     		ldr	r3, [r7]
 324 0192 97F82120 		ldrb	r2, [r7, #33]
 325 0196 5A70     		strb	r2, [r3, #1]
 100:u8glib_arm_v1.18.1\src/u8g_scale.c ****       u8g_call_dev_fn(u8g, chain, msg, arg);
 326              		.loc 1 100 0
 327 0198 FB79     		ldrb	r3, [r7, #7]	@ zero_extendqisi2
 328 019a F868     		ldr	r0, [r7, #12]
 329 019c B969     		ldr	r1, [r7, #24]
 330 019e 1A46     		mov	r2, r3
 331 01a0 3B68     		ldr	r3, [r7]
 332 01a2 FFF7FEFF 		bl	u8g_call_dev_fn
 101:u8glib_arm_v1.18.1\src/u8g_scale.c ****       x++;
 333              		.loc 1 101 0
 334 01a6 97F82230 		ldrb	r3, [r7, #34]	@ zero_extendqisi2
 335 01aa 0133     		adds	r3, r3, #1
 336 01ac 87F82230 		strb	r3, [r7, #34]
 102:u8glib_arm_v1.18.1\src/u8g_scale.c ****       ((u8g_dev_arg_pixel_t *)arg)->x = x;
 337              		.loc 1 102 0
 338 01b0 3B68     		ldr	r3, [r7]
 339 01b2 97F82220 		ldrb	r2, [r7, #34]
 340 01b6 1A70     		strb	r2, [r3]
 103:u8glib_arm_v1.18.1\src/u8g_scale.c ****       ((u8g_dev_arg_pixel_t *)arg)->y = y;
 341              		.loc 1 103 0
 342 01b8 3B68     		ldr	r3, [r7]
 343 01ba 97F82120 		ldrb	r2, [r7, #33]
 344 01be 5A70     		strb	r2, [r3, #1]
 104:u8glib_arm_v1.18.1\src/u8g_scale.c ****       u8g_call_dev_fn(u8g, chain, msg, arg);
 345              		.loc 1 104 0
 346 01c0 FB79     		ldrb	r3, [r7, #7]	@ zero_extendqisi2
 347 01c2 F868     		ldr	r0, [r7, #12]
 348 01c4 B969     		ldr	r1, [r7, #24]
 349 01c6 1A46     		mov	r2, r3
 350 01c8 3B68     		ldr	r3, [r7]
 351 01ca FFF7FEFF 		bl	u8g_call_dev_fn
 105:u8glib_arm_v1.18.1\src/u8g_scale.c ****       y++;
ARM GAS  C:\Users\KJA\AppData\Local\Temp\cc0gOkPj.s 			page 9


 352              		.loc 1 105 0
 353 01ce 97F82130 		ldrb	r3, [r7, #33]	@ zero_extendqisi2
 354 01d2 0133     		adds	r3, r3, #1
 355 01d4 87F82130 		strb	r3, [r7, #33]
 106:u8glib_arm_v1.18.1\src/u8g_scale.c ****       ((u8g_dev_arg_pixel_t *)arg)->x = x;
 356              		.loc 1 106 0
 357 01d8 3B68     		ldr	r3, [r7]
 358 01da 97F82220 		ldrb	r2, [r7, #34]
 359 01de 1A70     		strb	r2, [r3]
 107:u8glib_arm_v1.18.1\src/u8g_scale.c ****       ((u8g_dev_arg_pixel_t *)arg)->y = y;
 360              		.loc 1 107 0
 361 01e0 3B68     		ldr	r3, [r7]
 362 01e2 97F82120 		ldrb	r2, [r7, #33]
 363 01e6 5A70     		strb	r2, [r3, #1]
 108:u8glib_arm_v1.18.1\src/u8g_scale.c ****       u8g_call_dev_fn(u8g, chain, msg, arg);
 364              		.loc 1 108 0
 365 01e8 FB79     		ldrb	r3, [r7, #7]	@ zero_extendqisi2
 366 01ea F868     		ldr	r0, [r7, #12]
 367 01ec B969     		ldr	r1, [r7, #24]
 368 01ee 1A46     		mov	r2, r3
 369 01f0 3B68     		ldr	r3, [r7]
 370 01f2 FFF7FEFF 		bl	u8g_call_dev_fn
 109:u8glib_arm_v1.18.1\src/u8g_scale.c ****       x--;
 371              		.loc 1 109 0
 372 01f6 97F82230 		ldrb	r3, [r7, #34]	@ zero_extendqisi2
 373 01fa 013B     		subs	r3, r3, #1
 374 01fc 87F82230 		strb	r3, [r7, #34]
 110:u8glib_arm_v1.18.1\src/u8g_scale.c ****       ((u8g_dev_arg_pixel_t *)arg)->x = x;
 375              		.loc 1 110 0
 376 0200 3B68     		ldr	r3, [r7]
 377 0202 97F82220 		ldrb	r2, [r7, #34]
 378 0206 1A70     		strb	r2, [r3]
 111:u8glib_arm_v1.18.1\src/u8g_scale.c ****       ((u8g_dev_arg_pixel_t *)arg)->y = y;
 379              		.loc 1 111 0
 380 0208 3B68     		ldr	r3, [r7]
 381 020a 97F82120 		ldrb	r2, [r7, #33]
 382 020e 5A70     		strb	r2, [r3, #1]
 112:u8glib_arm_v1.18.1\src/u8g_scale.c ****       u8g_call_dev_fn(u8g, chain, msg, arg);    
 383              		.loc 1 112 0
 384 0210 FB79     		ldrb	r3, [r7, #7]	@ zero_extendqisi2
 385 0212 F868     		ldr	r0, [r7, #12]
 386 0214 B969     		ldr	r1, [r7, #24]
 387 0216 1A46     		mov	r2, r3
 388 0218 3B68     		ldr	r3, [r7]
 389 021a FFF7FEFF 		bl	u8g_call_dev_fn
 113:u8glib_arm_v1.18.1\src/u8g_scale.c ****       break;
 390              		.loc 1 113 0
 391 021e D5E0     		b	.L19
 392              	.L15:
 114:u8glib_arm_v1.18.1\src/u8g_scale.c ****     case U8G_DEV_MSG_SET_8PIXEL:
 115:u8glib_arm_v1.18.1\src/u8g_scale.c ****       pixel = ((u8g_dev_arg_pixel_t *)arg)->pixel;
 393              		.loc 1 115 0
 394 0220 3B68     		ldr	r3, [r7]
 395 0222 9B78     		ldrb	r3, [r3, #2]
 396 0224 87F82730 		strb	r3, [r7, #39]
 116:u8glib_arm_v1.18.1\src/u8g_scale.c ****       dir = ((u8g_dev_arg_pixel_t *)arg)->dir;
 397              		.loc 1 116 0
ARM GAS  C:\Users\KJA\AppData\Local\Temp\cc0gOkPj.s 			page 10


 398 0228 3B68     		ldr	r3, [r7]
 399 022a DB78     		ldrb	r3, [r3, #3]
 400 022c FB75     		strb	r3, [r7, #23]
 117:u8glib_arm_v1.18.1\src/u8g_scale.c ****       scaled_pixel = 0;
 401              		.loc 1 117 0
 402 022e 0023     		movs	r3, #0
 403 0230 BB84     		strh	r3, [r7, #36]	@ movhi
 118:u8glib_arm_v1.18.1\src/u8g_scale.c ****       for( i = 0; i < 8; i++ )
 404              		.loc 1 118 0
 405 0232 0023     		movs	r3, #0
 406 0234 87F82330 		strb	r3, [r7, #35]
 407 0238 15E0     		b	.L20
 408              	.L22:
 119:u8glib_arm_v1.18.1\src/u8g_scale.c ****       {
 120:u8glib_arm_v1.18.1\src/u8g_scale.c **** 	scaled_pixel<<=2;
 409              		.loc 1 120 0
 410 023a BB8C     		ldrh	r3, [r7, #36]	@ movhi
 411 023c 9B00     		lsls	r3, r3, #2
 412 023e BB84     		strh	r3, [r7, #36]	@ movhi
 121:u8glib_arm_v1.18.1\src/u8g_scale.c **** 	if ( pixel & 128 )
 413              		.loc 1 121 0
 414 0240 97F82730 		ldrb	r3, [r7, #39]	@ zero_extendqisi2
 415 0244 5BB2     		sxtb	r3, r3
 416 0246 002B     		cmp	r3, #0
 417 0248 03DA     		bge	.L21
 122:u8glib_arm_v1.18.1\src/u8g_scale.c **** 	{
 123:u8glib_arm_v1.18.1\src/u8g_scale.c **** 	  scaled_pixel |= 3;
 418              		.loc 1 123 0
 419 024a BB8C     		ldrh	r3, [r7, #36]	@ movhi
 420 024c 43F00303 		orr	r3, r3, #3
 421 0250 BB84     		strh	r3, [r7, #36]	@ movhi
 422              	.L21:
 124:u8glib_arm_v1.18.1\src/u8g_scale.c **** 	}
 125:u8glib_arm_v1.18.1\src/u8g_scale.c **** 	pixel<<=1;
 423              		.loc 1 125 0 discriminator 2
 424 0252 97F82730 		ldrb	r3, [r7, #39]
 425 0256 5B00     		lsls	r3, r3, #1
 426 0258 87F82730 		strb	r3, [r7, #39]
 118:u8glib_arm_v1.18.1\src/u8g_scale.c ****       {
 427              		.loc 1 118 0 discriminator 2
 428 025c 97F82330 		ldrb	r3, [r7, #35]	@ zero_extendqisi2
 429 0260 0133     		adds	r3, r3, #1
 430 0262 87F82330 		strb	r3, [r7, #35]
 431              	.L20:
 118:u8glib_arm_v1.18.1\src/u8g_scale.c ****       {
 432              		.loc 1 118 0 is_stmt 0 discriminator 1
 433 0266 97F82330 		ldrb	r3, [r7, #35]	@ zero_extendqisi2
 434 026a 072B     		cmp	r3, #7
 435 026c E5D9     		bls	.L22
 126:u8glib_arm_v1.18.1\src/u8g_scale.c ****       }
 127:u8glib_arm_v1.18.1\src/u8g_scale.c ****       x = ((u8g_dev_arg_pixel_t *)arg)->x;
 436              		.loc 1 127 0 is_stmt 1
 437 026e 3B68     		ldr	r3, [r7]
 438 0270 1B78     		ldrb	r3, [r3]
 439 0272 87F82230 		strb	r3, [r7, #34]
 128:u8glib_arm_v1.18.1\src/u8g_scale.c ****       x *= 2;
 440              		.loc 1 128 0
ARM GAS  C:\Users\KJA\AppData\Local\Temp\cc0gOkPj.s 			page 11


 441 0276 97F82230 		ldrb	r3, [r7, #34]
 442 027a 5B00     		lsls	r3, r3, #1
 443 027c 87F82230 		strb	r3, [r7, #34]
 129:u8glib_arm_v1.18.1\src/u8g_scale.c ****       xx = x;
 444              		.loc 1 129 0
 445 0280 97F82230 		ldrb	r3, [r7, #34]
 446 0284 87F82030 		strb	r3, [r7, #32]
 130:u8glib_arm_v1.18.1\src/u8g_scale.c ****       y = ((u8g_dev_arg_pixel_t *)arg)->y;
 447              		.loc 1 130 0
 448 0288 3B68     		ldr	r3, [r7]
 449 028a 5B78     		ldrb	r3, [r3, #1]
 450 028c 87F82130 		strb	r3, [r7, #33]
 131:u8glib_arm_v1.18.1\src/u8g_scale.c ****       y *= 2;
 451              		.loc 1 131 0
 452 0290 97F82130 		ldrb	r3, [r7, #33]
 453 0294 5B00     		lsls	r3, r3, #1
 454 0296 87F82130 		strb	r3, [r7, #33]
 132:u8glib_arm_v1.18.1\src/u8g_scale.c ****       yy = y;
 455              		.loc 1 132 0
 456 029a 97F82130 		ldrb	r3, [r7, #33]
 457 029e FB77     		strb	r3, [r7, #31]
 133:u8glib_arm_v1.18.1\src/u8g_scale.c ****       if ( ((u8g_dev_arg_pixel_t *)arg)->dir & 1 )
 458              		.loc 1 133 0
 459 02a0 3B68     		ldr	r3, [r7]
 460 02a2 DB78     		ldrb	r3, [r3, #3]	@ zero_extendqisi2
 461 02a4 03F00103 		and	r3, r3, #1
 462 02a8 002B     		cmp	r3, #0
 463 02aa 05D0     		beq	.L23
 134:u8glib_arm_v1.18.1\src/u8g_scale.c ****       {
 135:u8glib_arm_v1.18.1\src/u8g_scale.c **** 	xx++;
 464              		.loc 1 135 0
 465 02ac 97F82030 		ldrb	r3, [r7, #32]	@ zero_extendqisi2
 466 02b0 0133     		adds	r3, r3, #1
 467 02b2 87F82030 		strb	r3, [r7, #32]
 468 02b6 02E0     		b	.L24
 469              	.L23:
 136:u8glib_arm_v1.18.1\src/u8g_scale.c ****       }
 137:u8glib_arm_v1.18.1\src/u8g_scale.c ****       else
 138:u8glib_arm_v1.18.1\src/u8g_scale.c ****       {
 139:u8glib_arm_v1.18.1\src/u8g_scale.c **** 	yy++;
 470              		.loc 1 139 0
 471 02b8 FB7F     		ldrb	r3, [r7, #31]	@ zero_extendqisi2
 472 02ba 0133     		adds	r3, r3, #1
 473 02bc FB77     		strb	r3, [r7, #31]
 474              	.L24:
 140:u8glib_arm_v1.18.1\src/u8g_scale.c ****       }
 141:u8glib_arm_v1.18.1\src/u8g_scale.c ****       
 142:u8glib_arm_v1.18.1\src/u8g_scale.c ****       ((u8g_dev_arg_pixel_t *)arg)->pixel = scaled_pixel>>8;      
 475              		.loc 1 142 0
 476 02be BB8C     		ldrh	r3, [r7, #36]
 477 02c0 1B0A     		lsrs	r3, r3, #8
 478 02c2 9BB2     		uxth	r3, r3
 479 02c4 DAB2     		uxtb	r2, r3
 480 02c6 3B68     		ldr	r3, [r7]
 481 02c8 9A70     		strb	r2, [r3, #2]
 143:u8glib_arm_v1.18.1\src/u8g_scale.c ****       ((u8g_dev_arg_pixel_t *)arg)->x = x;
 482              		.loc 1 143 0
ARM GAS  C:\Users\KJA\AppData\Local\Temp\cc0gOkPj.s 			page 12


 483 02ca 3B68     		ldr	r3, [r7]
 484 02cc 97F82220 		ldrb	r2, [r7, #34]
 485 02d0 1A70     		strb	r2, [r3]
 144:u8glib_arm_v1.18.1\src/u8g_scale.c ****       ((u8g_dev_arg_pixel_t *)arg)->y = y;
 486              		.loc 1 144 0
 487 02d2 3B68     		ldr	r3, [r7]
 488 02d4 97F82120 		ldrb	r2, [r7, #33]
 489 02d8 5A70     		strb	r2, [r3, #1]
 145:u8glib_arm_v1.18.1\src/u8g_scale.c ****       ((u8g_dev_arg_pixel_t *)arg)->dir = dir;
 490              		.loc 1 145 0
 491 02da 3B68     		ldr	r3, [r7]
 492 02dc FA7D     		ldrb	r2, [r7, #23]
 493 02de DA70     		strb	r2, [r3, #3]
 146:u8glib_arm_v1.18.1\src/u8g_scale.c ****       u8g_call_dev_fn(u8g, chain, msg, arg);    
 494              		.loc 1 146 0
 495 02e0 FB79     		ldrb	r3, [r7, #7]	@ zero_extendqisi2
 496 02e2 F868     		ldr	r0, [r7, #12]
 497 02e4 B969     		ldr	r1, [r7, #24]
 498 02e6 1A46     		mov	r2, r3
 499 02e8 3B68     		ldr	r3, [r7]
 500 02ea FFF7FEFF 		bl	u8g_call_dev_fn
 147:u8glib_arm_v1.18.1\src/u8g_scale.c **** 
 148:u8glib_arm_v1.18.1\src/u8g_scale.c ****       
 149:u8glib_arm_v1.18.1\src/u8g_scale.c ****       ((u8g_dev_arg_pixel_t *)arg)->x = xx;
 501              		.loc 1 149 0
 502 02ee 3B68     		ldr	r3, [r7]
 503 02f0 97F82020 		ldrb	r2, [r7, #32]
 504 02f4 1A70     		strb	r2, [r3]
 150:u8glib_arm_v1.18.1\src/u8g_scale.c ****       ((u8g_dev_arg_pixel_t *)arg)->y = yy;
 505              		.loc 1 150 0
 506 02f6 3B68     		ldr	r3, [r7]
 507 02f8 FA7F     		ldrb	r2, [r7, #31]
 508 02fa 5A70     		strb	r2, [r3, #1]
 151:u8glib_arm_v1.18.1\src/u8g_scale.c ****       ((u8g_dev_arg_pixel_t *)arg)->dir = dir;
 509              		.loc 1 151 0
 510 02fc 3B68     		ldr	r3, [r7]
 511 02fe FA7D     		ldrb	r2, [r7, #23]
 512 0300 DA70     		strb	r2, [r3, #3]
 152:u8glib_arm_v1.18.1\src/u8g_scale.c ****       u8g_call_dev_fn(u8g, chain, msg, arg);    
 513              		.loc 1 152 0
 514 0302 FB79     		ldrb	r3, [r7, #7]	@ zero_extendqisi2
 515 0304 F868     		ldr	r0, [r7, #12]
 516 0306 B969     		ldr	r1, [r7, #24]
 517 0308 1A46     		mov	r2, r3
 518 030a 3B68     		ldr	r3, [r7]
 519 030c FFF7FEFF 		bl	u8g_call_dev_fn
 153:u8glib_arm_v1.18.1\src/u8g_scale.c ****       
 154:u8glib_arm_v1.18.1\src/u8g_scale.c ****       ((u8g_dev_arg_pixel_t *)arg)->pixel = scaled_pixel&255;
 520              		.loc 1 154 0
 521 0310 BB8C     		ldrh	r3, [r7, #36]	@ movhi
 522 0312 DAB2     		uxtb	r2, r3
 523 0314 3B68     		ldr	r3, [r7]
 524 0316 9A70     		strb	r2, [r3, #2]
 155:u8glib_arm_v1.18.1\src/u8g_scale.c ****       //((u8g_dev_arg_pixel_t *)arg)->pixel = 0x00;
 156:u8glib_arm_v1.18.1\src/u8g_scale.c ****       switch(dir)
 525              		.loc 1 156 0
 526 0318 FB7D     		ldrb	r3, [r7, #23]	@ zero_extendqisi2
ARM GAS  C:\Users\KJA\AppData\Local\Temp\cc0gOkPj.s 			page 13


 527 031a 032B     		cmp	r3, #3
 528 031c 32D8     		bhi	.L25
 529 031e 01A2     		adr	r2, .L27
 530 0320 52F823F0 		ldr	pc, [r2, r3, lsl #2]
 531              		.p2align 2
 532              	.L27:
 533 0324 35030000 		.word	.L26+1
 534 0328 4B030000 		.word	.L28+1
 535 032c 5D030000 		.word	.L29+1
 536 0330 73030000 		.word	.L30+1
 537              		.p2align 1
 538              	.L26:
 157:u8glib_arm_v1.18.1\src/u8g_scale.c ****       {
 158:u8glib_arm_v1.18.1\src/u8g_scale.c **** 	case 0:
 159:u8glib_arm_v1.18.1\src/u8g_scale.c ****  	  x+=8;
 539              		.loc 1 159 0
 540 0334 97F82230 		ldrb	r3, [r7, #34]
 541 0338 0833     		adds	r3, r3, #8
 542 033a 87F82230 		strb	r3, [r7, #34]
 160:u8glib_arm_v1.18.1\src/u8g_scale.c **** 	  xx+=8;
 543              		.loc 1 160 0
 544 033e 97F82030 		ldrb	r3, [r7, #32]
 545 0342 0833     		adds	r3, r3, #8
 546 0344 87F82030 		strb	r3, [r7, #32]
 161:u8glib_arm_v1.18.1\src/u8g_scale.c **** 	  break;
 547              		.loc 1 161 0
 548 0348 1CE0     		b	.L25
 549              	.L28:
 162:u8glib_arm_v1.18.1\src/u8g_scale.c **** 	case 1:
 163:u8glib_arm_v1.18.1\src/u8g_scale.c **** 	  y+=8;
 550              		.loc 1 163 0
 551 034a 97F82130 		ldrb	r3, [r7, #33]
 552 034e 0833     		adds	r3, r3, #8
 553 0350 87F82130 		strb	r3, [r7, #33]
 164:u8glib_arm_v1.18.1\src/u8g_scale.c **** 	  yy+=8;
 554              		.loc 1 164 0
 555 0354 FB7F     		ldrb	r3, [r7, #31]
 556 0356 0833     		adds	r3, r3, #8
 557 0358 FB77     		strb	r3, [r7, #31]
 165:u8glib_arm_v1.18.1\src/u8g_scale.c **** 	  break;
 558              		.loc 1 165 0
 559 035a 13E0     		b	.L25
 560              	.L29:
 166:u8glib_arm_v1.18.1\src/u8g_scale.c **** 	case 2:
 167:u8glib_arm_v1.18.1\src/u8g_scale.c **** 	  x-=8;
 561              		.loc 1 167 0
 562 035c 97F82230 		ldrb	r3, [r7, #34]
 563 0360 083B     		subs	r3, r3, #8
 564 0362 87F82230 		strb	r3, [r7, #34]
 168:u8glib_arm_v1.18.1\src/u8g_scale.c **** 	  xx-=8;
 565              		.loc 1 168 0
 566 0366 97F82030 		ldrb	r3, [r7, #32]
 567 036a 083B     		subs	r3, r3, #8
 568 036c 87F82030 		strb	r3, [r7, #32]
 169:u8glib_arm_v1.18.1\src/u8g_scale.c **** 	  break;
 569              		.loc 1 169 0
 570 0370 08E0     		b	.L25
ARM GAS  C:\Users\KJA\AppData\Local\Temp\cc0gOkPj.s 			page 14


 571              	.L30:
 170:u8glib_arm_v1.18.1\src/u8g_scale.c **** 	case 3:
 171:u8glib_arm_v1.18.1\src/u8g_scale.c **** 	  y-=8;
 572              		.loc 1 171 0
 573 0372 97F82130 		ldrb	r3, [r7, #33]
 574 0376 083B     		subs	r3, r3, #8
 575 0378 87F82130 		strb	r3, [r7, #33]
 172:u8glib_arm_v1.18.1\src/u8g_scale.c **** 	  yy-=8;
 576              		.loc 1 172 0
 577 037c FB7F     		ldrb	r3, [r7, #31]
 578 037e 083B     		subs	r3, r3, #8
 579 0380 FB77     		strb	r3, [r7, #31]
 173:u8glib_arm_v1.18.1\src/u8g_scale.c **** 	  break;
 580              		.loc 1 173 0
 581 0382 00BF     		nop
 582              	.L25:
 174:u8glib_arm_v1.18.1\src/u8g_scale.c ****       }
 175:u8glib_arm_v1.18.1\src/u8g_scale.c ****       ((u8g_dev_arg_pixel_t *)arg)->x = x;
 583              		.loc 1 175 0
 584 0384 3B68     		ldr	r3, [r7]
 585 0386 97F82220 		ldrb	r2, [r7, #34]
 586 038a 1A70     		strb	r2, [r3]
 176:u8glib_arm_v1.18.1\src/u8g_scale.c ****       ((u8g_dev_arg_pixel_t *)arg)->y = y;
 587              		.loc 1 176 0
 588 038c 3B68     		ldr	r3, [r7]
 589 038e 97F82120 		ldrb	r2, [r7, #33]
 590 0392 5A70     		strb	r2, [r3, #1]
 177:u8glib_arm_v1.18.1\src/u8g_scale.c ****       ((u8g_dev_arg_pixel_t *)arg)->dir = dir;
 591              		.loc 1 177 0
 592 0394 3B68     		ldr	r3, [r7]
 593 0396 FA7D     		ldrb	r2, [r7, #23]
 594 0398 DA70     		strb	r2, [r3, #3]
 178:u8glib_arm_v1.18.1\src/u8g_scale.c ****       u8g_call_dev_fn(u8g, chain, msg, arg);    
 595              		.loc 1 178 0
 596 039a FB79     		ldrb	r3, [r7, #7]	@ zero_extendqisi2
 597 039c F868     		ldr	r0, [r7, #12]
 598 039e B969     		ldr	r1, [r7, #24]
 599 03a0 1A46     		mov	r2, r3
 600 03a2 3B68     		ldr	r3, [r7]
 601 03a4 FFF7FEFF 		bl	u8g_call_dev_fn
 179:u8glib_arm_v1.18.1\src/u8g_scale.c ****       
 180:u8glib_arm_v1.18.1\src/u8g_scale.c ****       ((u8g_dev_arg_pixel_t *)arg)->x = xx;
 602              		.loc 1 180 0
 603 03a8 3B68     		ldr	r3, [r7]
 604 03aa 97F82020 		ldrb	r2, [r7, #32]
 605 03ae 1A70     		strb	r2, [r3]
 181:u8glib_arm_v1.18.1\src/u8g_scale.c ****       ((u8g_dev_arg_pixel_t *)arg)->y = yy;
 606              		.loc 1 181 0
 607 03b0 3B68     		ldr	r3, [r7]
 608 03b2 FA7F     		ldrb	r2, [r7, #31]
 609 03b4 5A70     		strb	r2, [r3, #1]
 182:u8glib_arm_v1.18.1\src/u8g_scale.c ****       ((u8g_dev_arg_pixel_t *)arg)->dir = dir;
 610              		.loc 1 182 0
 611 03b6 3B68     		ldr	r3, [r7]
 612 03b8 FA7D     		ldrb	r2, [r7, #23]
 613 03ba DA70     		strb	r2, [r3, #3]
 183:u8glib_arm_v1.18.1\src/u8g_scale.c ****       u8g_call_dev_fn(u8g, chain, msg, arg);    
ARM GAS  C:\Users\KJA\AppData\Local\Temp\cc0gOkPj.s 			page 15


 614              		.loc 1 183 0
 615 03bc FB79     		ldrb	r3, [r7, #7]	@ zero_extendqisi2
 616 03be F868     		ldr	r0, [r7, #12]
 617 03c0 B969     		ldr	r1, [r7, #24]
 618 03c2 1A46     		mov	r2, r3
 619 03c4 3B68     		ldr	r3, [r7]
 620 03c6 FFF7FEFF 		bl	u8g_call_dev_fn
 184:u8glib_arm_v1.18.1\src/u8g_scale.c ****       break;
 621              		.loc 1 184 0
 622 03ca 00BF     		nop
 623              	.L19:
 185:u8glib_arm_v1.18.1\src/u8g_scale.c ****   }
 186:u8glib_arm_v1.18.1\src/u8g_scale.c ****   return 1;
 624              		.loc 1 186 0
 625 03cc 0123     		movs	r3, #1
 626              	.L18:
 187:u8glib_arm_v1.18.1\src/u8g_scale.c **** }
 627              		.loc 1 187 0
 628 03ce 1846     		mov	r0, r3
 629 03d0 2837     		adds	r7, r7, #40
 630              		.cfi_def_cfa_offset 8
 631 03d2 BD46     		mov	sp, r7
 632              		.cfi_def_cfa_register 13
 633              		@ sp needed
 634 03d4 80BD     		pop	{r7, pc}
 635              		.cfi_endproc
 636              	.LFE2:
 637              		.size	u8g_dev_scale_2x2_fn, .-u8g_dev_scale_2x2_fn
 638 03d6 00BF     		.text
 639              	.Letext0:
 640              		.file 2 "c:\\program files (x86)\\cypress\\psoc creator\\4.0\\psoc creator\\import\\gnu\\arm\\4.9.
 641              		.file 3 "c:\\program files (x86)\\cypress\\psoc creator\\4.0\\psoc creator\\import\\gnu\\arm\\4.9.
 642              		.file 4 "u8glib_arm_v1.18.1\\src\\u8g.h"