ARM GAS  C:\Users\KJA\AppData\Local\Temp\ccnMlna6.s 			page 1


   1              		.syntax unified
   2              		.cpu cortex-m3
   3              		.fpu softvfp
   4              		.eabi_attribute 20, 1
   5              		.eabi_attribute 21, 1
   6              		.eabi_attribute 23, 3
   7              		.eabi_attribute 24, 1
   8              		.eabi_attribute 25, 1
   9              		.eabi_attribute 26, 1
  10              		.eabi_attribute 30, 6
  11              		.eabi_attribute 34, 1
  12              		.eabi_attribute 18, 4
  13              		.thumb
  14              		.file	"WaveDAC8_1.c"
  15              		.text
  16              	.Ltext0:
  17              		.cfi_sections	.debug_frame
  18              		.global	WaveDAC8_1_initVar
  19              		.bss
  20              		.type	WaveDAC8_1_initVar, %object
  21              		.size	WaveDAC8_1_initVar, 1
  22              	WaveDAC8_1_initVar:
  23 0000 00       		.space	1
  24              		.global	WaveDAC8_1_wave1
  25              		.section	.rodata
  26              		.align	2
  27              		.type	WaveDAC8_1_wave1, %object
  28              		.size	WaveDAC8_1_wave1, 100
  29              	WaveDAC8_1_wave1:
  30 0000 3E       		.byte	62
  31 0001 42       		.byte	66
  32 0002 46       		.byte	70
  33 0003 4A       		.byte	74
  34 0004 4E       		.byte	78
  35 0005 52       		.byte	82
  36 0006 56       		.byte	86
  37 0007 59       		.byte	89
  38 0008 5D       		.byte	93
  39 0009 60       		.byte	96
  40 000a 63       		.byte	99
  41 000b 66       		.byte	102
  42 000c 69       		.byte	105
  43 000d 6C       		.byte	108
  44 000e 6F       		.byte	111
  45 000f 71       		.byte	113
  46 0010 73       		.byte	115
  47 0011 75       		.byte	117
  48 0012 77       		.byte	119
  49 0013 79       		.byte	121
  50 0014 7A       		.byte	122
  51 0015 7B       		.byte	123
  52 0016 7C       		.byte	124
  53 0017 7D       		.byte	125
  54 0018 7D       		.byte	125
  55 0019 7D       		.byte	125
  56 001a 7D       		.byte	125
  57 001b 7D       		.byte	125
ARM GAS  C:\Users\KJA\AppData\Local\Temp\ccnMlna6.s 			page 2


  58 001c 7C       		.byte	124
  59 001d 7B       		.byte	123
  60 001e 7A       		.byte	122
  61 001f 79       		.byte	121
  62 0020 77       		.byte	119
  63 0021 75       		.byte	117
  64 0022 73       		.byte	115
  65 0023 71       		.byte	113
  66 0024 6F       		.byte	111
  67 0025 6C       		.byte	108
  68 0026 69       		.byte	105
  69 0027 66       		.byte	102
  70 0028 63       		.byte	99
  71 0029 60       		.byte	96
  72 002a 5D       		.byte	93
  73 002b 59       		.byte	89
  74 002c 56       		.byte	86
  75 002d 52       		.byte	82
  76 002e 4E       		.byte	78
  77 002f 4A       		.byte	74
  78 0030 46       		.byte	70
  79 0031 42       		.byte	66
  80 0032 3F       		.byte	63
  81 0033 3B       		.byte	59
  82 0034 37       		.byte	55
  83 0035 33       		.byte	51
  84 0036 2F       		.byte	47
  85 0037 2B       		.byte	43
  86 0038 27       		.byte	39
  87 0039 24       		.byte	36
  88 003a 20       		.byte	32
  89 003b 1D       		.byte	29
  90 003c 1A       		.byte	26
  91 003d 17       		.byte	23
  92 003e 14       		.byte	20
  93 003f 11       		.byte	17
  94 0040 0E       		.byte	14
  95 0041 0C       		.byte	12
  96 0042 0A       		.byte	10
  97 0043 08       		.byte	8
  98 0044 06       		.byte	6
  99 0045 04       		.byte	4
 100 0046 03       		.byte	3
 101 0047 02       		.byte	2
 102 0048 01       		.byte	1
 103 0049 00       		.byte	0
 104 004a 00       		.byte	0
 105 004b 00       		.byte	0
 106 004c 00       		.byte	0
 107 004d 00       		.byte	0
 108 004e 01       		.byte	1
 109 004f 02       		.byte	2
 110 0050 03       		.byte	3
 111 0051 04       		.byte	4
 112 0052 06       		.byte	6
 113 0053 08       		.byte	8
 114 0054 0A       		.byte	10
ARM GAS  C:\Users\KJA\AppData\Local\Temp\ccnMlna6.s 			page 3


 115 0055 0C       		.byte	12
 116 0056 0E       		.byte	14
 117 0057 11       		.byte	17
 118 0058 14       		.byte	20
 119 0059 17       		.byte	23
 120 005a 1A       		.byte	26
 121 005b 1D       		.byte	29
 122 005c 20       		.byte	32
 123 005d 24       		.byte	36
 124 005e 27       		.byte	39
 125 005f 2B       		.byte	43
 126 0060 2F       		.byte	47
 127 0061 33       		.byte	51
 128 0062 37       		.byte	55
 129 0063 3B       		.byte	59
 130              		.global	WaveDAC8_1_wave2
 131              		.align	2
 132              		.type	WaveDAC8_1_wave2, %object
 133              		.size	WaveDAC8_1_wave2, 125
 134              	WaveDAC8_1_wave2:
 135 0064 7D       		.byte	125
 136 0065 7D       		.byte	125
 137 0066 7D       		.byte	125
 138 0067 7D       		.byte	125
 139 0068 7D       		.byte	125
 140 0069 7D       		.byte	125
 141 006a 7D       		.byte	125
 142 006b 7D       		.byte	125
 143 006c 7D       		.byte	125
 144 006d 7D       		.byte	125
 145 006e 7D       		.byte	125
 146 006f 7D       		.byte	125
 147 0070 7D       		.byte	125
 148 0071 7D       		.byte	125
 149 0072 7D       		.byte	125
 150 0073 7D       		.byte	125
 151 0074 7D       		.byte	125
 152 0075 7D       		.byte	125
 153 0076 7D       		.byte	125
 154 0077 7D       		.byte	125
 155 0078 7D       		.byte	125
 156 0079 7D       		.byte	125
 157 007a 7D       		.byte	125
 158 007b 7D       		.byte	125
 159 007c 7D       		.byte	125
 160 007d 7D       		.byte	125
 161 007e 7D       		.byte	125
 162 007f 7D       		.byte	125
 163 0080 7D       		.byte	125
 164 0081 7D       		.byte	125
 165 0082 7D       		.byte	125
 166 0083 7D       		.byte	125
 167 0084 7D       		.byte	125
 168 0085 7D       		.byte	125
 169 0086 7D       		.byte	125
 170 0087 7D       		.byte	125
 171 0088 7D       		.byte	125
ARM GAS  C:\Users\KJA\AppData\Local\Temp\ccnMlna6.s 			page 4


 172 0089 7D       		.byte	125
 173 008a 7D       		.byte	125
 174 008b 7D       		.byte	125
 175 008c 7D       		.byte	125
 176 008d 7D       		.byte	125
 177 008e 7D       		.byte	125
 178 008f 7D       		.byte	125
 179 0090 7D       		.byte	125
 180 0091 7D       		.byte	125
 181 0092 7D       		.byte	125
 182 0093 7D       		.byte	125
 183 0094 7D       		.byte	125
 184 0095 7D       		.byte	125
 185 0096 7D       		.byte	125
 186 0097 7D       		.byte	125
 187 0098 7D       		.byte	125
 188 0099 7D       		.byte	125
 189 009a 7D       		.byte	125
 190 009b 7D       		.byte	125
 191 009c 7D       		.byte	125
 192 009d 7D       		.byte	125
 193 009e 7D       		.byte	125
 194 009f 7D       		.byte	125
 195 00a0 7D       		.byte	125
 196 00a1 7D       		.byte	125
 197 00a2 7D       		.byte	125
 198 00a3 00       		.byte	0
 199 00a4 00       		.byte	0
 200 00a5 00       		.byte	0
 201 00a6 00       		.byte	0
 202 00a7 00       		.byte	0
 203 00a8 00       		.byte	0
 204 00a9 00       		.byte	0
 205 00aa 00       		.byte	0
 206 00ab 00       		.byte	0
 207 00ac 00       		.byte	0
 208 00ad 00       		.byte	0
 209 00ae 00       		.byte	0
 210 00af 00       		.byte	0
 211 00b0 00       		.byte	0
 212 00b1 00       		.byte	0
 213 00b2 00       		.byte	0
 214 00b3 00       		.byte	0
 215 00b4 00       		.byte	0
 216 00b5 00       		.byte	0
 217 00b6 00       		.byte	0
 218 00b7 00       		.byte	0
 219 00b8 00       		.byte	0
 220 00b9 00       		.byte	0
 221 00ba 00       		.byte	0
 222 00bb 00       		.byte	0
 223 00bc 00       		.byte	0
 224 00bd 00       		.byte	0
 225 00be 00       		.byte	0
 226 00bf 00       		.byte	0
 227 00c0 00       		.byte	0
 228 00c1 00       		.byte	0
ARM GAS  C:\Users\KJA\AppData\Local\Temp\ccnMlna6.s 			page 5


 229 00c2 00       		.byte	0
 230 00c3 00       		.byte	0
 231 00c4 00       		.byte	0
 232 00c5 00       		.byte	0
 233 00c6 00       		.byte	0
 234 00c7 00       		.byte	0
 235 00c8 00       		.byte	0
 236 00c9 00       		.byte	0
 237 00ca 00       		.byte	0
 238 00cb 00       		.byte	0
 239 00cc 00       		.byte	0
 240 00cd 00       		.byte	0
 241 00ce 00       		.byte	0
 242 00cf 00       		.byte	0
 243 00d0 00       		.byte	0
 244 00d1 00       		.byte	0
 245 00d2 00       		.byte	0
 246 00d3 00       		.byte	0
 247 00d4 00       		.byte	0
 248 00d5 00       		.byte	0
 249 00d6 00       		.byte	0
 250 00d7 00       		.byte	0
 251 00d8 00       		.byte	0
 252 00d9 00       		.byte	0
 253 00da 00       		.byte	0
 254 00db 00       		.byte	0
 255 00dc 00       		.byte	0
 256 00dd 00       		.byte	0
 257 00de 00       		.byte	0
 258 00df 00       		.byte	0
 259 00e0 00       		.byte	0
 260 00e1 000000   		.bss
 261              	WaveDAC8_1_Wave1Chan:
 262 0001 00       		.space	1
 263              	WaveDAC8_1_Wave2Chan:
 264 0002 00       		.space	1
 265              	WaveDAC8_1_Wave1TD:
 266 0003 00       		.space	1
 267              	WaveDAC8_1_Wave2TD:
 268 0004 00       		.space	1
 269              		.section	.text.WaveDAC8_1_Init,"ax",%progbits
 270              		.align	2
 271              		.global	WaveDAC8_1_Init
 272              		.thumb
 273              		.thumb_func
 274              		.type	WaveDAC8_1_Init, %function
 275              	WaveDAC8_1_Init:
 276              	.LFB0:
 277              		.file 1 "Generated_Source\\PSoC5\\WaveDAC8_1.c"
   1:Generated_Source\PSoC5/WaveDAC8_1.c **** /*******************************************************************************
   2:Generated_Source\PSoC5/WaveDAC8_1.c **** * File Name: WaveDAC8_1.c
   3:Generated_Source\PSoC5/WaveDAC8_1.c **** * Version 2.0
   4:Generated_Source\PSoC5/WaveDAC8_1.c **** *
   5:Generated_Source\PSoC5/WaveDAC8_1.c **** * Description:
   6:Generated_Source\PSoC5/WaveDAC8_1.c **** *  This file provides the source code for the 8-bit Waveform DAC 
   7:Generated_Source\PSoC5/WaveDAC8_1.c **** *  (WaveDAC8) Component.
   8:Generated_Source\PSoC5/WaveDAC8_1.c **** *
ARM GAS  C:\Users\KJA\AppData\Local\Temp\ccnMlna6.s 			page 6


   9:Generated_Source\PSoC5/WaveDAC8_1.c **** ********************************************************************************
  10:Generated_Source\PSoC5/WaveDAC8_1.c **** * Copyright 2013, Cypress Semiconductor Corporation.  All rights reserved.
  11:Generated_Source\PSoC5/WaveDAC8_1.c **** * You may use this file only in accordance with the license, terms, conditions,
  12:Generated_Source\PSoC5/WaveDAC8_1.c **** * disclaimers, and limitations in the end user license agreement accompanying
  13:Generated_Source\PSoC5/WaveDAC8_1.c **** * the software package with which this file was provided.
  14:Generated_Source\PSoC5/WaveDAC8_1.c **** *******************************************************************************/
  15:Generated_Source\PSoC5/WaveDAC8_1.c **** 
  16:Generated_Source\PSoC5/WaveDAC8_1.c **** #include "WaveDAC8_1.h"
  17:Generated_Source\PSoC5/WaveDAC8_1.c **** 
  18:Generated_Source\PSoC5/WaveDAC8_1.c **** uint8  WaveDAC8_1_initVar = 0u;
  19:Generated_Source\PSoC5/WaveDAC8_1.c **** 
  20:Generated_Source\PSoC5/WaveDAC8_1.c **** const uint8 CYCODE WaveDAC8_1_wave1[WaveDAC8_1_WAVE1_LENGTH] = { 62u,66u,70u,74u,78u,82u,86u,89u,93
  21:Generated_Source\PSoC5/WaveDAC8_1.c **** const uint8 CYCODE WaveDAC8_1_wave2[WaveDAC8_1_WAVE2_LENGTH] = { 125u,125u,125u,125u,125u,125u,125u
  22:Generated_Source\PSoC5/WaveDAC8_1.c **** 
  23:Generated_Source\PSoC5/WaveDAC8_1.c **** static uint8  WaveDAC8_1_Wave1Chan;
  24:Generated_Source\PSoC5/WaveDAC8_1.c **** static uint8  WaveDAC8_1_Wave2Chan;
  25:Generated_Source\PSoC5/WaveDAC8_1.c **** static uint8  WaveDAC8_1_Wave1TD;
  26:Generated_Source\PSoC5/WaveDAC8_1.c **** static uint8  WaveDAC8_1_Wave2TD;
  27:Generated_Source\PSoC5/WaveDAC8_1.c **** 
  28:Generated_Source\PSoC5/WaveDAC8_1.c **** 
  29:Generated_Source\PSoC5/WaveDAC8_1.c **** /*******************************************************************************
  30:Generated_Source\PSoC5/WaveDAC8_1.c **** * Function Name: WaveDAC8_1_Init
  31:Generated_Source\PSoC5/WaveDAC8_1.c **** ********************************************************************************
  32:Generated_Source\PSoC5/WaveDAC8_1.c **** *
  33:Generated_Source\PSoC5/WaveDAC8_1.c **** * Summary:
  34:Generated_Source\PSoC5/WaveDAC8_1.c **** *  Initializes component with parameters set in the customizer.
  35:Generated_Source\PSoC5/WaveDAC8_1.c **** *
  36:Generated_Source\PSoC5/WaveDAC8_1.c **** * Parameters:  
  37:Generated_Source\PSoC5/WaveDAC8_1.c **** *  None
  38:Generated_Source\PSoC5/WaveDAC8_1.c **** *
  39:Generated_Source\PSoC5/WaveDAC8_1.c **** * Return: 
  40:Generated_Source\PSoC5/WaveDAC8_1.c **** *  None
  41:Generated_Source\PSoC5/WaveDAC8_1.c **** *
  42:Generated_Source\PSoC5/WaveDAC8_1.c **** *******************************************************************************/
  43:Generated_Source\PSoC5/WaveDAC8_1.c **** void WaveDAC8_1_Init(void) 
  44:Generated_Source\PSoC5/WaveDAC8_1.c **** {
 278              		.loc 1 44 0
 279              		.cfi_startproc
 280              		@ args = 0, pretend = 0, frame = 0
 281              		@ frame_needed = 1, uses_anonymous_args = 0
 282 0000 80B5     		push	{r7, lr}
 283              		.cfi_def_cfa_offset 8
 284              		.cfi_offset 7, -8
 285              		.cfi_offset 14, -4
 286 0002 00AF     		add	r7, sp, #0
 287              		.cfi_def_cfa_register 7
  45:Generated_Source\PSoC5/WaveDAC8_1.c **** 	WaveDAC8_1_VDAC8_Init();
 288              		.loc 1 45 0
 289 0004 FFF7FEFF 		bl	WaveDAC8_1_VDAC8_Init
  46:Generated_Source\PSoC5/WaveDAC8_1.c **** 	WaveDAC8_1_VDAC8_SetSpeed(WaveDAC8_1_HIGHSPEED);
 290              		.loc 1 46 0
 291 0008 0220     		movs	r0, #2
 292 000a FFF7FEFF 		bl	WaveDAC8_1_VDAC8_SetSpeed
  47:Generated_Source\PSoC5/WaveDAC8_1.c **** 	WaveDAC8_1_VDAC8_SetRange(WaveDAC8_1_DAC_RANGE);
 293              		.loc 1 47 0
 294 000e 0420     		movs	r0, #4
 295 0010 FFF7FEFF 		bl	WaveDAC8_1_VDAC8_SetRange
ARM GAS  C:\Users\KJA\AppData\Local\Temp\ccnMlna6.s 			page 7


  48:Generated_Source\PSoC5/WaveDAC8_1.c **** 
  49:Generated_Source\PSoC5/WaveDAC8_1.c **** 	#if(WaveDAC8_1_DAC_MODE == WaveDAC8_1_CURRENT_MODE)
  50:Generated_Source\PSoC5/WaveDAC8_1.c **** 		WaveDAC8_1_IDAC8_SetPolarity(WaveDAC8_1_DAC_POL);
  51:Generated_Source\PSoC5/WaveDAC8_1.c **** 	#endif /* WaveDAC8_1_DAC_MODE == WaveDAC8_1_CURRENT_MODE */
  52:Generated_Source\PSoC5/WaveDAC8_1.c **** 
  53:Generated_Source\PSoC5/WaveDAC8_1.c **** 	#if(WaveDAC8_1_OUT_MODE == WaveDAC8_1_BUFFER_MODE)
  54:Generated_Source\PSoC5/WaveDAC8_1.c **** 	   WaveDAC8_1_BuffAmp_Init();
 296              		.loc 1 54 0
 297 0014 FFF7FEFF 		bl	WaveDAC8_1_BuffAmp_Init
  55:Generated_Source\PSoC5/WaveDAC8_1.c **** 	#endif /* WaveDAC8_1_OUT_MODE == WaveDAC8_1_BUFFER_MODE */
  56:Generated_Source\PSoC5/WaveDAC8_1.c **** 
  57:Generated_Source\PSoC5/WaveDAC8_1.c **** 	/* Get the TD Number for the DMA channel 1 and 2   */
  58:Generated_Source\PSoC5/WaveDAC8_1.c **** 	WaveDAC8_1_Wave1TD = CyDmaTdAllocate();
 298              		.loc 1 58 0
 299 0018 FFF7FEFF 		bl	CyDmaTdAllocate
 300 001c 0346     		mov	r3, r0
 301 001e 1A46     		mov	r2, r3
 302 0020 084B     		ldr	r3, .L2
 303 0022 1A70     		strb	r2, [r3]
  59:Generated_Source\PSoC5/WaveDAC8_1.c **** 	WaveDAC8_1_Wave2TD = CyDmaTdAllocate();
 304              		.loc 1 59 0
 305 0024 FFF7FEFF 		bl	CyDmaTdAllocate
 306 0028 0346     		mov	r3, r0
 307 002a 1A46     		mov	r2, r3
 308 002c 064B     		ldr	r3, .L2+4
 309 002e 1A70     		strb	r2, [r3]
  60:Generated_Source\PSoC5/WaveDAC8_1.c **** 	
  61:Generated_Source\PSoC5/WaveDAC8_1.c **** 	/* Initialize waveform pointers  */
  62:Generated_Source\PSoC5/WaveDAC8_1.c **** 	WaveDAC8_1_Wave1Setup(WaveDAC8_1_wave1, WaveDAC8_1_WAVE1_LENGTH) ;
 310              		.loc 1 62 0
 311 0030 0648     		ldr	r0, .L2+8
 312 0032 6421     		movs	r1, #100
 313 0034 FFF7FEFF 		bl	WaveDAC8_1_Wave1Setup
  63:Generated_Source\PSoC5/WaveDAC8_1.c **** 	WaveDAC8_1_Wave2Setup(WaveDAC8_1_wave2, WaveDAC8_1_WAVE2_LENGTH) ;
 314              		.loc 1 63 0
 315 0038 0548     		ldr	r0, .L2+12
 316 003a 7D21     		movs	r1, #125
 317 003c FFF7FEFF 		bl	WaveDAC8_1_Wave2Setup
  64:Generated_Source\PSoC5/WaveDAC8_1.c **** 	
  65:Generated_Source\PSoC5/WaveDAC8_1.c **** 	/* Initialize the internal clock if one present  */
  66:Generated_Source\PSoC5/WaveDAC8_1.c **** 	#if defined(WaveDAC8_1_DacClk_PHASE)
  67:Generated_Source\PSoC5/WaveDAC8_1.c **** 	   WaveDAC8_1_DacClk_SetPhase(WaveDAC8_1_CLK_PHASE_0nS);
  68:Generated_Source\PSoC5/WaveDAC8_1.c **** 	#endif /* defined(WaveDAC8_1_DacClk_PHASE) */
  69:Generated_Source\PSoC5/WaveDAC8_1.c **** }
 318              		.loc 1 69 0
 319 0040 80BD     		pop	{r7, pc}
 320              	.L3:
 321 0042 00BF     		.align	2
 322              	.L2:
 323 0044 03000000 		.word	WaveDAC8_1_Wave1TD
 324 0048 04000000 		.word	WaveDAC8_1_Wave2TD
 325 004c 00000000 		.word	WaveDAC8_1_wave1
 326 0050 00000000 		.word	WaveDAC8_1_wave2
 327              		.cfi_endproc
 328              	.LFE0:
 329              		.size	WaveDAC8_1_Init, .-WaveDAC8_1_Init
 330              		.section	.text.WaveDAC8_1_Enable,"ax",%progbits
ARM GAS  C:\Users\KJA\AppData\Local\Temp\ccnMlna6.s 			page 8


 331              		.align	2
 332              		.global	WaveDAC8_1_Enable
 333              		.thumb
 334              		.thumb_func
 335              		.type	WaveDAC8_1_Enable, %function
 336              	WaveDAC8_1_Enable:
 337              	.LFB1:
  70:Generated_Source\PSoC5/WaveDAC8_1.c **** 
  71:Generated_Source\PSoC5/WaveDAC8_1.c **** 
  72:Generated_Source\PSoC5/WaveDAC8_1.c **** /*******************************************************************************
  73:Generated_Source\PSoC5/WaveDAC8_1.c **** * Function Name: WaveDAC8_1_Enable
  74:Generated_Source\PSoC5/WaveDAC8_1.c **** ********************************************************************************
  75:Generated_Source\PSoC5/WaveDAC8_1.c **** *  
  76:Generated_Source\PSoC5/WaveDAC8_1.c **** * Summary: 
  77:Generated_Source\PSoC5/WaveDAC8_1.c **** *  Enables the DAC block and DMA operation.
  78:Generated_Source\PSoC5/WaveDAC8_1.c **** *
  79:Generated_Source\PSoC5/WaveDAC8_1.c **** * Parameters:  
  80:Generated_Source\PSoC5/WaveDAC8_1.c **** *  None
  81:Generated_Source\PSoC5/WaveDAC8_1.c **** *
  82:Generated_Source\PSoC5/WaveDAC8_1.c **** * Return: 
  83:Generated_Source\PSoC5/WaveDAC8_1.c **** *  None
  84:Generated_Source\PSoC5/WaveDAC8_1.c **** *
  85:Generated_Source\PSoC5/WaveDAC8_1.c **** *******************************************************************************/
  86:Generated_Source\PSoC5/WaveDAC8_1.c **** void WaveDAC8_1_Enable(void) 
  87:Generated_Source\PSoC5/WaveDAC8_1.c **** {
 338              		.loc 1 87 0
 339              		.cfi_startproc
 340              		@ args = 0, pretend = 0, frame = 0
 341              		@ frame_needed = 1, uses_anonymous_args = 0
 342 0000 80B5     		push	{r7, lr}
 343              		.cfi_def_cfa_offset 8
 344              		.cfi_offset 7, -8
 345              		.cfi_offset 14, -4
 346 0002 00AF     		add	r7, sp, #0
 347              		.cfi_def_cfa_register 7
  88:Generated_Source\PSoC5/WaveDAC8_1.c **** 	WaveDAC8_1_VDAC8_Enable();
 348              		.loc 1 88 0
 349 0004 FFF7FEFF 		bl	WaveDAC8_1_VDAC8_Enable
  89:Generated_Source\PSoC5/WaveDAC8_1.c **** 
  90:Generated_Source\PSoC5/WaveDAC8_1.c **** 	#if(WaveDAC8_1_OUT_MODE == WaveDAC8_1_BUFFER_MODE)
  91:Generated_Source\PSoC5/WaveDAC8_1.c **** 	   WaveDAC8_1_BuffAmp_Enable();
 350              		.loc 1 91 0
 351 0008 FFF7FEFF 		bl	WaveDAC8_1_BuffAmp_Enable
  92:Generated_Source\PSoC5/WaveDAC8_1.c **** 	#endif /* WaveDAC8_1_OUT_MODE == WaveDAC8_1_BUFFER_MODE */
  93:Generated_Source\PSoC5/WaveDAC8_1.c **** 
  94:Generated_Source\PSoC5/WaveDAC8_1.c **** 	/* 
  95:Generated_Source\PSoC5/WaveDAC8_1.c **** 	* Enable the channel. It is configured to remember the TD value so that
  96:Generated_Source\PSoC5/WaveDAC8_1.c **** 	* it can be restored from the place where it has been stopped.
  97:Generated_Source\PSoC5/WaveDAC8_1.c **** 	*/
  98:Generated_Source\PSoC5/WaveDAC8_1.c **** 	(void)CyDmaChEnable(WaveDAC8_1_Wave1Chan, 1u);
 352              		.loc 1 98 0
 353 000c 074B     		ldr	r3, .L5
 354 000e 1B78     		ldrb	r3, [r3]	@ zero_extendqisi2
 355 0010 1846     		mov	r0, r3
 356 0012 0121     		movs	r1, #1
 357 0014 FFF7FEFF 		bl	CyDmaChEnable
  99:Generated_Source\PSoC5/WaveDAC8_1.c **** 	(void)CyDmaChEnable(WaveDAC8_1_Wave2Chan, 1u);
ARM GAS  C:\Users\KJA\AppData\Local\Temp\ccnMlna6.s 			page 9


 358              		.loc 1 99 0
 359 0018 054B     		ldr	r3, .L5+4
 360 001a 1B78     		ldrb	r3, [r3]	@ zero_extendqisi2
 361 001c 1846     		mov	r0, r3
 362 001e 0121     		movs	r1, #1
 363 0020 FFF7FEFF 		bl	CyDmaChEnable
 100:Generated_Source\PSoC5/WaveDAC8_1.c **** 	
 101:Generated_Source\PSoC5/WaveDAC8_1.c **** 	/* set the initial value */
 102:Generated_Source\PSoC5/WaveDAC8_1.c **** 	WaveDAC8_1_SetValue(0u);
 364              		.loc 1 102 0
 365 0024 0020     		movs	r0, #0
 366 0026 FFF7FEFF 		bl	WaveDAC8_1_VDAC8_SetValue
 103:Generated_Source\PSoC5/WaveDAC8_1.c **** 	
 104:Generated_Source\PSoC5/WaveDAC8_1.c **** 	#if(WaveDAC8_1_CLOCK_SRC == WaveDAC8_1_CLOCK_INT)  	
 105:Generated_Source\PSoC5/WaveDAC8_1.c **** 	   WaveDAC8_1_DacClk_Start();
 106:Generated_Source\PSoC5/WaveDAC8_1.c **** 	#endif /* WaveDAC8_1_CLOCK_SRC == WaveDAC8_1_CLOCK_INT */
 107:Generated_Source\PSoC5/WaveDAC8_1.c **** }
 367              		.loc 1 107 0
 368 002a 80BD     		pop	{r7, pc}
 369              	.L6:
 370              		.align	2
 371              	.L5:
 372 002c 01000000 		.word	WaveDAC8_1_Wave1Chan
 373 0030 02000000 		.word	WaveDAC8_1_Wave2Chan
 374              		.cfi_endproc
 375              	.LFE1:
 376              		.size	WaveDAC8_1_Enable, .-WaveDAC8_1_Enable
 377              		.section	.text.WaveDAC8_1_Start,"ax",%progbits
 378              		.align	2
 379              		.global	WaveDAC8_1_Start
 380              		.thumb
 381              		.thumb_func
 382              		.type	WaveDAC8_1_Start, %function
 383              	WaveDAC8_1_Start:
 384              	.LFB2:
 108:Generated_Source\PSoC5/WaveDAC8_1.c **** 
 109:Generated_Source\PSoC5/WaveDAC8_1.c **** 
 110:Generated_Source\PSoC5/WaveDAC8_1.c **** /*******************************************************************************
 111:Generated_Source\PSoC5/WaveDAC8_1.c **** * Function Name: WaveDAC8_1_Start
 112:Generated_Source\PSoC5/WaveDAC8_1.c **** ********************************************************************************
 113:Generated_Source\PSoC5/WaveDAC8_1.c **** *
 114:Generated_Source\PSoC5/WaveDAC8_1.c **** * Summary:
 115:Generated_Source\PSoC5/WaveDAC8_1.c **** *  The start function initializes the voltage DAC with the default values, 
 116:Generated_Source\PSoC5/WaveDAC8_1.c **** *  and sets the power to the given level.  A power level of 0, is the same as 
 117:Generated_Source\PSoC5/WaveDAC8_1.c **** *  executing the stop function.
 118:Generated_Source\PSoC5/WaveDAC8_1.c **** *
 119:Generated_Source\PSoC5/WaveDAC8_1.c **** * Parameters:  
 120:Generated_Source\PSoC5/WaveDAC8_1.c **** *  None
 121:Generated_Source\PSoC5/WaveDAC8_1.c **** *
 122:Generated_Source\PSoC5/WaveDAC8_1.c **** * Return: 
 123:Generated_Source\PSoC5/WaveDAC8_1.c **** *  None
 124:Generated_Source\PSoC5/WaveDAC8_1.c **** *
 125:Generated_Source\PSoC5/WaveDAC8_1.c **** * Reentrant:
 126:Generated_Source\PSoC5/WaveDAC8_1.c **** *  No
 127:Generated_Source\PSoC5/WaveDAC8_1.c **** *
 128:Generated_Source\PSoC5/WaveDAC8_1.c **** *******************************************************************************/
 129:Generated_Source\PSoC5/WaveDAC8_1.c **** void WaveDAC8_1_Start(void) 
ARM GAS  C:\Users\KJA\AppData\Local\Temp\ccnMlna6.s 			page 10


 130:Generated_Source\PSoC5/WaveDAC8_1.c **** {
 385              		.loc 1 130 0
 386              		.cfi_startproc
 387              		@ args = 0, pretend = 0, frame = 0
 388              		@ frame_needed = 1, uses_anonymous_args = 0
 389 0000 80B5     		push	{r7, lr}
 390              		.cfi_def_cfa_offset 8
 391              		.cfi_offset 7, -8
 392              		.cfi_offset 14, -4
 393 0002 00AF     		add	r7, sp, #0
 394              		.cfi_def_cfa_register 7
 131:Generated_Source\PSoC5/WaveDAC8_1.c **** 	/* If not Initialized then initialize all required hardware and software */
 132:Generated_Source\PSoC5/WaveDAC8_1.c **** 	if(WaveDAC8_1_initVar == 0u)
 395              		.loc 1 132 0
 396 0004 054B     		ldr	r3, .L9
 397 0006 1B78     		ldrb	r3, [r3]	@ zero_extendqisi2
 398 0008 002B     		cmp	r3, #0
 399 000a 04D1     		bne	.L8
 133:Generated_Source\PSoC5/WaveDAC8_1.c **** 	{
 134:Generated_Source\PSoC5/WaveDAC8_1.c **** 		WaveDAC8_1_Init();
 400              		.loc 1 134 0
 401 000c FFF7FEFF 		bl	WaveDAC8_1_Init
 135:Generated_Source\PSoC5/WaveDAC8_1.c **** 		WaveDAC8_1_initVar = 1u;
 402              		.loc 1 135 0
 403 0010 024B     		ldr	r3, .L9
 404 0012 0122     		movs	r2, #1
 405 0014 1A70     		strb	r2, [r3]
 406              	.L8:
 136:Generated_Source\PSoC5/WaveDAC8_1.c **** 	}
 137:Generated_Source\PSoC5/WaveDAC8_1.c **** 	
 138:Generated_Source\PSoC5/WaveDAC8_1.c **** 	WaveDAC8_1_Enable();
 407              		.loc 1 138 0
 408 0016 FFF7FEFF 		bl	WaveDAC8_1_Enable
 139:Generated_Source\PSoC5/WaveDAC8_1.c **** }
 409              		.loc 1 139 0
 410 001a 80BD     		pop	{r7, pc}
 411              	.L10:
 412              		.align	2
 413              	.L9:
 414 001c 00000000 		.word	WaveDAC8_1_initVar
 415              		.cfi_endproc
 416              	.LFE2:
 417              		.size	WaveDAC8_1_Start, .-WaveDAC8_1_Start
 418              		.section	.text.WaveDAC8_1_StartEx,"ax",%progbits
 419              		.align	2
 420              		.global	WaveDAC8_1_StartEx
 421              		.thumb
 422              		.thumb_func
 423              		.type	WaveDAC8_1_StartEx, %function
 424              	WaveDAC8_1_StartEx:
 425              	.LFB3:
 140:Generated_Source\PSoC5/WaveDAC8_1.c **** 
 141:Generated_Source\PSoC5/WaveDAC8_1.c **** 
 142:Generated_Source\PSoC5/WaveDAC8_1.c **** /*******************************************************************************
 143:Generated_Source\PSoC5/WaveDAC8_1.c **** * Function Name: WaveDAC8_1_StartEx
 144:Generated_Source\PSoC5/WaveDAC8_1.c **** ********************************************************************************
 145:Generated_Source\PSoC5/WaveDAC8_1.c **** *
ARM GAS  C:\Users\KJA\AppData\Local\Temp\ccnMlna6.s 			page 11


 146:Generated_Source\PSoC5/WaveDAC8_1.c **** * Summary:
 147:Generated_Source\PSoC5/WaveDAC8_1.c **** *  The StartEx function sets pointers and sizes for both waveforms
 148:Generated_Source\PSoC5/WaveDAC8_1.c **** *  and then starts the component.
 149:Generated_Source\PSoC5/WaveDAC8_1.c **** *
 150:Generated_Source\PSoC5/WaveDAC8_1.c **** * Parameters:  
 151:Generated_Source\PSoC5/WaveDAC8_1.c **** *   uint8 * wavePtr1:     Pointer to the waveform 1 array.
 152:Generated_Source\PSoC5/WaveDAC8_1.c **** *   uint16  sampleSize1:  The amount of samples in the waveform 1.
 153:Generated_Source\PSoC5/WaveDAC8_1.c **** *   uint8 * wavePtr2:     Pointer to the waveform 2 array.
 154:Generated_Source\PSoC5/WaveDAC8_1.c **** *   uint16  sampleSize2:  The amount of samples in the waveform 2.
 155:Generated_Source\PSoC5/WaveDAC8_1.c **** *
 156:Generated_Source\PSoC5/WaveDAC8_1.c **** * Return: 
 157:Generated_Source\PSoC5/WaveDAC8_1.c **** *  None
 158:Generated_Source\PSoC5/WaveDAC8_1.c **** *
 159:Generated_Source\PSoC5/WaveDAC8_1.c **** * Reentrant:
 160:Generated_Source\PSoC5/WaveDAC8_1.c **** *  No
 161:Generated_Source\PSoC5/WaveDAC8_1.c **** *
 162:Generated_Source\PSoC5/WaveDAC8_1.c **** *******************************************************************************/
 163:Generated_Source\PSoC5/WaveDAC8_1.c **** void WaveDAC8_1_StartEx(const uint8 * wavePtr1, uint16 sampleSize1, const uint8 * wavePtr2, uint16 
 164:Generated_Source\PSoC5/WaveDAC8_1.c **** 
 165:Generated_Source\PSoC5/WaveDAC8_1.c **** {
 426              		.loc 1 165 0
 427              		.cfi_startproc
 428              		@ args = 0, pretend = 0, frame = 16
 429              		@ frame_needed = 1, uses_anonymous_args = 0
 430 0000 80B5     		push	{r7, lr}
 431              		.cfi_def_cfa_offset 8
 432              		.cfi_offset 7, -8
 433              		.cfi_offset 14, -4
 434 0002 84B0     		sub	sp, sp, #16
 435              		.cfi_def_cfa_offset 24
 436 0004 00AF     		add	r7, sp, #0
 437              		.cfi_def_cfa_register 7
 438 0006 F860     		str	r0, [r7, #12]
 439 0008 7A60     		str	r2, [r7, #4]
 440 000a 1A46     		mov	r2, r3
 441 000c 0B46     		mov	r3, r1	@ movhi
 442 000e 7B81     		strh	r3, [r7, #10]	@ movhi
 443 0010 1346     		mov	r3, r2	@ movhi
 444 0012 3B81     		strh	r3, [r7, #8]	@ movhi
 166:Generated_Source\PSoC5/WaveDAC8_1.c **** 	WaveDAC8_1_Wave1Setup(wavePtr1, sampleSize1);
 445              		.loc 1 166 0
 446 0014 7B89     		ldrh	r3, [r7, #10]
 447 0016 F868     		ldr	r0, [r7, #12]
 448 0018 1946     		mov	r1, r3
 449 001a FFF7FEFF 		bl	WaveDAC8_1_Wave1Setup
 167:Generated_Source\PSoC5/WaveDAC8_1.c **** 	WaveDAC8_1_Wave2Setup(wavePtr2, sampleSize2);
 450              		.loc 1 167 0
 451 001e 3B89     		ldrh	r3, [r7, #8]
 452 0020 7868     		ldr	r0, [r7, #4]
 453 0022 1946     		mov	r1, r3
 454 0024 FFF7FEFF 		bl	WaveDAC8_1_Wave2Setup
 168:Generated_Source\PSoC5/WaveDAC8_1.c **** 	WaveDAC8_1_Start();
 455              		.loc 1 168 0
 456 0028 FFF7FEFF 		bl	WaveDAC8_1_Start
 169:Generated_Source\PSoC5/WaveDAC8_1.c **** }
 457              		.loc 1 169 0
 458 002c 1037     		adds	r7, r7, #16
ARM GAS  C:\Users\KJA\AppData\Local\Temp\ccnMlna6.s 			page 12


 459              		.cfi_def_cfa_offset 8
 460 002e BD46     		mov	sp, r7
 461              		.cfi_def_cfa_register 13
 462              		@ sp needed
 463 0030 80BD     		pop	{r7, pc}
 464              		.cfi_endproc
 465              	.LFE3:
 466              		.size	WaveDAC8_1_StartEx, .-WaveDAC8_1_StartEx
 467 0032 00BF     		.section	.text.WaveDAC8_1_Stop,"ax",%progbits
 468              		.align	2
 469              		.global	WaveDAC8_1_Stop
 470              		.thumb
 471              		.thumb_func
 472              		.type	WaveDAC8_1_Stop, %function
 473              	WaveDAC8_1_Stop:
 474              	.LFB4:
 170:Generated_Source\PSoC5/WaveDAC8_1.c **** 
 171:Generated_Source\PSoC5/WaveDAC8_1.c **** 
 172:Generated_Source\PSoC5/WaveDAC8_1.c **** /*******************************************************************************
 173:Generated_Source\PSoC5/WaveDAC8_1.c **** * Function Name: WaveDAC8_1_Stop
 174:Generated_Source\PSoC5/WaveDAC8_1.c **** ********************************************************************************
 175:Generated_Source\PSoC5/WaveDAC8_1.c **** *
 176:Generated_Source\PSoC5/WaveDAC8_1.c **** * Summary:
 177:Generated_Source\PSoC5/WaveDAC8_1.c **** *  Stops the clock (if internal), disables the DMA channels
 178:Generated_Source\PSoC5/WaveDAC8_1.c **** *  and powers down the DAC.
 179:Generated_Source\PSoC5/WaveDAC8_1.c **** *
 180:Generated_Source\PSoC5/WaveDAC8_1.c **** * Parameters:  
 181:Generated_Source\PSoC5/WaveDAC8_1.c **** *  None  
 182:Generated_Source\PSoC5/WaveDAC8_1.c **** *
 183:Generated_Source\PSoC5/WaveDAC8_1.c **** * Return: 
 184:Generated_Source\PSoC5/WaveDAC8_1.c **** *  None
 185:Generated_Source\PSoC5/WaveDAC8_1.c **** *
 186:Generated_Source\PSoC5/WaveDAC8_1.c **** *******************************************************************************/
 187:Generated_Source\PSoC5/WaveDAC8_1.c **** void WaveDAC8_1_Stop(void) 
 188:Generated_Source\PSoC5/WaveDAC8_1.c **** {
 475              		.loc 1 188 0
 476              		.cfi_startproc
 477              		@ args = 0, pretend = 0, frame = 0
 478              		@ frame_needed = 1, uses_anonymous_args = 0
 479 0000 80B5     		push	{r7, lr}
 480              		.cfi_def_cfa_offset 8
 481              		.cfi_offset 7, -8
 482              		.cfi_offset 14, -4
 483 0002 00AF     		add	r7, sp, #0
 484              		.cfi_def_cfa_register 7
 189:Generated_Source\PSoC5/WaveDAC8_1.c **** 	/* Turn off internal clock, if one present */
 190:Generated_Source\PSoC5/WaveDAC8_1.c **** 	#if(WaveDAC8_1_CLOCK_SRC == WaveDAC8_1_CLOCK_INT)  	
 191:Generated_Source\PSoC5/WaveDAC8_1.c **** 	   WaveDAC8_1_DacClk_Stop();
 192:Generated_Source\PSoC5/WaveDAC8_1.c **** 	#endif /* WaveDAC8_1_CLOCK_SRC == WaveDAC8_1_CLOCK_INT */
 193:Generated_Source\PSoC5/WaveDAC8_1.c **** 	
 194:Generated_Source\PSoC5/WaveDAC8_1.c **** 	/* Disble DMA channels */
 195:Generated_Source\PSoC5/WaveDAC8_1.c **** 	(void)CyDmaChDisable(WaveDAC8_1_Wave1Chan);
 485              		.loc 1 195 0
 486 0004 064B     		ldr	r3, .L13
 487 0006 1B78     		ldrb	r3, [r3]	@ zero_extendqisi2
 488 0008 1846     		mov	r0, r3
 489 000a FFF7FEFF 		bl	CyDmaChDisable
ARM GAS  C:\Users\KJA\AppData\Local\Temp\ccnMlna6.s 			page 13


 196:Generated_Source\PSoC5/WaveDAC8_1.c **** 	(void)CyDmaChDisable(WaveDAC8_1_Wave2Chan);
 490              		.loc 1 196 0
 491 000e 054B     		ldr	r3, .L13+4
 492 0010 1B78     		ldrb	r3, [r3]	@ zero_extendqisi2
 493 0012 1846     		mov	r0, r3
 494 0014 FFF7FEFF 		bl	CyDmaChDisable
 197:Generated_Source\PSoC5/WaveDAC8_1.c **** 
 198:Generated_Source\PSoC5/WaveDAC8_1.c **** 	/* Disable power to DAC */
 199:Generated_Source\PSoC5/WaveDAC8_1.c **** 	WaveDAC8_1_VDAC8_Stop();
 495              		.loc 1 199 0
 496 0018 FFF7FEFF 		bl	WaveDAC8_1_VDAC8_Stop
 200:Generated_Source\PSoC5/WaveDAC8_1.c **** }
 497              		.loc 1 200 0
 498 001c 80BD     		pop	{r7, pc}
 499              	.L14:
 500 001e 00BF     		.align	2
 501              	.L13:
 502 0020 01000000 		.word	WaveDAC8_1_Wave1Chan
 503 0024 02000000 		.word	WaveDAC8_1_Wave2Chan
 504              		.cfi_endproc
 505              	.LFE4:
 506              		.size	WaveDAC8_1_Stop, .-WaveDAC8_1_Stop
 507              		.section	.text.WaveDAC8_1_Wave1Setup,"ax",%progbits
 508              		.align	2
 509              		.global	WaveDAC8_1_Wave1Setup
 510              		.thumb
 511              		.thumb_func
 512              		.type	WaveDAC8_1_Wave1Setup, %function
 513              	WaveDAC8_1_Wave1Setup:
 514              	.LFB5:
 201:Generated_Source\PSoC5/WaveDAC8_1.c **** 
 202:Generated_Source\PSoC5/WaveDAC8_1.c **** 
 203:Generated_Source\PSoC5/WaveDAC8_1.c **** /*******************************************************************************
 204:Generated_Source\PSoC5/WaveDAC8_1.c **** * Function Name: WaveDAC8_1_Wave1Setup
 205:Generated_Source\PSoC5/WaveDAC8_1.c **** ********************************************************************************
 206:Generated_Source\PSoC5/WaveDAC8_1.c **** *
 207:Generated_Source\PSoC5/WaveDAC8_1.c **** * Summary:
 208:Generated_Source\PSoC5/WaveDAC8_1.c **** *  Sets pointer and size for waveform 1.                                    
 209:Generated_Source\PSoC5/WaveDAC8_1.c **** *
 210:Generated_Source\PSoC5/WaveDAC8_1.c **** * Parameters:  
 211:Generated_Source\PSoC5/WaveDAC8_1.c **** *  uint8 * WavePtr:     Pointer to the waveform array.
 212:Generated_Source\PSoC5/WaveDAC8_1.c **** *  uint16  SampleSize:  The amount of samples in the waveform.
 213:Generated_Source\PSoC5/WaveDAC8_1.c **** *
 214:Generated_Source\PSoC5/WaveDAC8_1.c **** * Return: 
 215:Generated_Source\PSoC5/WaveDAC8_1.c **** *  None 
 216:Generated_Source\PSoC5/WaveDAC8_1.c **** *
 217:Generated_Source\PSoC5/WaveDAC8_1.c **** *******************************************************************************/
 218:Generated_Source\PSoC5/WaveDAC8_1.c **** void WaveDAC8_1_Wave1Setup(const uint8 * wavePtr, uint16 sampleSize)
 219:Generated_Source\PSoC5/WaveDAC8_1.c **** 
 220:Generated_Source\PSoC5/WaveDAC8_1.c **** {
 515              		.loc 1 220 0
 516              		.cfi_startproc
 517              		@ args = 0, pretend = 0, frame = 8
 518              		@ frame_needed = 1, uses_anonymous_args = 0
 519 0000 80B5     		push	{r7, lr}
 520              		.cfi_def_cfa_offset 8
 521              		.cfi_offset 7, -8
ARM GAS  C:\Users\KJA\AppData\Local\Temp\ccnMlna6.s 			page 14


 522              		.cfi_offset 14, -4
 523 0002 82B0     		sub	sp, sp, #8
 524              		.cfi_def_cfa_offset 16
 525 0004 00AF     		add	r7, sp, #0
 526              		.cfi_def_cfa_register 7
 527 0006 7860     		str	r0, [r7, #4]
 528 0008 0B46     		mov	r3, r1
 529 000a 7B80     		strh	r3, [r7, #2]	@ movhi
 221:Generated_Source\PSoC5/WaveDAC8_1.c **** 	#if (CY_PSOC3)
 222:Generated_Source\PSoC5/WaveDAC8_1.c **** 		uint16 memoryType; /* determining the source memory type */
 223:Generated_Source\PSoC5/WaveDAC8_1.c **** 		memoryType = (WaveDAC8_1_HI16FLASHPTR == HI16(wavePtr)) ? HI16(CYDEV_FLS_BASE) : HI16(CYDEV_SRAM_
 224:Generated_Source\PSoC5/WaveDAC8_1.c **** 		
 225:Generated_Source\PSoC5/WaveDAC8_1.c **** 		WaveDAC8_1_Wave1Chan = WaveDAC8_1_Wave1_DMA_DmaInitialize(
 226:Generated_Source\PSoC5/WaveDAC8_1.c **** 		WaveDAC8_1_Wave1_DMA_BYTES_PER_BURST, WaveDAC8_1_Wave1_DMA_REQUEST_PER_BURST,
 227:Generated_Source\PSoC5/WaveDAC8_1.c **** 		memoryType, HI16(CYDEV_PERIPH_BASE));
 228:Generated_Source\PSoC5/WaveDAC8_1.c **** 	#else /* PSoC 5 */
 229:Generated_Source\PSoC5/WaveDAC8_1.c **** 		WaveDAC8_1_Wave1Chan = WaveDAC8_1_Wave1_DMA_DmaInitialize(
 230:Generated_Source\PSoC5/WaveDAC8_1.c **** 		WaveDAC8_1_Wave1_DMA_BYTES_PER_BURST, WaveDAC8_1_Wave1_DMA_REQUEST_PER_BURST,
 231:Generated_Source\PSoC5/WaveDAC8_1.c **** 		HI16(wavePtr), HI16(WaveDAC8_1_DAC8__D));
 530              		.loc 1 231 0
 531 000c 7B68     		ldr	r3, [r7, #4]
 532 000e 1B0C     		lsrs	r3, r3, #16
 229:Generated_Source\PSoC5/WaveDAC8_1.c **** 		WaveDAC8_1_Wave1_DMA_BYTES_PER_BURST, WaveDAC8_1_Wave1_DMA_REQUEST_PER_BURST,
 533              		.loc 1 229 0
 534 0010 9BB2     		uxth	r3, r3
 535 0012 0120     		movs	r0, #1
 536 0014 0121     		movs	r1, #1
 537 0016 1A46     		mov	r2, r3
 538 0018 4FF48043 		mov	r3, #16384
 539 001c FFF7FEFF 		bl	WaveDAC8_1_Wave1_DMA_DmaInitialize
 540 0020 0346     		mov	r3, r0
 541 0022 1A46     		mov	r2, r3
 542 0024 104B     		ldr	r3, .L16
 543 0026 1A70     		strb	r2, [r3]
 232:Generated_Source\PSoC5/WaveDAC8_1.c **** 	#endif /* CY_PSOC3 */
 233:Generated_Source\PSoC5/WaveDAC8_1.c **** 	
 234:Generated_Source\PSoC5/WaveDAC8_1.c **** 	/*
 235:Generated_Source\PSoC5/WaveDAC8_1.c **** 	* TD is looping on itself. 
 236:Generated_Source\PSoC5/WaveDAC8_1.c ****     * Increment the source address, but not the destination address. 
 237:Generated_Source\PSoC5/WaveDAC8_1.c **** 	*/
 238:Generated_Source\PSoC5/WaveDAC8_1.c **** 	(void)CyDmaTdSetConfiguration(WaveDAC8_1_Wave1TD, sampleSize, WaveDAC8_1_Wave1TD, 
 544              		.loc 1 238 0
 545 0028 104B     		ldr	r3, .L16+4
 546 002a 1978     		ldrb	r1, [r3]	@ zero_extendqisi2
 547 002c 0F4B     		ldr	r3, .L16+4
 548 002e 1B78     		ldrb	r3, [r3]	@ zero_extendqisi2
 549 0030 7A88     		ldrh	r2, [r7, #2]
 550 0032 0846     		mov	r0, r1
 551 0034 1146     		mov	r1, r2
 552 0036 1A46     		mov	r2, r3
 553 0038 0123     		movs	r3, #1
 554 003a FFF7FEFF 		bl	CyDmaTdSetConfiguration
 239:Generated_Source\PSoC5/WaveDAC8_1.c ****                                     (uint8)CY_DMA_TD_INC_SRC_ADR | (uint8)WaveDAC8_1_Wave1_DMA__TD_
 240:Generated_Source\PSoC5/WaveDAC8_1.c **** 	
 241:Generated_Source\PSoC5/WaveDAC8_1.c **** 	/* Set the TD source and destination address */
 242:Generated_Source\PSoC5/WaveDAC8_1.c **** 	(void)CyDmaTdSetAddress(WaveDAC8_1_Wave1TD, LO16((uint32)wavePtr), LO16(WaveDAC8_1_DAC8__D));
 555              		.loc 1 242 0
ARM GAS  C:\Users\KJA\AppData\Local\Temp\ccnMlna6.s 			page 15


 556 003e 0B4B     		ldr	r3, .L16+4
 557 0040 1A78     		ldrb	r2, [r3]	@ zero_extendqisi2
 558 0042 7B68     		ldr	r3, [r7, #4]
 559 0044 9BB2     		uxth	r3, r3
 560 0046 1046     		mov	r0, r2
 561 0048 1946     		mov	r1, r3
 562 004a 45F68332 		movw	r2, #23427
 563 004e FFF7FEFF 		bl	CyDmaTdSetAddress
 243:Generated_Source\PSoC5/WaveDAC8_1.c **** 	
 244:Generated_Source\PSoC5/WaveDAC8_1.c **** 	/* Associate the TD with the channel */
 245:Generated_Source\PSoC5/WaveDAC8_1.c **** 	(void)CyDmaChSetInitialTd(WaveDAC8_1_Wave1Chan, WaveDAC8_1_Wave1TD);
 564              		.loc 1 245 0
 565 0052 054B     		ldr	r3, .L16
 566 0054 1A78     		ldrb	r2, [r3]	@ zero_extendqisi2
 567 0056 054B     		ldr	r3, .L16+4
 568 0058 1B78     		ldrb	r3, [r3]	@ zero_extendqisi2
 569 005a 1046     		mov	r0, r2
 570 005c 1946     		mov	r1, r3
 571 005e FFF7FEFF 		bl	CyDmaChSetInitialTd
 246:Generated_Source\PSoC5/WaveDAC8_1.c **** }
 572              		.loc 1 246 0
 573 0062 0837     		adds	r7, r7, #8
 574              		.cfi_def_cfa_offset 8
 575 0064 BD46     		mov	sp, r7
 576              		.cfi_def_cfa_register 13
 577              		@ sp needed
 578 0066 80BD     		pop	{r7, pc}
 579              	.L17:
 580              		.align	2
 581              	.L16:
 582 0068 01000000 		.word	WaveDAC8_1_Wave1Chan
 583 006c 03000000 		.word	WaveDAC8_1_Wave1TD
 584              		.cfi_endproc
 585              	.LFE5:
 586              		.size	WaveDAC8_1_Wave1Setup, .-WaveDAC8_1_Wave1Setup
 587              		.section	.text.WaveDAC8_1_Wave2Setup,"ax",%progbits
 588              		.align	2
 589              		.global	WaveDAC8_1_Wave2Setup
 590              		.thumb
 591              		.thumb_func
 592              		.type	WaveDAC8_1_Wave2Setup, %function
 593              	WaveDAC8_1_Wave2Setup:
 594              	.LFB6:
 247:Generated_Source\PSoC5/WaveDAC8_1.c **** 
 248:Generated_Source\PSoC5/WaveDAC8_1.c **** 
 249:Generated_Source\PSoC5/WaveDAC8_1.c **** /*******************************************************************************
 250:Generated_Source\PSoC5/WaveDAC8_1.c **** * Function Name: WaveDAC8_1_Wave2Setup
 251:Generated_Source\PSoC5/WaveDAC8_1.c **** ********************************************************************************
 252:Generated_Source\PSoC5/WaveDAC8_1.c **** *
 253:Generated_Source\PSoC5/WaveDAC8_1.c **** * Summary:
 254:Generated_Source\PSoC5/WaveDAC8_1.c **** *  Sets pointer and size for waveform 2.                                    
 255:Generated_Source\PSoC5/WaveDAC8_1.c **** *
 256:Generated_Source\PSoC5/WaveDAC8_1.c **** * Parameters:  
 257:Generated_Source\PSoC5/WaveDAC8_1.c **** *  uint8 * WavePtr:     Pointer to the waveform array.
 258:Generated_Source\PSoC5/WaveDAC8_1.c **** *  uint16  SampleSize:  The amount of samples in the waveform.
 259:Generated_Source\PSoC5/WaveDAC8_1.c **** *
 260:Generated_Source\PSoC5/WaveDAC8_1.c **** * Return: 
ARM GAS  C:\Users\KJA\AppData\Local\Temp\ccnMlna6.s 			page 16


 261:Generated_Source\PSoC5/WaveDAC8_1.c **** *  None
 262:Generated_Source\PSoC5/WaveDAC8_1.c **** *
 263:Generated_Source\PSoC5/WaveDAC8_1.c **** *******************************************************************************/
 264:Generated_Source\PSoC5/WaveDAC8_1.c **** void WaveDAC8_1_Wave2Setup(const uint8 * wavePtr, uint16 sampleSize)
 265:Generated_Source\PSoC5/WaveDAC8_1.c ****  
 266:Generated_Source\PSoC5/WaveDAC8_1.c **** {
 595              		.loc 1 266 0
 596              		.cfi_startproc
 597              		@ args = 0, pretend = 0, frame = 8
 598              		@ frame_needed = 1, uses_anonymous_args = 0
 599 0000 80B5     		push	{r7, lr}
 600              		.cfi_def_cfa_offset 8
 601              		.cfi_offset 7, -8
 602              		.cfi_offset 14, -4
 603 0002 82B0     		sub	sp, sp, #8
 604              		.cfi_def_cfa_offset 16
 605 0004 00AF     		add	r7, sp, #0
 606              		.cfi_def_cfa_register 7
 607 0006 7860     		str	r0, [r7, #4]
 608 0008 0B46     		mov	r3, r1
 609 000a 7B80     		strh	r3, [r7, #2]	@ movhi
 267:Generated_Source\PSoC5/WaveDAC8_1.c **** 	#if (CY_PSOC3)
 268:Generated_Source\PSoC5/WaveDAC8_1.c **** 		uint16 memoryType; /* determining the source memory type */
 269:Generated_Source\PSoC5/WaveDAC8_1.c **** 		memoryType = (WaveDAC8_1_HI16FLASHPTR == HI16(wavePtr)) ? HI16(CYDEV_FLS_BASE) : HI16(CYDEV_SRAM_
 270:Generated_Source\PSoC5/WaveDAC8_1.c **** 			
 271:Generated_Source\PSoC5/WaveDAC8_1.c **** 		WaveDAC8_1_Wave2Chan = WaveDAC8_1_Wave2_DMA_DmaInitialize(
 272:Generated_Source\PSoC5/WaveDAC8_1.c **** 		WaveDAC8_1_Wave2_DMA_BYTES_PER_BURST, WaveDAC8_1_Wave2_DMA_REQUEST_PER_BURST,
 273:Generated_Source\PSoC5/WaveDAC8_1.c **** 		memoryType, HI16(CYDEV_PERIPH_BASE));
 274:Generated_Source\PSoC5/WaveDAC8_1.c **** 	#else /* PSoC 5 */
 275:Generated_Source\PSoC5/WaveDAC8_1.c **** 		WaveDAC8_1_Wave2Chan = WaveDAC8_1_Wave2_DMA_DmaInitialize(
 276:Generated_Source\PSoC5/WaveDAC8_1.c **** 		WaveDAC8_1_Wave2_DMA_BYTES_PER_BURST, WaveDAC8_1_Wave2_DMA_REQUEST_PER_BURST,
 277:Generated_Source\PSoC5/WaveDAC8_1.c **** 		HI16(wavePtr), HI16(WaveDAC8_1_DAC8__D));
 610              		.loc 1 277 0
 611 000c 7B68     		ldr	r3, [r7, #4]
 612 000e 1B0C     		lsrs	r3, r3, #16
 275:Generated_Source\PSoC5/WaveDAC8_1.c **** 		WaveDAC8_1_Wave2_DMA_BYTES_PER_BURST, WaveDAC8_1_Wave2_DMA_REQUEST_PER_BURST,
 613              		.loc 1 275 0
 614 0010 9BB2     		uxth	r3, r3
 615 0012 0120     		movs	r0, #1
 616 0014 0121     		movs	r1, #1
 617 0016 1A46     		mov	r2, r3
 618 0018 4FF48043 		mov	r3, #16384
 619 001c FFF7FEFF 		bl	WaveDAC8_1_Wave2_DMA_DmaInitialize
 620 0020 0346     		mov	r3, r0
 621 0022 1A46     		mov	r2, r3
 622 0024 104B     		ldr	r3, .L19
 623 0026 1A70     		strb	r2, [r3]
 278:Generated_Source\PSoC5/WaveDAC8_1.c **** 	#endif /* CY_PSOC3 */
 279:Generated_Source\PSoC5/WaveDAC8_1.c **** 	
 280:Generated_Source\PSoC5/WaveDAC8_1.c **** 	/*
 281:Generated_Source\PSoC5/WaveDAC8_1.c **** 	* TD is looping on itself. 
 282:Generated_Source\PSoC5/WaveDAC8_1.c **** 	* Increment the source address, but not the destination address. 
 283:Generated_Source\PSoC5/WaveDAC8_1.c **** 	*/
 284:Generated_Source\PSoC5/WaveDAC8_1.c **** 	(void)CyDmaTdSetConfiguration(WaveDAC8_1_Wave2TD, sampleSize, WaveDAC8_1_Wave2TD, 
 624              		.loc 1 284 0
 625 0028 104B     		ldr	r3, .L19+4
 626 002a 1978     		ldrb	r1, [r3]	@ zero_extendqisi2
ARM GAS  C:\Users\KJA\AppData\Local\Temp\ccnMlna6.s 			page 17


 627 002c 0F4B     		ldr	r3, .L19+4
 628 002e 1B78     		ldrb	r3, [r3]	@ zero_extendqisi2
 629 0030 7A88     		ldrh	r2, [r7, #2]
 630 0032 0846     		mov	r0, r1
 631 0034 1146     		mov	r1, r2
 632 0036 1A46     		mov	r2, r3
 633 0038 0123     		movs	r3, #1
 634 003a FFF7FEFF 		bl	CyDmaTdSetConfiguration
 285:Generated_Source\PSoC5/WaveDAC8_1.c ****                                     (uint8)CY_DMA_TD_INC_SRC_ADR | (uint8)WaveDAC8_1_Wave2_DMA__TD_
 286:Generated_Source\PSoC5/WaveDAC8_1.c **** 	
 287:Generated_Source\PSoC5/WaveDAC8_1.c **** 	/* Set the TD source and destination address */
 288:Generated_Source\PSoC5/WaveDAC8_1.c **** 	(void)CyDmaTdSetAddress(WaveDAC8_1_Wave2TD, LO16((uint32)wavePtr), LO16(WaveDAC8_1_DAC8__D));
 635              		.loc 1 288 0
 636 003e 0B4B     		ldr	r3, .L19+4
 637 0040 1A78     		ldrb	r2, [r3]	@ zero_extendqisi2
 638 0042 7B68     		ldr	r3, [r7, #4]
 639 0044 9BB2     		uxth	r3, r3
 640 0046 1046     		mov	r0, r2
 641 0048 1946     		mov	r1, r3
 642 004a 45F68332 		movw	r2, #23427
 643 004e FFF7FEFF 		bl	CyDmaTdSetAddress
 289:Generated_Source\PSoC5/WaveDAC8_1.c **** 	
 290:Generated_Source\PSoC5/WaveDAC8_1.c **** 	/* Associate the TD with the channel */
 291:Generated_Source\PSoC5/WaveDAC8_1.c **** 	(void)CyDmaChSetInitialTd(WaveDAC8_1_Wave2Chan, WaveDAC8_1_Wave2TD);
 644              		.loc 1 291 0
 645 0052 054B     		ldr	r3, .L19
 646 0054 1A78     		ldrb	r2, [r3]	@ zero_extendqisi2
 647 0056 054B     		ldr	r3, .L19+4
 648 0058 1B78     		ldrb	r3, [r3]	@ zero_extendqisi2
 649 005a 1046     		mov	r0, r2
 650 005c 1946     		mov	r1, r3
 651 005e FFF7FEFF 		bl	CyDmaChSetInitialTd
 292:Generated_Source\PSoC5/WaveDAC8_1.c **** }
 652              		.loc 1 292 0
 653 0062 0837     		adds	r7, r7, #8
 654              		.cfi_def_cfa_offset 8
 655 0064 BD46     		mov	sp, r7
 656              		.cfi_def_cfa_register 13
 657              		@ sp needed
 658 0066 80BD     		pop	{r7, pc}
 659              	.L20:
 660              		.align	2
 661              	.L19:
 662 0068 02000000 		.word	WaveDAC8_1_Wave2Chan
 663 006c 04000000 		.word	WaveDAC8_1_Wave2TD
 664              		.cfi_endproc
 665              	.LFE6:
 666              		.size	WaveDAC8_1_Wave2Setup, .-WaveDAC8_1_Wave2Setup
 667              		.text
 668              	.Letext0:
 669              		.file 2 "Generated_Source\\PSoC5\\cytypes.h"